   1              	 .syntax unified
   2              	 .cpu cortex-m4
   3              	 .fpu softvfp
   4              	 .eabi_attribute 20,1
   5              	 .eabi_attribute 21,1
   6              	 .eabi_attribute 23,3
   7              	 .eabi_attribute 24,1
   8              	 .eabi_attribute 25,1
   9              	 .eabi_attribute 26,1
  10              	 .eabi_attribute 30,6
  11              	 .eabi_attribute 34,1
  12              	 .eabi_attribute 18,4
  13              	 .thumb
  14              	 .file "arm_abs_q15.c"
  15              	 .text
  16              	.Ltext0:
  17              	 .cfi_sections .debug_frame
  18              	 .section .text.arm_abs_q15,"ax",%progbits
  19              	 .align 2
  20              	 .global arm_abs_q15
  21              	 .thumb
  22              	 .thumb_func
  24              	arm_abs_q15:
  25              	.LFB139:
  26              	 .file 1 "../Dave/Generated/CMSIS_DSP/BasicMathFunctions/arm_abs_q15.c"
   1:../Dave/Generated/CMSIS_DSP/BasicMathFunctions/arm_abs_q15.c **** /* ----------------------------------------------------------------------    
   2:../Dave/Generated/CMSIS_DSP/BasicMathFunctions/arm_abs_q15.c **** * Copyright (C) 2010-2014 ARM Limited. All rights reserved.    
   3:../Dave/Generated/CMSIS_DSP/BasicMathFunctions/arm_abs_q15.c **** *    
   4:../Dave/Generated/CMSIS_DSP/BasicMathFunctions/arm_abs_q15.c **** * $Date:        12. March 2014
   5:../Dave/Generated/CMSIS_DSP/BasicMathFunctions/arm_abs_q15.c **** * $Revision: 	V1.4.4
   6:../Dave/Generated/CMSIS_DSP/BasicMathFunctions/arm_abs_q15.c **** *    
   7:../Dave/Generated/CMSIS_DSP/BasicMathFunctions/arm_abs_q15.c **** * Project: 	    CMSIS DSP Library    
   8:../Dave/Generated/CMSIS_DSP/BasicMathFunctions/arm_abs_q15.c **** * Title:		arm_abs_q15.c    
   9:../Dave/Generated/CMSIS_DSP/BasicMathFunctions/arm_abs_q15.c **** *    
  10:../Dave/Generated/CMSIS_DSP/BasicMathFunctions/arm_abs_q15.c **** * Description:	Q15 vector absolute value.    
  11:../Dave/Generated/CMSIS_DSP/BasicMathFunctions/arm_abs_q15.c **** *    
  12:../Dave/Generated/CMSIS_DSP/BasicMathFunctions/arm_abs_q15.c **** * Target Processor: Cortex-M4/Cortex-M3/Cortex-M0
  13:../Dave/Generated/CMSIS_DSP/BasicMathFunctions/arm_abs_q15.c **** *  
  14:../Dave/Generated/CMSIS_DSP/BasicMathFunctions/arm_abs_q15.c **** * Redistribution and use in source and binary forms, with or without 
  15:../Dave/Generated/CMSIS_DSP/BasicMathFunctions/arm_abs_q15.c **** * modification, are permitted provided that the following conditions
  16:../Dave/Generated/CMSIS_DSP/BasicMathFunctions/arm_abs_q15.c **** * are met:
  17:../Dave/Generated/CMSIS_DSP/BasicMathFunctions/arm_abs_q15.c **** *   - Redistributions of source code must retain the above copyright
  18:../Dave/Generated/CMSIS_DSP/BasicMathFunctions/arm_abs_q15.c **** *     notice, this list of conditions and the following disclaimer.
  19:../Dave/Generated/CMSIS_DSP/BasicMathFunctions/arm_abs_q15.c **** *   - Redistributions in binary form must reproduce the above copyright
  20:../Dave/Generated/CMSIS_DSP/BasicMathFunctions/arm_abs_q15.c **** *     notice, this list of conditions and the following disclaimer in
  21:../Dave/Generated/CMSIS_DSP/BasicMathFunctions/arm_abs_q15.c **** *     the documentation and/or other materials provided with the 
  22:../Dave/Generated/CMSIS_DSP/BasicMathFunctions/arm_abs_q15.c **** *     distribution.
  23:../Dave/Generated/CMSIS_DSP/BasicMathFunctions/arm_abs_q15.c **** *   - Neither the name of ARM LIMITED nor the names of its contributors
  24:../Dave/Generated/CMSIS_DSP/BasicMathFunctions/arm_abs_q15.c **** *     may be used to endorse or promote products derived from this
  25:../Dave/Generated/CMSIS_DSP/BasicMathFunctions/arm_abs_q15.c **** *     software without specific prior written permission.
  26:../Dave/Generated/CMSIS_DSP/BasicMathFunctions/arm_abs_q15.c **** *
  27:../Dave/Generated/CMSIS_DSP/BasicMathFunctions/arm_abs_q15.c **** * THIS SOFTWARE IS PROVIDED BY THE COPYRIGHT HOLDERS AND CONTRIBUTORS
  28:../Dave/Generated/CMSIS_DSP/BasicMathFunctions/arm_abs_q15.c **** * "AS IS" AND ANY EXPRESS OR IMPLIED WARRANTIES, INCLUDING, BUT NOT
  29:../Dave/Generated/CMSIS_DSP/BasicMathFunctions/arm_abs_q15.c **** * LIMITED TO, THE IMPLIED WARRANTIES OF MERCHANTABILITY AND FITNESS
  30:../Dave/Generated/CMSIS_DSP/BasicMathFunctions/arm_abs_q15.c **** * FOR A PARTICULAR PURPOSE ARE DISCLAIMED. IN NO EVENT SHALL THE 
  31:../Dave/Generated/CMSIS_DSP/BasicMathFunctions/arm_abs_q15.c **** * COPYRIGHT OWNER OR CONTRIBUTORS BE LIABLE FOR ANY DIRECT, INDIRECT,
  32:../Dave/Generated/CMSIS_DSP/BasicMathFunctions/arm_abs_q15.c **** * INCIDENTAL, SPECIAL, EXEMPLARY, OR CONSEQUENTIAL DAMAGES (INCLUDING,
  33:../Dave/Generated/CMSIS_DSP/BasicMathFunctions/arm_abs_q15.c **** * BUT NOT LIMITED TO, PROCUREMENT OF SUBSTITUTE GOODS OR SERVICES;
  34:../Dave/Generated/CMSIS_DSP/BasicMathFunctions/arm_abs_q15.c **** * LOSS OF USE, DATA, OR PROFITS; OR BUSINESS INTERRUPTION) HOWEVER
  35:../Dave/Generated/CMSIS_DSP/BasicMathFunctions/arm_abs_q15.c **** * CAUSED AND ON ANY THEORY OF LIABILITY, WHETHER IN CONTRACT, STRICT
  36:../Dave/Generated/CMSIS_DSP/BasicMathFunctions/arm_abs_q15.c **** * LIABILITY, OR TORT (INCLUDING NEGLIGENCE OR OTHERWISE) ARISING IN
  37:../Dave/Generated/CMSIS_DSP/BasicMathFunctions/arm_abs_q15.c **** * ANY WAY OUT OF THE USE OF THIS SOFTWARE, EVEN IF ADVISED OF THE
  38:../Dave/Generated/CMSIS_DSP/BasicMathFunctions/arm_abs_q15.c **** * POSSIBILITY OF SUCH DAMAGE. 
  39:../Dave/Generated/CMSIS_DSP/BasicMathFunctions/arm_abs_q15.c **** * -------------------------------------------------------------------- */
  40:../Dave/Generated/CMSIS_DSP/BasicMathFunctions/arm_abs_q15.c **** 
  41:../Dave/Generated/CMSIS_DSP/BasicMathFunctions/arm_abs_q15.c **** #include "CMSIS_DSP/cmsis_dsp.h"
  42:../Dave/Generated/CMSIS_DSP/BasicMathFunctions/arm_abs_q15.c **** 
  43:../Dave/Generated/CMSIS_DSP/BasicMathFunctions/arm_abs_q15.c **** /**    
  44:../Dave/Generated/CMSIS_DSP/BasicMathFunctions/arm_abs_q15.c ****  * @ingroup groupMath    
  45:../Dave/Generated/CMSIS_DSP/BasicMathFunctions/arm_abs_q15.c ****  */
  46:../Dave/Generated/CMSIS_DSP/BasicMathFunctions/arm_abs_q15.c **** 
  47:../Dave/Generated/CMSIS_DSP/BasicMathFunctions/arm_abs_q15.c **** /**    
  48:../Dave/Generated/CMSIS_DSP/BasicMathFunctions/arm_abs_q15.c ****  * @addtogroup BasicAbs    
  49:../Dave/Generated/CMSIS_DSP/BasicMathFunctions/arm_abs_q15.c ****  * @{    
  50:../Dave/Generated/CMSIS_DSP/BasicMathFunctions/arm_abs_q15.c ****  */
  51:../Dave/Generated/CMSIS_DSP/BasicMathFunctions/arm_abs_q15.c **** 
  52:../Dave/Generated/CMSIS_DSP/BasicMathFunctions/arm_abs_q15.c **** /**    
  53:../Dave/Generated/CMSIS_DSP/BasicMathFunctions/arm_abs_q15.c ****  * @brief Q15 vector absolute value.    
  54:../Dave/Generated/CMSIS_DSP/BasicMathFunctions/arm_abs_q15.c ****  * @param[in]       *pSrc points to the input buffer    
  55:../Dave/Generated/CMSIS_DSP/BasicMathFunctions/arm_abs_q15.c ****  * @param[out]      *pDst points to the output buffer    
  56:../Dave/Generated/CMSIS_DSP/BasicMathFunctions/arm_abs_q15.c ****  * @param[in]       blockSize number of samples in each vector    
  57:../Dave/Generated/CMSIS_DSP/BasicMathFunctions/arm_abs_q15.c ****  * @return none.    
  58:../Dave/Generated/CMSIS_DSP/BasicMathFunctions/arm_abs_q15.c ****  *    
  59:../Dave/Generated/CMSIS_DSP/BasicMathFunctions/arm_abs_q15.c ****  * <b>Scaling and Overflow Behavior:</b>    
  60:../Dave/Generated/CMSIS_DSP/BasicMathFunctions/arm_abs_q15.c ****  * \par    
  61:../Dave/Generated/CMSIS_DSP/BasicMathFunctions/arm_abs_q15.c ****  * The function uses saturating arithmetic.    
  62:../Dave/Generated/CMSIS_DSP/BasicMathFunctions/arm_abs_q15.c ****  * The Q15 value -1 (0x8000) will be saturated to the maximum allowable positive value 0x7FFF.    
  63:../Dave/Generated/CMSIS_DSP/BasicMathFunctions/arm_abs_q15.c ****  */
  64:../Dave/Generated/CMSIS_DSP/BasicMathFunctions/arm_abs_q15.c **** 
  65:../Dave/Generated/CMSIS_DSP/BasicMathFunctions/arm_abs_q15.c **** void arm_abs_q15(
  66:../Dave/Generated/CMSIS_DSP/BasicMathFunctions/arm_abs_q15.c ****   q15_t * pSrc,
  67:../Dave/Generated/CMSIS_DSP/BasicMathFunctions/arm_abs_q15.c ****   q15_t * pDst,
  68:../Dave/Generated/CMSIS_DSP/BasicMathFunctions/arm_abs_q15.c ****   uint32_t blockSize)
  69:../Dave/Generated/CMSIS_DSP/BasicMathFunctions/arm_abs_q15.c **** {
  27              	 .loc 1 69 0
  28              	 .cfi_startproc
  29              	 
  30              	 
  31              	 
  32 0000 80B4     	 push {r7}
  33              	.LCFI0:
  34              	 .cfi_def_cfa_offset 4
  35              	 .cfi_offset 7,-4
  36 0002 9DB0     	 sub sp,sp,#116
  37              	.LCFI1:
  38              	 .cfi_def_cfa_offset 120
  39 0004 00AF     	 add r7,sp,#0
  40              	.LCFI2:
  41              	 .cfi_def_cfa_register 7
  42 0006 F860     	 str r0,[r7,#12]
  43 0008 B960     	 str r1,[r7,#8]
  44 000a 7A60     	 str r2,[r7,#4]
  70:../Dave/Generated/CMSIS_DSP/BasicMathFunctions/arm_abs_q15.c ****   uint32_t blkCnt;                               /* loop counter */
  71:../Dave/Generated/CMSIS_DSP/BasicMathFunctions/arm_abs_q15.c **** 
  72:../Dave/Generated/CMSIS_DSP/BasicMathFunctions/arm_abs_q15.c **** #ifndef ARM_MATH_CM0_FAMILY
  73:../Dave/Generated/CMSIS_DSP/BasicMathFunctions/arm_abs_q15.c ****   __SIMD32_TYPE *simd;
  74:../Dave/Generated/CMSIS_DSP/BasicMathFunctions/arm_abs_q15.c **** 
  75:../Dave/Generated/CMSIS_DSP/BasicMathFunctions/arm_abs_q15.c **** /* Run the below code for Cortex-M4 and Cortex-M3 */
  76:../Dave/Generated/CMSIS_DSP/BasicMathFunctions/arm_abs_q15.c **** 
  77:../Dave/Generated/CMSIS_DSP/BasicMathFunctions/arm_abs_q15.c ****   q15_t in1;                                     /* Input value1 */
  78:../Dave/Generated/CMSIS_DSP/BasicMathFunctions/arm_abs_q15.c ****   q15_t in2;                                     /* Input value2 */
  79:../Dave/Generated/CMSIS_DSP/BasicMathFunctions/arm_abs_q15.c **** 
  80:../Dave/Generated/CMSIS_DSP/BasicMathFunctions/arm_abs_q15.c **** 
  81:../Dave/Generated/CMSIS_DSP/BasicMathFunctions/arm_abs_q15.c ****   /*loop Unrolling */
  82:../Dave/Generated/CMSIS_DSP/BasicMathFunctions/arm_abs_q15.c ****   blkCnt = blockSize >> 2u;
  45              	 .loc 1 82 0
  46 000c 7B68     	 ldr r3,[r7,#4]
  47 000e 9B08     	 lsrs r3,r3,#2
  48 0010 FB66     	 str r3,[r7,#108]
  83:../Dave/Generated/CMSIS_DSP/BasicMathFunctions/arm_abs_q15.c **** 
  84:../Dave/Generated/CMSIS_DSP/BasicMathFunctions/arm_abs_q15.c ****   /* First part of the processing with loop unrolling.  Compute 4 outputs at a time.    
  85:../Dave/Generated/CMSIS_DSP/BasicMathFunctions/arm_abs_q15.c ****    ** a second loop below computes the remaining 1 to 3 samples. */
  86:../Dave/Generated/CMSIS_DSP/BasicMathFunctions/arm_abs_q15.c ****   simd = __SIMD32_CONST(pDst);
  49              	 .loc 1 86 0
  50 0012 BB68     	 ldr r3,[r7,#8]
  51 0014 BB66     	 str r3,[r7,#104]
  87:../Dave/Generated/CMSIS_DSP/BasicMathFunctions/arm_abs_q15.c ****   while(blkCnt > 0u)
  52              	 .loc 1 87 0
  53 0016 82E0     	 b .L2
  54              	.L15:
  88:../Dave/Generated/CMSIS_DSP/BasicMathFunctions/arm_abs_q15.c ****   {
  89:../Dave/Generated/CMSIS_DSP/BasicMathFunctions/arm_abs_q15.c ****     /* C = |A| */
  90:../Dave/Generated/CMSIS_DSP/BasicMathFunctions/arm_abs_q15.c ****     /* Read two inputs */
  91:../Dave/Generated/CMSIS_DSP/BasicMathFunctions/arm_abs_q15.c ****     in1 = *pSrc++;
  55              	 .loc 1 91 0
  56 0018 FB68     	 ldr r3,[r7,#12]
  57 001a 9A1C     	 adds r2,r3,#2
  58 001c FA60     	 str r2,[r7,#12]
  59 001e 1B88     	 ldrh r3,[r3]
  60 0020 A7F86630 	 strh r3,[r7,#102]
  92:../Dave/Generated/CMSIS_DSP/BasicMathFunctions/arm_abs_q15.c ****     in2 = *pSrc++;
  61              	 .loc 1 92 0
  62 0024 FB68     	 ldr r3,[r7,#12]
  63 0026 9A1C     	 adds r2,r3,#2
  64 0028 FA60     	 str r2,[r7,#12]
  65 002a 1B88     	 ldrh r3,[r3]
  66 002c A7F86430 	 strh r3,[r7,#100]
  93:../Dave/Generated/CMSIS_DSP/BasicMathFunctions/arm_abs_q15.c **** 
  94:../Dave/Generated/CMSIS_DSP/BasicMathFunctions/arm_abs_q15.c **** 
  95:../Dave/Generated/CMSIS_DSP/BasicMathFunctions/arm_abs_q15.c ****     /* Store the Absolute result in the destination buffer by packing the two values, in a single c
  96:../Dave/Generated/CMSIS_DSP/BasicMathFunctions/arm_abs_q15.c **** #ifndef  ARM_MATH_BIG_ENDIAN
  97:../Dave/Generated/CMSIS_DSP/BasicMathFunctions/arm_abs_q15.c ****     *simd++ =
  67              	 .loc 1 97 0
  68 0030 BB6E     	 ldr r3,[r7,#104]
  69 0032 1A1D     	 adds r2,r3,#4
  70 0034 BA66     	 str r2,[r7,#104]
  71              	.LBB14:
  98:../Dave/Generated/CMSIS_DSP/BasicMathFunctions/arm_abs_q15.c ****       __PKHBT(((in1 > 0) ? in1 : (q15_t)__QSUB16(0, in1)),
  72              	 .loc 1 98 0
  73 0036 B7F96620 	 ldrsh r2,[r7,#102]
  74 003a 002A     	 cmp r2,#0
  75 003c 02DD     	 ble .L3
  76              	 .loc 1 98 0 is_stmt 0 discriminator 1
  77 003e B7F96620 	 ldrsh r2,[r7,#102]
  78 0042 0CE0     	 b .L4
  79              	.L3:
  80              	 .loc 1 98 0 discriminator 2
  81 0044 B7F96620 	 ldrsh r2,[r7,#102]
  82 0048 0021     	 movs r1,#0
  83 004a B964     	 str r1,[r7,#72]
  84 004c 7A64     	 str r2,[r7,#68]
  85              	.LBB15:
  86              	.LBB16:
  87              	 .file 2 "C:\\Users\\Depes Crystalline\\Desktop\\school\\Active_Bike_Lighting_System\\Radar_Core/Libraries/CMSIS/Include/core_cmSimd.h"
   1:C:\Users\Depes Crystalline\Desktop\school\Active_Bike_Lighting_System\Radar_Core/Libraries/CMSIS/Include\core_cmSimd.h **** /**************************************************************************//**
   2:C:\Users\Depes Crystalline\Desktop\school\Active_Bike_Lighting_System\Radar_Core/Libraries/CMSIS/Include\core_cmSimd.h ****  * @file     core_cmSimd.h
   3:C:\Users\Depes Crystalline\Desktop\school\Active_Bike_Lighting_System\Radar_Core/Libraries/CMSIS/Include\core_cmSimd.h ****  * @brief    CMSIS Cortex-M SIMD Header File
   4:C:\Users\Depes Crystalline\Desktop\school\Active_Bike_Lighting_System\Radar_Core/Libraries/CMSIS/Include\core_cmSimd.h ****  * @version  V4.00
   5:C:\Users\Depes Crystalline\Desktop\school\Active_Bike_Lighting_System\Radar_Core/Libraries/CMSIS/Include\core_cmSimd.h ****  * @date     22. August 2014
   6:C:\Users\Depes Crystalline\Desktop\school\Active_Bike_Lighting_System\Radar_Core/Libraries/CMSIS/Include\core_cmSimd.h ****  *
   7:C:\Users\Depes Crystalline\Desktop\school\Active_Bike_Lighting_System\Radar_Core/Libraries/CMSIS/Include\core_cmSimd.h ****  * @note
   8:C:\Users\Depes Crystalline\Desktop\school\Active_Bike_Lighting_System\Radar_Core/Libraries/CMSIS/Include\core_cmSimd.h ****  *
   9:C:\Users\Depes Crystalline\Desktop\school\Active_Bike_Lighting_System\Radar_Core/Libraries/CMSIS/Include\core_cmSimd.h ****  ******************************************************************************/
  10:C:\Users\Depes Crystalline\Desktop\school\Active_Bike_Lighting_System\Radar_Core/Libraries/CMSIS/Include\core_cmSimd.h **** /* Copyright (c) 2009 - 2014 ARM LIMITED
  11:C:\Users\Depes Crystalline\Desktop\school\Active_Bike_Lighting_System\Radar_Core/Libraries/CMSIS/Include\core_cmSimd.h **** 
  12:C:\Users\Depes Crystalline\Desktop\school\Active_Bike_Lighting_System\Radar_Core/Libraries/CMSIS/Include\core_cmSimd.h ****    All rights reserved.
  13:C:\Users\Depes Crystalline\Desktop\school\Active_Bike_Lighting_System\Radar_Core/Libraries/CMSIS/Include\core_cmSimd.h ****    Redistribution and use in source and binary forms, with or without
  14:C:\Users\Depes Crystalline\Desktop\school\Active_Bike_Lighting_System\Radar_Core/Libraries/CMSIS/Include\core_cmSimd.h ****    modification, are permitted provided that the following conditions are met:
  15:C:\Users\Depes Crystalline\Desktop\school\Active_Bike_Lighting_System\Radar_Core/Libraries/CMSIS/Include\core_cmSimd.h ****    - Redistributions of source code must retain the above copyright
  16:C:\Users\Depes Crystalline\Desktop\school\Active_Bike_Lighting_System\Radar_Core/Libraries/CMSIS/Include\core_cmSimd.h ****      notice, this list of conditions and the following disclaimer.
  17:C:\Users\Depes Crystalline\Desktop\school\Active_Bike_Lighting_System\Radar_Core/Libraries/CMSIS/Include\core_cmSimd.h ****    - Redistributions in binary form must reproduce the above copyright
  18:C:\Users\Depes Crystalline\Desktop\school\Active_Bike_Lighting_System\Radar_Core/Libraries/CMSIS/Include\core_cmSimd.h ****      notice, this list of conditions and the following disclaimer in the
  19:C:\Users\Depes Crystalline\Desktop\school\Active_Bike_Lighting_System\Radar_Core/Libraries/CMSIS/Include\core_cmSimd.h ****      documentation and/or other materials provided with the distribution.
  20:C:\Users\Depes Crystalline\Desktop\school\Active_Bike_Lighting_System\Radar_Core/Libraries/CMSIS/Include\core_cmSimd.h ****    - Neither the name of ARM nor the names of its contributors may be used
  21:C:\Users\Depes Crystalline\Desktop\school\Active_Bike_Lighting_System\Radar_Core/Libraries/CMSIS/Include\core_cmSimd.h ****      to endorse or promote products derived from this software without
  22:C:\Users\Depes Crystalline\Desktop\school\Active_Bike_Lighting_System\Radar_Core/Libraries/CMSIS/Include\core_cmSimd.h ****      specific prior written permission.
  23:C:\Users\Depes Crystalline\Desktop\school\Active_Bike_Lighting_System\Radar_Core/Libraries/CMSIS/Include\core_cmSimd.h ****    *
  24:C:\Users\Depes Crystalline\Desktop\school\Active_Bike_Lighting_System\Radar_Core/Libraries/CMSIS/Include\core_cmSimd.h ****    THIS SOFTWARE IS PROVIDED BY THE COPYRIGHT HOLDERS AND CONTRIBUTORS "AS IS"
  25:C:\Users\Depes Crystalline\Desktop\school\Active_Bike_Lighting_System\Radar_Core/Libraries/CMSIS/Include\core_cmSimd.h ****    AND ANY EXPRESS OR IMPLIED WARRANTIES, INCLUDING, BUT NOT LIMITED TO, THE
  26:C:\Users\Depes Crystalline\Desktop\school\Active_Bike_Lighting_System\Radar_Core/Libraries/CMSIS/Include\core_cmSimd.h ****    IMPLIED WARRANTIES OF MERCHANTABILITY AND FITNESS FOR A PARTICULAR PURPOSE
  27:C:\Users\Depes Crystalline\Desktop\school\Active_Bike_Lighting_System\Radar_Core/Libraries/CMSIS/Include\core_cmSimd.h ****    ARE DISCLAIMED. IN NO EVENT SHALL COPYRIGHT HOLDERS AND CONTRIBUTORS BE
  28:C:\Users\Depes Crystalline\Desktop\school\Active_Bike_Lighting_System\Radar_Core/Libraries/CMSIS/Include\core_cmSimd.h ****    LIABLE FOR ANY DIRECT, INDIRECT, INCIDENTAL, SPECIAL, EXEMPLARY, OR
  29:C:\Users\Depes Crystalline\Desktop\school\Active_Bike_Lighting_System\Radar_Core/Libraries/CMSIS/Include\core_cmSimd.h ****    CONSEQUENTIAL DAMAGES (INCLUDING, BUT NOT LIMITED TO, PROCUREMENT OF
  30:C:\Users\Depes Crystalline\Desktop\school\Active_Bike_Lighting_System\Radar_Core/Libraries/CMSIS/Include\core_cmSimd.h ****    SUBSTITUTE GOODS OR SERVICES; LOSS OF USE, DATA, OR PROFITS; OR BUSINESS
  31:C:\Users\Depes Crystalline\Desktop\school\Active_Bike_Lighting_System\Radar_Core/Libraries/CMSIS/Include\core_cmSimd.h ****    INTERRUPTION) HOWEVER CAUSED AND ON ANY THEORY OF LIABILITY, WHETHER IN
  32:C:\Users\Depes Crystalline\Desktop\school\Active_Bike_Lighting_System\Radar_Core/Libraries/CMSIS/Include\core_cmSimd.h ****    CONTRACT, STRICT LIABILITY, OR TORT (INCLUDING NEGLIGENCE OR OTHERWISE)
  33:C:\Users\Depes Crystalline\Desktop\school\Active_Bike_Lighting_System\Radar_Core/Libraries/CMSIS/Include\core_cmSimd.h ****    ARISING IN ANY WAY OUT OF THE USE OF THIS SOFTWARE, EVEN IF ADVISED OF THE
  34:C:\Users\Depes Crystalline\Desktop\school\Active_Bike_Lighting_System\Radar_Core/Libraries/CMSIS/Include\core_cmSimd.h ****    POSSIBILITY OF SUCH DAMAGE.
  35:C:\Users\Depes Crystalline\Desktop\school\Active_Bike_Lighting_System\Radar_Core/Libraries/CMSIS/Include\core_cmSimd.h ****    ---------------------------------------------------------------------------*/
  36:C:\Users\Depes Crystalline\Desktop\school\Active_Bike_Lighting_System\Radar_Core/Libraries/CMSIS/Include\core_cmSimd.h **** 
  37:C:\Users\Depes Crystalline\Desktop\school\Active_Bike_Lighting_System\Radar_Core/Libraries/CMSIS/Include\core_cmSimd.h **** 
  38:C:\Users\Depes Crystalline\Desktop\school\Active_Bike_Lighting_System\Radar_Core/Libraries/CMSIS/Include\core_cmSimd.h **** #if defined ( __ICCARM__ )
  39:C:\Users\Depes Crystalline\Desktop\school\Active_Bike_Lighting_System\Radar_Core/Libraries/CMSIS/Include\core_cmSimd.h ****  #pragma system_include  /* treat file as system include file for MISRA check */
  40:C:\Users\Depes Crystalline\Desktop\school\Active_Bike_Lighting_System\Radar_Core/Libraries/CMSIS/Include\core_cmSimd.h **** #endif
  41:C:\Users\Depes Crystalline\Desktop\school\Active_Bike_Lighting_System\Radar_Core/Libraries/CMSIS/Include\core_cmSimd.h **** 
  42:C:\Users\Depes Crystalline\Desktop\school\Active_Bike_Lighting_System\Radar_Core/Libraries/CMSIS/Include\core_cmSimd.h **** #ifndef __CORE_CMSIMD_H
  43:C:\Users\Depes Crystalline\Desktop\school\Active_Bike_Lighting_System\Radar_Core/Libraries/CMSIS/Include\core_cmSimd.h **** #define __CORE_CMSIMD_H
  44:C:\Users\Depes Crystalline\Desktop\school\Active_Bike_Lighting_System\Radar_Core/Libraries/CMSIS/Include\core_cmSimd.h **** 
  45:C:\Users\Depes Crystalline\Desktop\school\Active_Bike_Lighting_System\Radar_Core/Libraries/CMSIS/Include\core_cmSimd.h **** #ifdef __cplusplus
  46:C:\Users\Depes Crystalline\Desktop\school\Active_Bike_Lighting_System\Radar_Core/Libraries/CMSIS/Include\core_cmSimd.h ****  extern "C" {
  47:C:\Users\Depes Crystalline\Desktop\school\Active_Bike_Lighting_System\Radar_Core/Libraries/CMSIS/Include\core_cmSimd.h **** #endif
  48:C:\Users\Depes Crystalline\Desktop\school\Active_Bike_Lighting_System\Radar_Core/Libraries/CMSIS/Include\core_cmSimd.h **** 
  49:C:\Users\Depes Crystalline\Desktop\school\Active_Bike_Lighting_System\Radar_Core/Libraries/CMSIS/Include\core_cmSimd.h **** 
  50:C:\Users\Depes Crystalline\Desktop\school\Active_Bike_Lighting_System\Radar_Core/Libraries/CMSIS/Include\core_cmSimd.h **** /*******************************************************************************
  51:C:\Users\Depes Crystalline\Desktop\school\Active_Bike_Lighting_System\Radar_Core/Libraries/CMSIS/Include\core_cmSimd.h ****  *                Hardware Abstraction Layer
  52:C:\Users\Depes Crystalline\Desktop\school\Active_Bike_Lighting_System\Radar_Core/Libraries/CMSIS/Include\core_cmSimd.h ****  ******************************************************************************/
  53:C:\Users\Depes Crystalline\Desktop\school\Active_Bike_Lighting_System\Radar_Core/Libraries/CMSIS/Include\core_cmSimd.h **** 
  54:C:\Users\Depes Crystalline\Desktop\school\Active_Bike_Lighting_System\Radar_Core/Libraries/CMSIS/Include\core_cmSimd.h **** 
  55:C:\Users\Depes Crystalline\Desktop\school\Active_Bike_Lighting_System\Radar_Core/Libraries/CMSIS/Include\core_cmSimd.h **** /* ###################  Compiler specific Intrinsics  ########################### */
  56:C:\Users\Depes Crystalline\Desktop\school\Active_Bike_Lighting_System\Radar_Core/Libraries/CMSIS/Include\core_cmSimd.h **** /** \defgroup CMSIS_SIMD_intrinsics CMSIS SIMD Intrinsics
  57:C:\Users\Depes Crystalline\Desktop\school\Active_Bike_Lighting_System\Radar_Core/Libraries/CMSIS/Include\core_cmSimd.h ****   Access to dedicated SIMD instructions
  58:C:\Users\Depes Crystalline\Desktop\school\Active_Bike_Lighting_System\Radar_Core/Libraries/CMSIS/Include\core_cmSimd.h ****   @{
  59:C:\Users\Depes Crystalline\Desktop\school\Active_Bike_Lighting_System\Radar_Core/Libraries/CMSIS/Include\core_cmSimd.h **** */
  60:C:\Users\Depes Crystalline\Desktop\school\Active_Bike_Lighting_System\Radar_Core/Libraries/CMSIS/Include\core_cmSimd.h **** 
  61:C:\Users\Depes Crystalline\Desktop\school\Active_Bike_Lighting_System\Radar_Core/Libraries/CMSIS/Include\core_cmSimd.h **** #if   defined ( __CC_ARM ) /*------------------RealView Compiler -----------------*/
  62:C:\Users\Depes Crystalline\Desktop\school\Active_Bike_Lighting_System\Radar_Core/Libraries/CMSIS/Include\core_cmSimd.h **** /* ARM armcc specific functions */
  63:C:\Users\Depes Crystalline\Desktop\school\Active_Bike_Lighting_System\Radar_Core/Libraries/CMSIS/Include\core_cmSimd.h **** #define __SADD8                           __sadd8
  64:C:\Users\Depes Crystalline\Desktop\school\Active_Bike_Lighting_System\Radar_Core/Libraries/CMSIS/Include\core_cmSimd.h **** #define __QADD8                           __qadd8
  65:C:\Users\Depes Crystalline\Desktop\school\Active_Bike_Lighting_System\Radar_Core/Libraries/CMSIS/Include\core_cmSimd.h **** #define __SHADD8                          __shadd8
  66:C:\Users\Depes Crystalline\Desktop\school\Active_Bike_Lighting_System\Radar_Core/Libraries/CMSIS/Include\core_cmSimd.h **** #define __UADD8                           __uadd8
  67:C:\Users\Depes Crystalline\Desktop\school\Active_Bike_Lighting_System\Radar_Core/Libraries/CMSIS/Include\core_cmSimd.h **** #define __UQADD8                          __uqadd8
  68:C:\Users\Depes Crystalline\Desktop\school\Active_Bike_Lighting_System\Radar_Core/Libraries/CMSIS/Include\core_cmSimd.h **** #define __UHADD8                          __uhadd8
  69:C:\Users\Depes Crystalline\Desktop\school\Active_Bike_Lighting_System\Radar_Core/Libraries/CMSIS/Include\core_cmSimd.h **** #define __SSUB8                           __ssub8
  70:C:\Users\Depes Crystalline\Desktop\school\Active_Bike_Lighting_System\Radar_Core/Libraries/CMSIS/Include\core_cmSimd.h **** #define __QSUB8                           __qsub8
  71:C:\Users\Depes Crystalline\Desktop\school\Active_Bike_Lighting_System\Radar_Core/Libraries/CMSIS/Include\core_cmSimd.h **** #define __SHSUB8                          __shsub8
  72:C:\Users\Depes Crystalline\Desktop\school\Active_Bike_Lighting_System\Radar_Core/Libraries/CMSIS/Include\core_cmSimd.h **** #define __USUB8                           __usub8
  73:C:\Users\Depes Crystalline\Desktop\school\Active_Bike_Lighting_System\Radar_Core/Libraries/CMSIS/Include\core_cmSimd.h **** #define __UQSUB8                          __uqsub8
  74:C:\Users\Depes Crystalline\Desktop\school\Active_Bike_Lighting_System\Radar_Core/Libraries/CMSIS/Include\core_cmSimd.h **** #define __UHSUB8                          __uhsub8
  75:C:\Users\Depes Crystalline\Desktop\school\Active_Bike_Lighting_System\Radar_Core/Libraries/CMSIS/Include\core_cmSimd.h **** #define __SADD16                          __sadd16
  76:C:\Users\Depes Crystalline\Desktop\school\Active_Bike_Lighting_System\Radar_Core/Libraries/CMSIS/Include\core_cmSimd.h **** #define __QADD16                          __qadd16
  77:C:\Users\Depes Crystalline\Desktop\school\Active_Bike_Lighting_System\Radar_Core/Libraries/CMSIS/Include\core_cmSimd.h **** #define __SHADD16                         __shadd16
  78:C:\Users\Depes Crystalline\Desktop\school\Active_Bike_Lighting_System\Radar_Core/Libraries/CMSIS/Include\core_cmSimd.h **** #define __UADD16                          __uadd16
  79:C:\Users\Depes Crystalline\Desktop\school\Active_Bike_Lighting_System\Radar_Core/Libraries/CMSIS/Include\core_cmSimd.h **** #define __UQADD16                         __uqadd16
  80:C:\Users\Depes Crystalline\Desktop\school\Active_Bike_Lighting_System\Radar_Core/Libraries/CMSIS/Include\core_cmSimd.h **** #define __UHADD16                         __uhadd16
  81:C:\Users\Depes Crystalline\Desktop\school\Active_Bike_Lighting_System\Radar_Core/Libraries/CMSIS/Include\core_cmSimd.h **** #define __SSUB16                          __ssub16
  82:C:\Users\Depes Crystalline\Desktop\school\Active_Bike_Lighting_System\Radar_Core/Libraries/CMSIS/Include\core_cmSimd.h **** #define __QSUB16                          __qsub16
  83:C:\Users\Depes Crystalline\Desktop\school\Active_Bike_Lighting_System\Radar_Core/Libraries/CMSIS/Include\core_cmSimd.h **** #define __SHSUB16                         __shsub16
  84:C:\Users\Depes Crystalline\Desktop\school\Active_Bike_Lighting_System\Radar_Core/Libraries/CMSIS/Include\core_cmSimd.h **** #define __USUB16                          __usub16
  85:C:\Users\Depes Crystalline\Desktop\school\Active_Bike_Lighting_System\Radar_Core/Libraries/CMSIS/Include\core_cmSimd.h **** #define __UQSUB16                         __uqsub16
  86:C:\Users\Depes Crystalline\Desktop\school\Active_Bike_Lighting_System\Radar_Core/Libraries/CMSIS/Include\core_cmSimd.h **** #define __UHSUB16                         __uhsub16
  87:C:\Users\Depes Crystalline\Desktop\school\Active_Bike_Lighting_System\Radar_Core/Libraries/CMSIS/Include\core_cmSimd.h **** #define __SASX                            __sasx
  88:C:\Users\Depes Crystalline\Desktop\school\Active_Bike_Lighting_System\Radar_Core/Libraries/CMSIS/Include\core_cmSimd.h **** #define __QASX                            __qasx
  89:C:\Users\Depes Crystalline\Desktop\school\Active_Bike_Lighting_System\Radar_Core/Libraries/CMSIS/Include\core_cmSimd.h **** #define __SHASX                           __shasx
  90:C:\Users\Depes Crystalline\Desktop\school\Active_Bike_Lighting_System\Radar_Core/Libraries/CMSIS/Include\core_cmSimd.h **** #define __UASX                            __uasx
  91:C:\Users\Depes Crystalline\Desktop\school\Active_Bike_Lighting_System\Radar_Core/Libraries/CMSIS/Include\core_cmSimd.h **** #define __UQASX                           __uqasx
  92:C:\Users\Depes Crystalline\Desktop\school\Active_Bike_Lighting_System\Radar_Core/Libraries/CMSIS/Include\core_cmSimd.h **** #define __UHASX                           __uhasx
  93:C:\Users\Depes Crystalline\Desktop\school\Active_Bike_Lighting_System\Radar_Core/Libraries/CMSIS/Include\core_cmSimd.h **** #define __SSAX                            __ssax
  94:C:\Users\Depes Crystalline\Desktop\school\Active_Bike_Lighting_System\Radar_Core/Libraries/CMSIS/Include\core_cmSimd.h **** #define __QSAX                            __qsax
  95:C:\Users\Depes Crystalline\Desktop\school\Active_Bike_Lighting_System\Radar_Core/Libraries/CMSIS/Include\core_cmSimd.h **** #define __SHSAX                           __shsax
  96:C:\Users\Depes Crystalline\Desktop\school\Active_Bike_Lighting_System\Radar_Core/Libraries/CMSIS/Include\core_cmSimd.h **** #define __USAX                            __usax
  97:C:\Users\Depes Crystalline\Desktop\school\Active_Bike_Lighting_System\Radar_Core/Libraries/CMSIS/Include\core_cmSimd.h **** #define __UQSAX                           __uqsax
  98:C:\Users\Depes Crystalline\Desktop\school\Active_Bike_Lighting_System\Radar_Core/Libraries/CMSIS/Include\core_cmSimd.h **** #define __UHSAX                           __uhsax
  99:C:\Users\Depes Crystalline\Desktop\school\Active_Bike_Lighting_System\Radar_Core/Libraries/CMSIS/Include\core_cmSimd.h **** #define __USAD8                           __usad8
 100:C:\Users\Depes Crystalline\Desktop\school\Active_Bike_Lighting_System\Radar_Core/Libraries/CMSIS/Include\core_cmSimd.h **** #define __USADA8                          __usada8
 101:C:\Users\Depes Crystalline\Desktop\school\Active_Bike_Lighting_System\Radar_Core/Libraries/CMSIS/Include\core_cmSimd.h **** #define __SSAT16                          __ssat16
 102:C:\Users\Depes Crystalline\Desktop\school\Active_Bike_Lighting_System\Radar_Core/Libraries/CMSIS/Include\core_cmSimd.h **** #define __USAT16                          __usat16
 103:C:\Users\Depes Crystalline\Desktop\school\Active_Bike_Lighting_System\Radar_Core/Libraries/CMSIS/Include\core_cmSimd.h **** #define __UXTB16                          __uxtb16
 104:C:\Users\Depes Crystalline\Desktop\school\Active_Bike_Lighting_System\Radar_Core/Libraries/CMSIS/Include\core_cmSimd.h **** #define __UXTAB16                         __uxtab16
 105:C:\Users\Depes Crystalline\Desktop\school\Active_Bike_Lighting_System\Radar_Core/Libraries/CMSIS/Include\core_cmSimd.h **** #define __SXTB16                          __sxtb16
 106:C:\Users\Depes Crystalline\Desktop\school\Active_Bike_Lighting_System\Radar_Core/Libraries/CMSIS/Include\core_cmSimd.h **** #define __SXTAB16                         __sxtab16
 107:C:\Users\Depes Crystalline\Desktop\school\Active_Bike_Lighting_System\Radar_Core/Libraries/CMSIS/Include\core_cmSimd.h **** #define __SMUAD                           __smuad
 108:C:\Users\Depes Crystalline\Desktop\school\Active_Bike_Lighting_System\Radar_Core/Libraries/CMSIS/Include\core_cmSimd.h **** #define __SMUADX                          __smuadx
 109:C:\Users\Depes Crystalline\Desktop\school\Active_Bike_Lighting_System\Radar_Core/Libraries/CMSIS/Include\core_cmSimd.h **** #define __SMLAD                           __smlad
 110:C:\Users\Depes Crystalline\Desktop\school\Active_Bike_Lighting_System\Radar_Core/Libraries/CMSIS/Include\core_cmSimd.h **** #define __SMLADX                          __smladx
 111:C:\Users\Depes Crystalline\Desktop\school\Active_Bike_Lighting_System\Radar_Core/Libraries/CMSIS/Include\core_cmSimd.h **** #define __SMLALD                          __smlald
 112:C:\Users\Depes Crystalline\Desktop\school\Active_Bike_Lighting_System\Radar_Core/Libraries/CMSIS/Include\core_cmSimd.h **** #define __SMLALDX                         __smlaldx
 113:C:\Users\Depes Crystalline\Desktop\school\Active_Bike_Lighting_System\Radar_Core/Libraries/CMSIS/Include\core_cmSimd.h **** #define __SMUSD                           __smusd
 114:C:\Users\Depes Crystalline\Desktop\school\Active_Bike_Lighting_System\Radar_Core/Libraries/CMSIS/Include\core_cmSimd.h **** #define __SMUSDX                          __smusdx
 115:C:\Users\Depes Crystalline\Desktop\school\Active_Bike_Lighting_System\Radar_Core/Libraries/CMSIS/Include\core_cmSimd.h **** #define __SMLSD                           __smlsd
 116:C:\Users\Depes Crystalline\Desktop\school\Active_Bike_Lighting_System\Radar_Core/Libraries/CMSIS/Include\core_cmSimd.h **** #define __SMLSDX                          __smlsdx
 117:C:\Users\Depes Crystalline\Desktop\school\Active_Bike_Lighting_System\Radar_Core/Libraries/CMSIS/Include\core_cmSimd.h **** #define __SMLSLD                          __smlsld
 118:C:\Users\Depes Crystalline\Desktop\school\Active_Bike_Lighting_System\Radar_Core/Libraries/CMSIS/Include\core_cmSimd.h **** #define __SMLSLDX                         __smlsldx
 119:C:\Users\Depes Crystalline\Desktop\school\Active_Bike_Lighting_System\Radar_Core/Libraries/CMSIS/Include\core_cmSimd.h **** #define __SEL                             __sel
 120:C:\Users\Depes Crystalline\Desktop\school\Active_Bike_Lighting_System\Radar_Core/Libraries/CMSIS/Include\core_cmSimd.h **** #define __QADD                            __qadd
 121:C:\Users\Depes Crystalline\Desktop\school\Active_Bike_Lighting_System\Radar_Core/Libraries/CMSIS/Include\core_cmSimd.h **** #define __QSUB                            __qsub
 122:C:\Users\Depes Crystalline\Desktop\school\Active_Bike_Lighting_System\Radar_Core/Libraries/CMSIS/Include\core_cmSimd.h **** 
 123:C:\Users\Depes Crystalline\Desktop\school\Active_Bike_Lighting_System\Radar_Core/Libraries/CMSIS/Include\core_cmSimd.h **** #define __PKHBT(ARG1,ARG2,ARG3)          ( ((((uint32_t)(ARG1))          ) & 0x0000FFFFUL) |  \
 124:C:\Users\Depes Crystalline\Desktop\school\Active_Bike_Lighting_System\Radar_Core/Libraries/CMSIS/Include\core_cmSimd.h ****                                            ((((uint32_t)(ARG2)) << (ARG3)) & 0xFFFF0000UL)  )
 125:C:\Users\Depes Crystalline\Desktop\school\Active_Bike_Lighting_System\Radar_Core/Libraries/CMSIS/Include\core_cmSimd.h **** 
 126:C:\Users\Depes Crystalline\Desktop\school\Active_Bike_Lighting_System\Radar_Core/Libraries/CMSIS/Include\core_cmSimd.h **** #define __PKHTB(ARG1,ARG2,ARG3)          ( ((((uint32_t)(ARG1))          ) & 0xFFFF0000UL) |  \
 127:C:\Users\Depes Crystalline\Desktop\school\Active_Bike_Lighting_System\Radar_Core/Libraries/CMSIS/Include\core_cmSimd.h ****                                            ((((uint32_t)(ARG2)) >> (ARG3)) & 0x0000FFFFUL)  )
 128:C:\Users\Depes Crystalline\Desktop\school\Active_Bike_Lighting_System\Radar_Core/Libraries/CMSIS/Include\core_cmSimd.h **** 
 129:C:\Users\Depes Crystalline\Desktop\school\Active_Bike_Lighting_System\Radar_Core/Libraries/CMSIS/Include\core_cmSimd.h **** #define __SMMLA(ARG1,ARG2,ARG3)          ( (int32_t)((((int64_t)(ARG1) * (ARG2)) + \
 130:C:\Users\Depes Crystalline\Desktop\school\Active_Bike_Lighting_System\Radar_Core/Libraries/CMSIS/Include\core_cmSimd.h ****                                                       ((int64_t)(ARG3) << 32)      ) >> 32))
 131:C:\Users\Depes Crystalline\Desktop\school\Active_Bike_Lighting_System\Radar_Core/Libraries/CMSIS/Include\core_cmSimd.h **** 
 132:C:\Users\Depes Crystalline\Desktop\school\Active_Bike_Lighting_System\Radar_Core/Libraries/CMSIS/Include\core_cmSimd.h **** 
 133:C:\Users\Depes Crystalline\Desktop\school\Active_Bike_Lighting_System\Radar_Core/Libraries/CMSIS/Include\core_cmSimd.h **** #elif defined ( __GNUC__ ) /*------------------ GNU Compiler ---------------------*/
 134:C:\Users\Depes Crystalline\Desktop\school\Active_Bike_Lighting_System\Radar_Core/Libraries/CMSIS/Include\core_cmSimd.h **** /* GNU gcc specific functions */
 135:C:\Users\Depes Crystalline\Desktop\school\Active_Bike_Lighting_System\Radar_Core/Libraries/CMSIS/Include\core_cmSimd.h **** __attribute__( ( always_inline ) ) __STATIC_INLINE uint32_t __SADD8(uint32_t op1, uint32_t op2)
 136:C:\Users\Depes Crystalline\Desktop\school\Active_Bike_Lighting_System\Radar_Core/Libraries/CMSIS/Include\core_cmSimd.h **** {
 137:C:\Users\Depes Crystalline\Desktop\school\Active_Bike_Lighting_System\Radar_Core/Libraries/CMSIS/Include\core_cmSimd.h ****   uint32_t result;
 138:C:\Users\Depes Crystalline\Desktop\school\Active_Bike_Lighting_System\Radar_Core/Libraries/CMSIS/Include\core_cmSimd.h **** 
 139:C:\Users\Depes Crystalline\Desktop\school\Active_Bike_Lighting_System\Radar_Core/Libraries/CMSIS/Include\core_cmSimd.h ****   __ASM volatile ("sadd8 %0, %1, %2" : "=r" (result) : "r" (op1), "r" (op2) );
 140:C:\Users\Depes Crystalline\Desktop\school\Active_Bike_Lighting_System\Radar_Core/Libraries/CMSIS/Include\core_cmSimd.h ****   return(result);
 141:C:\Users\Depes Crystalline\Desktop\school\Active_Bike_Lighting_System\Radar_Core/Libraries/CMSIS/Include\core_cmSimd.h **** }
 142:C:\Users\Depes Crystalline\Desktop\school\Active_Bike_Lighting_System\Radar_Core/Libraries/CMSIS/Include\core_cmSimd.h **** 
 143:C:\Users\Depes Crystalline\Desktop\school\Active_Bike_Lighting_System\Radar_Core/Libraries/CMSIS/Include\core_cmSimd.h **** __attribute__( ( always_inline ) ) __STATIC_INLINE uint32_t __QADD8(uint32_t op1, uint32_t op2)
 144:C:\Users\Depes Crystalline\Desktop\school\Active_Bike_Lighting_System\Radar_Core/Libraries/CMSIS/Include\core_cmSimd.h **** {
 145:C:\Users\Depes Crystalline\Desktop\school\Active_Bike_Lighting_System\Radar_Core/Libraries/CMSIS/Include\core_cmSimd.h ****   uint32_t result;
 146:C:\Users\Depes Crystalline\Desktop\school\Active_Bike_Lighting_System\Radar_Core/Libraries/CMSIS/Include\core_cmSimd.h **** 
 147:C:\Users\Depes Crystalline\Desktop\school\Active_Bike_Lighting_System\Radar_Core/Libraries/CMSIS/Include\core_cmSimd.h ****   __ASM volatile ("qadd8 %0, %1, %2" : "=r" (result) : "r" (op1), "r" (op2) );
 148:C:\Users\Depes Crystalline\Desktop\school\Active_Bike_Lighting_System\Radar_Core/Libraries/CMSIS/Include\core_cmSimd.h ****   return(result);
 149:C:\Users\Depes Crystalline\Desktop\school\Active_Bike_Lighting_System\Radar_Core/Libraries/CMSIS/Include\core_cmSimd.h **** }
 150:C:\Users\Depes Crystalline\Desktop\school\Active_Bike_Lighting_System\Radar_Core/Libraries/CMSIS/Include\core_cmSimd.h **** 
 151:C:\Users\Depes Crystalline\Desktop\school\Active_Bike_Lighting_System\Radar_Core/Libraries/CMSIS/Include\core_cmSimd.h **** __attribute__( ( always_inline ) ) __STATIC_INLINE uint32_t __SHADD8(uint32_t op1, uint32_t op2)
 152:C:\Users\Depes Crystalline\Desktop\school\Active_Bike_Lighting_System\Radar_Core/Libraries/CMSIS/Include\core_cmSimd.h **** {
 153:C:\Users\Depes Crystalline\Desktop\school\Active_Bike_Lighting_System\Radar_Core/Libraries/CMSIS/Include\core_cmSimd.h ****   uint32_t result;
 154:C:\Users\Depes Crystalline\Desktop\school\Active_Bike_Lighting_System\Radar_Core/Libraries/CMSIS/Include\core_cmSimd.h **** 
 155:C:\Users\Depes Crystalline\Desktop\school\Active_Bike_Lighting_System\Radar_Core/Libraries/CMSIS/Include\core_cmSimd.h ****   __ASM volatile ("shadd8 %0, %1, %2" : "=r" (result) : "r" (op1), "r" (op2) );
 156:C:\Users\Depes Crystalline\Desktop\school\Active_Bike_Lighting_System\Radar_Core/Libraries/CMSIS/Include\core_cmSimd.h ****   return(result);
 157:C:\Users\Depes Crystalline\Desktop\school\Active_Bike_Lighting_System\Radar_Core/Libraries/CMSIS/Include\core_cmSimd.h **** }
 158:C:\Users\Depes Crystalline\Desktop\school\Active_Bike_Lighting_System\Radar_Core/Libraries/CMSIS/Include\core_cmSimd.h **** 
 159:C:\Users\Depes Crystalline\Desktop\school\Active_Bike_Lighting_System\Radar_Core/Libraries/CMSIS/Include\core_cmSimd.h **** __attribute__( ( always_inline ) ) __STATIC_INLINE uint32_t __UADD8(uint32_t op1, uint32_t op2)
 160:C:\Users\Depes Crystalline\Desktop\school\Active_Bike_Lighting_System\Radar_Core/Libraries/CMSIS/Include\core_cmSimd.h **** {
 161:C:\Users\Depes Crystalline\Desktop\school\Active_Bike_Lighting_System\Radar_Core/Libraries/CMSIS/Include\core_cmSimd.h ****   uint32_t result;
 162:C:\Users\Depes Crystalline\Desktop\school\Active_Bike_Lighting_System\Radar_Core/Libraries/CMSIS/Include\core_cmSimd.h **** 
 163:C:\Users\Depes Crystalline\Desktop\school\Active_Bike_Lighting_System\Radar_Core/Libraries/CMSIS/Include\core_cmSimd.h ****   __ASM volatile ("uadd8 %0, %1, %2" : "=r" (result) : "r" (op1), "r" (op2) );
 164:C:\Users\Depes Crystalline\Desktop\school\Active_Bike_Lighting_System\Radar_Core/Libraries/CMSIS/Include\core_cmSimd.h ****   return(result);
 165:C:\Users\Depes Crystalline\Desktop\school\Active_Bike_Lighting_System\Radar_Core/Libraries/CMSIS/Include\core_cmSimd.h **** }
 166:C:\Users\Depes Crystalline\Desktop\school\Active_Bike_Lighting_System\Radar_Core/Libraries/CMSIS/Include\core_cmSimd.h **** 
 167:C:\Users\Depes Crystalline\Desktop\school\Active_Bike_Lighting_System\Radar_Core/Libraries/CMSIS/Include\core_cmSimd.h **** __attribute__( ( always_inline ) ) __STATIC_INLINE uint32_t __UQADD8(uint32_t op1, uint32_t op2)
 168:C:\Users\Depes Crystalline\Desktop\school\Active_Bike_Lighting_System\Radar_Core/Libraries/CMSIS/Include\core_cmSimd.h **** {
 169:C:\Users\Depes Crystalline\Desktop\school\Active_Bike_Lighting_System\Radar_Core/Libraries/CMSIS/Include\core_cmSimd.h ****   uint32_t result;
 170:C:\Users\Depes Crystalline\Desktop\school\Active_Bike_Lighting_System\Radar_Core/Libraries/CMSIS/Include\core_cmSimd.h **** 
 171:C:\Users\Depes Crystalline\Desktop\school\Active_Bike_Lighting_System\Radar_Core/Libraries/CMSIS/Include\core_cmSimd.h ****   __ASM volatile ("uqadd8 %0, %1, %2" : "=r" (result) : "r" (op1), "r" (op2) );
 172:C:\Users\Depes Crystalline\Desktop\school\Active_Bike_Lighting_System\Radar_Core/Libraries/CMSIS/Include\core_cmSimd.h ****   return(result);
 173:C:\Users\Depes Crystalline\Desktop\school\Active_Bike_Lighting_System\Radar_Core/Libraries/CMSIS/Include\core_cmSimd.h **** }
 174:C:\Users\Depes Crystalline\Desktop\school\Active_Bike_Lighting_System\Radar_Core/Libraries/CMSIS/Include\core_cmSimd.h **** 
 175:C:\Users\Depes Crystalline\Desktop\school\Active_Bike_Lighting_System\Radar_Core/Libraries/CMSIS/Include\core_cmSimd.h **** __attribute__( ( always_inline ) ) __STATIC_INLINE uint32_t __UHADD8(uint32_t op1, uint32_t op2)
 176:C:\Users\Depes Crystalline\Desktop\school\Active_Bike_Lighting_System\Radar_Core/Libraries/CMSIS/Include\core_cmSimd.h **** {
 177:C:\Users\Depes Crystalline\Desktop\school\Active_Bike_Lighting_System\Radar_Core/Libraries/CMSIS/Include\core_cmSimd.h ****   uint32_t result;
 178:C:\Users\Depes Crystalline\Desktop\school\Active_Bike_Lighting_System\Radar_Core/Libraries/CMSIS/Include\core_cmSimd.h **** 
 179:C:\Users\Depes Crystalline\Desktop\school\Active_Bike_Lighting_System\Radar_Core/Libraries/CMSIS/Include\core_cmSimd.h ****   __ASM volatile ("uhadd8 %0, %1, %2" : "=r" (result) : "r" (op1), "r" (op2) );
 180:C:\Users\Depes Crystalline\Desktop\school\Active_Bike_Lighting_System\Radar_Core/Libraries/CMSIS/Include\core_cmSimd.h ****   return(result);
 181:C:\Users\Depes Crystalline\Desktop\school\Active_Bike_Lighting_System\Radar_Core/Libraries/CMSIS/Include\core_cmSimd.h **** }
 182:C:\Users\Depes Crystalline\Desktop\school\Active_Bike_Lighting_System\Radar_Core/Libraries/CMSIS/Include\core_cmSimd.h **** 
 183:C:\Users\Depes Crystalline\Desktop\school\Active_Bike_Lighting_System\Radar_Core/Libraries/CMSIS/Include\core_cmSimd.h **** 
 184:C:\Users\Depes Crystalline\Desktop\school\Active_Bike_Lighting_System\Radar_Core/Libraries/CMSIS/Include\core_cmSimd.h **** __attribute__( ( always_inline ) ) __STATIC_INLINE uint32_t __SSUB8(uint32_t op1, uint32_t op2)
 185:C:\Users\Depes Crystalline\Desktop\school\Active_Bike_Lighting_System\Radar_Core/Libraries/CMSIS/Include\core_cmSimd.h **** {
 186:C:\Users\Depes Crystalline\Desktop\school\Active_Bike_Lighting_System\Radar_Core/Libraries/CMSIS/Include\core_cmSimd.h ****   uint32_t result;
 187:C:\Users\Depes Crystalline\Desktop\school\Active_Bike_Lighting_System\Radar_Core/Libraries/CMSIS/Include\core_cmSimd.h **** 
 188:C:\Users\Depes Crystalline\Desktop\school\Active_Bike_Lighting_System\Radar_Core/Libraries/CMSIS/Include\core_cmSimd.h ****   __ASM volatile ("ssub8 %0, %1, %2" : "=r" (result) : "r" (op1), "r" (op2) );
 189:C:\Users\Depes Crystalline\Desktop\school\Active_Bike_Lighting_System\Radar_Core/Libraries/CMSIS/Include\core_cmSimd.h ****   return(result);
 190:C:\Users\Depes Crystalline\Desktop\school\Active_Bike_Lighting_System\Radar_Core/Libraries/CMSIS/Include\core_cmSimd.h **** }
 191:C:\Users\Depes Crystalline\Desktop\school\Active_Bike_Lighting_System\Radar_Core/Libraries/CMSIS/Include\core_cmSimd.h **** 
 192:C:\Users\Depes Crystalline\Desktop\school\Active_Bike_Lighting_System\Radar_Core/Libraries/CMSIS/Include\core_cmSimd.h **** __attribute__( ( always_inline ) ) __STATIC_INLINE uint32_t __QSUB8(uint32_t op1, uint32_t op2)
 193:C:\Users\Depes Crystalline\Desktop\school\Active_Bike_Lighting_System\Radar_Core/Libraries/CMSIS/Include\core_cmSimd.h **** {
 194:C:\Users\Depes Crystalline\Desktop\school\Active_Bike_Lighting_System\Radar_Core/Libraries/CMSIS/Include\core_cmSimd.h ****   uint32_t result;
 195:C:\Users\Depes Crystalline\Desktop\school\Active_Bike_Lighting_System\Radar_Core/Libraries/CMSIS/Include\core_cmSimd.h **** 
 196:C:\Users\Depes Crystalline\Desktop\school\Active_Bike_Lighting_System\Radar_Core/Libraries/CMSIS/Include\core_cmSimd.h ****   __ASM volatile ("qsub8 %0, %1, %2" : "=r" (result) : "r" (op1), "r" (op2) );
 197:C:\Users\Depes Crystalline\Desktop\school\Active_Bike_Lighting_System\Radar_Core/Libraries/CMSIS/Include\core_cmSimd.h ****   return(result);
 198:C:\Users\Depes Crystalline\Desktop\school\Active_Bike_Lighting_System\Radar_Core/Libraries/CMSIS/Include\core_cmSimd.h **** }
 199:C:\Users\Depes Crystalline\Desktop\school\Active_Bike_Lighting_System\Radar_Core/Libraries/CMSIS/Include\core_cmSimd.h **** 
 200:C:\Users\Depes Crystalline\Desktop\school\Active_Bike_Lighting_System\Radar_Core/Libraries/CMSIS/Include\core_cmSimd.h **** __attribute__( ( always_inline ) ) __STATIC_INLINE uint32_t __SHSUB8(uint32_t op1, uint32_t op2)
 201:C:\Users\Depes Crystalline\Desktop\school\Active_Bike_Lighting_System\Radar_Core/Libraries/CMSIS/Include\core_cmSimd.h **** {
 202:C:\Users\Depes Crystalline\Desktop\school\Active_Bike_Lighting_System\Radar_Core/Libraries/CMSIS/Include\core_cmSimd.h ****   uint32_t result;
 203:C:\Users\Depes Crystalline\Desktop\school\Active_Bike_Lighting_System\Radar_Core/Libraries/CMSIS/Include\core_cmSimd.h **** 
 204:C:\Users\Depes Crystalline\Desktop\school\Active_Bike_Lighting_System\Radar_Core/Libraries/CMSIS/Include\core_cmSimd.h ****   __ASM volatile ("shsub8 %0, %1, %2" : "=r" (result) : "r" (op1), "r" (op2) );
 205:C:\Users\Depes Crystalline\Desktop\school\Active_Bike_Lighting_System\Radar_Core/Libraries/CMSIS/Include\core_cmSimd.h ****   return(result);
 206:C:\Users\Depes Crystalline\Desktop\school\Active_Bike_Lighting_System\Radar_Core/Libraries/CMSIS/Include\core_cmSimd.h **** }
 207:C:\Users\Depes Crystalline\Desktop\school\Active_Bike_Lighting_System\Radar_Core/Libraries/CMSIS/Include\core_cmSimd.h **** 
 208:C:\Users\Depes Crystalline\Desktop\school\Active_Bike_Lighting_System\Radar_Core/Libraries/CMSIS/Include\core_cmSimd.h **** __attribute__( ( always_inline ) ) __STATIC_INLINE uint32_t __USUB8(uint32_t op1, uint32_t op2)
 209:C:\Users\Depes Crystalline\Desktop\school\Active_Bike_Lighting_System\Radar_Core/Libraries/CMSIS/Include\core_cmSimd.h **** {
 210:C:\Users\Depes Crystalline\Desktop\school\Active_Bike_Lighting_System\Radar_Core/Libraries/CMSIS/Include\core_cmSimd.h ****   uint32_t result;
 211:C:\Users\Depes Crystalline\Desktop\school\Active_Bike_Lighting_System\Radar_Core/Libraries/CMSIS/Include\core_cmSimd.h **** 
 212:C:\Users\Depes Crystalline\Desktop\school\Active_Bike_Lighting_System\Radar_Core/Libraries/CMSIS/Include\core_cmSimd.h ****   __ASM volatile ("usub8 %0, %1, %2" : "=r" (result) : "r" (op1), "r" (op2) );
 213:C:\Users\Depes Crystalline\Desktop\school\Active_Bike_Lighting_System\Radar_Core/Libraries/CMSIS/Include\core_cmSimd.h ****   return(result);
 214:C:\Users\Depes Crystalline\Desktop\school\Active_Bike_Lighting_System\Radar_Core/Libraries/CMSIS/Include\core_cmSimd.h **** }
 215:C:\Users\Depes Crystalline\Desktop\school\Active_Bike_Lighting_System\Radar_Core/Libraries/CMSIS/Include\core_cmSimd.h **** 
 216:C:\Users\Depes Crystalline\Desktop\school\Active_Bike_Lighting_System\Radar_Core/Libraries/CMSIS/Include\core_cmSimd.h **** __attribute__( ( always_inline ) ) __STATIC_INLINE uint32_t __UQSUB8(uint32_t op1, uint32_t op2)
 217:C:\Users\Depes Crystalline\Desktop\school\Active_Bike_Lighting_System\Radar_Core/Libraries/CMSIS/Include\core_cmSimd.h **** {
 218:C:\Users\Depes Crystalline\Desktop\school\Active_Bike_Lighting_System\Radar_Core/Libraries/CMSIS/Include\core_cmSimd.h ****   uint32_t result;
 219:C:\Users\Depes Crystalline\Desktop\school\Active_Bike_Lighting_System\Radar_Core/Libraries/CMSIS/Include\core_cmSimd.h **** 
 220:C:\Users\Depes Crystalline\Desktop\school\Active_Bike_Lighting_System\Radar_Core/Libraries/CMSIS/Include\core_cmSimd.h ****   __ASM volatile ("uqsub8 %0, %1, %2" : "=r" (result) : "r" (op1), "r" (op2) );
 221:C:\Users\Depes Crystalline\Desktop\school\Active_Bike_Lighting_System\Radar_Core/Libraries/CMSIS/Include\core_cmSimd.h ****   return(result);
 222:C:\Users\Depes Crystalline\Desktop\school\Active_Bike_Lighting_System\Radar_Core/Libraries/CMSIS/Include\core_cmSimd.h **** }
 223:C:\Users\Depes Crystalline\Desktop\school\Active_Bike_Lighting_System\Radar_Core/Libraries/CMSIS/Include\core_cmSimd.h **** 
 224:C:\Users\Depes Crystalline\Desktop\school\Active_Bike_Lighting_System\Radar_Core/Libraries/CMSIS/Include\core_cmSimd.h **** __attribute__( ( always_inline ) ) __STATIC_INLINE uint32_t __UHSUB8(uint32_t op1, uint32_t op2)
 225:C:\Users\Depes Crystalline\Desktop\school\Active_Bike_Lighting_System\Radar_Core/Libraries/CMSIS/Include\core_cmSimd.h **** {
 226:C:\Users\Depes Crystalline\Desktop\school\Active_Bike_Lighting_System\Radar_Core/Libraries/CMSIS/Include\core_cmSimd.h ****   uint32_t result;
 227:C:\Users\Depes Crystalline\Desktop\school\Active_Bike_Lighting_System\Radar_Core/Libraries/CMSIS/Include\core_cmSimd.h **** 
 228:C:\Users\Depes Crystalline\Desktop\school\Active_Bike_Lighting_System\Radar_Core/Libraries/CMSIS/Include\core_cmSimd.h ****   __ASM volatile ("uhsub8 %0, %1, %2" : "=r" (result) : "r" (op1), "r" (op2) );
 229:C:\Users\Depes Crystalline\Desktop\school\Active_Bike_Lighting_System\Radar_Core/Libraries/CMSIS/Include\core_cmSimd.h ****   return(result);
 230:C:\Users\Depes Crystalline\Desktop\school\Active_Bike_Lighting_System\Radar_Core/Libraries/CMSIS/Include\core_cmSimd.h **** }
 231:C:\Users\Depes Crystalline\Desktop\school\Active_Bike_Lighting_System\Radar_Core/Libraries/CMSIS/Include\core_cmSimd.h **** 
 232:C:\Users\Depes Crystalline\Desktop\school\Active_Bike_Lighting_System\Radar_Core/Libraries/CMSIS/Include\core_cmSimd.h **** 
 233:C:\Users\Depes Crystalline\Desktop\school\Active_Bike_Lighting_System\Radar_Core/Libraries/CMSIS/Include\core_cmSimd.h **** __attribute__( ( always_inline ) ) __STATIC_INLINE uint32_t __SADD16(uint32_t op1, uint32_t op2)
 234:C:\Users\Depes Crystalline\Desktop\school\Active_Bike_Lighting_System\Radar_Core/Libraries/CMSIS/Include\core_cmSimd.h **** {
 235:C:\Users\Depes Crystalline\Desktop\school\Active_Bike_Lighting_System\Radar_Core/Libraries/CMSIS/Include\core_cmSimd.h ****   uint32_t result;
 236:C:\Users\Depes Crystalline\Desktop\school\Active_Bike_Lighting_System\Radar_Core/Libraries/CMSIS/Include\core_cmSimd.h **** 
 237:C:\Users\Depes Crystalline\Desktop\school\Active_Bike_Lighting_System\Radar_Core/Libraries/CMSIS/Include\core_cmSimd.h ****   __ASM volatile ("sadd16 %0, %1, %2" : "=r" (result) : "r" (op1), "r" (op2) );
 238:C:\Users\Depes Crystalline\Desktop\school\Active_Bike_Lighting_System\Radar_Core/Libraries/CMSIS/Include\core_cmSimd.h ****   return(result);
 239:C:\Users\Depes Crystalline\Desktop\school\Active_Bike_Lighting_System\Radar_Core/Libraries/CMSIS/Include\core_cmSimd.h **** }
 240:C:\Users\Depes Crystalline\Desktop\school\Active_Bike_Lighting_System\Radar_Core/Libraries/CMSIS/Include\core_cmSimd.h **** 
 241:C:\Users\Depes Crystalline\Desktop\school\Active_Bike_Lighting_System\Radar_Core/Libraries/CMSIS/Include\core_cmSimd.h **** __attribute__( ( always_inline ) ) __STATIC_INLINE uint32_t __QADD16(uint32_t op1, uint32_t op2)
 242:C:\Users\Depes Crystalline\Desktop\school\Active_Bike_Lighting_System\Radar_Core/Libraries/CMSIS/Include\core_cmSimd.h **** {
 243:C:\Users\Depes Crystalline\Desktop\school\Active_Bike_Lighting_System\Radar_Core/Libraries/CMSIS/Include\core_cmSimd.h ****   uint32_t result;
 244:C:\Users\Depes Crystalline\Desktop\school\Active_Bike_Lighting_System\Radar_Core/Libraries/CMSIS/Include\core_cmSimd.h **** 
 245:C:\Users\Depes Crystalline\Desktop\school\Active_Bike_Lighting_System\Radar_Core/Libraries/CMSIS/Include\core_cmSimd.h ****   __ASM volatile ("qadd16 %0, %1, %2" : "=r" (result) : "r" (op1), "r" (op2) );
 246:C:\Users\Depes Crystalline\Desktop\school\Active_Bike_Lighting_System\Radar_Core/Libraries/CMSIS/Include\core_cmSimd.h ****   return(result);
 247:C:\Users\Depes Crystalline\Desktop\school\Active_Bike_Lighting_System\Radar_Core/Libraries/CMSIS/Include\core_cmSimd.h **** }
 248:C:\Users\Depes Crystalline\Desktop\school\Active_Bike_Lighting_System\Radar_Core/Libraries/CMSIS/Include\core_cmSimd.h **** 
 249:C:\Users\Depes Crystalline\Desktop\school\Active_Bike_Lighting_System\Radar_Core/Libraries/CMSIS/Include\core_cmSimd.h **** __attribute__( ( always_inline ) ) __STATIC_INLINE uint32_t __SHADD16(uint32_t op1, uint32_t op2)
 250:C:\Users\Depes Crystalline\Desktop\school\Active_Bike_Lighting_System\Radar_Core/Libraries/CMSIS/Include\core_cmSimd.h **** {
 251:C:\Users\Depes Crystalline\Desktop\school\Active_Bike_Lighting_System\Radar_Core/Libraries/CMSIS/Include\core_cmSimd.h ****   uint32_t result;
 252:C:\Users\Depes Crystalline\Desktop\school\Active_Bike_Lighting_System\Radar_Core/Libraries/CMSIS/Include\core_cmSimd.h **** 
 253:C:\Users\Depes Crystalline\Desktop\school\Active_Bike_Lighting_System\Radar_Core/Libraries/CMSIS/Include\core_cmSimd.h ****   __ASM volatile ("shadd16 %0, %1, %2" : "=r" (result) : "r" (op1), "r" (op2) );
 254:C:\Users\Depes Crystalline\Desktop\school\Active_Bike_Lighting_System\Radar_Core/Libraries/CMSIS/Include\core_cmSimd.h ****   return(result);
 255:C:\Users\Depes Crystalline\Desktop\school\Active_Bike_Lighting_System\Radar_Core/Libraries/CMSIS/Include\core_cmSimd.h **** }
 256:C:\Users\Depes Crystalline\Desktop\school\Active_Bike_Lighting_System\Radar_Core/Libraries/CMSIS/Include\core_cmSimd.h **** 
 257:C:\Users\Depes Crystalline\Desktop\school\Active_Bike_Lighting_System\Radar_Core/Libraries/CMSIS/Include\core_cmSimd.h **** __attribute__( ( always_inline ) ) __STATIC_INLINE uint32_t __UADD16(uint32_t op1, uint32_t op2)
 258:C:\Users\Depes Crystalline\Desktop\school\Active_Bike_Lighting_System\Radar_Core/Libraries/CMSIS/Include\core_cmSimd.h **** {
 259:C:\Users\Depes Crystalline\Desktop\school\Active_Bike_Lighting_System\Radar_Core/Libraries/CMSIS/Include\core_cmSimd.h ****   uint32_t result;
 260:C:\Users\Depes Crystalline\Desktop\school\Active_Bike_Lighting_System\Radar_Core/Libraries/CMSIS/Include\core_cmSimd.h **** 
 261:C:\Users\Depes Crystalline\Desktop\school\Active_Bike_Lighting_System\Radar_Core/Libraries/CMSIS/Include\core_cmSimd.h ****   __ASM volatile ("uadd16 %0, %1, %2" : "=r" (result) : "r" (op1), "r" (op2) );
 262:C:\Users\Depes Crystalline\Desktop\school\Active_Bike_Lighting_System\Radar_Core/Libraries/CMSIS/Include\core_cmSimd.h ****   return(result);
 263:C:\Users\Depes Crystalline\Desktop\school\Active_Bike_Lighting_System\Radar_Core/Libraries/CMSIS/Include\core_cmSimd.h **** }
 264:C:\Users\Depes Crystalline\Desktop\school\Active_Bike_Lighting_System\Radar_Core/Libraries/CMSIS/Include\core_cmSimd.h **** 
 265:C:\Users\Depes Crystalline\Desktop\school\Active_Bike_Lighting_System\Radar_Core/Libraries/CMSIS/Include\core_cmSimd.h **** __attribute__( ( always_inline ) ) __STATIC_INLINE uint32_t __UQADD16(uint32_t op1, uint32_t op2)
 266:C:\Users\Depes Crystalline\Desktop\school\Active_Bike_Lighting_System\Radar_Core/Libraries/CMSIS/Include\core_cmSimd.h **** {
 267:C:\Users\Depes Crystalline\Desktop\school\Active_Bike_Lighting_System\Radar_Core/Libraries/CMSIS/Include\core_cmSimd.h ****   uint32_t result;
 268:C:\Users\Depes Crystalline\Desktop\school\Active_Bike_Lighting_System\Radar_Core/Libraries/CMSIS/Include\core_cmSimd.h **** 
 269:C:\Users\Depes Crystalline\Desktop\school\Active_Bike_Lighting_System\Radar_Core/Libraries/CMSIS/Include\core_cmSimd.h ****   __ASM volatile ("uqadd16 %0, %1, %2" : "=r" (result) : "r" (op1), "r" (op2) );
 270:C:\Users\Depes Crystalline\Desktop\school\Active_Bike_Lighting_System\Radar_Core/Libraries/CMSIS/Include\core_cmSimd.h ****   return(result);
 271:C:\Users\Depes Crystalline\Desktop\school\Active_Bike_Lighting_System\Radar_Core/Libraries/CMSIS/Include\core_cmSimd.h **** }
 272:C:\Users\Depes Crystalline\Desktop\school\Active_Bike_Lighting_System\Radar_Core/Libraries/CMSIS/Include\core_cmSimd.h **** 
 273:C:\Users\Depes Crystalline\Desktop\school\Active_Bike_Lighting_System\Radar_Core/Libraries/CMSIS/Include\core_cmSimd.h **** __attribute__( ( always_inline ) ) __STATIC_INLINE uint32_t __UHADD16(uint32_t op1, uint32_t op2)
 274:C:\Users\Depes Crystalline\Desktop\school\Active_Bike_Lighting_System\Radar_Core/Libraries/CMSIS/Include\core_cmSimd.h **** {
 275:C:\Users\Depes Crystalline\Desktop\school\Active_Bike_Lighting_System\Radar_Core/Libraries/CMSIS/Include\core_cmSimd.h ****   uint32_t result;
 276:C:\Users\Depes Crystalline\Desktop\school\Active_Bike_Lighting_System\Radar_Core/Libraries/CMSIS/Include\core_cmSimd.h **** 
 277:C:\Users\Depes Crystalline\Desktop\school\Active_Bike_Lighting_System\Radar_Core/Libraries/CMSIS/Include\core_cmSimd.h ****   __ASM volatile ("uhadd16 %0, %1, %2" : "=r" (result) : "r" (op1), "r" (op2) );
 278:C:\Users\Depes Crystalline\Desktop\school\Active_Bike_Lighting_System\Radar_Core/Libraries/CMSIS/Include\core_cmSimd.h ****   return(result);
 279:C:\Users\Depes Crystalline\Desktop\school\Active_Bike_Lighting_System\Radar_Core/Libraries/CMSIS/Include\core_cmSimd.h **** }
 280:C:\Users\Depes Crystalline\Desktop\school\Active_Bike_Lighting_System\Radar_Core/Libraries/CMSIS/Include\core_cmSimd.h **** 
 281:C:\Users\Depes Crystalline\Desktop\school\Active_Bike_Lighting_System\Radar_Core/Libraries/CMSIS/Include\core_cmSimd.h **** __attribute__( ( always_inline ) ) __STATIC_INLINE uint32_t __SSUB16(uint32_t op1, uint32_t op2)
 282:C:\Users\Depes Crystalline\Desktop\school\Active_Bike_Lighting_System\Radar_Core/Libraries/CMSIS/Include\core_cmSimd.h **** {
 283:C:\Users\Depes Crystalline\Desktop\school\Active_Bike_Lighting_System\Radar_Core/Libraries/CMSIS/Include\core_cmSimd.h ****   uint32_t result;
 284:C:\Users\Depes Crystalline\Desktop\school\Active_Bike_Lighting_System\Radar_Core/Libraries/CMSIS/Include\core_cmSimd.h **** 
 285:C:\Users\Depes Crystalline\Desktop\school\Active_Bike_Lighting_System\Radar_Core/Libraries/CMSIS/Include\core_cmSimd.h ****   __ASM volatile ("ssub16 %0, %1, %2" : "=r" (result) : "r" (op1), "r" (op2) );
 286:C:\Users\Depes Crystalline\Desktop\school\Active_Bike_Lighting_System\Radar_Core/Libraries/CMSIS/Include\core_cmSimd.h ****   return(result);
 287:C:\Users\Depes Crystalline\Desktop\school\Active_Bike_Lighting_System\Radar_Core/Libraries/CMSIS/Include\core_cmSimd.h **** }
 288:C:\Users\Depes Crystalline\Desktop\school\Active_Bike_Lighting_System\Radar_Core/Libraries/CMSIS/Include\core_cmSimd.h **** 
 289:C:\Users\Depes Crystalline\Desktop\school\Active_Bike_Lighting_System\Radar_Core/Libraries/CMSIS/Include\core_cmSimd.h **** __attribute__( ( always_inline ) ) __STATIC_INLINE uint32_t __QSUB16(uint32_t op1, uint32_t op2)
 290:C:\Users\Depes Crystalline\Desktop\school\Active_Bike_Lighting_System\Radar_Core/Libraries/CMSIS/Include\core_cmSimd.h **** {
 291:C:\Users\Depes Crystalline\Desktop\school\Active_Bike_Lighting_System\Radar_Core/Libraries/CMSIS/Include\core_cmSimd.h ****   uint32_t result;
 292:C:\Users\Depes Crystalline\Desktop\school\Active_Bike_Lighting_System\Radar_Core/Libraries/CMSIS/Include\core_cmSimd.h **** 
 293:C:\Users\Depes Crystalline\Desktop\school\Active_Bike_Lighting_System\Radar_Core/Libraries/CMSIS/Include\core_cmSimd.h ****   __ASM volatile ("qsub16 %0, %1, %2" : "=r" (result) : "r" (op1), "r" (op2) );
  88              	 .loc 2 293 0 is_stmt 1 discriminator 2
  89 004e BA6C     	 ldr r2,[r7,#72]
  90 0050 796C     	 ldr r1,[r7,#68]
  91              	
  92 0052 D2FA11F2 	 qsub16 r2,r2,r1
  93              	
  94              	 .thumb
  95 0056 3A64     	 str r2,[r7,#64]
 294:C:\Users\Depes Crystalline\Desktop\school\Active_Bike_Lighting_System\Radar_Core/Libraries/CMSIS/Include\core_cmSimd.h ****   return(result);
  96              	 .loc 2 294 0 discriminator 2
  97 0058 3A6C     	 ldr r2,[r7,#64]
  98              	.LBE16:
  99              	.LBE15:
 100              	 .loc 1 98 0 discriminator 2
 101 005a 92B2     	 uxth r2,r2
 102 005c 12B2     	 sxth r2,r2
 103              	.L4:
 104              	 .loc 1 98 0 is_stmt 0 discriminator 4
 105 005e 3A66     	 str r2,[r7,#96]
 106 0060 B7F96420 	 ldrsh r2,[r7,#100]
 107 0064 002A     	 cmp r2,#0
 108 0066 02DD     	 ble .L6
 109              	 .loc 1 98 0 discriminator 5
 110 0068 B7F96420 	 ldrsh r2,[r7,#100]
 111 006c 0CE0     	 b .L7
 112              	.L6:
 113              	 .loc 1 98 0 discriminator 6
 114 006e B7F96420 	 ldrsh r2,[r7,#100]
 115 0072 0021     	 movs r1,#0
 116 0074 F963     	 str r1,[r7,#60]
 117 0076 BA63     	 str r2,[r7,#56]
 118              	.LBB17:
 119              	.LBB18:
 293:C:\Users\Depes Crystalline\Desktop\school\Active_Bike_Lighting_System\Radar_Core/Libraries/CMSIS/Include\core_cmSimd.h ****   return(result);
 120              	 .loc 2 293 0 is_stmt 1 discriminator 6
 121 0078 FA6B     	 ldr r2,[r7,#60]
 122 007a B96B     	 ldr r1,[r7,#56]
 123              	
 124 007c D2FA11F2 	 qsub16 r2,r2,r1
 125              	
 126              	 .thumb
 127 0080 7A63     	 str r2,[r7,#52]
 128              	 .loc 2 294 0 discriminator 6
 129 0082 7A6B     	 ldr r2,[r7,#52]
 130              	.LBE18:
 131              	.LBE17:
 132              	 .loc 1 98 0 discriminator 6
 133 0084 92B2     	 uxth r2,r2
 134 0086 12B2     	 sxth r2,r2
 135              	.L7:
 136              	 .loc 1 98 0 is_stmt 0 discriminator 8
 137 0088 FA65     	 str r2,[r7,#92]
 138 008a 3A6E     	 ldr r2,[r7,#96]
 139 008c F96D     	 ldr r1,[r7,#92]
 140              	
 141 008e C2EA0142 	 pkhbt r2,r2,r1,lsl#16
 142              	
 143              	 .thumb
 144 0092 BA65     	 str r2,[r7,#88]
 145 0094 BA6D     	 ldr r2,[r7,#88]
 146              	.LBE14:
  97:../Dave/Generated/CMSIS_DSP/BasicMathFunctions/arm_abs_q15.c ****       __PKHBT(((in1 > 0) ? in1 : (q15_t)__QSUB16(0, in1)),
 147              	 .loc 1 97 0 is_stmt 1 discriminator 8
 148 0096 1A60     	 str r2,[r3]
  99:../Dave/Generated/CMSIS_DSP/BasicMathFunctions/arm_abs_q15.c ****               ((in2 > 0) ? in2 : (q15_t)__QSUB16(0, in2)), 16);
 100:../Dave/Generated/CMSIS_DSP/BasicMathFunctions/arm_abs_q15.c **** 
 101:../Dave/Generated/CMSIS_DSP/BasicMathFunctions/arm_abs_q15.c **** #else
 102:../Dave/Generated/CMSIS_DSP/BasicMathFunctions/arm_abs_q15.c **** 
 103:../Dave/Generated/CMSIS_DSP/BasicMathFunctions/arm_abs_q15.c **** 
 104:../Dave/Generated/CMSIS_DSP/BasicMathFunctions/arm_abs_q15.c ****     *simd++ =
 105:../Dave/Generated/CMSIS_DSP/BasicMathFunctions/arm_abs_q15.c ****       __PKHBT(((in2 > 0) ? in2 : (q15_t)__QSUB16(0, in2)),
 106:../Dave/Generated/CMSIS_DSP/BasicMathFunctions/arm_abs_q15.c ****               ((in1 > 0) ? in1 : (q15_t)__QSUB16(0, in1)), 16);
 107:../Dave/Generated/CMSIS_DSP/BasicMathFunctions/arm_abs_q15.c **** 
 108:../Dave/Generated/CMSIS_DSP/BasicMathFunctions/arm_abs_q15.c **** #endif /* #ifndef  ARM_MATH_BIG_ENDIAN    */
 109:../Dave/Generated/CMSIS_DSP/BasicMathFunctions/arm_abs_q15.c **** 
 110:../Dave/Generated/CMSIS_DSP/BasicMathFunctions/arm_abs_q15.c ****     in1 = *pSrc++;
 149              	 .loc 1 110 0 discriminator 8
 150 0098 FB68     	 ldr r3,[r7,#12]
 151 009a 9A1C     	 adds r2,r3,#2
 152 009c FA60     	 str r2,[r7,#12]
 153 009e 1B88     	 ldrh r3,[r3]
 154 00a0 A7F86630 	 strh r3,[r7,#102]
 111:../Dave/Generated/CMSIS_DSP/BasicMathFunctions/arm_abs_q15.c ****     in2 = *pSrc++;
 155              	 .loc 1 111 0 discriminator 8
 156 00a4 FB68     	 ldr r3,[r7,#12]
 157 00a6 9A1C     	 adds r2,r3,#2
 158 00a8 FA60     	 str r2,[r7,#12]
 159 00aa 1B88     	 ldrh r3,[r3]
 160 00ac A7F86430 	 strh r3,[r7,#100]
 112:../Dave/Generated/CMSIS_DSP/BasicMathFunctions/arm_abs_q15.c **** 
 113:../Dave/Generated/CMSIS_DSP/BasicMathFunctions/arm_abs_q15.c **** 
 114:../Dave/Generated/CMSIS_DSP/BasicMathFunctions/arm_abs_q15.c **** #ifndef  ARM_MATH_BIG_ENDIAN
 115:../Dave/Generated/CMSIS_DSP/BasicMathFunctions/arm_abs_q15.c **** 
 116:../Dave/Generated/CMSIS_DSP/BasicMathFunctions/arm_abs_q15.c ****     *simd++ =
 161              	 .loc 1 116 0 discriminator 8
 162 00b0 BB6E     	 ldr r3,[r7,#104]
 163 00b2 1A1D     	 adds r2,r3,#4
 164 00b4 BA66     	 str r2,[r7,#104]
 165              	.LBB19:
 117:../Dave/Generated/CMSIS_DSP/BasicMathFunctions/arm_abs_q15.c ****       __PKHBT(((in1 > 0) ? in1 : (q15_t)__QSUB16(0, in1)),
 166              	 .loc 1 117 0 discriminator 8
 167 00b6 B7F96620 	 ldrsh r2,[r7,#102]
 168 00ba 002A     	 cmp r2,#0
 169 00bc 02DD     	 ble .L9
 170              	 .loc 1 117 0 is_stmt 0 discriminator 1
 171 00be B7F96620 	 ldrsh r2,[r7,#102]
 172 00c2 0CE0     	 b .L10
 173              	.L9:
 174              	 .loc 1 117 0 discriminator 2
 175 00c4 B7F96620 	 ldrsh r2,[r7,#102]
 176 00c8 0021     	 movs r1,#0
 177 00ca 3963     	 str r1,[r7,#48]
 178 00cc FA62     	 str r2,[r7,#44]
 179              	.LBB20:
 180              	.LBB21:
 293:C:\Users\Depes Crystalline\Desktop\school\Active_Bike_Lighting_System\Radar_Core/Libraries/CMSIS/Include\core_cmSimd.h ****   return(result);
 181              	 .loc 2 293 0 is_stmt 1 discriminator 2
 182 00ce 3A6B     	 ldr r2,[r7,#48]
 183 00d0 F96A     	 ldr r1,[r7,#44]
 184              	
 185 00d2 D2FA11F2 	 qsub16 r2,r2,r1
 186              	
 187              	 .thumb
 188 00d6 BA62     	 str r2,[r7,#40]
 189              	 .loc 2 294 0 discriminator 2
 190 00d8 BA6A     	 ldr r2,[r7,#40]
 191              	.LBE21:
 192              	.LBE20:
 193              	 .loc 1 117 0 discriminator 2
 194 00da 92B2     	 uxth r2,r2
 195 00dc 12B2     	 sxth r2,r2
 196              	.L10:
 197              	 .loc 1 117 0 is_stmt 0 discriminator 4
 198 00de 7A65     	 str r2,[r7,#84]
 199 00e0 B7F96420 	 ldrsh r2,[r7,#100]
 200 00e4 002A     	 cmp r2,#0
 201 00e6 02DD     	 ble .L12
 202              	 .loc 1 117 0 discriminator 5
 203 00e8 B7F96420 	 ldrsh r2,[r7,#100]
 204 00ec 0CE0     	 b .L13
 205              	.L12:
 206              	 .loc 1 117 0 discriminator 6
 207 00ee B7F96420 	 ldrsh r2,[r7,#100]
 208 00f2 0021     	 movs r1,#0
 209 00f4 7962     	 str r1,[r7,#36]
 210 00f6 3A62     	 str r2,[r7,#32]
 211              	.LBB22:
 212              	.LBB23:
 293:C:\Users\Depes Crystalline\Desktop\school\Active_Bike_Lighting_System\Radar_Core/Libraries/CMSIS/Include\core_cmSimd.h ****   return(result);
 213              	 .loc 2 293 0 is_stmt 1 discriminator 6
 214 00f8 7A6A     	 ldr r2,[r7,#36]
 215 00fa 396A     	 ldr r1,[r7,#32]
 216              	
 217 00fc D2FA11F2 	 qsub16 r2,r2,r1
 218              	
 219              	 .thumb
 220 0100 FA61     	 str r2,[r7,#28]
 221              	 .loc 2 294 0 discriminator 6
 222 0102 FA69     	 ldr r2,[r7,#28]
 223              	.LBE23:
 224              	.LBE22:
 225              	 .loc 1 117 0 discriminator 6
 226 0104 92B2     	 uxth r2,r2
 227 0106 12B2     	 sxth r2,r2
 228              	.L13:
 229              	 .loc 1 117 0 is_stmt 0 discriminator 8
 230 0108 3A65     	 str r2,[r7,#80]
 231 010a 7A6D     	 ldr r2,[r7,#84]
 232 010c 396D     	 ldr r1,[r7,#80]
 233              	
 234 010e C2EA0142 	 pkhbt r2,r2,r1,lsl#16
 235              	
 236              	 .thumb
 237 0112 FA64     	 str r2,[r7,#76]
 238 0114 FA6C     	 ldr r2,[r7,#76]
 239              	.LBE19:
 116:../Dave/Generated/CMSIS_DSP/BasicMathFunctions/arm_abs_q15.c ****       __PKHBT(((in1 > 0) ? in1 : (q15_t)__QSUB16(0, in1)),
 240              	 .loc 1 116 0 is_stmt 1 discriminator 8
 241 0116 1A60     	 str r2,[r3]
 118:../Dave/Generated/CMSIS_DSP/BasicMathFunctions/arm_abs_q15.c ****               ((in2 > 0) ? in2 : (q15_t)__QSUB16(0, in2)), 16);
 119:../Dave/Generated/CMSIS_DSP/BasicMathFunctions/arm_abs_q15.c **** 
 120:../Dave/Generated/CMSIS_DSP/BasicMathFunctions/arm_abs_q15.c **** #else
 121:../Dave/Generated/CMSIS_DSP/BasicMathFunctions/arm_abs_q15.c **** 
 122:../Dave/Generated/CMSIS_DSP/BasicMathFunctions/arm_abs_q15.c **** 
 123:../Dave/Generated/CMSIS_DSP/BasicMathFunctions/arm_abs_q15.c ****     *simd++ =
 124:../Dave/Generated/CMSIS_DSP/BasicMathFunctions/arm_abs_q15.c ****       __PKHBT(((in2 > 0) ? in2 : (q15_t)__QSUB16(0, in2)),
 125:../Dave/Generated/CMSIS_DSP/BasicMathFunctions/arm_abs_q15.c ****               ((in1 > 0) ? in1 : (q15_t)__QSUB16(0, in1)), 16);
 126:../Dave/Generated/CMSIS_DSP/BasicMathFunctions/arm_abs_q15.c **** 
 127:../Dave/Generated/CMSIS_DSP/BasicMathFunctions/arm_abs_q15.c **** #endif /* #ifndef  ARM_MATH_BIG_ENDIAN    */
 128:../Dave/Generated/CMSIS_DSP/BasicMathFunctions/arm_abs_q15.c **** 
 129:../Dave/Generated/CMSIS_DSP/BasicMathFunctions/arm_abs_q15.c ****     /* Decrement the loop counter */
 130:../Dave/Generated/CMSIS_DSP/BasicMathFunctions/arm_abs_q15.c ****     blkCnt--;
 242              	 .loc 1 130 0 discriminator 8
 243 0118 FB6E     	 ldr r3,[r7,#108]
 244 011a 013B     	 subs r3,r3,#1
 245 011c FB66     	 str r3,[r7,#108]
 246              	.L2:
  87:../Dave/Generated/CMSIS_DSP/BasicMathFunctions/arm_abs_q15.c ****   {
 247              	 .loc 1 87 0
 248 011e FB6E     	 ldr r3,[r7,#108]
 249 0120 002B     	 cmp r3,#0
 250 0122 7FF479AF 	 bne .L15
 131:../Dave/Generated/CMSIS_DSP/BasicMathFunctions/arm_abs_q15.c ****   }
 132:../Dave/Generated/CMSIS_DSP/BasicMathFunctions/arm_abs_q15.c ****   pDst = (q15_t *)simd;
 251              	 .loc 1 132 0
 252 0126 BB6E     	 ldr r3,[r7,#104]
 253 0128 BB60     	 str r3,[r7,#8]
 133:../Dave/Generated/CMSIS_DSP/BasicMathFunctions/arm_abs_q15.c **** 	
 134:../Dave/Generated/CMSIS_DSP/BasicMathFunctions/arm_abs_q15.c ****   /* If the blockSize is not a multiple of 4, compute any remaining output samples here.    
 135:../Dave/Generated/CMSIS_DSP/BasicMathFunctions/arm_abs_q15.c ****    ** No loop unrolling is used. */
 136:../Dave/Generated/CMSIS_DSP/BasicMathFunctions/arm_abs_q15.c ****   blkCnt = blockSize % 0x4u;
 254              	 .loc 1 136 0
 255 012a 7B68     	 ldr r3,[r7,#4]
 256 012c 03F00303 	 and r3,r3,#3
 257 0130 FB66     	 str r3,[r7,#108]
 137:../Dave/Generated/CMSIS_DSP/BasicMathFunctions/arm_abs_q15.c **** 
 138:../Dave/Generated/CMSIS_DSP/BasicMathFunctions/arm_abs_q15.c ****   while(blkCnt > 0u)
 258              	 .loc 1 138 0
 259 0132 1FE0     	 b .L16
 260              	.L20:
 139:../Dave/Generated/CMSIS_DSP/BasicMathFunctions/arm_abs_q15.c ****   {
 140:../Dave/Generated/CMSIS_DSP/BasicMathFunctions/arm_abs_q15.c ****     /* C = |A| */
 141:../Dave/Generated/CMSIS_DSP/BasicMathFunctions/arm_abs_q15.c ****     /* Read the input */
 142:../Dave/Generated/CMSIS_DSP/BasicMathFunctions/arm_abs_q15.c ****     in1 = *pSrc++;
 261              	 .loc 1 142 0
 262 0134 FB68     	 ldr r3,[r7,#12]
 263 0136 9A1C     	 adds r2,r3,#2
 264 0138 FA60     	 str r2,[r7,#12]
 265 013a 1B88     	 ldrh r3,[r3]
 266 013c A7F86630 	 strh r3,[r7,#102]
 143:../Dave/Generated/CMSIS_DSP/BasicMathFunctions/arm_abs_q15.c **** 
 144:../Dave/Generated/CMSIS_DSP/BasicMathFunctions/arm_abs_q15.c ****     /* Calculate absolute value of input and then store the result in the destination buffer. */
 145:../Dave/Generated/CMSIS_DSP/BasicMathFunctions/arm_abs_q15.c ****     *pDst++ = (in1 > 0) ? in1 : (q15_t)__QSUB16(0, in1);
 267              	 .loc 1 145 0
 268 0140 BB68     	 ldr r3,[r7,#8]
 269 0142 9A1C     	 adds r2,r3,#2
 270 0144 BA60     	 str r2,[r7,#8]
 271 0146 B7F96620 	 ldrsh r2,[r7,#102]
 272 014a 002A     	 cmp r2,#0
 273 014c 0CDC     	 bgt .L17
 274              	 .loc 1 145 0 is_stmt 0 discriminator 1
 275 014e B7F96620 	 ldrsh r2,[r7,#102]
 276 0152 0021     	 movs r1,#0
 277 0154 B961     	 str r1,[r7,#24]
 278 0156 7A61     	 str r2,[r7,#20]
 279              	.LBB24:
 280              	.LBB25:
 293:C:\Users\Depes Crystalline\Desktop\school\Active_Bike_Lighting_System\Radar_Core/Libraries/CMSIS/Include\core_cmSimd.h ****   return(result);
 281              	 .loc 2 293 0 is_stmt 1 discriminator 1
 282 0158 BA69     	 ldr r2,[r7,#24]
 283 015a 7969     	 ldr r1,[r7,#20]
 284              	
 285 015c D2FA11F2 	 qsub16 r2,r2,r1
 286              	
 287              	 .thumb
 288 0160 3A61     	 str r2,[r7,#16]
 289              	 .loc 2 294 0 discriminator 1
 290 0162 3A69     	 ldr r2,[r7,#16]
 291              	.LBE25:
 292              	.LBE24:
 293              	 .loc 1 145 0 discriminator 1
 294 0164 92B2     	 uxth r2,r2
 295 0166 01E0     	 b .L19
 296              	.L17:
 297              	 .loc 1 145 0 is_stmt 0 discriminator 2
 298 0168 B7F86620 	 ldrh r2,[r7,#102]
 299              	.L19:
 300              	 .loc 1 145 0 discriminator 4
 301 016c 1A80     	 strh r2,[r3]
 146:../Dave/Generated/CMSIS_DSP/BasicMathFunctions/arm_abs_q15.c **** 
 147:../Dave/Generated/CMSIS_DSP/BasicMathFunctions/arm_abs_q15.c ****     /* Decrement the loop counter */
 148:../Dave/Generated/CMSIS_DSP/BasicMathFunctions/arm_abs_q15.c ****     blkCnt--;
 302              	 .loc 1 148 0 is_stmt 1 discriminator 4
 303 016e FB6E     	 ldr r3,[r7,#108]
 304 0170 013B     	 subs r3,r3,#1
 305 0172 FB66     	 str r3,[r7,#108]
 306              	.L16:
 138:../Dave/Generated/CMSIS_DSP/BasicMathFunctions/arm_abs_q15.c ****   {
 307              	 .loc 1 138 0
 308 0174 FB6E     	 ldr r3,[r7,#108]
 309 0176 002B     	 cmp r3,#0
 310 0178 DCD1     	 bne .L20
 149:../Dave/Generated/CMSIS_DSP/BasicMathFunctions/arm_abs_q15.c ****   }
 150:../Dave/Generated/CMSIS_DSP/BasicMathFunctions/arm_abs_q15.c **** 
 151:../Dave/Generated/CMSIS_DSP/BasicMathFunctions/arm_abs_q15.c **** #else
 152:../Dave/Generated/CMSIS_DSP/BasicMathFunctions/arm_abs_q15.c **** 
 153:../Dave/Generated/CMSIS_DSP/BasicMathFunctions/arm_abs_q15.c ****   /* Run the below code for Cortex-M0 */
 154:../Dave/Generated/CMSIS_DSP/BasicMathFunctions/arm_abs_q15.c **** 
 155:../Dave/Generated/CMSIS_DSP/BasicMathFunctions/arm_abs_q15.c ****   q15_t in;                                      /* Temporary input variable */
 156:../Dave/Generated/CMSIS_DSP/BasicMathFunctions/arm_abs_q15.c **** 
 157:../Dave/Generated/CMSIS_DSP/BasicMathFunctions/arm_abs_q15.c ****   /* Initialize blkCnt with number of samples */
 158:../Dave/Generated/CMSIS_DSP/BasicMathFunctions/arm_abs_q15.c ****   blkCnt = blockSize;
 159:../Dave/Generated/CMSIS_DSP/BasicMathFunctions/arm_abs_q15.c **** 
 160:../Dave/Generated/CMSIS_DSP/BasicMathFunctions/arm_abs_q15.c ****   while(blkCnt > 0u)
 161:../Dave/Generated/CMSIS_DSP/BasicMathFunctions/arm_abs_q15.c ****   {
 162:../Dave/Generated/CMSIS_DSP/BasicMathFunctions/arm_abs_q15.c ****     /* C = |A| */
 163:../Dave/Generated/CMSIS_DSP/BasicMathFunctions/arm_abs_q15.c ****     /* Read the input */
 164:../Dave/Generated/CMSIS_DSP/BasicMathFunctions/arm_abs_q15.c ****     in = *pSrc++;
 165:../Dave/Generated/CMSIS_DSP/BasicMathFunctions/arm_abs_q15.c **** 
 166:../Dave/Generated/CMSIS_DSP/BasicMathFunctions/arm_abs_q15.c ****     /* Calculate absolute value of input and then store the result in the destination buffer. */
 167:../Dave/Generated/CMSIS_DSP/BasicMathFunctions/arm_abs_q15.c ****     *pDst++ = (in > 0) ? in : ((in == (q15_t) 0x8000) ? 0x7fff : -in);
 168:../Dave/Generated/CMSIS_DSP/BasicMathFunctions/arm_abs_q15.c **** 
 169:../Dave/Generated/CMSIS_DSP/BasicMathFunctions/arm_abs_q15.c ****     /* Decrement the loop counter */
 170:../Dave/Generated/CMSIS_DSP/BasicMathFunctions/arm_abs_q15.c ****     blkCnt--;
 171:../Dave/Generated/CMSIS_DSP/BasicMathFunctions/arm_abs_q15.c ****   }
 172:../Dave/Generated/CMSIS_DSP/BasicMathFunctions/arm_abs_q15.c **** 
 173:../Dave/Generated/CMSIS_DSP/BasicMathFunctions/arm_abs_q15.c **** #endif /* #ifndef ARM_MATH_CM0_FAMILY */
 174:../Dave/Generated/CMSIS_DSP/BasicMathFunctions/arm_abs_q15.c **** 
 175:../Dave/Generated/CMSIS_DSP/BasicMathFunctions/arm_abs_q15.c **** }
 311              	 .loc 1 175 0
 312 017a 7437     	 adds r7,r7,#116
 313              	.LCFI3:
 314              	 .cfi_def_cfa_offset 4
 315 017c BD46     	 mov sp,r7
 316              	.LCFI4:
 317              	 .cfi_def_cfa_register 13
 318              	 
 319 017e 5DF8047B 	 ldr r7,[sp],#4
 320              	.LCFI5:
 321              	 .cfi_restore 7
 322              	 .cfi_def_cfa_offset 0
 323 0182 7047     	 bx lr
 324              	 .cfi_endproc
 325              	.LFE139:
 327              	 .text
 328              	.Letext0:
 329              	 .file 3 "c:\\davev4-64bit\\dave-4.2.6\\eclipse\\arm-gcc-49\\arm-none-eabi\\include\\machine\\_default_types.h"
 330              	 .file 4 "c:\\davev4-64bit\\dave-4.2.6\\eclipse\\arm-gcc-49\\arm-none-eabi\\include\\stdint.h"
 331              	 .file 5 "C:\\Users\\Depes Crystalline\\Desktop\\school\\Active_Bike_Lighting_System\\Radar_Core\\Dave\\Generated/CMSIS_DSP/arm_math.h"