   1              	 .syntax unified
   2              	 .cpu cortex-m4
   3              	 .fpu softvfp
   4              	 .eabi_attribute 20,1
   5              	 .eabi_attribute 21,1
   6              	 .eabi_attribute 23,3
   7              	 .eabi_attribute 24,1
   8              	 .eabi_attribute 25,1
   9              	 .eabi_attribute 26,1
  10              	 .eabi_attribute 30,6
  11              	 .eabi_attribute 34,1
  12              	 .eabi_attribute 18,4
  13              	 .thumb
  14              	 .file "arm_sub_f32.c"
  15              	 .text
  16              	.Ltext0:
  17              	 .cfi_sections .debug_frame
  18              	 .global __aeabi_fsub
  19              	 .section .text.arm_sub_f32,"ax",%progbits
  20              	 .align 2
  21              	 .global arm_sub_f32
  22              	 .thumb
  23              	 .thumb_func
  25              	arm_sub_f32:
  26              	.LFB139:
  27              	 .file 1 "../Dave/Generated/CMSIS_DSP/BasicMathFunctions/arm_sub_f32.c"
   1:../Dave/Generated/CMSIS_DSP/BasicMathFunctions/arm_sub_f32.c **** /* ----------------------------------------------------------------------    
   2:../Dave/Generated/CMSIS_DSP/BasicMathFunctions/arm_sub_f32.c **** * Copyright (C) 2010-2014 ARM Limited. All rights reserved.    
   3:../Dave/Generated/CMSIS_DSP/BasicMathFunctions/arm_sub_f32.c **** *    
   4:../Dave/Generated/CMSIS_DSP/BasicMathFunctions/arm_sub_f32.c **** * $Date:        12. March 2014
   5:../Dave/Generated/CMSIS_DSP/BasicMathFunctions/arm_sub_f32.c **** * $Revision: 	V1.4.4
   6:../Dave/Generated/CMSIS_DSP/BasicMathFunctions/arm_sub_f32.c **** *    
   7:../Dave/Generated/CMSIS_DSP/BasicMathFunctions/arm_sub_f32.c **** * Project: 	    CMSIS DSP Library    
   8:../Dave/Generated/CMSIS_DSP/BasicMathFunctions/arm_sub_f32.c **** * Title:		arm_sub_f32.c    
   9:../Dave/Generated/CMSIS_DSP/BasicMathFunctions/arm_sub_f32.c **** *    
  10:../Dave/Generated/CMSIS_DSP/BasicMathFunctions/arm_sub_f32.c **** * Description:	Floating-point vector subtraction.    
  11:../Dave/Generated/CMSIS_DSP/BasicMathFunctions/arm_sub_f32.c **** *    
  12:../Dave/Generated/CMSIS_DSP/BasicMathFunctions/arm_sub_f32.c **** * Target Processor: Cortex-M4/Cortex-M3/Cortex-M0
  13:../Dave/Generated/CMSIS_DSP/BasicMathFunctions/arm_sub_f32.c **** *  
  14:../Dave/Generated/CMSIS_DSP/BasicMathFunctions/arm_sub_f32.c **** * Redistribution and use in source and binary forms, with or without 
  15:../Dave/Generated/CMSIS_DSP/BasicMathFunctions/arm_sub_f32.c **** * modification, are permitted provided that the following conditions
  16:../Dave/Generated/CMSIS_DSP/BasicMathFunctions/arm_sub_f32.c **** * are met:
  17:../Dave/Generated/CMSIS_DSP/BasicMathFunctions/arm_sub_f32.c **** *   - Redistributions of source code must retain the above copyright
  18:../Dave/Generated/CMSIS_DSP/BasicMathFunctions/arm_sub_f32.c **** *     notice, this list of conditions and the following disclaimer.
  19:../Dave/Generated/CMSIS_DSP/BasicMathFunctions/arm_sub_f32.c **** *   - Redistributions in binary form must reproduce the above copyright
  20:../Dave/Generated/CMSIS_DSP/BasicMathFunctions/arm_sub_f32.c **** *     notice, this list of conditions and the following disclaimer in
  21:../Dave/Generated/CMSIS_DSP/BasicMathFunctions/arm_sub_f32.c **** *     the documentation and/or other materials provided with the 
  22:../Dave/Generated/CMSIS_DSP/BasicMathFunctions/arm_sub_f32.c **** *     distribution.
  23:../Dave/Generated/CMSIS_DSP/BasicMathFunctions/arm_sub_f32.c **** *   - Neither the name of ARM LIMITED nor the names of its contributors
  24:../Dave/Generated/CMSIS_DSP/BasicMathFunctions/arm_sub_f32.c **** *     may be used to endorse or promote products derived from this
  25:../Dave/Generated/CMSIS_DSP/BasicMathFunctions/arm_sub_f32.c **** *     software without specific prior written permission.
  26:../Dave/Generated/CMSIS_DSP/BasicMathFunctions/arm_sub_f32.c **** *
  27:../Dave/Generated/CMSIS_DSP/BasicMathFunctions/arm_sub_f32.c **** * THIS SOFTWARE IS PROVIDED BY THE COPYRIGHT HOLDERS AND CONTRIBUTORS
  28:../Dave/Generated/CMSIS_DSP/BasicMathFunctions/arm_sub_f32.c **** * "AS IS" AND ANY EXPRESS OR IMPLIED WARRANTIES, INCLUDING, BUT NOT
  29:../Dave/Generated/CMSIS_DSP/BasicMathFunctions/arm_sub_f32.c **** * LIMITED TO, THE IMPLIED WARRANTIES OF MERCHANTABILITY AND FITNESS
  30:../Dave/Generated/CMSIS_DSP/BasicMathFunctions/arm_sub_f32.c **** * FOR A PARTICULAR PURPOSE ARE DISCLAIMED. IN NO EVENT SHALL THE 
  31:../Dave/Generated/CMSIS_DSP/BasicMathFunctions/arm_sub_f32.c **** * COPYRIGHT OWNER OR CONTRIBUTORS BE LIABLE FOR ANY DIRECT, INDIRECT,
  32:../Dave/Generated/CMSIS_DSP/BasicMathFunctions/arm_sub_f32.c **** * INCIDENTAL, SPECIAL, EXEMPLARY, OR CONSEQUENTIAL DAMAGES (INCLUDING,
  33:../Dave/Generated/CMSIS_DSP/BasicMathFunctions/arm_sub_f32.c **** * BUT NOT LIMITED TO, PROCUREMENT OF SUBSTITUTE GOODS OR SERVICES;
  34:../Dave/Generated/CMSIS_DSP/BasicMathFunctions/arm_sub_f32.c **** * LOSS OF USE, DATA, OR PROFITS; OR BUSINESS INTERRUPTION) HOWEVER
  35:../Dave/Generated/CMSIS_DSP/BasicMathFunctions/arm_sub_f32.c **** * CAUSED AND ON ANY THEORY OF LIABILITY, WHETHER IN CONTRACT, STRICT
  36:../Dave/Generated/CMSIS_DSP/BasicMathFunctions/arm_sub_f32.c **** * LIABILITY, OR TORT (INCLUDING NEGLIGENCE OR OTHERWISE) ARISING IN
  37:../Dave/Generated/CMSIS_DSP/BasicMathFunctions/arm_sub_f32.c **** * ANY WAY OUT OF THE USE OF THIS SOFTWARE, EVEN IF ADVISED OF THE
  38:../Dave/Generated/CMSIS_DSP/BasicMathFunctions/arm_sub_f32.c **** * POSSIBILITY OF SUCH DAMAGE.  
  39:../Dave/Generated/CMSIS_DSP/BasicMathFunctions/arm_sub_f32.c **** * ---------------------------------------------------------------------------- */
  40:../Dave/Generated/CMSIS_DSP/BasicMathFunctions/arm_sub_f32.c **** 
  41:../Dave/Generated/CMSIS_DSP/BasicMathFunctions/arm_sub_f32.c **** #include "CMSIS_DSP/cmsis_dsp.h"
  42:../Dave/Generated/CMSIS_DSP/BasicMathFunctions/arm_sub_f32.c **** 
  43:../Dave/Generated/CMSIS_DSP/BasicMathFunctions/arm_sub_f32.c **** /**        
  44:../Dave/Generated/CMSIS_DSP/BasicMathFunctions/arm_sub_f32.c ****  * @ingroup groupMath        
  45:../Dave/Generated/CMSIS_DSP/BasicMathFunctions/arm_sub_f32.c ****  */
  46:../Dave/Generated/CMSIS_DSP/BasicMathFunctions/arm_sub_f32.c **** 
  47:../Dave/Generated/CMSIS_DSP/BasicMathFunctions/arm_sub_f32.c **** /**        
  48:../Dave/Generated/CMSIS_DSP/BasicMathFunctions/arm_sub_f32.c ****  * @defgroup BasicSub Vector Subtraction        
  49:../Dave/Generated/CMSIS_DSP/BasicMathFunctions/arm_sub_f32.c ****  *        
  50:../Dave/Generated/CMSIS_DSP/BasicMathFunctions/arm_sub_f32.c ****  * Element-by-element subtraction of two vectors.        
  51:../Dave/Generated/CMSIS_DSP/BasicMathFunctions/arm_sub_f32.c ****  *        
  52:../Dave/Generated/CMSIS_DSP/BasicMathFunctions/arm_sub_f32.c ****  * <pre>        
  53:../Dave/Generated/CMSIS_DSP/BasicMathFunctions/arm_sub_f32.c ****  *     pDst[n] = pSrcA[n] - pSrcB[n],   0 <= n < blockSize.        
  54:../Dave/Generated/CMSIS_DSP/BasicMathFunctions/arm_sub_f32.c ****  * </pre>        
  55:../Dave/Generated/CMSIS_DSP/BasicMathFunctions/arm_sub_f32.c ****  *        
  56:../Dave/Generated/CMSIS_DSP/BasicMathFunctions/arm_sub_f32.c ****  * There are separate functions for floating-point, Q7, Q15, and Q31 data types.        
  57:../Dave/Generated/CMSIS_DSP/BasicMathFunctions/arm_sub_f32.c ****  */
  58:../Dave/Generated/CMSIS_DSP/BasicMathFunctions/arm_sub_f32.c **** 
  59:../Dave/Generated/CMSIS_DSP/BasicMathFunctions/arm_sub_f32.c **** /**        
  60:../Dave/Generated/CMSIS_DSP/BasicMathFunctions/arm_sub_f32.c ****  * @addtogroup BasicSub        
  61:../Dave/Generated/CMSIS_DSP/BasicMathFunctions/arm_sub_f32.c ****  * @{        
  62:../Dave/Generated/CMSIS_DSP/BasicMathFunctions/arm_sub_f32.c ****  */
  63:../Dave/Generated/CMSIS_DSP/BasicMathFunctions/arm_sub_f32.c **** 
  64:../Dave/Generated/CMSIS_DSP/BasicMathFunctions/arm_sub_f32.c **** 
  65:../Dave/Generated/CMSIS_DSP/BasicMathFunctions/arm_sub_f32.c **** /**        
  66:../Dave/Generated/CMSIS_DSP/BasicMathFunctions/arm_sub_f32.c ****  * @brief Floating-point vector subtraction.        
  67:../Dave/Generated/CMSIS_DSP/BasicMathFunctions/arm_sub_f32.c ****  * @param[in]       *pSrcA points to the first input vector        
  68:../Dave/Generated/CMSIS_DSP/BasicMathFunctions/arm_sub_f32.c ****  * @param[in]       *pSrcB points to the second input vector        
  69:../Dave/Generated/CMSIS_DSP/BasicMathFunctions/arm_sub_f32.c ****  * @param[out]      *pDst points to the output vector        
  70:../Dave/Generated/CMSIS_DSP/BasicMathFunctions/arm_sub_f32.c ****  * @param[in]       blockSize number of samples in each vector        
  71:../Dave/Generated/CMSIS_DSP/BasicMathFunctions/arm_sub_f32.c ****  * @return none.        
  72:../Dave/Generated/CMSIS_DSP/BasicMathFunctions/arm_sub_f32.c ****  */
  73:../Dave/Generated/CMSIS_DSP/BasicMathFunctions/arm_sub_f32.c **** 
  74:../Dave/Generated/CMSIS_DSP/BasicMathFunctions/arm_sub_f32.c **** void arm_sub_f32(
  75:../Dave/Generated/CMSIS_DSP/BasicMathFunctions/arm_sub_f32.c ****   float32_t * pSrcA,
  76:../Dave/Generated/CMSIS_DSP/BasicMathFunctions/arm_sub_f32.c ****   float32_t * pSrcB,
  77:../Dave/Generated/CMSIS_DSP/BasicMathFunctions/arm_sub_f32.c ****   float32_t * pDst,
  78:../Dave/Generated/CMSIS_DSP/BasicMathFunctions/arm_sub_f32.c ****   uint32_t blockSize)
  79:../Dave/Generated/CMSIS_DSP/BasicMathFunctions/arm_sub_f32.c **** {
  28              	 .loc 1 79 0
  29              	 .cfi_startproc
  30              	 
  31              	 
  32 0000 90B5     	 push {r4,r7,lr}
  33              	.LCFI0:
  34              	 .cfi_def_cfa_offset 12
  35              	 .cfi_offset 4,-12
  36              	 .cfi_offset 7,-8
  37              	 .cfi_offset 14,-4
  38 0002 8FB0     	 sub sp,sp,#60
  39              	.LCFI1:
  40              	 .cfi_def_cfa_offset 72
  41 0004 00AF     	 add r7,sp,#0
  42              	.LCFI2:
  43              	 .cfi_def_cfa_register 7
  44 0006 F860     	 str r0,[r7,#12]
  45 0008 B960     	 str r1,[r7,#8]
  46 000a 7A60     	 str r2,[r7,#4]
  47 000c 3B60     	 str r3,[r7]
  80:../Dave/Generated/CMSIS_DSP/BasicMathFunctions/arm_sub_f32.c ****   uint32_t blkCnt;                               /* loop counter */
  81:../Dave/Generated/CMSIS_DSP/BasicMathFunctions/arm_sub_f32.c **** 
  82:../Dave/Generated/CMSIS_DSP/BasicMathFunctions/arm_sub_f32.c **** #ifndef ARM_MATH_CM0_FAMILY
  83:../Dave/Generated/CMSIS_DSP/BasicMathFunctions/arm_sub_f32.c **** 
  84:../Dave/Generated/CMSIS_DSP/BasicMathFunctions/arm_sub_f32.c **** /* Run the below code for Cortex-M4 and Cortex-M3 */
  85:../Dave/Generated/CMSIS_DSP/BasicMathFunctions/arm_sub_f32.c ****   float32_t inA1, inA2, inA3, inA4;              /* temporary variables */
  86:../Dave/Generated/CMSIS_DSP/BasicMathFunctions/arm_sub_f32.c ****   float32_t inB1, inB2, inB3, inB4;              /* temporary variables */
  87:../Dave/Generated/CMSIS_DSP/BasicMathFunctions/arm_sub_f32.c **** 
  88:../Dave/Generated/CMSIS_DSP/BasicMathFunctions/arm_sub_f32.c ****   /*loop Unrolling */
  89:../Dave/Generated/CMSIS_DSP/BasicMathFunctions/arm_sub_f32.c ****   blkCnt = blockSize >> 2u;
  48              	 .loc 1 89 0
  49 000e 3B68     	 ldr r3,[r7]
  50 0010 9B08     	 lsrs r3,r3,#2
  51 0012 7B63     	 str r3,[r7,#52]
  90:../Dave/Generated/CMSIS_DSP/BasicMathFunctions/arm_sub_f32.c **** 
  91:../Dave/Generated/CMSIS_DSP/BasicMathFunctions/arm_sub_f32.c ****   /* First part of the processing with loop unrolling.  Compute 4 outputs at a time.        
  92:../Dave/Generated/CMSIS_DSP/BasicMathFunctions/arm_sub_f32.c ****    ** a second loop below computes the remaining 1 to 3 samples. */
  93:../Dave/Generated/CMSIS_DSP/BasicMathFunctions/arm_sub_f32.c ****   while(blkCnt > 0u)
  52              	 .loc 1 93 0
  53 0014 45E0     	 b .L2
  54              	.L3:
  94:../Dave/Generated/CMSIS_DSP/BasicMathFunctions/arm_sub_f32.c ****   {
  95:../Dave/Generated/CMSIS_DSP/BasicMathFunctions/arm_sub_f32.c ****     /* C = A - B */
  96:../Dave/Generated/CMSIS_DSP/BasicMathFunctions/arm_sub_f32.c ****     /* Subtract and then store the results in the destination buffer. */
  97:../Dave/Generated/CMSIS_DSP/BasicMathFunctions/arm_sub_f32.c ****     /* Read 4 input samples from sourceA and sourceB */
  98:../Dave/Generated/CMSIS_DSP/BasicMathFunctions/arm_sub_f32.c ****     inA1 = *pSrcA;
  55              	 .loc 1 98 0
  56 0016 FB68     	 ldr r3,[r7,#12]
  57 0018 1B68     	 ldr r3,[r3]
  58 001a 3B63     	 str r3,[r7,#48]
  99:../Dave/Generated/CMSIS_DSP/BasicMathFunctions/arm_sub_f32.c ****     inB1 = *pSrcB;
  59              	 .loc 1 99 0
  60 001c BB68     	 ldr r3,[r7,#8]
  61 001e 1B68     	 ldr r3,[r3]
  62 0020 FB62     	 str r3,[r7,#44]
 100:../Dave/Generated/CMSIS_DSP/BasicMathFunctions/arm_sub_f32.c ****     inA2 = *(pSrcA + 1);
  63              	 .loc 1 100 0
  64 0022 FB68     	 ldr r3,[r7,#12]
  65 0024 5B68     	 ldr r3,[r3,#4]
  66 0026 BB62     	 str r3,[r7,#40]
 101:../Dave/Generated/CMSIS_DSP/BasicMathFunctions/arm_sub_f32.c ****     inB2 = *(pSrcB + 1);
  67              	 .loc 1 101 0
  68 0028 BB68     	 ldr r3,[r7,#8]
  69 002a 5B68     	 ldr r3,[r3,#4]
  70 002c 7B62     	 str r3,[r7,#36]
 102:../Dave/Generated/CMSIS_DSP/BasicMathFunctions/arm_sub_f32.c ****     inA3 = *(pSrcA + 2);
  71              	 .loc 1 102 0
  72 002e FB68     	 ldr r3,[r7,#12]
  73 0030 9B68     	 ldr r3,[r3,#8]
  74 0032 3B62     	 str r3,[r7,#32]
 103:../Dave/Generated/CMSIS_DSP/BasicMathFunctions/arm_sub_f32.c ****     inB3 = *(pSrcB + 2);
  75              	 .loc 1 103 0
  76 0034 BB68     	 ldr r3,[r7,#8]
  77 0036 9B68     	 ldr r3,[r3,#8]
  78 0038 FB61     	 str r3,[r7,#28]
 104:../Dave/Generated/CMSIS_DSP/BasicMathFunctions/arm_sub_f32.c ****     inA4 = *(pSrcA + 3);
  79              	 .loc 1 104 0
  80 003a FB68     	 ldr r3,[r7,#12]
  81 003c DB68     	 ldr r3,[r3,#12]
  82 003e BB61     	 str r3,[r7,#24]
 105:../Dave/Generated/CMSIS_DSP/BasicMathFunctions/arm_sub_f32.c ****     inB4 = *(pSrcB + 3);
  83              	 .loc 1 105 0
  84 0040 BB68     	 ldr r3,[r7,#8]
  85 0042 DB68     	 ldr r3,[r3,#12]
  86 0044 7B61     	 str r3,[r7,#20]
 106:../Dave/Generated/CMSIS_DSP/BasicMathFunctions/arm_sub_f32.c **** 
 107:../Dave/Generated/CMSIS_DSP/BasicMathFunctions/arm_sub_f32.c ****     /* dst = srcA - srcB */
 108:../Dave/Generated/CMSIS_DSP/BasicMathFunctions/arm_sub_f32.c ****     /* subtract and store the result */
 109:../Dave/Generated/CMSIS_DSP/BasicMathFunctions/arm_sub_f32.c ****     *pDst = inA1 - inB1;
  87              	 .loc 1 109 0
  88 0046 386B     	 ldr r0,[r7,#48]
  89 0048 F96A     	 ldr r1,[r7,#44]
  90 004a FFF7FEFF 	 bl __aeabi_fsub
  91 004e 0346     	 mov r3,r0
  92 0050 1A46     	 mov r2,r3
  93 0052 7B68     	 ldr r3,[r7,#4]
  94 0054 1A60     	 str r2,[r3]
 110:../Dave/Generated/CMSIS_DSP/BasicMathFunctions/arm_sub_f32.c ****     *(pDst + 1) = inA2 - inB2;
  95              	 .loc 1 110 0
  96 0056 7B68     	 ldr r3,[r7,#4]
  97 0058 1C1D     	 adds r4,r3,#4
  98 005a B86A     	 ldr r0,[r7,#40]
  99 005c 796A     	 ldr r1,[r7,#36]
 100 005e FFF7FEFF 	 bl __aeabi_fsub
 101 0062 0346     	 mov r3,r0
 102 0064 2360     	 str r3,[r4]
 111:../Dave/Generated/CMSIS_DSP/BasicMathFunctions/arm_sub_f32.c ****     *(pDst + 2) = inA3 - inB3;
 103              	 .loc 1 111 0
 104 0066 7B68     	 ldr r3,[r7,#4]
 105 0068 03F10804 	 add r4,r3,#8
 106 006c 386A     	 ldr r0,[r7,#32]
 107 006e F969     	 ldr r1,[r7,#28]
 108 0070 FFF7FEFF 	 bl __aeabi_fsub
 109 0074 0346     	 mov r3,r0
 110 0076 2360     	 str r3,[r4]
 112:../Dave/Generated/CMSIS_DSP/BasicMathFunctions/arm_sub_f32.c ****     *(pDst + 3) = inA4 - inB4;
 111              	 .loc 1 112 0
 112 0078 7B68     	 ldr r3,[r7,#4]
 113 007a 03F10C04 	 add r4,r3,#12
 114 007e B869     	 ldr r0,[r7,#24]
 115 0080 7969     	 ldr r1,[r7,#20]
 116 0082 FFF7FEFF 	 bl __aeabi_fsub
 117 0086 0346     	 mov r3,r0
 118 0088 2360     	 str r3,[r4]
 113:../Dave/Generated/CMSIS_DSP/BasicMathFunctions/arm_sub_f32.c **** 
 114:../Dave/Generated/CMSIS_DSP/BasicMathFunctions/arm_sub_f32.c **** 
 115:../Dave/Generated/CMSIS_DSP/BasicMathFunctions/arm_sub_f32.c ****     /* Update pointers to process next sampels */
 116:../Dave/Generated/CMSIS_DSP/BasicMathFunctions/arm_sub_f32.c ****     pSrcA += 4u;
 119              	 .loc 1 116 0
 120 008a FB68     	 ldr r3,[r7,#12]
 121 008c 1033     	 adds r3,r3,#16
 122 008e FB60     	 str r3,[r7,#12]
 117:../Dave/Generated/CMSIS_DSP/BasicMathFunctions/arm_sub_f32.c ****     pSrcB += 4u;
 123              	 .loc 1 117 0
 124 0090 BB68     	 ldr r3,[r7,#8]
 125 0092 1033     	 adds r3,r3,#16
 126 0094 BB60     	 str r3,[r7,#8]
 118:../Dave/Generated/CMSIS_DSP/BasicMathFunctions/arm_sub_f32.c ****     pDst += 4u;
 127              	 .loc 1 118 0
 128 0096 7B68     	 ldr r3,[r7,#4]
 129 0098 1033     	 adds r3,r3,#16
 130 009a 7B60     	 str r3,[r7,#4]
 119:../Dave/Generated/CMSIS_DSP/BasicMathFunctions/arm_sub_f32.c **** 
 120:../Dave/Generated/CMSIS_DSP/BasicMathFunctions/arm_sub_f32.c ****     /* Decrement the loop counter */
 121:../Dave/Generated/CMSIS_DSP/BasicMathFunctions/arm_sub_f32.c ****     blkCnt--;
 131              	 .loc 1 121 0
 132 009c 7B6B     	 ldr r3,[r7,#52]
 133 009e 013B     	 subs r3,r3,#1
 134 00a0 7B63     	 str r3,[r7,#52]
 135              	.L2:
  93:../Dave/Generated/CMSIS_DSP/BasicMathFunctions/arm_sub_f32.c ****   {
 136              	 .loc 1 93 0
 137 00a2 7B6B     	 ldr r3,[r7,#52]
 138 00a4 002B     	 cmp r3,#0
 139 00a6 B6D1     	 bne .L3
 122:../Dave/Generated/CMSIS_DSP/BasicMathFunctions/arm_sub_f32.c ****   }
 123:../Dave/Generated/CMSIS_DSP/BasicMathFunctions/arm_sub_f32.c **** 
 124:../Dave/Generated/CMSIS_DSP/BasicMathFunctions/arm_sub_f32.c ****   /* If the blockSize is not a multiple of 4, compute any remaining output samples here.        
 125:../Dave/Generated/CMSIS_DSP/BasicMathFunctions/arm_sub_f32.c ****    ** No loop unrolling is used. */
 126:../Dave/Generated/CMSIS_DSP/BasicMathFunctions/arm_sub_f32.c ****   blkCnt = blockSize % 0x4u;
 140              	 .loc 1 126 0
 141 00a8 3B68     	 ldr r3,[r7]
 142 00aa 03F00303 	 and r3,r3,#3
 143 00ae 7B63     	 str r3,[r7,#52]
 127:../Dave/Generated/CMSIS_DSP/BasicMathFunctions/arm_sub_f32.c **** 
 128:../Dave/Generated/CMSIS_DSP/BasicMathFunctions/arm_sub_f32.c **** #else
 129:../Dave/Generated/CMSIS_DSP/BasicMathFunctions/arm_sub_f32.c **** 
 130:../Dave/Generated/CMSIS_DSP/BasicMathFunctions/arm_sub_f32.c ****   /* Run the below code for Cortex-M0 */
 131:../Dave/Generated/CMSIS_DSP/BasicMathFunctions/arm_sub_f32.c **** 
 132:../Dave/Generated/CMSIS_DSP/BasicMathFunctions/arm_sub_f32.c ****   /* Initialize blkCnt with number of samples */
 133:../Dave/Generated/CMSIS_DSP/BasicMathFunctions/arm_sub_f32.c ****   blkCnt = blockSize;
 134:../Dave/Generated/CMSIS_DSP/BasicMathFunctions/arm_sub_f32.c **** 
 135:../Dave/Generated/CMSIS_DSP/BasicMathFunctions/arm_sub_f32.c **** #endif /* #ifndef ARM_MATH_CM0_FAMILY */
 136:../Dave/Generated/CMSIS_DSP/BasicMathFunctions/arm_sub_f32.c **** 
 137:../Dave/Generated/CMSIS_DSP/BasicMathFunctions/arm_sub_f32.c ****   while(blkCnt > 0u)
 144              	 .loc 1 137 0
 145 00b0 13E0     	 b .L4
 146              	.L5:
 138:../Dave/Generated/CMSIS_DSP/BasicMathFunctions/arm_sub_f32.c ****   {
 139:../Dave/Generated/CMSIS_DSP/BasicMathFunctions/arm_sub_f32.c ****     /* C = A - B */
 140:../Dave/Generated/CMSIS_DSP/BasicMathFunctions/arm_sub_f32.c ****     /* Subtract and then store the results in the destination buffer. */
 141:../Dave/Generated/CMSIS_DSP/BasicMathFunctions/arm_sub_f32.c ****     *pDst++ = (*pSrcA++) - (*pSrcB++);
 147              	 .loc 1 141 0
 148 00b2 7C68     	 ldr r4,[r7,#4]
 149 00b4 231D     	 adds r3,r4,#4
 150 00b6 7B60     	 str r3,[r7,#4]
 151 00b8 FB68     	 ldr r3,[r7,#12]
 152 00ba 1A1D     	 adds r2,r3,#4
 153 00bc FA60     	 str r2,[r7,#12]
 154 00be 1968     	 ldr r1,[r3]
 155 00c0 BB68     	 ldr r3,[r7,#8]
 156 00c2 1A1D     	 adds r2,r3,#4
 157 00c4 BA60     	 str r2,[r7,#8]
 158 00c6 1B68     	 ldr r3,[r3]
 159 00c8 0846     	 mov r0,r1
 160 00ca 1946     	 mov r1,r3
 161 00cc FFF7FEFF 	 bl __aeabi_fsub
 162 00d0 0346     	 mov r3,r0
 163 00d2 2360     	 str r3,[r4]
 142:../Dave/Generated/CMSIS_DSP/BasicMathFunctions/arm_sub_f32.c **** 
 143:../Dave/Generated/CMSIS_DSP/BasicMathFunctions/arm_sub_f32.c ****     /* Decrement the loop counter */
 144:../Dave/Generated/CMSIS_DSP/BasicMathFunctions/arm_sub_f32.c ****     blkCnt--;
 164              	 .loc 1 144 0
 165 00d4 7B6B     	 ldr r3,[r7,#52]
 166 00d6 013B     	 subs r3,r3,#1
 167 00d8 7B63     	 str r3,[r7,#52]
 168              	.L4:
 137:../Dave/Generated/CMSIS_DSP/BasicMathFunctions/arm_sub_f32.c ****   {
 169              	 .loc 1 137 0
 170 00da 7B6B     	 ldr r3,[r7,#52]
 171 00dc 002B     	 cmp r3,#0
 172 00de E8D1     	 bne .L5
 145:../Dave/Generated/CMSIS_DSP/BasicMathFunctions/arm_sub_f32.c ****   }
 146:../Dave/Generated/CMSIS_DSP/BasicMathFunctions/arm_sub_f32.c **** }
 173              	 .loc 1 146 0
 174 00e0 3C37     	 adds r7,r7,#60
 175              	.LCFI3:
 176              	 .cfi_def_cfa_offset 12
 177 00e2 BD46     	 mov sp,r7
 178              	.LCFI4:
 179              	 .cfi_def_cfa_register 13
 180              	 
 181 00e4 90BD     	 pop {r4,r7,pc}
 182              	 .cfi_endproc
 183              	.LFE139:
 185 00e6 00BF     	 .text
 186              	.Letext0:
 187              	 .file 2 "c:\\davev4-64bit\\dave-4.2.6\\eclipse\\arm-gcc-49\\arm-none-eabi\\include\\machine\\_default_types.h"
 188              	 .file 3 "c:\\davev4-64bit\\dave-4.2.6\\eclipse\\arm-gcc-49\\arm-none-eabi\\include\\stdint.h"
 189              	 .file 4 "C:\\Users\\Depes Crystalline\\Desktop\\school\\Active_Bike_Lighting_System\\Radar_Core\\Dave\\Generated/CMSIS_DSP/arm_math.h"