   1              	 .syntax unified
   2              	 .cpu cortex-m4
   3              	 .fpu softvfp
   4              	 .eabi_attribute 20,1
   5              	 .eabi_attribute 21,1
   6              	 .eabi_attribute 23,3
   7              	 .eabi_attribute 24,1
   8              	 .eabi_attribute 25,1
   9              	 .eabi_attribute 26,1
  10              	 .eabi_attribute 30,6
  11              	 .eabi_attribute 34,1
  12              	 .eabi_attribute 18,4
  13              	 .thumb
  14              	 .file "arm_cfft_radix2_init_q31.c"
  15              	 .text
  16              	.Ltext0:
  17              	 .cfi_sections .debug_frame
  18              	 .section .text.arm_cfft_radix2_init_q31,"ax",%progbits
  19              	 .align 2
  20              	 .global arm_cfft_radix2_init_q31
  21              	 .thumb
  22              	 .thumb_func
  24              	arm_cfft_radix2_init_q31:
  25              	.LFB139:
  26              	 .file 1 "../Dave/Generated/CMSIS_DSP/TransformFunctions/arm_cfft_radix2_init_q31.c"
   1:../Dave/Generated/CMSIS_DSP/TransformFunctions/arm_cfft_radix2_init_q31.c **** /* ----------------------------------------------------------------------   
   2:../Dave/Generated/CMSIS_DSP/TransformFunctions/arm_cfft_radix2_init_q31.c **** * Copyright (C) 2010-2014 ARM Limited. All rights reserved.   
   3:../Dave/Generated/CMSIS_DSP/TransformFunctions/arm_cfft_radix2_init_q31.c **** *   
   4:../Dave/Generated/CMSIS_DSP/TransformFunctions/arm_cfft_radix2_init_q31.c **** * $Date:        12. March 2014
   5:../Dave/Generated/CMSIS_DSP/TransformFunctions/arm_cfft_radix2_init_q31.c **** * $Revision: 	V1.4.4  
   6:../Dave/Generated/CMSIS_DSP/TransformFunctions/arm_cfft_radix2_init_q31.c **** *   
   7:../Dave/Generated/CMSIS_DSP/TransformFunctions/arm_cfft_radix2_init_q31.c **** * Project: 	    CMSIS DSP Library   
   8:../Dave/Generated/CMSIS_DSP/TransformFunctions/arm_cfft_radix2_init_q31.c **** * Title:	    arm_cfft_radix2_init_q31.c   
   9:../Dave/Generated/CMSIS_DSP/TransformFunctions/arm_cfft_radix2_init_q31.c **** *   
  10:../Dave/Generated/CMSIS_DSP/TransformFunctions/arm_cfft_radix2_init_q31.c **** * Description:	Radix-2 Decimation in Frequency Fixed-point CFFT & CIFFT Initialization function   
  11:../Dave/Generated/CMSIS_DSP/TransformFunctions/arm_cfft_radix2_init_q31.c **** *   
  12:../Dave/Generated/CMSIS_DSP/TransformFunctions/arm_cfft_radix2_init_q31.c **** * Target Processor: Cortex-M4/Cortex-M3/Cortex-M0
  13:../Dave/Generated/CMSIS_DSP/TransformFunctions/arm_cfft_radix2_init_q31.c **** *  
  14:../Dave/Generated/CMSIS_DSP/TransformFunctions/arm_cfft_radix2_init_q31.c **** * Redistribution and use in source and binary forms, with or without 
  15:../Dave/Generated/CMSIS_DSP/TransformFunctions/arm_cfft_radix2_init_q31.c **** * modification, are permitted provided that the following conditions
  16:../Dave/Generated/CMSIS_DSP/TransformFunctions/arm_cfft_radix2_init_q31.c **** * are met:
  17:../Dave/Generated/CMSIS_DSP/TransformFunctions/arm_cfft_radix2_init_q31.c **** *   - Redistributions of source code must retain the above copyright
  18:../Dave/Generated/CMSIS_DSP/TransformFunctions/arm_cfft_radix2_init_q31.c **** *     notice, this list of conditions and the following disclaimer.
  19:../Dave/Generated/CMSIS_DSP/TransformFunctions/arm_cfft_radix2_init_q31.c **** *   - Redistributions in binary form must reproduce the above copyright
  20:../Dave/Generated/CMSIS_DSP/TransformFunctions/arm_cfft_radix2_init_q31.c **** *     notice, this list of conditions and the following disclaimer in
  21:../Dave/Generated/CMSIS_DSP/TransformFunctions/arm_cfft_radix2_init_q31.c **** *     the documentation and/or other materials provided with the 
  22:../Dave/Generated/CMSIS_DSP/TransformFunctions/arm_cfft_radix2_init_q31.c **** *     distribution.
  23:../Dave/Generated/CMSIS_DSP/TransformFunctions/arm_cfft_radix2_init_q31.c **** *   - Neither the name of ARM LIMITED nor the names of its contributors
  24:../Dave/Generated/CMSIS_DSP/TransformFunctions/arm_cfft_radix2_init_q31.c **** *     may be used to endorse or promote products derived from this
  25:../Dave/Generated/CMSIS_DSP/TransformFunctions/arm_cfft_radix2_init_q31.c **** *     software without specific prior written permission.
  26:../Dave/Generated/CMSIS_DSP/TransformFunctions/arm_cfft_radix2_init_q31.c **** *
  27:../Dave/Generated/CMSIS_DSP/TransformFunctions/arm_cfft_radix2_init_q31.c **** * THIS SOFTWARE IS PROVIDED BY THE COPYRIGHT HOLDERS AND CONTRIBUTORS
  28:../Dave/Generated/CMSIS_DSP/TransformFunctions/arm_cfft_radix2_init_q31.c **** * "AS IS" AND ANY EXPRESS OR IMPLIED WARRANTIES, INCLUDING, BUT NOT
  29:../Dave/Generated/CMSIS_DSP/TransformFunctions/arm_cfft_radix2_init_q31.c **** * LIMITED TO, THE IMPLIED WARRANTIES OF MERCHANTABILITY AND FITNESS
  30:../Dave/Generated/CMSIS_DSP/TransformFunctions/arm_cfft_radix2_init_q31.c **** * FOR A PARTICULAR PURPOSE ARE DISCLAIMED. IN NO EVENT SHALL THE 
  31:../Dave/Generated/CMSIS_DSP/TransformFunctions/arm_cfft_radix2_init_q31.c **** * COPYRIGHT OWNER OR CONTRIBUTORS BE LIABLE FOR ANY DIRECT, INDIRECT,
  32:../Dave/Generated/CMSIS_DSP/TransformFunctions/arm_cfft_radix2_init_q31.c **** * INCIDENTAL, SPECIAL, EXEMPLARY, OR CONSEQUENTIAL DAMAGES (INCLUDING,
  33:../Dave/Generated/CMSIS_DSP/TransformFunctions/arm_cfft_radix2_init_q31.c **** * BUT NOT LIMITED TO, PROCUREMENT OF SUBSTITUTE GOODS OR SERVICES;
  34:../Dave/Generated/CMSIS_DSP/TransformFunctions/arm_cfft_radix2_init_q31.c **** * LOSS OF USE, DATA, OR PROFITS; OR BUSINESS INTERRUPTION) HOWEVER
  35:../Dave/Generated/CMSIS_DSP/TransformFunctions/arm_cfft_radix2_init_q31.c **** * CAUSED AND ON ANY THEORY OF LIABILITY, WHETHER IN CONTRACT, STRICT
  36:../Dave/Generated/CMSIS_DSP/TransformFunctions/arm_cfft_radix2_init_q31.c **** * LIABILITY, OR TORT (INCLUDING NEGLIGENCE OR OTHERWISE) ARISING IN
  37:../Dave/Generated/CMSIS_DSP/TransformFunctions/arm_cfft_radix2_init_q31.c **** * ANY WAY OUT OF THE USE OF THIS SOFTWARE, EVEN IF ADVISED OF THE
  38:../Dave/Generated/CMSIS_DSP/TransformFunctions/arm_cfft_radix2_init_q31.c **** * POSSIBILITY OF SUCH DAMAGE.  
  39:../Dave/Generated/CMSIS_DSP/TransformFunctions/arm_cfft_radix2_init_q31.c **** * -------------------------------------------------------------------- */
  40:../Dave/Generated/CMSIS_DSP/TransformFunctions/arm_cfft_radix2_init_q31.c **** 
  41:../Dave/Generated/CMSIS_DSP/TransformFunctions/arm_cfft_radix2_init_q31.c **** 
  42:../Dave/Generated/CMSIS_DSP/TransformFunctions/arm_cfft_radix2_init_q31.c **** #include "CMSIS_DSP/cmsis_dsp.h"
  43:../Dave/Generated/CMSIS_DSP/TransformFunctions/arm_cfft_radix2_init_q31.c **** #include "CMSIS_DSP/arm_common_tables.h"
  44:../Dave/Generated/CMSIS_DSP/TransformFunctions/arm_cfft_radix2_init_q31.c **** 
  45:../Dave/Generated/CMSIS_DSP/TransformFunctions/arm_cfft_radix2_init_q31.c **** /**   
  46:../Dave/Generated/CMSIS_DSP/TransformFunctions/arm_cfft_radix2_init_q31.c ****  * @ingroup groupTransforms   
  47:../Dave/Generated/CMSIS_DSP/TransformFunctions/arm_cfft_radix2_init_q31.c ****  */
  48:../Dave/Generated/CMSIS_DSP/TransformFunctions/arm_cfft_radix2_init_q31.c **** 
  49:../Dave/Generated/CMSIS_DSP/TransformFunctions/arm_cfft_radix2_init_q31.c **** /**   
  50:../Dave/Generated/CMSIS_DSP/TransformFunctions/arm_cfft_radix2_init_q31.c ****  * @addtogroup ComplexFFT   
  51:../Dave/Generated/CMSIS_DSP/TransformFunctions/arm_cfft_radix2_init_q31.c ****  * @{   
  52:../Dave/Generated/CMSIS_DSP/TransformFunctions/arm_cfft_radix2_init_q31.c ****  */
  53:../Dave/Generated/CMSIS_DSP/TransformFunctions/arm_cfft_radix2_init_q31.c **** 
  54:../Dave/Generated/CMSIS_DSP/TransformFunctions/arm_cfft_radix2_init_q31.c **** 
  55:../Dave/Generated/CMSIS_DSP/TransformFunctions/arm_cfft_radix2_init_q31.c **** /**    
  56:../Dave/Generated/CMSIS_DSP/TransformFunctions/arm_cfft_radix2_init_q31.c **** *    
  57:../Dave/Generated/CMSIS_DSP/TransformFunctions/arm_cfft_radix2_init_q31.c **** * @brief  Initialization function for the Q31 CFFT/CIFFT.   
  58:../Dave/Generated/CMSIS_DSP/TransformFunctions/arm_cfft_radix2_init_q31.c **** * @deprecated Do not use this function.  It has been superseded by \ref arm_cfft_q31 and will be re
  59:../Dave/Generated/CMSIS_DSP/TransformFunctions/arm_cfft_radix2_init_q31.c **** * @param[in,out] *S             points to an instance of the Q31 CFFT/CIFFT structure.   
  60:../Dave/Generated/CMSIS_DSP/TransformFunctions/arm_cfft_radix2_init_q31.c **** * @param[in]     fftLen         length of the FFT.  
  61:../Dave/Generated/CMSIS_DSP/TransformFunctions/arm_cfft_radix2_init_q31.c **** * @param[in]     ifftFlag       flag that selects forward (ifftFlag=0) or inverse (ifftFlag=1) tran
  62:../Dave/Generated/CMSIS_DSP/TransformFunctions/arm_cfft_radix2_init_q31.c **** * @param[in]     bitReverseFlag flag that enables (bitReverseFlag=1) or disables (bitReverseFlag=0)
  63:../Dave/Generated/CMSIS_DSP/TransformFunctions/arm_cfft_radix2_init_q31.c **** * @return        The function returns ARM_MATH_SUCCESS if initialization is successful or ARM_MATH_
  64:../Dave/Generated/CMSIS_DSP/TransformFunctions/arm_cfft_radix2_init_q31.c **** *   
  65:../Dave/Generated/CMSIS_DSP/TransformFunctions/arm_cfft_radix2_init_q31.c **** * \par Description:  
  66:../Dave/Generated/CMSIS_DSP/TransformFunctions/arm_cfft_radix2_init_q31.c **** * \par   
  67:../Dave/Generated/CMSIS_DSP/TransformFunctions/arm_cfft_radix2_init_q31.c **** * The parameter <code>ifftFlag</code> controls whether a forward or inverse transform is computed. 
  68:../Dave/Generated/CMSIS_DSP/TransformFunctions/arm_cfft_radix2_init_q31.c **** * Set(=1) ifftFlag for calculation of CIFFT otherwise  CFFT is calculated  
  69:../Dave/Generated/CMSIS_DSP/TransformFunctions/arm_cfft_radix2_init_q31.c **** * \par   
  70:../Dave/Generated/CMSIS_DSP/TransformFunctions/arm_cfft_radix2_init_q31.c **** * The parameter <code>bitReverseFlag</code> controls whether output is in normal order or bit rever
  71:../Dave/Generated/CMSIS_DSP/TransformFunctions/arm_cfft_radix2_init_q31.c **** * Set(=1) bitReverseFlag for output to be in normal order otherwise output is in bit reversed order
  72:../Dave/Generated/CMSIS_DSP/TransformFunctions/arm_cfft_radix2_init_q31.c **** * \par   
  73:../Dave/Generated/CMSIS_DSP/TransformFunctions/arm_cfft_radix2_init_q31.c **** * The parameter <code>fftLen</code>	Specifies length of CFFT/CIFFT process. Supported FFT Lengths a
  74:../Dave/Generated/CMSIS_DSP/TransformFunctions/arm_cfft_radix2_init_q31.c **** * \par   
  75:../Dave/Generated/CMSIS_DSP/TransformFunctions/arm_cfft_radix2_init_q31.c **** * This Function also initializes Twiddle factor table pointer and Bit reversal table pointer.   
  76:../Dave/Generated/CMSIS_DSP/TransformFunctions/arm_cfft_radix2_init_q31.c **** */
  77:../Dave/Generated/CMSIS_DSP/TransformFunctions/arm_cfft_radix2_init_q31.c **** 
  78:../Dave/Generated/CMSIS_DSP/TransformFunctions/arm_cfft_radix2_init_q31.c **** arm_status arm_cfft_radix2_init_q31(
  79:../Dave/Generated/CMSIS_DSP/TransformFunctions/arm_cfft_radix2_init_q31.c ****   arm_cfft_radix2_instance_q31 * S,
  80:../Dave/Generated/CMSIS_DSP/TransformFunctions/arm_cfft_radix2_init_q31.c ****   uint16_t fftLen,
  81:../Dave/Generated/CMSIS_DSP/TransformFunctions/arm_cfft_radix2_init_q31.c ****   uint8_t ifftFlag,
  82:../Dave/Generated/CMSIS_DSP/TransformFunctions/arm_cfft_radix2_init_q31.c ****   uint8_t bitReverseFlag)
  83:../Dave/Generated/CMSIS_DSP/TransformFunctions/arm_cfft_radix2_init_q31.c **** {
  27              	 .loc 1 83 0
  28              	 .cfi_startproc
  29              	 
  30              	 
  31              	 
  32 0000 80B4     	 push {r7}
  33              	.LCFI0:
  34              	 .cfi_def_cfa_offset 4
  35              	 .cfi_offset 7,-4
  36 0002 85B0     	 sub sp,sp,#20
  37              	.LCFI1:
  38              	 .cfi_def_cfa_offset 24
  39 0004 00AF     	 add r7,sp,#0
  40              	.LCFI2:
  41              	 .cfi_def_cfa_register 7
  42 0006 7860     	 str r0,[r7,#4]
  43 0008 0846     	 mov r0,r1
  44 000a 1146     	 mov r1,r2
  45 000c 1A46     	 mov r2,r3
  46 000e 0346     	 mov r3,r0
  47 0010 7B80     	 strh r3,[r7,#2]
  48 0012 0B46     	 mov r3,r1
  49 0014 7B70     	 strb r3,[r7,#1]
  50 0016 1346     	 mov r3,r2
  51 0018 3B70     	 strb r3,[r7]
  84:../Dave/Generated/CMSIS_DSP/TransformFunctions/arm_cfft_radix2_init_q31.c ****   /*  Initialise the default arm status */
  85:../Dave/Generated/CMSIS_DSP/TransformFunctions/arm_cfft_radix2_init_q31.c ****   arm_status status = ARM_MATH_SUCCESS;
  52              	 .loc 1 85 0
  53 001a 0023     	 movs r3,#0
  54 001c FB73     	 strb r3,[r7,#15]
  86:../Dave/Generated/CMSIS_DSP/TransformFunctions/arm_cfft_radix2_init_q31.c **** 
  87:../Dave/Generated/CMSIS_DSP/TransformFunctions/arm_cfft_radix2_init_q31.c ****   /*  Initialise the FFT length */
  88:../Dave/Generated/CMSIS_DSP/TransformFunctions/arm_cfft_radix2_init_q31.c ****   S->fftLen = fftLen;
  55              	 .loc 1 88 0
  56 001e 7B68     	 ldr r3,[r7,#4]
  57 0020 7A88     	 ldrh r2,[r7,#2]
  58 0022 1A80     	 strh r2,[r3]
  89:../Dave/Generated/CMSIS_DSP/TransformFunctions/arm_cfft_radix2_init_q31.c **** 
  90:../Dave/Generated/CMSIS_DSP/TransformFunctions/arm_cfft_radix2_init_q31.c ****   /*  Initialise the Twiddle coefficient pointer */
  91:../Dave/Generated/CMSIS_DSP/TransformFunctions/arm_cfft_radix2_init_q31.c ****   S->pTwiddle = (q31_t *) twiddleCoef_4096_q31;
  59              	 .loc 1 91 0
  60 0024 7B68     	 ldr r3,[r7,#4]
  61 0026 494A     	 ldr r2,.L17
  62 0028 5A60     	 str r2,[r3,#4]
  92:../Dave/Generated/CMSIS_DSP/TransformFunctions/arm_cfft_radix2_init_q31.c ****   /*  Initialise the Flag for selection of CFFT or CIFFT */
  93:../Dave/Generated/CMSIS_DSP/TransformFunctions/arm_cfft_radix2_init_q31.c ****   S->ifftFlag = ifftFlag;
  63              	 .loc 1 93 0
  64 002a 7B68     	 ldr r3,[r7,#4]
  65 002c 7A78     	 ldrb r2,[r7,#1]
  66 002e 9A70     	 strb r2,[r3,#2]
  94:../Dave/Generated/CMSIS_DSP/TransformFunctions/arm_cfft_radix2_init_q31.c ****   /*  Initialise the Flag for calculation Bit reversal or not */
  95:../Dave/Generated/CMSIS_DSP/TransformFunctions/arm_cfft_radix2_init_q31.c ****   S->bitReverseFlag = bitReverseFlag;
  67              	 .loc 1 95 0
  68 0030 7B68     	 ldr r3,[r7,#4]
  69 0032 3A78     	 ldrb r2,[r7]
  70 0034 DA70     	 strb r2,[r3,#3]
  96:../Dave/Generated/CMSIS_DSP/TransformFunctions/arm_cfft_radix2_init_q31.c **** 
  97:../Dave/Generated/CMSIS_DSP/TransformFunctions/arm_cfft_radix2_init_q31.c ****   /*  Initializations of Instance structure depending on the FFT length */
  98:../Dave/Generated/CMSIS_DSP/TransformFunctions/arm_cfft_radix2_init_q31.c ****   switch (S->fftLen)
  71              	 .loc 1 98 0
  72 0036 7B68     	 ldr r3,[r7,#4]
  73 0038 1B88     	 ldrh r3,[r3]
  74 003a B3F5807F 	 cmp r3,#256
  75 003e 46D0     	 beq .L3
  76 0040 B3F5807F 	 cmp r3,#256
  77 0044 0BDC     	 bgt .L4
  78 0046 202B     	 cmp r3,#32
  79 0048 5FD0     	 beq .L5
  80 004a 202B     	 cmp r3,#32
  81 004c 02DC     	 bgt .L6
  82 004e 102B     	 cmp r3,#16
  83 0050 65D0     	 beq .L7
  84 0052 70E0     	 b .L2
  85              	.L6:
  86 0054 402B     	 cmp r3,#64
  87 0056 4ED0     	 beq .L8
  88 0058 802B     	 cmp r3,#128
  89 005a 42D0     	 beq .L9
  90 005c 6BE0     	 b .L2
  91              	.L4:
  92 005e B3F5806F 	 cmp r3,#1024
  93 0062 20D0     	 beq .L10
  94 0064 B3F5806F 	 cmp r3,#1024
  95 0068 03DC     	 bgt .L11
  96 006a B3F5007F 	 cmp r3,#512
  97 006e 24D0     	 beq .L12
  98 0070 61E0     	 b .L2
  99              	.L11:
 100 0072 B3F5006F 	 cmp r3,#2048
 101 0076 0CD0     	 beq .L13
 102 0078 B3F5805F 	 cmp r3,#4096
 103 007c 5BD1     	 bne .L2
  99:../Dave/Generated/CMSIS_DSP/TransformFunctions/arm_cfft_radix2_init_q31.c ****   {
 100:../Dave/Generated/CMSIS_DSP/TransformFunctions/arm_cfft_radix2_init_q31.c ****     /*  Initializations of structure parameters for 4096 point FFT */
 101:../Dave/Generated/CMSIS_DSP/TransformFunctions/arm_cfft_radix2_init_q31.c ****   case 4096u:
 102:../Dave/Generated/CMSIS_DSP/TransformFunctions/arm_cfft_radix2_init_q31.c ****     /*  Initialise the twiddle coef modifier value */
 103:../Dave/Generated/CMSIS_DSP/TransformFunctions/arm_cfft_radix2_init_q31.c ****     S->twidCoefModifier = 1u;
 104              	 .loc 1 103 0
 105 007e 7B68     	 ldr r3,[r7,#4]
 106 0080 0122     	 movs r2,#1
 107 0082 9A81     	 strh r2,[r3,#12]
 104:../Dave/Generated/CMSIS_DSP/TransformFunctions/arm_cfft_radix2_init_q31.c ****     /*  Initialise the bit reversal table modifier */
 105:../Dave/Generated/CMSIS_DSP/TransformFunctions/arm_cfft_radix2_init_q31.c ****     S->bitRevFactor = 1u;
 108              	 .loc 1 105 0
 109 0084 7B68     	 ldr r3,[r7,#4]
 110 0086 0122     	 movs r2,#1
 111 0088 DA81     	 strh r2,[r3,#14]
 106:../Dave/Generated/CMSIS_DSP/TransformFunctions/arm_cfft_radix2_init_q31.c ****     /*  Initialise the bit reversal table pointer */
 107:../Dave/Generated/CMSIS_DSP/TransformFunctions/arm_cfft_radix2_init_q31.c ****     S->pBitRevTable = (uint16_t *) armBitRevTable;
 112              	 .loc 1 107 0
 113 008a 7B68     	 ldr r3,[r7,#4]
 114 008c 304A     	 ldr r2,.L17+4
 115 008e 9A60     	 str r2,[r3,#8]
 108:../Dave/Generated/CMSIS_DSP/TransformFunctions/arm_cfft_radix2_init_q31.c ****     break;
 116              	 .loc 1 108 0
 117 0090 54E0     	 b .L15
 118              	.L13:
 109:../Dave/Generated/CMSIS_DSP/TransformFunctions/arm_cfft_radix2_init_q31.c **** 
 110:../Dave/Generated/CMSIS_DSP/TransformFunctions/arm_cfft_radix2_init_q31.c ****     /*  Initializations of structure parameters for 2048 point FFT */
 111:../Dave/Generated/CMSIS_DSP/TransformFunctions/arm_cfft_radix2_init_q31.c ****   case 2048u:
 112:../Dave/Generated/CMSIS_DSP/TransformFunctions/arm_cfft_radix2_init_q31.c ****     /*  Initialise the twiddle coef modifier value */
 113:../Dave/Generated/CMSIS_DSP/TransformFunctions/arm_cfft_radix2_init_q31.c ****     S->twidCoefModifier = 2u;
 119              	 .loc 1 113 0
 120 0092 7B68     	 ldr r3,[r7,#4]
 121 0094 0222     	 movs r2,#2
 122 0096 9A81     	 strh r2,[r3,#12]
 114:../Dave/Generated/CMSIS_DSP/TransformFunctions/arm_cfft_radix2_init_q31.c ****     /*  Initialise the bit reversal table modifier */
 115:../Dave/Generated/CMSIS_DSP/TransformFunctions/arm_cfft_radix2_init_q31.c ****     S->bitRevFactor = 2u;
 123              	 .loc 1 115 0
 124 0098 7B68     	 ldr r3,[r7,#4]
 125 009a 0222     	 movs r2,#2
 126 009c DA81     	 strh r2,[r3,#14]
 116:../Dave/Generated/CMSIS_DSP/TransformFunctions/arm_cfft_radix2_init_q31.c ****     /*  Initialise the bit reversal table pointer */
 117:../Dave/Generated/CMSIS_DSP/TransformFunctions/arm_cfft_radix2_init_q31.c ****     S->pBitRevTable = (uint16_t *) & armBitRevTable[1];
 127              	 .loc 1 117 0
 128 009e 7B68     	 ldr r3,[r7,#4]
 129 00a0 2C4A     	 ldr r2,.L17+8
 130 00a2 9A60     	 str r2,[r3,#8]
 118:../Dave/Generated/CMSIS_DSP/TransformFunctions/arm_cfft_radix2_init_q31.c ****     break;
 131              	 .loc 1 118 0
 132 00a4 4AE0     	 b .L15
 133              	.L10:
 119:../Dave/Generated/CMSIS_DSP/TransformFunctions/arm_cfft_radix2_init_q31.c **** 
 120:../Dave/Generated/CMSIS_DSP/TransformFunctions/arm_cfft_radix2_init_q31.c ****     /*  Initializations of structure parameters for 1024 point FFT */
 121:../Dave/Generated/CMSIS_DSP/TransformFunctions/arm_cfft_radix2_init_q31.c ****   case 1024u:
 122:../Dave/Generated/CMSIS_DSP/TransformFunctions/arm_cfft_radix2_init_q31.c ****     /*  Initialise the twiddle coef modifier value */
 123:../Dave/Generated/CMSIS_DSP/TransformFunctions/arm_cfft_radix2_init_q31.c ****     S->twidCoefModifier = 4u;
 134              	 .loc 1 123 0
 135 00a6 7B68     	 ldr r3,[r7,#4]
 136 00a8 0422     	 movs r2,#4
 137 00aa 9A81     	 strh r2,[r3,#12]
 124:../Dave/Generated/CMSIS_DSP/TransformFunctions/arm_cfft_radix2_init_q31.c ****     /*  Initialise the bit reversal table modifier */
 125:../Dave/Generated/CMSIS_DSP/TransformFunctions/arm_cfft_radix2_init_q31.c ****     S->bitRevFactor = 4u;
 138              	 .loc 1 125 0
 139 00ac 7B68     	 ldr r3,[r7,#4]
 140 00ae 0422     	 movs r2,#4
 141 00b0 DA81     	 strh r2,[r3,#14]
 126:../Dave/Generated/CMSIS_DSP/TransformFunctions/arm_cfft_radix2_init_q31.c ****     /*  Initialise the bit reversal table pointer */
 127:../Dave/Generated/CMSIS_DSP/TransformFunctions/arm_cfft_radix2_init_q31.c ****     S->pBitRevTable = (uint16_t *) & armBitRevTable[3];
 142              	 .loc 1 127 0
 143 00b2 7B68     	 ldr r3,[r7,#4]
 144 00b4 284A     	 ldr r2,.L17+12
 145 00b6 9A60     	 str r2,[r3,#8]
 128:../Dave/Generated/CMSIS_DSP/TransformFunctions/arm_cfft_radix2_init_q31.c ****     break;
 146              	 .loc 1 128 0
 147 00b8 40E0     	 b .L15
 148              	.L12:
 129:../Dave/Generated/CMSIS_DSP/TransformFunctions/arm_cfft_radix2_init_q31.c **** 
 130:../Dave/Generated/CMSIS_DSP/TransformFunctions/arm_cfft_radix2_init_q31.c ****     /*  Initializations of structure parameters for 512 point FFT */
 131:../Dave/Generated/CMSIS_DSP/TransformFunctions/arm_cfft_radix2_init_q31.c ****   case 512u:
 132:../Dave/Generated/CMSIS_DSP/TransformFunctions/arm_cfft_radix2_init_q31.c ****     /*  Initialise the twiddle coef modifier value */
 133:../Dave/Generated/CMSIS_DSP/TransformFunctions/arm_cfft_radix2_init_q31.c ****     S->twidCoefModifier = 8u;
 149              	 .loc 1 133 0
 150 00ba 7B68     	 ldr r3,[r7,#4]
 151 00bc 0822     	 movs r2,#8
 152 00be 9A81     	 strh r2,[r3,#12]
 134:../Dave/Generated/CMSIS_DSP/TransformFunctions/arm_cfft_radix2_init_q31.c ****     /*  Initialise the bit reversal table modifier */
 135:../Dave/Generated/CMSIS_DSP/TransformFunctions/arm_cfft_radix2_init_q31.c ****     S->bitRevFactor = 8u;
 153              	 .loc 1 135 0
 154 00c0 7B68     	 ldr r3,[r7,#4]
 155 00c2 0822     	 movs r2,#8
 156 00c4 DA81     	 strh r2,[r3,#14]
 136:../Dave/Generated/CMSIS_DSP/TransformFunctions/arm_cfft_radix2_init_q31.c ****     /*  Initialise the bit reversal table pointer */
 137:../Dave/Generated/CMSIS_DSP/TransformFunctions/arm_cfft_radix2_init_q31.c ****     S->pBitRevTable = (uint16_t *) & armBitRevTable[7];
 157              	 .loc 1 137 0
 158 00c6 7B68     	 ldr r3,[r7,#4]
 159 00c8 244A     	 ldr r2,.L17+16
 160 00ca 9A60     	 str r2,[r3,#8]
 138:../Dave/Generated/CMSIS_DSP/TransformFunctions/arm_cfft_radix2_init_q31.c ****     break;
 161              	 .loc 1 138 0
 162 00cc 36E0     	 b .L15
 163              	.L3:
 139:../Dave/Generated/CMSIS_DSP/TransformFunctions/arm_cfft_radix2_init_q31.c **** 
 140:../Dave/Generated/CMSIS_DSP/TransformFunctions/arm_cfft_radix2_init_q31.c ****   case 256u:
 141:../Dave/Generated/CMSIS_DSP/TransformFunctions/arm_cfft_radix2_init_q31.c ****     /*  Initializations of structure parameters for 256 point FFT */
 142:../Dave/Generated/CMSIS_DSP/TransformFunctions/arm_cfft_radix2_init_q31.c ****     S->twidCoefModifier = 16u;
 164              	 .loc 1 142 0
 165 00ce 7B68     	 ldr r3,[r7,#4]
 166 00d0 1022     	 movs r2,#16
 167 00d2 9A81     	 strh r2,[r3,#12]
 143:../Dave/Generated/CMSIS_DSP/TransformFunctions/arm_cfft_radix2_init_q31.c ****     S->bitRevFactor = 16u;
 168              	 .loc 1 143 0
 169 00d4 7B68     	 ldr r3,[r7,#4]
 170 00d6 1022     	 movs r2,#16
 171 00d8 DA81     	 strh r2,[r3,#14]
 144:../Dave/Generated/CMSIS_DSP/TransformFunctions/arm_cfft_radix2_init_q31.c ****     S->pBitRevTable = (uint16_t *) & armBitRevTable[15];
 172              	 .loc 1 144 0
 173 00da 7B68     	 ldr r3,[r7,#4]
 174 00dc 204A     	 ldr r2,.L17+20
 175 00de 9A60     	 str r2,[r3,#8]
 145:../Dave/Generated/CMSIS_DSP/TransformFunctions/arm_cfft_radix2_init_q31.c ****     break;
 176              	 .loc 1 145 0
 177 00e0 2CE0     	 b .L15
 178              	.L9:
 146:../Dave/Generated/CMSIS_DSP/TransformFunctions/arm_cfft_radix2_init_q31.c **** 
 147:../Dave/Generated/CMSIS_DSP/TransformFunctions/arm_cfft_radix2_init_q31.c ****   case 128u:
 148:../Dave/Generated/CMSIS_DSP/TransformFunctions/arm_cfft_radix2_init_q31.c ****     /*  Initializations of structure parameters for 128 point FFT */
 149:../Dave/Generated/CMSIS_DSP/TransformFunctions/arm_cfft_radix2_init_q31.c ****     S->twidCoefModifier = 32u;
 179              	 .loc 1 149 0
 180 00e2 7B68     	 ldr r3,[r7,#4]
 181 00e4 2022     	 movs r2,#32
 182 00e6 9A81     	 strh r2,[r3,#12]
 150:../Dave/Generated/CMSIS_DSP/TransformFunctions/arm_cfft_radix2_init_q31.c ****     S->bitRevFactor = 32u;
 183              	 .loc 1 150 0
 184 00e8 7B68     	 ldr r3,[r7,#4]
 185 00ea 2022     	 movs r2,#32
 186 00ec DA81     	 strh r2,[r3,#14]
 151:../Dave/Generated/CMSIS_DSP/TransformFunctions/arm_cfft_radix2_init_q31.c ****     S->pBitRevTable = (uint16_t *) & armBitRevTable[31];
 187              	 .loc 1 151 0
 188 00ee 7B68     	 ldr r3,[r7,#4]
 189 00f0 1C4A     	 ldr r2,.L17+24
 190 00f2 9A60     	 str r2,[r3,#8]
 152:../Dave/Generated/CMSIS_DSP/TransformFunctions/arm_cfft_radix2_init_q31.c ****     break;
 191              	 .loc 1 152 0
 192 00f4 22E0     	 b .L15
 193              	.L8:
 153:../Dave/Generated/CMSIS_DSP/TransformFunctions/arm_cfft_radix2_init_q31.c **** 
 154:../Dave/Generated/CMSIS_DSP/TransformFunctions/arm_cfft_radix2_init_q31.c ****   case 64u:
 155:../Dave/Generated/CMSIS_DSP/TransformFunctions/arm_cfft_radix2_init_q31.c ****     /*  Initializations of structure parameters for 64 point FFT */
 156:../Dave/Generated/CMSIS_DSP/TransformFunctions/arm_cfft_radix2_init_q31.c ****     S->twidCoefModifier = 64u;
 194              	 .loc 1 156 0
 195 00f6 7B68     	 ldr r3,[r7,#4]
 196 00f8 4022     	 movs r2,#64
 197 00fa 9A81     	 strh r2,[r3,#12]
 157:../Dave/Generated/CMSIS_DSP/TransformFunctions/arm_cfft_radix2_init_q31.c ****     S->bitRevFactor = 64u;
 198              	 .loc 1 157 0
 199 00fc 7B68     	 ldr r3,[r7,#4]
 200 00fe 4022     	 movs r2,#64
 201 0100 DA81     	 strh r2,[r3,#14]
 158:../Dave/Generated/CMSIS_DSP/TransformFunctions/arm_cfft_radix2_init_q31.c ****     S->pBitRevTable = (uint16_t *) & armBitRevTable[63];
 202              	 .loc 1 158 0
 203 0102 7B68     	 ldr r3,[r7,#4]
 204 0104 184A     	 ldr r2,.L17+28
 205 0106 9A60     	 str r2,[r3,#8]
 159:../Dave/Generated/CMSIS_DSP/TransformFunctions/arm_cfft_radix2_init_q31.c ****     break;
 206              	 .loc 1 159 0
 207 0108 18E0     	 b .L15
 208              	.L5:
 160:../Dave/Generated/CMSIS_DSP/TransformFunctions/arm_cfft_radix2_init_q31.c **** 
 161:../Dave/Generated/CMSIS_DSP/TransformFunctions/arm_cfft_radix2_init_q31.c ****   case 32u:
 162:../Dave/Generated/CMSIS_DSP/TransformFunctions/arm_cfft_radix2_init_q31.c ****     /*  Initializations of structure parameters for 32 point FFT */
 163:../Dave/Generated/CMSIS_DSP/TransformFunctions/arm_cfft_radix2_init_q31.c ****     S->twidCoefModifier = 128u;
 209              	 .loc 1 163 0
 210 010a 7B68     	 ldr r3,[r7,#4]
 211 010c 8022     	 movs r2,#128
 212 010e 9A81     	 strh r2,[r3,#12]
 164:../Dave/Generated/CMSIS_DSP/TransformFunctions/arm_cfft_radix2_init_q31.c ****     S->bitRevFactor = 128u;
 213              	 .loc 1 164 0
 214 0110 7B68     	 ldr r3,[r7,#4]
 215 0112 8022     	 movs r2,#128
 216 0114 DA81     	 strh r2,[r3,#14]
 165:../Dave/Generated/CMSIS_DSP/TransformFunctions/arm_cfft_radix2_init_q31.c ****     S->pBitRevTable = (uint16_t *) & armBitRevTable[127];
 217              	 .loc 1 165 0
 218 0116 7B68     	 ldr r3,[r7,#4]
 219 0118 144A     	 ldr r2,.L17+32
 220 011a 9A60     	 str r2,[r3,#8]
 166:../Dave/Generated/CMSIS_DSP/TransformFunctions/arm_cfft_radix2_init_q31.c ****     break;
 221              	 .loc 1 166 0
 222 011c 0EE0     	 b .L15
 223              	.L7:
 167:../Dave/Generated/CMSIS_DSP/TransformFunctions/arm_cfft_radix2_init_q31.c **** 
 168:../Dave/Generated/CMSIS_DSP/TransformFunctions/arm_cfft_radix2_init_q31.c ****   case 16u:
 169:../Dave/Generated/CMSIS_DSP/TransformFunctions/arm_cfft_radix2_init_q31.c ****     /*  Initializations of structure parameters for 16 point FFT */
 170:../Dave/Generated/CMSIS_DSP/TransformFunctions/arm_cfft_radix2_init_q31.c ****     S->twidCoefModifier = 256u;
 224              	 .loc 1 170 0
 225 011e 7B68     	 ldr r3,[r7,#4]
 226 0120 4FF48072 	 mov r2,#256
 227 0124 9A81     	 strh r2,[r3,#12]
 171:../Dave/Generated/CMSIS_DSP/TransformFunctions/arm_cfft_radix2_init_q31.c ****     S->bitRevFactor = 256u;
 228              	 .loc 1 171 0
 229 0126 7B68     	 ldr r3,[r7,#4]
 230 0128 4FF48072 	 mov r2,#256
 231 012c DA81     	 strh r2,[r3,#14]
 172:../Dave/Generated/CMSIS_DSP/TransformFunctions/arm_cfft_radix2_init_q31.c ****     S->pBitRevTable = (uint16_t *) & armBitRevTable[255];
 232              	 .loc 1 172 0
 233 012e 7B68     	 ldr r3,[r7,#4]
 234 0130 0F4A     	 ldr r2,.L17+36
 235 0132 9A60     	 str r2,[r3,#8]
 173:../Dave/Generated/CMSIS_DSP/TransformFunctions/arm_cfft_radix2_init_q31.c ****     break;
 236              	 .loc 1 173 0
 237 0134 02E0     	 b .L15
 238              	.L2:
 174:../Dave/Generated/CMSIS_DSP/TransformFunctions/arm_cfft_radix2_init_q31.c **** 
 175:../Dave/Generated/CMSIS_DSP/TransformFunctions/arm_cfft_radix2_init_q31.c **** 
 176:../Dave/Generated/CMSIS_DSP/TransformFunctions/arm_cfft_radix2_init_q31.c ****   default:
 177:../Dave/Generated/CMSIS_DSP/TransformFunctions/arm_cfft_radix2_init_q31.c ****     /*  Reporting argument error if fftSize is not valid value */
 178:../Dave/Generated/CMSIS_DSP/TransformFunctions/arm_cfft_radix2_init_q31.c ****     status = ARM_MATH_ARGUMENT_ERROR;
 239              	 .loc 1 178 0
 240 0136 FF23     	 movs r3,#255
 241 0138 FB73     	 strb r3,[r7,#15]
 179:../Dave/Generated/CMSIS_DSP/TransformFunctions/arm_cfft_radix2_init_q31.c ****     break;
 242              	 .loc 1 179 0
 243 013a 00BF     	 nop
 244              	.L15:
 180:../Dave/Generated/CMSIS_DSP/TransformFunctions/arm_cfft_radix2_init_q31.c ****   }
 181:../Dave/Generated/CMSIS_DSP/TransformFunctions/arm_cfft_radix2_init_q31.c **** 
 182:../Dave/Generated/CMSIS_DSP/TransformFunctions/arm_cfft_radix2_init_q31.c ****   return (status);
 245              	 .loc 1 182 0
 246 013c FB7B     	 ldrb r3,[r7,#15]
 247 013e 5BB2     	 sxtb r3,r3
 183:../Dave/Generated/CMSIS_DSP/TransformFunctions/arm_cfft_radix2_init_q31.c **** }
 248              	 .loc 1 183 0
 249 0140 1846     	 mov r0,r3
 250 0142 1437     	 adds r7,r7,#20
 251              	.LCFI3:
 252              	 .cfi_def_cfa_offset 4
 253 0144 BD46     	 mov sp,r7
 254              	.LCFI4:
 255              	 .cfi_def_cfa_register 13
 256              	 
 257 0146 5DF8047B 	 ldr r7,[sp],#4
 258              	.LCFI5:
 259              	 .cfi_restore 7
 260              	 .cfi_def_cfa_offset 0
 261 014a 7047     	 bx lr
 262              	.L18:
 263              	 .align 2
 264              	.L17:
 265 014c 00000000 	 .word twiddleCoef_4096_q31
 266 0150 00000000 	 .word armBitRevTable
 267 0154 02000000 	 .word armBitRevTable+2
 268 0158 06000000 	 .word armBitRevTable+6
 269 015c 0E000000 	 .word armBitRevTable+14
 270 0160 1E000000 	 .word armBitRevTable+30
 271 0164 3E000000 	 .word armBitRevTable+62
 272 0168 7E000000 	 .word armBitRevTable+126
 273 016c FE000000 	 .word armBitRevTable+254
 274 0170 FE010000 	 .word armBitRevTable+510
 275              	 .cfi_endproc
 276              	.LFE139:
 278              	 .text
 279              	.Letext0:
 280              	 .file 2 "c:\\davev4-64bit\\dave-4.2.6\\eclipse\\arm-gcc-49\\arm-none-eabi\\include\\machine\\_default_types.h"
 281              	 .file 3 "c:\\davev4-64bit\\dave-4.2.6\\eclipse\\arm-gcc-49\\arm-none-eabi\\include\\stdint.h"
 282              	 .file 4 "C:\\Users\\Depes Crystalline\\Desktop\\school\\Active_Bike_Lighting_System\\Radar_Core\\Dave\\Generated/CMSIS_DSP/arm_math.h"
 283              	 .file 5 "C:\\Users\\Depes Crystalline\\Desktop\\school\\Active_Bike_Lighting_System\\Radar_Core\\Dave\\Generated/CMSIS_DSP/arm_common_tables.h"