   1              	 .syntax unified
   2              	 .cpu cortex-m4
   3              	 .fpu softvfp
   4              	 .eabi_attribute 20,1
   5              	 .eabi_attribute 21,1
   6              	 .eabi_attribute 23,3
   7              	 .eabi_attribute 24,1
   8              	 .eabi_attribute 25,1
   9              	 .eabi_attribute 26,1
  10              	 .eabi_attribute 30,6
  11              	 .eabi_attribute 34,1
  12              	 .eabi_attribute 18,4
  13              	 .thumb
  14              	 .file "arm_cfft_radix4_q15.c"
  15              	 .text
  16              	.Ltext0:
  17              	 .cfi_sections .debug_frame
  18              	 .section .text.arm_cfft_radix4_q15,"ax",%progbits
  19              	 .align 2
  20              	 .global arm_cfft_radix4_q15
  21              	 .thumb
  22              	 .thumb_func
  24              	arm_cfft_radix4_q15:
  25              	.LFB139:
  26              	 .file 1 "../Dave/Generated/CMSIS_DSP/TransformFunctions/arm_cfft_radix4_q15.c"
   1:../Dave/Generated/CMSIS_DSP/TransformFunctions/arm_cfft_radix4_q15.c **** /* ----------------------------------------------------------------------    
   2:../Dave/Generated/CMSIS_DSP/TransformFunctions/arm_cfft_radix4_q15.c **** * Copyright (C) 2010-2014 ARM Limited. All rights reserved.    
   3:../Dave/Generated/CMSIS_DSP/TransformFunctions/arm_cfft_radix4_q15.c **** *    
   4:../Dave/Generated/CMSIS_DSP/TransformFunctions/arm_cfft_radix4_q15.c **** * $Date:        31. July 2014 
   5:../Dave/Generated/CMSIS_DSP/TransformFunctions/arm_cfft_radix4_q15.c **** * $Revision: 	V1.4.4  
   6:../Dave/Generated/CMSIS_DSP/TransformFunctions/arm_cfft_radix4_q15.c **** *    
   7:../Dave/Generated/CMSIS_DSP/TransformFunctions/arm_cfft_radix4_q15.c **** * Project: 	    CMSIS DSP Library    
   8:../Dave/Generated/CMSIS_DSP/TransformFunctions/arm_cfft_radix4_q15.c **** * Title:	    arm_cfft_radix4_q15.c    
   9:../Dave/Generated/CMSIS_DSP/TransformFunctions/arm_cfft_radix4_q15.c **** *    
  10:../Dave/Generated/CMSIS_DSP/TransformFunctions/arm_cfft_radix4_q15.c **** * Description:	This file has function definition of Radix-4 FFT & IFFT function and    
  11:../Dave/Generated/CMSIS_DSP/TransformFunctions/arm_cfft_radix4_q15.c **** *				In-place bit reversal using bit reversal table    
  12:../Dave/Generated/CMSIS_DSP/TransformFunctions/arm_cfft_radix4_q15.c **** *    
  13:../Dave/Generated/CMSIS_DSP/TransformFunctions/arm_cfft_radix4_q15.c **** * Target Processor: Cortex-M4/Cortex-M3/Cortex-M0
  14:../Dave/Generated/CMSIS_DSP/TransformFunctions/arm_cfft_radix4_q15.c **** *  
  15:../Dave/Generated/CMSIS_DSP/TransformFunctions/arm_cfft_radix4_q15.c **** * Redistribution and use in source and binary forms, with or without 
  16:../Dave/Generated/CMSIS_DSP/TransformFunctions/arm_cfft_radix4_q15.c **** * modification, are permitted provided that the following conditions
  17:../Dave/Generated/CMSIS_DSP/TransformFunctions/arm_cfft_radix4_q15.c **** * are met:
  18:../Dave/Generated/CMSIS_DSP/TransformFunctions/arm_cfft_radix4_q15.c **** *   - Redistributions of source code must retain the above copyright
  19:../Dave/Generated/CMSIS_DSP/TransformFunctions/arm_cfft_radix4_q15.c **** *     notice, this list of conditions and the following disclaimer.
  20:../Dave/Generated/CMSIS_DSP/TransformFunctions/arm_cfft_radix4_q15.c **** *   - Redistributions in binary form must reproduce the above copyright
  21:../Dave/Generated/CMSIS_DSP/TransformFunctions/arm_cfft_radix4_q15.c **** *     notice, this list of conditions and the following disclaimer in
  22:../Dave/Generated/CMSIS_DSP/TransformFunctions/arm_cfft_radix4_q15.c **** *     the documentation and/or other materials provided with the 
  23:../Dave/Generated/CMSIS_DSP/TransformFunctions/arm_cfft_radix4_q15.c **** *     distribution.
  24:../Dave/Generated/CMSIS_DSP/TransformFunctions/arm_cfft_radix4_q15.c **** *   - Neither the name of ARM LIMITED nor the names of its contributors
  25:../Dave/Generated/CMSIS_DSP/TransformFunctions/arm_cfft_radix4_q15.c **** *     may be used to endorse or promote products derived from this
  26:../Dave/Generated/CMSIS_DSP/TransformFunctions/arm_cfft_radix4_q15.c **** *     software without specific prior written permission.
  27:../Dave/Generated/CMSIS_DSP/TransformFunctions/arm_cfft_radix4_q15.c **** *
  28:../Dave/Generated/CMSIS_DSP/TransformFunctions/arm_cfft_radix4_q15.c **** * THIS SOFTWARE IS PROVIDED BY THE COPYRIGHT HOLDERS AND CONTRIBUTORS
  29:../Dave/Generated/CMSIS_DSP/TransformFunctions/arm_cfft_radix4_q15.c **** * "AS IS" AND ANY EXPRESS OR IMPLIED WARRANTIES, INCLUDING, BUT NOT
  30:../Dave/Generated/CMSIS_DSP/TransformFunctions/arm_cfft_radix4_q15.c **** * LIMITED TO, THE IMPLIED WARRANTIES OF MERCHANTABILITY AND FITNESS
  31:../Dave/Generated/CMSIS_DSP/TransformFunctions/arm_cfft_radix4_q15.c **** * FOR A PARTICULAR PURPOSE ARE DISCLAIMED. IN NO EVENT SHALL THE 
  32:../Dave/Generated/CMSIS_DSP/TransformFunctions/arm_cfft_radix4_q15.c **** * COPYRIGHT OWNER OR CONTRIBUTORS BE LIABLE FOR ANY DIRECT, INDIRECT,
  33:../Dave/Generated/CMSIS_DSP/TransformFunctions/arm_cfft_radix4_q15.c **** * INCIDENTAL, SPECIAL, EXEMPLARY, OR CONSEQUENTIAL DAMAGES (INCLUDING,
  34:../Dave/Generated/CMSIS_DSP/TransformFunctions/arm_cfft_radix4_q15.c **** * BUT NOT LIMITED TO, PROCUREMENT OF SUBSTITUTE GOODS OR SERVICES;
  35:../Dave/Generated/CMSIS_DSP/TransformFunctions/arm_cfft_radix4_q15.c **** * LOSS OF USE, DATA, OR PROFITS; OR BUSINESS INTERRUPTION) HOWEVER
  36:../Dave/Generated/CMSIS_DSP/TransformFunctions/arm_cfft_radix4_q15.c **** * CAUSED AND ON ANY THEORY OF LIABILITY, WHETHER IN CONTRACT, STRICT
  37:../Dave/Generated/CMSIS_DSP/TransformFunctions/arm_cfft_radix4_q15.c **** * LIABILITY, OR TORT (INCLUDING NEGLIGENCE OR OTHERWISE) ARISING IN
  38:../Dave/Generated/CMSIS_DSP/TransformFunctions/arm_cfft_radix4_q15.c **** * ANY WAY OUT OF THE USE OF THIS SOFTWARE, EVEN IF ADVISED OF THE
  39:../Dave/Generated/CMSIS_DSP/TransformFunctions/arm_cfft_radix4_q15.c **** * POSSIBILITY OF SUCH DAMAGE.     
  40:../Dave/Generated/CMSIS_DSP/TransformFunctions/arm_cfft_radix4_q15.c **** * -------------------------------------------------------------------- */
  41:../Dave/Generated/CMSIS_DSP/TransformFunctions/arm_cfft_radix4_q15.c **** 
  42:../Dave/Generated/CMSIS_DSP/TransformFunctions/arm_cfft_radix4_q15.c **** #include "CMSIS_DSP/cmsis_dsp.h"
  43:../Dave/Generated/CMSIS_DSP/TransformFunctions/arm_cfft_radix4_q15.c **** 
  44:../Dave/Generated/CMSIS_DSP/TransformFunctions/arm_cfft_radix4_q15.c **** 
  45:../Dave/Generated/CMSIS_DSP/TransformFunctions/arm_cfft_radix4_q15.c **** void arm_radix4_butterfly_q15(
  46:../Dave/Generated/CMSIS_DSP/TransformFunctions/arm_cfft_radix4_q15.c ****   q15_t * pSrc16,
  47:../Dave/Generated/CMSIS_DSP/TransformFunctions/arm_cfft_radix4_q15.c ****   uint32_t fftLen,
  48:../Dave/Generated/CMSIS_DSP/TransformFunctions/arm_cfft_radix4_q15.c ****   q15_t * pCoef16,
  49:../Dave/Generated/CMSIS_DSP/TransformFunctions/arm_cfft_radix4_q15.c ****   uint32_t twidCoefModifier);
  50:../Dave/Generated/CMSIS_DSP/TransformFunctions/arm_cfft_radix4_q15.c **** 
  51:../Dave/Generated/CMSIS_DSP/TransformFunctions/arm_cfft_radix4_q15.c **** void arm_radix4_butterfly_inverse_q15(
  52:../Dave/Generated/CMSIS_DSP/TransformFunctions/arm_cfft_radix4_q15.c ****   q15_t * pSrc16,
  53:../Dave/Generated/CMSIS_DSP/TransformFunctions/arm_cfft_radix4_q15.c ****   uint32_t fftLen,
  54:../Dave/Generated/CMSIS_DSP/TransformFunctions/arm_cfft_radix4_q15.c ****   q15_t * pCoef16,
  55:../Dave/Generated/CMSIS_DSP/TransformFunctions/arm_cfft_radix4_q15.c ****   uint32_t twidCoefModifier);
  56:../Dave/Generated/CMSIS_DSP/TransformFunctions/arm_cfft_radix4_q15.c **** 
  57:../Dave/Generated/CMSIS_DSP/TransformFunctions/arm_cfft_radix4_q15.c **** void arm_bitreversal_q15(
  58:../Dave/Generated/CMSIS_DSP/TransformFunctions/arm_cfft_radix4_q15.c ****   q15_t * pSrc,
  59:../Dave/Generated/CMSIS_DSP/TransformFunctions/arm_cfft_radix4_q15.c ****   uint32_t fftLen,
  60:../Dave/Generated/CMSIS_DSP/TransformFunctions/arm_cfft_radix4_q15.c ****   uint16_t bitRevFactor,
  61:../Dave/Generated/CMSIS_DSP/TransformFunctions/arm_cfft_radix4_q15.c ****   uint16_t * pBitRevTab);
  62:../Dave/Generated/CMSIS_DSP/TransformFunctions/arm_cfft_radix4_q15.c **** 
  63:../Dave/Generated/CMSIS_DSP/TransformFunctions/arm_cfft_radix4_q15.c **** /**    
  64:../Dave/Generated/CMSIS_DSP/TransformFunctions/arm_cfft_radix4_q15.c ****  * @ingroup groupTransforms    
  65:../Dave/Generated/CMSIS_DSP/TransformFunctions/arm_cfft_radix4_q15.c ****  */
  66:../Dave/Generated/CMSIS_DSP/TransformFunctions/arm_cfft_radix4_q15.c **** 
  67:../Dave/Generated/CMSIS_DSP/TransformFunctions/arm_cfft_radix4_q15.c **** /**    
  68:../Dave/Generated/CMSIS_DSP/TransformFunctions/arm_cfft_radix4_q15.c ****  * @addtogroup ComplexFFT    
  69:../Dave/Generated/CMSIS_DSP/TransformFunctions/arm_cfft_radix4_q15.c ****  * @{    
  70:../Dave/Generated/CMSIS_DSP/TransformFunctions/arm_cfft_radix4_q15.c ****  */
  71:../Dave/Generated/CMSIS_DSP/TransformFunctions/arm_cfft_radix4_q15.c **** 
  72:../Dave/Generated/CMSIS_DSP/TransformFunctions/arm_cfft_radix4_q15.c **** 
  73:../Dave/Generated/CMSIS_DSP/TransformFunctions/arm_cfft_radix4_q15.c **** /**    
  74:../Dave/Generated/CMSIS_DSP/TransformFunctions/arm_cfft_radix4_q15.c ****  * @details    
  75:../Dave/Generated/CMSIS_DSP/TransformFunctions/arm_cfft_radix4_q15.c ****  * @brief Processing function for the Q15 CFFT/CIFFT.   
  76:../Dave/Generated/CMSIS_DSP/TransformFunctions/arm_cfft_radix4_q15.c ****  * @deprecated Do not use this function.  It has been superseded by \ref arm_cfft_q15 and will be r
  77:../Dave/Generated/CMSIS_DSP/TransformFunctions/arm_cfft_radix4_q15.c ****  * @param[in]      *S    points to an instance of the Q15 CFFT/CIFFT structure.   
  78:../Dave/Generated/CMSIS_DSP/TransformFunctions/arm_cfft_radix4_q15.c ****  * @param[in, out] *pSrc points to the complex data buffer. Processing occurs in-place.   
  79:../Dave/Generated/CMSIS_DSP/TransformFunctions/arm_cfft_radix4_q15.c ****  * @return none.   
  80:../Dave/Generated/CMSIS_DSP/TransformFunctions/arm_cfft_radix4_q15.c ****  *     
  81:../Dave/Generated/CMSIS_DSP/TransformFunctions/arm_cfft_radix4_q15.c ****  * \par Input and output formats:    
  82:../Dave/Generated/CMSIS_DSP/TransformFunctions/arm_cfft_radix4_q15.c ****  * \par    
  83:../Dave/Generated/CMSIS_DSP/TransformFunctions/arm_cfft_radix4_q15.c ****  * Internally input is downscaled by 2 for every stage to avoid saturations inside CFFT/CIFFT proce
  84:../Dave/Generated/CMSIS_DSP/TransformFunctions/arm_cfft_radix4_q15.c ****  * Hence the output format is different for different FFT sizes.    
  85:../Dave/Generated/CMSIS_DSP/TransformFunctions/arm_cfft_radix4_q15.c ****  * The input and output formats for different FFT sizes and number of bits to upscale are mentioned
  86:../Dave/Generated/CMSIS_DSP/TransformFunctions/arm_cfft_radix4_q15.c ****  * \par   
  87:../Dave/Generated/CMSIS_DSP/TransformFunctions/arm_cfft_radix4_q15.c ****  * \image html CFFTQ15.gif "Input and Output Formats for Q15 CFFT"    
  88:../Dave/Generated/CMSIS_DSP/TransformFunctions/arm_cfft_radix4_q15.c ****  * \image html CIFFTQ15.gif "Input and Output Formats for Q15 CIFFT"    
  89:../Dave/Generated/CMSIS_DSP/TransformFunctions/arm_cfft_radix4_q15.c ****  */
  90:../Dave/Generated/CMSIS_DSP/TransformFunctions/arm_cfft_radix4_q15.c **** 
  91:../Dave/Generated/CMSIS_DSP/TransformFunctions/arm_cfft_radix4_q15.c **** void arm_cfft_radix4_q15(
  92:../Dave/Generated/CMSIS_DSP/TransformFunctions/arm_cfft_radix4_q15.c ****   const arm_cfft_radix4_instance_q15 * S,
  93:../Dave/Generated/CMSIS_DSP/TransformFunctions/arm_cfft_radix4_q15.c ****   q15_t * pSrc)
  94:../Dave/Generated/CMSIS_DSP/TransformFunctions/arm_cfft_radix4_q15.c **** {
  27              	 .loc 1 94 0
  28              	 .cfi_startproc
  29              	 
  30              	 
  31 0000 80B5     	 push {r7,lr}
  32              	.LCFI0:
  33              	 .cfi_def_cfa_offset 8
  34              	 .cfi_offset 7,-8
  35              	 .cfi_offset 14,-4
  36 0002 82B0     	 sub sp,sp,#8
  37              	.LCFI1:
  38              	 .cfi_def_cfa_offset 16
  39 0004 00AF     	 add r7,sp,#0
  40              	.LCFI2:
  41              	 .cfi_def_cfa_register 7
  42 0006 7860     	 str r0,[r7,#4]
  43 0008 3960     	 str r1,[r7]
  95:../Dave/Generated/CMSIS_DSP/TransformFunctions/arm_cfft_radix4_q15.c ****   if(S->ifftFlag == 1u)
  44              	 .loc 1 95 0
  45 000a 7B68     	 ldr r3,[r7,#4]
  46 000c 9B78     	 ldrb r3,[r3,#2]
  47 000e 012B     	 cmp r3,#1
  48 0010 0AD1     	 bne .L2
  96:../Dave/Generated/CMSIS_DSP/TransformFunctions/arm_cfft_radix4_q15.c ****   {
  97:../Dave/Generated/CMSIS_DSP/TransformFunctions/arm_cfft_radix4_q15.c ****     /*  Complex IFFT radix-4  */
  98:../Dave/Generated/CMSIS_DSP/TransformFunctions/arm_cfft_radix4_q15.c ****     arm_radix4_butterfly_inverse_q15(pSrc, S->fftLen, S->pTwiddle,
  49              	 .loc 1 98 0
  50 0012 7B68     	 ldr r3,[r7,#4]
  51 0014 1B88     	 ldrh r3,[r3]
  52 0016 1946     	 mov r1,r3
  53 0018 7B68     	 ldr r3,[r7,#4]
  54 001a 5A68     	 ldr r2,[r3,#4]
  99:../Dave/Generated/CMSIS_DSP/TransformFunctions/arm_cfft_radix4_q15.c ****                                      S->twidCoefModifier);
  55              	 .loc 1 99 0
  56 001c 7B68     	 ldr r3,[r7,#4]
  57 001e 9B89     	 ldrh r3,[r3,#12]
  98:../Dave/Generated/CMSIS_DSP/TransformFunctions/arm_cfft_radix4_q15.c ****                                      S->twidCoefModifier);
  58              	 .loc 1 98 0
  59 0020 3868     	 ldr r0,[r7]
  60 0022 FFF7FEFF 	 bl arm_radix4_butterfly_inverse_q15
  61 0026 09E0     	 b .L3
  62              	.L2:
 100:../Dave/Generated/CMSIS_DSP/TransformFunctions/arm_cfft_radix4_q15.c ****   }
 101:../Dave/Generated/CMSIS_DSP/TransformFunctions/arm_cfft_radix4_q15.c ****   else
 102:../Dave/Generated/CMSIS_DSP/TransformFunctions/arm_cfft_radix4_q15.c ****   {
 103:../Dave/Generated/CMSIS_DSP/TransformFunctions/arm_cfft_radix4_q15.c ****     /*  Complex FFT radix-4  */
 104:../Dave/Generated/CMSIS_DSP/TransformFunctions/arm_cfft_radix4_q15.c ****     arm_radix4_butterfly_q15(pSrc, S->fftLen, S->pTwiddle,
  63              	 .loc 1 104 0
  64 0028 7B68     	 ldr r3,[r7,#4]
  65 002a 1B88     	 ldrh r3,[r3]
  66 002c 1946     	 mov r1,r3
  67 002e 7B68     	 ldr r3,[r7,#4]
  68 0030 5A68     	 ldr r2,[r3,#4]
 105:../Dave/Generated/CMSIS_DSP/TransformFunctions/arm_cfft_radix4_q15.c ****                              S->twidCoefModifier);
  69              	 .loc 1 105 0
  70 0032 7B68     	 ldr r3,[r7,#4]
  71 0034 9B89     	 ldrh r3,[r3,#12]
 104:../Dave/Generated/CMSIS_DSP/TransformFunctions/arm_cfft_radix4_q15.c ****                              S->twidCoefModifier);
  72              	 .loc 1 104 0
  73 0036 3868     	 ldr r0,[r7]
  74 0038 FFF7FEFF 	 bl arm_radix4_butterfly_q15
  75              	.L3:
 106:../Dave/Generated/CMSIS_DSP/TransformFunctions/arm_cfft_radix4_q15.c ****   }
 107:../Dave/Generated/CMSIS_DSP/TransformFunctions/arm_cfft_radix4_q15.c **** 
 108:../Dave/Generated/CMSIS_DSP/TransformFunctions/arm_cfft_radix4_q15.c ****   if(S->bitReverseFlag == 1u)
  76              	 .loc 1 108 0
  77 003c 7B68     	 ldr r3,[r7,#4]
  78 003e DB78     	 ldrb r3,[r3,#3]
  79 0040 012B     	 cmp r3,#1
  80 0042 09D1     	 bne .L1
 109:../Dave/Generated/CMSIS_DSP/TransformFunctions/arm_cfft_radix4_q15.c ****   {
 110:../Dave/Generated/CMSIS_DSP/TransformFunctions/arm_cfft_radix4_q15.c ****     /*  Bit Reversal */
 111:../Dave/Generated/CMSIS_DSP/TransformFunctions/arm_cfft_radix4_q15.c ****     arm_bitreversal_q15(pSrc, S->fftLen, S->bitRevFactor, S->pBitRevTable);
  81              	 .loc 1 111 0
  82 0044 7B68     	 ldr r3,[r7,#4]
  83 0046 1B88     	 ldrh r3,[r3]
  84 0048 1946     	 mov r1,r3
  85 004a 7B68     	 ldr r3,[r7,#4]
  86 004c DA89     	 ldrh r2,[r3,#14]
  87 004e 7B68     	 ldr r3,[r7,#4]
  88 0050 9B68     	 ldr r3,[r3,#8]
  89 0052 3868     	 ldr r0,[r7]
  90 0054 FFF7FEFF 	 bl arm_bitreversal_q15
  91              	.L1:
 112:../Dave/Generated/CMSIS_DSP/TransformFunctions/arm_cfft_radix4_q15.c ****   }
 113:../Dave/Generated/CMSIS_DSP/TransformFunctions/arm_cfft_radix4_q15.c **** 
 114:../Dave/Generated/CMSIS_DSP/TransformFunctions/arm_cfft_radix4_q15.c **** }
  92              	 .loc 1 114 0
  93 0058 0837     	 adds r7,r7,#8
  94              	.LCFI3:
  95              	 .cfi_def_cfa_offset 8
  96 005a BD46     	 mov sp,r7
  97              	.LCFI4:
  98              	 .cfi_def_cfa_register 13
  99              	 
 100 005c 80BD     	 pop {r7,pc}
 101              	 .cfi_endproc
 102              	.LFE139:
 104 005e 00BF     	 .section .text.arm_radix4_butterfly_q15,"ax",%progbits
 105              	 .align 2
 106              	 .global arm_radix4_butterfly_q15
 107              	 .thumb
 108              	 .thumb_func
 110              	arm_radix4_butterfly_q15:
 111              	.LFB140:
 115:../Dave/Generated/CMSIS_DSP/TransformFunctions/arm_cfft_radix4_q15.c **** 
 116:../Dave/Generated/CMSIS_DSP/TransformFunctions/arm_cfft_radix4_q15.c **** /**    
 117:../Dave/Generated/CMSIS_DSP/TransformFunctions/arm_cfft_radix4_q15.c ****  * @} end of ComplexFFT group    
 118:../Dave/Generated/CMSIS_DSP/TransformFunctions/arm_cfft_radix4_q15.c ****  */
 119:../Dave/Generated/CMSIS_DSP/TransformFunctions/arm_cfft_radix4_q15.c **** 
 120:../Dave/Generated/CMSIS_DSP/TransformFunctions/arm_cfft_radix4_q15.c **** /*    
 121:../Dave/Generated/CMSIS_DSP/TransformFunctions/arm_cfft_radix4_q15.c **** * Radix-4 FFT algorithm used is :    
 122:../Dave/Generated/CMSIS_DSP/TransformFunctions/arm_cfft_radix4_q15.c **** *    
 123:../Dave/Generated/CMSIS_DSP/TransformFunctions/arm_cfft_radix4_q15.c **** * Input real and imaginary data:    
 124:../Dave/Generated/CMSIS_DSP/TransformFunctions/arm_cfft_radix4_q15.c **** * x(n) = xa + j * ya    
 125:../Dave/Generated/CMSIS_DSP/TransformFunctions/arm_cfft_radix4_q15.c **** * x(n+N/4 ) = xb + j * yb    
 126:../Dave/Generated/CMSIS_DSP/TransformFunctions/arm_cfft_radix4_q15.c **** * x(n+N/2 ) = xc + j * yc    
 127:../Dave/Generated/CMSIS_DSP/TransformFunctions/arm_cfft_radix4_q15.c **** * x(n+3N 4) = xd + j * yd    
 128:../Dave/Generated/CMSIS_DSP/TransformFunctions/arm_cfft_radix4_q15.c **** *    
 129:../Dave/Generated/CMSIS_DSP/TransformFunctions/arm_cfft_radix4_q15.c **** *    
 130:../Dave/Generated/CMSIS_DSP/TransformFunctions/arm_cfft_radix4_q15.c **** * Output real and imaginary data:    
 131:../Dave/Generated/CMSIS_DSP/TransformFunctions/arm_cfft_radix4_q15.c **** * x(4r) = xa'+ j * ya'    
 132:../Dave/Generated/CMSIS_DSP/TransformFunctions/arm_cfft_radix4_q15.c **** * x(4r+1) = xb'+ j * yb'    
 133:../Dave/Generated/CMSIS_DSP/TransformFunctions/arm_cfft_radix4_q15.c **** * x(4r+2) = xc'+ j * yc'    
 134:../Dave/Generated/CMSIS_DSP/TransformFunctions/arm_cfft_radix4_q15.c **** * x(4r+3) = xd'+ j * yd'    
 135:../Dave/Generated/CMSIS_DSP/TransformFunctions/arm_cfft_radix4_q15.c **** *    
 136:../Dave/Generated/CMSIS_DSP/TransformFunctions/arm_cfft_radix4_q15.c **** *    
 137:../Dave/Generated/CMSIS_DSP/TransformFunctions/arm_cfft_radix4_q15.c **** * Twiddle factors for radix-4 FFT:    
 138:../Dave/Generated/CMSIS_DSP/TransformFunctions/arm_cfft_radix4_q15.c **** * Wn = co1 + j * (- si1)    
 139:../Dave/Generated/CMSIS_DSP/TransformFunctions/arm_cfft_radix4_q15.c **** * W2n = co2 + j * (- si2)    
 140:../Dave/Generated/CMSIS_DSP/TransformFunctions/arm_cfft_radix4_q15.c **** * W3n = co3 + j * (- si3)    
 141:../Dave/Generated/CMSIS_DSP/TransformFunctions/arm_cfft_radix4_q15.c ****     
 142:../Dave/Generated/CMSIS_DSP/TransformFunctions/arm_cfft_radix4_q15.c **** * The real and imaginary output values for the radix-4 butterfly are    
 143:../Dave/Generated/CMSIS_DSP/TransformFunctions/arm_cfft_radix4_q15.c **** * xa' = xa + xb + xc + xd    
 144:../Dave/Generated/CMSIS_DSP/TransformFunctions/arm_cfft_radix4_q15.c **** * ya' = ya + yb + yc + yd    
 145:../Dave/Generated/CMSIS_DSP/TransformFunctions/arm_cfft_radix4_q15.c **** * xb' = (xa+yb-xc-yd)* co1 + (ya-xb-yc+xd)* (si1)    
 146:../Dave/Generated/CMSIS_DSP/TransformFunctions/arm_cfft_radix4_q15.c **** * yb' = (ya-xb-yc+xd)* co1 - (xa+yb-xc-yd)* (si1)    
 147:../Dave/Generated/CMSIS_DSP/TransformFunctions/arm_cfft_radix4_q15.c **** * xc' = (xa-xb+xc-xd)* co2 + (ya-yb+yc-yd)* (si2)    
 148:../Dave/Generated/CMSIS_DSP/TransformFunctions/arm_cfft_radix4_q15.c **** * yc' = (ya-yb+yc-yd)* co2 - (xa-xb+xc-xd)* (si2)    
 149:../Dave/Generated/CMSIS_DSP/TransformFunctions/arm_cfft_radix4_q15.c **** * xd' = (xa-yb-xc+yd)* co3 + (ya+xb-yc-xd)* (si3)    
 150:../Dave/Generated/CMSIS_DSP/TransformFunctions/arm_cfft_radix4_q15.c **** * yd' = (ya+xb-yc-xd)* co3 - (xa-yb-xc+yd)* (si3)    
 151:../Dave/Generated/CMSIS_DSP/TransformFunctions/arm_cfft_radix4_q15.c **** *    
 152:../Dave/Generated/CMSIS_DSP/TransformFunctions/arm_cfft_radix4_q15.c **** */
 153:../Dave/Generated/CMSIS_DSP/TransformFunctions/arm_cfft_radix4_q15.c **** 
 154:../Dave/Generated/CMSIS_DSP/TransformFunctions/arm_cfft_radix4_q15.c **** /**    
 155:../Dave/Generated/CMSIS_DSP/TransformFunctions/arm_cfft_radix4_q15.c ****  * @brief  Core function for the Q15 CFFT butterfly process.   
 156:../Dave/Generated/CMSIS_DSP/TransformFunctions/arm_cfft_radix4_q15.c ****  * @param[in, out] *pSrc16          points to the in-place buffer of Q15 data type.   
 157:../Dave/Generated/CMSIS_DSP/TransformFunctions/arm_cfft_radix4_q15.c ****  * @param[in]      fftLen           length of the FFT.   
 158:../Dave/Generated/CMSIS_DSP/TransformFunctions/arm_cfft_radix4_q15.c ****  * @param[in]      *pCoef16         points to twiddle coefficient buffer.   
 159:../Dave/Generated/CMSIS_DSP/TransformFunctions/arm_cfft_radix4_q15.c ****  * @param[in]      twidCoefModifier twiddle coefficient modifier that supports different size FFTs 
 160:../Dave/Generated/CMSIS_DSP/TransformFunctions/arm_cfft_radix4_q15.c ****  * @return none.   
 161:../Dave/Generated/CMSIS_DSP/TransformFunctions/arm_cfft_radix4_q15.c ****  */
 162:../Dave/Generated/CMSIS_DSP/TransformFunctions/arm_cfft_radix4_q15.c **** 
 163:../Dave/Generated/CMSIS_DSP/TransformFunctions/arm_cfft_radix4_q15.c **** void arm_radix4_butterfly_q15(
 164:../Dave/Generated/CMSIS_DSP/TransformFunctions/arm_cfft_radix4_q15.c ****   q15_t * pSrc16,
 165:../Dave/Generated/CMSIS_DSP/TransformFunctions/arm_cfft_radix4_q15.c ****   uint32_t fftLen,
 166:../Dave/Generated/CMSIS_DSP/TransformFunctions/arm_cfft_radix4_q15.c ****   q15_t * pCoef16,
 167:../Dave/Generated/CMSIS_DSP/TransformFunctions/arm_cfft_radix4_q15.c ****   uint32_t twidCoefModifier)
 168:../Dave/Generated/CMSIS_DSP/TransformFunctions/arm_cfft_radix4_q15.c **** {
 112              	 .loc 1 168 0
 113              	 .cfi_startproc
 114              	 
 115              	 
 116              	 
 117 0000 90B4     	 push {r4,r7}
 118              	.LCFI5:
 119              	 .cfi_def_cfa_offset 8
 120              	 .cfi_offset 4,-8
 121              	 .cfi_offset 7,-4
 122 0002 ADF5327D 	 sub sp,sp,#712
 123              	.LCFI6:
 124              	 .cfi_def_cfa_offset 720
 125 0006 00AF     	 add r7,sp,#0
 126              	.LCFI7:
 127              	 .cfi_def_cfa_register 7
 128 0008 07F10C04 	 add r4,r7,#12
 129 000c 2060     	 str r0,[r4]
 130 000e 07F10800 	 add r0,r7,#8
 131 0012 0160     	 str r1,[r0]
 132 0014 391D     	 adds r1,r7,#4
 133 0016 0A60     	 str r2,[r1]
 134 0018 3A46     	 mov r2,r7
 135 001a 1360     	 str r3,[r2]
 169:../Dave/Generated/CMSIS_DSP/TransformFunctions/arm_cfft_radix4_q15.c **** 
 170:../Dave/Generated/CMSIS_DSP/TransformFunctions/arm_cfft_radix4_q15.c **** #ifndef ARM_MATH_CM0_FAMILY
 171:../Dave/Generated/CMSIS_DSP/TransformFunctions/arm_cfft_radix4_q15.c **** 
 172:../Dave/Generated/CMSIS_DSP/TransformFunctions/arm_cfft_radix4_q15.c ****   /* Run the below code for Cortex-M4 and Cortex-M3 */
 173:../Dave/Generated/CMSIS_DSP/TransformFunctions/arm_cfft_radix4_q15.c **** 
 174:../Dave/Generated/CMSIS_DSP/TransformFunctions/arm_cfft_radix4_q15.c ****   q31_t R, S, T, U;
 175:../Dave/Generated/CMSIS_DSP/TransformFunctions/arm_cfft_radix4_q15.c ****   q31_t C1, C2, C3, out1, out2;
 176:../Dave/Generated/CMSIS_DSP/TransformFunctions/arm_cfft_radix4_q15.c ****   uint32_t n1, n2, ic, i0, j, k;
 177:../Dave/Generated/CMSIS_DSP/TransformFunctions/arm_cfft_radix4_q15.c **** 
 178:../Dave/Generated/CMSIS_DSP/TransformFunctions/arm_cfft_radix4_q15.c ****   q15_t *ptr1;
 179:../Dave/Generated/CMSIS_DSP/TransformFunctions/arm_cfft_radix4_q15.c ****   q15_t *pSi0;
 180:../Dave/Generated/CMSIS_DSP/TransformFunctions/arm_cfft_radix4_q15.c ****   q15_t *pSi1;
 181:../Dave/Generated/CMSIS_DSP/TransformFunctions/arm_cfft_radix4_q15.c ****   q15_t *pSi2;
 182:../Dave/Generated/CMSIS_DSP/TransformFunctions/arm_cfft_radix4_q15.c ****   q15_t *pSi3;
 183:../Dave/Generated/CMSIS_DSP/TransformFunctions/arm_cfft_radix4_q15.c **** 
 184:../Dave/Generated/CMSIS_DSP/TransformFunctions/arm_cfft_radix4_q15.c ****   q31_t xaya, xbyb, xcyc, xdyd;
 185:../Dave/Generated/CMSIS_DSP/TransformFunctions/arm_cfft_radix4_q15.c **** 
 186:../Dave/Generated/CMSIS_DSP/TransformFunctions/arm_cfft_radix4_q15.c ****   /* Total process is divided into three stages */
 187:../Dave/Generated/CMSIS_DSP/TransformFunctions/arm_cfft_radix4_q15.c **** 
 188:../Dave/Generated/CMSIS_DSP/TransformFunctions/arm_cfft_radix4_q15.c ****   /* process first stage, middle stages, & last stage */
 189:../Dave/Generated/CMSIS_DSP/TransformFunctions/arm_cfft_radix4_q15.c **** 
 190:../Dave/Generated/CMSIS_DSP/TransformFunctions/arm_cfft_radix4_q15.c ****   /*  Initializations for the first stage */
 191:../Dave/Generated/CMSIS_DSP/TransformFunctions/arm_cfft_radix4_q15.c ****   n2 = fftLen;
 136              	 .loc 1 191 0
 137 001c 07F10803 	 add r3,r7,#8
 138 0020 1B68     	 ldr r3,[r3]
 139 0022 C7F8C432 	 str r3,[r7,#708]
 192:../Dave/Generated/CMSIS_DSP/TransformFunctions/arm_cfft_radix4_q15.c ****   n1 = n2;
 140              	 .loc 1 192 0
 141 0026 D7F8C432 	 ldr r3,[r7,#708]
 142 002a C7F8A032 	 str r3,[r7,#672]
 193:../Dave/Generated/CMSIS_DSP/TransformFunctions/arm_cfft_radix4_q15.c **** 
 194:../Dave/Generated/CMSIS_DSP/TransformFunctions/arm_cfft_radix4_q15.c ****   /* n2 = fftLen/4 */
 195:../Dave/Generated/CMSIS_DSP/TransformFunctions/arm_cfft_radix4_q15.c ****   n2 >>= 2u;
 143              	 .loc 1 195 0
 144 002e D7F8C432 	 ldr r3,[r7,#708]
 145 0032 9B08     	 lsrs r3,r3,#2
 146 0034 C7F8C432 	 str r3,[r7,#708]
 196:../Dave/Generated/CMSIS_DSP/TransformFunctions/arm_cfft_radix4_q15.c **** 
 197:../Dave/Generated/CMSIS_DSP/TransformFunctions/arm_cfft_radix4_q15.c ****   /* Index for twiddle coefficient */
 198:../Dave/Generated/CMSIS_DSP/TransformFunctions/arm_cfft_radix4_q15.c ****   ic = 0u;
 147              	 .loc 1 198 0
 148 0038 0023     	 movs r3,#0
 149 003a C7F8C032 	 str r3,[r7,#704]
 199:../Dave/Generated/CMSIS_DSP/TransformFunctions/arm_cfft_radix4_q15.c **** 
 200:../Dave/Generated/CMSIS_DSP/TransformFunctions/arm_cfft_radix4_q15.c ****   /* Index for input read and output write */
 201:../Dave/Generated/CMSIS_DSP/TransformFunctions/arm_cfft_radix4_q15.c ****   j = n2;
 150              	 .loc 1 201 0
 151 003e D7F8C432 	 ldr r3,[r7,#708]
 152 0042 C7F8B832 	 str r3,[r7,#696]
 202:../Dave/Generated/CMSIS_DSP/TransformFunctions/arm_cfft_radix4_q15.c ****   
 203:../Dave/Generated/CMSIS_DSP/TransformFunctions/arm_cfft_radix4_q15.c ****   pSi0 = pSrc16;
 153              	 .loc 1 203 0
 154 0046 07F10C03 	 add r3,r7,#12
 155 004a 1B68     	 ldr r3,[r3]
 156 004c C7F8B032 	 str r3,[r7,#688]
 204:../Dave/Generated/CMSIS_DSP/TransformFunctions/arm_cfft_radix4_q15.c ****   pSi1 = pSi0 + 2 * n2;
 157              	 .loc 1 204 0
 158 0050 D7F8C432 	 ldr r3,[r7,#708]
 159 0054 9B00     	 lsls r3,r3,#2
 160 0056 D7F8B022 	 ldr r2,[r7,#688]
 161 005a 1344     	 add r3,r3,r2
 162 005c C7F8AC32 	 str r3,[r7,#684]
 205:../Dave/Generated/CMSIS_DSP/TransformFunctions/arm_cfft_radix4_q15.c ****   pSi2 = pSi1 + 2 * n2;
 163              	 .loc 1 205 0
 164 0060 D7F8C432 	 ldr r3,[r7,#708]
 165 0064 9B00     	 lsls r3,r3,#2
 166 0066 D7F8AC22 	 ldr r2,[r7,#684]
 167 006a 1344     	 add r3,r3,r2
 168 006c C7F8A832 	 str r3,[r7,#680]
 206:../Dave/Generated/CMSIS_DSP/TransformFunctions/arm_cfft_radix4_q15.c ****   pSi3 = pSi2 + 2 * n2;
 169              	 .loc 1 206 0
 170 0070 D7F8C432 	 ldr r3,[r7,#708]
 171 0074 9B00     	 lsls r3,r3,#2
 172 0076 D7F8A822 	 ldr r2,[r7,#680]
 173 007a 1344     	 add r3,r3,r2
 174 007c C7F8A432 	 str r3,[r7,#676]
 175              	.L32:
 207:../Dave/Generated/CMSIS_DSP/TransformFunctions/arm_cfft_radix4_q15.c **** 
 208:../Dave/Generated/CMSIS_DSP/TransformFunctions/arm_cfft_radix4_q15.c ****   /* Input is in 1.15(q15) format */
 209:../Dave/Generated/CMSIS_DSP/TransformFunctions/arm_cfft_radix4_q15.c **** 
 210:../Dave/Generated/CMSIS_DSP/TransformFunctions/arm_cfft_radix4_q15.c ****   /*  start of first stage process */
 211:../Dave/Generated/CMSIS_DSP/TransformFunctions/arm_cfft_radix4_q15.c ****   do
 212:../Dave/Generated/CMSIS_DSP/TransformFunctions/arm_cfft_radix4_q15.c ****   {
 213:../Dave/Generated/CMSIS_DSP/TransformFunctions/arm_cfft_radix4_q15.c ****     /*  Butterfly implementation */
 214:../Dave/Generated/CMSIS_DSP/TransformFunctions/arm_cfft_radix4_q15.c **** 
 215:../Dave/Generated/CMSIS_DSP/TransformFunctions/arm_cfft_radix4_q15.c ****     /*  Reading i0, i0+fftLen/2 inputs */
 216:../Dave/Generated/CMSIS_DSP/TransformFunctions/arm_cfft_radix4_q15.c ****     /* Read ya (real), xa(imag) input */
 217:../Dave/Generated/CMSIS_DSP/TransformFunctions/arm_cfft_radix4_q15.c ****     T = _SIMD32_OFFSET(pSi0);
 176              	 .loc 1 217 0 discriminator 1
 177 0080 D7F8B032 	 ldr r3,[r7,#688]
 178 0084 1B68     	 ldr r3,[r3]
 179 0086 C7F89C32 	 str r3,[r7,#668]
 218:../Dave/Generated/CMSIS_DSP/TransformFunctions/arm_cfft_radix4_q15.c ****     T = __SHADD16(T, 0); // this is just a SIMD arithmetic shift right by 1
 180              	 .loc 1 218 0 discriminator 1
 181 008a D7F89C32 	 ldr r3,[r7,#668]
 182 008e C7F86832 	 str r3,[r7,#616]
 183 0092 0023     	 movs r3,#0
 184 0094 C7F86432 	 str r3,[r7,#612]
 185              	.LBB202:
 186              	.LBB203:
 187              	 .file 2 "C:\\Users\\Depes Crystalline\\Desktop\\school\\Active_Bike_Lighting_System\\Radar_Core/Libraries/CMSIS/Include/core_cmSimd.h"
   1:C:\Users\Depes Crystalline\Desktop\school\Active_Bike_Lighting_System\Radar_Core/Libraries/CMSIS/Include\core_cmSimd.h **** /**************************************************************************//**
   2:C:\Users\Depes Crystalline\Desktop\school\Active_Bike_Lighting_System\Radar_Core/Libraries/CMSIS/Include\core_cmSimd.h ****  * @file     core_cmSimd.h
   3:C:\Users\Depes Crystalline\Desktop\school\Active_Bike_Lighting_System\Radar_Core/Libraries/CMSIS/Include\core_cmSimd.h ****  * @brief    CMSIS Cortex-M SIMD Header File
   4:C:\Users\Depes Crystalline\Desktop\school\Active_Bike_Lighting_System\Radar_Core/Libraries/CMSIS/Include\core_cmSimd.h ****  * @version  V4.00
   5:C:\Users\Depes Crystalline\Desktop\school\Active_Bike_Lighting_System\Radar_Core/Libraries/CMSIS/Include\core_cmSimd.h ****  * @date     22. August 2014
   6:C:\Users\Depes Crystalline\Desktop\school\Active_Bike_Lighting_System\Radar_Core/Libraries/CMSIS/Include\core_cmSimd.h ****  *
   7:C:\Users\Depes Crystalline\Desktop\school\Active_Bike_Lighting_System\Radar_Core/Libraries/CMSIS/Include\core_cmSimd.h ****  * @note
   8:C:\Users\Depes Crystalline\Desktop\school\Active_Bike_Lighting_System\Radar_Core/Libraries/CMSIS/Include\core_cmSimd.h ****  *
   9:C:\Users\Depes Crystalline\Desktop\school\Active_Bike_Lighting_System\Radar_Core/Libraries/CMSIS/Include\core_cmSimd.h ****  ******************************************************************************/
  10:C:\Users\Depes Crystalline\Desktop\school\Active_Bike_Lighting_System\Radar_Core/Libraries/CMSIS/Include\core_cmSimd.h **** /* Copyright (c) 2009 - 2014 ARM LIMITED
  11:C:\Users\Depes Crystalline\Desktop\school\Active_Bike_Lighting_System\Radar_Core/Libraries/CMSIS/Include\core_cmSimd.h **** 
  12:C:\Users\Depes Crystalline\Desktop\school\Active_Bike_Lighting_System\Radar_Core/Libraries/CMSIS/Include\core_cmSimd.h ****    All rights reserved.
  13:C:\Users\Depes Crystalline\Desktop\school\Active_Bike_Lighting_System\Radar_Core/Libraries/CMSIS/Include\core_cmSimd.h ****    Redistribution and use in source and binary forms, with or without
  14:C:\Users\Depes Crystalline\Desktop\school\Active_Bike_Lighting_System\Radar_Core/Libraries/CMSIS/Include\core_cmSimd.h ****    modification, are permitted provided that the following conditions are met:
  15:C:\Users\Depes Crystalline\Desktop\school\Active_Bike_Lighting_System\Radar_Core/Libraries/CMSIS/Include\core_cmSimd.h ****    - Redistributions of source code must retain the above copyright
  16:C:\Users\Depes Crystalline\Desktop\school\Active_Bike_Lighting_System\Radar_Core/Libraries/CMSIS/Include\core_cmSimd.h ****      notice, this list of conditions and the following disclaimer.
  17:C:\Users\Depes Crystalline\Desktop\school\Active_Bike_Lighting_System\Radar_Core/Libraries/CMSIS/Include\core_cmSimd.h ****    - Redistributions in binary form must reproduce the above copyright
  18:C:\Users\Depes Crystalline\Desktop\school\Active_Bike_Lighting_System\Radar_Core/Libraries/CMSIS/Include\core_cmSimd.h ****      notice, this list of conditions and the following disclaimer in the
  19:C:\Users\Depes Crystalline\Desktop\school\Active_Bike_Lighting_System\Radar_Core/Libraries/CMSIS/Include\core_cmSimd.h ****      documentation and/or other materials provided with the distribution.
  20:C:\Users\Depes Crystalline\Desktop\school\Active_Bike_Lighting_System\Radar_Core/Libraries/CMSIS/Include\core_cmSimd.h ****    - Neither the name of ARM nor the names of its contributors may be used
  21:C:\Users\Depes Crystalline\Desktop\school\Active_Bike_Lighting_System\Radar_Core/Libraries/CMSIS/Include\core_cmSimd.h ****      to endorse or promote products derived from this software without
  22:C:\Users\Depes Crystalline\Desktop\school\Active_Bike_Lighting_System\Radar_Core/Libraries/CMSIS/Include\core_cmSimd.h ****      specific prior written permission.
  23:C:\Users\Depes Crystalline\Desktop\school\Active_Bike_Lighting_System\Radar_Core/Libraries/CMSIS/Include\core_cmSimd.h ****    *
  24:C:\Users\Depes Crystalline\Desktop\school\Active_Bike_Lighting_System\Radar_Core/Libraries/CMSIS/Include\core_cmSimd.h ****    THIS SOFTWARE IS PROVIDED BY THE COPYRIGHT HOLDERS AND CONTRIBUTORS "AS IS"
  25:C:\Users\Depes Crystalline\Desktop\school\Active_Bike_Lighting_System\Radar_Core/Libraries/CMSIS/Include\core_cmSimd.h ****    AND ANY EXPRESS OR IMPLIED WARRANTIES, INCLUDING, BUT NOT LIMITED TO, THE
  26:C:\Users\Depes Crystalline\Desktop\school\Active_Bike_Lighting_System\Radar_Core/Libraries/CMSIS/Include\core_cmSimd.h ****    IMPLIED WARRANTIES OF MERCHANTABILITY AND FITNESS FOR A PARTICULAR PURPOSE
  27:C:\Users\Depes Crystalline\Desktop\school\Active_Bike_Lighting_System\Radar_Core/Libraries/CMSIS/Include\core_cmSimd.h ****    ARE DISCLAIMED. IN NO EVENT SHALL COPYRIGHT HOLDERS AND CONTRIBUTORS BE
  28:C:\Users\Depes Crystalline\Desktop\school\Active_Bike_Lighting_System\Radar_Core/Libraries/CMSIS/Include\core_cmSimd.h ****    LIABLE FOR ANY DIRECT, INDIRECT, INCIDENTAL, SPECIAL, EXEMPLARY, OR
  29:C:\Users\Depes Crystalline\Desktop\school\Active_Bike_Lighting_System\Radar_Core/Libraries/CMSIS/Include\core_cmSimd.h ****    CONSEQUENTIAL DAMAGES (INCLUDING, BUT NOT LIMITED TO, PROCUREMENT OF
  30:C:\Users\Depes Crystalline\Desktop\school\Active_Bike_Lighting_System\Radar_Core/Libraries/CMSIS/Include\core_cmSimd.h ****    SUBSTITUTE GOODS OR SERVICES; LOSS OF USE, DATA, OR PROFITS; OR BUSINESS
  31:C:\Users\Depes Crystalline\Desktop\school\Active_Bike_Lighting_System\Radar_Core/Libraries/CMSIS/Include\core_cmSimd.h ****    INTERRUPTION) HOWEVER CAUSED AND ON ANY THEORY OF LIABILITY, WHETHER IN
  32:C:\Users\Depes Crystalline\Desktop\school\Active_Bike_Lighting_System\Radar_Core/Libraries/CMSIS/Include\core_cmSimd.h ****    CONTRACT, STRICT LIABILITY, OR TORT (INCLUDING NEGLIGENCE OR OTHERWISE)
  33:C:\Users\Depes Crystalline\Desktop\school\Active_Bike_Lighting_System\Radar_Core/Libraries/CMSIS/Include\core_cmSimd.h ****    ARISING IN ANY WAY OUT OF THE USE OF THIS SOFTWARE, EVEN IF ADVISED OF THE
  34:C:\Users\Depes Crystalline\Desktop\school\Active_Bike_Lighting_System\Radar_Core/Libraries/CMSIS/Include\core_cmSimd.h ****    POSSIBILITY OF SUCH DAMAGE.
  35:C:\Users\Depes Crystalline\Desktop\school\Active_Bike_Lighting_System\Radar_Core/Libraries/CMSIS/Include\core_cmSimd.h ****    ---------------------------------------------------------------------------*/
  36:C:\Users\Depes Crystalline\Desktop\school\Active_Bike_Lighting_System\Radar_Core/Libraries/CMSIS/Include\core_cmSimd.h **** 
  37:C:\Users\Depes Crystalline\Desktop\school\Active_Bike_Lighting_System\Radar_Core/Libraries/CMSIS/Include\core_cmSimd.h **** 
  38:C:\Users\Depes Crystalline\Desktop\school\Active_Bike_Lighting_System\Radar_Core/Libraries/CMSIS/Include\core_cmSimd.h **** #if defined ( __ICCARM__ )
  39:C:\Users\Depes Crystalline\Desktop\school\Active_Bike_Lighting_System\Radar_Core/Libraries/CMSIS/Include\core_cmSimd.h ****  #pragma system_include  /* treat file as system include file for MISRA check */
  40:C:\Users\Depes Crystalline\Desktop\school\Active_Bike_Lighting_System\Radar_Core/Libraries/CMSIS/Include\core_cmSimd.h **** #endif
  41:C:\Users\Depes Crystalline\Desktop\school\Active_Bike_Lighting_System\Radar_Core/Libraries/CMSIS/Include\core_cmSimd.h **** 
  42:C:\Users\Depes Crystalline\Desktop\school\Active_Bike_Lighting_System\Radar_Core/Libraries/CMSIS/Include\core_cmSimd.h **** #ifndef __CORE_CMSIMD_H
  43:C:\Users\Depes Crystalline\Desktop\school\Active_Bike_Lighting_System\Radar_Core/Libraries/CMSIS/Include\core_cmSimd.h **** #define __CORE_CMSIMD_H
  44:C:\Users\Depes Crystalline\Desktop\school\Active_Bike_Lighting_System\Radar_Core/Libraries/CMSIS/Include\core_cmSimd.h **** 
  45:C:\Users\Depes Crystalline\Desktop\school\Active_Bike_Lighting_System\Radar_Core/Libraries/CMSIS/Include\core_cmSimd.h **** #ifdef __cplusplus
  46:C:\Users\Depes Crystalline\Desktop\school\Active_Bike_Lighting_System\Radar_Core/Libraries/CMSIS/Include\core_cmSimd.h ****  extern "C" {
  47:C:\Users\Depes Crystalline\Desktop\school\Active_Bike_Lighting_System\Radar_Core/Libraries/CMSIS/Include\core_cmSimd.h **** #endif
  48:C:\Users\Depes Crystalline\Desktop\school\Active_Bike_Lighting_System\Radar_Core/Libraries/CMSIS/Include\core_cmSimd.h **** 
  49:C:\Users\Depes Crystalline\Desktop\school\Active_Bike_Lighting_System\Radar_Core/Libraries/CMSIS/Include\core_cmSimd.h **** 
  50:C:\Users\Depes Crystalline\Desktop\school\Active_Bike_Lighting_System\Radar_Core/Libraries/CMSIS/Include\core_cmSimd.h **** /*******************************************************************************
  51:C:\Users\Depes Crystalline\Desktop\school\Active_Bike_Lighting_System\Radar_Core/Libraries/CMSIS/Include\core_cmSimd.h ****  *                Hardware Abstraction Layer
  52:C:\Users\Depes Crystalline\Desktop\school\Active_Bike_Lighting_System\Radar_Core/Libraries/CMSIS/Include\core_cmSimd.h ****  ******************************************************************************/
  53:C:\Users\Depes Crystalline\Desktop\school\Active_Bike_Lighting_System\Radar_Core/Libraries/CMSIS/Include\core_cmSimd.h **** 
  54:C:\Users\Depes Crystalline\Desktop\school\Active_Bike_Lighting_System\Radar_Core/Libraries/CMSIS/Include\core_cmSimd.h **** 
  55:C:\Users\Depes Crystalline\Desktop\school\Active_Bike_Lighting_System\Radar_Core/Libraries/CMSIS/Include\core_cmSimd.h **** /* ###################  Compiler specific Intrinsics  ########################### */
  56:C:\Users\Depes Crystalline\Desktop\school\Active_Bike_Lighting_System\Radar_Core/Libraries/CMSIS/Include\core_cmSimd.h **** /** \defgroup CMSIS_SIMD_intrinsics CMSIS SIMD Intrinsics
  57:C:\Users\Depes Crystalline\Desktop\school\Active_Bike_Lighting_System\Radar_Core/Libraries/CMSIS/Include\core_cmSimd.h ****   Access to dedicated SIMD instructions
  58:C:\Users\Depes Crystalline\Desktop\school\Active_Bike_Lighting_System\Radar_Core/Libraries/CMSIS/Include\core_cmSimd.h ****   @{
  59:C:\Users\Depes Crystalline\Desktop\school\Active_Bike_Lighting_System\Radar_Core/Libraries/CMSIS/Include\core_cmSimd.h **** */
  60:C:\Users\Depes Crystalline\Desktop\school\Active_Bike_Lighting_System\Radar_Core/Libraries/CMSIS/Include\core_cmSimd.h **** 
  61:C:\Users\Depes Crystalline\Desktop\school\Active_Bike_Lighting_System\Radar_Core/Libraries/CMSIS/Include\core_cmSimd.h **** #if   defined ( __CC_ARM ) /*------------------RealView Compiler -----------------*/
  62:C:\Users\Depes Crystalline\Desktop\school\Active_Bike_Lighting_System\Radar_Core/Libraries/CMSIS/Include\core_cmSimd.h **** /* ARM armcc specific functions */
  63:C:\Users\Depes Crystalline\Desktop\school\Active_Bike_Lighting_System\Radar_Core/Libraries/CMSIS/Include\core_cmSimd.h **** #define __SADD8                           __sadd8
  64:C:\Users\Depes Crystalline\Desktop\school\Active_Bike_Lighting_System\Radar_Core/Libraries/CMSIS/Include\core_cmSimd.h **** #define __QADD8                           __qadd8
  65:C:\Users\Depes Crystalline\Desktop\school\Active_Bike_Lighting_System\Radar_Core/Libraries/CMSIS/Include\core_cmSimd.h **** #define __SHADD8                          __shadd8
  66:C:\Users\Depes Crystalline\Desktop\school\Active_Bike_Lighting_System\Radar_Core/Libraries/CMSIS/Include\core_cmSimd.h **** #define __UADD8                           __uadd8
  67:C:\Users\Depes Crystalline\Desktop\school\Active_Bike_Lighting_System\Radar_Core/Libraries/CMSIS/Include\core_cmSimd.h **** #define __UQADD8                          __uqadd8
  68:C:\Users\Depes Crystalline\Desktop\school\Active_Bike_Lighting_System\Radar_Core/Libraries/CMSIS/Include\core_cmSimd.h **** #define __UHADD8                          __uhadd8
  69:C:\Users\Depes Crystalline\Desktop\school\Active_Bike_Lighting_System\Radar_Core/Libraries/CMSIS/Include\core_cmSimd.h **** #define __SSUB8                           __ssub8
  70:C:\Users\Depes Crystalline\Desktop\school\Active_Bike_Lighting_System\Radar_Core/Libraries/CMSIS/Include\core_cmSimd.h **** #define __QSUB8                           __qsub8
  71:C:\Users\Depes Crystalline\Desktop\school\Active_Bike_Lighting_System\Radar_Core/Libraries/CMSIS/Include\core_cmSimd.h **** #define __SHSUB8                          __shsub8
  72:C:\Users\Depes Crystalline\Desktop\school\Active_Bike_Lighting_System\Radar_Core/Libraries/CMSIS/Include\core_cmSimd.h **** #define __USUB8                           __usub8
  73:C:\Users\Depes Crystalline\Desktop\school\Active_Bike_Lighting_System\Radar_Core/Libraries/CMSIS/Include\core_cmSimd.h **** #define __UQSUB8                          __uqsub8
  74:C:\Users\Depes Crystalline\Desktop\school\Active_Bike_Lighting_System\Radar_Core/Libraries/CMSIS/Include\core_cmSimd.h **** #define __UHSUB8                          __uhsub8
  75:C:\Users\Depes Crystalline\Desktop\school\Active_Bike_Lighting_System\Radar_Core/Libraries/CMSIS/Include\core_cmSimd.h **** #define __SADD16                          __sadd16
  76:C:\Users\Depes Crystalline\Desktop\school\Active_Bike_Lighting_System\Radar_Core/Libraries/CMSIS/Include\core_cmSimd.h **** #define __QADD16                          __qadd16
  77:C:\Users\Depes Crystalline\Desktop\school\Active_Bike_Lighting_System\Radar_Core/Libraries/CMSIS/Include\core_cmSimd.h **** #define __SHADD16                         __shadd16
  78:C:\Users\Depes Crystalline\Desktop\school\Active_Bike_Lighting_System\Radar_Core/Libraries/CMSIS/Include\core_cmSimd.h **** #define __UADD16                          __uadd16
  79:C:\Users\Depes Crystalline\Desktop\school\Active_Bike_Lighting_System\Radar_Core/Libraries/CMSIS/Include\core_cmSimd.h **** #define __UQADD16                         __uqadd16
  80:C:\Users\Depes Crystalline\Desktop\school\Active_Bike_Lighting_System\Radar_Core/Libraries/CMSIS/Include\core_cmSimd.h **** #define __UHADD16                         __uhadd16
  81:C:\Users\Depes Crystalline\Desktop\school\Active_Bike_Lighting_System\Radar_Core/Libraries/CMSIS/Include\core_cmSimd.h **** #define __SSUB16                          __ssub16
  82:C:\Users\Depes Crystalline\Desktop\school\Active_Bike_Lighting_System\Radar_Core/Libraries/CMSIS/Include\core_cmSimd.h **** #define __QSUB16                          __qsub16
  83:C:\Users\Depes Crystalline\Desktop\school\Active_Bike_Lighting_System\Radar_Core/Libraries/CMSIS/Include\core_cmSimd.h **** #define __SHSUB16                         __shsub16
  84:C:\Users\Depes Crystalline\Desktop\school\Active_Bike_Lighting_System\Radar_Core/Libraries/CMSIS/Include\core_cmSimd.h **** #define __USUB16                          __usub16
  85:C:\Users\Depes Crystalline\Desktop\school\Active_Bike_Lighting_System\Radar_Core/Libraries/CMSIS/Include\core_cmSimd.h **** #define __UQSUB16                         __uqsub16
  86:C:\Users\Depes Crystalline\Desktop\school\Active_Bike_Lighting_System\Radar_Core/Libraries/CMSIS/Include\core_cmSimd.h **** #define __UHSUB16                         __uhsub16
  87:C:\Users\Depes Crystalline\Desktop\school\Active_Bike_Lighting_System\Radar_Core/Libraries/CMSIS/Include\core_cmSimd.h **** #define __SASX                            __sasx
  88:C:\Users\Depes Crystalline\Desktop\school\Active_Bike_Lighting_System\Radar_Core/Libraries/CMSIS/Include\core_cmSimd.h **** #define __QASX                            __qasx
  89:C:\Users\Depes Crystalline\Desktop\school\Active_Bike_Lighting_System\Radar_Core/Libraries/CMSIS/Include\core_cmSimd.h **** #define __SHASX                           __shasx
  90:C:\Users\Depes Crystalline\Desktop\school\Active_Bike_Lighting_System\Radar_Core/Libraries/CMSIS/Include\core_cmSimd.h **** #define __UASX                            __uasx
  91:C:\Users\Depes Crystalline\Desktop\school\Active_Bike_Lighting_System\Radar_Core/Libraries/CMSIS/Include\core_cmSimd.h **** #define __UQASX                           __uqasx
  92:C:\Users\Depes Crystalline\Desktop\school\Active_Bike_Lighting_System\Radar_Core/Libraries/CMSIS/Include\core_cmSimd.h **** #define __UHASX                           __uhasx
  93:C:\Users\Depes Crystalline\Desktop\school\Active_Bike_Lighting_System\Radar_Core/Libraries/CMSIS/Include\core_cmSimd.h **** #define __SSAX                            __ssax
  94:C:\Users\Depes Crystalline\Desktop\school\Active_Bike_Lighting_System\Radar_Core/Libraries/CMSIS/Include\core_cmSimd.h **** #define __QSAX                            __qsax
  95:C:\Users\Depes Crystalline\Desktop\school\Active_Bike_Lighting_System\Radar_Core/Libraries/CMSIS/Include\core_cmSimd.h **** #define __SHSAX                           __shsax
  96:C:\Users\Depes Crystalline\Desktop\school\Active_Bike_Lighting_System\Radar_Core/Libraries/CMSIS/Include\core_cmSimd.h **** #define __USAX                            __usax
  97:C:\Users\Depes Crystalline\Desktop\school\Active_Bike_Lighting_System\Radar_Core/Libraries/CMSIS/Include\core_cmSimd.h **** #define __UQSAX                           __uqsax
  98:C:\Users\Depes Crystalline\Desktop\school\Active_Bike_Lighting_System\Radar_Core/Libraries/CMSIS/Include\core_cmSimd.h **** #define __UHSAX                           __uhsax
  99:C:\Users\Depes Crystalline\Desktop\school\Active_Bike_Lighting_System\Radar_Core/Libraries/CMSIS/Include\core_cmSimd.h **** #define __USAD8                           __usad8
 100:C:\Users\Depes Crystalline\Desktop\school\Active_Bike_Lighting_System\Radar_Core/Libraries/CMSIS/Include\core_cmSimd.h **** #define __USADA8                          __usada8
 101:C:\Users\Depes Crystalline\Desktop\school\Active_Bike_Lighting_System\Radar_Core/Libraries/CMSIS/Include\core_cmSimd.h **** #define __SSAT16                          __ssat16
 102:C:\Users\Depes Crystalline\Desktop\school\Active_Bike_Lighting_System\Radar_Core/Libraries/CMSIS/Include\core_cmSimd.h **** #define __USAT16                          __usat16
 103:C:\Users\Depes Crystalline\Desktop\school\Active_Bike_Lighting_System\Radar_Core/Libraries/CMSIS/Include\core_cmSimd.h **** #define __UXTB16                          __uxtb16
 104:C:\Users\Depes Crystalline\Desktop\school\Active_Bike_Lighting_System\Radar_Core/Libraries/CMSIS/Include\core_cmSimd.h **** #define __UXTAB16                         __uxtab16
 105:C:\Users\Depes Crystalline\Desktop\school\Active_Bike_Lighting_System\Radar_Core/Libraries/CMSIS/Include\core_cmSimd.h **** #define __SXTB16                          __sxtb16
 106:C:\Users\Depes Crystalline\Desktop\school\Active_Bike_Lighting_System\Radar_Core/Libraries/CMSIS/Include\core_cmSimd.h **** #define __SXTAB16                         __sxtab16
 107:C:\Users\Depes Crystalline\Desktop\school\Active_Bike_Lighting_System\Radar_Core/Libraries/CMSIS/Include\core_cmSimd.h **** #define __SMUAD                           __smuad
 108:C:\Users\Depes Crystalline\Desktop\school\Active_Bike_Lighting_System\Radar_Core/Libraries/CMSIS/Include\core_cmSimd.h **** #define __SMUADX                          __smuadx
 109:C:\Users\Depes Crystalline\Desktop\school\Active_Bike_Lighting_System\Radar_Core/Libraries/CMSIS/Include\core_cmSimd.h **** #define __SMLAD                           __smlad
 110:C:\Users\Depes Crystalline\Desktop\school\Active_Bike_Lighting_System\Radar_Core/Libraries/CMSIS/Include\core_cmSimd.h **** #define __SMLADX                          __smladx
 111:C:\Users\Depes Crystalline\Desktop\school\Active_Bike_Lighting_System\Radar_Core/Libraries/CMSIS/Include\core_cmSimd.h **** #define __SMLALD                          __smlald
 112:C:\Users\Depes Crystalline\Desktop\school\Active_Bike_Lighting_System\Radar_Core/Libraries/CMSIS/Include\core_cmSimd.h **** #define __SMLALDX                         __smlaldx
 113:C:\Users\Depes Crystalline\Desktop\school\Active_Bike_Lighting_System\Radar_Core/Libraries/CMSIS/Include\core_cmSimd.h **** #define __SMUSD                           __smusd
 114:C:\Users\Depes Crystalline\Desktop\school\Active_Bike_Lighting_System\Radar_Core/Libraries/CMSIS/Include\core_cmSimd.h **** #define __SMUSDX                          __smusdx
 115:C:\Users\Depes Crystalline\Desktop\school\Active_Bike_Lighting_System\Radar_Core/Libraries/CMSIS/Include\core_cmSimd.h **** #define __SMLSD                           __smlsd
 116:C:\Users\Depes Crystalline\Desktop\school\Active_Bike_Lighting_System\Radar_Core/Libraries/CMSIS/Include\core_cmSimd.h **** #define __SMLSDX                          __smlsdx
 117:C:\Users\Depes Crystalline\Desktop\school\Active_Bike_Lighting_System\Radar_Core/Libraries/CMSIS/Include\core_cmSimd.h **** #define __SMLSLD                          __smlsld
 118:C:\Users\Depes Crystalline\Desktop\school\Active_Bike_Lighting_System\Radar_Core/Libraries/CMSIS/Include\core_cmSimd.h **** #define __SMLSLDX                         __smlsldx
 119:C:\Users\Depes Crystalline\Desktop\school\Active_Bike_Lighting_System\Radar_Core/Libraries/CMSIS/Include\core_cmSimd.h **** #define __SEL                             __sel
 120:C:\Users\Depes Crystalline\Desktop\school\Active_Bike_Lighting_System\Radar_Core/Libraries/CMSIS/Include\core_cmSimd.h **** #define __QADD                            __qadd
 121:C:\Users\Depes Crystalline\Desktop\school\Active_Bike_Lighting_System\Radar_Core/Libraries/CMSIS/Include\core_cmSimd.h **** #define __QSUB                            __qsub
 122:C:\Users\Depes Crystalline\Desktop\school\Active_Bike_Lighting_System\Radar_Core/Libraries/CMSIS/Include\core_cmSimd.h **** 
 123:C:\Users\Depes Crystalline\Desktop\school\Active_Bike_Lighting_System\Radar_Core/Libraries/CMSIS/Include\core_cmSimd.h **** #define __PKHBT(ARG1,ARG2,ARG3)          ( ((((uint32_t)(ARG1))          ) & 0x0000FFFFUL) |  \
 124:C:\Users\Depes Crystalline\Desktop\school\Active_Bike_Lighting_System\Radar_Core/Libraries/CMSIS/Include\core_cmSimd.h ****                                            ((((uint32_t)(ARG2)) << (ARG3)) & 0xFFFF0000UL)  )
 125:C:\Users\Depes Crystalline\Desktop\school\Active_Bike_Lighting_System\Radar_Core/Libraries/CMSIS/Include\core_cmSimd.h **** 
 126:C:\Users\Depes Crystalline\Desktop\school\Active_Bike_Lighting_System\Radar_Core/Libraries/CMSIS/Include\core_cmSimd.h **** #define __PKHTB(ARG1,ARG2,ARG3)          ( ((((uint32_t)(ARG1))          ) & 0xFFFF0000UL) |  \
 127:C:\Users\Depes Crystalline\Desktop\school\Active_Bike_Lighting_System\Radar_Core/Libraries/CMSIS/Include\core_cmSimd.h ****                                            ((((uint32_t)(ARG2)) >> (ARG3)) & 0x0000FFFFUL)  )
 128:C:\Users\Depes Crystalline\Desktop\school\Active_Bike_Lighting_System\Radar_Core/Libraries/CMSIS/Include\core_cmSimd.h **** 
 129:C:\Users\Depes Crystalline\Desktop\school\Active_Bike_Lighting_System\Radar_Core/Libraries/CMSIS/Include\core_cmSimd.h **** #define __SMMLA(ARG1,ARG2,ARG3)          ( (int32_t)((((int64_t)(ARG1) * (ARG2)) + \
 130:C:\Users\Depes Crystalline\Desktop\school\Active_Bike_Lighting_System\Radar_Core/Libraries/CMSIS/Include\core_cmSimd.h ****                                                       ((int64_t)(ARG3) << 32)      ) >> 32))
 131:C:\Users\Depes Crystalline\Desktop\school\Active_Bike_Lighting_System\Radar_Core/Libraries/CMSIS/Include\core_cmSimd.h **** 
 132:C:\Users\Depes Crystalline\Desktop\school\Active_Bike_Lighting_System\Radar_Core/Libraries/CMSIS/Include\core_cmSimd.h **** 
 133:C:\Users\Depes Crystalline\Desktop\school\Active_Bike_Lighting_System\Radar_Core/Libraries/CMSIS/Include\core_cmSimd.h **** #elif defined ( __GNUC__ ) /*------------------ GNU Compiler ---------------------*/
 134:C:\Users\Depes Crystalline\Desktop\school\Active_Bike_Lighting_System\Radar_Core/Libraries/CMSIS/Include\core_cmSimd.h **** /* GNU gcc specific functions */
 135:C:\Users\Depes Crystalline\Desktop\school\Active_Bike_Lighting_System\Radar_Core/Libraries/CMSIS/Include\core_cmSimd.h **** __attribute__( ( always_inline ) ) __STATIC_INLINE uint32_t __SADD8(uint32_t op1, uint32_t op2)
 136:C:\Users\Depes Crystalline\Desktop\school\Active_Bike_Lighting_System\Radar_Core/Libraries/CMSIS/Include\core_cmSimd.h **** {
 137:C:\Users\Depes Crystalline\Desktop\school\Active_Bike_Lighting_System\Radar_Core/Libraries/CMSIS/Include\core_cmSimd.h ****   uint32_t result;
 138:C:\Users\Depes Crystalline\Desktop\school\Active_Bike_Lighting_System\Radar_Core/Libraries/CMSIS/Include\core_cmSimd.h **** 
 139:C:\Users\Depes Crystalline\Desktop\school\Active_Bike_Lighting_System\Radar_Core/Libraries/CMSIS/Include\core_cmSimd.h ****   __ASM volatile ("sadd8 %0, %1, %2" : "=r" (result) : "r" (op1), "r" (op2) );
 140:C:\Users\Depes Crystalline\Desktop\school\Active_Bike_Lighting_System\Radar_Core/Libraries/CMSIS/Include\core_cmSimd.h ****   return(result);
 141:C:\Users\Depes Crystalline\Desktop\school\Active_Bike_Lighting_System\Radar_Core/Libraries/CMSIS/Include\core_cmSimd.h **** }
 142:C:\Users\Depes Crystalline\Desktop\school\Active_Bike_Lighting_System\Radar_Core/Libraries/CMSIS/Include\core_cmSimd.h **** 
 143:C:\Users\Depes Crystalline\Desktop\school\Active_Bike_Lighting_System\Radar_Core/Libraries/CMSIS/Include\core_cmSimd.h **** __attribute__( ( always_inline ) ) __STATIC_INLINE uint32_t __QADD8(uint32_t op1, uint32_t op2)
 144:C:\Users\Depes Crystalline\Desktop\school\Active_Bike_Lighting_System\Radar_Core/Libraries/CMSIS/Include\core_cmSimd.h **** {
 145:C:\Users\Depes Crystalline\Desktop\school\Active_Bike_Lighting_System\Radar_Core/Libraries/CMSIS/Include\core_cmSimd.h ****   uint32_t result;
 146:C:\Users\Depes Crystalline\Desktop\school\Active_Bike_Lighting_System\Radar_Core/Libraries/CMSIS/Include\core_cmSimd.h **** 
 147:C:\Users\Depes Crystalline\Desktop\school\Active_Bike_Lighting_System\Radar_Core/Libraries/CMSIS/Include\core_cmSimd.h ****   __ASM volatile ("qadd8 %0, %1, %2" : "=r" (result) : "r" (op1), "r" (op2) );
 148:C:\Users\Depes Crystalline\Desktop\school\Active_Bike_Lighting_System\Radar_Core/Libraries/CMSIS/Include\core_cmSimd.h ****   return(result);
 149:C:\Users\Depes Crystalline\Desktop\school\Active_Bike_Lighting_System\Radar_Core/Libraries/CMSIS/Include\core_cmSimd.h **** }
 150:C:\Users\Depes Crystalline\Desktop\school\Active_Bike_Lighting_System\Radar_Core/Libraries/CMSIS/Include\core_cmSimd.h **** 
 151:C:\Users\Depes Crystalline\Desktop\school\Active_Bike_Lighting_System\Radar_Core/Libraries/CMSIS/Include\core_cmSimd.h **** __attribute__( ( always_inline ) ) __STATIC_INLINE uint32_t __SHADD8(uint32_t op1, uint32_t op2)
 152:C:\Users\Depes Crystalline\Desktop\school\Active_Bike_Lighting_System\Radar_Core/Libraries/CMSIS/Include\core_cmSimd.h **** {
 153:C:\Users\Depes Crystalline\Desktop\school\Active_Bike_Lighting_System\Radar_Core/Libraries/CMSIS/Include\core_cmSimd.h ****   uint32_t result;
 154:C:\Users\Depes Crystalline\Desktop\school\Active_Bike_Lighting_System\Radar_Core/Libraries/CMSIS/Include\core_cmSimd.h **** 
 155:C:\Users\Depes Crystalline\Desktop\school\Active_Bike_Lighting_System\Radar_Core/Libraries/CMSIS/Include\core_cmSimd.h ****   __ASM volatile ("shadd8 %0, %1, %2" : "=r" (result) : "r" (op1), "r" (op2) );
 156:C:\Users\Depes Crystalline\Desktop\school\Active_Bike_Lighting_System\Radar_Core/Libraries/CMSIS/Include\core_cmSimd.h ****   return(result);
 157:C:\Users\Depes Crystalline\Desktop\school\Active_Bike_Lighting_System\Radar_Core/Libraries/CMSIS/Include\core_cmSimd.h **** }
 158:C:\Users\Depes Crystalline\Desktop\school\Active_Bike_Lighting_System\Radar_Core/Libraries/CMSIS/Include\core_cmSimd.h **** 
 159:C:\Users\Depes Crystalline\Desktop\school\Active_Bike_Lighting_System\Radar_Core/Libraries/CMSIS/Include\core_cmSimd.h **** __attribute__( ( always_inline ) ) __STATIC_INLINE uint32_t __UADD8(uint32_t op1, uint32_t op2)
 160:C:\Users\Depes Crystalline\Desktop\school\Active_Bike_Lighting_System\Radar_Core/Libraries/CMSIS/Include\core_cmSimd.h **** {
 161:C:\Users\Depes Crystalline\Desktop\school\Active_Bike_Lighting_System\Radar_Core/Libraries/CMSIS/Include\core_cmSimd.h ****   uint32_t result;
 162:C:\Users\Depes Crystalline\Desktop\school\Active_Bike_Lighting_System\Radar_Core/Libraries/CMSIS/Include\core_cmSimd.h **** 
 163:C:\Users\Depes Crystalline\Desktop\school\Active_Bike_Lighting_System\Radar_Core/Libraries/CMSIS/Include\core_cmSimd.h ****   __ASM volatile ("uadd8 %0, %1, %2" : "=r" (result) : "r" (op1), "r" (op2) );
 164:C:\Users\Depes Crystalline\Desktop\school\Active_Bike_Lighting_System\Radar_Core/Libraries/CMSIS/Include\core_cmSimd.h ****   return(result);
 165:C:\Users\Depes Crystalline\Desktop\school\Active_Bike_Lighting_System\Radar_Core/Libraries/CMSIS/Include\core_cmSimd.h **** }
 166:C:\Users\Depes Crystalline\Desktop\school\Active_Bike_Lighting_System\Radar_Core/Libraries/CMSIS/Include\core_cmSimd.h **** 
 167:C:\Users\Depes Crystalline\Desktop\school\Active_Bike_Lighting_System\Radar_Core/Libraries/CMSIS/Include\core_cmSimd.h **** __attribute__( ( always_inline ) ) __STATIC_INLINE uint32_t __UQADD8(uint32_t op1, uint32_t op2)
 168:C:\Users\Depes Crystalline\Desktop\school\Active_Bike_Lighting_System\Radar_Core/Libraries/CMSIS/Include\core_cmSimd.h **** {
 169:C:\Users\Depes Crystalline\Desktop\school\Active_Bike_Lighting_System\Radar_Core/Libraries/CMSIS/Include\core_cmSimd.h ****   uint32_t result;
 170:C:\Users\Depes Crystalline\Desktop\school\Active_Bike_Lighting_System\Radar_Core/Libraries/CMSIS/Include\core_cmSimd.h **** 
 171:C:\Users\Depes Crystalline\Desktop\school\Active_Bike_Lighting_System\Radar_Core/Libraries/CMSIS/Include\core_cmSimd.h ****   __ASM volatile ("uqadd8 %0, %1, %2" : "=r" (result) : "r" (op1), "r" (op2) );
 172:C:\Users\Depes Crystalline\Desktop\school\Active_Bike_Lighting_System\Radar_Core/Libraries/CMSIS/Include\core_cmSimd.h ****   return(result);
 173:C:\Users\Depes Crystalline\Desktop\school\Active_Bike_Lighting_System\Radar_Core/Libraries/CMSIS/Include\core_cmSimd.h **** }
 174:C:\Users\Depes Crystalline\Desktop\school\Active_Bike_Lighting_System\Radar_Core/Libraries/CMSIS/Include\core_cmSimd.h **** 
 175:C:\Users\Depes Crystalline\Desktop\school\Active_Bike_Lighting_System\Radar_Core/Libraries/CMSIS/Include\core_cmSimd.h **** __attribute__( ( always_inline ) ) __STATIC_INLINE uint32_t __UHADD8(uint32_t op1, uint32_t op2)
 176:C:\Users\Depes Crystalline\Desktop\school\Active_Bike_Lighting_System\Radar_Core/Libraries/CMSIS/Include\core_cmSimd.h **** {
 177:C:\Users\Depes Crystalline\Desktop\school\Active_Bike_Lighting_System\Radar_Core/Libraries/CMSIS/Include\core_cmSimd.h ****   uint32_t result;
 178:C:\Users\Depes Crystalline\Desktop\school\Active_Bike_Lighting_System\Radar_Core/Libraries/CMSIS/Include\core_cmSimd.h **** 
 179:C:\Users\Depes Crystalline\Desktop\school\Active_Bike_Lighting_System\Radar_Core/Libraries/CMSIS/Include\core_cmSimd.h ****   __ASM volatile ("uhadd8 %0, %1, %2" : "=r" (result) : "r" (op1), "r" (op2) );
 180:C:\Users\Depes Crystalline\Desktop\school\Active_Bike_Lighting_System\Radar_Core/Libraries/CMSIS/Include\core_cmSimd.h ****   return(result);
 181:C:\Users\Depes Crystalline\Desktop\school\Active_Bike_Lighting_System\Radar_Core/Libraries/CMSIS/Include\core_cmSimd.h **** }
 182:C:\Users\Depes Crystalline\Desktop\school\Active_Bike_Lighting_System\Radar_Core/Libraries/CMSIS/Include\core_cmSimd.h **** 
 183:C:\Users\Depes Crystalline\Desktop\school\Active_Bike_Lighting_System\Radar_Core/Libraries/CMSIS/Include\core_cmSimd.h **** 
 184:C:\Users\Depes Crystalline\Desktop\school\Active_Bike_Lighting_System\Radar_Core/Libraries/CMSIS/Include\core_cmSimd.h **** __attribute__( ( always_inline ) ) __STATIC_INLINE uint32_t __SSUB8(uint32_t op1, uint32_t op2)
 185:C:\Users\Depes Crystalline\Desktop\school\Active_Bike_Lighting_System\Radar_Core/Libraries/CMSIS/Include\core_cmSimd.h **** {
 186:C:\Users\Depes Crystalline\Desktop\school\Active_Bike_Lighting_System\Radar_Core/Libraries/CMSIS/Include\core_cmSimd.h ****   uint32_t result;
 187:C:\Users\Depes Crystalline\Desktop\school\Active_Bike_Lighting_System\Radar_Core/Libraries/CMSIS/Include\core_cmSimd.h **** 
 188:C:\Users\Depes Crystalline\Desktop\school\Active_Bike_Lighting_System\Radar_Core/Libraries/CMSIS/Include\core_cmSimd.h ****   __ASM volatile ("ssub8 %0, %1, %2" : "=r" (result) : "r" (op1), "r" (op2) );
 189:C:\Users\Depes Crystalline\Desktop\school\Active_Bike_Lighting_System\Radar_Core/Libraries/CMSIS/Include\core_cmSimd.h ****   return(result);
 190:C:\Users\Depes Crystalline\Desktop\school\Active_Bike_Lighting_System\Radar_Core/Libraries/CMSIS/Include\core_cmSimd.h **** }
 191:C:\Users\Depes Crystalline\Desktop\school\Active_Bike_Lighting_System\Radar_Core/Libraries/CMSIS/Include\core_cmSimd.h **** 
 192:C:\Users\Depes Crystalline\Desktop\school\Active_Bike_Lighting_System\Radar_Core/Libraries/CMSIS/Include\core_cmSimd.h **** __attribute__( ( always_inline ) ) __STATIC_INLINE uint32_t __QSUB8(uint32_t op1, uint32_t op2)
 193:C:\Users\Depes Crystalline\Desktop\school\Active_Bike_Lighting_System\Radar_Core/Libraries/CMSIS/Include\core_cmSimd.h **** {
 194:C:\Users\Depes Crystalline\Desktop\school\Active_Bike_Lighting_System\Radar_Core/Libraries/CMSIS/Include\core_cmSimd.h ****   uint32_t result;
 195:C:\Users\Depes Crystalline\Desktop\school\Active_Bike_Lighting_System\Radar_Core/Libraries/CMSIS/Include\core_cmSimd.h **** 
 196:C:\Users\Depes Crystalline\Desktop\school\Active_Bike_Lighting_System\Radar_Core/Libraries/CMSIS/Include\core_cmSimd.h ****   __ASM volatile ("qsub8 %0, %1, %2" : "=r" (result) : "r" (op1), "r" (op2) );
 197:C:\Users\Depes Crystalline\Desktop\school\Active_Bike_Lighting_System\Radar_Core/Libraries/CMSIS/Include\core_cmSimd.h ****   return(result);
 198:C:\Users\Depes Crystalline\Desktop\school\Active_Bike_Lighting_System\Radar_Core/Libraries/CMSIS/Include\core_cmSimd.h **** }
 199:C:\Users\Depes Crystalline\Desktop\school\Active_Bike_Lighting_System\Radar_Core/Libraries/CMSIS/Include\core_cmSimd.h **** 
 200:C:\Users\Depes Crystalline\Desktop\school\Active_Bike_Lighting_System\Radar_Core/Libraries/CMSIS/Include\core_cmSimd.h **** __attribute__( ( always_inline ) ) __STATIC_INLINE uint32_t __SHSUB8(uint32_t op1, uint32_t op2)
 201:C:\Users\Depes Crystalline\Desktop\school\Active_Bike_Lighting_System\Radar_Core/Libraries/CMSIS/Include\core_cmSimd.h **** {
 202:C:\Users\Depes Crystalline\Desktop\school\Active_Bike_Lighting_System\Radar_Core/Libraries/CMSIS/Include\core_cmSimd.h ****   uint32_t result;
 203:C:\Users\Depes Crystalline\Desktop\school\Active_Bike_Lighting_System\Radar_Core/Libraries/CMSIS/Include\core_cmSimd.h **** 
 204:C:\Users\Depes Crystalline\Desktop\school\Active_Bike_Lighting_System\Radar_Core/Libraries/CMSIS/Include\core_cmSimd.h ****   __ASM volatile ("shsub8 %0, %1, %2" : "=r" (result) : "r" (op1), "r" (op2) );
 205:C:\Users\Depes Crystalline\Desktop\school\Active_Bike_Lighting_System\Radar_Core/Libraries/CMSIS/Include\core_cmSimd.h ****   return(result);
 206:C:\Users\Depes Crystalline\Desktop\school\Active_Bike_Lighting_System\Radar_Core/Libraries/CMSIS/Include\core_cmSimd.h **** }
 207:C:\Users\Depes Crystalline\Desktop\school\Active_Bike_Lighting_System\Radar_Core/Libraries/CMSIS/Include\core_cmSimd.h **** 
 208:C:\Users\Depes Crystalline\Desktop\school\Active_Bike_Lighting_System\Radar_Core/Libraries/CMSIS/Include\core_cmSimd.h **** __attribute__( ( always_inline ) ) __STATIC_INLINE uint32_t __USUB8(uint32_t op1, uint32_t op2)
 209:C:\Users\Depes Crystalline\Desktop\school\Active_Bike_Lighting_System\Radar_Core/Libraries/CMSIS/Include\core_cmSimd.h **** {
 210:C:\Users\Depes Crystalline\Desktop\school\Active_Bike_Lighting_System\Radar_Core/Libraries/CMSIS/Include\core_cmSimd.h ****   uint32_t result;
 211:C:\Users\Depes Crystalline\Desktop\school\Active_Bike_Lighting_System\Radar_Core/Libraries/CMSIS/Include\core_cmSimd.h **** 
 212:C:\Users\Depes Crystalline\Desktop\school\Active_Bike_Lighting_System\Radar_Core/Libraries/CMSIS/Include\core_cmSimd.h ****   __ASM volatile ("usub8 %0, %1, %2" : "=r" (result) : "r" (op1), "r" (op2) );
 213:C:\Users\Depes Crystalline\Desktop\school\Active_Bike_Lighting_System\Radar_Core/Libraries/CMSIS/Include\core_cmSimd.h ****   return(result);
 214:C:\Users\Depes Crystalline\Desktop\school\Active_Bike_Lighting_System\Radar_Core/Libraries/CMSIS/Include\core_cmSimd.h **** }
 215:C:\Users\Depes Crystalline\Desktop\school\Active_Bike_Lighting_System\Radar_Core/Libraries/CMSIS/Include\core_cmSimd.h **** 
 216:C:\Users\Depes Crystalline\Desktop\school\Active_Bike_Lighting_System\Radar_Core/Libraries/CMSIS/Include\core_cmSimd.h **** __attribute__( ( always_inline ) ) __STATIC_INLINE uint32_t __UQSUB8(uint32_t op1, uint32_t op2)
 217:C:\Users\Depes Crystalline\Desktop\school\Active_Bike_Lighting_System\Radar_Core/Libraries/CMSIS/Include\core_cmSimd.h **** {
 218:C:\Users\Depes Crystalline\Desktop\school\Active_Bike_Lighting_System\Radar_Core/Libraries/CMSIS/Include\core_cmSimd.h ****   uint32_t result;
 219:C:\Users\Depes Crystalline\Desktop\school\Active_Bike_Lighting_System\Radar_Core/Libraries/CMSIS/Include\core_cmSimd.h **** 
 220:C:\Users\Depes Crystalline\Desktop\school\Active_Bike_Lighting_System\Radar_Core/Libraries/CMSIS/Include\core_cmSimd.h ****   __ASM volatile ("uqsub8 %0, %1, %2" : "=r" (result) : "r" (op1), "r" (op2) );
 221:C:\Users\Depes Crystalline\Desktop\school\Active_Bike_Lighting_System\Radar_Core/Libraries/CMSIS/Include\core_cmSimd.h ****   return(result);
 222:C:\Users\Depes Crystalline\Desktop\school\Active_Bike_Lighting_System\Radar_Core/Libraries/CMSIS/Include\core_cmSimd.h **** }
 223:C:\Users\Depes Crystalline\Desktop\school\Active_Bike_Lighting_System\Radar_Core/Libraries/CMSIS/Include\core_cmSimd.h **** 
 224:C:\Users\Depes Crystalline\Desktop\school\Active_Bike_Lighting_System\Radar_Core/Libraries/CMSIS/Include\core_cmSimd.h **** __attribute__( ( always_inline ) ) __STATIC_INLINE uint32_t __UHSUB8(uint32_t op1, uint32_t op2)
 225:C:\Users\Depes Crystalline\Desktop\school\Active_Bike_Lighting_System\Radar_Core/Libraries/CMSIS/Include\core_cmSimd.h **** {
 226:C:\Users\Depes Crystalline\Desktop\school\Active_Bike_Lighting_System\Radar_Core/Libraries/CMSIS/Include\core_cmSimd.h ****   uint32_t result;
 227:C:\Users\Depes Crystalline\Desktop\school\Active_Bike_Lighting_System\Radar_Core/Libraries/CMSIS/Include\core_cmSimd.h **** 
 228:C:\Users\Depes Crystalline\Desktop\school\Active_Bike_Lighting_System\Radar_Core/Libraries/CMSIS/Include\core_cmSimd.h ****   __ASM volatile ("uhsub8 %0, %1, %2" : "=r" (result) : "r" (op1), "r" (op2) );
 229:C:\Users\Depes Crystalline\Desktop\school\Active_Bike_Lighting_System\Radar_Core/Libraries/CMSIS/Include\core_cmSimd.h ****   return(result);
 230:C:\Users\Depes Crystalline\Desktop\school\Active_Bike_Lighting_System\Radar_Core/Libraries/CMSIS/Include\core_cmSimd.h **** }
 231:C:\Users\Depes Crystalline\Desktop\school\Active_Bike_Lighting_System\Radar_Core/Libraries/CMSIS/Include\core_cmSimd.h **** 
 232:C:\Users\Depes Crystalline\Desktop\school\Active_Bike_Lighting_System\Radar_Core/Libraries/CMSIS/Include\core_cmSimd.h **** 
 233:C:\Users\Depes Crystalline\Desktop\school\Active_Bike_Lighting_System\Radar_Core/Libraries/CMSIS/Include\core_cmSimd.h **** __attribute__( ( always_inline ) ) __STATIC_INLINE uint32_t __SADD16(uint32_t op1, uint32_t op2)
 234:C:\Users\Depes Crystalline\Desktop\school\Active_Bike_Lighting_System\Radar_Core/Libraries/CMSIS/Include\core_cmSimd.h **** {
 235:C:\Users\Depes Crystalline\Desktop\school\Active_Bike_Lighting_System\Radar_Core/Libraries/CMSIS/Include\core_cmSimd.h ****   uint32_t result;
 236:C:\Users\Depes Crystalline\Desktop\school\Active_Bike_Lighting_System\Radar_Core/Libraries/CMSIS/Include\core_cmSimd.h **** 
 237:C:\Users\Depes Crystalline\Desktop\school\Active_Bike_Lighting_System\Radar_Core/Libraries/CMSIS/Include\core_cmSimd.h ****   __ASM volatile ("sadd16 %0, %1, %2" : "=r" (result) : "r" (op1), "r" (op2) );
 238:C:\Users\Depes Crystalline\Desktop\school\Active_Bike_Lighting_System\Radar_Core/Libraries/CMSIS/Include\core_cmSimd.h ****   return(result);
 239:C:\Users\Depes Crystalline\Desktop\school\Active_Bike_Lighting_System\Radar_Core/Libraries/CMSIS/Include\core_cmSimd.h **** }
 240:C:\Users\Depes Crystalline\Desktop\school\Active_Bike_Lighting_System\Radar_Core/Libraries/CMSIS/Include\core_cmSimd.h **** 
 241:C:\Users\Depes Crystalline\Desktop\school\Active_Bike_Lighting_System\Radar_Core/Libraries/CMSIS/Include\core_cmSimd.h **** __attribute__( ( always_inline ) ) __STATIC_INLINE uint32_t __QADD16(uint32_t op1, uint32_t op2)
 242:C:\Users\Depes Crystalline\Desktop\school\Active_Bike_Lighting_System\Radar_Core/Libraries/CMSIS/Include\core_cmSimd.h **** {
 243:C:\Users\Depes Crystalline\Desktop\school\Active_Bike_Lighting_System\Radar_Core/Libraries/CMSIS/Include\core_cmSimd.h ****   uint32_t result;
 244:C:\Users\Depes Crystalline\Desktop\school\Active_Bike_Lighting_System\Radar_Core/Libraries/CMSIS/Include\core_cmSimd.h **** 
 245:C:\Users\Depes Crystalline\Desktop\school\Active_Bike_Lighting_System\Radar_Core/Libraries/CMSIS/Include\core_cmSimd.h ****   __ASM volatile ("qadd16 %0, %1, %2" : "=r" (result) : "r" (op1), "r" (op2) );
 246:C:\Users\Depes Crystalline\Desktop\school\Active_Bike_Lighting_System\Radar_Core/Libraries/CMSIS/Include\core_cmSimd.h ****   return(result);
 247:C:\Users\Depes Crystalline\Desktop\school\Active_Bike_Lighting_System\Radar_Core/Libraries/CMSIS/Include\core_cmSimd.h **** }
 248:C:\Users\Depes Crystalline\Desktop\school\Active_Bike_Lighting_System\Radar_Core/Libraries/CMSIS/Include\core_cmSimd.h **** 
 249:C:\Users\Depes Crystalline\Desktop\school\Active_Bike_Lighting_System\Radar_Core/Libraries/CMSIS/Include\core_cmSimd.h **** __attribute__( ( always_inline ) ) __STATIC_INLINE uint32_t __SHADD16(uint32_t op1, uint32_t op2)
 250:C:\Users\Depes Crystalline\Desktop\school\Active_Bike_Lighting_System\Radar_Core/Libraries/CMSIS/Include\core_cmSimd.h **** {
 251:C:\Users\Depes Crystalline\Desktop\school\Active_Bike_Lighting_System\Radar_Core/Libraries/CMSIS/Include\core_cmSimd.h ****   uint32_t result;
 252:C:\Users\Depes Crystalline\Desktop\school\Active_Bike_Lighting_System\Radar_Core/Libraries/CMSIS/Include\core_cmSimd.h **** 
 253:C:\Users\Depes Crystalline\Desktop\school\Active_Bike_Lighting_System\Radar_Core/Libraries/CMSIS/Include\core_cmSimd.h ****   __ASM volatile ("shadd16 %0, %1, %2" : "=r" (result) : "r" (op1), "r" (op2) );
 188              	 .loc 2 253 0 discriminator 1
 189 0098 D7F86832 	 ldr r3,[r7,#616]
 190 009c D7F86422 	 ldr r2,[r7,#612]
 191              	
 192 00a0 93FA22F3 	 shadd16 r3,r3,r2
 193              	
 194              	 .thumb
 195 00a4 C7F86032 	 str r3,[r7,#608]
 254:C:\Users\Depes Crystalline\Desktop\school\Active_Bike_Lighting_System\Radar_Core/Libraries/CMSIS/Include\core_cmSimd.h ****   return(result);
 196              	 .loc 2 254 0 discriminator 1
 197 00a8 D7F86032 	 ldr r3,[r7,#608]
 198              	.LBE203:
 199              	.LBE202:
 200              	 .loc 1 218 0 discriminator 1
 201 00ac C7F89C32 	 str r3,[r7,#668]
 219:../Dave/Generated/CMSIS_DSP/TransformFunctions/arm_cfft_radix4_q15.c ****     T = __SHADD16(T, 0); // it turns out doing this twice is 2 cycles, the alternative takes 3 cycl
 202              	 .loc 1 219 0 discriminator 1
 203 00b0 D7F89C32 	 ldr r3,[r7,#668]
 204 00b4 C7F85C32 	 str r3,[r7,#604]
 205 00b8 0023     	 movs r3,#0
 206 00ba C7F85832 	 str r3,[r7,#600]
 207              	.LBB204:
 208              	.LBB205:
 253:C:\Users\Depes Crystalline\Desktop\school\Active_Bike_Lighting_System\Radar_Core/Libraries/CMSIS/Include\core_cmSimd.h ****   return(result);
 209              	 .loc 2 253 0 discriminator 1
 210 00be D7F85C32 	 ldr r3,[r7,#604]
 211 00c2 D7F85822 	 ldr r2,[r7,#600]
 212              	
 213 00c6 93FA22F3 	 shadd16 r3,r3,r2
 214              	
 215              	 .thumb
 216 00ca C7F85432 	 str r3,[r7,#596]
 217              	 .loc 2 254 0 discriminator 1
 218 00ce D7F85432 	 ldr r3,[r7,#596]
 219              	.LBE205:
 220              	.LBE204:
 221              	 .loc 1 219 0 discriminator 1
 222 00d2 C7F89C32 	 str r3,[r7,#668]
 220:../Dave/Generated/CMSIS_DSP/TransformFunctions/arm_cfft_radix4_q15.c ****     //in = ((int16_t) (T & 0xFFFF)) >> 2;       // alternative code that takes 3 cycles
 221:../Dave/Generated/CMSIS_DSP/TransformFunctions/arm_cfft_radix4_q15.c ****     //T = ((T >> 2) & 0xFFFF0000) | (in & 0xFFFF);
 222:../Dave/Generated/CMSIS_DSP/TransformFunctions/arm_cfft_radix4_q15.c **** 
 223:../Dave/Generated/CMSIS_DSP/TransformFunctions/arm_cfft_radix4_q15.c ****     /* Read yc (real), xc(imag) input */
 224:../Dave/Generated/CMSIS_DSP/TransformFunctions/arm_cfft_radix4_q15.c ****     S = _SIMD32_OFFSET(pSi2);
 223              	 .loc 1 224 0 discriminator 1
 224 00d6 D7F8A832 	 ldr r3,[r7,#680]
 225 00da 1B68     	 ldr r3,[r3]
 226 00dc C7F89832 	 str r3,[r7,#664]
 225:../Dave/Generated/CMSIS_DSP/TransformFunctions/arm_cfft_radix4_q15.c ****     S = __SHADD16(S, 0);
 227              	 .loc 1 225 0 discriminator 1
 228 00e0 D7F89832 	 ldr r3,[r7,#664]
 229 00e4 C7F85032 	 str r3,[r7,#592]
 230 00e8 0023     	 movs r3,#0
 231 00ea C7F84C32 	 str r3,[r7,#588]
 232              	.LBB206:
 233              	.LBB207:
 253:C:\Users\Depes Crystalline\Desktop\school\Active_Bike_Lighting_System\Radar_Core/Libraries/CMSIS/Include\core_cmSimd.h ****   return(result);
 234              	 .loc 2 253 0 discriminator 1
 235 00ee D7F85032 	 ldr r3,[r7,#592]
 236 00f2 D7F84C22 	 ldr r2,[r7,#588]
 237              	
 238 00f6 93FA22F3 	 shadd16 r3,r3,r2
 239              	
 240              	 .thumb
 241 00fa C7F84832 	 str r3,[r7,#584]
 242              	 .loc 2 254 0 discriminator 1
 243 00fe D7F84832 	 ldr r3,[r7,#584]
 244              	.LBE207:
 245              	.LBE206:
 246              	 .loc 1 225 0 discriminator 1
 247 0102 C7F89832 	 str r3,[r7,#664]
 226:../Dave/Generated/CMSIS_DSP/TransformFunctions/arm_cfft_radix4_q15.c ****     S = __SHADD16(S, 0);
 248              	 .loc 1 226 0 discriminator 1
 249 0106 D7F89832 	 ldr r3,[r7,#664]
 250 010a C7F84432 	 str r3,[r7,#580]
 251 010e 0023     	 movs r3,#0
 252 0110 C7F84032 	 str r3,[r7,#576]
 253              	.LBB208:
 254              	.LBB209:
 253:C:\Users\Depes Crystalline\Desktop\school\Active_Bike_Lighting_System\Radar_Core/Libraries/CMSIS/Include\core_cmSimd.h ****   return(result);
 255              	 .loc 2 253 0 discriminator 1
 256 0114 D7F84432 	 ldr r3,[r7,#580]
 257 0118 D7F84022 	 ldr r2,[r7,#576]
 258              	
 259 011c 93FA22F3 	 shadd16 r3,r3,r2
 260              	
 261              	 .thumb
 262 0120 C7F83C32 	 str r3,[r7,#572]
 263              	 .loc 2 254 0 discriminator 1
 264 0124 D7F83C32 	 ldr r3,[r7,#572]
 265              	.LBE209:
 266              	.LBE208:
 267              	 .loc 1 226 0 discriminator 1
 268 0128 C7F89832 	 str r3,[r7,#664]
 227:../Dave/Generated/CMSIS_DSP/TransformFunctions/arm_cfft_radix4_q15.c **** 
 228:../Dave/Generated/CMSIS_DSP/TransformFunctions/arm_cfft_radix4_q15.c ****     /* R = packed((ya + yc), (xa + xc) ) */
 229:../Dave/Generated/CMSIS_DSP/TransformFunctions/arm_cfft_radix4_q15.c ****     R = __QADD16(T, S);
 269              	 .loc 1 229 0 discriminator 1
 270 012c D7F89C22 	 ldr r2,[r7,#668]
 271 0130 D7F89832 	 ldr r3,[r7,#664]
 272 0134 C7F83822 	 str r2,[r7,#568]
 273 0138 C7F83432 	 str r3,[r7,#564]
 274              	.LBB210:
 275              	.LBB211:
 245:C:\Users\Depes Crystalline\Desktop\school\Active_Bike_Lighting_System\Radar_Core/Libraries/CMSIS/Include\core_cmSimd.h ****   return(result);
 276              	 .loc 2 245 0 discriminator 1
 277 013c D7F83832 	 ldr r3,[r7,#568]
 278 0140 D7F83422 	 ldr r2,[r7,#564]
 279              	
 280 0144 93FA12F3 	 qadd16 r3,r3,r2
 281              	
 282              	 .thumb
 283 0148 C7F83032 	 str r3,[r7,#560]
 246:C:\Users\Depes Crystalline\Desktop\school\Active_Bike_Lighting_System\Radar_Core/Libraries/CMSIS/Include\core_cmSimd.h **** }
 284              	 .loc 2 246 0 discriminator 1
 285 014c D7F83032 	 ldr r3,[r7,#560]
 286              	.LBE211:
 287              	.LBE210:
 288              	 .loc 1 229 0 discriminator 1
 289 0150 C7F89432 	 str r3,[r7,#660]
 230:../Dave/Generated/CMSIS_DSP/TransformFunctions/arm_cfft_radix4_q15.c **** 
 231:../Dave/Generated/CMSIS_DSP/TransformFunctions/arm_cfft_radix4_q15.c ****     /* S = packed((ya - yc), (xa - xc) ) */
 232:../Dave/Generated/CMSIS_DSP/TransformFunctions/arm_cfft_radix4_q15.c ****     S = __QSUB16(T, S);
 290              	 .loc 1 232 0 discriminator 1
 291 0154 D7F89C22 	 ldr r2,[r7,#668]
 292 0158 D7F89832 	 ldr r3,[r7,#664]
 293 015c C7F82C22 	 str r2,[r7,#556]
 294 0160 C7F82832 	 str r3,[r7,#552]
 295              	.LBB212:
 296              	.LBB213:
 255:C:\Users\Depes Crystalline\Desktop\school\Active_Bike_Lighting_System\Radar_Core/Libraries/CMSIS/Include\core_cmSimd.h **** }
 256:C:\Users\Depes Crystalline\Desktop\school\Active_Bike_Lighting_System\Radar_Core/Libraries/CMSIS/Include\core_cmSimd.h **** 
 257:C:\Users\Depes Crystalline\Desktop\school\Active_Bike_Lighting_System\Radar_Core/Libraries/CMSIS/Include\core_cmSimd.h **** __attribute__( ( always_inline ) ) __STATIC_INLINE uint32_t __UADD16(uint32_t op1, uint32_t op2)
 258:C:\Users\Depes Crystalline\Desktop\school\Active_Bike_Lighting_System\Radar_Core/Libraries/CMSIS/Include\core_cmSimd.h **** {
 259:C:\Users\Depes Crystalline\Desktop\school\Active_Bike_Lighting_System\Radar_Core/Libraries/CMSIS/Include\core_cmSimd.h ****   uint32_t result;
 260:C:\Users\Depes Crystalline\Desktop\school\Active_Bike_Lighting_System\Radar_Core/Libraries/CMSIS/Include\core_cmSimd.h **** 
 261:C:\Users\Depes Crystalline\Desktop\school\Active_Bike_Lighting_System\Radar_Core/Libraries/CMSIS/Include\core_cmSimd.h ****   __ASM volatile ("uadd16 %0, %1, %2" : "=r" (result) : "r" (op1), "r" (op2) );
 262:C:\Users\Depes Crystalline\Desktop\school\Active_Bike_Lighting_System\Radar_Core/Libraries/CMSIS/Include\core_cmSimd.h ****   return(result);
 263:C:\Users\Depes Crystalline\Desktop\school\Active_Bike_Lighting_System\Radar_Core/Libraries/CMSIS/Include\core_cmSimd.h **** }
 264:C:\Users\Depes Crystalline\Desktop\school\Active_Bike_Lighting_System\Radar_Core/Libraries/CMSIS/Include\core_cmSimd.h **** 
 265:C:\Users\Depes Crystalline\Desktop\school\Active_Bike_Lighting_System\Radar_Core/Libraries/CMSIS/Include\core_cmSimd.h **** __attribute__( ( always_inline ) ) __STATIC_INLINE uint32_t __UQADD16(uint32_t op1, uint32_t op2)
 266:C:\Users\Depes Crystalline\Desktop\school\Active_Bike_Lighting_System\Radar_Core/Libraries/CMSIS/Include\core_cmSimd.h **** {
 267:C:\Users\Depes Crystalline\Desktop\school\Active_Bike_Lighting_System\Radar_Core/Libraries/CMSIS/Include\core_cmSimd.h ****   uint32_t result;
 268:C:\Users\Depes Crystalline\Desktop\school\Active_Bike_Lighting_System\Radar_Core/Libraries/CMSIS/Include\core_cmSimd.h **** 
 269:C:\Users\Depes Crystalline\Desktop\school\Active_Bike_Lighting_System\Radar_Core/Libraries/CMSIS/Include\core_cmSimd.h ****   __ASM volatile ("uqadd16 %0, %1, %2" : "=r" (result) : "r" (op1), "r" (op2) );
 270:C:\Users\Depes Crystalline\Desktop\school\Active_Bike_Lighting_System\Radar_Core/Libraries/CMSIS/Include\core_cmSimd.h ****   return(result);
 271:C:\Users\Depes Crystalline\Desktop\school\Active_Bike_Lighting_System\Radar_Core/Libraries/CMSIS/Include\core_cmSimd.h **** }
 272:C:\Users\Depes Crystalline\Desktop\school\Active_Bike_Lighting_System\Radar_Core/Libraries/CMSIS/Include\core_cmSimd.h **** 
 273:C:\Users\Depes Crystalline\Desktop\school\Active_Bike_Lighting_System\Radar_Core/Libraries/CMSIS/Include\core_cmSimd.h **** __attribute__( ( always_inline ) ) __STATIC_INLINE uint32_t __UHADD16(uint32_t op1, uint32_t op2)
 274:C:\Users\Depes Crystalline\Desktop\school\Active_Bike_Lighting_System\Radar_Core/Libraries/CMSIS/Include\core_cmSimd.h **** {
 275:C:\Users\Depes Crystalline\Desktop\school\Active_Bike_Lighting_System\Radar_Core/Libraries/CMSIS/Include\core_cmSimd.h ****   uint32_t result;
 276:C:\Users\Depes Crystalline\Desktop\school\Active_Bike_Lighting_System\Radar_Core/Libraries/CMSIS/Include\core_cmSimd.h **** 
 277:C:\Users\Depes Crystalline\Desktop\school\Active_Bike_Lighting_System\Radar_Core/Libraries/CMSIS/Include\core_cmSimd.h ****   __ASM volatile ("uhadd16 %0, %1, %2" : "=r" (result) : "r" (op1), "r" (op2) );
 278:C:\Users\Depes Crystalline\Desktop\school\Active_Bike_Lighting_System\Radar_Core/Libraries/CMSIS/Include\core_cmSimd.h ****   return(result);
 279:C:\Users\Depes Crystalline\Desktop\school\Active_Bike_Lighting_System\Radar_Core/Libraries/CMSIS/Include\core_cmSimd.h **** }
 280:C:\Users\Depes Crystalline\Desktop\school\Active_Bike_Lighting_System\Radar_Core/Libraries/CMSIS/Include\core_cmSimd.h **** 
 281:C:\Users\Depes Crystalline\Desktop\school\Active_Bike_Lighting_System\Radar_Core/Libraries/CMSIS/Include\core_cmSimd.h **** __attribute__( ( always_inline ) ) __STATIC_INLINE uint32_t __SSUB16(uint32_t op1, uint32_t op2)
 282:C:\Users\Depes Crystalline\Desktop\school\Active_Bike_Lighting_System\Radar_Core/Libraries/CMSIS/Include\core_cmSimd.h **** {
 283:C:\Users\Depes Crystalline\Desktop\school\Active_Bike_Lighting_System\Radar_Core/Libraries/CMSIS/Include\core_cmSimd.h ****   uint32_t result;
 284:C:\Users\Depes Crystalline\Desktop\school\Active_Bike_Lighting_System\Radar_Core/Libraries/CMSIS/Include\core_cmSimd.h **** 
 285:C:\Users\Depes Crystalline\Desktop\school\Active_Bike_Lighting_System\Radar_Core/Libraries/CMSIS/Include\core_cmSimd.h ****   __ASM volatile ("ssub16 %0, %1, %2" : "=r" (result) : "r" (op1), "r" (op2) );
 286:C:\Users\Depes Crystalline\Desktop\school\Active_Bike_Lighting_System\Radar_Core/Libraries/CMSIS/Include\core_cmSimd.h ****   return(result);
 287:C:\Users\Depes Crystalline\Desktop\school\Active_Bike_Lighting_System\Radar_Core/Libraries/CMSIS/Include\core_cmSimd.h **** }
 288:C:\Users\Depes Crystalline\Desktop\school\Active_Bike_Lighting_System\Radar_Core/Libraries/CMSIS/Include\core_cmSimd.h **** 
 289:C:\Users\Depes Crystalline\Desktop\school\Active_Bike_Lighting_System\Radar_Core/Libraries/CMSIS/Include\core_cmSimd.h **** __attribute__( ( always_inline ) ) __STATIC_INLINE uint32_t __QSUB16(uint32_t op1, uint32_t op2)
 290:C:\Users\Depes Crystalline\Desktop\school\Active_Bike_Lighting_System\Radar_Core/Libraries/CMSIS/Include\core_cmSimd.h **** {
 291:C:\Users\Depes Crystalline\Desktop\school\Active_Bike_Lighting_System\Radar_Core/Libraries/CMSIS/Include\core_cmSimd.h ****   uint32_t result;
 292:C:\Users\Depes Crystalline\Desktop\school\Active_Bike_Lighting_System\Radar_Core/Libraries/CMSIS/Include\core_cmSimd.h **** 
 293:C:\Users\Depes Crystalline\Desktop\school\Active_Bike_Lighting_System\Radar_Core/Libraries/CMSIS/Include\core_cmSimd.h ****   __ASM volatile ("qsub16 %0, %1, %2" : "=r" (result) : "r" (op1), "r" (op2) );
 297              	 .loc 2 293 0 discriminator 1
 298 0164 D7F82C32 	 ldr r3,[r7,#556]
 299 0168 D7F82822 	 ldr r2,[r7,#552]
 300              	
 301 016c D3FA12F3 	 qsub16 r3,r3,r2
 302              	
 303              	 .thumb
 304 0170 C7F82432 	 str r3,[r7,#548]
 294:C:\Users\Depes Crystalline\Desktop\school\Active_Bike_Lighting_System\Radar_Core/Libraries/CMSIS/Include\core_cmSimd.h ****   return(result);
 305              	 .loc 2 294 0 discriminator 1
 306 0174 D7F82432 	 ldr r3,[r7,#548]
 307              	.LBE213:
 308              	.LBE212:
 309              	 .loc 1 232 0 discriminator 1
 310 0178 C7F89832 	 str r3,[r7,#664]
 233:../Dave/Generated/CMSIS_DSP/TransformFunctions/arm_cfft_radix4_q15.c **** 
 234:../Dave/Generated/CMSIS_DSP/TransformFunctions/arm_cfft_radix4_q15.c ****     /*  Reading i0+fftLen/4 , i0+3fftLen/4 inputs */
 235:../Dave/Generated/CMSIS_DSP/TransformFunctions/arm_cfft_radix4_q15.c ****     /* Read yb (real), xb(imag) input */
 236:../Dave/Generated/CMSIS_DSP/TransformFunctions/arm_cfft_radix4_q15.c ****     T = _SIMD32_OFFSET(pSi1);
 311              	 .loc 1 236 0 discriminator 1
 312 017c D7F8AC32 	 ldr r3,[r7,#684]
 313 0180 1B68     	 ldr r3,[r3]
 314 0182 C7F89C32 	 str r3,[r7,#668]
 237:../Dave/Generated/CMSIS_DSP/TransformFunctions/arm_cfft_radix4_q15.c ****     T = __SHADD16(T, 0);
 315              	 .loc 1 237 0 discriminator 1
 316 0186 D7F89C32 	 ldr r3,[r7,#668]
 317 018a C7F82032 	 str r3,[r7,#544]
 318 018e 0023     	 movs r3,#0
 319 0190 C7F81C32 	 str r3,[r7,#540]
 320              	.LBB214:
 321              	.LBB215:
 253:C:\Users\Depes Crystalline\Desktop\school\Active_Bike_Lighting_System\Radar_Core/Libraries/CMSIS/Include\core_cmSimd.h ****   return(result);
 322              	 .loc 2 253 0 discriminator 1
 323 0194 D7F82032 	 ldr r3,[r7,#544]
 324 0198 D7F81C22 	 ldr r2,[r7,#540]
 325              	
 326 019c 93FA22F3 	 shadd16 r3,r3,r2
 327              	
 328              	 .thumb
 329 01a0 C7F81832 	 str r3,[r7,#536]
 254:C:\Users\Depes Crystalline\Desktop\school\Active_Bike_Lighting_System\Radar_Core/Libraries/CMSIS/Include\core_cmSimd.h **** }
 330              	 .loc 2 254 0 discriminator 1
 331 01a4 D7F81832 	 ldr r3,[r7,#536]
 332              	.LBE215:
 333              	.LBE214:
 334              	 .loc 1 237 0 discriminator 1
 335 01a8 C7F89C32 	 str r3,[r7,#668]
 238:../Dave/Generated/CMSIS_DSP/TransformFunctions/arm_cfft_radix4_q15.c ****     T = __SHADD16(T, 0);
 336              	 .loc 1 238 0 discriminator 1
 337 01ac D7F89C32 	 ldr r3,[r7,#668]
 338 01b0 C7F81432 	 str r3,[r7,#532]
 339 01b4 0023     	 movs r3,#0
 340 01b6 C7F81032 	 str r3,[r7,#528]
 341              	.LBB216:
 342              	.LBB217:
 253:C:\Users\Depes Crystalline\Desktop\school\Active_Bike_Lighting_System\Radar_Core/Libraries/CMSIS/Include\core_cmSimd.h ****   return(result);
 343              	 .loc 2 253 0 discriminator 1
 344 01ba D7F81432 	 ldr r3,[r7,#532]
 345 01be D7F81022 	 ldr r2,[r7,#528]
 346              	
 347 01c2 93FA22F3 	 shadd16 r3,r3,r2
 348              	
 349              	 .thumb
 350 01c6 C7F80C32 	 str r3,[r7,#524]
 254:C:\Users\Depes Crystalline\Desktop\school\Active_Bike_Lighting_System\Radar_Core/Libraries/CMSIS/Include\core_cmSimd.h **** }
 351              	 .loc 2 254 0 discriminator 1
 352 01ca D7F80C32 	 ldr r3,[r7,#524]
 353              	.LBE217:
 354              	.LBE216:
 355              	 .loc 1 238 0 discriminator 1
 356 01ce C7F89C32 	 str r3,[r7,#668]
 239:../Dave/Generated/CMSIS_DSP/TransformFunctions/arm_cfft_radix4_q15.c **** 
 240:../Dave/Generated/CMSIS_DSP/TransformFunctions/arm_cfft_radix4_q15.c ****     /* Read yd (real), xd(imag) input */
 241:../Dave/Generated/CMSIS_DSP/TransformFunctions/arm_cfft_radix4_q15.c ****     U = _SIMD32_OFFSET(pSi3);
 357              	 .loc 1 241 0 discriminator 1
 358 01d2 D7F8A432 	 ldr r3,[r7,#676]
 359 01d6 1B68     	 ldr r3,[r3]
 360 01d8 C7F89032 	 str r3,[r7,#656]
 242:../Dave/Generated/CMSIS_DSP/TransformFunctions/arm_cfft_radix4_q15.c ****     U = __SHADD16(U, 0);
 361              	 .loc 1 242 0 discriminator 1
 362 01dc D7F89032 	 ldr r3,[r7,#656]
 363 01e0 C7F80832 	 str r3,[r7,#520]
 364 01e4 0023     	 movs r3,#0
 365 01e6 C7F80432 	 str r3,[r7,#516]
 366              	.LBB218:
 367              	.LBB219:
 253:C:\Users\Depes Crystalline\Desktop\school\Active_Bike_Lighting_System\Radar_Core/Libraries/CMSIS/Include\core_cmSimd.h ****   return(result);
 368              	 .loc 2 253 0 discriminator 1
 369 01ea D7F80832 	 ldr r3,[r7,#520]
 370 01ee D7F80422 	 ldr r2,[r7,#516]
 371              	
 372 01f2 93FA22F3 	 shadd16 r3,r3,r2
 373              	
 374              	 .thumb
 375 01f6 C7F80032 	 str r3,[r7,#512]
 254:C:\Users\Depes Crystalline\Desktop\school\Active_Bike_Lighting_System\Radar_Core/Libraries/CMSIS/Include\core_cmSimd.h **** }
 376              	 .loc 2 254 0 discriminator 1
 377 01fa D7F80032 	 ldr r3,[r7,#512]
 378              	.LBE219:
 379              	.LBE218:
 380              	 .loc 1 242 0 discriminator 1
 381 01fe C7F89032 	 str r3,[r7,#656]
 243:../Dave/Generated/CMSIS_DSP/TransformFunctions/arm_cfft_radix4_q15.c ****     U = __SHADD16(U, 0);
 382              	 .loc 1 243 0 discriminator 1
 383 0202 D7F89032 	 ldr r3,[r7,#656]
 384 0206 C7F8FC31 	 str r3,[r7,#508]
 385 020a 0023     	 movs r3,#0
 386 020c C7F8F831 	 str r3,[r7,#504]
 387              	.LBB220:
 388              	.LBB221:
 253:C:\Users\Depes Crystalline\Desktop\school\Active_Bike_Lighting_System\Radar_Core/Libraries/CMSIS/Include\core_cmSimd.h ****   return(result);
 389              	 .loc 2 253 0 discriminator 1
 390 0210 D7F8FC31 	 ldr r3,[r7,#508]
 391 0214 D7F8F821 	 ldr r2,[r7,#504]
 392              	
 393 0218 93FA22F3 	 shadd16 r3,r3,r2
 394              	
 395              	 .thumb
 396 021c C7F8F431 	 str r3,[r7,#500]
 254:C:\Users\Depes Crystalline\Desktop\school\Active_Bike_Lighting_System\Radar_Core/Libraries/CMSIS/Include\core_cmSimd.h **** }
 397              	 .loc 2 254 0 discriminator 1
 398 0220 D7F8F431 	 ldr r3,[r7,#500]
 399              	.LBE221:
 400              	.LBE220:
 401              	 .loc 1 243 0 discriminator 1
 402 0224 C7F89032 	 str r3,[r7,#656]
 244:../Dave/Generated/CMSIS_DSP/TransformFunctions/arm_cfft_radix4_q15.c **** 
 245:../Dave/Generated/CMSIS_DSP/TransformFunctions/arm_cfft_radix4_q15.c ****     /* T = packed((yb + yd), (xb + xd) ) */
 246:../Dave/Generated/CMSIS_DSP/TransformFunctions/arm_cfft_radix4_q15.c ****     T = __QADD16(T, U);
 403              	 .loc 1 246 0 discriminator 1
 404 0228 D7F89C22 	 ldr r2,[r7,#668]
 405 022c D7F89032 	 ldr r3,[r7,#656]
 406 0230 C7F8F021 	 str r2,[r7,#496]
 407 0234 C7F8EC31 	 str r3,[r7,#492]
 408              	.LBB222:
 409              	.LBB223:
 245:C:\Users\Depes Crystalline\Desktop\school\Active_Bike_Lighting_System\Radar_Core/Libraries/CMSIS/Include\core_cmSimd.h ****   return(result);
 410              	 .loc 2 245 0 discriminator 1
 411 0238 D7F8F031 	 ldr r3,[r7,#496]
 412 023c D7F8EC21 	 ldr r2,[r7,#492]
 413              	
 414 0240 93FA12F3 	 qadd16 r3,r3,r2
 415              	
 416              	 .thumb
 417 0244 C7F8E831 	 str r3,[r7,#488]
 246:C:\Users\Depes Crystalline\Desktop\school\Active_Bike_Lighting_System\Radar_Core/Libraries/CMSIS/Include\core_cmSimd.h **** }
 418              	 .loc 2 246 0 discriminator 1
 419 0248 D7F8E831 	 ldr r3,[r7,#488]
 420              	.LBE223:
 421              	.LBE222:
 422              	 .loc 1 246 0 discriminator 1
 423 024c C7F89C32 	 str r3,[r7,#668]
 247:../Dave/Generated/CMSIS_DSP/TransformFunctions/arm_cfft_radix4_q15.c **** 
 248:../Dave/Generated/CMSIS_DSP/TransformFunctions/arm_cfft_radix4_q15.c ****     /*  writing the butterfly processed i0 sample */
 249:../Dave/Generated/CMSIS_DSP/TransformFunctions/arm_cfft_radix4_q15.c ****     /* xa' = xa + xb + xc + xd */
 250:../Dave/Generated/CMSIS_DSP/TransformFunctions/arm_cfft_radix4_q15.c ****     /* ya' = ya + yb + yc + yd */
 251:../Dave/Generated/CMSIS_DSP/TransformFunctions/arm_cfft_radix4_q15.c ****     _SIMD32_OFFSET(pSi0) = __SHADD16(R, T);
 424              	 .loc 1 251 0 discriminator 1
 425 0250 D7F89422 	 ldr r2,[r7,#660]
 426 0254 D7F89C32 	 ldr r3,[r7,#668]
 427 0258 C7F8E421 	 str r2,[r7,#484]
 428 025c C7F8E031 	 str r3,[r7,#480]
 429              	.LBB224:
 430              	.LBB225:
 253:C:\Users\Depes Crystalline\Desktop\school\Active_Bike_Lighting_System\Radar_Core/Libraries/CMSIS/Include\core_cmSimd.h ****   return(result);
 431              	 .loc 2 253 0 discriminator 1
 432 0260 D7F8E431 	 ldr r3,[r7,#484]
 433 0264 D7F8E021 	 ldr r2,[r7,#480]
 434              	
 435 0268 93FA22F3 	 shadd16 r3,r3,r2
 436              	
 437              	 .thumb
 438 026c C7F8DC31 	 str r3,[r7,#476]
 254:C:\Users\Depes Crystalline\Desktop\school\Active_Bike_Lighting_System\Radar_Core/Libraries/CMSIS/Include\core_cmSimd.h **** }
 439              	 .loc 2 254 0 discriminator 1
 440 0270 D7F8DC31 	 ldr r3,[r7,#476]
 441              	.LBE225:
 442              	.LBE224:
 443              	 .loc 1 251 0 discriminator 1
 444 0274 1A46     	 mov r2,r3
 445 0276 D7F8B032 	 ldr r3,[r7,#688]
 446 027a 1A60     	 str r2,[r3]
 252:../Dave/Generated/CMSIS_DSP/TransformFunctions/arm_cfft_radix4_q15.c ****     pSi0 += 2;
 447              	 .loc 1 252 0 discriminator 1
 448 027c D7F8B032 	 ldr r3,[r7,#688]
 449 0280 0433     	 adds r3,r3,#4
 450 0282 C7F8B032 	 str r3,[r7,#688]
 253:../Dave/Generated/CMSIS_DSP/TransformFunctions/arm_cfft_radix4_q15.c **** 
 254:../Dave/Generated/CMSIS_DSP/TransformFunctions/arm_cfft_radix4_q15.c ****     /* R = packed((ya + yc) - (yb + yd), (xa + xc)- (xb + xd)) */
 255:../Dave/Generated/CMSIS_DSP/TransformFunctions/arm_cfft_radix4_q15.c ****     R = __QSUB16(R, T);
 451              	 .loc 1 255 0 discriminator 1
 452 0286 D7F89422 	 ldr r2,[r7,#660]
 453 028a D7F89C32 	 ldr r3,[r7,#668]
 454 028e C7F8D821 	 str r2,[r7,#472]
 455 0292 C7F8D431 	 str r3,[r7,#468]
 456              	.LBB226:
 457              	.LBB227:
 293:C:\Users\Depes Crystalline\Desktop\school\Active_Bike_Lighting_System\Radar_Core/Libraries/CMSIS/Include\core_cmSimd.h ****   return(result);
 458              	 .loc 2 293 0 discriminator 1
 459 0296 D7F8D831 	 ldr r3,[r7,#472]
 460 029a D7F8D421 	 ldr r2,[r7,#468]
 461              	
 462 029e D3FA12F3 	 qsub16 r3,r3,r2
 463              	
 464              	 .thumb
 465 02a2 C7F8D031 	 str r3,[r7,#464]
 466              	 .loc 2 294 0 discriminator 1
 467 02a6 D7F8D031 	 ldr r3,[r7,#464]
 468              	.LBE227:
 469              	.LBE226:
 470              	 .loc 1 255 0 discriminator 1
 471 02aa C7F89432 	 str r3,[r7,#660]
 256:../Dave/Generated/CMSIS_DSP/TransformFunctions/arm_cfft_radix4_q15.c **** 
 257:../Dave/Generated/CMSIS_DSP/TransformFunctions/arm_cfft_radix4_q15.c ****     /* co2 & si2 are read from SIMD Coefficient pointer */
 258:../Dave/Generated/CMSIS_DSP/TransformFunctions/arm_cfft_radix4_q15.c ****     C2 = _SIMD32_OFFSET(pCoef16 + (4u * ic));
 472              	 .loc 1 258 0 discriminator 1
 473 02ae D7F8C032 	 ldr r3,[r7,#704]
 474 02b2 DB00     	 lsls r3,r3,#3
 475 02b4 3A1D     	 adds r2,r7,#4
 476 02b6 1268     	 ldr r2,[r2]
 477 02b8 1344     	 add r3,r3,r2
 478 02ba 1B68     	 ldr r3,[r3]
 479 02bc C7F88C32 	 str r3,[r7,#652]
 259:../Dave/Generated/CMSIS_DSP/TransformFunctions/arm_cfft_radix4_q15.c **** 
 260:../Dave/Generated/CMSIS_DSP/TransformFunctions/arm_cfft_radix4_q15.c **** #ifndef ARM_MATH_BIG_ENDIAN
 261:../Dave/Generated/CMSIS_DSP/TransformFunctions/arm_cfft_radix4_q15.c **** 
 262:../Dave/Generated/CMSIS_DSP/TransformFunctions/arm_cfft_radix4_q15.c ****     /* xc' = (xa-xb+xc-xd)* co2 + (ya-yb+yc-yd)* (si2) */
 263:../Dave/Generated/CMSIS_DSP/TransformFunctions/arm_cfft_radix4_q15.c ****     out1 = __SMUAD(C2, R) >> 16u;
 480              	 .loc 1 263 0 discriminator 1
 481 02c0 D7F88C32 	 ldr r3,[r7,#652]
 482 02c4 D7F89422 	 ldr r2,[r7,#660]
 483 02c8 C7F8CC31 	 str r3,[r7,#460]
 484 02cc 07F5E473 	 add r3,r7,#456
 485 02d0 1A60     	 str r2,[r3]
 486              	.LBB228:
 487              	.LBB229:
 295:C:\Users\Depes Crystalline\Desktop\school\Active_Bike_Lighting_System\Radar_Core/Libraries/CMSIS/Include\core_cmSimd.h **** }
 296:C:\Users\Depes Crystalline\Desktop\school\Active_Bike_Lighting_System\Radar_Core/Libraries/CMSIS/Include\core_cmSimd.h **** 
 297:C:\Users\Depes Crystalline\Desktop\school\Active_Bike_Lighting_System\Radar_Core/Libraries/CMSIS/Include\core_cmSimd.h **** __attribute__( ( always_inline ) ) __STATIC_INLINE uint32_t __SHSUB16(uint32_t op1, uint32_t op2)
 298:C:\Users\Depes Crystalline\Desktop\school\Active_Bike_Lighting_System\Radar_Core/Libraries/CMSIS/Include\core_cmSimd.h **** {
 299:C:\Users\Depes Crystalline\Desktop\school\Active_Bike_Lighting_System\Radar_Core/Libraries/CMSIS/Include\core_cmSimd.h ****   uint32_t result;
 300:C:\Users\Depes Crystalline\Desktop\school\Active_Bike_Lighting_System\Radar_Core/Libraries/CMSIS/Include\core_cmSimd.h **** 
 301:C:\Users\Depes Crystalline\Desktop\school\Active_Bike_Lighting_System\Radar_Core/Libraries/CMSIS/Include\core_cmSimd.h ****   __ASM volatile ("shsub16 %0, %1, %2" : "=r" (result) : "r" (op1), "r" (op2) );
 302:C:\Users\Depes Crystalline\Desktop\school\Active_Bike_Lighting_System\Radar_Core/Libraries/CMSIS/Include\core_cmSimd.h ****   return(result);
 303:C:\Users\Depes Crystalline\Desktop\school\Active_Bike_Lighting_System\Radar_Core/Libraries/CMSIS/Include\core_cmSimd.h **** }
 304:C:\Users\Depes Crystalline\Desktop\school\Active_Bike_Lighting_System\Radar_Core/Libraries/CMSIS/Include\core_cmSimd.h **** 
 305:C:\Users\Depes Crystalline\Desktop\school\Active_Bike_Lighting_System\Radar_Core/Libraries/CMSIS/Include\core_cmSimd.h **** __attribute__( ( always_inline ) ) __STATIC_INLINE uint32_t __USUB16(uint32_t op1, uint32_t op2)
 306:C:\Users\Depes Crystalline\Desktop\school\Active_Bike_Lighting_System\Radar_Core/Libraries/CMSIS/Include\core_cmSimd.h **** {
 307:C:\Users\Depes Crystalline\Desktop\school\Active_Bike_Lighting_System\Radar_Core/Libraries/CMSIS/Include\core_cmSimd.h ****   uint32_t result;
 308:C:\Users\Depes Crystalline\Desktop\school\Active_Bike_Lighting_System\Radar_Core/Libraries/CMSIS/Include\core_cmSimd.h **** 
 309:C:\Users\Depes Crystalline\Desktop\school\Active_Bike_Lighting_System\Radar_Core/Libraries/CMSIS/Include\core_cmSimd.h ****   __ASM volatile ("usub16 %0, %1, %2" : "=r" (result) : "r" (op1), "r" (op2) );
 310:C:\Users\Depes Crystalline\Desktop\school\Active_Bike_Lighting_System\Radar_Core/Libraries/CMSIS/Include\core_cmSimd.h ****   return(result);
 311:C:\Users\Depes Crystalline\Desktop\school\Active_Bike_Lighting_System\Radar_Core/Libraries/CMSIS/Include\core_cmSimd.h **** }
 312:C:\Users\Depes Crystalline\Desktop\school\Active_Bike_Lighting_System\Radar_Core/Libraries/CMSIS/Include\core_cmSimd.h **** 
 313:C:\Users\Depes Crystalline\Desktop\school\Active_Bike_Lighting_System\Radar_Core/Libraries/CMSIS/Include\core_cmSimd.h **** __attribute__( ( always_inline ) ) __STATIC_INLINE uint32_t __UQSUB16(uint32_t op1, uint32_t op2)
 314:C:\Users\Depes Crystalline\Desktop\school\Active_Bike_Lighting_System\Radar_Core/Libraries/CMSIS/Include\core_cmSimd.h **** {
 315:C:\Users\Depes Crystalline\Desktop\school\Active_Bike_Lighting_System\Radar_Core/Libraries/CMSIS/Include\core_cmSimd.h ****   uint32_t result;
 316:C:\Users\Depes Crystalline\Desktop\school\Active_Bike_Lighting_System\Radar_Core/Libraries/CMSIS/Include\core_cmSimd.h **** 
 317:C:\Users\Depes Crystalline\Desktop\school\Active_Bike_Lighting_System\Radar_Core/Libraries/CMSIS/Include\core_cmSimd.h ****   __ASM volatile ("uqsub16 %0, %1, %2" : "=r" (result) : "r" (op1), "r" (op2) );
 318:C:\Users\Depes Crystalline\Desktop\school\Active_Bike_Lighting_System\Radar_Core/Libraries/CMSIS/Include\core_cmSimd.h ****   return(result);
 319:C:\Users\Depes Crystalline\Desktop\school\Active_Bike_Lighting_System\Radar_Core/Libraries/CMSIS/Include\core_cmSimd.h **** }
 320:C:\Users\Depes Crystalline\Desktop\school\Active_Bike_Lighting_System\Radar_Core/Libraries/CMSIS/Include\core_cmSimd.h **** 
 321:C:\Users\Depes Crystalline\Desktop\school\Active_Bike_Lighting_System\Radar_Core/Libraries/CMSIS/Include\core_cmSimd.h **** __attribute__( ( always_inline ) ) __STATIC_INLINE uint32_t __UHSUB16(uint32_t op1, uint32_t op2)
 322:C:\Users\Depes Crystalline\Desktop\school\Active_Bike_Lighting_System\Radar_Core/Libraries/CMSIS/Include\core_cmSimd.h **** {
 323:C:\Users\Depes Crystalline\Desktop\school\Active_Bike_Lighting_System\Radar_Core/Libraries/CMSIS/Include\core_cmSimd.h ****   uint32_t result;
 324:C:\Users\Depes Crystalline\Desktop\school\Active_Bike_Lighting_System\Radar_Core/Libraries/CMSIS/Include\core_cmSimd.h **** 
 325:C:\Users\Depes Crystalline\Desktop\school\Active_Bike_Lighting_System\Radar_Core/Libraries/CMSIS/Include\core_cmSimd.h ****   __ASM volatile ("uhsub16 %0, %1, %2" : "=r" (result) : "r" (op1), "r" (op2) );
 326:C:\Users\Depes Crystalline\Desktop\school\Active_Bike_Lighting_System\Radar_Core/Libraries/CMSIS/Include\core_cmSimd.h ****   return(result);
 327:C:\Users\Depes Crystalline\Desktop\school\Active_Bike_Lighting_System\Radar_Core/Libraries/CMSIS/Include\core_cmSimd.h **** }
 328:C:\Users\Depes Crystalline\Desktop\school\Active_Bike_Lighting_System\Radar_Core/Libraries/CMSIS/Include\core_cmSimd.h **** 
 329:C:\Users\Depes Crystalline\Desktop\school\Active_Bike_Lighting_System\Radar_Core/Libraries/CMSIS/Include\core_cmSimd.h **** __attribute__( ( always_inline ) ) __STATIC_INLINE uint32_t __SASX(uint32_t op1, uint32_t op2)
 330:C:\Users\Depes Crystalline\Desktop\school\Active_Bike_Lighting_System\Radar_Core/Libraries/CMSIS/Include\core_cmSimd.h **** {
 331:C:\Users\Depes Crystalline\Desktop\school\Active_Bike_Lighting_System\Radar_Core/Libraries/CMSIS/Include\core_cmSimd.h ****   uint32_t result;
 332:C:\Users\Depes Crystalline\Desktop\school\Active_Bike_Lighting_System\Radar_Core/Libraries/CMSIS/Include\core_cmSimd.h **** 
 333:C:\Users\Depes Crystalline\Desktop\school\Active_Bike_Lighting_System\Radar_Core/Libraries/CMSIS/Include\core_cmSimd.h ****   __ASM volatile ("sasx %0, %1, %2" : "=r" (result) : "r" (op1), "r" (op2) );
 334:C:\Users\Depes Crystalline\Desktop\school\Active_Bike_Lighting_System\Radar_Core/Libraries/CMSIS/Include\core_cmSimd.h ****   return(result);
 335:C:\Users\Depes Crystalline\Desktop\school\Active_Bike_Lighting_System\Radar_Core/Libraries/CMSIS/Include\core_cmSimd.h **** }
 336:C:\Users\Depes Crystalline\Desktop\school\Active_Bike_Lighting_System\Radar_Core/Libraries/CMSIS/Include\core_cmSimd.h **** 
 337:C:\Users\Depes Crystalline\Desktop\school\Active_Bike_Lighting_System\Radar_Core/Libraries/CMSIS/Include\core_cmSimd.h **** __attribute__( ( always_inline ) ) __STATIC_INLINE uint32_t __QASX(uint32_t op1, uint32_t op2)
 338:C:\Users\Depes Crystalline\Desktop\school\Active_Bike_Lighting_System\Radar_Core/Libraries/CMSIS/Include\core_cmSimd.h **** {
 339:C:\Users\Depes Crystalline\Desktop\school\Active_Bike_Lighting_System\Radar_Core/Libraries/CMSIS/Include\core_cmSimd.h ****   uint32_t result;
 340:C:\Users\Depes Crystalline\Desktop\school\Active_Bike_Lighting_System\Radar_Core/Libraries/CMSIS/Include\core_cmSimd.h **** 
 341:C:\Users\Depes Crystalline\Desktop\school\Active_Bike_Lighting_System\Radar_Core/Libraries/CMSIS/Include\core_cmSimd.h ****   __ASM volatile ("qasx %0, %1, %2" : "=r" (result) : "r" (op1), "r" (op2) );
 342:C:\Users\Depes Crystalline\Desktop\school\Active_Bike_Lighting_System\Radar_Core/Libraries/CMSIS/Include\core_cmSimd.h ****   return(result);
 343:C:\Users\Depes Crystalline\Desktop\school\Active_Bike_Lighting_System\Radar_Core/Libraries/CMSIS/Include\core_cmSimd.h **** }
 344:C:\Users\Depes Crystalline\Desktop\school\Active_Bike_Lighting_System\Radar_Core/Libraries/CMSIS/Include\core_cmSimd.h **** 
 345:C:\Users\Depes Crystalline\Desktop\school\Active_Bike_Lighting_System\Radar_Core/Libraries/CMSIS/Include\core_cmSimd.h **** __attribute__( ( always_inline ) ) __STATIC_INLINE uint32_t __SHASX(uint32_t op1, uint32_t op2)
 346:C:\Users\Depes Crystalline\Desktop\school\Active_Bike_Lighting_System\Radar_Core/Libraries/CMSIS/Include\core_cmSimd.h **** {
 347:C:\Users\Depes Crystalline\Desktop\school\Active_Bike_Lighting_System\Radar_Core/Libraries/CMSIS/Include\core_cmSimd.h ****   uint32_t result;
 348:C:\Users\Depes Crystalline\Desktop\school\Active_Bike_Lighting_System\Radar_Core/Libraries/CMSIS/Include\core_cmSimd.h **** 
 349:C:\Users\Depes Crystalline\Desktop\school\Active_Bike_Lighting_System\Radar_Core/Libraries/CMSIS/Include\core_cmSimd.h ****   __ASM volatile ("shasx %0, %1, %2" : "=r" (result) : "r" (op1), "r" (op2) );
 350:C:\Users\Depes Crystalline\Desktop\school\Active_Bike_Lighting_System\Radar_Core/Libraries/CMSIS/Include\core_cmSimd.h ****   return(result);
 351:C:\Users\Depes Crystalline\Desktop\school\Active_Bike_Lighting_System\Radar_Core/Libraries/CMSIS/Include\core_cmSimd.h **** }
 352:C:\Users\Depes Crystalline\Desktop\school\Active_Bike_Lighting_System\Radar_Core/Libraries/CMSIS/Include\core_cmSimd.h **** 
 353:C:\Users\Depes Crystalline\Desktop\school\Active_Bike_Lighting_System\Radar_Core/Libraries/CMSIS/Include\core_cmSimd.h **** __attribute__( ( always_inline ) ) __STATIC_INLINE uint32_t __UASX(uint32_t op1, uint32_t op2)
 354:C:\Users\Depes Crystalline\Desktop\school\Active_Bike_Lighting_System\Radar_Core/Libraries/CMSIS/Include\core_cmSimd.h **** {
 355:C:\Users\Depes Crystalline\Desktop\school\Active_Bike_Lighting_System\Radar_Core/Libraries/CMSIS/Include\core_cmSimd.h ****   uint32_t result;
 356:C:\Users\Depes Crystalline\Desktop\school\Active_Bike_Lighting_System\Radar_Core/Libraries/CMSIS/Include\core_cmSimd.h **** 
 357:C:\Users\Depes Crystalline\Desktop\school\Active_Bike_Lighting_System\Radar_Core/Libraries/CMSIS/Include\core_cmSimd.h ****   __ASM volatile ("uasx %0, %1, %2" : "=r" (result) : "r" (op1), "r" (op2) );
 358:C:\Users\Depes Crystalline\Desktop\school\Active_Bike_Lighting_System\Radar_Core/Libraries/CMSIS/Include\core_cmSimd.h ****   return(result);
 359:C:\Users\Depes Crystalline\Desktop\school\Active_Bike_Lighting_System\Radar_Core/Libraries/CMSIS/Include\core_cmSimd.h **** }
 360:C:\Users\Depes Crystalline\Desktop\school\Active_Bike_Lighting_System\Radar_Core/Libraries/CMSIS/Include\core_cmSimd.h **** 
 361:C:\Users\Depes Crystalline\Desktop\school\Active_Bike_Lighting_System\Radar_Core/Libraries/CMSIS/Include\core_cmSimd.h **** __attribute__( ( always_inline ) ) __STATIC_INLINE uint32_t __UQASX(uint32_t op1, uint32_t op2)
 362:C:\Users\Depes Crystalline\Desktop\school\Active_Bike_Lighting_System\Radar_Core/Libraries/CMSIS/Include\core_cmSimd.h **** {
 363:C:\Users\Depes Crystalline\Desktop\school\Active_Bike_Lighting_System\Radar_Core/Libraries/CMSIS/Include\core_cmSimd.h ****   uint32_t result;
 364:C:\Users\Depes Crystalline\Desktop\school\Active_Bike_Lighting_System\Radar_Core/Libraries/CMSIS/Include\core_cmSimd.h **** 
 365:C:\Users\Depes Crystalline\Desktop\school\Active_Bike_Lighting_System\Radar_Core/Libraries/CMSIS/Include\core_cmSimd.h ****   __ASM volatile ("uqasx %0, %1, %2" : "=r" (result) : "r" (op1), "r" (op2) );
 366:C:\Users\Depes Crystalline\Desktop\school\Active_Bike_Lighting_System\Radar_Core/Libraries/CMSIS/Include\core_cmSimd.h ****   return(result);
 367:C:\Users\Depes Crystalline\Desktop\school\Active_Bike_Lighting_System\Radar_Core/Libraries/CMSIS/Include\core_cmSimd.h **** }
 368:C:\Users\Depes Crystalline\Desktop\school\Active_Bike_Lighting_System\Radar_Core/Libraries/CMSIS/Include\core_cmSimd.h **** 
 369:C:\Users\Depes Crystalline\Desktop\school\Active_Bike_Lighting_System\Radar_Core/Libraries/CMSIS/Include\core_cmSimd.h **** __attribute__( ( always_inline ) ) __STATIC_INLINE uint32_t __UHASX(uint32_t op1, uint32_t op2)
 370:C:\Users\Depes Crystalline\Desktop\school\Active_Bike_Lighting_System\Radar_Core/Libraries/CMSIS/Include\core_cmSimd.h **** {
 371:C:\Users\Depes Crystalline\Desktop\school\Active_Bike_Lighting_System\Radar_Core/Libraries/CMSIS/Include\core_cmSimd.h ****   uint32_t result;
 372:C:\Users\Depes Crystalline\Desktop\school\Active_Bike_Lighting_System\Radar_Core/Libraries/CMSIS/Include\core_cmSimd.h **** 
 373:C:\Users\Depes Crystalline\Desktop\school\Active_Bike_Lighting_System\Radar_Core/Libraries/CMSIS/Include\core_cmSimd.h ****   __ASM volatile ("uhasx %0, %1, %2" : "=r" (result) : "r" (op1), "r" (op2) );
 374:C:\Users\Depes Crystalline\Desktop\school\Active_Bike_Lighting_System\Radar_Core/Libraries/CMSIS/Include\core_cmSimd.h ****   return(result);
 375:C:\Users\Depes Crystalline\Desktop\school\Active_Bike_Lighting_System\Radar_Core/Libraries/CMSIS/Include\core_cmSimd.h **** }
 376:C:\Users\Depes Crystalline\Desktop\school\Active_Bike_Lighting_System\Radar_Core/Libraries/CMSIS/Include\core_cmSimd.h **** 
 377:C:\Users\Depes Crystalline\Desktop\school\Active_Bike_Lighting_System\Radar_Core/Libraries/CMSIS/Include\core_cmSimd.h **** __attribute__( ( always_inline ) ) __STATIC_INLINE uint32_t __SSAX(uint32_t op1, uint32_t op2)
 378:C:\Users\Depes Crystalline\Desktop\school\Active_Bike_Lighting_System\Radar_Core/Libraries/CMSIS/Include\core_cmSimd.h **** {
 379:C:\Users\Depes Crystalline\Desktop\school\Active_Bike_Lighting_System\Radar_Core/Libraries/CMSIS/Include\core_cmSimd.h ****   uint32_t result;
 380:C:\Users\Depes Crystalline\Desktop\school\Active_Bike_Lighting_System\Radar_Core/Libraries/CMSIS/Include\core_cmSimd.h **** 
 381:C:\Users\Depes Crystalline\Desktop\school\Active_Bike_Lighting_System\Radar_Core/Libraries/CMSIS/Include\core_cmSimd.h ****   __ASM volatile ("ssax %0, %1, %2" : "=r" (result) : "r" (op1), "r" (op2) );
 382:C:\Users\Depes Crystalline\Desktop\school\Active_Bike_Lighting_System\Radar_Core/Libraries/CMSIS/Include\core_cmSimd.h ****   return(result);
 383:C:\Users\Depes Crystalline\Desktop\school\Active_Bike_Lighting_System\Radar_Core/Libraries/CMSIS/Include\core_cmSimd.h **** }
 384:C:\Users\Depes Crystalline\Desktop\school\Active_Bike_Lighting_System\Radar_Core/Libraries/CMSIS/Include\core_cmSimd.h **** 
 385:C:\Users\Depes Crystalline\Desktop\school\Active_Bike_Lighting_System\Radar_Core/Libraries/CMSIS/Include\core_cmSimd.h **** __attribute__( ( always_inline ) ) __STATIC_INLINE uint32_t __QSAX(uint32_t op1, uint32_t op2)
 386:C:\Users\Depes Crystalline\Desktop\school\Active_Bike_Lighting_System\Radar_Core/Libraries/CMSIS/Include\core_cmSimd.h **** {
 387:C:\Users\Depes Crystalline\Desktop\school\Active_Bike_Lighting_System\Radar_Core/Libraries/CMSIS/Include\core_cmSimd.h ****   uint32_t result;
 388:C:\Users\Depes Crystalline\Desktop\school\Active_Bike_Lighting_System\Radar_Core/Libraries/CMSIS/Include\core_cmSimd.h **** 
 389:C:\Users\Depes Crystalline\Desktop\school\Active_Bike_Lighting_System\Radar_Core/Libraries/CMSIS/Include\core_cmSimd.h ****   __ASM volatile ("qsax %0, %1, %2" : "=r" (result) : "r" (op1), "r" (op2) );
 390:C:\Users\Depes Crystalline\Desktop\school\Active_Bike_Lighting_System\Radar_Core/Libraries/CMSIS/Include\core_cmSimd.h ****   return(result);
 391:C:\Users\Depes Crystalline\Desktop\school\Active_Bike_Lighting_System\Radar_Core/Libraries/CMSIS/Include\core_cmSimd.h **** }
 392:C:\Users\Depes Crystalline\Desktop\school\Active_Bike_Lighting_System\Radar_Core/Libraries/CMSIS/Include\core_cmSimd.h **** 
 393:C:\Users\Depes Crystalline\Desktop\school\Active_Bike_Lighting_System\Radar_Core/Libraries/CMSIS/Include\core_cmSimd.h **** __attribute__( ( always_inline ) ) __STATIC_INLINE uint32_t __SHSAX(uint32_t op1, uint32_t op2)
 394:C:\Users\Depes Crystalline\Desktop\school\Active_Bike_Lighting_System\Radar_Core/Libraries/CMSIS/Include\core_cmSimd.h **** {
 395:C:\Users\Depes Crystalline\Desktop\school\Active_Bike_Lighting_System\Radar_Core/Libraries/CMSIS/Include\core_cmSimd.h ****   uint32_t result;
 396:C:\Users\Depes Crystalline\Desktop\school\Active_Bike_Lighting_System\Radar_Core/Libraries/CMSIS/Include\core_cmSimd.h **** 
 397:C:\Users\Depes Crystalline\Desktop\school\Active_Bike_Lighting_System\Radar_Core/Libraries/CMSIS/Include\core_cmSimd.h ****   __ASM volatile ("shsax %0, %1, %2" : "=r" (result) : "r" (op1), "r" (op2) );
 398:C:\Users\Depes Crystalline\Desktop\school\Active_Bike_Lighting_System\Radar_Core/Libraries/CMSIS/Include\core_cmSimd.h ****   return(result);
 399:C:\Users\Depes Crystalline\Desktop\school\Active_Bike_Lighting_System\Radar_Core/Libraries/CMSIS/Include\core_cmSimd.h **** }
 400:C:\Users\Depes Crystalline\Desktop\school\Active_Bike_Lighting_System\Radar_Core/Libraries/CMSIS/Include\core_cmSimd.h **** 
 401:C:\Users\Depes Crystalline\Desktop\school\Active_Bike_Lighting_System\Radar_Core/Libraries/CMSIS/Include\core_cmSimd.h **** __attribute__( ( always_inline ) ) __STATIC_INLINE uint32_t __USAX(uint32_t op1, uint32_t op2)
 402:C:\Users\Depes Crystalline\Desktop\school\Active_Bike_Lighting_System\Radar_Core/Libraries/CMSIS/Include\core_cmSimd.h **** {
 403:C:\Users\Depes Crystalline\Desktop\school\Active_Bike_Lighting_System\Radar_Core/Libraries/CMSIS/Include\core_cmSimd.h ****   uint32_t result;
 404:C:\Users\Depes Crystalline\Desktop\school\Active_Bike_Lighting_System\Radar_Core/Libraries/CMSIS/Include\core_cmSimd.h **** 
 405:C:\Users\Depes Crystalline\Desktop\school\Active_Bike_Lighting_System\Radar_Core/Libraries/CMSIS/Include\core_cmSimd.h ****   __ASM volatile ("usax %0, %1, %2" : "=r" (result) : "r" (op1), "r" (op2) );
 406:C:\Users\Depes Crystalline\Desktop\school\Active_Bike_Lighting_System\Radar_Core/Libraries/CMSIS/Include\core_cmSimd.h ****   return(result);
 407:C:\Users\Depes Crystalline\Desktop\school\Active_Bike_Lighting_System\Radar_Core/Libraries/CMSIS/Include\core_cmSimd.h **** }
 408:C:\Users\Depes Crystalline\Desktop\school\Active_Bike_Lighting_System\Radar_Core/Libraries/CMSIS/Include\core_cmSimd.h **** 
 409:C:\Users\Depes Crystalline\Desktop\school\Active_Bike_Lighting_System\Radar_Core/Libraries/CMSIS/Include\core_cmSimd.h **** __attribute__( ( always_inline ) ) __STATIC_INLINE uint32_t __UQSAX(uint32_t op1, uint32_t op2)
 410:C:\Users\Depes Crystalline\Desktop\school\Active_Bike_Lighting_System\Radar_Core/Libraries/CMSIS/Include\core_cmSimd.h **** {
 411:C:\Users\Depes Crystalline\Desktop\school\Active_Bike_Lighting_System\Radar_Core/Libraries/CMSIS/Include\core_cmSimd.h ****   uint32_t result;
 412:C:\Users\Depes Crystalline\Desktop\school\Active_Bike_Lighting_System\Radar_Core/Libraries/CMSIS/Include\core_cmSimd.h **** 
 413:C:\Users\Depes Crystalline\Desktop\school\Active_Bike_Lighting_System\Radar_Core/Libraries/CMSIS/Include\core_cmSimd.h ****   __ASM volatile ("uqsax %0, %1, %2" : "=r" (result) : "r" (op1), "r" (op2) );
 414:C:\Users\Depes Crystalline\Desktop\school\Active_Bike_Lighting_System\Radar_Core/Libraries/CMSIS/Include\core_cmSimd.h ****   return(result);
 415:C:\Users\Depes Crystalline\Desktop\school\Active_Bike_Lighting_System\Radar_Core/Libraries/CMSIS/Include\core_cmSimd.h **** }
 416:C:\Users\Depes Crystalline\Desktop\school\Active_Bike_Lighting_System\Radar_Core/Libraries/CMSIS/Include\core_cmSimd.h **** 
 417:C:\Users\Depes Crystalline\Desktop\school\Active_Bike_Lighting_System\Radar_Core/Libraries/CMSIS/Include\core_cmSimd.h **** __attribute__( ( always_inline ) ) __STATIC_INLINE uint32_t __UHSAX(uint32_t op1, uint32_t op2)
 418:C:\Users\Depes Crystalline\Desktop\school\Active_Bike_Lighting_System\Radar_Core/Libraries/CMSIS/Include\core_cmSimd.h **** {
 419:C:\Users\Depes Crystalline\Desktop\school\Active_Bike_Lighting_System\Radar_Core/Libraries/CMSIS/Include\core_cmSimd.h ****   uint32_t result;
 420:C:\Users\Depes Crystalline\Desktop\school\Active_Bike_Lighting_System\Radar_Core/Libraries/CMSIS/Include\core_cmSimd.h **** 
 421:C:\Users\Depes Crystalline\Desktop\school\Active_Bike_Lighting_System\Radar_Core/Libraries/CMSIS/Include\core_cmSimd.h ****   __ASM volatile ("uhsax %0, %1, %2" : "=r" (result) : "r" (op1), "r" (op2) );
 422:C:\Users\Depes Crystalline\Desktop\school\Active_Bike_Lighting_System\Radar_Core/Libraries/CMSIS/Include\core_cmSimd.h ****   return(result);
 423:C:\Users\Depes Crystalline\Desktop\school\Active_Bike_Lighting_System\Radar_Core/Libraries/CMSIS/Include\core_cmSimd.h **** }
 424:C:\Users\Depes Crystalline\Desktop\school\Active_Bike_Lighting_System\Radar_Core/Libraries/CMSIS/Include\core_cmSimd.h **** 
 425:C:\Users\Depes Crystalline\Desktop\school\Active_Bike_Lighting_System\Radar_Core/Libraries/CMSIS/Include\core_cmSimd.h **** __attribute__( ( always_inline ) ) __STATIC_INLINE uint32_t __USAD8(uint32_t op1, uint32_t op2)
 426:C:\Users\Depes Crystalline\Desktop\school\Active_Bike_Lighting_System\Radar_Core/Libraries/CMSIS/Include\core_cmSimd.h **** {
 427:C:\Users\Depes Crystalline\Desktop\school\Active_Bike_Lighting_System\Radar_Core/Libraries/CMSIS/Include\core_cmSimd.h ****   uint32_t result;
 428:C:\Users\Depes Crystalline\Desktop\school\Active_Bike_Lighting_System\Radar_Core/Libraries/CMSIS/Include\core_cmSimd.h **** 
 429:C:\Users\Depes Crystalline\Desktop\school\Active_Bike_Lighting_System\Radar_Core/Libraries/CMSIS/Include\core_cmSimd.h ****   __ASM volatile ("usad8 %0, %1, %2" : "=r" (result) : "r" (op1), "r" (op2) );
 430:C:\Users\Depes Crystalline\Desktop\school\Active_Bike_Lighting_System\Radar_Core/Libraries/CMSIS/Include\core_cmSimd.h ****   return(result);
 431:C:\Users\Depes Crystalline\Desktop\school\Active_Bike_Lighting_System\Radar_Core/Libraries/CMSIS/Include\core_cmSimd.h **** }
 432:C:\Users\Depes Crystalline\Desktop\school\Active_Bike_Lighting_System\Radar_Core/Libraries/CMSIS/Include\core_cmSimd.h **** 
 433:C:\Users\Depes Crystalline\Desktop\school\Active_Bike_Lighting_System\Radar_Core/Libraries/CMSIS/Include\core_cmSimd.h **** __attribute__( ( always_inline ) ) __STATIC_INLINE uint32_t __USADA8(uint32_t op1, uint32_t op2, ui
 434:C:\Users\Depes Crystalline\Desktop\school\Active_Bike_Lighting_System\Radar_Core/Libraries/CMSIS/Include\core_cmSimd.h **** {
 435:C:\Users\Depes Crystalline\Desktop\school\Active_Bike_Lighting_System\Radar_Core/Libraries/CMSIS/Include\core_cmSimd.h ****   uint32_t result;
 436:C:\Users\Depes Crystalline\Desktop\school\Active_Bike_Lighting_System\Radar_Core/Libraries/CMSIS/Include\core_cmSimd.h **** 
 437:C:\Users\Depes Crystalline\Desktop\school\Active_Bike_Lighting_System\Radar_Core/Libraries/CMSIS/Include\core_cmSimd.h ****   __ASM volatile ("usada8 %0, %1, %2, %3" : "=r" (result) : "r" (op1), "r" (op2), "r" (op3) );
 438:C:\Users\Depes Crystalline\Desktop\school\Active_Bike_Lighting_System\Radar_Core/Libraries/CMSIS/Include\core_cmSimd.h ****   return(result);
 439:C:\Users\Depes Crystalline\Desktop\school\Active_Bike_Lighting_System\Radar_Core/Libraries/CMSIS/Include\core_cmSimd.h **** }
 440:C:\Users\Depes Crystalline\Desktop\school\Active_Bike_Lighting_System\Radar_Core/Libraries/CMSIS/Include\core_cmSimd.h **** 
 441:C:\Users\Depes Crystalline\Desktop\school\Active_Bike_Lighting_System\Radar_Core/Libraries/CMSIS/Include\core_cmSimd.h **** #define __SSAT16(ARG1,ARG2) \
 442:C:\Users\Depes Crystalline\Desktop\school\Active_Bike_Lighting_System\Radar_Core/Libraries/CMSIS/Include\core_cmSimd.h **** ({                          \
 443:C:\Users\Depes Crystalline\Desktop\school\Active_Bike_Lighting_System\Radar_Core/Libraries/CMSIS/Include\core_cmSimd.h ****   uint32_t __RES, __ARG1 = (ARG1); \
 444:C:\Users\Depes Crystalline\Desktop\school\Active_Bike_Lighting_System\Radar_Core/Libraries/CMSIS/Include\core_cmSimd.h ****   __ASM ("ssat16 %0, %1, %2" : "=r" (__RES) :  "I" (ARG2), "r" (__ARG1) ); \
 445:C:\Users\Depes Crystalline\Desktop\school\Active_Bike_Lighting_System\Radar_Core/Libraries/CMSIS/Include\core_cmSimd.h ****   __RES; \
 446:C:\Users\Depes Crystalline\Desktop\school\Active_Bike_Lighting_System\Radar_Core/Libraries/CMSIS/Include\core_cmSimd.h ****  })
 447:C:\Users\Depes Crystalline\Desktop\school\Active_Bike_Lighting_System\Radar_Core/Libraries/CMSIS/Include\core_cmSimd.h **** 
 448:C:\Users\Depes Crystalline\Desktop\school\Active_Bike_Lighting_System\Radar_Core/Libraries/CMSIS/Include\core_cmSimd.h **** #define __USAT16(ARG1,ARG2) \
 449:C:\Users\Depes Crystalline\Desktop\school\Active_Bike_Lighting_System\Radar_Core/Libraries/CMSIS/Include\core_cmSimd.h **** ({                          \
 450:C:\Users\Depes Crystalline\Desktop\school\Active_Bike_Lighting_System\Radar_Core/Libraries/CMSIS/Include\core_cmSimd.h ****   uint32_t __RES, __ARG1 = (ARG1); \
 451:C:\Users\Depes Crystalline\Desktop\school\Active_Bike_Lighting_System\Radar_Core/Libraries/CMSIS/Include\core_cmSimd.h ****   __ASM ("usat16 %0, %1, %2" : "=r" (__RES) :  "I" (ARG2), "r" (__ARG1) ); \
 452:C:\Users\Depes Crystalline\Desktop\school\Active_Bike_Lighting_System\Radar_Core/Libraries/CMSIS/Include\core_cmSimd.h ****   __RES; \
 453:C:\Users\Depes Crystalline\Desktop\school\Active_Bike_Lighting_System\Radar_Core/Libraries/CMSIS/Include\core_cmSimd.h ****  })
 454:C:\Users\Depes Crystalline\Desktop\school\Active_Bike_Lighting_System\Radar_Core/Libraries/CMSIS/Include\core_cmSimd.h **** 
 455:C:\Users\Depes Crystalline\Desktop\school\Active_Bike_Lighting_System\Radar_Core/Libraries/CMSIS/Include\core_cmSimd.h **** __attribute__( ( always_inline ) ) __STATIC_INLINE uint32_t __UXTB16(uint32_t op1)
 456:C:\Users\Depes Crystalline\Desktop\school\Active_Bike_Lighting_System\Radar_Core/Libraries/CMSIS/Include\core_cmSimd.h **** {
 457:C:\Users\Depes Crystalline\Desktop\school\Active_Bike_Lighting_System\Radar_Core/Libraries/CMSIS/Include\core_cmSimd.h ****   uint32_t result;
 458:C:\Users\Depes Crystalline\Desktop\school\Active_Bike_Lighting_System\Radar_Core/Libraries/CMSIS/Include\core_cmSimd.h **** 
 459:C:\Users\Depes Crystalline\Desktop\school\Active_Bike_Lighting_System\Radar_Core/Libraries/CMSIS/Include\core_cmSimd.h ****   __ASM volatile ("uxtb16 %0, %1" : "=r" (result) : "r" (op1));
 460:C:\Users\Depes Crystalline\Desktop\school\Active_Bike_Lighting_System\Radar_Core/Libraries/CMSIS/Include\core_cmSimd.h ****   return(result);
 461:C:\Users\Depes Crystalline\Desktop\school\Active_Bike_Lighting_System\Radar_Core/Libraries/CMSIS/Include\core_cmSimd.h **** }
 462:C:\Users\Depes Crystalline\Desktop\school\Active_Bike_Lighting_System\Radar_Core/Libraries/CMSIS/Include\core_cmSimd.h **** 
 463:C:\Users\Depes Crystalline\Desktop\school\Active_Bike_Lighting_System\Radar_Core/Libraries/CMSIS/Include\core_cmSimd.h **** __attribute__( ( always_inline ) ) __STATIC_INLINE uint32_t __UXTAB16(uint32_t op1, uint32_t op2)
 464:C:\Users\Depes Crystalline\Desktop\school\Active_Bike_Lighting_System\Radar_Core/Libraries/CMSIS/Include\core_cmSimd.h **** {
 465:C:\Users\Depes Crystalline\Desktop\school\Active_Bike_Lighting_System\Radar_Core/Libraries/CMSIS/Include\core_cmSimd.h ****   uint32_t result;
 466:C:\Users\Depes Crystalline\Desktop\school\Active_Bike_Lighting_System\Radar_Core/Libraries/CMSIS/Include\core_cmSimd.h **** 
 467:C:\Users\Depes Crystalline\Desktop\school\Active_Bike_Lighting_System\Radar_Core/Libraries/CMSIS/Include\core_cmSimd.h ****   __ASM volatile ("uxtab16 %0, %1, %2" : "=r" (result) : "r" (op1), "r" (op2) );
 468:C:\Users\Depes Crystalline\Desktop\school\Active_Bike_Lighting_System\Radar_Core/Libraries/CMSIS/Include\core_cmSimd.h ****   return(result);
 469:C:\Users\Depes Crystalline\Desktop\school\Active_Bike_Lighting_System\Radar_Core/Libraries/CMSIS/Include\core_cmSimd.h **** }
 470:C:\Users\Depes Crystalline\Desktop\school\Active_Bike_Lighting_System\Radar_Core/Libraries/CMSIS/Include\core_cmSimd.h **** 
 471:C:\Users\Depes Crystalline\Desktop\school\Active_Bike_Lighting_System\Radar_Core/Libraries/CMSIS/Include\core_cmSimd.h **** __attribute__( ( always_inline ) ) __STATIC_INLINE uint32_t __SXTB16(uint32_t op1)
 472:C:\Users\Depes Crystalline\Desktop\school\Active_Bike_Lighting_System\Radar_Core/Libraries/CMSIS/Include\core_cmSimd.h **** {
 473:C:\Users\Depes Crystalline\Desktop\school\Active_Bike_Lighting_System\Radar_Core/Libraries/CMSIS/Include\core_cmSimd.h ****   uint32_t result;
 474:C:\Users\Depes Crystalline\Desktop\school\Active_Bike_Lighting_System\Radar_Core/Libraries/CMSIS/Include\core_cmSimd.h **** 
 475:C:\Users\Depes Crystalline\Desktop\school\Active_Bike_Lighting_System\Radar_Core/Libraries/CMSIS/Include\core_cmSimd.h ****   __ASM volatile ("sxtb16 %0, %1" : "=r" (result) : "r" (op1));
 476:C:\Users\Depes Crystalline\Desktop\school\Active_Bike_Lighting_System\Radar_Core/Libraries/CMSIS/Include\core_cmSimd.h ****   return(result);
 477:C:\Users\Depes Crystalline\Desktop\school\Active_Bike_Lighting_System\Radar_Core/Libraries/CMSIS/Include\core_cmSimd.h **** }
 478:C:\Users\Depes Crystalline\Desktop\school\Active_Bike_Lighting_System\Radar_Core/Libraries/CMSIS/Include\core_cmSimd.h **** 
 479:C:\Users\Depes Crystalline\Desktop\school\Active_Bike_Lighting_System\Radar_Core/Libraries/CMSIS/Include\core_cmSimd.h **** __attribute__( ( always_inline ) ) __STATIC_INLINE uint32_t __SXTAB16(uint32_t op1, uint32_t op2)
 480:C:\Users\Depes Crystalline\Desktop\school\Active_Bike_Lighting_System\Radar_Core/Libraries/CMSIS/Include\core_cmSimd.h **** {
 481:C:\Users\Depes Crystalline\Desktop\school\Active_Bike_Lighting_System\Radar_Core/Libraries/CMSIS/Include\core_cmSimd.h ****   uint32_t result;
 482:C:\Users\Depes Crystalline\Desktop\school\Active_Bike_Lighting_System\Radar_Core/Libraries/CMSIS/Include\core_cmSimd.h **** 
 483:C:\Users\Depes Crystalline\Desktop\school\Active_Bike_Lighting_System\Radar_Core/Libraries/CMSIS/Include\core_cmSimd.h ****   __ASM volatile ("sxtab16 %0, %1, %2" : "=r" (result) : "r" (op1), "r" (op2) );
 484:C:\Users\Depes Crystalline\Desktop\school\Active_Bike_Lighting_System\Radar_Core/Libraries/CMSIS/Include\core_cmSimd.h ****   return(result);
 485:C:\Users\Depes Crystalline\Desktop\school\Active_Bike_Lighting_System\Radar_Core/Libraries/CMSIS/Include\core_cmSimd.h **** }
 486:C:\Users\Depes Crystalline\Desktop\school\Active_Bike_Lighting_System\Radar_Core/Libraries/CMSIS/Include\core_cmSimd.h **** 
 487:C:\Users\Depes Crystalline\Desktop\school\Active_Bike_Lighting_System\Radar_Core/Libraries/CMSIS/Include\core_cmSimd.h **** __attribute__( ( always_inline ) ) __STATIC_INLINE uint32_t __SMUAD  (uint32_t op1, uint32_t op2)
 488:C:\Users\Depes Crystalline\Desktop\school\Active_Bike_Lighting_System\Radar_Core/Libraries/CMSIS/Include\core_cmSimd.h **** {
 489:C:\Users\Depes Crystalline\Desktop\school\Active_Bike_Lighting_System\Radar_Core/Libraries/CMSIS/Include\core_cmSimd.h ****   uint32_t result;
 490:C:\Users\Depes Crystalline\Desktop\school\Active_Bike_Lighting_System\Radar_Core/Libraries/CMSIS/Include\core_cmSimd.h **** 
 491:C:\Users\Depes Crystalline\Desktop\school\Active_Bike_Lighting_System\Radar_Core/Libraries/CMSIS/Include\core_cmSimd.h ****   __ASM volatile ("smuad %0, %1, %2" : "=r" (result) : "r" (op1), "r" (op2) );
 488              	 .loc 2 491 0 discriminator 1
 489 02d2 D7F8CC31 	 ldr r3,[r7,#460]
 490 02d6 07F5E472 	 add r2,r7,#456
 491 02da 1268     	 ldr r2,[r2]
 492              	
 493 02dc 23FB02F2 	 smuad r2,r3,r2
 494              	
 495              	 .thumb
 496 02e0 07F5E273 	 add r3,r7,#452
 497 02e4 1A60     	 str r2,[r3]
 492:C:\Users\Depes Crystalline\Desktop\school\Active_Bike_Lighting_System\Radar_Core/Libraries/CMSIS/Include\core_cmSimd.h ****   return(result);
 498              	 .loc 2 492 0 discriminator 1
 499 02e6 07F5E273 	 add r3,r7,#452
 500 02ea 1B68     	 ldr r3,[r3]
 501              	.LBE229:
 502              	.LBE228:
 503              	 .loc 1 263 0 discriminator 1
 504 02ec 1B0C     	 lsrs r3,r3,#16
 505 02ee C7F88832 	 str r3,[r7,#648]
 264:../Dave/Generated/CMSIS_DSP/TransformFunctions/arm_cfft_radix4_q15.c ****     /* yc' = (ya-yb+yc-yd)* co2 - (xa-xb+xc-xd)* (si2) */
 265:../Dave/Generated/CMSIS_DSP/TransformFunctions/arm_cfft_radix4_q15.c ****     out2 = __SMUSDX(C2, R);
 506              	 .loc 1 265 0 discriminator 1
 507 02f2 D7F88C12 	 ldr r1,[r7,#652]
 508 02f6 D7F89422 	 ldr r2,[r7,#660]
 509 02fa 07F5E073 	 add r3,r7,#448
 510 02fe 1960     	 str r1,[r3]
 511 0300 07F5DE73 	 add r3,r7,#444
 512 0304 1A60     	 str r2,[r3]
 513              	.LBB230:
 514              	.LBB231:
 493:C:\Users\Depes Crystalline\Desktop\school\Active_Bike_Lighting_System\Radar_Core/Libraries/CMSIS/Include\core_cmSimd.h **** }
 494:C:\Users\Depes Crystalline\Desktop\school\Active_Bike_Lighting_System\Radar_Core/Libraries/CMSIS/Include\core_cmSimd.h **** 
 495:C:\Users\Depes Crystalline\Desktop\school\Active_Bike_Lighting_System\Radar_Core/Libraries/CMSIS/Include\core_cmSimd.h **** __attribute__( ( always_inline ) ) __STATIC_INLINE uint32_t __SMUADX (uint32_t op1, uint32_t op2)
 496:C:\Users\Depes Crystalline\Desktop\school\Active_Bike_Lighting_System\Radar_Core/Libraries/CMSIS/Include\core_cmSimd.h **** {
 497:C:\Users\Depes Crystalline\Desktop\school\Active_Bike_Lighting_System\Radar_Core/Libraries/CMSIS/Include\core_cmSimd.h ****   uint32_t result;
 498:C:\Users\Depes Crystalline\Desktop\school\Active_Bike_Lighting_System\Radar_Core/Libraries/CMSIS/Include\core_cmSimd.h **** 
 499:C:\Users\Depes Crystalline\Desktop\school\Active_Bike_Lighting_System\Radar_Core/Libraries/CMSIS/Include\core_cmSimd.h ****   __ASM volatile ("smuadx %0, %1, %2" : "=r" (result) : "r" (op1), "r" (op2) );
 500:C:\Users\Depes Crystalline\Desktop\school\Active_Bike_Lighting_System\Radar_Core/Libraries/CMSIS/Include\core_cmSimd.h ****   return(result);
 501:C:\Users\Depes Crystalline\Desktop\school\Active_Bike_Lighting_System\Radar_Core/Libraries/CMSIS/Include\core_cmSimd.h **** }
 502:C:\Users\Depes Crystalline\Desktop\school\Active_Bike_Lighting_System\Radar_Core/Libraries/CMSIS/Include\core_cmSimd.h **** 
 503:C:\Users\Depes Crystalline\Desktop\school\Active_Bike_Lighting_System\Radar_Core/Libraries/CMSIS/Include\core_cmSimd.h **** __attribute__( ( always_inline ) ) __STATIC_INLINE uint32_t __SMLAD (uint32_t op1, uint32_t op2, ui
 504:C:\Users\Depes Crystalline\Desktop\school\Active_Bike_Lighting_System\Radar_Core/Libraries/CMSIS/Include\core_cmSimd.h **** {
 505:C:\Users\Depes Crystalline\Desktop\school\Active_Bike_Lighting_System\Radar_Core/Libraries/CMSIS/Include\core_cmSimd.h ****   uint32_t result;
 506:C:\Users\Depes Crystalline\Desktop\school\Active_Bike_Lighting_System\Radar_Core/Libraries/CMSIS/Include\core_cmSimd.h **** 
 507:C:\Users\Depes Crystalline\Desktop\school\Active_Bike_Lighting_System\Radar_Core/Libraries/CMSIS/Include\core_cmSimd.h ****   __ASM volatile ("smlad %0, %1, %2, %3" : "=r" (result) : "r" (op1), "r" (op2), "r" (op3) );
 508:C:\Users\Depes Crystalline\Desktop\school\Active_Bike_Lighting_System\Radar_Core/Libraries/CMSIS/Include\core_cmSimd.h ****   return(result);
 509:C:\Users\Depes Crystalline\Desktop\school\Active_Bike_Lighting_System\Radar_Core/Libraries/CMSIS/Include\core_cmSimd.h **** }
 510:C:\Users\Depes Crystalline\Desktop\school\Active_Bike_Lighting_System\Radar_Core/Libraries/CMSIS/Include\core_cmSimd.h **** 
 511:C:\Users\Depes Crystalline\Desktop\school\Active_Bike_Lighting_System\Radar_Core/Libraries/CMSIS/Include\core_cmSimd.h **** __attribute__( ( always_inline ) ) __STATIC_INLINE uint32_t __SMLADX (uint32_t op1, uint32_t op2, u
 512:C:\Users\Depes Crystalline\Desktop\school\Active_Bike_Lighting_System\Radar_Core/Libraries/CMSIS/Include\core_cmSimd.h **** {
 513:C:\Users\Depes Crystalline\Desktop\school\Active_Bike_Lighting_System\Radar_Core/Libraries/CMSIS/Include\core_cmSimd.h ****   uint32_t result;
 514:C:\Users\Depes Crystalline\Desktop\school\Active_Bike_Lighting_System\Radar_Core/Libraries/CMSIS/Include\core_cmSimd.h **** 
 515:C:\Users\Depes Crystalline\Desktop\school\Active_Bike_Lighting_System\Radar_Core/Libraries/CMSIS/Include\core_cmSimd.h ****   __ASM volatile ("smladx %0, %1, %2, %3" : "=r" (result) : "r" (op1), "r" (op2), "r" (op3) );
 516:C:\Users\Depes Crystalline\Desktop\school\Active_Bike_Lighting_System\Radar_Core/Libraries/CMSIS/Include\core_cmSimd.h ****   return(result);
 517:C:\Users\Depes Crystalline\Desktop\school\Active_Bike_Lighting_System\Radar_Core/Libraries/CMSIS/Include\core_cmSimd.h **** }
 518:C:\Users\Depes Crystalline\Desktop\school\Active_Bike_Lighting_System\Radar_Core/Libraries/CMSIS/Include\core_cmSimd.h **** 
 519:C:\Users\Depes Crystalline\Desktop\school\Active_Bike_Lighting_System\Radar_Core/Libraries/CMSIS/Include\core_cmSimd.h **** __attribute__( ( always_inline ) ) __STATIC_INLINE uint64_t __SMLALD (uint32_t op1, uint32_t op2, u
 520:C:\Users\Depes Crystalline\Desktop\school\Active_Bike_Lighting_System\Radar_Core/Libraries/CMSIS/Include\core_cmSimd.h **** {
 521:C:\Users\Depes Crystalline\Desktop\school\Active_Bike_Lighting_System\Radar_Core/Libraries/CMSIS/Include\core_cmSimd.h ****   union llreg_u{
 522:C:\Users\Depes Crystalline\Desktop\school\Active_Bike_Lighting_System\Radar_Core/Libraries/CMSIS/Include\core_cmSimd.h ****     uint32_t w32[2];
 523:C:\Users\Depes Crystalline\Desktop\school\Active_Bike_Lighting_System\Radar_Core/Libraries/CMSIS/Include\core_cmSimd.h ****     uint64_t w64;
 524:C:\Users\Depes Crystalline\Desktop\school\Active_Bike_Lighting_System\Radar_Core/Libraries/CMSIS/Include\core_cmSimd.h ****   } llr;
 525:C:\Users\Depes Crystalline\Desktop\school\Active_Bike_Lighting_System\Radar_Core/Libraries/CMSIS/Include\core_cmSimd.h ****   llr.w64 = acc;
 526:C:\Users\Depes Crystalline\Desktop\school\Active_Bike_Lighting_System\Radar_Core/Libraries/CMSIS/Include\core_cmSimd.h **** 
 527:C:\Users\Depes Crystalline\Desktop\school\Active_Bike_Lighting_System\Radar_Core/Libraries/CMSIS/Include\core_cmSimd.h **** #ifndef __ARMEB__   // Little endian
 528:C:\Users\Depes Crystalline\Desktop\school\Active_Bike_Lighting_System\Radar_Core/Libraries/CMSIS/Include\core_cmSimd.h ****   __ASM volatile ("smlald %0, %1, %2, %3" : "=r" (llr.w32[0]), "=r" (llr.w32[1]): "r" (op1), "r" (o
 529:C:\Users\Depes Crystalline\Desktop\school\Active_Bike_Lighting_System\Radar_Core/Libraries/CMSIS/Include\core_cmSimd.h **** #else               // Big endian
 530:C:\Users\Depes Crystalline\Desktop\school\Active_Bike_Lighting_System\Radar_Core/Libraries/CMSIS/Include\core_cmSimd.h ****   __ASM volatile ("smlald %0, %1, %2, %3" : "=r" (llr.w32[1]), "=r" (llr.w32[0]): "r" (op1), "r" (o
 531:C:\Users\Depes Crystalline\Desktop\school\Active_Bike_Lighting_System\Radar_Core/Libraries/CMSIS/Include\core_cmSimd.h **** #endif
 532:C:\Users\Depes Crystalline\Desktop\school\Active_Bike_Lighting_System\Radar_Core/Libraries/CMSIS/Include\core_cmSimd.h **** 
 533:C:\Users\Depes Crystalline\Desktop\school\Active_Bike_Lighting_System\Radar_Core/Libraries/CMSIS/Include\core_cmSimd.h ****   return(llr.w64);
 534:C:\Users\Depes Crystalline\Desktop\school\Active_Bike_Lighting_System\Radar_Core/Libraries/CMSIS/Include\core_cmSimd.h **** }
 535:C:\Users\Depes Crystalline\Desktop\school\Active_Bike_Lighting_System\Radar_Core/Libraries/CMSIS/Include\core_cmSimd.h **** 
 536:C:\Users\Depes Crystalline\Desktop\school\Active_Bike_Lighting_System\Radar_Core/Libraries/CMSIS/Include\core_cmSimd.h **** __attribute__( ( always_inline ) ) __STATIC_INLINE uint64_t __SMLALDX (uint32_t op1, uint32_t op2, 
 537:C:\Users\Depes Crystalline\Desktop\school\Active_Bike_Lighting_System\Radar_Core/Libraries/CMSIS/Include\core_cmSimd.h **** {
 538:C:\Users\Depes Crystalline\Desktop\school\Active_Bike_Lighting_System\Radar_Core/Libraries/CMSIS/Include\core_cmSimd.h ****   union llreg_u{
 539:C:\Users\Depes Crystalline\Desktop\school\Active_Bike_Lighting_System\Radar_Core/Libraries/CMSIS/Include\core_cmSimd.h ****     uint32_t w32[2];
 540:C:\Users\Depes Crystalline\Desktop\school\Active_Bike_Lighting_System\Radar_Core/Libraries/CMSIS/Include\core_cmSimd.h ****     uint64_t w64;
 541:C:\Users\Depes Crystalline\Desktop\school\Active_Bike_Lighting_System\Radar_Core/Libraries/CMSIS/Include\core_cmSimd.h ****   } llr;
 542:C:\Users\Depes Crystalline\Desktop\school\Active_Bike_Lighting_System\Radar_Core/Libraries/CMSIS/Include\core_cmSimd.h ****   llr.w64 = acc;
 543:C:\Users\Depes Crystalline\Desktop\school\Active_Bike_Lighting_System\Radar_Core/Libraries/CMSIS/Include\core_cmSimd.h **** 
 544:C:\Users\Depes Crystalline\Desktop\school\Active_Bike_Lighting_System\Radar_Core/Libraries/CMSIS/Include\core_cmSimd.h **** #ifndef __ARMEB__   // Little endian
 545:C:\Users\Depes Crystalline\Desktop\school\Active_Bike_Lighting_System\Radar_Core/Libraries/CMSIS/Include\core_cmSimd.h ****   __ASM volatile ("smlaldx %0, %1, %2, %3" : "=r" (llr.w32[0]), "=r" (llr.w32[1]): "r" (op1), "r" (
 546:C:\Users\Depes Crystalline\Desktop\school\Active_Bike_Lighting_System\Radar_Core/Libraries/CMSIS/Include\core_cmSimd.h **** #else               // Big endian
 547:C:\Users\Depes Crystalline\Desktop\school\Active_Bike_Lighting_System\Radar_Core/Libraries/CMSIS/Include\core_cmSimd.h ****   __ASM volatile ("smlaldx %0, %1, %2, %3" : "=r" (llr.w32[1]), "=r" (llr.w32[0]): "r" (op1), "r" (
 548:C:\Users\Depes Crystalline\Desktop\school\Active_Bike_Lighting_System\Radar_Core/Libraries/CMSIS/Include\core_cmSimd.h **** #endif
 549:C:\Users\Depes Crystalline\Desktop\school\Active_Bike_Lighting_System\Radar_Core/Libraries/CMSIS/Include\core_cmSimd.h **** 
 550:C:\Users\Depes Crystalline\Desktop\school\Active_Bike_Lighting_System\Radar_Core/Libraries/CMSIS/Include\core_cmSimd.h ****   return(llr.w64);
 551:C:\Users\Depes Crystalline\Desktop\school\Active_Bike_Lighting_System\Radar_Core/Libraries/CMSIS/Include\core_cmSimd.h **** }
 552:C:\Users\Depes Crystalline\Desktop\school\Active_Bike_Lighting_System\Radar_Core/Libraries/CMSIS/Include\core_cmSimd.h **** 
 553:C:\Users\Depes Crystalline\Desktop\school\Active_Bike_Lighting_System\Radar_Core/Libraries/CMSIS/Include\core_cmSimd.h **** __attribute__( ( always_inline ) ) __STATIC_INLINE uint32_t __SMUSD  (uint32_t op1, uint32_t op2)
 554:C:\Users\Depes Crystalline\Desktop\school\Active_Bike_Lighting_System\Radar_Core/Libraries/CMSIS/Include\core_cmSimd.h **** {
 555:C:\Users\Depes Crystalline\Desktop\school\Active_Bike_Lighting_System\Radar_Core/Libraries/CMSIS/Include\core_cmSimd.h ****   uint32_t result;
 556:C:\Users\Depes Crystalline\Desktop\school\Active_Bike_Lighting_System\Radar_Core/Libraries/CMSIS/Include\core_cmSimd.h **** 
 557:C:\Users\Depes Crystalline\Desktop\school\Active_Bike_Lighting_System\Radar_Core/Libraries/CMSIS/Include\core_cmSimd.h ****   __ASM volatile ("smusd %0, %1, %2" : "=r" (result) : "r" (op1), "r" (op2) );
 558:C:\Users\Depes Crystalline\Desktop\school\Active_Bike_Lighting_System\Radar_Core/Libraries/CMSIS/Include\core_cmSimd.h ****   return(result);
 559:C:\Users\Depes Crystalline\Desktop\school\Active_Bike_Lighting_System\Radar_Core/Libraries/CMSIS/Include\core_cmSimd.h **** }
 560:C:\Users\Depes Crystalline\Desktop\school\Active_Bike_Lighting_System\Radar_Core/Libraries/CMSIS/Include\core_cmSimd.h **** 
 561:C:\Users\Depes Crystalline\Desktop\school\Active_Bike_Lighting_System\Radar_Core/Libraries/CMSIS/Include\core_cmSimd.h **** __attribute__( ( always_inline ) ) __STATIC_INLINE uint32_t __SMUSDX (uint32_t op1, uint32_t op2)
 562:C:\Users\Depes Crystalline\Desktop\school\Active_Bike_Lighting_System\Radar_Core/Libraries/CMSIS/Include\core_cmSimd.h **** {
 563:C:\Users\Depes Crystalline\Desktop\school\Active_Bike_Lighting_System\Radar_Core/Libraries/CMSIS/Include\core_cmSimd.h ****   uint32_t result;
 564:C:\Users\Depes Crystalline\Desktop\school\Active_Bike_Lighting_System\Radar_Core/Libraries/CMSIS/Include\core_cmSimd.h **** 
 565:C:\Users\Depes Crystalline\Desktop\school\Active_Bike_Lighting_System\Radar_Core/Libraries/CMSIS/Include\core_cmSimd.h ****   __ASM volatile ("smusdx %0, %1, %2" : "=r" (result) : "r" (op1), "r" (op2) );
 515              	 .loc 2 565 0 discriminator 1
 516 0306 07F5E073 	 add r3,r7,#448
 517 030a 1B68     	 ldr r3,[r3]
 518 030c 07F5DE72 	 add r2,r7,#444
 519 0310 1268     	 ldr r2,[r2]
 520              	
 521 0312 43FB12F2 	 smusdx r2,r3,r2
 522              	
 523              	 .thumb
 524 0316 07F5DC73 	 add r3,r7,#440
 525 031a 1A60     	 str r2,[r3]
 566:C:\Users\Depes Crystalline\Desktop\school\Active_Bike_Lighting_System\Radar_Core/Libraries/CMSIS/Include\core_cmSimd.h ****   return(result);
 526              	 .loc 2 566 0 discriminator 1
 527 031c 07F5DC73 	 add r3,r7,#440
 528 0320 1B68     	 ldr r3,[r3]
 529              	.LBE231:
 530              	.LBE230:
 531              	 .loc 1 265 0 discriminator 1
 532 0322 C7F88432 	 str r3,[r7,#644]
 266:../Dave/Generated/CMSIS_DSP/TransformFunctions/arm_cfft_radix4_q15.c **** 
 267:../Dave/Generated/CMSIS_DSP/TransformFunctions/arm_cfft_radix4_q15.c **** #else
 268:../Dave/Generated/CMSIS_DSP/TransformFunctions/arm_cfft_radix4_q15.c **** 
 269:../Dave/Generated/CMSIS_DSP/TransformFunctions/arm_cfft_radix4_q15.c ****     /* xc' = (ya-yb+yc-yd)* co2 - (xa-xb+xc-xd)* (si2) */
 270:../Dave/Generated/CMSIS_DSP/TransformFunctions/arm_cfft_radix4_q15.c ****     out1 = __SMUSDX(R, C2) >> 16u;
 271:../Dave/Generated/CMSIS_DSP/TransformFunctions/arm_cfft_radix4_q15.c ****     /* yc' = (xa-xb+xc-xd)* co2 + (ya-yb+yc-yd)* (si2) */
 272:../Dave/Generated/CMSIS_DSP/TransformFunctions/arm_cfft_radix4_q15.c ****     out2 = __SMUAD(C2, R);
 273:../Dave/Generated/CMSIS_DSP/TransformFunctions/arm_cfft_radix4_q15.c **** 
 274:../Dave/Generated/CMSIS_DSP/TransformFunctions/arm_cfft_radix4_q15.c **** #endif /*      #ifndef ARM_MATH_BIG_ENDIAN     */
 275:../Dave/Generated/CMSIS_DSP/TransformFunctions/arm_cfft_radix4_q15.c **** 
 276:../Dave/Generated/CMSIS_DSP/TransformFunctions/arm_cfft_radix4_q15.c ****     /*  Reading i0+fftLen/4 */
 277:../Dave/Generated/CMSIS_DSP/TransformFunctions/arm_cfft_radix4_q15.c ****     /* T = packed(yb, xb) */
 278:../Dave/Generated/CMSIS_DSP/TransformFunctions/arm_cfft_radix4_q15.c ****     T = _SIMD32_OFFSET(pSi1);
 533              	 .loc 1 278 0 discriminator 1
 534 0326 D7F8AC32 	 ldr r3,[r7,#684]
 535 032a 1B68     	 ldr r3,[r3]
 536 032c C7F89C32 	 str r3,[r7,#668]
 279:../Dave/Generated/CMSIS_DSP/TransformFunctions/arm_cfft_radix4_q15.c ****     T = __SHADD16(T, 0);
 537              	 .loc 1 279 0 discriminator 1
 538 0330 D7F89C22 	 ldr r2,[r7,#668]
 539 0334 07F5DA73 	 add r3,r7,#436
 540 0338 1A60     	 str r2,[r3]
 541 033a 07F5D873 	 add r3,r7,#432
 542 033e 0022     	 movs r2,#0
 543 0340 1A60     	 str r2,[r3]
 544              	.LBB232:
 545              	.LBB233:
 253:C:\Users\Depes Crystalline\Desktop\school\Active_Bike_Lighting_System\Radar_Core/Libraries/CMSIS/Include\core_cmSimd.h ****   return(result);
 546              	 .loc 2 253 0 discriminator 1
 547 0342 07F5DA73 	 add r3,r7,#436
 548 0346 1B68     	 ldr r3,[r3]
 549 0348 07F5D872 	 add r2,r7,#432
 550 034c 1268     	 ldr r2,[r2]
 551              	
 552 034e 93FA22F2 	 shadd16 r2,r3,r2
 553              	
 554              	 .thumb
 555 0352 07F5D673 	 add r3,r7,#428
 556 0356 1A60     	 str r2,[r3]
 254:C:\Users\Depes Crystalline\Desktop\school\Active_Bike_Lighting_System\Radar_Core/Libraries/CMSIS/Include\core_cmSimd.h **** }
 557              	 .loc 2 254 0 discriminator 1
 558 0358 07F5D673 	 add r3,r7,#428
 559 035c 1B68     	 ldr r3,[r3]
 560              	.LBE233:
 561              	.LBE232:
 562              	 .loc 1 279 0 discriminator 1
 563 035e C7F89C32 	 str r3,[r7,#668]
 280:../Dave/Generated/CMSIS_DSP/TransformFunctions/arm_cfft_radix4_q15.c ****     T = __SHADD16(T, 0);
 564              	 .loc 1 280 0 discriminator 1
 565 0362 D7F89C22 	 ldr r2,[r7,#668]
 566 0366 07F5D473 	 add r3,r7,#424
 567 036a 1A60     	 str r2,[r3]
 568 036c 07F5D273 	 add r3,r7,#420
 569 0370 0022     	 movs r2,#0
 570 0372 1A60     	 str r2,[r3]
 571              	.LBB234:
 572              	.LBB235:
 253:C:\Users\Depes Crystalline\Desktop\school\Active_Bike_Lighting_System\Radar_Core/Libraries/CMSIS/Include\core_cmSimd.h ****   return(result);
 573              	 .loc 2 253 0 discriminator 1
 574 0374 07F5D473 	 add r3,r7,#424
 575 0378 1B68     	 ldr r3,[r3]
 576 037a 07F5D272 	 add r2,r7,#420
 577 037e 1268     	 ldr r2,[r2]
 578              	
 579 0380 93FA22F2 	 shadd16 r2,r3,r2
 580              	
 581              	 .thumb
 582 0384 07F5D073 	 add r3,r7,#416
 583 0388 1A60     	 str r2,[r3]
 254:C:\Users\Depes Crystalline\Desktop\school\Active_Bike_Lighting_System\Radar_Core/Libraries/CMSIS/Include\core_cmSimd.h **** }
 584              	 .loc 2 254 0 discriminator 1
 585 038a 07F5D073 	 add r3,r7,#416
 586 038e 1B68     	 ldr r3,[r3]
 587              	.LBE235:
 588              	.LBE234:
 589              	 .loc 1 280 0 discriminator 1
 590 0390 C7F89C32 	 str r3,[r7,#668]
 281:../Dave/Generated/CMSIS_DSP/TransformFunctions/arm_cfft_radix4_q15.c **** 
 282:../Dave/Generated/CMSIS_DSP/TransformFunctions/arm_cfft_radix4_q15.c ****     /* writing the butterfly processed i0 + fftLen/4 sample */
 283:../Dave/Generated/CMSIS_DSP/TransformFunctions/arm_cfft_radix4_q15.c ****     /* writing output(xc', yc') in little endian format */
 284:../Dave/Generated/CMSIS_DSP/TransformFunctions/arm_cfft_radix4_q15.c ****     _SIMD32_OFFSET(pSi1) =
 285:../Dave/Generated/CMSIS_DSP/TransformFunctions/arm_cfft_radix4_q15.c ****       (q31_t) ((out2) & 0xFFFF0000) | (out1 & 0x0000FFFF);
 591              	 .loc 1 285 0 discriminator 1
 592 0394 D7F88432 	 ldr r3,[r7,#644]
 593 0398 1B0C     	 lsrs r3,r3,#16
 594 039a 1B04     	 lsls r3,r3,#16
 595 039c D7F88822 	 ldr r2,[r7,#648]
 596 03a0 92B2     	 uxth r2,r2
 597 03a2 1A43     	 orrs r2,r2,r3
 284:../Dave/Generated/CMSIS_DSP/TransformFunctions/arm_cfft_radix4_q15.c ****       (q31_t) ((out2) & 0xFFFF0000) | (out1 & 0x0000FFFF);
 598              	 .loc 1 284 0 discriminator 1
 599 03a4 D7F8AC32 	 ldr r3,[r7,#684]
 600 03a8 1A60     	 str r2,[r3]
 286:../Dave/Generated/CMSIS_DSP/TransformFunctions/arm_cfft_radix4_q15.c ****     pSi1 += 2;
 601              	 .loc 1 286 0 discriminator 1
 602 03aa D7F8AC32 	 ldr r3,[r7,#684]
 603 03ae 0433     	 adds r3,r3,#4
 604 03b0 C7F8AC32 	 str r3,[r7,#684]
 287:../Dave/Generated/CMSIS_DSP/TransformFunctions/arm_cfft_radix4_q15.c **** 
 288:../Dave/Generated/CMSIS_DSP/TransformFunctions/arm_cfft_radix4_q15.c ****     /*  Butterfly calculations */
 289:../Dave/Generated/CMSIS_DSP/TransformFunctions/arm_cfft_radix4_q15.c ****     /* U = packed(yd, xd) */
 290:../Dave/Generated/CMSIS_DSP/TransformFunctions/arm_cfft_radix4_q15.c ****     U = _SIMD32_OFFSET(pSi3);
 605              	 .loc 1 290 0 discriminator 1
 606 03b4 D7F8A432 	 ldr r3,[r7,#676]
 607 03b8 1B68     	 ldr r3,[r3]
 608 03ba C7F89032 	 str r3,[r7,#656]
 291:../Dave/Generated/CMSIS_DSP/TransformFunctions/arm_cfft_radix4_q15.c ****     U = __SHADD16(U, 0);
 609              	 .loc 1 291 0 discriminator 1
 610 03be D7F89022 	 ldr r2,[r7,#656]
 611 03c2 07F5CE73 	 add r3,r7,#412
 612 03c6 1A60     	 str r2,[r3]
 613 03c8 07F5CC73 	 add r3,r7,#408
 614 03cc 0022     	 movs r2,#0
 615 03ce 1A60     	 str r2,[r3]
 616              	.LBB236:
 617              	.LBB237:
 253:C:\Users\Depes Crystalline\Desktop\school\Active_Bike_Lighting_System\Radar_Core/Libraries/CMSIS/Include\core_cmSimd.h ****   return(result);
 618              	 .loc 2 253 0 discriminator 1
 619 03d0 07F5CE73 	 add r3,r7,#412
 620 03d4 1B68     	 ldr r3,[r3]
 621 03d6 07F5CC72 	 add r2,r7,#408
 622 03da 1268     	 ldr r2,[r2]
 623              	
 624 03dc 93FA22F2 	 shadd16 r2,r3,r2
 625              	
 626              	 .thumb
 627 03e0 07F5CA73 	 add r3,r7,#404
 628 03e4 1A60     	 str r2,[r3]
 254:C:\Users\Depes Crystalline\Desktop\school\Active_Bike_Lighting_System\Radar_Core/Libraries/CMSIS/Include\core_cmSimd.h **** }
 629              	 .loc 2 254 0 discriminator 1
 630 03e6 07F5CA73 	 add r3,r7,#404
 631 03ea 1B68     	 ldr r3,[r3]
 632              	.LBE237:
 633              	.LBE236:
 634              	 .loc 1 291 0 discriminator 1
 635 03ec C7F89032 	 str r3,[r7,#656]
 292:../Dave/Generated/CMSIS_DSP/TransformFunctions/arm_cfft_radix4_q15.c ****     U = __SHADD16(U, 0);
 636              	 .loc 1 292 0 discriminator 1
 637 03f0 D7F89022 	 ldr r2,[r7,#656]
 638 03f4 07F5C873 	 add r3,r7,#400
 639 03f8 1A60     	 str r2,[r3]
 640 03fa 07F5C673 	 add r3,r7,#396
 641 03fe 0022     	 movs r2,#0
 642 0400 1A60     	 str r2,[r3]
 643              	.LBB238:
 644              	.LBB239:
 253:C:\Users\Depes Crystalline\Desktop\school\Active_Bike_Lighting_System\Radar_Core/Libraries/CMSIS/Include\core_cmSimd.h ****   return(result);
 645              	 .loc 2 253 0 discriminator 1
 646 0402 07F5C873 	 add r3,r7,#400
 647 0406 1B68     	 ldr r3,[r3]
 648 0408 07F5C672 	 add r2,r7,#396
 649 040c 1268     	 ldr r2,[r2]
 650              	
 651 040e 93FA22F2 	 shadd16 r2,r3,r2
 652              	
 653              	 .thumb
 654 0412 07F5C473 	 add r3,r7,#392
 655 0416 1A60     	 str r2,[r3]
 254:C:\Users\Depes Crystalline\Desktop\school\Active_Bike_Lighting_System\Radar_Core/Libraries/CMSIS/Include\core_cmSimd.h **** }
 656              	 .loc 2 254 0 discriminator 1
 657 0418 07F5C473 	 add r3,r7,#392
 658 041c 1B68     	 ldr r3,[r3]
 659              	.LBE239:
 660              	.LBE238:
 661              	 .loc 1 292 0 discriminator 1
 662 041e C7F89032 	 str r3,[r7,#656]
 293:../Dave/Generated/CMSIS_DSP/TransformFunctions/arm_cfft_radix4_q15.c **** 
 294:../Dave/Generated/CMSIS_DSP/TransformFunctions/arm_cfft_radix4_q15.c ****     /* T = packed(yb-yd, xb-xd) */
 295:../Dave/Generated/CMSIS_DSP/TransformFunctions/arm_cfft_radix4_q15.c ****     T = __QSUB16(T, U);
 663              	 .loc 1 295 0 discriminator 1
 664 0422 D7F89C12 	 ldr r1,[r7,#668]
 665 0426 D7F89022 	 ldr r2,[r7,#656]
 666 042a 07F5C273 	 add r3,r7,#388
 667 042e 1960     	 str r1,[r3]
 668 0430 07F5C073 	 add r3,r7,#384
 669 0434 1A60     	 str r2,[r3]
 670              	.LBB240:
 671              	.LBB241:
 293:C:\Users\Depes Crystalline\Desktop\school\Active_Bike_Lighting_System\Radar_Core/Libraries/CMSIS/Include\core_cmSimd.h ****   return(result);
 672              	 .loc 2 293 0 discriminator 1
 673 0436 07F5C273 	 add r3,r7,#388
 674 043a 1B68     	 ldr r3,[r3]
 675 043c 07F5C072 	 add r2,r7,#384
 676 0440 1268     	 ldr r2,[r2]
 677              	
 678 0442 D3FA12F2 	 qsub16 r2,r3,r2
 679              	
 680              	 .thumb
 681 0446 07F5BE73 	 add r3,r7,#380
 682 044a 1A60     	 str r2,[r3]
 294:C:\Users\Depes Crystalline\Desktop\school\Active_Bike_Lighting_System\Radar_Core/Libraries/CMSIS/Include\core_cmSimd.h **** }
 683              	 .loc 2 294 0 discriminator 1
 684 044c 07F5BE73 	 add r3,r7,#380
 685 0450 1B68     	 ldr r3,[r3]
 686              	.LBE241:
 687              	.LBE240:
 688              	 .loc 1 295 0 discriminator 1
 689 0452 C7F89C32 	 str r3,[r7,#668]
 296:../Dave/Generated/CMSIS_DSP/TransformFunctions/arm_cfft_radix4_q15.c **** 
 297:../Dave/Generated/CMSIS_DSP/TransformFunctions/arm_cfft_radix4_q15.c **** #ifndef ARM_MATH_BIG_ENDIAN
 298:../Dave/Generated/CMSIS_DSP/TransformFunctions/arm_cfft_radix4_q15.c **** 
 299:../Dave/Generated/CMSIS_DSP/TransformFunctions/arm_cfft_radix4_q15.c ****     /* R = packed((ya-yc) + (xb- xd) , (xa-xc) - (yb-yd)) */
 300:../Dave/Generated/CMSIS_DSP/TransformFunctions/arm_cfft_radix4_q15.c ****     R = __QASX(S, T);
 690              	 .loc 1 300 0 discriminator 1
 691 0456 D7F89812 	 ldr r1,[r7,#664]
 692 045a D7F89C22 	 ldr r2,[r7,#668]
 693 045e 07F5BC73 	 add r3,r7,#376
 694 0462 1960     	 str r1,[r3]
 695 0464 07F5BA73 	 add r3,r7,#372
 696 0468 1A60     	 str r2,[r3]
 697              	.LBB242:
 698              	.LBB243:
 341:C:\Users\Depes Crystalline\Desktop\school\Active_Bike_Lighting_System\Radar_Core/Libraries/CMSIS/Include\core_cmSimd.h ****   return(result);
 699              	 .loc 2 341 0 discriminator 1
 700 046a 07F5BC73 	 add r3,r7,#376
 701 046e 1B68     	 ldr r3,[r3]
 702 0470 07F5BA72 	 add r2,r7,#372
 703 0474 1268     	 ldr r2,[r2]
 704              	
 705 0476 A3FA12F2 	 qasx r2,r3,r2
 706              	
 707              	 .thumb
 708 047a 07F5B873 	 add r3,r7,#368
 709 047e 1A60     	 str r2,[r3]
 342:C:\Users\Depes Crystalline\Desktop\school\Active_Bike_Lighting_System\Radar_Core/Libraries/CMSIS/Include\core_cmSimd.h **** }
 710              	 .loc 2 342 0 discriminator 1
 711 0480 07F5B873 	 add r3,r7,#368
 712 0484 1B68     	 ldr r3,[r3]
 713              	.LBE243:
 714              	.LBE242:
 715              	 .loc 1 300 0 discriminator 1
 716 0486 C7F89432 	 str r3,[r7,#660]
 301:../Dave/Generated/CMSIS_DSP/TransformFunctions/arm_cfft_radix4_q15.c ****     /* S = packed((ya-yc) - (xb- xd),  (xa-xc) + (yb-yd)) */
 302:../Dave/Generated/CMSIS_DSP/TransformFunctions/arm_cfft_radix4_q15.c ****     S = __QSAX(S, T);
 717              	 .loc 1 302 0 discriminator 1
 718 048a D7F89812 	 ldr r1,[r7,#664]
 719 048e D7F89C22 	 ldr r2,[r7,#668]
 720 0492 07F5B673 	 add r3,r7,#364
 721 0496 1960     	 str r1,[r3]
 722 0498 07F5B473 	 add r3,r7,#360
 723 049c 1A60     	 str r2,[r3]
 724              	.LBB244:
 725              	.LBB245:
 389:C:\Users\Depes Crystalline\Desktop\school\Active_Bike_Lighting_System\Radar_Core/Libraries/CMSIS/Include\core_cmSimd.h ****   return(result);
 726              	 .loc 2 389 0 discriminator 1
 727 049e 07F5B673 	 add r3,r7,#364
 728 04a2 1B68     	 ldr r3,[r3]
 729 04a4 07F5B472 	 add r2,r7,#360
 730 04a8 1268     	 ldr r2,[r2]
 731              	
 732 04aa E3FA12F2 	 qsax r2,r3,r2
 733              	
 734              	 .thumb
 735 04ae 07F5B273 	 add r3,r7,#356
 736 04b2 1A60     	 str r2,[r3]
 390:C:\Users\Depes Crystalline\Desktop\school\Active_Bike_Lighting_System\Radar_Core/Libraries/CMSIS/Include\core_cmSimd.h **** }
 737              	 .loc 2 390 0 discriminator 1
 738 04b4 07F5B273 	 add r3,r7,#356
 739 04b8 1B68     	 ldr r3,[r3]
 740              	.LBE245:
 741              	.LBE244:
 742              	 .loc 1 302 0 discriminator 1
 743 04ba C7F89832 	 str r3,[r7,#664]
 303:../Dave/Generated/CMSIS_DSP/TransformFunctions/arm_cfft_radix4_q15.c **** 
 304:../Dave/Generated/CMSIS_DSP/TransformFunctions/arm_cfft_radix4_q15.c **** #else
 305:../Dave/Generated/CMSIS_DSP/TransformFunctions/arm_cfft_radix4_q15.c **** 
 306:../Dave/Generated/CMSIS_DSP/TransformFunctions/arm_cfft_radix4_q15.c ****     /* R = packed((ya-yc) + (xb- xd) , (xa-xc) - (yb-yd)) */
 307:../Dave/Generated/CMSIS_DSP/TransformFunctions/arm_cfft_radix4_q15.c ****     R = __QSAX(S, T);
 308:../Dave/Generated/CMSIS_DSP/TransformFunctions/arm_cfft_radix4_q15.c ****     /* S = packed((ya-yc) - (xb- xd),  (xa-xc) + (yb-yd)) */
 309:../Dave/Generated/CMSIS_DSP/TransformFunctions/arm_cfft_radix4_q15.c ****     S = __QASX(S, T);
 310:../Dave/Generated/CMSIS_DSP/TransformFunctions/arm_cfft_radix4_q15.c **** 
 311:../Dave/Generated/CMSIS_DSP/TransformFunctions/arm_cfft_radix4_q15.c **** #endif /*      #ifndef ARM_MATH_BIG_ENDIAN     */
 312:../Dave/Generated/CMSIS_DSP/TransformFunctions/arm_cfft_radix4_q15.c **** 
 313:../Dave/Generated/CMSIS_DSP/TransformFunctions/arm_cfft_radix4_q15.c ****     /* co1 & si1 are read from SIMD Coefficient pointer */
 314:../Dave/Generated/CMSIS_DSP/TransformFunctions/arm_cfft_radix4_q15.c ****     C1 = _SIMD32_OFFSET(pCoef16 + (2u * ic));
 744              	 .loc 1 314 0 discriminator 1
 745 04be D7F8C032 	 ldr r3,[r7,#704]
 746 04c2 9B00     	 lsls r3,r3,#2
 747 04c4 3A1D     	 adds r2,r7,#4
 748 04c6 1268     	 ldr r2,[r2]
 749 04c8 1344     	 add r3,r3,r2
 750 04ca 1B68     	 ldr r3,[r3]
 751 04cc C7F88032 	 str r3,[r7,#640]
 315:../Dave/Generated/CMSIS_DSP/TransformFunctions/arm_cfft_radix4_q15.c ****     /*  Butterfly process for the i0+fftLen/2 sample */
 316:../Dave/Generated/CMSIS_DSP/TransformFunctions/arm_cfft_radix4_q15.c **** 
 317:../Dave/Generated/CMSIS_DSP/TransformFunctions/arm_cfft_radix4_q15.c **** #ifndef ARM_MATH_BIG_ENDIAN
 318:../Dave/Generated/CMSIS_DSP/TransformFunctions/arm_cfft_radix4_q15.c **** 
 319:../Dave/Generated/CMSIS_DSP/TransformFunctions/arm_cfft_radix4_q15.c ****     /* xb' = (xa+yb-xc-yd)* co1 + (ya-xb-yc+xd)* (si1) */
 320:../Dave/Generated/CMSIS_DSP/TransformFunctions/arm_cfft_radix4_q15.c ****     out1 = __SMUAD(C1, S) >> 16u;
 752              	 .loc 1 320 0 discriminator 1
 753 04d0 D7F88012 	 ldr r1,[r7,#640]
 754 04d4 D7F89822 	 ldr r2,[r7,#664]
 755 04d8 07F5B073 	 add r3,r7,#352
 756 04dc 1960     	 str r1,[r3]
 757 04de 07F5AE73 	 add r3,r7,#348
 758 04e2 1A60     	 str r2,[r3]
 759              	.LBB246:
 760              	.LBB247:
 491:C:\Users\Depes Crystalline\Desktop\school\Active_Bike_Lighting_System\Radar_Core/Libraries/CMSIS/Include\core_cmSimd.h ****   return(result);
 761              	 .loc 2 491 0 discriminator 1
 762 04e4 07F5B073 	 add r3,r7,#352
 763 04e8 1B68     	 ldr r3,[r3]
 764 04ea 07F5AE72 	 add r2,r7,#348
 765 04ee 1268     	 ldr r2,[r2]
 766              	
 767 04f0 23FB02F2 	 smuad r2,r3,r2
 768              	
 769              	 .thumb
 770 04f4 07F5AC73 	 add r3,r7,#344
 771 04f8 1A60     	 str r2,[r3]
 492:C:\Users\Depes Crystalline\Desktop\school\Active_Bike_Lighting_System\Radar_Core/Libraries/CMSIS/Include\core_cmSimd.h **** }
 772              	 .loc 2 492 0 discriminator 1
 773 04fa 07F5AC73 	 add r3,r7,#344
 774 04fe 1B68     	 ldr r3,[r3]
 775              	.LBE247:
 776              	.LBE246:
 777              	 .loc 1 320 0 discriminator 1
 778 0500 1B0C     	 lsrs r3,r3,#16
 779 0502 C7F88832 	 str r3,[r7,#648]
 321:../Dave/Generated/CMSIS_DSP/TransformFunctions/arm_cfft_radix4_q15.c ****     /* yb' = (ya-xb-yc+xd)* co1 - (xa+yb-xc-yd)* (si1) */
 322:../Dave/Generated/CMSIS_DSP/TransformFunctions/arm_cfft_radix4_q15.c ****     out2 = __SMUSDX(C1, S);
 780              	 .loc 1 322 0 discriminator 1
 781 0506 D7F88012 	 ldr r1,[r7,#640]
 782 050a D7F89822 	 ldr r2,[r7,#664]
 783 050e 07F5AA73 	 add r3,r7,#340
 784 0512 1960     	 str r1,[r3]
 785 0514 07F5A873 	 add r3,r7,#336
 786 0518 1A60     	 str r2,[r3]
 787              	.LBB248:
 788              	.LBB249:
 565:C:\Users\Depes Crystalline\Desktop\school\Active_Bike_Lighting_System\Radar_Core/Libraries/CMSIS/Include\core_cmSimd.h ****   return(result);
 789              	 .loc 2 565 0 discriminator 1
 790 051a 07F5AA73 	 add r3,r7,#340
 791 051e 1B68     	 ldr r3,[r3]
 792 0520 07F5A872 	 add r2,r7,#336
 793 0524 1268     	 ldr r2,[r2]
 794              	
 795 0526 43FB12F2 	 smusdx r2,r3,r2
 796              	
 797              	 .thumb
 798 052a 07F5A673 	 add r3,r7,#332
 799 052e 1A60     	 str r2,[r3]
 800              	 .loc 2 566 0 discriminator 1
 801 0530 07F5A673 	 add r3,r7,#332
 802 0534 1B68     	 ldr r3,[r3]
 803              	.LBE249:
 804              	.LBE248:
 805              	 .loc 1 322 0 discriminator 1
 806 0536 C7F88432 	 str r3,[r7,#644]
 323:../Dave/Generated/CMSIS_DSP/TransformFunctions/arm_cfft_radix4_q15.c **** 
 324:../Dave/Generated/CMSIS_DSP/TransformFunctions/arm_cfft_radix4_q15.c **** #else
 325:../Dave/Generated/CMSIS_DSP/TransformFunctions/arm_cfft_radix4_q15.c **** 
 326:../Dave/Generated/CMSIS_DSP/TransformFunctions/arm_cfft_radix4_q15.c ****     /* xb' = (ya-xb-yc+xd)* co1 - (xa+yb-xc-yd)* (si1) */
 327:../Dave/Generated/CMSIS_DSP/TransformFunctions/arm_cfft_radix4_q15.c ****     out1 = __SMUSDX(S, C1) >> 16u;
 328:../Dave/Generated/CMSIS_DSP/TransformFunctions/arm_cfft_radix4_q15.c ****     /* yb' = (xa+yb-xc-yd)* co1 + (ya-xb-yc+xd)* (si1) */
 329:../Dave/Generated/CMSIS_DSP/TransformFunctions/arm_cfft_radix4_q15.c ****     out2 = __SMUAD(C1, S);
 330:../Dave/Generated/CMSIS_DSP/TransformFunctions/arm_cfft_radix4_q15.c **** 
 331:../Dave/Generated/CMSIS_DSP/TransformFunctions/arm_cfft_radix4_q15.c **** #endif /*      #ifndef ARM_MATH_BIG_ENDIAN     */
 332:../Dave/Generated/CMSIS_DSP/TransformFunctions/arm_cfft_radix4_q15.c **** 
 333:../Dave/Generated/CMSIS_DSP/TransformFunctions/arm_cfft_radix4_q15.c ****     /* writing output(xb', yb') in little endian format */
 334:../Dave/Generated/CMSIS_DSP/TransformFunctions/arm_cfft_radix4_q15.c ****     _SIMD32_OFFSET(pSi2) =
 335:../Dave/Generated/CMSIS_DSP/TransformFunctions/arm_cfft_radix4_q15.c ****       ((out2) & 0xFFFF0000) | ((out1) & 0x0000FFFF);
 807              	 .loc 1 335 0 discriminator 1
 808 053a D7F88432 	 ldr r3,[r7,#644]
 809 053e 1B0C     	 lsrs r3,r3,#16
 810 0540 1B04     	 lsls r3,r3,#16
 811 0542 D7F88822 	 ldr r2,[r7,#648]
 812 0546 92B2     	 uxth r2,r2
 813 0548 1343     	 orrs r3,r3,r2
 334:../Dave/Generated/CMSIS_DSP/TransformFunctions/arm_cfft_radix4_q15.c ****       ((out2) & 0xFFFF0000) | ((out1) & 0x0000FFFF);
 814              	 .loc 1 334 0 discriminator 1
 815 054a 1A46     	 mov r2,r3
 816 054c D7F8A832 	 ldr r3,[r7,#680]
 817 0550 1A60     	 str r2,[r3]
 336:../Dave/Generated/CMSIS_DSP/TransformFunctions/arm_cfft_radix4_q15.c ****     pSi2 += 2;
 818              	 .loc 1 336 0 discriminator 1
 819 0552 D7F8A832 	 ldr r3,[r7,#680]
 820 0556 0433     	 adds r3,r3,#4
 821 0558 C7F8A832 	 str r3,[r7,#680]
 337:../Dave/Generated/CMSIS_DSP/TransformFunctions/arm_cfft_radix4_q15.c **** 
 338:../Dave/Generated/CMSIS_DSP/TransformFunctions/arm_cfft_radix4_q15.c **** 
 339:../Dave/Generated/CMSIS_DSP/TransformFunctions/arm_cfft_radix4_q15.c ****     /* co3 & si3 are read from SIMD Coefficient pointer */
 340:../Dave/Generated/CMSIS_DSP/TransformFunctions/arm_cfft_radix4_q15.c ****     C3 = _SIMD32_OFFSET(pCoef16 + (6u * ic));
 822              	 .loc 1 340 0 discriminator 1
 823 055c D7F8C022 	 ldr r2,[r7,#704]
 824 0560 1346     	 mov r3,r2
 825 0562 5B00     	 lsls r3,r3,#1
 826 0564 1344     	 add r3,r3,r2
 827 0566 9B00     	 lsls r3,r3,#2
 828 0568 1A46     	 mov r2,r3
 829 056a 3B1D     	 adds r3,r7,#4
 830 056c 1B68     	 ldr r3,[r3]
 831 056e 1344     	 add r3,r3,r2
 832 0570 1B68     	 ldr r3,[r3]
 833 0572 C7F87C32 	 str r3,[r7,#636]
 341:../Dave/Generated/CMSIS_DSP/TransformFunctions/arm_cfft_radix4_q15.c ****     /*  Butterfly process for the i0+3fftLen/4 sample */
 342:../Dave/Generated/CMSIS_DSP/TransformFunctions/arm_cfft_radix4_q15.c **** 
 343:../Dave/Generated/CMSIS_DSP/TransformFunctions/arm_cfft_radix4_q15.c **** #ifndef ARM_MATH_BIG_ENDIAN
 344:../Dave/Generated/CMSIS_DSP/TransformFunctions/arm_cfft_radix4_q15.c **** 
 345:../Dave/Generated/CMSIS_DSP/TransformFunctions/arm_cfft_radix4_q15.c ****     /* xd' = (xa-yb-xc+yd)* co3 + (ya+xb-yc-xd)* (si3) */
 346:../Dave/Generated/CMSIS_DSP/TransformFunctions/arm_cfft_radix4_q15.c ****     out1 = __SMUAD(C3, R) >> 16u;
 834              	 .loc 1 346 0 discriminator 1
 835 0576 D7F87C12 	 ldr r1,[r7,#636]
 836 057a D7F89422 	 ldr r2,[r7,#660]
 837 057e 07F5A473 	 add r3,r7,#328
 838 0582 1960     	 str r1,[r3]
 839 0584 07F5A273 	 add r3,r7,#324
 840 0588 1A60     	 str r2,[r3]
 841              	.LBB250:
 842              	.LBB251:
 491:C:\Users\Depes Crystalline\Desktop\school\Active_Bike_Lighting_System\Radar_Core/Libraries/CMSIS/Include\core_cmSimd.h ****   return(result);
 843              	 .loc 2 491 0 discriminator 1
 844 058a 07F5A473 	 add r3,r7,#328
 845 058e 1B68     	 ldr r3,[r3]
 846 0590 07F5A272 	 add r2,r7,#324
 847 0594 1268     	 ldr r2,[r2]
 848              	
 849 0596 23FB02F2 	 smuad r2,r3,r2
 850              	
 851              	 .thumb
 852 059a 07F5A073 	 add r3,r7,#320
 853 059e 1A60     	 str r2,[r3]
 492:C:\Users\Depes Crystalline\Desktop\school\Active_Bike_Lighting_System\Radar_Core/Libraries/CMSIS/Include\core_cmSimd.h **** }
 854              	 .loc 2 492 0 discriminator 1
 855 05a0 07F5A073 	 add r3,r7,#320
 856 05a4 1B68     	 ldr r3,[r3]
 857              	.LBE251:
 858              	.LBE250:
 859              	 .loc 1 346 0 discriminator 1
 860 05a6 1B0C     	 lsrs r3,r3,#16
 861 05a8 C7F88832 	 str r3,[r7,#648]
 347:../Dave/Generated/CMSIS_DSP/TransformFunctions/arm_cfft_radix4_q15.c ****     /* yd' = (ya+xb-yc-xd)* co3 - (xa-yb-xc+yd)* (si3) */
 348:../Dave/Generated/CMSIS_DSP/TransformFunctions/arm_cfft_radix4_q15.c ****     out2 = __SMUSDX(C3, R);
 862              	 .loc 1 348 0 discriminator 1
 863 05ac D7F87C12 	 ldr r1,[r7,#636]
 864 05b0 D7F89422 	 ldr r2,[r7,#660]
 865 05b4 07F59E73 	 add r3,r7,#316
 866 05b8 1960     	 str r1,[r3]
 867 05ba 07F59C73 	 add r3,r7,#312
 868 05be 1A60     	 str r2,[r3]
 869              	.LBB252:
 870              	.LBB253:
 565:C:\Users\Depes Crystalline\Desktop\school\Active_Bike_Lighting_System\Radar_Core/Libraries/CMSIS/Include\core_cmSimd.h ****   return(result);
 871              	 .loc 2 565 0 discriminator 1
 872 05c0 07F59E73 	 add r3,r7,#316
 873 05c4 1B68     	 ldr r3,[r3]
 874 05c6 07F59C72 	 add r2,r7,#312
 875 05ca 1268     	 ldr r2,[r2]
 876              	
 877 05cc 43FB12F2 	 smusdx r2,r3,r2
 878              	
 879              	 .thumb
 880 05d0 07F59A73 	 add r3,r7,#308
 881 05d4 1A60     	 str r2,[r3]
 882              	 .loc 2 566 0 discriminator 1
 883 05d6 07F59A73 	 add r3,r7,#308
 884 05da 1B68     	 ldr r3,[r3]
 885              	.LBE253:
 886              	.LBE252:
 887              	 .loc 1 348 0 discriminator 1
 888 05dc C7F88432 	 str r3,[r7,#644]
 349:../Dave/Generated/CMSIS_DSP/TransformFunctions/arm_cfft_radix4_q15.c **** 
 350:../Dave/Generated/CMSIS_DSP/TransformFunctions/arm_cfft_radix4_q15.c **** #else
 351:../Dave/Generated/CMSIS_DSP/TransformFunctions/arm_cfft_radix4_q15.c **** 
 352:../Dave/Generated/CMSIS_DSP/TransformFunctions/arm_cfft_radix4_q15.c ****     /* xd' = (ya+xb-yc-xd)* co3 - (xa-yb-xc+yd)* (si3) */
 353:../Dave/Generated/CMSIS_DSP/TransformFunctions/arm_cfft_radix4_q15.c ****     out1 = __SMUSDX(R, C3) >> 16u;
 354:../Dave/Generated/CMSIS_DSP/TransformFunctions/arm_cfft_radix4_q15.c ****     /* yd' = (xa-yb-xc+yd)* co3 + (ya+xb-yc-xd)* (si3) */
 355:../Dave/Generated/CMSIS_DSP/TransformFunctions/arm_cfft_radix4_q15.c ****     out2 = __SMUAD(C3, R);
 356:../Dave/Generated/CMSIS_DSP/TransformFunctions/arm_cfft_radix4_q15.c **** 
 357:../Dave/Generated/CMSIS_DSP/TransformFunctions/arm_cfft_radix4_q15.c **** #endif /*      #ifndef ARM_MATH_BIG_ENDIAN     */
 358:../Dave/Generated/CMSIS_DSP/TransformFunctions/arm_cfft_radix4_q15.c **** 
 359:../Dave/Generated/CMSIS_DSP/TransformFunctions/arm_cfft_radix4_q15.c ****     /* writing output(xd', yd') in little endian format */
 360:../Dave/Generated/CMSIS_DSP/TransformFunctions/arm_cfft_radix4_q15.c ****     _SIMD32_OFFSET(pSi3) =
 361:../Dave/Generated/CMSIS_DSP/TransformFunctions/arm_cfft_radix4_q15.c ****       ((out2) & 0xFFFF0000) | (out1 & 0x0000FFFF);
 889              	 .loc 1 361 0 discriminator 1
 890 05e0 D7F88432 	 ldr r3,[r7,#644]
 891 05e4 1B0C     	 lsrs r3,r3,#16
 892 05e6 1B04     	 lsls r3,r3,#16
 893 05e8 D7F88822 	 ldr r2,[r7,#648]
 894 05ec 92B2     	 uxth r2,r2
 895 05ee 1343     	 orrs r3,r3,r2
 360:../Dave/Generated/CMSIS_DSP/TransformFunctions/arm_cfft_radix4_q15.c ****       ((out2) & 0xFFFF0000) | (out1 & 0x0000FFFF);
 896              	 .loc 1 360 0 discriminator 1
 897 05f0 1A46     	 mov r2,r3
 898 05f2 D7F8A432 	 ldr r3,[r7,#676]
 899 05f6 1A60     	 str r2,[r3]
 362:../Dave/Generated/CMSIS_DSP/TransformFunctions/arm_cfft_radix4_q15.c ****     pSi3 += 2;
 900              	 .loc 1 362 0 discriminator 1
 901 05f8 D7F8A432 	 ldr r3,[r7,#676]
 902 05fc 0433     	 adds r3,r3,#4
 903 05fe C7F8A432 	 str r3,[r7,#676]
 363:../Dave/Generated/CMSIS_DSP/TransformFunctions/arm_cfft_radix4_q15.c **** 
 364:../Dave/Generated/CMSIS_DSP/TransformFunctions/arm_cfft_radix4_q15.c ****     /*  Twiddle coefficients index modifier */
 365:../Dave/Generated/CMSIS_DSP/TransformFunctions/arm_cfft_radix4_q15.c ****     ic = ic + twidCoefModifier;
 904              	 .loc 1 365 0 discriminator 1
 905 0602 3B46     	 mov r3,r7
 906 0604 D7F8C022 	 ldr r2,[r7,#704]
 907 0608 1B68     	 ldr r3,[r3]
 908 060a 1344     	 add r3,r3,r2
 909 060c C7F8C032 	 str r3,[r7,#704]
 366:../Dave/Generated/CMSIS_DSP/TransformFunctions/arm_cfft_radix4_q15.c **** 
 367:../Dave/Generated/CMSIS_DSP/TransformFunctions/arm_cfft_radix4_q15.c ****   } while(--j);
 910              	 .loc 1 367 0 discriminator 1
 911 0610 D7F8B832 	 ldr r3,[r7,#696]
 912 0614 013B     	 subs r3,r3,#1
 913 0616 C7F8B832 	 str r3,[r7,#696]
 914 061a D7F8B832 	 ldr r3,[r7,#696]
 915 061e 002B     	 cmp r3,#0
 916 0620 7FF42EAD 	 bne .L32
 368:../Dave/Generated/CMSIS_DSP/TransformFunctions/arm_cfft_radix4_q15.c ****   /* data is in 4.11(q11) format */
 369:../Dave/Generated/CMSIS_DSP/TransformFunctions/arm_cfft_radix4_q15.c **** 
 370:../Dave/Generated/CMSIS_DSP/TransformFunctions/arm_cfft_radix4_q15.c ****   /* end of first stage process */
 371:../Dave/Generated/CMSIS_DSP/TransformFunctions/arm_cfft_radix4_q15.c **** 
 372:../Dave/Generated/CMSIS_DSP/TransformFunctions/arm_cfft_radix4_q15.c **** 
 373:../Dave/Generated/CMSIS_DSP/TransformFunctions/arm_cfft_radix4_q15.c ****   /* start of middle stage process */
 374:../Dave/Generated/CMSIS_DSP/TransformFunctions/arm_cfft_radix4_q15.c **** 
 375:../Dave/Generated/CMSIS_DSP/TransformFunctions/arm_cfft_radix4_q15.c ****   /*  Twiddle coefficients index modifier */
 376:../Dave/Generated/CMSIS_DSP/TransformFunctions/arm_cfft_radix4_q15.c ****   twidCoefModifier <<= 2u;
 917              	 .loc 1 376 0
 918 0624 3B46     	 mov r3,r7
 919 0626 3A46     	 mov r2,r7
 920 0628 1268     	 ldr r2,[r2]
 921 062a 9200     	 lsls r2,r2,#2
 922 062c 1A60     	 str r2,[r3]
 377:../Dave/Generated/CMSIS_DSP/TransformFunctions/arm_cfft_radix4_q15.c **** 
 378:../Dave/Generated/CMSIS_DSP/TransformFunctions/arm_cfft_radix4_q15.c ****   /*  Calculation of Middle stage */
 379:../Dave/Generated/CMSIS_DSP/TransformFunctions/arm_cfft_radix4_q15.c ****   for (k = fftLen / 4u; k > 4u; k >>= 2u)
 923              	 .loc 1 379 0
 924 062e 07F10803 	 add r3,r7,#8
 925 0632 1B68     	 ldr r3,[r3]
 926 0634 9B08     	 lsrs r3,r3,#2
 927 0636 C7F8B432 	 str r3,[r7,#692]
 928 063a 70E2     	 b .L33
 929              	.L53:
 380:../Dave/Generated/CMSIS_DSP/TransformFunctions/arm_cfft_radix4_q15.c ****   {
 381:../Dave/Generated/CMSIS_DSP/TransformFunctions/arm_cfft_radix4_q15.c ****     /*  Initializations for the middle stage */
 382:../Dave/Generated/CMSIS_DSP/TransformFunctions/arm_cfft_radix4_q15.c ****     n1 = n2;
 930              	 .loc 1 382 0
 931 063c D7F8C432 	 ldr r3,[r7,#708]
 932 0640 C7F8A032 	 str r3,[r7,#672]
 383:../Dave/Generated/CMSIS_DSP/TransformFunctions/arm_cfft_radix4_q15.c ****     n2 >>= 2u;
 933              	 .loc 1 383 0
 934 0644 D7F8C432 	 ldr r3,[r7,#708]
 935 0648 9B08     	 lsrs r3,r3,#2
 936 064a C7F8C432 	 str r3,[r7,#708]
 384:../Dave/Generated/CMSIS_DSP/TransformFunctions/arm_cfft_radix4_q15.c ****     ic = 0u;
 937              	 .loc 1 384 0
 938 064e 0023     	 movs r3,#0
 939 0650 C7F8C032 	 str r3,[r7,#704]
 385:../Dave/Generated/CMSIS_DSP/TransformFunctions/arm_cfft_radix4_q15.c **** 
 386:../Dave/Generated/CMSIS_DSP/TransformFunctions/arm_cfft_radix4_q15.c ****     for (j = 0u; j <= (n2 - 1u); j++)
 940              	 .loc 1 386 0
 941 0654 0023     	 movs r3,#0
 942 0656 C7F8B832 	 str r3,[r7,#696]
 943 065a 4EE2     	 b .L34
 944              	.L52:
 387:../Dave/Generated/CMSIS_DSP/TransformFunctions/arm_cfft_radix4_q15.c ****     {
 388:../Dave/Generated/CMSIS_DSP/TransformFunctions/arm_cfft_radix4_q15.c ****       /*  index calculation for the coefficients */
 389:../Dave/Generated/CMSIS_DSP/TransformFunctions/arm_cfft_radix4_q15.c ****       C1 = _SIMD32_OFFSET(pCoef16 + (2u * ic));
 945              	 .loc 1 389 0
 946 065c D7F8C032 	 ldr r3,[r7,#704]
 947 0660 9B00     	 lsls r3,r3,#2
 948 0662 3A1D     	 adds r2,r7,#4
 949 0664 1268     	 ldr r2,[r2]
 950 0666 1344     	 add r3,r3,r2
 951 0668 1B68     	 ldr r3,[r3]
 952 066a C7F88032 	 str r3,[r7,#640]
 390:../Dave/Generated/CMSIS_DSP/TransformFunctions/arm_cfft_radix4_q15.c ****       C2 = _SIMD32_OFFSET(pCoef16 + (4u * ic));
 953              	 .loc 1 390 0
 954 066e D7F8C032 	 ldr r3,[r7,#704]
 955 0672 DB00     	 lsls r3,r3,#3
 956 0674 3A1D     	 adds r2,r7,#4
 957 0676 1268     	 ldr r2,[r2]
 958 0678 1344     	 add r3,r3,r2
 959 067a 1B68     	 ldr r3,[r3]
 960 067c C7F88C32 	 str r3,[r7,#652]
 391:../Dave/Generated/CMSIS_DSP/TransformFunctions/arm_cfft_radix4_q15.c ****       C3 = _SIMD32_OFFSET(pCoef16 + (6u * ic));
 961              	 .loc 1 391 0
 962 0680 D7F8C022 	 ldr r2,[r7,#704]
 963 0684 1346     	 mov r3,r2
 964 0686 5B00     	 lsls r3,r3,#1
 965 0688 1344     	 add r3,r3,r2
 966 068a 9B00     	 lsls r3,r3,#2
 967 068c 1A46     	 mov r2,r3
 968 068e 3B1D     	 adds r3,r7,#4
 969 0690 1B68     	 ldr r3,[r3]
 970 0692 1344     	 add r3,r3,r2
 971 0694 1B68     	 ldr r3,[r3]
 972 0696 C7F87C32 	 str r3,[r7,#636]
 392:../Dave/Generated/CMSIS_DSP/TransformFunctions/arm_cfft_radix4_q15.c **** 
 393:../Dave/Generated/CMSIS_DSP/TransformFunctions/arm_cfft_radix4_q15.c ****       /*  Twiddle coefficients index modifier */
 394:../Dave/Generated/CMSIS_DSP/TransformFunctions/arm_cfft_radix4_q15.c ****       ic = ic + twidCoefModifier;
 973              	 .loc 1 394 0
 974 069a 3B46     	 mov r3,r7
 975 069c D7F8C022 	 ldr r2,[r7,#704]
 976 06a0 1B68     	 ldr r3,[r3]
 977 06a2 1344     	 add r3,r3,r2
 978 06a4 C7F8C032 	 str r3,[r7,#704]
 395:../Dave/Generated/CMSIS_DSP/TransformFunctions/arm_cfft_radix4_q15.c ****       
 396:../Dave/Generated/CMSIS_DSP/TransformFunctions/arm_cfft_radix4_q15.c ****       pSi0 = pSrc16 + 2 * j;
 979              	 .loc 1 396 0
 980 06a8 D7F8B832 	 ldr r3,[r7,#696]
 981 06ac 9B00     	 lsls r3,r3,#2
 982 06ae 07F10C02 	 add r2,r7,#12
 983 06b2 1268     	 ldr r2,[r2]
 984 06b4 1344     	 add r3,r3,r2
 985 06b6 C7F8B032 	 str r3,[r7,#688]
 397:../Dave/Generated/CMSIS_DSP/TransformFunctions/arm_cfft_radix4_q15.c ****       pSi1 = pSi0 + 2 * n2;
 986              	 .loc 1 397 0
 987 06ba D7F8C432 	 ldr r3,[r7,#708]
 988 06be 9B00     	 lsls r3,r3,#2
 989 06c0 D7F8B022 	 ldr r2,[r7,#688]
 990 06c4 1344     	 add r3,r3,r2
 991 06c6 C7F8AC32 	 str r3,[r7,#684]
 398:../Dave/Generated/CMSIS_DSP/TransformFunctions/arm_cfft_radix4_q15.c ****       pSi2 = pSi1 + 2 * n2;
 992              	 .loc 1 398 0
 993 06ca D7F8C432 	 ldr r3,[r7,#708]
 994 06ce 9B00     	 lsls r3,r3,#2
 995 06d0 D7F8AC22 	 ldr r2,[r7,#684]
 996 06d4 1344     	 add r3,r3,r2
 997 06d6 C7F8A832 	 str r3,[r7,#680]
 399:../Dave/Generated/CMSIS_DSP/TransformFunctions/arm_cfft_radix4_q15.c ****       pSi3 = pSi2 + 2 * n2;
 998              	 .loc 1 399 0
 999 06da D7F8C432 	 ldr r3,[r7,#708]
 1000 06de 9B00     	 lsls r3,r3,#2
 1001 06e0 D7F8A822 	 ldr r2,[r7,#680]
 1002 06e4 1344     	 add r3,r3,r2
 1003 06e6 C7F8A432 	 str r3,[r7,#676]
 400:../Dave/Generated/CMSIS_DSP/TransformFunctions/arm_cfft_radix4_q15.c **** 
 401:../Dave/Generated/CMSIS_DSP/TransformFunctions/arm_cfft_radix4_q15.c ****       /*  Butterfly implementation */
 402:../Dave/Generated/CMSIS_DSP/TransformFunctions/arm_cfft_radix4_q15.c ****       for (i0 = j; i0 < fftLen; i0 += n1)
 1004              	 .loc 1 402 0
 1005 06ea D7F8B832 	 ldr r3,[r7,#696]
 1006 06ee C7F8BC32 	 str r3,[r7,#700]
 1007 06f2 F5E1     	 b .L35
 1008              	.L51:
 403:../Dave/Generated/CMSIS_DSP/TransformFunctions/arm_cfft_radix4_q15.c ****       {
 404:../Dave/Generated/CMSIS_DSP/TransformFunctions/arm_cfft_radix4_q15.c ****         /*  Reading i0, i0+fftLen/2 inputs */
 405:../Dave/Generated/CMSIS_DSP/TransformFunctions/arm_cfft_radix4_q15.c ****         /* Read ya (real), xa(imag) input */
 406:../Dave/Generated/CMSIS_DSP/TransformFunctions/arm_cfft_radix4_q15.c ****         T = _SIMD32_OFFSET(pSi0);
 1009              	 .loc 1 406 0 discriminator 3
 1010 06f4 D7F8B032 	 ldr r3,[r7,#688]
 1011 06f8 1B68     	 ldr r3,[r3]
 1012 06fa C7F89C32 	 str r3,[r7,#668]
 407:../Dave/Generated/CMSIS_DSP/TransformFunctions/arm_cfft_radix4_q15.c **** 
 408:../Dave/Generated/CMSIS_DSP/TransformFunctions/arm_cfft_radix4_q15.c ****         /* Read yc (real), xc(imag) input */
 409:../Dave/Generated/CMSIS_DSP/TransformFunctions/arm_cfft_radix4_q15.c ****         S = _SIMD32_OFFSET(pSi2);
 1013              	 .loc 1 409 0 discriminator 3
 1014 06fe D7F8A832 	 ldr r3,[r7,#680]
 1015 0702 1B68     	 ldr r3,[r3]
 1016 0704 C7F89832 	 str r3,[r7,#664]
 410:../Dave/Generated/CMSIS_DSP/TransformFunctions/arm_cfft_radix4_q15.c **** 
 411:../Dave/Generated/CMSIS_DSP/TransformFunctions/arm_cfft_radix4_q15.c ****         /* R = packed( (ya + yc), (xa + xc)) */
 412:../Dave/Generated/CMSIS_DSP/TransformFunctions/arm_cfft_radix4_q15.c ****         R = __QADD16(T, S);
 1017              	 .loc 1 412 0 discriminator 3
 1018 0708 D7F89C12 	 ldr r1,[r7,#668]
 1019 070c D7F89822 	 ldr r2,[r7,#664]
 1020 0710 07F59873 	 add r3,r7,#304
 1021 0714 1960     	 str r1,[r3]
 1022 0716 07F59673 	 add r3,r7,#300
 1023 071a 1A60     	 str r2,[r3]
 1024              	.LBB254:
 1025              	.LBB255:
 245:C:\Users\Depes Crystalline\Desktop\school\Active_Bike_Lighting_System\Radar_Core/Libraries/CMSIS/Include\core_cmSimd.h ****   return(result);
 1026              	 .loc 2 245 0 discriminator 3
 1027 071c 07F59873 	 add r3,r7,#304
 1028 0720 1B68     	 ldr r3,[r3]
 1029 0722 07F59672 	 add r2,r7,#300
 1030 0726 1268     	 ldr r2,[r2]
 1031              	
 1032 0728 93FA12F2 	 qadd16 r2,r3,r2
 1033              	
 1034              	 .thumb
 1035 072c 07F59473 	 add r3,r7,#296
 1036 0730 1A60     	 str r2,[r3]
 246:C:\Users\Depes Crystalline\Desktop\school\Active_Bike_Lighting_System\Radar_Core/Libraries/CMSIS/Include\core_cmSimd.h **** }
 1037              	 .loc 2 246 0 discriminator 3
 1038 0732 07F59473 	 add r3,r7,#296
 1039 0736 1B68     	 ldr r3,[r3]
 1040              	.LBE255:
 1041              	.LBE254:
 1042              	 .loc 1 412 0 discriminator 3
 1043 0738 C7F89432 	 str r3,[r7,#660]
 413:../Dave/Generated/CMSIS_DSP/TransformFunctions/arm_cfft_radix4_q15.c **** 
 414:../Dave/Generated/CMSIS_DSP/TransformFunctions/arm_cfft_radix4_q15.c ****         /* S = packed((ya - yc), (xa - xc)) */
 415:../Dave/Generated/CMSIS_DSP/TransformFunctions/arm_cfft_radix4_q15.c ****         S = __QSUB16(T, S);
 1044              	 .loc 1 415 0 discriminator 3
 1045 073c D7F89C12 	 ldr r1,[r7,#668]
 1046 0740 D7F89822 	 ldr r2,[r7,#664]
 1047 0744 07F59273 	 add r3,r7,#292
 1048 0748 1960     	 str r1,[r3]
 1049 074a 07F59073 	 add r3,r7,#288
 1050 074e 1A60     	 str r2,[r3]
 1051              	.LBB256:
 1052              	.LBB257:
 293:C:\Users\Depes Crystalline\Desktop\school\Active_Bike_Lighting_System\Radar_Core/Libraries/CMSIS/Include\core_cmSimd.h ****   return(result);
 1053              	 .loc 2 293 0 discriminator 3
 1054 0750 07F59273 	 add r3,r7,#292
 1055 0754 1B68     	 ldr r3,[r3]
 1056 0756 07F59072 	 add r2,r7,#288
 1057 075a 1268     	 ldr r2,[r2]
 1058              	
 1059 075c D3FA12F2 	 qsub16 r2,r3,r2
 1060              	
 1061              	 .thumb
 1062 0760 07F58E73 	 add r3,r7,#284
 1063 0764 1A60     	 str r2,[r3]
 294:C:\Users\Depes Crystalline\Desktop\school\Active_Bike_Lighting_System\Radar_Core/Libraries/CMSIS/Include\core_cmSimd.h **** }
 1064              	 .loc 2 294 0 discriminator 3
 1065 0766 07F58E73 	 add r3,r7,#284
 1066 076a 1B68     	 ldr r3,[r3]
 1067              	.LBE257:
 1068              	.LBE256:
 1069              	 .loc 1 415 0 discriminator 3
 1070 076c C7F89832 	 str r3,[r7,#664]
 416:../Dave/Generated/CMSIS_DSP/TransformFunctions/arm_cfft_radix4_q15.c **** 
 417:../Dave/Generated/CMSIS_DSP/TransformFunctions/arm_cfft_radix4_q15.c ****         /*  Reading i0+fftLen/4 , i0+3fftLen/4 inputs */
 418:../Dave/Generated/CMSIS_DSP/TransformFunctions/arm_cfft_radix4_q15.c ****         /* Read yb (real), xb(imag) input */
 419:../Dave/Generated/CMSIS_DSP/TransformFunctions/arm_cfft_radix4_q15.c ****         T = _SIMD32_OFFSET(pSi1);
 1071              	 .loc 1 419 0 discriminator 3
 1072 0770 D7F8AC32 	 ldr r3,[r7,#684]
 1073 0774 1B68     	 ldr r3,[r3]
 1074 0776 C7F89C32 	 str r3,[r7,#668]
 420:../Dave/Generated/CMSIS_DSP/TransformFunctions/arm_cfft_radix4_q15.c **** 
 421:../Dave/Generated/CMSIS_DSP/TransformFunctions/arm_cfft_radix4_q15.c ****         /* Read yd (real), xd(imag) input */
 422:../Dave/Generated/CMSIS_DSP/TransformFunctions/arm_cfft_radix4_q15.c ****         U = _SIMD32_OFFSET(pSi3);
 1075              	 .loc 1 422 0 discriminator 3
 1076 077a D7F8A432 	 ldr r3,[r7,#676]
 1077 077e 1B68     	 ldr r3,[r3]
 1078 0780 C7F89032 	 str r3,[r7,#656]
 423:../Dave/Generated/CMSIS_DSP/TransformFunctions/arm_cfft_radix4_q15.c **** 
 424:../Dave/Generated/CMSIS_DSP/TransformFunctions/arm_cfft_radix4_q15.c ****         /* T = packed( (yb + yd), (xb + xd)) */
 425:../Dave/Generated/CMSIS_DSP/TransformFunctions/arm_cfft_radix4_q15.c ****         T = __QADD16(T, U);
 1079              	 .loc 1 425 0 discriminator 3
 1080 0784 D7F89C12 	 ldr r1,[r7,#668]
 1081 0788 D7F89022 	 ldr r2,[r7,#656]
 1082 078c 07F58C73 	 add r3,r7,#280
 1083 0790 1960     	 str r1,[r3]
 1084 0792 07F58A73 	 add r3,r7,#276
 1085 0796 1A60     	 str r2,[r3]
 1086              	.LBB258:
 1087              	.LBB259:
 245:C:\Users\Depes Crystalline\Desktop\school\Active_Bike_Lighting_System\Radar_Core/Libraries/CMSIS/Include\core_cmSimd.h ****   return(result);
 1088              	 .loc 2 245 0 discriminator 3
 1089 0798 07F58C73 	 add r3,r7,#280
 1090 079c 1B68     	 ldr r3,[r3]
 1091 079e 07F58A72 	 add r2,r7,#276
 1092 07a2 1268     	 ldr r2,[r2]
 1093              	
 1094 07a4 93FA12F2 	 qadd16 r2,r3,r2
 1095              	
 1096              	 .thumb
 1097 07a8 07F58873 	 add r3,r7,#272
 1098 07ac 1A60     	 str r2,[r3]
 246:C:\Users\Depes Crystalline\Desktop\school\Active_Bike_Lighting_System\Radar_Core/Libraries/CMSIS/Include\core_cmSimd.h **** }
 1099              	 .loc 2 246 0 discriminator 3
 1100 07ae 07F58873 	 add r3,r7,#272
 1101 07b2 1B68     	 ldr r3,[r3]
 1102              	.LBE259:
 1103              	.LBE258:
 1104              	 .loc 1 425 0 discriminator 3
 1105 07b4 C7F89C32 	 str r3,[r7,#668]
 426:../Dave/Generated/CMSIS_DSP/TransformFunctions/arm_cfft_radix4_q15.c **** 
 427:../Dave/Generated/CMSIS_DSP/TransformFunctions/arm_cfft_radix4_q15.c ****         /*  writing the butterfly processed i0 sample */
 428:../Dave/Generated/CMSIS_DSP/TransformFunctions/arm_cfft_radix4_q15.c **** 
 429:../Dave/Generated/CMSIS_DSP/TransformFunctions/arm_cfft_radix4_q15.c ****         /* xa' = xa + xb + xc + xd */
 430:../Dave/Generated/CMSIS_DSP/TransformFunctions/arm_cfft_radix4_q15.c ****         /* ya' = ya + yb + yc + yd */
 431:../Dave/Generated/CMSIS_DSP/TransformFunctions/arm_cfft_radix4_q15.c ****         out1 = __SHADD16(R, T);
 1106              	 .loc 1 431 0 discriminator 3
 1107 07b8 D7F89412 	 ldr r1,[r7,#660]
 1108 07bc D7F89C22 	 ldr r2,[r7,#668]
 1109 07c0 07F58673 	 add r3,r7,#268
 1110 07c4 1960     	 str r1,[r3]
 1111 07c6 07F58473 	 add r3,r7,#264
 1112 07ca 1A60     	 str r2,[r3]
 1113              	.LBB260:
 1114              	.LBB261:
 253:C:\Users\Depes Crystalline\Desktop\school\Active_Bike_Lighting_System\Radar_Core/Libraries/CMSIS/Include\core_cmSimd.h ****   return(result);
 1115              	 .loc 2 253 0 discriminator 3
 1116 07cc 07F58673 	 add r3,r7,#268
 1117 07d0 1B68     	 ldr r3,[r3]
 1118 07d2 07F58472 	 add r2,r7,#264
 1119 07d6 1268     	 ldr r2,[r2]
 1120              	
 1121 07d8 93FA22F2 	 shadd16 r2,r3,r2
 1122              	
 1123              	 .thumb
 1124 07dc 07F58273 	 add r3,r7,#260
 1125 07e0 1A60     	 str r2,[r3]
 254:C:\Users\Depes Crystalline\Desktop\school\Active_Bike_Lighting_System\Radar_Core/Libraries/CMSIS/Include\core_cmSimd.h **** }
 1126              	 .loc 2 254 0 discriminator 3
 1127 07e2 07F58273 	 add r3,r7,#260
 1128 07e6 1B68     	 ldr r3,[r3]
 1129              	.LBE261:
 1130              	.LBE260:
 1131              	 .loc 1 431 0 discriminator 3
 1132 07e8 C7F88832 	 str r3,[r7,#648]
 432:../Dave/Generated/CMSIS_DSP/TransformFunctions/arm_cfft_radix4_q15.c ****         out1 = __SHADD16(out1, 0);
 1133              	 .loc 1 432 0 discriminator 3
 1134 07ec D7F88822 	 ldr r2,[r7,#648]
 1135 07f0 07F58073 	 add r3,r7,#256
 1136 07f4 1A60     	 str r2,[r3]
 1137 07f6 07F1FC03 	 add r3,r7,#252
 1138 07fa 0022     	 movs r2,#0
 1139 07fc 1A60     	 str r2,[r3]
 1140              	.LBB262:
 1141              	.LBB263:
 253:C:\Users\Depes Crystalline\Desktop\school\Active_Bike_Lighting_System\Radar_Core/Libraries/CMSIS/Include\core_cmSimd.h ****   return(result);
 1142              	 .loc 2 253 0 discriminator 3
 1143 07fe 07F58073 	 add r3,r7,#256
 1144 0802 1B68     	 ldr r3,[r3]
 1145 0804 07F1FC02 	 add r2,r7,#252
 1146 0808 1268     	 ldr r2,[r2]
 1147              	
 1148 080a 93FA22F2 	 shadd16 r2,r3,r2
 1149              	
 1150              	 .thumb
 1151 080e 07F1F803 	 add r3,r7,#248
 1152 0812 1A60     	 str r2,[r3]
 254:C:\Users\Depes Crystalline\Desktop\school\Active_Bike_Lighting_System\Radar_Core/Libraries/CMSIS/Include\core_cmSimd.h **** }
 1153              	 .loc 2 254 0 discriminator 3
 1154 0814 07F1F803 	 add r3,r7,#248
 1155 0818 1B68     	 ldr r3,[r3]
 1156              	.LBE263:
 1157              	.LBE262:
 1158              	 .loc 1 432 0 discriminator 3
 1159 081a C7F88832 	 str r3,[r7,#648]
 433:../Dave/Generated/CMSIS_DSP/TransformFunctions/arm_cfft_radix4_q15.c ****         _SIMD32_OFFSET(pSi0) = out1;
 1160              	 .loc 1 433 0 discriminator 3
 1161 081e D7F8B032 	 ldr r3,[r7,#688]
 1162 0822 D7F88822 	 ldr r2,[r7,#648]
 1163 0826 1A60     	 str r2,[r3]
 434:../Dave/Generated/CMSIS_DSP/TransformFunctions/arm_cfft_radix4_q15.c ****         pSi0 += 2 * n1;
 1164              	 .loc 1 434 0 discriminator 3
 1165 0828 D7F8A032 	 ldr r3,[r7,#672]
 1166 082c 9B00     	 lsls r3,r3,#2
 1167 082e D7F8B022 	 ldr r2,[r7,#688]
 1168 0832 1344     	 add r3,r3,r2
 1169 0834 C7F8B032 	 str r3,[r7,#688]
 435:../Dave/Generated/CMSIS_DSP/TransformFunctions/arm_cfft_radix4_q15.c **** 
 436:../Dave/Generated/CMSIS_DSP/TransformFunctions/arm_cfft_radix4_q15.c ****         /* R = packed( (ya + yc) - (yb + yd), (xa + xc) - (xb + xd)) */
 437:../Dave/Generated/CMSIS_DSP/TransformFunctions/arm_cfft_radix4_q15.c ****         R = __SHSUB16(R, T);
 1170              	 .loc 1 437 0 discriminator 3
 1171 0838 D7F89412 	 ldr r1,[r7,#660]
 1172 083c D7F89C22 	 ldr r2,[r7,#668]
 1173 0840 07F1F403 	 add r3,r7,#244
 1174 0844 1960     	 str r1,[r3]
 1175 0846 07F1F003 	 add r3,r7,#240
 1176 084a 1A60     	 str r2,[r3]
 1177              	.LBB264:
 1178              	.LBB265:
 301:C:\Users\Depes Crystalline\Desktop\school\Active_Bike_Lighting_System\Radar_Core/Libraries/CMSIS/Include\core_cmSimd.h ****   return(result);
 1179              	 .loc 2 301 0 discriminator 3
 1180 084c 07F1F403 	 add r3,r7,#244
 1181 0850 1B68     	 ldr r3,[r3]
 1182 0852 07F1F002 	 add r2,r7,#240
 1183 0856 1268     	 ldr r2,[r2]
 1184              	
 1185 0858 D3FA22F2 	 shsub16 r2,r3,r2
 1186              	
 1187              	 .thumb
 1188 085c 07F1EC03 	 add r3,r7,#236
 1189 0860 1A60     	 str r2,[r3]
 302:C:\Users\Depes Crystalline\Desktop\school\Active_Bike_Lighting_System\Radar_Core/Libraries/CMSIS/Include\core_cmSimd.h **** }
 1190              	 .loc 2 302 0 discriminator 3
 1191 0862 07F1EC03 	 add r3,r7,#236
 1192 0866 1B68     	 ldr r3,[r3]
 1193              	.LBE265:
 1194              	.LBE264:
 1195              	 .loc 1 437 0 discriminator 3
 1196 0868 C7F89432 	 str r3,[r7,#660]
 438:../Dave/Generated/CMSIS_DSP/TransformFunctions/arm_cfft_radix4_q15.c **** 
 439:../Dave/Generated/CMSIS_DSP/TransformFunctions/arm_cfft_radix4_q15.c **** #ifndef ARM_MATH_BIG_ENDIAN
 440:../Dave/Generated/CMSIS_DSP/TransformFunctions/arm_cfft_radix4_q15.c **** 
 441:../Dave/Generated/CMSIS_DSP/TransformFunctions/arm_cfft_radix4_q15.c ****         /* (ya-yb+yc-yd)* (si2) + (xa-xb+xc-xd)* co2 */
 442:../Dave/Generated/CMSIS_DSP/TransformFunctions/arm_cfft_radix4_q15.c ****         out1 = __SMUAD(C2, R) >> 16u;
 1197              	 .loc 1 442 0 discriminator 3
 1198 086c D7F88C12 	 ldr r1,[r7,#652]
 1199 0870 D7F89422 	 ldr r2,[r7,#660]
 1200 0874 07F1E803 	 add r3,r7,#232
 1201 0878 1960     	 str r1,[r3]
 1202 087a 07F1E403 	 add r3,r7,#228
 1203 087e 1A60     	 str r2,[r3]
 1204              	.LBB266:
 1205              	.LBB267:
 491:C:\Users\Depes Crystalline\Desktop\school\Active_Bike_Lighting_System\Radar_Core/Libraries/CMSIS/Include\core_cmSimd.h ****   return(result);
 1206              	 .loc 2 491 0 discriminator 3
 1207 0880 07F1E803 	 add r3,r7,#232
 1208 0884 1B68     	 ldr r3,[r3]
 1209 0886 07F1E402 	 add r2,r7,#228
 1210 088a 1268     	 ldr r2,[r2]
 1211              	
 1212 088c 23FB02F2 	 smuad r2,r3,r2
 1213              	
 1214              	 .thumb
 1215 0890 07F1E003 	 add r3,r7,#224
 1216 0894 1A60     	 str r2,[r3]
 492:C:\Users\Depes Crystalline\Desktop\school\Active_Bike_Lighting_System\Radar_Core/Libraries/CMSIS/Include\core_cmSimd.h **** }
 1217              	 .loc 2 492 0 discriminator 3
 1218 0896 07F1E003 	 add r3,r7,#224
 1219 089a 1B68     	 ldr r3,[r3]
 1220              	.LBE267:
 1221              	.LBE266:
 1222              	 .loc 1 442 0 discriminator 3
 1223 089c 1B0C     	 lsrs r3,r3,#16
 1224 089e C7F88832 	 str r3,[r7,#648]
 443:../Dave/Generated/CMSIS_DSP/TransformFunctions/arm_cfft_radix4_q15.c **** 
 444:../Dave/Generated/CMSIS_DSP/TransformFunctions/arm_cfft_radix4_q15.c ****         /* (ya-yb+yc-yd)* co2 - (xa-xb+xc-xd)* (si2) */
 445:../Dave/Generated/CMSIS_DSP/TransformFunctions/arm_cfft_radix4_q15.c ****         out2 = __SMUSDX(C2, R);
 1225              	 .loc 1 445 0 discriminator 3
 1226 08a2 D7F88C12 	 ldr r1,[r7,#652]
 1227 08a6 D7F89422 	 ldr r2,[r7,#660]
 1228 08aa 07F1DC03 	 add r3,r7,#220
 1229 08ae 1960     	 str r1,[r3]
 1230 08b0 07F1D803 	 add r3,r7,#216
 1231 08b4 1A60     	 str r2,[r3]
 1232              	.LBB268:
 1233              	.LBB269:
 565:C:\Users\Depes Crystalline\Desktop\school\Active_Bike_Lighting_System\Radar_Core/Libraries/CMSIS/Include\core_cmSimd.h ****   return(result);
 1234              	 .loc 2 565 0 discriminator 3
 1235 08b6 07F1DC03 	 add r3,r7,#220
 1236 08ba 1B68     	 ldr r3,[r3]
 1237 08bc 07F1D802 	 add r2,r7,#216
 1238 08c0 1268     	 ldr r2,[r2]
 1239              	
 1240 08c2 43FB12F2 	 smusdx r2,r3,r2
 1241              	
 1242              	 .thumb
 1243 08c6 07F1D403 	 add r3,r7,#212
 1244 08ca 1A60     	 str r2,[r3]
 1245              	 .loc 2 566 0 discriminator 3
 1246 08cc 07F1D403 	 add r3,r7,#212
 1247 08d0 1B68     	 ldr r3,[r3]
 1248              	.LBE269:
 1249              	.LBE268:
 1250              	 .loc 1 445 0 discriminator 3
 1251 08d2 C7F88432 	 str r3,[r7,#644]
 446:../Dave/Generated/CMSIS_DSP/TransformFunctions/arm_cfft_radix4_q15.c **** 
 447:../Dave/Generated/CMSIS_DSP/TransformFunctions/arm_cfft_radix4_q15.c **** #else
 448:../Dave/Generated/CMSIS_DSP/TransformFunctions/arm_cfft_radix4_q15.c **** 
 449:../Dave/Generated/CMSIS_DSP/TransformFunctions/arm_cfft_radix4_q15.c ****         /* (ya-yb+yc-yd)* co2 - (xa-xb+xc-xd)* (si2) */
 450:../Dave/Generated/CMSIS_DSP/TransformFunctions/arm_cfft_radix4_q15.c ****         out1 = __SMUSDX(R, C2) >> 16u;
 451:../Dave/Generated/CMSIS_DSP/TransformFunctions/arm_cfft_radix4_q15.c **** 
 452:../Dave/Generated/CMSIS_DSP/TransformFunctions/arm_cfft_radix4_q15.c ****         /* (ya-yb+yc-yd)* (si2) + (xa-xb+xc-xd)* co2 */
 453:../Dave/Generated/CMSIS_DSP/TransformFunctions/arm_cfft_radix4_q15.c ****         out2 = __SMUAD(C2, R);
 454:../Dave/Generated/CMSIS_DSP/TransformFunctions/arm_cfft_radix4_q15.c **** 
 455:../Dave/Generated/CMSIS_DSP/TransformFunctions/arm_cfft_radix4_q15.c **** #endif /*      #ifndef ARM_MATH_BIG_ENDIAN     */
 456:../Dave/Generated/CMSIS_DSP/TransformFunctions/arm_cfft_radix4_q15.c **** 
 457:../Dave/Generated/CMSIS_DSP/TransformFunctions/arm_cfft_radix4_q15.c ****         /*  Reading i0+3fftLen/4 */
 458:../Dave/Generated/CMSIS_DSP/TransformFunctions/arm_cfft_radix4_q15.c ****         /* Read yb (real), xb(imag) input */
 459:../Dave/Generated/CMSIS_DSP/TransformFunctions/arm_cfft_radix4_q15.c ****         T = _SIMD32_OFFSET(pSi1);
 1252              	 .loc 1 459 0 discriminator 3
 1253 08d6 D7F8AC32 	 ldr r3,[r7,#684]
 1254 08da 1B68     	 ldr r3,[r3]
 1255 08dc C7F89C32 	 str r3,[r7,#668]
 460:../Dave/Generated/CMSIS_DSP/TransformFunctions/arm_cfft_radix4_q15.c **** 
 461:../Dave/Generated/CMSIS_DSP/TransformFunctions/arm_cfft_radix4_q15.c ****         /*  writing the butterfly processed i0 + fftLen/4 sample */
 462:../Dave/Generated/CMSIS_DSP/TransformFunctions/arm_cfft_radix4_q15.c ****         /* xc' = (xa-xb+xc-xd)* co2 + (ya-yb+yc-yd)* (si2) */
 463:../Dave/Generated/CMSIS_DSP/TransformFunctions/arm_cfft_radix4_q15.c ****         /* yc' = (ya-yb+yc-yd)* co2 - (xa-xb+xc-xd)* (si2) */
 464:../Dave/Generated/CMSIS_DSP/TransformFunctions/arm_cfft_radix4_q15.c ****         _SIMD32_OFFSET(pSi1) =
 465:../Dave/Generated/CMSIS_DSP/TransformFunctions/arm_cfft_radix4_q15.c ****           ((out2) & 0xFFFF0000) | (out1 & 0x0000FFFF);
 1256              	 .loc 1 465 0 discriminator 3
 1257 08e0 D7F88432 	 ldr r3,[r7,#644]
 1258 08e4 1B0C     	 lsrs r3,r3,#16
 1259 08e6 1B04     	 lsls r3,r3,#16
 1260 08e8 D7F88822 	 ldr r2,[r7,#648]
 1261 08ec 92B2     	 uxth r2,r2
 1262 08ee 1343     	 orrs r3,r3,r2
 464:../Dave/Generated/CMSIS_DSP/TransformFunctions/arm_cfft_radix4_q15.c ****           ((out2) & 0xFFFF0000) | (out1 & 0x0000FFFF);
 1263              	 .loc 1 464 0 discriminator 3
 1264 08f0 1A46     	 mov r2,r3
 1265 08f2 D7F8AC32 	 ldr r3,[r7,#684]
 1266 08f6 1A60     	 str r2,[r3]
 466:../Dave/Generated/CMSIS_DSP/TransformFunctions/arm_cfft_radix4_q15.c ****         pSi1 += 2 * n1;
 1267              	 .loc 1 466 0 discriminator 3
 1268 08f8 D7F8A032 	 ldr r3,[r7,#672]
 1269 08fc 9B00     	 lsls r3,r3,#2
 1270 08fe D7F8AC22 	 ldr r2,[r7,#684]
 1271 0902 1344     	 add r3,r3,r2
 1272 0904 C7F8AC32 	 str r3,[r7,#684]
 467:../Dave/Generated/CMSIS_DSP/TransformFunctions/arm_cfft_radix4_q15.c **** 
 468:../Dave/Generated/CMSIS_DSP/TransformFunctions/arm_cfft_radix4_q15.c ****         /*  Butterfly calculations */
 469:../Dave/Generated/CMSIS_DSP/TransformFunctions/arm_cfft_radix4_q15.c **** 
 470:../Dave/Generated/CMSIS_DSP/TransformFunctions/arm_cfft_radix4_q15.c ****         /* Read yd (real), xd(imag) input */
 471:../Dave/Generated/CMSIS_DSP/TransformFunctions/arm_cfft_radix4_q15.c ****         U = _SIMD32_OFFSET(pSi3);
 1273              	 .loc 1 471 0 discriminator 3
 1274 0908 D7F8A432 	 ldr r3,[r7,#676]
 1275 090c 1B68     	 ldr r3,[r3]
 1276 090e C7F89032 	 str r3,[r7,#656]
 472:../Dave/Generated/CMSIS_DSP/TransformFunctions/arm_cfft_radix4_q15.c **** 
 473:../Dave/Generated/CMSIS_DSP/TransformFunctions/arm_cfft_radix4_q15.c ****         /* T = packed(yb-yd, xb-xd) */
 474:../Dave/Generated/CMSIS_DSP/TransformFunctions/arm_cfft_radix4_q15.c ****         T = __QSUB16(T, U);
 1277              	 .loc 1 474 0 discriminator 3
 1278 0912 D7F89C12 	 ldr r1,[r7,#668]
 1279 0916 D7F89022 	 ldr r2,[r7,#656]
 1280 091a 07F1D003 	 add r3,r7,#208
 1281 091e 1960     	 str r1,[r3]
 1282 0920 07F1CC03 	 add r3,r7,#204
 1283 0924 1A60     	 str r2,[r3]
 1284              	.LBB270:
 1285              	.LBB271:
 293:C:\Users\Depes Crystalline\Desktop\school\Active_Bike_Lighting_System\Radar_Core/Libraries/CMSIS/Include\core_cmSimd.h ****   return(result);
 1286              	 .loc 2 293 0 discriminator 3
 1287 0926 07F1D003 	 add r3,r7,#208
 1288 092a 1B68     	 ldr r3,[r3]
 1289 092c 07F1CC02 	 add r2,r7,#204
 1290 0930 1268     	 ldr r2,[r2]
 1291              	
 1292 0932 D3FA12F2 	 qsub16 r2,r3,r2
 1293              	
 1294              	 .thumb
 1295 0936 07F1C803 	 add r3,r7,#200
 1296 093a 1A60     	 str r2,[r3]
 294:C:\Users\Depes Crystalline\Desktop\school\Active_Bike_Lighting_System\Radar_Core/Libraries/CMSIS/Include\core_cmSimd.h **** }
 1297              	 .loc 2 294 0 discriminator 3
 1298 093c 07F1C803 	 add r3,r7,#200
 1299 0940 1B68     	 ldr r3,[r3]
 1300              	.LBE271:
 1301              	.LBE270:
 1302              	 .loc 1 474 0 discriminator 3
 1303 0942 C7F89C32 	 str r3,[r7,#668]
 475:../Dave/Generated/CMSIS_DSP/TransformFunctions/arm_cfft_radix4_q15.c **** 
 476:../Dave/Generated/CMSIS_DSP/TransformFunctions/arm_cfft_radix4_q15.c **** #ifndef ARM_MATH_BIG_ENDIAN
 477:../Dave/Generated/CMSIS_DSP/TransformFunctions/arm_cfft_radix4_q15.c **** 
 478:../Dave/Generated/CMSIS_DSP/TransformFunctions/arm_cfft_radix4_q15.c ****         /* R = packed((ya-yc) + (xb- xd) , (xa-xc) - (yb-yd)) */
 479:../Dave/Generated/CMSIS_DSP/TransformFunctions/arm_cfft_radix4_q15.c ****         R = __SHASX(S, T);
 1304              	 .loc 1 479 0 discriminator 3
 1305 0946 D7F89812 	 ldr r1,[r7,#664]
 1306 094a D7F89C22 	 ldr r2,[r7,#668]
 1307 094e 07F1C403 	 add r3,r7,#196
 1308 0952 1960     	 str r1,[r3]
 1309 0954 07F1C003 	 add r3,r7,#192
 1310 0958 1A60     	 str r2,[r3]
 1311              	.LBB272:
 1312              	.LBB273:
 349:C:\Users\Depes Crystalline\Desktop\school\Active_Bike_Lighting_System\Radar_Core/Libraries/CMSIS/Include\core_cmSimd.h ****   return(result);
 1313              	 .loc 2 349 0 discriminator 3
 1314 095a 07F1C403 	 add r3,r7,#196
 1315 095e 1B68     	 ldr r3,[r3]
 1316 0960 07F1C002 	 add r2,r7,#192
 1317 0964 1268     	 ldr r2,[r2]
 1318              	
 1319 0966 A3FA22F2 	 shasx r2,r3,r2
 1320              	
 1321              	 .thumb
 1322 096a 07F1BC03 	 add r3,r7,#188
 1323 096e 1A60     	 str r2,[r3]
 350:C:\Users\Depes Crystalline\Desktop\school\Active_Bike_Lighting_System\Radar_Core/Libraries/CMSIS/Include\core_cmSimd.h **** }
 1324              	 .loc 2 350 0 discriminator 3
 1325 0970 07F1BC03 	 add r3,r7,#188
 1326 0974 1B68     	 ldr r3,[r3]
 1327              	.LBE273:
 1328              	.LBE272:
 1329              	 .loc 1 479 0 discriminator 3
 1330 0976 C7F89432 	 str r3,[r7,#660]
 480:../Dave/Generated/CMSIS_DSP/TransformFunctions/arm_cfft_radix4_q15.c **** 
 481:../Dave/Generated/CMSIS_DSP/TransformFunctions/arm_cfft_radix4_q15.c ****         /* S = packed((ya-yc) - (xb- xd),  (xa-xc) + (yb-yd)) */
 482:../Dave/Generated/CMSIS_DSP/TransformFunctions/arm_cfft_radix4_q15.c ****         S = __SHSAX(S, T);
 1331              	 .loc 1 482 0 discriminator 3
 1332 097a D7F89812 	 ldr r1,[r7,#664]
 1333 097e D7F89C22 	 ldr r2,[r7,#668]
 1334 0982 07F1B803 	 add r3,r7,#184
 1335 0986 1960     	 str r1,[r3]
 1336 0988 07F1B403 	 add r3,r7,#180
 1337 098c 1A60     	 str r2,[r3]
 1338              	.LBB274:
 1339              	.LBB275:
 397:C:\Users\Depes Crystalline\Desktop\school\Active_Bike_Lighting_System\Radar_Core/Libraries/CMSIS/Include\core_cmSimd.h ****   return(result);
 1340              	 .loc 2 397 0 discriminator 3
 1341 098e 07F1B803 	 add r3,r7,#184
 1342 0992 1B68     	 ldr r3,[r3]
 1343 0994 07F1B402 	 add r2,r7,#180
 1344 0998 1268     	 ldr r2,[r2]
 1345              	
 1346 099a E3FA22F2 	 shsax r2,r3,r2
 1347              	
 1348              	 .thumb
 1349 099e 07F1B003 	 add r3,r7,#176
 1350 09a2 1A60     	 str r2,[r3]
 398:C:\Users\Depes Crystalline\Desktop\school\Active_Bike_Lighting_System\Radar_Core/Libraries/CMSIS/Include\core_cmSimd.h **** }
 1351              	 .loc 2 398 0 discriminator 3
 1352 09a4 07F1B003 	 add r3,r7,#176
 1353 09a8 1B68     	 ldr r3,[r3]
 1354              	.LBE275:
 1355              	.LBE274:
 1356              	 .loc 1 482 0 discriminator 3
 1357 09aa C7F89832 	 str r3,[r7,#664]
 483:../Dave/Generated/CMSIS_DSP/TransformFunctions/arm_cfft_radix4_q15.c **** 
 484:../Dave/Generated/CMSIS_DSP/TransformFunctions/arm_cfft_radix4_q15.c **** 
 485:../Dave/Generated/CMSIS_DSP/TransformFunctions/arm_cfft_radix4_q15.c ****         /*  Butterfly process for the i0+fftLen/2 sample */
 486:../Dave/Generated/CMSIS_DSP/TransformFunctions/arm_cfft_radix4_q15.c ****         out1 = __SMUAD(C1, S) >> 16u;
 1358              	 .loc 1 486 0 discriminator 3
 1359 09ae D7F88012 	 ldr r1,[r7,#640]
 1360 09b2 D7F89822 	 ldr r2,[r7,#664]
 1361 09b6 07F1AC03 	 add r3,r7,#172
 1362 09ba 1960     	 str r1,[r3]
 1363 09bc 07F1A803 	 add r3,r7,#168
 1364 09c0 1A60     	 str r2,[r3]
 1365              	.LBB276:
 1366              	.LBB277:
 491:C:\Users\Depes Crystalline\Desktop\school\Active_Bike_Lighting_System\Radar_Core/Libraries/CMSIS/Include\core_cmSimd.h ****   return(result);
 1367              	 .loc 2 491 0 discriminator 3
 1368 09c2 07F1AC03 	 add r3,r7,#172
 1369 09c6 1B68     	 ldr r3,[r3]
 1370 09c8 07F1A802 	 add r2,r7,#168
 1371 09cc 1268     	 ldr r2,[r2]
 1372              	
 1373 09ce 23FB02F2 	 smuad r2,r3,r2
 1374              	
 1375              	 .thumb
 1376 09d2 07F1A403 	 add r3,r7,#164
 1377 09d6 1A60     	 str r2,[r3]
 492:C:\Users\Depes Crystalline\Desktop\school\Active_Bike_Lighting_System\Radar_Core/Libraries/CMSIS/Include\core_cmSimd.h **** }
 1378              	 .loc 2 492 0 discriminator 3
 1379 09d8 07F1A403 	 add r3,r7,#164
 1380 09dc 1B68     	 ldr r3,[r3]
 1381              	.LBE277:
 1382              	.LBE276:
 1383              	 .loc 1 486 0 discriminator 3
 1384 09de 1B0C     	 lsrs r3,r3,#16
 1385 09e0 C7F88832 	 str r3,[r7,#648]
 487:../Dave/Generated/CMSIS_DSP/TransformFunctions/arm_cfft_radix4_q15.c ****         out2 = __SMUSDX(C1, S);
 1386              	 .loc 1 487 0 discriminator 3
 1387 09e4 D7F88012 	 ldr r1,[r7,#640]
 1388 09e8 D7F89822 	 ldr r2,[r7,#664]
 1389 09ec 07F1A003 	 add r3,r7,#160
 1390 09f0 1960     	 str r1,[r3]
 1391 09f2 07F19C03 	 add r3,r7,#156
 1392 09f6 1A60     	 str r2,[r3]
 1393              	.LBB278:
 1394              	.LBB279:
 565:C:\Users\Depes Crystalline\Desktop\school\Active_Bike_Lighting_System\Radar_Core/Libraries/CMSIS/Include\core_cmSimd.h ****   return(result);
 1395              	 .loc 2 565 0 discriminator 3
 1396 09f8 07F1A003 	 add r3,r7,#160
 1397 09fc 1B68     	 ldr r3,[r3]
 1398 09fe 07F19C02 	 add r2,r7,#156
 1399 0a02 1268     	 ldr r2,[r2]
 1400              	
 1401 0a04 43FB12F2 	 smusdx r2,r3,r2
 1402              	
 1403              	 .thumb
 1404 0a08 07F19803 	 add r3,r7,#152
 1405 0a0c 1A60     	 str r2,[r3]
 1406              	 .loc 2 566 0 discriminator 3
 1407 0a0e 07F19803 	 add r3,r7,#152
 1408 0a12 1B68     	 ldr r3,[r3]
 1409              	.LBE279:
 1410              	.LBE278:
 1411              	 .loc 1 487 0 discriminator 3
 1412 0a14 C7F88432 	 str r3,[r7,#644]
 488:../Dave/Generated/CMSIS_DSP/TransformFunctions/arm_cfft_radix4_q15.c **** 
 489:../Dave/Generated/CMSIS_DSP/TransformFunctions/arm_cfft_radix4_q15.c **** #else
 490:../Dave/Generated/CMSIS_DSP/TransformFunctions/arm_cfft_radix4_q15.c **** 
 491:../Dave/Generated/CMSIS_DSP/TransformFunctions/arm_cfft_radix4_q15.c ****         /* R = packed((ya-yc) + (xb- xd) , (xa-xc) - (yb-yd)) */
 492:../Dave/Generated/CMSIS_DSP/TransformFunctions/arm_cfft_radix4_q15.c ****         R = __SHSAX(S, T);
 493:../Dave/Generated/CMSIS_DSP/TransformFunctions/arm_cfft_radix4_q15.c **** 
 494:../Dave/Generated/CMSIS_DSP/TransformFunctions/arm_cfft_radix4_q15.c ****         /* S = packed((ya-yc) - (xb- xd),  (xa-xc) + (yb-yd)) */
 495:../Dave/Generated/CMSIS_DSP/TransformFunctions/arm_cfft_radix4_q15.c ****         S = __SHASX(S, T);
 496:../Dave/Generated/CMSIS_DSP/TransformFunctions/arm_cfft_radix4_q15.c **** 
 497:../Dave/Generated/CMSIS_DSP/TransformFunctions/arm_cfft_radix4_q15.c **** 
 498:../Dave/Generated/CMSIS_DSP/TransformFunctions/arm_cfft_radix4_q15.c ****         /*  Butterfly process for the i0+fftLen/2 sample */
 499:../Dave/Generated/CMSIS_DSP/TransformFunctions/arm_cfft_radix4_q15.c ****         out1 = __SMUSDX(S, C1) >> 16u;
 500:../Dave/Generated/CMSIS_DSP/TransformFunctions/arm_cfft_radix4_q15.c ****         out2 = __SMUAD(C1, S);
 501:../Dave/Generated/CMSIS_DSP/TransformFunctions/arm_cfft_radix4_q15.c **** 
 502:../Dave/Generated/CMSIS_DSP/TransformFunctions/arm_cfft_radix4_q15.c **** #endif /*      #ifndef ARM_MATH_BIG_ENDIAN     */
 503:../Dave/Generated/CMSIS_DSP/TransformFunctions/arm_cfft_radix4_q15.c **** 
 504:../Dave/Generated/CMSIS_DSP/TransformFunctions/arm_cfft_radix4_q15.c ****         /* xb' = (xa+yb-xc-yd)* co1 + (ya-xb-yc+xd)* (si1) */
 505:../Dave/Generated/CMSIS_DSP/TransformFunctions/arm_cfft_radix4_q15.c ****         /* yb' = (ya-xb-yc+xd)* co1 - (xa+yb-xc-yd)* (si1) */
 506:../Dave/Generated/CMSIS_DSP/TransformFunctions/arm_cfft_radix4_q15.c ****         _SIMD32_OFFSET(pSi2) =
 507:../Dave/Generated/CMSIS_DSP/TransformFunctions/arm_cfft_radix4_q15.c ****           ((out2) & 0xFFFF0000) | (out1 & 0x0000FFFF);
 1413              	 .loc 1 507 0 discriminator 3
 1414 0a18 D7F88432 	 ldr r3,[r7,#644]
 1415 0a1c 1B0C     	 lsrs r3,r3,#16
 1416 0a1e 1B04     	 lsls r3,r3,#16
 1417 0a20 D7F88822 	 ldr r2,[r7,#648]
 1418 0a24 92B2     	 uxth r2,r2
 1419 0a26 1343     	 orrs r3,r3,r2
 506:../Dave/Generated/CMSIS_DSP/TransformFunctions/arm_cfft_radix4_q15.c ****           ((out2) & 0xFFFF0000) | (out1 & 0x0000FFFF);
 1420              	 .loc 1 506 0 discriminator 3
 1421 0a28 1A46     	 mov r2,r3
 1422 0a2a D7F8A832 	 ldr r3,[r7,#680]
 1423 0a2e 1A60     	 str r2,[r3]
 508:../Dave/Generated/CMSIS_DSP/TransformFunctions/arm_cfft_radix4_q15.c ****         pSi2 += 2 * n1;
 1424              	 .loc 1 508 0 discriminator 3
 1425 0a30 D7F8A032 	 ldr r3,[r7,#672]
 1426 0a34 9B00     	 lsls r3,r3,#2
 1427 0a36 D7F8A822 	 ldr r2,[r7,#680]
 1428 0a3a 1344     	 add r3,r3,r2
 1429 0a3c C7F8A832 	 str r3,[r7,#680]
 509:../Dave/Generated/CMSIS_DSP/TransformFunctions/arm_cfft_radix4_q15.c **** 
 510:../Dave/Generated/CMSIS_DSP/TransformFunctions/arm_cfft_radix4_q15.c ****         /*  Butterfly process for the i0+3fftLen/4 sample */
 511:../Dave/Generated/CMSIS_DSP/TransformFunctions/arm_cfft_radix4_q15.c **** 
 512:../Dave/Generated/CMSIS_DSP/TransformFunctions/arm_cfft_radix4_q15.c **** #ifndef ARM_MATH_BIG_ENDIAN
 513:../Dave/Generated/CMSIS_DSP/TransformFunctions/arm_cfft_radix4_q15.c **** 
 514:../Dave/Generated/CMSIS_DSP/TransformFunctions/arm_cfft_radix4_q15.c ****         out1 = __SMUAD(C3, R) >> 16u;
 1430              	 .loc 1 514 0 discriminator 3
 1431 0a40 D7F87C12 	 ldr r1,[r7,#636]
 1432 0a44 D7F89422 	 ldr r2,[r7,#660]
 1433 0a48 07F19403 	 add r3,r7,#148
 1434 0a4c 1960     	 str r1,[r3]
 1435 0a4e 07F19003 	 add r3,r7,#144
 1436 0a52 1A60     	 str r2,[r3]
 1437              	.LBB280:
 1438              	.LBB281:
 491:C:\Users\Depes Crystalline\Desktop\school\Active_Bike_Lighting_System\Radar_Core/Libraries/CMSIS/Include\core_cmSimd.h ****   return(result);
 1439              	 .loc 2 491 0 discriminator 3
 1440 0a54 07F19403 	 add r3,r7,#148
 1441 0a58 1B68     	 ldr r3,[r3]
 1442 0a5a 07F19002 	 add r2,r7,#144
 1443 0a5e 1268     	 ldr r2,[r2]
 1444              	
 1445 0a60 23FB02F2 	 smuad r2,r3,r2
 1446              	
 1447              	 .thumb
 1448 0a64 07F18C03 	 add r3,r7,#140
 1449 0a68 1A60     	 str r2,[r3]
 492:C:\Users\Depes Crystalline\Desktop\school\Active_Bike_Lighting_System\Radar_Core/Libraries/CMSIS/Include\core_cmSimd.h **** }
 1450              	 .loc 2 492 0 discriminator 3
 1451 0a6a 07F18C03 	 add r3,r7,#140
 1452 0a6e 1B68     	 ldr r3,[r3]
 1453              	.LBE281:
 1454              	.LBE280:
 1455              	 .loc 1 514 0 discriminator 3
 1456 0a70 1B0C     	 lsrs r3,r3,#16
 1457 0a72 C7F88832 	 str r3,[r7,#648]
 515:../Dave/Generated/CMSIS_DSP/TransformFunctions/arm_cfft_radix4_q15.c ****         out2 = __SMUSDX(C3, R);
 1458              	 .loc 1 515 0 discriminator 3
 1459 0a76 D7F87C12 	 ldr r1,[r7,#636]
 1460 0a7a D7F89422 	 ldr r2,[r7,#660]
 1461 0a7e 07F18803 	 add r3,r7,#136
 1462 0a82 1960     	 str r1,[r3]
 1463 0a84 07F18403 	 add r3,r7,#132
 1464 0a88 1A60     	 str r2,[r3]
 1465              	.LBB282:
 1466              	.LBB283:
 565:C:\Users\Depes Crystalline\Desktop\school\Active_Bike_Lighting_System\Radar_Core/Libraries/CMSIS/Include\core_cmSimd.h ****   return(result);
 1467              	 .loc 2 565 0 discriminator 3
 1468 0a8a 07F18803 	 add r3,r7,#136
 1469 0a8e 1B68     	 ldr r3,[r3]
 1470 0a90 07F18402 	 add r2,r7,#132
 1471 0a94 1268     	 ldr r2,[r2]
 1472              	
 1473 0a96 43FB12F2 	 smusdx r2,r3,r2
 1474              	
 1475              	 .thumb
 1476 0a9a 07F18003 	 add r3,r7,#128
 1477 0a9e 1A60     	 str r2,[r3]
 1478              	 .loc 2 566 0 discriminator 3
 1479 0aa0 07F18003 	 add r3,r7,#128
 1480 0aa4 1B68     	 ldr r3,[r3]
 1481              	.LBE283:
 1482              	.LBE282:
 1483              	 .loc 1 515 0 discriminator 3
 1484 0aa6 C7F88432 	 str r3,[r7,#644]
 516:../Dave/Generated/CMSIS_DSP/TransformFunctions/arm_cfft_radix4_q15.c **** 
 517:../Dave/Generated/CMSIS_DSP/TransformFunctions/arm_cfft_radix4_q15.c **** #else
 518:../Dave/Generated/CMSIS_DSP/TransformFunctions/arm_cfft_radix4_q15.c **** 
 519:../Dave/Generated/CMSIS_DSP/TransformFunctions/arm_cfft_radix4_q15.c ****         out1 = __SMUSDX(R, C3) >> 16u;
 520:../Dave/Generated/CMSIS_DSP/TransformFunctions/arm_cfft_radix4_q15.c ****         out2 = __SMUAD(C3, R);
 521:../Dave/Generated/CMSIS_DSP/TransformFunctions/arm_cfft_radix4_q15.c **** 
 522:../Dave/Generated/CMSIS_DSP/TransformFunctions/arm_cfft_radix4_q15.c **** #endif /*      #ifndef ARM_MATH_BIG_ENDIAN     */
 523:../Dave/Generated/CMSIS_DSP/TransformFunctions/arm_cfft_radix4_q15.c **** 
 524:../Dave/Generated/CMSIS_DSP/TransformFunctions/arm_cfft_radix4_q15.c ****         /* xd' = (xa-yb-xc+yd)* co3 + (ya+xb-yc-xd)* (si3) */
 525:../Dave/Generated/CMSIS_DSP/TransformFunctions/arm_cfft_radix4_q15.c ****         /* yd' = (ya+xb-yc-xd)* co3 - (xa-yb-xc+yd)* (si3) */
 526:../Dave/Generated/CMSIS_DSP/TransformFunctions/arm_cfft_radix4_q15.c ****         _SIMD32_OFFSET(pSi3) =
 527:../Dave/Generated/CMSIS_DSP/TransformFunctions/arm_cfft_radix4_q15.c ****           ((out2) & 0xFFFF0000) | (out1 & 0x0000FFFF);
 1485              	 .loc 1 527 0 discriminator 3
 1486 0aaa D7F88432 	 ldr r3,[r7,#644]
 1487 0aae 1B0C     	 lsrs r3,r3,#16
 1488 0ab0 1B04     	 lsls r3,r3,#16
 1489 0ab2 D7F88822 	 ldr r2,[r7,#648]
 1490 0ab6 92B2     	 uxth r2,r2
 1491 0ab8 1343     	 orrs r3,r3,r2
 526:../Dave/Generated/CMSIS_DSP/TransformFunctions/arm_cfft_radix4_q15.c ****           ((out2) & 0xFFFF0000) | (out1 & 0x0000FFFF);
 1492              	 .loc 1 526 0 discriminator 3
 1493 0aba 1A46     	 mov r2,r3
 1494 0abc D7F8A432 	 ldr r3,[r7,#676]
 1495 0ac0 1A60     	 str r2,[r3]
 528:../Dave/Generated/CMSIS_DSP/TransformFunctions/arm_cfft_radix4_q15.c ****         pSi3 += 2 * n1;
 1496              	 .loc 1 528 0 discriminator 3
 1497 0ac2 D7F8A032 	 ldr r3,[r7,#672]
 1498 0ac6 9B00     	 lsls r3,r3,#2
 1499 0ac8 D7F8A422 	 ldr r2,[r7,#676]
 1500 0acc 1344     	 add r3,r3,r2
 1501 0ace C7F8A432 	 str r3,[r7,#676]
 402:../Dave/Generated/CMSIS_DSP/TransformFunctions/arm_cfft_radix4_q15.c ****       {
 1502              	 .loc 1 402 0 discriminator 3
 1503 0ad2 D7F8BC22 	 ldr r2,[r7,#700]
 1504 0ad6 D7F8A032 	 ldr r3,[r7,#672]
 1505 0ada 1344     	 add r3,r3,r2
 1506 0adc C7F8BC32 	 str r3,[r7,#700]
 1507              	.L35:
 402:../Dave/Generated/CMSIS_DSP/TransformFunctions/arm_cfft_radix4_q15.c ****       {
 1508              	 .loc 1 402 0 is_stmt 0 discriminator 1
 1509 0ae0 07F10803 	 add r3,r7,#8
 1510 0ae4 D7F8BC22 	 ldr r2,[r7,#700]
 1511 0ae8 1B68     	 ldr r3,[r3]
 1512 0aea 9A42     	 cmp r2,r3
 1513 0aec FFF402AE 	 bcc .L51
 386:../Dave/Generated/CMSIS_DSP/TransformFunctions/arm_cfft_radix4_q15.c ****     {
 1514              	 .loc 1 386 0 is_stmt 1 discriminator 2
 1515 0af0 D7F8B832 	 ldr r3,[r7,#696]
 1516 0af4 0133     	 adds r3,r3,#1
 1517 0af6 C7F8B832 	 str r3,[r7,#696]
 1518              	.L34:
 386:../Dave/Generated/CMSIS_DSP/TransformFunctions/arm_cfft_radix4_q15.c ****     {
 1519              	 .loc 1 386 0 is_stmt 0 discriminator 1
 1520 0afa D7F8C432 	 ldr r3,[r7,#708]
 1521 0afe 5A1E     	 subs r2,r3,#1
 1522 0b00 D7F8B832 	 ldr r3,[r7,#696]
 1523 0b04 9A42     	 cmp r2,r3
 1524 0b06 BFF4A9AD 	 bcs .L52
 529:../Dave/Generated/CMSIS_DSP/TransformFunctions/arm_cfft_radix4_q15.c ****       }
 530:../Dave/Generated/CMSIS_DSP/TransformFunctions/arm_cfft_radix4_q15.c ****     }
 531:../Dave/Generated/CMSIS_DSP/TransformFunctions/arm_cfft_radix4_q15.c ****     /*  Twiddle coefficients index modifier */
 532:../Dave/Generated/CMSIS_DSP/TransformFunctions/arm_cfft_radix4_q15.c ****     twidCoefModifier <<= 2u;
 1525              	 .loc 1 532 0 is_stmt 1 discriminator 2
 1526 0b0a 3B46     	 mov r3,r7
 1527 0b0c 3A46     	 mov r2,r7
 1528 0b0e 1268     	 ldr r2,[r2]
 1529 0b10 9200     	 lsls r2,r2,#2
 1530 0b12 1A60     	 str r2,[r3]
 379:../Dave/Generated/CMSIS_DSP/TransformFunctions/arm_cfft_radix4_q15.c ****   {
 1531              	 .loc 1 379 0 discriminator 2
 1532 0b14 D7F8B432 	 ldr r3,[r7,#692]
 1533 0b18 9B08     	 lsrs r3,r3,#2
 1534 0b1a C7F8B432 	 str r3,[r7,#692]
 1535              	.L33:
 379:../Dave/Generated/CMSIS_DSP/TransformFunctions/arm_cfft_radix4_q15.c ****   {
 1536              	 .loc 1 379 0 is_stmt 0 discriminator 1
 1537 0b1e D7F8B432 	 ldr r3,[r7,#692]
 1538 0b22 042B     	 cmp r3,#4
 1539 0b24 3FF68AAD 	 bhi .L53
 533:../Dave/Generated/CMSIS_DSP/TransformFunctions/arm_cfft_radix4_q15.c ****   }
 534:../Dave/Generated/CMSIS_DSP/TransformFunctions/arm_cfft_radix4_q15.c ****   /* end of middle stage process */
 535:../Dave/Generated/CMSIS_DSP/TransformFunctions/arm_cfft_radix4_q15.c **** 
 536:../Dave/Generated/CMSIS_DSP/TransformFunctions/arm_cfft_radix4_q15.c **** 
 537:../Dave/Generated/CMSIS_DSP/TransformFunctions/arm_cfft_radix4_q15.c ****   /* data is in 10.6(q6) format for the 1024 point */
 538:../Dave/Generated/CMSIS_DSP/TransformFunctions/arm_cfft_radix4_q15.c ****   /* data is in 8.8(q8) format for the 256 point */
 539:../Dave/Generated/CMSIS_DSP/TransformFunctions/arm_cfft_radix4_q15.c ****   /* data is in 6.10(q10) format for the 64 point */
 540:../Dave/Generated/CMSIS_DSP/TransformFunctions/arm_cfft_radix4_q15.c ****   /* data is in 4.12(q12) format for the 16 point */
 541:../Dave/Generated/CMSIS_DSP/TransformFunctions/arm_cfft_radix4_q15.c **** 
 542:../Dave/Generated/CMSIS_DSP/TransformFunctions/arm_cfft_radix4_q15.c ****   /*  Initializations for the last stage */
 543:../Dave/Generated/CMSIS_DSP/TransformFunctions/arm_cfft_radix4_q15.c ****   j = fftLen >> 2;
 1540              	 .loc 1 543 0 is_stmt 1
 1541 0b28 07F10803 	 add r3,r7,#8
 1542 0b2c 1B68     	 ldr r3,[r3]
 1543 0b2e 9B08     	 lsrs r3,r3,#2
 1544 0b30 C7F8B832 	 str r3,[r7,#696]
 544:../Dave/Generated/CMSIS_DSP/TransformFunctions/arm_cfft_radix4_q15.c **** 
 545:../Dave/Generated/CMSIS_DSP/TransformFunctions/arm_cfft_radix4_q15.c ****   ptr1 = &pSrc16[0];
 1545              	 .loc 1 545 0
 1546 0b34 07F11003 	 add r3,r7,#16
 1547 0b38 07F10C02 	 add r2,r7,#12
 1548 0b3c 1268     	 ldr r2,[r2]
 1549 0b3e 1A60     	 str r2,[r3]
 1550              	.L63:
 546:../Dave/Generated/CMSIS_DSP/TransformFunctions/arm_cfft_radix4_q15.c **** 
 547:../Dave/Generated/CMSIS_DSP/TransformFunctions/arm_cfft_radix4_q15.c ****   /* start of last stage process */
 548:../Dave/Generated/CMSIS_DSP/TransformFunctions/arm_cfft_radix4_q15.c **** 
 549:../Dave/Generated/CMSIS_DSP/TransformFunctions/arm_cfft_radix4_q15.c ****   /*  Butterfly implementation */
 550:../Dave/Generated/CMSIS_DSP/TransformFunctions/arm_cfft_radix4_q15.c ****   do
 551:../Dave/Generated/CMSIS_DSP/TransformFunctions/arm_cfft_radix4_q15.c ****   {
 552:../Dave/Generated/CMSIS_DSP/TransformFunctions/arm_cfft_radix4_q15.c ****     /* Read xa (real), ya(imag) input */
 553:../Dave/Generated/CMSIS_DSP/TransformFunctions/arm_cfft_radix4_q15.c ****     xaya = *__SIMD32(ptr1)++;
 1551              	 .loc 1 553 0 discriminator 1
 1552 0b40 07F11002 	 add r2,r7,#16
 1553 0b44 1368     	 ldr r3,[r2]
 1554 0b46 191D     	 adds r1,r3,#4
 1555 0b48 1160     	 str r1,[r2]
 1556 0b4a 1B68     	 ldr r3,[r3]
 1557 0b4c C7F87832 	 str r3,[r7,#632]
 554:../Dave/Generated/CMSIS_DSP/TransformFunctions/arm_cfft_radix4_q15.c **** 
 555:../Dave/Generated/CMSIS_DSP/TransformFunctions/arm_cfft_radix4_q15.c ****     /* Read xb (real), yb(imag) input */
 556:../Dave/Generated/CMSIS_DSP/TransformFunctions/arm_cfft_radix4_q15.c ****     xbyb = *__SIMD32(ptr1)++;
 1558              	 .loc 1 556 0 discriminator 1
 1559 0b50 07F11002 	 add r2,r7,#16
 1560 0b54 1368     	 ldr r3,[r2]
 1561 0b56 191D     	 adds r1,r3,#4
 1562 0b58 1160     	 str r1,[r2]
 1563 0b5a 1B68     	 ldr r3,[r3]
 1564 0b5c C7F87432 	 str r3,[r7,#628]
 557:../Dave/Generated/CMSIS_DSP/TransformFunctions/arm_cfft_radix4_q15.c **** 
 558:../Dave/Generated/CMSIS_DSP/TransformFunctions/arm_cfft_radix4_q15.c ****     /* Read xc (real), yc(imag) input */
 559:../Dave/Generated/CMSIS_DSP/TransformFunctions/arm_cfft_radix4_q15.c ****     xcyc = *__SIMD32(ptr1)++;
 1565              	 .loc 1 559 0 discriminator 1
 1566 0b60 07F11002 	 add r2,r7,#16
 1567 0b64 1368     	 ldr r3,[r2]
 1568 0b66 191D     	 adds r1,r3,#4
 1569 0b68 1160     	 str r1,[r2]
 1570 0b6a 1B68     	 ldr r3,[r3]
 1571 0b6c C7F87032 	 str r3,[r7,#624]
 560:../Dave/Generated/CMSIS_DSP/TransformFunctions/arm_cfft_radix4_q15.c **** 
 561:../Dave/Generated/CMSIS_DSP/TransformFunctions/arm_cfft_radix4_q15.c ****     /* Read xd (real), yd(imag) input */
 562:../Dave/Generated/CMSIS_DSP/TransformFunctions/arm_cfft_radix4_q15.c ****     xdyd = *__SIMD32(ptr1)++;
 1572              	 .loc 1 562 0 discriminator 1
 1573 0b70 07F11002 	 add r2,r7,#16
 1574 0b74 1368     	 ldr r3,[r2]
 1575 0b76 191D     	 adds r1,r3,#4
 1576 0b78 1160     	 str r1,[r2]
 1577 0b7a 1B68     	 ldr r3,[r3]
 1578 0b7c C7F86C32 	 str r3,[r7,#620]
 563:../Dave/Generated/CMSIS_DSP/TransformFunctions/arm_cfft_radix4_q15.c **** 
 564:../Dave/Generated/CMSIS_DSP/TransformFunctions/arm_cfft_radix4_q15.c ****     /* R = packed((ya + yc), (xa + xc)) */
 565:../Dave/Generated/CMSIS_DSP/TransformFunctions/arm_cfft_radix4_q15.c ****     R = __QADD16(xaya, xcyc);
 1579              	 .loc 1 565 0 discriminator 1
 1580 0b80 D7F87812 	 ldr r1,[r7,#632]
 1581 0b84 D7F87022 	 ldr r2,[r7,#624]
 1582 0b88 07F17C03 	 add r3,r7,#124
 1583 0b8c 1960     	 str r1,[r3]
 1584 0b8e 07F17803 	 add r3,r7,#120
 1585 0b92 1A60     	 str r2,[r3]
 1586              	.LBB284:
 1587              	.LBB285:
 245:C:\Users\Depes Crystalline\Desktop\school\Active_Bike_Lighting_System\Radar_Core/Libraries/CMSIS/Include\core_cmSimd.h ****   return(result);
 1588              	 .loc 2 245 0 discriminator 1
 1589 0b94 07F17C03 	 add r3,r7,#124
 1590 0b98 1B68     	 ldr r3,[r3]
 1591 0b9a 07F17802 	 add r2,r7,#120
 1592 0b9e 1268     	 ldr r2,[r2]
 1593              	
 1594 0ba0 93FA12F2 	 qadd16 r2,r3,r2
 1595              	
 1596              	 .thumb
 1597 0ba4 07F17403 	 add r3,r7,#116
 1598 0ba8 1A60     	 str r2,[r3]
 246:C:\Users\Depes Crystalline\Desktop\school\Active_Bike_Lighting_System\Radar_Core/Libraries/CMSIS/Include\core_cmSimd.h **** }
 1599              	 .loc 2 246 0 discriminator 1
 1600 0baa 07F17403 	 add r3,r7,#116
 1601 0bae 1B68     	 ldr r3,[r3]
 1602              	.LBE285:
 1603              	.LBE284:
 1604              	 .loc 1 565 0 discriminator 1
 1605 0bb0 C7F89432 	 str r3,[r7,#660]
 566:../Dave/Generated/CMSIS_DSP/TransformFunctions/arm_cfft_radix4_q15.c **** 
 567:../Dave/Generated/CMSIS_DSP/TransformFunctions/arm_cfft_radix4_q15.c ****     /* T = packed((yb + yd), (xb + xd)) */
 568:../Dave/Generated/CMSIS_DSP/TransformFunctions/arm_cfft_radix4_q15.c ****     T = __QADD16(xbyb, xdyd);
 1606              	 .loc 1 568 0 discriminator 1
 1607 0bb4 D7F87412 	 ldr r1,[r7,#628]
 1608 0bb8 D7F86C22 	 ldr r2,[r7,#620]
 1609 0bbc 07F17003 	 add r3,r7,#112
 1610 0bc0 1960     	 str r1,[r3]
 1611 0bc2 07F16C03 	 add r3,r7,#108
 1612 0bc6 1A60     	 str r2,[r3]
 1613              	.LBB286:
 1614              	.LBB287:
 245:C:\Users\Depes Crystalline\Desktop\school\Active_Bike_Lighting_System\Radar_Core/Libraries/CMSIS/Include\core_cmSimd.h ****   return(result);
 1615              	 .loc 2 245 0 discriminator 1
 1616 0bc8 07F17003 	 add r3,r7,#112
 1617 0bcc 1B68     	 ldr r3,[r3]
 1618 0bce 07F16C02 	 add r2,r7,#108
 1619 0bd2 1268     	 ldr r2,[r2]
 1620              	
 1621 0bd4 93FA12F2 	 qadd16 r2,r3,r2
 1622              	
 1623              	 .thumb
 1624 0bd8 07F16803 	 add r3,r7,#104
 1625 0bdc 1A60     	 str r2,[r3]
 246:C:\Users\Depes Crystalline\Desktop\school\Active_Bike_Lighting_System\Radar_Core/Libraries/CMSIS/Include\core_cmSimd.h **** }
 1626              	 .loc 2 246 0 discriminator 1
 1627 0bde 07F16803 	 add r3,r7,#104
 1628 0be2 1B68     	 ldr r3,[r3]
 1629              	.LBE287:
 1630              	.LBE286:
 1631              	 .loc 1 568 0 discriminator 1
 1632 0be4 C7F89C32 	 str r3,[r7,#668]
 569:../Dave/Generated/CMSIS_DSP/TransformFunctions/arm_cfft_radix4_q15.c **** 
 570:../Dave/Generated/CMSIS_DSP/TransformFunctions/arm_cfft_radix4_q15.c ****     /* pointer updation for writing */
 571:../Dave/Generated/CMSIS_DSP/TransformFunctions/arm_cfft_radix4_q15.c ****     ptr1 = ptr1 - 8u;
 1633              	 .loc 1 571 0 discriminator 1
 1634 0be8 07F11003 	 add r3,r7,#16
 1635 0bec 1B68     	 ldr r3,[r3]
 1636 0bee A3F11002 	 sub r2,r3,#16
 1637 0bf2 07F11003 	 add r3,r7,#16
 1638 0bf6 1A60     	 str r2,[r3]
 572:../Dave/Generated/CMSIS_DSP/TransformFunctions/arm_cfft_radix4_q15.c **** 
 573:../Dave/Generated/CMSIS_DSP/TransformFunctions/arm_cfft_radix4_q15.c **** 
 574:../Dave/Generated/CMSIS_DSP/TransformFunctions/arm_cfft_radix4_q15.c ****     /* xa' = xa + xb + xc + xd */
 575:../Dave/Generated/CMSIS_DSP/TransformFunctions/arm_cfft_radix4_q15.c ****     /* ya' = ya + yb + yc + yd */
 576:../Dave/Generated/CMSIS_DSP/TransformFunctions/arm_cfft_radix4_q15.c ****     *__SIMD32(ptr1)++ = __SHADD16(R, T);
 1639              	 .loc 1 576 0 discriminator 1
 1640 0bf8 07F11002 	 add r2,r7,#16
 1641 0bfc 1368     	 ldr r3,[r2]
 1642 0bfe 191D     	 adds r1,r3,#4
 1643 0c00 1160     	 str r1,[r2]
 1644 0c02 D7F89402 	 ldr r0,[r7,#660]
 1645 0c06 D7F89C12 	 ldr r1,[r7,#668]
 1646 0c0a 07F16402 	 add r2,r7,#100
 1647 0c0e 1060     	 str r0,[r2]
 1648 0c10 07F16002 	 add r2,r7,#96
 1649 0c14 1160     	 str r1,[r2]
 1650              	.LBB288:
 1651              	.LBB289:
 253:C:\Users\Depes Crystalline\Desktop\school\Active_Bike_Lighting_System\Radar_Core/Libraries/CMSIS/Include\core_cmSimd.h ****   return(result);
 1652              	 .loc 2 253 0 discriminator 1
 1653 0c16 07F16402 	 add r2,r7,#100
 1654 0c1a 1268     	 ldr r2,[r2]
 1655 0c1c 07F16001 	 add r1,r7,#96
 1656 0c20 0968     	 ldr r1,[r1]
 1657              	
 1658 0c22 92FA21F1 	 shadd16 r1,r2,r1
 1659              	
 1660              	 .thumb
 1661 0c26 07F15C02 	 add r2,r7,#92
 1662 0c2a 1160     	 str r1,[r2]
 254:C:\Users\Depes Crystalline\Desktop\school\Active_Bike_Lighting_System\Radar_Core/Libraries/CMSIS/Include\core_cmSimd.h **** }
 1663              	 .loc 2 254 0 discriminator 1
 1664 0c2c 07F15C02 	 add r2,r7,#92
 1665 0c30 1268     	 ldr r2,[r2]
 1666              	.LBE289:
 1667              	.LBE288:
 1668              	 .loc 1 576 0 discriminator 1
 1669 0c32 1A60     	 str r2,[r3]
 577:../Dave/Generated/CMSIS_DSP/TransformFunctions/arm_cfft_radix4_q15.c **** 
 578:../Dave/Generated/CMSIS_DSP/TransformFunctions/arm_cfft_radix4_q15.c ****     /* T = packed((yb + yd), (xb + xd)) */
 579:../Dave/Generated/CMSIS_DSP/TransformFunctions/arm_cfft_radix4_q15.c ****     T = __QADD16(xbyb, xdyd);
 1670              	 .loc 1 579 0 discriminator 1
 1671 0c34 D7F87412 	 ldr r1,[r7,#628]
 1672 0c38 D7F86C22 	 ldr r2,[r7,#620]
 1673 0c3c 07F15803 	 add r3,r7,#88
 1674 0c40 1960     	 str r1,[r3]
 1675 0c42 07F15403 	 add r3,r7,#84
 1676 0c46 1A60     	 str r2,[r3]
 1677              	.LBB290:
 1678              	.LBB291:
 245:C:\Users\Depes Crystalline\Desktop\school\Active_Bike_Lighting_System\Radar_Core/Libraries/CMSIS/Include\core_cmSimd.h ****   return(result);
 1679              	 .loc 2 245 0 discriminator 1
 1680 0c48 07F15803 	 add r3,r7,#88
 1681 0c4c 1B68     	 ldr r3,[r3]
 1682 0c4e 07F15402 	 add r2,r7,#84
 1683 0c52 1268     	 ldr r2,[r2]
 1684              	
 1685 0c54 93FA12F2 	 qadd16 r2,r3,r2
 1686              	
 1687              	 .thumb
 1688 0c58 07F15003 	 add r3,r7,#80
 1689 0c5c 1A60     	 str r2,[r3]
 246:C:\Users\Depes Crystalline\Desktop\school\Active_Bike_Lighting_System\Radar_Core/Libraries/CMSIS/Include\core_cmSimd.h **** }
 1690              	 .loc 2 246 0 discriminator 1
 1691 0c5e 07F15003 	 add r3,r7,#80
 1692 0c62 1B68     	 ldr r3,[r3]
 1693              	.LBE291:
 1694              	.LBE290:
 1695              	 .loc 1 579 0 discriminator 1
 1696 0c64 C7F89C32 	 str r3,[r7,#668]
 580:../Dave/Generated/CMSIS_DSP/TransformFunctions/arm_cfft_radix4_q15.c **** 
 581:../Dave/Generated/CMSIS_DSP/TransformFunctions/arm_cfft_radix4_q15.c ****     /* xc' = (xa-xb+xc-xd) */
 582:../Dave/Generated/CMSIS_DSP/TransformFunctions/arm_cfft_radix4_q15.c ****     /* yc' = (ya-yb+yc-yd) */
 583:../Dave/Generated/CMSIS_DSP/TransformFunctions/arm_cfft_radix4_q15.c ****     *__SIMD32(ptr1)++ = __SHSUB16(R, T);
 1697              	 .loc 1 583 0 discriminator 1
 1698 0c68 07F11002 	 add r2,r7,#16
 1699 0c6c 1368     	 ldr r3,[r2]
 1700 0c6e 191D     	 adds r1,r3,#4
 1701 0c70 1160     	 str r1,[r2]
 1702 0c72 D7F89402 	 ldr r0,[r7,#660]
 1703 0c76 D7F89C12 	 ldr r1,[r7,#668]
 1704 0c7a 07F14C02 	 add r2,r7,#76
 1705 0c7e 1060     	 str r0,[r2]
 1706 0c80 07F14802 	 add r2,r7,#72
 1707 0c84 1160     	 str r1,[r2]
 1708              	.LBB292:
 1709              	.LBB293:
 301:C:\Users\Depes Crystalline\Desktop\school\Active_Bike_Lighting_System\Radar_Core/Libraries/CMSIS/Include\core_cmSimd.h ****   return(result);
 1710              	 .loc 2 301 0 discriminator 1
 1711 0c86 07F14C02 	 add r2,r7,#76
 1712 0c8a 1268     	 ldr r2,[r2]
 1713 0c8c 07F14801 	 add r1,r7,#72
 1714 0c90 0968     	 ldr r1,[r1]
 1715              	
 1716 0c92 D2FA21F1 	 shsub16 r1,r2,r1
 1717              	
 1718              	 .thumb
 1719 0c96 07F14402 	 add r2,r7,#68
 1720 0c9a 1160     	 str r1,[r2]
 302:C:\Users\Depes Crystalline\Desktop\school\Active_Bike_Lighting_System\Radar_Core/Libraries/CMSIS/Include\core_cmSimd.h **** }
 1721              	 .loc 2 302 0 discriminator 1
 1722 0c9c 07F14402 	 add r2,r7,#68
 1723 0ca0 1268     	 ldr r2,[r2]
 1724              	.LBE293:
 1725              	.LBE292:
 1726              	 .loc 1 583 0 discriminator 1
 1727 0ca2 1A60     	 str r2,[r3]
 584:../Dave/Generated/CMSIS_DSP/TransformFunctions/arm_cfft_radix4_q15.c **** 
 585:../Dave/Generated/CMSIS_DSP/TransformFunctions/arm_cfft_radix4_q15.c ****     /* S = packed((ya - yc), (xa - xc)) */
 586:../Dave/Generated/CMSIS_DSP/TransformFunctions/arm_cfft_radix4_q15.c ****     S = __QSUB16(xaya, xcyc);
 1728              	 .loc 1 586 0 discriminator 1
 1729 0ca4 D7F87812 	 ldr r1,[r7,#632]
 1730 0ca8 D7F87022 	 ldr r2,[r7,#624]
 1731 0cac 07F14003 	 add r3,r7,#64
 1732 0cb0 1960     	 str r1,[r3]
 1733 0cb2 07F13C03 	 add r3,r7,#60
 1734 0cb6 1A60     	 str r2,[r3]
 1735              	.LBB294:
 1736              	.LBB295:
 293:C:\Users\Depes Crystalline\Desktop\school\Active_Bike_Lighting_System\Radar_Core/Libraries/CMSIS/Include\core_cmSimd.h ****   return(result);
 1737              	 .loc 2 293 0 discriminator 1
 1738 0cb8 07F14003 	 add r3,r7,#64
 1739 0cbc 1B68     	 ldr r3,[r3]
 1740 0cbe 07F13C02 	 add r2,r7,#60
 1741 0cc2 1268     	 ldr r2,[r2]
 1742              	
 1743 0cc4 D3FA12F2 	 qsub16 r2,r3,r2
 1744              	
 1745              	 .thumb
 1746 0cc8 07F13803 	 add r3,r7,#56
 1747 0ccc 1A60     	 str r2,[r3]
 294:C:\Users\Depes Crystalline\Desktop\school\Active_Bike_Lighting_System\Radar_Core/Libraries/CMSIS/Include\core_cmSimd.h **** }
 1748              	 .loc 2 294 0 discriminator 1
 1749 0cce 07F13803 	 add r3,r7,#56
 1750 0cd2 1B68     	 ldr r3,[r3]
 1751              	.LBE295:
 1752              	.LBE294:
 1753              	 .loc 1 586 0 discriminator 1
 1754 0cd4 C7F89832 	 str r3,[r7,#664]
 587:../Dave/Generated/CMSIS_DSP/TransformFunctions/arm_cfft_radix4_q15.c **** 
 588:../Dave/Generated/CMSIS_DSP/TransformFunctions/arm_cfft_radix4_q15.c ****     /* Read yd (real), xd(imag) input */
 589:../Dave/Generated/CMSIS_DSP/TransformFunctions/arm_cfft_radix4_q15.c ****     /* T = packed( (yb - yd), (xb - xd))  */
 590:../Dave/Generated/CMSIS_DSP/TransformFunctions/arm_cfft_radix4_q15.c ****     U = __QSUB16(xbyb, xdyd);
 1755              	 .loc 1 590 0 discriminator 1
 1756 0cd8 D7F87412 	 ldr r1,[r7,#628]
 1757 0cdc D7F86C22 	 ldr r2,[r7,#620]
 1758 0ce0 07F13403 	 add r3,r7,#52
 1759 0ce4 1960     	 str r1,[r3]
 1760 0ce6 07F13003 	 add r3,r7,#48
 1761 0cea 1A60     	 str r2,[r3]
 1762              	.LBB296:
 1763              	.LBB297:
 293:C:\Users\Depes Crystalline\Desktop\school\Active_Bike_Lighting_System\Radar_Core/Libraries/CMSIS/Include\core_cmSimd.h ****   return(result);
 1764              	 .loc 2 293 0 discriminator 1
 1765 0cec 07F13403 	 add r3,r7,#52
 1766 0cf0 1B68     	 ldr r3,[r3]
 1767 0cf2 07F13002 	 add r2,r7,#48
 1768 0cf6 1268     	 ldr r2,[r2]
 1769              	
 1770 0cf8 D3FA12F2 	 qsub16 r2,r3,r2
 1771              	
 1772              	 .thumb
 1773 0cfc 07F12C03 	 add r3,r7,#44
 1774 0d00 1A60     	 str r2,[r3]
 294:C:\Users\Depes Crystalline\Desktop\school\Active_Bike_Lighting_System\Radar_Core/Libraries/CMSIS/Include\core_cmSimd.h **** }
 1775              	 .loc 2 294 0 discriminator 1
 1776 0d02 07F12C03 	 add r3,r7,#44
 1777 0d06 1B68     	 ldr r3,[r3]
 1778              	.LBE297:
 1779              	.LBE296:
 1780              	 .loc 1 590 0 discriminator 1
 1781 0d08 C7F89032 	 str r3,[r7,#656]
 591:../Dave/Generated/CMSIS_DSP/TransformFunctions/arm_cfft_radix4_q15.c **** 
 592:../Dave/Generated/CMSIS_DSP/TransformFunctions/arm_cfft_radix4_q15.c **** #ifndef ARM_MATH_BIG_ENDIAN
 593:../Dave/Generated/CMSIS_DSP/TransformFunctions/arm_cfft_radix4_q15.c **** 
 594:../Dave/Generated/CMSIS_DSP/TransformFunctions/arm_cfft_radix4_q15.c ****     /* xb' = (xa+yb-xc-yd) */
 595:../Dave/Generated/CMSIS_DSP/TransformFunctions/arm_cfft_radix4_q15.c ****     /* yb' = (ya-xb-yc+xd) */
 596:../Dave/Generated/CMSIS_DSP/TransformFunctions/arm_cfft_radix4_q15.c ****     *__SIMD32(ptr1)++ = __SHSAX(S, U);
 1782              	 .loc 1 596 0 discriminator 1
 1783 0d0c 07F11002 	 add r2,r7,#16
 1784 0d10 1368     	 ldr r3,[r2]
 1785 0d12 191D     	 adds r1,r3,#4
 1786 0d14 1160     	 str r1,[r2]
 1787 0d16 D7F89802 	 ldr r0,[r7,#664]
 1788 0d1a D7F89012 	 ldr r1,[r7,#656]
 1789 0d1e 07F12802 	 add r2,r7,#40
 1790 0d22 1060     	 str r0,[r2]
 1791 0d24 07F12402 	 add r2,r7,#36
 1792 0d28 1160     	 str r1,[r2]
 1793              	.LBB298:
 1794              	.LBB299:
 397:C:\Users\Depes Crystalline\Desktop\school\Active_Bike_Lighting_System\Radar_Core/Libraries/CMSIS/Include\core_cmSimd.h ****   return(result);
 1795              	 .loc 2 397 0 discriminator 1
 1796 0d2a 07F12802 	 add r2,r7,#40
 1797 0d2e 1268     	 ldr r2,[r2]
 1798 0d30 07F12401 	 add r1,r7,#36
 1799 0d34 0968     	 ldr r1,[r1]
 1800              	
 1801 0d36 E2FA21F1 	 shsax r1,r2,r1
 1802              	
 1803              	 .thumb
 1804 0d3a 07F12002 	 add r2,r7,#32
 1805 0d3e 1160     	 str r1,[r2]
 398:C:\Users\Depes Crystalline\Desktop\school\Active_Bike_Lighting_System\Radar_Core/Libraries/CMSIS/Include\core_cmSimd.h **** }
 1806              	 .loc 2 398 0 discriminator 1
 1807 0d40 07F12002 	 add r2,r7,#32
 1808 0d44 1268     	 ldr r2,[r2]
 1809              	.LBE299:
 1810              	.LBE298:
 1811              	 .loc 1 596 0 discriminator 1
 1812 0d46 1A60     	 str r2,[r3]
 597:../Dave/Generated/CMSIS_DSP/TransformFunctions/arm_cfft_radix4_q15.c **** 
 598:../Dave/Generated/CMSIS_DSP/TransformFunctions/arm_cfft_radix4_q15.c **** 
 599:../Dave/Generated/CMSIS_DSP/TransformFunctions/arm_cfft_radix4_q15.c ****     /* xd' = (xa-yb-xc+yd) */
 600:../Dave/Generated/CMSIS_DSP/TransformFunctions/arm_cfft_radix4_q15.c ****     /* yd' = (ya+xb-yc-xd) */
 601:../Dave/Generated/CMSIS_DSP/TransformFunctions/arm_cfft_radix4_q15.c ****     *__SIMD32(ptr1)++ = __SHASX(S, U);
 1813              	 .loc 1 601 0 discriminator 1
 1814 0d48 07F11002 	 add r2,r7,#16
 1815 0d4c 1368     	 ldr r3,[r2]
 1816 0d4e 191D     	 adds r1,r3,#4
 1817 0d50 1160     	 str r1,[r2]
 1818 0d52 D7F89802 	 ldr r0,[r7,#664]
 1819 0d56 D7F89012 	 ldr r1,[r7,#656]
 1820 0d5a 07F11C02 	 add r2,r7,#28
 1821 0d5e 1060     	 str r0,[r2]
 1822 0d60 07F11802 	 add r2,r7,#24
 1823 0d64 1160     	 str r1,[r2]
 1824              	.LBB300:
 1825              	.LBB301:
 349:C:\Users\Depes Crystalline\Desktop\school\Active_Bike_Lighting_System\Radar_Core/Libraries/CMSIS/Include\core_cmSimd.h ****   return(result);
 1826              	 .loc 2 349 0 discriminator 1
 1827 0d66 07F11C02 	 add r2,r7,#28
 1828 0d6a 1268     	 ldr r2,[r2]
 1829 0d6c 07F11801 	 add r1,r7,#24
 1830 0d70 0968     	 ldr r1,[r1]
 1831              	
 1832 0d72 A2FA21F1 	 shasx r1,r2,r1
 1833              	
 1834              	 .thumb
 1835 0d76 07F11402 	 add r2,r7,#20
 1836 0d7a 1160     	 str r1,[r2]
 350:C:\Users\Depes Crystalline\Desktop\school\Active_Bike_Lighting_System\Radar_Core/Libraries/CMSIS/Include\core_cmSimd.h **** }
 1837              	 .loc 2 350 0 discriminator 1
 1838 0d7c 07F11402 	 add r2,r7,#20
 1839 0d80 1268     	 ldr r2,[r2]
 1840              	.LBE301:
 1841              	.LBE300:
 1842              	 .loc 1 601 0 discriminator 1
 1843 0d82 1A60     	 str r2,[r3]
 602:../Dave/Generated/CMSIS_DSP/TransformFunctions/arm_cfft_radix4_q15.c **** 
 603:../Dave/Generated/CMSIS_DSP/TransformFunctions/arm_cfft_radix4_q15.c **** #else
 604:../Dave/Generated/CMSIS_DSP/TransformFunctions/arm_cfft_radix4_q15.c **** 
 605:../Dave/Generated/CMSIS_DSP/TransformFunctions/arm_cfft_radix4_q15.c ****     /* xb' = (xa+yb-xc-yd) */
 606:../Dave/Generated/CMSIS_DSP/TransformFunctions/arm_cfft_radix4_q15.c ****     /* yb' = (ya-xb-yc+xd) */
 607:../Dave/Generated/CMSIS_DSP/TransformFunctions/arm_cfft_radix4_q15.c ****     *__SIMD32(ptr1)++ = __SHASX(S, U);
 608:../Dave/Generated/CMSIS_DSP/TransformFunctions/arm_cfft_radix4_q15.c **** 
 609:../Dave/Generated/CMSIS_DSP/TransformFunctions/arm_cfft_radix4_q15.c **** 
 610:../Dave/Generated/CMSIS_DSP/TransformFunctions/arm_cfft_radix4_q15.c ****     /* xd' = (xa-yb-xc+yd) */
 611:../Dave/Generated/CMSIS_DSP/TransformFunctions/arm_cfft_radix4_q15.c ****     /* yd' = (ya+xb-yc-xd) */
 612:../Dave/Generated/CMSIS_DSP/TransformFunctions/arm_cfft_radix4_q15.c ****     *__SIMD32(ptr1)++ = __SHSAX(S, U);
 613:../Dave/Generated/CMSIS_DSP/TransformFunctions/arm_cfft_radix4_q15.c **** 
 614:../Dave/Generated/CMSIS_DSP/TransformFunctions/arm_cfft_radix4_q15.c **** #endif /*      #ifndef ARM_MATH_BIG_ENDIAN     */
 615:../Dave/Generated/CMSIS_DSP/TransformFunctions/arm_cfft_radix4_q15.c **** 
 616:../Dave/Generated/CMSIS_DSP/TransformFunctions/arm_cfft_radix4_q15.c ****   } while(--j);
 1844              	 .loc 1 616 0 discriminator 1
 1845 0d84 D7F8B832 	 ldr r3,[r7,#696]
 1846 0d88 013B     	 subs r3,r3,#1
 1847 0d8a C7F8B832 	 str r3,[r7,#696]
 1848 0d8e D7F8B832 	 ldr r3,[r7,#696]
 1849 0d92 002B     	 cmp r3,#0
 1850 0d94 7FF4D4AE 	 bne .L63
 617:../Dave/Generated/CMSIS_DSP/TransformFunctions/arm_cfft_radix4_q15.c **** 
 618:../Dave/Generated/CMSIS_DSP/TransformFunctions/arm_cfft_radix4_q15.c ****   /* end of last stage process */
 619:../Dave/Generated/CMSIS_DSP/TransformFunctions/arm_cfft_radix4_q15.c **** 
 620:../Dave/Generated/CMSIS_DSP/TransformFunctions/arm_cfft_radix4_q15.c ****   /* output is in 11.5(q5) format for the 1024 point */
 621:../Dave/Generated/CMSIS_DSP/TransformFunctions/arm_cfft_radix4_q15.c ****   /* output is in 9.7(q7) format for the 256 point   */
 622:../Dave/Generated/CMSIS_DSP/TransformFunctions/arm_cfft_radix4_q15.c ****   /* output is in 7.9(q9) format for the 64 point  */
 623:../Dave/Generated/CMSIS_DSP/TransformFunctions/arm_cfft_radix4_q15.c ****   /* output is in 5.11(q11) format for the 16 point  */
 624:../Dave/Generated/CMSIS_DSP/TransformFunctions/arm_cfft_radix4_q15.c **** 
 625:../Dave/Generated/CMSIS_DSP/TransformFunctions/arm_cfft_radix4_q15.c **** 
 626:../Dave/Generated/CMSIS_DSP/TransformFunctions/arm_cfft_radix4_q15.c **** #else
 627:../Dave/Generated/CMSIS_DSP/TransformFunctions/arm_cfft_radix4_q15.c **** 
 628:../Dave/Generated/CMSIS_DSP/TransformFunctions/arm_cfft_radix4_q15.c ****   /* Run the below code for Cortex-M0 */
 629:../Dave/Generated/CMSIS_DSP/TransformFunctions/arm_cfft_radix4_q15.c **** 
 630:../Dave/Generated/CMSIS_DSP/TransformFunctions/arm_cfft_radix4_q15.c ****   q15_t R0, R1, S0, S1, T0, T1, U0, U1;
 631:../Dave/Generated/CMSIS_DSP/TransformFunctions/arm_cfft_radix4_q15.c ****   q15_t Co1, Si1, Co2, Si2, Co3, Si3, out1, out2;
 632:../Dave/Generated/CMSIS_DSP/TransformFunctions/arm_cfft_radix4_q15.c ****   uint32_t n1, n2, ic, i0, i1, i2, i3, j, k;
 633:../Dave/Generated/CMSIS_DSP/TransformFunctions/arm_cfft_radix4_q15.c **** 
 634:../Dave/Generated/CMSIS_DSP/TransformFunctions/arm_cfft_radix4_q15.c ****   /* Total process is divided into three stages */
 635:../Dave/Generated/CMSIS_DSP/TransformFunctions/arm_cfft_radix4_q15.c **** 
 636:../Dave/Generated/CMSIS_DSP/TransformFunctions/arm_cfft_radix4_q15.c ****   /* process first stage, middle stages, & last stage */
 637:../Dave/Generated/CMSIS_DSP/TransformFunctions/arm_cfft_radix4_q15.c **** 
 638:../Dave/Generated/CMSIS_DSP/TransformFunctions/arm_cfft_radix4_q15.c ****   /*  Initializations for the first stage */
 639:../Dave/Generated/CMSIS_DSP/TransformFunctions/arm_cfft_radix4_q15.c ****   n2 = fftLen;
 640:../Dave/Generated/CMSIS_DSP/TransformFunctions/arm_cfft_radix4_q15.c ****   n1 = n2;
 641:../Dave/Generated/CMSIS_DSP/TransformFunctions/arm_cfft_radix4_q15.c **** 
 642:../Dave/Generated/CMSIS_DSP/TransformFunctions/arm_cfft_radix4_q15.c ****   /* n2 = fftLen/4 */
 643:../Dave/Generated/CMSIS_DSP/TransformFunctions/arm_cfft_radix4_q15.c ****   n2 >>= 2u;
 644:../Dave/Generated/CMSIS_DSP/TransformFunctions/arm_cfft_radix4_q15.c **** 
 645:../Dave/Generated/CMSIS_DSP/TransformFunctions/arm_cfft_radix4_q15.c ****   /* Index for twiddle coefficient */
 646:../Dave/Generated/CMSIS_DSP/TransformFunctions/arm_cfft_radix4_q15.c ****   ic = 0u;
 647:../Dave/Generated/CMSIS_DSP/TransformFunctions/arm_cfft_radix4_q15.c **** 
 648:../Dave/Generated/CMSIS_DSP/TransformFunctions/arm_cfft_radix4_q15.c ****   /* Index for input read and output write */
 649:../Dave/Generated/CMSIS_DSP/TransformFunctions/arm_cfft_radix4_q15.c ****   i0 = 0u;
 650:../Dave/Generated/CMSIS_DSP/TransformFunctions/arm_cfft_radix4_q15.c ****   j = n2;
 651:../Dave/Generated/CMSIS_DSP/TransformFunctions/arm_cfft_radix4_q15.c **** 
 652:../Dave/Generated/CMSIS_DSP/TransformFunctions/arm_cfft_radix4_q15.c ****   /* Input is in 1.15(q15) format */
 653:../Dave/Generated/CMSIS_DSP/TransformFunctions/arm_cfft_radix4_q15.c **** 
 654:../Dave/Generated/CMSIS_DSP/TransformFunctions/arm_cfft_radix4_q15.c ****   /*  start of first stage process */
 655:../Dave/Generated/CMSIS_DSP/TransformFunctions/arm_cfft_radix4_q15.c ****   do
 656:../Dave/Generated/CMSIS_DSP/TransformFunctions/arm_cfft_radix4_q15.c ****   {
 657:../Dave/Generated/CMSIS_DSP/TransformFunctions/arm_cfft_radix4_q15.c ****     /*  Butterfly implementation */
 658:../Dave/Generated/CMSIS_DSP/TransformFunctions/arm_cfft_radix4_q15.c **** 
 659:../Dave/Generated/CMSIS_DSP/TransformFunctions/arm_cfft_radix4_q15.c ****     /*  index calculation for the input as, */
 660:../Dave/Generated/CMSIS_DSP/TransformFunctions/arm_cfft_radix4_q15.c ****     /*  pSrc16[i0 + 0], pSrc16[i0 + fftLen/4], pSrc16[i0 + fftLen/2], pSrc16[i0 + 3fftLen/4] */
 661:../Dave/Generated/CMSIS_DSP/TransformFunctions/arm_cfft_radix4_q15.c ****     i1 = i0 + n2;
 662:../Dave/Generated/CMSIS_DSP/TransformFunctions/arm_cfft_radix4_q15.c ****     i2 = i1 + n2;
 663:../Dave/Generated/CMSIS_DSP/TransformFunctions/arm_cfft_radix4_q15.c ****     i3 = i2 + n2;
 664:../Dave/Generated/CMSIS_DSP/TransformFunctions/arm_cfft_radix4_q15.c **** 
 665:../Dave/Generated/CMSIS_DSP/TransformFunctions/arm_cfft_radix4_q15.c ****     /*  Reading i0, i0+fftLen/2 inputs */
 666:../Dave/Generated/CMSIS_DSP/TransformFunctions/arm_cfft_radix4_q15.c **** 
 667:../Dave/Generated/CMSIS_DSP/TransformFunctions/arm_cfft_radix4_q15.c ****     /* input is down scale by 4 to avoid overflow */
 668:../Dave/Generated/CMSIS_DSP/TransformFunctions/arm_cfft_radix4_q15.c ****     /* Read ya (real), xa(imag) input */
 669:../Dave/Generated/CMSIS_DSP/TransformFunctions/arm_cfft_radix4_q15.c ****     T0 = pSrc16[i0 * 2u] >> 2u;
 670:../Dave/Generated/CMSIS_DSP/TransformFunctions/arm_cfft_radix4_q15.c ****     T1 = pSrc16[(i0 * 2u) + 1u] >> 2u;
 671:../Dave/Generated/CMSIS_DSP/TransformFunctions/arm_cfft_radix4_q15.c **** 
 672:../Dave/Generated/CMSIS_DSP/TransformFunctions/arm_cfft_radix4_q15.c ****     /* input is down scale by 4 to avoid overflow */
 673:../Dave/Generated/CMSIS_DSP/TransformFunctions/arm_cfft_radix4_q15.c ****     /* Read yc (real), xc(imag) input */
 674:../Dave/Generated/CMSIS_DSP/TransformFunctions/arm_cfft_radix4_q15.c ****     S0 = pSrc16[i2 * 2u] >> 2u;
 675:../Dave/Generated/CMSIS_DSP/TransformFunctions/arm_cfft_radix4_q15.c ****     S1 = pSrc16[(i2 * 2u) + 1u] >> 2u;
 676:../Dave/Generated/CMSIS_DSP/TransformFunctions/arm_cfft_radix4_q15.c **** 
 677:../Dave/Generated/CMSIS_DSP/TransformFunctions/arm_cfft_radix4_q15.c ****     /* R0 = (ya + yc) */
 678:../Dave/Generated/CMSIS_DSP/TransformFunctions/arm_cfft_radix4_q15.c ****     R0 = __SSAT(T0 + S0, 16u);
 679:../Dave/Generated/CMSIS_DSP/TransformFunctions/arm_cfft_radix4_q15.c ****     /* R1 = (xa + xc) */
 680:../Dave/Generated/CMSIS_DSP/TransformFunctions/arm_cfft_radix4_q15.c ****     R1 = __SSAT(T1 + S1, 16u);
 681:../Dave/Generated/CMSIS_DSP/TransformFunctions/arm_cfft_radix4_q15.c **** 
 682:../Dave/Generated/CMSIS_DSP/TransformFunctions/arm_cfft_radix4_q15.c ****     /* S0 = (ya - yc) */
 683:../Dave/Generated/CMSIS_DSP/TransformFunctions/arm_cfft_radix4_q15.c ****     S0 = __SSAT(T0 - S0, 16);
 684:../Dave/Generated/CMSIS_DSP/TransformFunctions/arm_cfft_radix4_q15.c ****     /* S1 = (xa - xc) */
 685:../Dave/Generated/CMSIS_DSP/TransformFunctions/arm_cfft_radix4_q15.c ****     S1 = __SSAT(T1 - S1, 16);
 686:../Dave/Generated/CMSIS_DSP/TransformFunctions/arm_cfft_radix4_q15.c **** 
 687:../Dave/Generated/CMSIS_DSP/TransformFunctions/arm_cfft_radix4_q15.c ****     /*  Reading i0+fftLen/4 , i0+3fftLen/4 inputs */
 688:../Dave/Generated/CMSIS_DSP/TransformFunctions/arm_cfft_radix4_q15.c ****     /* input is down scale by 4 to avoid overflow */
 689:../Dave/Generated/CMSIS_DSP/TransformFunctions/arm_cfft_radix4_q15.c ****     /* Read yb (real), xb(imag) input */
 690:../Dave/Generated/CMSIS_DSP/TransformFunctions/arm_cfft_radix4_q15.c ****     T0 = pSrc16[i1 * 2u] >> 2u;
 691:../Dave/Generated/CMSIS_DSP/TransformFunctions/arm_cfft_radix4_q15.c ****     T1 = pSrc16[(i1 * 2u) + 1u] >> 2u;
 692:../Dave/Generated/CMSIS_DSP/TransformFunctions/arm_cfft_radix4_q15.c **** 
 693:../Dave/Generated/CMSIS_DSP/TransformFunctions/arm_cfft_radix4_q15.c ****     /* input is down scale by 4 to avoid overflow */
 694:../Dave/Generated/CMSIS_DSP/TransformFunctions/arm_cfft_radix4_q15.c ****     /* Read yd (real), xd(imag) input */
 695:../Dave/Generated/CMSIS_DSP/TransformFunctions/arm_cfft_radix4_q15.c ****     U0 = pSrc16[i3 * 2u] >> 2u;
 696:../Dave/Generated/CMSIS_DSP/TransformFunctions/arm_cfft_radix4_q15.c ****     U1 = pSrc16[(i3 * 2u) + 1] >> 2u;
 697:../Dave/Generated/CMSIS_DSP/TransformFunctions/arm_cfft_radix4_q15.c **** 
 698:../Dave/Generated/CMSIS_DSP/TransformFunctions/arm_cfft_radix4_q15.c ****     /* T0 = (yb + yd) */
 699:../Dave/Generated/CMSIS_DSP/TransformFunctions/arm_cfft_radix4_q15.c ****     T0 = __SSAT(T0 + U0, 16u);
 700:../Dave/Generated/CMSIS_DSP/TransformFunctions/arm_cfft_radix4_q15.c ****     /* T1 = (xb + xd) */
 701:../Dave/Generated/CMSIS_DSP/TransformFunctions/arm_cfft_radix4_q15.c ****     T1 = __SSAT(T1 + U1, 16u);
 702:../Dave/Generated/CMSIS_DSP/TransformFunctions/arm_cfft_radix4_q15.c **** 
 703:../Dave/Generated/CMSIS_DSP/TransformFunctions/arm_cfft_radix4_q15.c ****     /*  writing the butterfly processed i0 sample */
 704:../Dave/Generated/CMSIS_DSP/TransformFunctions/arm_cfft_radix4_q15.c ****     /* ya' = ya + yb + yc + yd */
 705:../Dave/Generated/CMSIS_DSP/TransformFunctions/arm_cfft_radix4_q15.c ****     /* xa' = xa + xb + xc + xd */
 706:../Dave/Generated/CMSIS_DSP/TransformFunctions/arm_cfft_radix4_q15.c ****     pSrc16[i0 * 2u] = (R0 >> 1u) + (T0 >> 1u);
 707:../Dave/Generated/CMSIS_DSP/TransformFunctions/arm_cfft_radix4_q15.c ****     pSrc16[(i0 * 2u) + 1u] = (R1 >> 1u) + (T1 >> 1u);
 708:../Dave/Generated/CMSIS_DSP/TransformFunctions/arm_cfft_radix4_q15.c **** 
 709:../Dave/Generated/CMSIS_DSP/TransformFunctions/arm_cfft_radix4_q15.c ****     /* R0 = (ya + yc) - (yb + yd) */
 710:../Dave/Generated/CMSIS_DSP/TransformFunctions/arm_cfft_radix4_q15.c ****     /* R1 = (xa + xc) - (xb + xd) */
 711:../Dave/Generated/CMSIS_DSP/TransformFunctions/arm_cfft_radix4_q15.c ****     R0 = __SSAT(R0 - T0, 16u);
 712:../Dave/Generated/CMSIS_DSP/TransformFunctions/arm_cfft_radix4_q15.c ****     R1 = __SSAT(R1 - T1, 16u);
 713:../Dave/Generated/CMSIS_DSP/TransformFunctions/arm_cfft_radix4_q15.c **** 
 714:../Dave/Generated/CMSIS_DSP/TransformFunctions/arm_cfft_radix4_q15.c ****     /* co2 & si2 are read from Coefficient pointer */
 715:../Dave/Generated/CMSIS_DSP/TransformFunctions/arm_cfft_radix4_q15.c ****     Co2 = pCoef16[2u * ic * 2u];
 716:../Dave/Generated/CMSIS_DSP/TransformFunctions/arm_cfft_radix4_q15.c ****     Si2 = pCoef16[(2u * ic * 2u) + 1];
 717:../Dave/Generated/CMSIS_DSP/TransformFunctions/arm_cfft_radix4_q15.c **** 
 718:../Dave/Generated/CMSIS_DSP/TransformFunctions/arm_cfft_radix4_q15.c ****     /* xc' = (xa-xb+xc-xd)* co2 + (ya-yb+yc-yd)* (si2) */
 719:../Dave/Generated/CMSIS_DSP/TransformFunctions/arm_cfft_radix4_q15.c ****     out1 = (q15_t) ((Co2 * R0 + Si2 * R1) >> 16u);
 720:../Dave/Generated/CMSIS_DSP/TransformFunctions/arm_cfft_radix4_q15.c ****     /* yc' = (ya-yb+yc-yd)* co2 - (xa-xb+xc-xd)* (si2) */
 721:../Dave/Generated/CMSIS_DSP/TransformFunctions/arm_cfft_radix4_q15.c ****     out2 = (q15_t) ((-Si2 * R0 + Co2 * R1) >> 16u);
 722:../Dave/Generated/CMSIS_DSP/TransformFunctions/arm_cfft_radix4_q15.c **** 
 723:../Dave/Generated/CMSIS_DSP/TransformFunctions/arm_cfft_radix4_q15.c ****     /*  Reading i0+fftLen/4 */
 724:../Dave/Generated/CMSIS_DSP/TransformFunctions/arm_cfft_radix4_q15.c ****     /* input is down scale by 4 to avoid overflow */
 725:../Dave/Generated/CMSIS_DSP/TransformFunctions/arm_cfft_radix4_q15.c ****     /* T0 = yb, T1 =  xb */
 726:../Dave/Generated/CMSIS_DSP/TransformFunctions/arm_cfft_radix4_q15.c ****     T0 = pSrc16[i1 * 2u] >> 2;
 727:../Dave/Generated/CMSIS_DSP/TransformFunctions/arm_cfft_radix4_q15.c ****     T1 = pSrc16[(i1 * 2u) + 1] >> 2;
 728:../Dave/Generated/CMSIS_DSP/TransformFunctions/arm_cfft_radix4_q15.c **** 
 729:../Dave/Generated/CMSIS_DSP/TransformFunctions/arm_cfft_radix4_q15.c ****     /* writing the butterfly processed i0 + fftLen/4 sample */
 730:../Dave/Generated/CMSIS_DSP/TransformFunctions/arm_cfft_radix4_q15.c ****     /* writing output(xc', yc') in little endian format */
 731:../Dave/Generated/CMSIS_DSP/TransformFunctions/arm_cfft_radix4_q15.c ****     pSrc16[i1 * 2u] = out1;
 732:../Dave/Generated/CMSIS_DSP/TransformFunctions/arm_cfft_radix4_q15.c ****     pSrc16[(i1 * 2u) + 1] = out2;
 733:../Dave/Generated/CMSIS_DSP/TransformFunctions/arm_cfft_radix4_q15.c **** 
 734:../Dave/Generated/CMSIS_DSP/TransformFunctions/arm_cfft_radix4_q15.c ****     /*  Butterfly calculations */
 735:../Dave/Generated/CMSIS_DSP/TransformFunctions/arm_cfft_radix4_q15.c ****     /* input is down scale by 4 to avoid overflow */
 736:../Dave/Generated/CMSIS_DSP/TransformFunctions/arm_cfft_radix4_q15.c ****     /* U0 = yd, U1 = xd */
 737:../Dave/Generated/CMSIS_DSP/TransformFunctions/arm_cfft_radix4_q15.c ****     U0 = pSrc16[i3 * 2u] >> 2;
 738:../Dave/Generated/CMSIS_DSP/TransformFunctions/arm_cfft_radix4_q15.c ****     U1 = pSrc16[(i3 * 2u) + 1] >> 2;
 739:../Dave/Generated/CMSIS_DSP/TransformFunctions/arm_cfft_radix4_q15.c ****     /* T0 = yb-yd */
