   1              	 .syntax unified
   2              	 .cpu cortex-m4
   3              	 .fpu softvfp
   4              	 .eabi_attribute 20,1
   5              	 .eabi_attribute 21,1
   6              	 .eabi_attribute 23,3
   7              	 .eabi_attribute 24,1
   8              	 .eabi_attribute 25,1
   9              	 .eabi_attribute 26,1
  10              	 .eabi_attribute 30,6
  11              	 .eabi_attribute 34,1
  12              	 .eabi_attribute 18,4
  13              	 .thumb
  14              	 .file "arm_rms_q31.c"
  15              	 .text
  16              	.Ltext0:
  17              	 .cfi_sections .debug_frame
  18              	 .section .text.clip_q63_to_q31,"ax",%progbits
  19              	 .align 2
  20              	 .thumb
  21              	 .thumb_func
  23              	clip_q63_to_q31:
  24              	.LFB106:
  25              	 .file 1 "C:\\Users\\Depes Crystalline\\Desktop\\school\\Active_Bike_Lighting_System\\Radar_Core\\Dave\\Generated/CMSIS_DSP/arm_math.h"
   1:C:\Users\Depes Crystalline\Desktop\school\Active_Bike_Lighting_System\Radar_Core\Dave\Generated/CMSIS_DSP\arm_math.h **** /* ----------------------------------------------------------------------
   2:C:\Users\Depes Crystalline\Desktop\school\Active_Bike_Lighting_System\Radar_Core\Dave\Generated/CMSIS_DSP\arm_math.h **** * Copyright (C) 2010-2014 ARM Limited. All rights reserved.
   3:C:\Users\Depes Crystalline\Desktop\school\Active_Bike_Lighting_System\Radar_Core\Dave\Generated/CMSIS_DSP\arm_math.h **** *
   4:C:\Users\Depes Crystalline\Desktop\school\Active_Bike_Lighting_System\Radar_Core\Dave\Generated/CMSIS_DSP\arm_math.h **** * $Date:        12. March 2014
   5:C:\Users\Depes Crystalline\Desktop\school\Active_Bike_Lighting_System\Radar_Core\Dave\Generated/CMSIS_DSP\arm_math.h **** * $Revision: 	V1.4.4
   6:C:\Users\Depes Crystalline\Desktop\school\Active_Bike_Lighting_System\Radar_Core\Dave\Generated/CMSIS_DSP\arm_math.h **** *
   7:C:\Users\Depes Crystalline\Desktop\school\Active_Bike_Lighting_System\Radar_Core\Dave\Generated/CMSIS_DSP\arm_math.h **** * Project: 	    CMSIS DSP Library
   8:C:\Users\Depes Crystalline\Desktop\school\Active_Bike_Lighting_System\Radar_Core\Dave\Generated/CMSIS_DSP\arm_math.h **** * Title:	    arm_math.h
   9:C:\Users\Depes Crystalline\Desktop\school\Active_Bike_Lighting_System\Radar_Core\Dave\Generated/CMSIS_DSP\arm_math.h **** *
  10:C:\Users\Depes Crystalline\Desktop\school\Active_Bike_Lighting_System\Radar_Core\Dave\Generated/CMSIS_DSP\arm_math.h **** * Description:	Public header file for CMSIS DSP Library
  11:C:\Users\Depes Crystalline\Desktop\school\Active_Bike_Lighting_System\Radar_Core\Dave\Generated/CMSIS_DSP\arm_math.h **** *
  12:C:\Users\Depes Crystalline\Desktop\school\Active_Bike_Lighting_System\Radar_Core\Dave\Generated/CMSIS_DSP\arm_math.h **** * Target Processor: Cortex-M7/Cortex-M4/Cortex-M3/Cortex-M0
  13:C:\Users\Depes Crystalline\Desktop\school\Active_Bike_Lighting_System\Radar_Core\Dave\Generated/CMSIS_DSP\arm_math.h **** *
  14:C:\Users\Depes Crystalline\Desktop\school\Active_Bike_Lighting_System\Radar_Core\Dave\Generated/CMSIS_DSP\arm_math.h **** * Redistribution and use in source and binary forms, with or without
  15:C:\Users\Depes Crystalline\Desktop\school\Active_Bike_Lighting_System\Radar_Core\Dave\Generated/CMSIS_DSP\arm_math.h **** * modification, are permitted provided that the following conditions
  16:C:\Users\Depes Crystalline\Desktop\school\Active_Bike_Lighting_System\Radar_Core\Dave\Generated/CMSIS_DSP\arm_math.h **** * are met:
  17:C:\Users\Depes Crystalline\Desktop\school\Active_Bike_Lighting_System\Radar_Core\Dave\Generated/CMSIS_DSP\arm_math.h **** *   - Redistributions of source code must retain the above copyright
  18:C:\Users\Depes Crystalline\Desktop\school\Active_Bike_Lighting_System\Radar_Core\Dave\Generated/CMSIS_DSP\arm_math.h **** *     notice, this list of conditions and the following disclaimer.
  19:C:\Users\Depes Crystalline\Desktop\school\Active_Bike_Lighting_System\Radar_Core\Dave\Generated/CMSIS_DSP\arm_math.h **** *   - Redistributions in binary form must reproduce the above copyright
  20:C:\Users\Depes Crystalline\Desktop\school\Active_Bike_Lighting_System\Radar_Core\Dave\Generated/CMSIS_DSP\arm_math.h **** *     notice, this list of conditions and the following disclaimer in
  21:C:\Users\Depes Crystalline\Desktop\school\Active_Bike_Lighting_System\Radar_Core\Dave\Generated/CMSIS_DSP\arm_math.h **** *     the documentation and/or other materials provided with the
  22:C:\Users\Depes Crystalline\Desktop\school\Active_Bike_Lighting_System\Radar_Core\Dave\Generated/CMSIS_DSP\arm_math.h **** *     distribution.
  23:C:\Users\Depes Crystalline\Desktop\school\Active_Bike_Lighting_System\Radar_Core\Dave\Generated/CMSIS_DSP\arm_math.h **** *   - Neither the name of ARM LIMITED nor the names of its contributors
  24:C:\Users\Depes Crystalline\Desktop\school\Active_Bike_Lighting_System\Radar_Core\Dave\Generated/CMSIS_DSP\arm_math.h **** *     may be used to endorse or promote products derived from this
  25:C:\Users\Depes Crystalline\Desktop\school\Active_Bike_Lighting_System\Radar_Core\Dave\Generated/CMSIS_DSP\arm_math.h **** *     software without specific prior written permission.
  26:C:\Users\Depes Crystalline\Desktop\school\Active_Bike_Lighting_System\Radar_Core\Dave\Generated/CMSIS_DSP\arm_math.h **** *
  27:C:\Users\Depes Crystalline\Desktop\school\Active_Bike_Lighting_System\Radar_Core\Dave\Generated/CMSIS_DSP\arm_math.h **** * THIS SOFTWARE IS PROVIDED BY THE COPYRIGHT HOLDERS AND CONTRIBUTORS
  28:C:\Users\Depes Crystalline\Desktop\school\Active_Bike_Lighting_System\Radar_Core\Dave\Generated/CMSIS_DSP\arm_math.h **** * "AS IS" AND ANY EXPRESS OR IMPLIED WARRANTIES, INCLUDING, BUT NOT
  29:C:\Users\Depes Crystalline\Desktop\school\Active_Bike_Lighting_System\Radar_Core\Dave\Generated/CMSIS_DSP\arm_math.h **** * LIMITED TO, THE IMPLIED WARRANTIES OF MERCHANTABILITY AND FITNESS
  30:C:\Users\Depes Crystalline\Desktop\school\Active_Bike_Lighting_System\Radar_Core\Dave\Generated/CMSIS_DSP\arm_math.h **** * FOR A PARTICULAR PURPOSE ARE DISCLAIMED. IN NO EVENT SHALL THE
  31:C:\Users\Depes Crystalline\Desktop\school\Active_Bike_Lighting_System\Radar_Core\Dave\Generated/CMSIS_DSP\arm_math.h **** * COPYRIGHT OWNER OR CONTRIBUTORS BE LIABLE FOR ANY DIRECT, INDIRECT,
  32:C:\Users\Depes Crystalline\Desktop\school\Active_Bike_Lighting_System\Radar_Core\Dave\Generated/CMSIS_DSP\arm_math.h **** * INCIDENTAL, SPECIAL, EXEMPLARY, OR CONSEQUENTIAL DAMAGES (INCLUDING,
  33:C:\Users\Depes Crystalline\Desktop\school\Active_Bike_Lighting_System\Radar_Core\Dave\Generated/CMSIS_DSP\arm_math.h **** * BUT NOT LIMITED TO, PROCUREMENT OF SUBSTITUTE GOODS OR SERVICES;
  34:C:\Users\Depes Crystalline\Desktop\school\Active_Bike_Lighting_System\Radar_Core\Dave\Generated/CMSIS_DSP\arm_math.h **** * LOSS OF USE, DATA, OR PROFITS; OR BUSINESS INTERRUPTION) HOWEVER
  35:C:\Users\Depes Crystalline\Desktop\school\Active_Bike_Lighting_System\Radar_Core\Dave\Generated/CMSIS_DSP\arm_math.h **** * CAUSED AND ON ANY THEORY OF LIABILITY, WHETHER IN CONTRACT, STRICT
  36:C:\Users\Depes Crystalline\Desktop\school\Active_Bike_Lighting_System\Radar_Core\Dave\Generated/CMSIS_DSP\arm_math.h **** * LIABILITY, OR TORT (INCLUDING NEGLIGENCE OR OTHERWISE) ARISING IN
  37:C:\Users\Depes Crystalline\Desktop\school\Active_Bike_Lighting_System\Radar_Core\Dave\Generated/CMSIS_DSP\arm_math.h **** * ANY WAY OUT OF THE USE OF THIS SOFTWARE, EVEN IF ADVISED OF THE
  38:C:\Users\Depes Crystalline\Desktop\school\Active_Bike_Lighting_System\Radar_Core\Dave\Generated/CMSIS_DSP\arm_math.h **** * POSSIBILITY OF SUCH DAMAGE.
  39:C:\Users\Depes Crystalline\Desktop\school\Active_Bike_Lighting_System\Radar_Core\Dave\Generated/CMSIS_DSP\arm_math.h ****  * -------------------------------------------------------------------- */
  40:C:\Users\Depes Crystalline\Desktop\school\Active_Bike_Lighting_System\Radar_Core\Dave\Generated/CMSIS_DSP\arm_math.h **** 
  41:C:\Users\Depes Crystalline\Desktop\school\Active_Bike_Lighting_System\Radar_Core\Dave\Generated/CMSIS_DSP\arm_math.h **** /**
  42:C:\Users\Depes Crystalline\Desktop\school\Active_Bike_Lighting_System\Radar_Core\Dave\Generated/CMSIS_DSP\arm_math.h ****    \mainpage CMSIS DSP Software Library
  43:C:\Users\Depes Crystalline\Desktop\school\Active_Bike_Lighting_System\Radar_Core\Dave\Generated/CMSIS_DSP\arm_math.h ****    *
  44:C:\Users\Depes Crystalline\Desktop\school\Active_Bike_Lighting_System\Radar_Core\Dave\Generated/CMSIS_DSP\arm_math.h ****    * Introduction
  45:C:\Users\Depes Crystalline\Desktop\school\Active_Bike_Lighting_System\Radar_Core\Dave\Generated/CMSIS_DSP\arm_math.h ****    * ------------
  46:C:\Users\Depes Crystalline\Desktop\school\Active_Bike_Lighting_System\Radar_Core\Dave\Generated/CMSIS_DSP\arm_math.h ****    *
  47:C:\Users\Depes Crystalline\Desktop\school\Active_Bike_Lighting_System\Radar_Core\Dave\Generated/CMSIS_DSP\arm_math.h ****    * This user manual describes the CMSIS DSP software library,
  48:C:\Users\Depes Crystalline\Desktop\school\Active_Bike_Lighting_System\Radar_Core\Dave\Generated/CMSIS_DSP\arm_math.h ****    * a suite of common signal processing functions for use on Cortex-M processor based devices.
  49:C:\Users\Depes Crystalline\Desktop\school\Active_Bike_Lighting_System\Radar_Core\Dave\Generated/CMSIS_DSP\arm_math.h ****    *
  50:C:\Users\Depes Crystalline\Desktop\school\Active_Bike_Lighting_System\Radar_Core\Dave\Generated/CMSIS_DSP\arm_math.h ****    * The library is divided into a number of functions each covering a specific category:
  51:C:\Users\Depes Crystalline\Desktop\school\Active_Bike_Lighting_System\Radar_Core\Dave\Generated/CMSIS_DSP\arm_math.h ****    * - Basic math functions
  52:C:\Users\Depes Crystalline\Desktop\school\Active_Bike_Lighting_System\Radar_Core\Dave\Generated/CMSIS_DSP\arm_math.h ****    * - Fast math functions
  53:C:\Users\Depes Crystalline\Desktop\school\Active_Bike_Lighting_System\Radar_Core\Dave\Generated/CMSIS_DSP\arm_math.h ****    * - Complex math functions
  54:C:\Users\Depes Crystalline\Desktop\school\Active_Bike_Lighting_System\Radar_Core\Dave\Generated/CMSIS_DSP\arm_math.h ****    * - Filters
  55:C:\Users\Depes Crystalline\Desktop\school\Active_Bike_Lighting_System\Radar_Core\Dave\Generated/CMSIS_DSP\arm_math.h ****    * - Matrix functions
  56:C:\Users\Depes Crystalline\Desktop\school\Active_Bike_Lighting_System\Radar_Core\Dave\Generated/CMSIS_DSP\arm_math.h ****    * - Transforms
  57:C:\Users\Depes Crystalline\Desktop\school\Active_Bike_Lighting_System\Radar_Core\Dave\Generated/CMSIS_DSP\arm_math.h ****    * - Motor control functions
  58:C:\Users\Depes Crystalline\Desktop\school\Active_Bike_Lighting_System\Radar_Core\Dave\Generated/CMSIS_DSP\arm_math.h ****    * - Statistical functions
  59:C:\Users\Depes Crystalline\Desktop\school\Active_Bike_Lighting_System\Radar_Core\Dave\Generated/CMSIS_DSP\arm_math.h ****    * - Support functions
  60:C:\Users\Depes Crystalline\Desktop\school\Active_Bike_Lighting_System\Radar_Core\Dave\Generated/CMSIS_DSP\arm_math.h ****    * - Interpolation functions
  61:C:\Users\Depes Crystalline\Desktop\school\Active_Bike_Lighting_System\Radar_Core\Dave\Generated/CMSIS_DSP\arm_math.h ****    *
  62:C:\Users\Depes Crystalline\Desktop\school\Active_Bike_Lighting_System\Radar_Core\Dave\Generated/CMSIS_DSP\arm_math.h ****    * The library has separate functions for operating on 8-bit integers, 16-bit integers,
  63:C:\Users\Depes Crystalline\Desktop\school\Active_Bike_Lighting_System\Radar_Core\Dave\Generated/CMSIS_DSP\arm_math.h ****    * 32-bit integer and 32-bit floating-point values.
  64:C:\Users\Depes Crystalline\Desktop\school\Active_Bike_Lighting_System\Radar_Core\Dave\Generated/CMSIS_DSP\arm_math.h ****    *
  65:C:\Users\Depes Crystalline\Desktop\school\Active_Bike_Lighting_System\Radar_Core\Dave\Generated/CMSIS_DSP\arm_math.h ****    * Using the Library
  66:C:\Users\Depes Crystalline\Desktop\school\Active_Bike_Lighting_System\Radar_Core\Dave\Generated/CMSIS_DSP\arm_math.h ****    * ------------
  67:C:\Users\Depes Crystalline\Desktop\school\Active_Bike_Lighting_System\Radar_Core\Dave\Generated/CMSIS_DSP\arm_math.h ****    *
  68:C:\Users\Depes Crystalline\Desktop\school\Active_Bike_Lighting_System\Radar_Core\Dave\Generated/CMSIS_DSP\arm_math.h ****    * The library installer contains prebuilt versions of the libraries in the <code>Lib</code> fold
  69:C:\Users\Depes Crystalline\Desktop\school\Active_Bike_Lighting_System\Radar_Core\Dave\Generated/CMSIS_DSP\arm_math.h ****    * - arm_cortexM7lfdp_math.lib (Little endian and Double Precision Floating Point Unit on Cortex-
  70:C:\Users\Depes Crystalline\Desktop\school\Active_Bike_Lighting_System\Radar_Core\Dave\Generated/CMSIS_DSP\arm_math.h ****    * - arm_cortexM7bfdp_math.lib (Big endian and Double Precision Floating Point Unit on Cortex-M7)
  71:C:\Users\Depes Crystalline\Desktop\school\Active_Bike_Lighting_System\Radar_Core\Dave\Generated/CMSIS_DSP\arm_math.h ****    * - arm_cortexM7lfsp_math.lib (Little endian and Single Precision Floating Point Unit on Cortex-
  72:C:\Users\Depes Crystalline\Desktop\school\Active_Bike_Lighting_System\Radar_Core\Dave\Generated/CMSIS_DSP\arm_math.h ****    * - arm_cortexM7bfsp_math.lib (Big endian and Single Precision Floating Point Unit on Cortex-M7)
  73:C:\Users\Depes Crystalline\Desktop\school\Active_Bike_Lighting_System\Radar_Core\Dave\Generated/CMSIS_DSP\arm_math.h ****    * - arm_cortexM7l_math.lib (Little endian on Cortex-M7)
  74:C:\Users\Depes Crystalline\Desktop\school\Active_Bike_Lighting_System\Radar_Core\Dave\Generated/CMSIS_DSP\arm_math.h ****    * - arm_cortexM7b_math.lib (Big endian on Cortex-M7)
  75:C:\Users\Depes Crystalline\Desktop\school\Active_Bike_Lighting_System\Radar_Core\Dave\Generated/CMSIS_DSP\arm_math.h ****    * - arm_cortexM4lf_math.lib (Little endian and Floating Point Unit on Cortex-M4)
  76:C:\Users\Depes Crystalline\Desktop\school\Active_Bike_Lighting_System\Radar_Core\Dave\Generated/CMSIS_DSP\arm_math.h ****    * - arm_cortexM4bf_math.lib (Big endian and Floating Point Unit on Cortex-M4)
  77:C:\Users\Depes Crystalline\Desktop\school\Active_Bike_Lighting_System\Radar_Core\Dave\Generated/CMSIS_DSP\arm_math.h ****    * - arm_cortexM4l_math.lib (Little endian on Cortex-M4)
  78:C:\Users\Depes Crystalline\Desktop\school\Active_Bike_Lighting_System\Radar_Core\Dave\Generated/CMSIS_DSP\arm_math.h ****    * - arm_cortexM4b_math.lib (Big endian on Cortex-M4)
  79:C:\Users\Depes Crystalline\Desktop\school\Active_Bike_Lighting_System\Radar_Core\Dave\Generated/CMSIS_DSP\arm_math.h ****    * - arm_cortexM3l_math.lib (Little endian on Cortex-M3)
  80:C:\Users\Depes Crystalline\Desktop\school\Active_Bike_Lighting_System\Radar_Core\Dave\Generated/CMSIS_DSP\arm_math.h ****    * - arm_cortexM3b_math.lib (Big endian on Cortex-M3)
  81:C:\Users\Depes Crystalline\Desktop\school\Active_Bike_Lighting_System\Radar_Core\Dave\Generated/CMSIS_DSP\arm_math.h ****    * - arm_cortexM0l_math.lib (Little endian on Cortex-M0 / CortexM0+)
  82:C:\Users\Depes Crystalline\Desktop\school\Active_Bike_Lighting_System\Radar_Core\Dave\Generated/CMSIS_DSP\arm_math.h ****    * - arm_cortexM0b_math.lib (Big endian on Cortex-M0 / CortexM0+)
  83:C:\Users\Depes Crystalline\Desktop\school\Active_Bike_Lighting_System\Radar_Core\Dave\Generated/CMSIS_DSP\arm_math.h ****    *
  84:C:\Users\Depes Crystalline\Desktop\school\Active_Bike_Lighting_System\Radar_Core\Dave\Generated/CMSIS_DSP\arm_math.h ****    * The library functions are declared in the public file <code>arm_math.h</code> which is placed 
  85:C:\Users\Depes Crystalline\Desktop\school\Active_Bike_Lighting_System\Radar_Core\Dave\Generated/CMSIS_DSP\arm_math.h ****    * Simply include this file and link the appropriate library in the application and begin calling
  86:C:\Users\Depes Crystalline\Desktop\school\Active_Bike_Lighting_System\Radar_Core\Dave\Generated/CMSIS_DSP\arm_math.h ****    * public header file <code> arm_math.h</code> for Cortex-M7/M4/M3/M0/M0+ with little endian and 
  87:C:\Users\Depes Crystalline\Desktop\school\Active_Bike_Lighting_System\Radar_Core\Dave\Generated/CMSIS_DSP\arm_math.h ****    * Define the appropriate pre processor MACRO ARM_MATH_CM7 or ARM_MATH_CM4 or  ARM_MATH_CM3 or
  88:C:\Users\Depes Crystalline\Desktop\school\Active_Bike_Lighting_System\Radar_Core\Dave\Generated/CMSIS_DSP\arm_math.h ****    * ARM_MATH_CM0 or ARM_MATH_CM0PLUS depending on the target processor in the application.
  89:C:\Users\Depes Crystalline\Desktop\school\Active_Bike_Lighting_System\Radar_Core\Dave\Generated/CMSIS_DSP\arm_math.h ****    *
  90:C:\Users\Depes Crystalline\Desktop\school\Active_Bike_Lighting_System\Radar_Core\Dave\Generated/CMSIS_DSP\arm_math.h ****    * Examples
  91:C:\Users\Depes Crystalline\Desktop\school\Active_Bike_Lighting_System\Radar_Core\Dave\Generated/CMSIS_DSP\arm_math.h ****    * --------
  92:C:\Users\Depes Crystalline\Desktop\school\Active_Bike_Lighting_System\Radar_Core\Dave\Generated/CMSIS_DSP\arm_math.h ****    *
  93:C:\Users\Depes Crystalline\Desktop\school\Active_Bike_Lighting_System\Radar_Core\Dave\Generated/CMSIS_DSP\arm_math.h ****    * The library ships with a number of examples which demonstrate how to use the library functions
  94:C:\Users\Depes Crystalline\Desktop\school\Active_Bike_Lighting_System\Radar_Core\Dave\Generated/CMSIS_DSP\arm_math.h ****    *
  95:C:\Users\Depes Crystalline\Desktop\school\Active_Bike_Lighting_System\Radar_Core\Dave\Generated/CMSIS_DSP\arm_math.h ****    * Toolchain Support
  96:C:\Users\Depes Crystalline\Desktop\school\Active_Bike_Lighting_System\Radar_Core\Dave\Generated/CMSIS_DSP\arm_math.h ****    * ------------
  97:C:\Users\Depes Crystalline\Desktop\school\Active_Bike_Lighting_System\Radar_Core\Dave\Generated/CMSIS_DSP\arm_math.h ****    *
  98:C:\Users\Depes Crystalline\Desktop\school\Active_Bike_Lighting_System\Radar_Core\Dave\Generated/CMSIS_DSP\arm_math.h ****    * The library has been developed and tested with MDK-ARM version 4.60.
  99:C:\Users\Depes Crystalline\Desktop\school\Active_Bike_Lighting_System\Radar_Core\Dave\Generated/CMSIS_DSP\arm_math.h ****    * The library is being tested in GCC and IAR toolchains and updates on this activity will be mad
 100:C:\Users\Depes Crystalline\Desktop\school\Active_Bike_Lighting_System\Radar_Core\Dave\Generated/CMSIS_DSP\arm_math.h ****    *
 101:C:\Users\Depes Crystalline\Desktop\school\Active_Bike_Lighting_System\Radar_Core\Dave\Generated/CMSIS_DSP\arm_math.h ****    * Building the Library
 102:C:\Users\Depes Crystalline\Desktop\school\Active_Bike_Lighting_System\Radar_Core\Dave\Generated/CMSIS_DSP\arm_math.h ****    * ------------
 103:C:\Users\Depes Crystalline\Desktop\school\Active_Bike_Lighting_System\Radar_Core\Dave\Generated/CMSIS_DSP\arm_math.h ****    *
 104:C:\Users\Depes Crystalline\Desktop\school\Active_Bike_Lighting_System\Radar_Core\Dave\Generated/CMSIS_DSP\arm_math.h ****    * The library installer contains a project file to re build libraries on MDK-ARM Tool chain in t
 105:C:\Users\Depes Crystalline\Desktop\school\Active_Bike_Lighting_System\Radar_Core\Dave\Generated/CMSIS_DSP\arm_math.h ****    * - arm_cortexM_math.uvproj
 106:C:\Users\Depes Crystalline\Desktop\school\Active_Bike_Lighting_System\Radar_Core\Dave\Generated/CMSIS_DSP\arm_math.h ****    *
 107:C:\Users\Depes Crystalline\Desktop\school\Active_Bike_Lighting_System\Radar_Core\Dave\Generated/CMSIS_DSP\arm_math.h ****    *
 108:C:\Users\Depes Crystalline\Desktop\school\Active_Bike_Lighting_System\Radar_Core\Dave\Generated/CMSIS_DSP\arm_math.h ****    * The libraries can be built by opening the arm_cortexM_math.uvproj project in MDK-ARM, selectin
 109:C:\Users\Depes Crystalline\Desktop\school\Active_Bike_Lighting_System\Radar_Core\Dave\Generated/CMSIS_DSP\arm_math.h ****    *
 110:C:\Users\Depes Crystalline\Desktop\school\Active_Bike_Lighting_System\Radar_Core\Dave\Generated/CMSIS_DSP\arm_math.h ****    * Pre-processor Macros
 111:C:\Users\Depes Crystalline\Desktop\school\Active_Bike_Lighting_System\Radar_Core\Dave\Generated/CMSIS_DSP\arm_math.h ****    * ------------
 112:C:\Users\Depes Crystalline\Desktop\school\Active_Bike_Lighting_System\Radar_Core\Dave\Generated/CMSIS_DSP\arm_math.h ****    *
 113:C:\Users\Depes Crystalline\Desktop\school\Active_Bike_Lighting_System\Radar_Core\Dave\Generated/CMSIS_DSP\arm_math.h ****    * Each library project have differant pre-processor macros.
 114:C:\Users\Depes Crystalline\Desktop\school\Active_Bike_Lighting_System\Radar_Core\Dave\Generated/CMSIS_DSP\arm_math.h ****    *
 115:C:\Users\Depes Crystalline\Desktop\school\Active_Bike_Lighting_System\Radar_Core\Dave\Generated/CMSIS_DSP\arm_math.h ****    * - UNALIGNED_SUPPORT_DISABLE:
 116:C:\Users\Depes Crystalline\Desktop\school\Active_Bike_Lighting_System\Radar_Core\Dave\Generated/CMSIS_DSP\arm_math.h ****    *
 117:C:\Users\Depes Crystalline\Desktop\school\Active_Bike_Lighting_System\Radar_Core\Dave\Generated/CMSIS_DSP\arm_math.h ****    * Define macro UNALIGNED_SUPPORT_DISABLE, If the silicon does not support unaligned memory acces
 118:C:\Users\Depes Crystalline\Desktop\school\Active_Bike_Lighting_System\Radar_Core\Dave\Generated/CMSIS_DSP\arm_math.h ****    *
 119:C:\Users\Depes Crystalline\Desktop\school\Active_Bike_Lighting_System\Radar_Core\Dave\Generated/CMSIS_DSP\arm_math.h ****    * - ARM_MATH_BIG_ENDIAN:
 120:C:\Users\Depes Crystalline\Desktop\school\Active_Bike_Lighting_System\Radar_Core\Dave\Generated/CMSIS_DSP\arm_math.h ****    *
 121:C:\Users\Depes Crystalline\Desktop\school\Active_Bike_Lighting_System\Radar_Core\Dave\Generated/CMSIS_DSP\arm_math.h ****    * Define macro ARM_MATH_BIG_ENDIAN to build the library for big endian targets. By default libra
 122:C:\Users\Depes Crystalline\Desktop\school\Active_Bike_Lighting_System\Radar_Core\Dave\Generated/CMSIS_DSP\arm_math.h ****    *
 123:C:\Users\Depes Crystalline\Desktop\school\Active_Bike_Lighting_System\Radar_Core\Dave\Generated/CMSIS_DSP\arm_math.h ****    * - ARM_MATH_MATRIX_CHECK:
 124:C:\Users\Depes Crystalline\Desktop\school\Active_Bike_Lighting_System\Radar_Core\Dave\Generated/CMSIS_DSP\arm_math.h ****    *
 125:C:\Users\Depes Crystalline\Desktop\school\Active_Bike_Lighting_System\Radar_Core\Dave\Generated/CMSIS_DSP\arm_math.h ****    * Define macro ARM_MATH_MATRIX_CHECK for checking on the input and output sizes of matrices
 126:C:\Users\Depes Crystalline\Desktop\school\Active_Bike_Lighting_System\Radar_Core\Dave\Generated/CMSIS_DSP\arm_math.h ****    *
 127:C:\Users\Depes Crystalline\Desktop\school\Active_Bike_Lighting_System\Radar_Core\Dave\Generated/CMSIS_DSP\arm_math.h ****    * - ARM_MATH_ROUNDING:
 128:C:\Users\Depes Crystalline\Desktop\school\Active_Bike_Lighting_System\Radar_Core\Dave\Generated/CMSIS_DSP\arm_math.h ****    *
 129:C:\Users\Depes Crystalline\Desktop\school\Active_Bike_Lighting_System\Radar_Core\Dave\Generated/CMSIS_DSP\arm_math.h ****    * Define macro ARM_MATH_ROUNDING for rounding on support functions
 130:C:\Users\Depes Crystalline\Desktop\school\Active_Bike_Lighting_System\Radar_Core\Dave\Generated/CMSIS_DSP\arm_math.h ****    *
 131:C:\Users\Depes Crystalline\Desktop\school\Active_Bike_Lighting_System\Radar_Core\Dave\Generated/CMSIS_DSP\arm_math.h ****    * - ARM_MATH_CMx:
 132:C:\Users\Depes Crystalline\Desktop\school\Active_Bike_Lighting_System\Radar_Core\Dave\Generated/CMSIS_DSP\arm_math.h ****    *
 133:C:\Users\Depes Crystalline\Desktop\school\Active_Bike_Lighting_System\Radar_Core\Dave\Generated/CMSIS_DSP\arm_math.h ****    * Define macro ARM_MATH_CM4 for building the library on Cortex-M4 target, ARM_MATH_CM3 for build
 134:C:\Users\Depes Crystalline\Desktop\school\Active_Bike_Lighting_System\Radar_Core\Dave\Generated/CMSIS_DSP\arm_math.h ****    * and ARM_MATH_CM0 for building library on cortex-M0 target, ARM_MATH_CM0PLUS for building libra
 135:C:\Users\Depes Crystalline\Desktop\school\Active_Bike_Lighting_System\Radar_Core\Dave\Generated/CMSIS_DSP\arm_math.h ****    *
 136:C:\Users\Depes Crystalline\Desktop\school\Active_Bike_Lighting_System\Radar_Core\Dave\Generated/CMSIS_DSP\arm_math.h ****    * - __FPU_PRESENT:
 137:C:\Users\Depes Crystalline\Desktop\school\Active_Bike_Lighting_System\Radar_Core\Dave\Generated/CMSIS_DSP\arm_math.h ****    *
 138:C:\Users\Depes Crystalline\Desktop\school\Active_Bike_Lighting_System\Radar_Core\Dave\Generated/CMSIS_DSP\arm_math.h ****    * Initialize macro __FPU_PRESENT = 1 when building on FPU supported Targets. Enable this macro f
 139:C:\Users\Depes Crystalline\Desktop\school\Active_Bike_Lighting_System\Radar_Core\Dave\Generated/CMSIS_DSP\arm_math.h ****    *
 140:C:\Users\Depes Crystalline\Desktop\school\Active_Bike_Lighting_System\Radar_Core\Dave\Generated/CMSIS_DSP\arm_math.h ****    * <hr>
 141:C:\Users\Depes Crystalline\Desktop\school\Active_Bike_Lighting_System\Radar_Core\Dave\Generated/CMSIS_DSP\arm_math.h ****    * CMSIS-DSP in ARM::CMSIS Pack
 142:C:\Users\Depes Crystalline\Desktop\school\Active_Bike_Lighting_System\Radar_Core\Dave\Generated/CMSIS_DSP\arm_math.h ****    * -----------------------------
 143:C:\Users\Depes Crystalline\Desktop\school\Active_Bike_Lighting_System\Radar_Core\Dave\Generated/CMSIS_DSP\arm_math.h ****    * 
 144:C:\Users\Depes Crystalline\Desktop\school\Active_Bike_Lighting_System\Radar_Core\Dave\Generated/CMSIS_DSP\arm_math.h ****    * The following files relevant to CMSIS-DSP are present in the <b>ARM::CMSIS</b> Pack directorie
 145:C:\Users\Depes Crystalline\Desktop\school\Active_Bike_Lighting_System\Radar_Core\Dave\Generated/CMSIS_DSP\arm_math.h ****    * |File/Folder                   |Content                                                       
 146:C:\Users\Depes Crystalline\Desktop\school\Active_Bike_Lighting_System\Radar_Core\Dave\Generated/CMSIS_DSP\arm_math.h ****    * |------------------------------|--------------------------------------------------------------
 147:C:\Users\Depes Crystalline\Desktop\school\Active_Bike_Lighting_System\Radar_Core\Dave\Generated/CMSIS_DSP\arm_math.h ****    * |\b CMSIS\\Documentation\\DSP  | This documentation                                           
 148:C:\Users\Depes Crystalline\Desktop\school\Active_Bike_Lighting_System\Radar_Core\Dave\Generated/CMSIS_DSP\arm_math.h ****    * |\b CMSIS\\DSP_Lib             | Software license agreement (license.txt)                     
 149:C:\Users\Depes Crystalline\Desktop\school\Active_Bike_Lighting_System\Radar_Core\Dave\Generated/CMSIS_DSP\arm_math.h ****    * |\b CMSIS\\DSP_Lib\\Examples   | Example projects demonstrating the usage of the library funct
 150:C:\Users\Depes Crystalline\Desktop\school\Active_Bike_Lighting_System\Radar_Core\Dave\Generated/CMSIS_DSP\arm_math.h ****    * |\b CMSIS\\DSP_Lib\\Source     | Source files for rebuilding the library                      
 151:C:\Users\Depes Crystalline\Desktop\school\Active_Bike_Lighting_System\Radar_Core\Dave\Generated/CMSIS_DSP\arm_math.h ****    * 
 152:C:\Users\Depes Crystalline\Desktop\school\Active_Bike_Lighting_System\Radar_Core\Dave\Generated/CMSIS_DSP\arm_math.h ****    * <hr>
 153:C:\Users\Depes Crystalline\Desktop\school\Active_Bike_Lighting_System\Radar_Core\Dave\Generated/CMSIS_DSP\arm_math.h ****    * Revision History of CMSIS-DSP
 154:C:\Users\Depes Crystalline\Desktop\school\Active_Bike_Lighting_System\Radar_Core\Dave\Generated/CMSIS_DSP\arm_math.h ****    * ------------
 155:C:\Users\Depes Crystalline\Desktop\school\Active_Bike_Lighting_System\Radar_Core\Dave\Generated/CMSIS_DSP\arm_math.h ****    * Please refer to \ref ChangeLog_pg.
 156:C:\Users\Depes Crystalline\Desktop\school\Active_Bike_Lighting_System\Radar_Core\Dave\Generated/CMSIS_DSP\arm_math.h ****    *
 157:C:\Users\Depes Crystalline\Desktop\school\Active_Bike_Lighting_System\Radar_Core\Dave\Generated/CMSIS_DSP\arm_math.h ****    * Copyright Notice
 158:C:\Users\Depes Crystalline\Desktop\school\Active_Bike_Lighting_System\Radar_Core\Dave\Generated/CMSIS_DSP\arm_math.h ****    * ------------
 159:C:\Users\Depes Crystalline\Desktop\school\Active_Bike_Lighting_System\Radar_Core\Dave\Generated/CMSIS_DSP\arm_math.h ****    *
 160:C:\Users\Depes Crystalline\Desktop\school\Active_Bike_Lighting_System\Radar_Core\Dave\Generated/CMSIS_DSP\arm_math.h ****    * Copyright (C) 2010-2014 ARM Limited. All rights reserved.
 161:C:\Users\Depes Crystalline\Desktop\school\Active_Bike_Lighting_System\Radar_Core\Dave\Generated/CMSIS_DSP\arm_math.h ****    */
 162:C:\Users\Depes Crystalline\Desktop\school\Active_Bike_Lighting_System\Radar_Core\Dave\Generated/CMSIS_DSP\arm_math.h **** 
 163:C:\Users\Depes Crystalline\Desktop\school\Active_Bike_Lighting_System\Radar_Core\Dave\Generated/CMSIS_DSP\arm_math.h **** 
 164:C:\Users\Depes Crystalline\Desktop\school\Active_Bike_Lighting_System\Radar_Core\Dave\Generated/CMSIS_DSP\arm_math.h **** /**
 165:C:\Users\Depes Crystalline\Desktop\school\Active_Bike_Lighting_System\Radar_Core\Dave\Generated/CMSIS_DSP\arm_math.h ****  * @defgroup groupMath Basic Math Functions
 166:C:\Users\Depes Crystalline\Desktop\school\Active_Bike_Lighting_System\Radar_Core\Dave\Generated/CMSIS_DSP\arm_math.h ****  */
 167:C:\Users\Depes Crystalline\Desktop\school\Active_Bike_Lighting_System\Radar_Core\Dave\Generated/CMSIS_DSP\arm_math.h **** 
 168:C:\Users\Depes Crystalline\Desktop\school\Active_Bike_Lighting_System\Radar_Core\Dave\Generated/CMSIS_DSP\arm_math.h **** /**
 169:C:\Users\Depes Crystalline\Desktop\school\Active_Bike_Lighting_System\Radar_Core\Dave\Generated/CMSIS_DSP\arm_math.h ****  * @defgroup groupFastMath Fast Math Functions
 170:C:\Users\Depes Crystalline\Desktop\school\Active_Bike_Lighting_System\Radar_Core\Dave\Generated/CMSIS_DSP\arm_math.h ****  * This set of functions provides a fast approximation to sine, cosine, and square root.
 171:C:\Users\Depes Crystalline\Desktop\school\Active_Bike_Lighting_System\Radar_Core\Dave\Generated/CMSIS_DSP\arm_math.h ****  * As compared to most of the other functions in the CMSIS math library, the fast math functions
 172:C:\Users\Depes Crystalline\Desktop\school\Active_Bike_Lighting_System\Radar_Core\Dave\Generated/CMSIS_DSP\arm_math.h ****  * operate on individual values and not arrays.
 173:C:\Users\Depes Crystalline\Desktop\school\Active_Bike_Lighting_System\Radar_Core\Dave\Generated/CMSIS_DSP\arm_math.h ****  * There are separate functions for Q15, Q31, and floating-point data.
 174:C:\Users\Depes Crystalline\Desktop\school\Active_Bike_Lighting_System\Radar_Core\Dave\Generated/CMSIS_DSP\arm_math.h ****  *
 175:C:\Users\Depes Crystalline\Desktop\school\Active_Bike_Lighting_System\Radar_Core\Dave\Generated/CMSIS_DSP\arm_math.h ****  */
 176:C:\Users\Depes Crystalline\Desktop\school\Active_Bike_Lighting_System\Radar_Core\Dave\Generated/CMSIS_DSP\arm_math.h **** 
 177:C:\Users\Depes Crystalline\Desktop\school\Active_Bike_Lighting_System\Radar_Core\Dave\Generated/CMSIS_DSP\arm_math.h **** /**
 178:C:\Users\Depes Crystalline\Desktop\school\Active_Bike_Lighting_System\Radar_Core\Dave\Generated/CMSIS_DSP\arm_math.h ****  * @defgroup groupCmplxMath Complex Math Functions
 179:C:\Users\Depes Crystalline\Desktop\school\Active_Bike_Lighting_System\Radar_Core\Dave\Generated/CMSIS_DSP\arm_math.h ****  * This set of functions operates on complex data vectors.
 180:C:\Users\Depes Crystalline\Desktop\school\Active_Bike_Lighting_System\Radar_Core\Dave\Generated/CMSIS_DSP\arm_math.h ****  * The data in the complex arrays is stored in an interleaved fashion
 181:C:\Users\Depes Crystalline\Desktop\school\Active_Bike_Lighting_System\Radar_Core\Dave\Generated/CMSIS_DSP\arm_math.h ****  * (real, imag, real, imag, ...).
 182:C:\Users\Depes Crystalline\Desktop\school\Active_Bike_Lighting_System\Radar_Core\Dave\Generated/CMSIS_DSP\arm_math.h ****  * In the API functions, the number of samples in a complex array refers
 183:C:\Users\Depes Crystalline\Desktop\school\Active_Bike_Lighting_System\Radar_Core\Dave\Generated/CMSIS_DSP\arm_math.h ****  * to the number of complex values; the array contains twice this number of
 184:C:\Users\Depes Crystalline\Desktop\school\Active_Bike_Lighting_System\Radar_Core\Dave\Generated/CMSIS_DSP\arm_math.h ****  * real values.
 185:C:\Users\Depes Crystalline\Desktop\school\Active_Bike_Lighting_System\Radar_Core\Dave\Generated/CMSIS_DSP\arm_math.h ****  */
 186:C:\Users\Depes Crystalline\Desktop\school\Active_Bike_Lighting_System\Radar_Core\Dave\Generated/CMSIS_DSP\arm_math.h **** 
 187:C:\Users\Depes Crystalline\Desktop\school\Active_Bike_Lighting_System\Radar_Core\Dave\Generated/CMSIS_DSP\arm_math.h **** /**
 188:C:\Users\Depes Crystalline\Desktop\school\Active_Bike_Lighting_System\Radar_Core\Dave\Generated/CMSIS_DSP\arm_math.h ****  * @defgroup groupFilters Filtering Functions
 189:C:\Users\Depes Crystalline\Desktop\school\Active_Bike_Lighting_System\Radar_Core\Dave\Generated/CMSIS_DSP\arm_math.h ****  */
 190:C:\Users\Depes Crystalline\Desktop\school\Active_Bike_Lighting_System\Radar_Core\Dave\Generated/CMSIS_DSP\arm_math.h **** 
 191:C:\Users\Depes Crystalline\Desktop\school\Active_Bike_Lighting_System\Radar_Core\Dave\Generated/CMSIS_DSP\arm_math.h **** /**
 192:C:\Users\Depes Crystalline\Desktop\school\Active_Bike_Lighting_System\Radar_Core\Dave\Generated/CMSIS_DSP\arm_math.h ****  * @defgroup groupMatrix Matrix Functions
 193:C:\Users\Depes Crystalline\Desktop\school\Active_Bike_Lighting_System\Radar_Core\Dave\Generated/CMSIS_DSP\arm_math.h ****  *
 194:C:\Users\Depes Crystalline\Desktop\school\Active_Bike_Lighting_System\Radar_Core\Dave\Generated/CMSIS_DSP\arm_math.h ****  * This set of functions provides basic matrix math operations.
 195:C:\Users\Depes Crystalline\Desktop\school\Active_Bike_Lighting_System\Radar_Core\Dave\Generated/CMSIS_DSP\arm_math.h ****  * The functions operate on matrix data structures.  For example,
 196:C:\Users\Depes Crystalline\Desktop\school\Active_Bike_Lighting_System\Radar_Core\Dave\Generated/CMSIS_DSP\arm_math.h ****  * the type
 197:C:\Users\Depes Crystalline\Desktop\school\Active_Bike_Lighting_System\Radar_Core\Dave\Generated/CMSIS_DSP\arm_math.h ****  * definition for the floating-point matrix structure is shown
 198:C:\Users\Depes Crystalline\Desktop\school\Active_Bike_Lighting_System\Radar_Core\Dave\Generated/CMSIS_DSP\arm_math.h ****  * below:
 199:C:\Users\Depes Crystalline\Desktop\school\Active_Bike_Lighting_System\Radar_Core\Dave\Generated/CMSIS_DSP\arm_math.h ****  * <pre>
 200:C:\Users\Depes Crystalline\Desktop\school\Active_Bike_Lighting_System\Radar_Core\Dave\Generated/CMSIS_DSP\arm_math.h ****  *     typedef struct
 201:C:\Users\Depes Crystalline\Desktop\school\Active_Bike_Lighting_System\Radar_Core\Dave\Generated/CMSIS_DSP\arm_math.h ****  *     {
 202:C:\Users\Depes Crystalline\Desktop\school\Active_Bike_Lighting_System\Radar_Core\Dave\Generated/CMSIS_DSP\arm_math.h ****  *       uint16_t numRows;     // number of rows of the matrix.
 203:C:\Users\Depes Crystalline\Desktop\school\Active_Bike_Lighting_System\Radar_Core\Dave\Generated/CMSIS_DSP\arm_math.h ****  *       uint16_t numCols;     // number of columns of the matrix.
 204:C:\Users\Depes Crystalline\Desktop\school\Active_Bike_Lighting_System\Radar_Core\Dave\Generated/CMSIS_DSP\arm_math.h ****  *       float32_t *pData;     // points to the data of the matrix.
 205:C:\Users\Depes Crystalline\Desktop\school\Active_Bike_Lighting_System\Radar_Core\Dave\Generated/CMSIS_DSP\arm_math.h ****  *     } arm_matrix_instance_f32;
 206:C:\Users\Depes Crystalline\Desktop\school\Active_Bike_Lighting_System\Radar_Core\Dave\Generated/CMSIS_DSP\arm_math.h ****  * </pre>
 207:C:\Users\Depes Crystalline\Desktop\school\Active_Bike_Lighting_System\Radar_Core\Dave\Generated/CMSIS_DSP\arm_math.h ****  * There are similar definitions for Q15 and Q31 data types.
 208:C:\Users\Depes Crystalline\Desktop\school\Active_Bike_Lighting_System\Radar_Core\Dave\Generated/CMSIS_DSP\arm_math.h ****  *
 209:C:\Users\Depes Crystalline\Desktop\school\Active_Bike_Lighting_System\Radar_Core\Dave\Generated/CMSIS_DSP\arm_math.h ****  * The structure specifies the size of the matrix and then points to
 210:C:\Users\Depes Crystalline\Desktop\school\Active_Bike_Lighting_System\Radar_Core\Dave\Generated/CMSIS_DSP\arm_math.h ****  * an array of data.  The array is of size <code>numRows X numCols</code>
 211:C:\Users\Depes Crystalline\Desktop\school\Active_Bike_Lighting_System\Radar_Core\Dave\Generated/CMSIS_DSP\arm_math.h ****  * and the values are arranged in row order.  That is, the
 212:C:\Users\Depes Crystalline\Desktop\school\Active_Bike_Lighting_System\Radar_Core\Dave\Generated/CMSIS_DSP\arm_math.h ****  * matrix element (i, j) is stored at:
 213:C:\Users\Depes Crystalline\Desktop\school\Active_Bike_Lighting_System\Radar_Core\Dave\Generated/CMSIS_DSP\arm_math.h ****  * <pre>
 214:C:\Users\Depes Crystalline\Desktop\school\Active_Bike_Lighting_System\Radar_Core\Dave\Generated/CMSIS_DSP\arm_math.h ****  *     pData[i*numCols + j]
 215:C:\Users\Depes Crystalline\Desktop\school\Active_Bike_Lighting_System\Radar_Core\Dave\Generated/CMSIS_DSP\arm_math.h ****  * </pre>
 216:C:\Users\Depes Crystalline\Desktop\school\Active_Bike_Lighting_System\Radar_Core\Dave\Generated/CMSIS_DSP\arm_math.h ****  *
 217:C:\Users\Depes Crystalline\Desktop\school\Active_Bike_Lighting_System\Radar_Core\Dave\Generated/CMSIS_DSP\arm_math.h ****  * \par Init Functions
 218:C:\Users\Depes Crystalline\Desktop\school\Active_Bike_Lighting_System\Radar_Core\Dave\Generated/CMSIS_DSP\arm_math.h ****  * There is an associated initialization function for each type of matrix
 219:C:\Users\Depes Crystalline\Desktop\school\Active_Bike_Lighting_System\Radar_Core\Dave\Generated/CMSIS_DSP\arm_math.h ****  * data structure.
 220:C:\Users\Depes Crystalline\Desktop\school\Active_Bike_Lighting_System\Radar_Core\Dave\Generated/CMSIS_DSP\arm_math.h ****  * The initialization function sets the values of the internal structure fields.
 221:C:\Users\Depes Crystalline\Desktop\school\Active_Bike_Lighting_System\Radar_Core\Dave\Generated/CMSIS_DSP\arm_math.h ****  * Refer to the function <code>arm_mat_init_f32()</code>, <code>arm_mat_init_q31()</code>
 222:C:\Users\Depes Crystalline\Desktop\school\Active_Bike_Lighting_System\Radar_Core\Dave\Generated/CMSIS_DSP\arm_math.h ****  * and <code>arm_mat_init_q15()</code> for floating-point, Q31 and Q15 types,  respectively.
 223:C:\Users\Depes Crystalline\Desktop\school\Active_Bike_Lighting_System\Radar_Core\Dave\Generated/CMSIS_DSP\arm_math.h ****  *
 224:C:\Users\Depes Crystalline\Desktop\school\Active_Bike_Lighting_System\Radar_Core\Dave\Generated/CMSIS_DSP\arm_math.h ****  * \par
 225:C:\Users\Depes Crystalline\Desktop\school\Active_Bike_Lighting_System\Radar_Core\Dave\Generated/CMSIS_DSP\arm_math.h ****  * Use of the initialization function is optional. However, if initialization function is used
 226:C:\Users\Depes Crystalline\Desktop\school\Active_Bike_Lighting_System\Radar_Core\Dave\Generated/CMSIS_DSP\arm_math.h ****  * then the instance structure cannot be placed into a const data section.
 227:C:\Users\Depes Crystalline\Desktop\school\Active_Bike_Lighting_System\Radar_Core\Dave\Generated/CMSIS_DSP\arm_math.h ****  * To place the instance structure in a const data
 228:C:\Users\Depes Crystalline\Desktop\school\Active_Bike_Lighting_System\Radar_Core\Dave\Generated/CMSIS_DSP\arm_math.h ****  * section, manually initialize the data structure.  For example:
 229:C:\Users\Depes Crystalline\Desktop\school\Active_Bike_Lighting_System\Radar_Core\Dave\Generated/CMSIS_DSP\arm_math.h ****  * <pre>
 230:C:\Users\Depes Crystalline\Desktop\school\Active_Bike_Lighting_System\Radar_Core\Dave\Generated/CMSIS_DSP\arm_math.h ****  * <code>arm_matrix_instance_f32 S = {nRows, nColumns, pData};</code>
 231:C:\Users\Depes Crystalline\Desktop\school\Active_Bike_Lighting_System\Radar_Core\Dave\Generated/CMSIS_DSP\arm_math.h ****  * <code>arm_matrix_instance_q31 S = {nRows, nColumns, pData};</code>
 232:C:\Users\Depes Crystalline\Desktop\school\Active_Bike_Lighting_System\Radar_Core\Dave\Generated/CMSIS_DSP\arm_math.h ****  * <code>arm_matrix_instance_q15 S = {nRows, nColumns, pData};</code>
 233:C:\Users\Depes Crystalline\Desktop\school\Active_Bike_Lighting_System\Radar_Core\Dave\Generated/CMSIS_DSP\arm_math.h ****  * </pre>
 234:C:\Users\Depes Crystalline\Desktop\school\Active_Bike_Lighting_System\Radar_Core\Dave\Generated/CMSIS_DSP\arm_math.h ****  * where <code>nRows</code> specifies the number of rows, <code>nColumns</code>
 235:C:\Users\Depes Crystalline\Desktop\school\Active_Bike_Lighting_System\Radar_Core\Dave\Generated/CMSIS_DSP\arm_math.h ****  * specifies the number of columns, and <code>pData</code> points to the
 236:C:\Users\Depes Crystalline\Desktop\school\Active_Bike_Lighting_System\Radar_Core\Dave\Generated/CMSIS_DSP\arm_math.h ****  * data array.
 237:C:\Users\Depes Crystalline\Desktop\school\Active_Bike_Lighting_System\Radar_Core\Dave\Generated/CMSIS_DSP\arm_math.h ****  *
 238:C:\Users\Depes Crystalline\Desktop\school\Active_Bike_Lighting_System\Radar_Core\Dave\Generated/CMSIS_DSP\arm_math.h ****  * \par Size Checking
 239:C:\Users\Depes Crystalline\Desktop\school\Active_Bike_Lighting_System\Radar_Core\Dave\Generated/CMSIS_DSP\arm_math.h ****  * By default all of the matrix functions perform size checking on the input and
 240:C:\Users\Depes Crystalline\Desktop\school\Active_Bike_Lighting_System\Radar_Core\Dave\Generated/CMSIS_DSP\arm_math.h ****  * output matrices.  For example, the matrix addition function verifies that the
 241:C:\Users\Depes Crystalline\Desktop\school\Active_Bike_Lighting_System\Radar_Core\Dave\Generated/CMSIS_DSP\arm_math.h ****  * two input matrices and the output matrix all have the same number of rows and
 242:C:\Users\Depes Crystalline\Desktop\school\Active_Bike_Lighting_System\Radar_Core\Dave\Generated/CMSIS_DSP\arm_math.h ****  * columns.  If the size check fails the functions return:
 243:C:\Users\Depes Crystalline\Desktop\school\Active_Bike_Lighting_System\Radar_Core\Dave\Generated/CMSIS_DSP\arm_math.h ****  * <pre>
 244:C:\Users\Depes Crystalline\Desktop\school\Active_Bike_Lighting_System\Radar_Core\Dave\Generated/CMSIS_DSP\arm_math.h ****  *     ARM_MATH_SIZE_MISMATCH
 245:C:\Users\Depes Crystalline\Desktop\school\Active_Bike_Lighting_System\Radar_Core\Dave\Generated/CMSIS_DSP\arm_math.h ****  * </pre>
 246:C:\Users\Depes Crystalline\Desktop\school\Active_Bike_Lighting_System\Radar_Core\Dave\Generated/CMSIS_DSP\arm_math.h ****  * Otherwise the functions return
 247:C:\Users\Depes Crystalline\Desktop\school\Active_Bike_Lighting_System\Radar_Core\Dave\Generated/CMSIS_DSP\arm_math.h ****  * <pre>
 248:C:\Users\Depes Crystalline\Desktop\school\Active_Bike_Lighting_System\Radar_Core\Dave\Generated/CMSIS_DSP\arm_math.h ****  *     ARM_MATH_SUCCESS
 249:C:\Users\Depes Crystalline\Desktop\school\Active_Bike_Lighting_System\Radar_Core\Dave\Generated/CMSIS_DSP\arm_math.h ****  * </pre>
 250:C:\Users\Depes Crystalline\Desktop\school\Active_Bike_Lighting_System\Radar_Core\Dave\Generated/CMSIS_DSP\arm_math.h ****  * There is some overhead associated with this matrix size checking.
 251:C:\Users\Depes Crystalline\Desktop\school\Active_Bike_Lighting_System\Radar_Core\Dave\Generated/CMSIS_DSP\arm_math.h ****  * The matrix size checking is enabled via the \#define
 252:C:\Users\Depes Crystalline\Desktop\school\Active_Bike_Lighting_System\Radar_Core\Dave\Generated/CMSIS_DSP\arm_math.h ****  * <pre>
 253:C:\Users\Depes Crystalline\Desktop\school\Active_Bike_Lighting_System\Radar_Core\Dave\Generated/CMSIS_DSP\arm_math.h ****  *     ARM_MATH_MATRIX_CHECK
 254:C:\Users\Depes Crystalline\Desktop\school\Active_Bike_Lighting_System\Radar_Core\Dave\Generated/CMSIS_DSP\arm_math.h ****  * </pre>
 255:C:\Users\Depes Crystalline\Desktop\school\Active_Bike_Lighting_System\Radar_Core\Dave\Generated/CMSIS_DSP\arm_math.h ****  * within the library project settings.  By default this macro is defined
 256:C:\Users\Depes Crystalline\Desktop\school\Active_Bike_Lighting_System\Radar_Core\Dave\Generated/CMSIS_DSP\arm_math.h ****  * and size checking is enabled.  By changing the project settings and
 257:C:\Users\Depes Crystalline\Desktop\school\Active_Bike_Lighting_System\Radar_Core\Dave\Generated/CMSIS_DSP\arm_math.h ****  * undefining this macro size checking is eliminated and the functions
 258:C:\Users\Depes Crystalline\Desktop\school\Active_Bike_Lighting_System\Radar_Core\Dave\Generated/CMSIS_DSP\arm_math.h ****  * run a bit faster.  With size checking disabled the functions always
 259:C:\Users\Depes Crystalline\Desktop\school\Active_Bike_Lighting_System\Radar_Core\Dave\Generated/CMSIS_DSP\arm_math.h ****  * return <code>ARM_MATH_SUCCESS</code>.
 260:C:\Users\Depes Crystalline\Desktop\school\Active_Bike_Lighting_System\Radar_Core\Dave\Generated/CMSIS_DSP\arm_math.h ****  */
 261:C:\Users\Depes Crystalline\Desktop\school\Active_Bike_Lighting_System\Radar_Core\Dave\Generated/CMSIS_DSP\arm_math.h **** 
 262:C:\Users\Depes Crystalline\Desktop\school\Active_Bike_Lighting_System\Radar_Core\Dave\Generated/CMSIS_DSP\arm_math.h **** /**
 263:C:\Users\Depes Crystalline\Desktop\school\Active_Bike_Lighting_System\Radar_Core\Dave\Generated/CMSIS_DSP\arm_math.h ****  * @defgroup groupTransforms Transform Functions
 264:C:\Users\Depes Crystalline\Desktop\school\Active_Bike_Lighting_System\Radar_Core\Dave\Generated/CMSIS_DSP\arm_math.h ****  */
 265:C:\Users\Depes Crystalline\Desktop\school\Active_Bike_Lighting_System\Radar_Core\Dave\Generated/CMSIS_DSP\arm_math.h **** 
 266:C:\Users\Depes Crystalline\Desktop\school\Active_Bike_Lighting_System\Radar_Core\Dave\Generated/CMSIS_DSP\arm_math.h **** /**
 267:C:\Users\Depes Crystalline\Desktop\school\Active_Bike_Lighting_System\Radar_Core\Dave\Generated/CMSIS_DSP\arm_math.h ****  * @defgroup groupController Controller Functions
 268:C:\Users\Depes Crystalline\Desktop\school\Active_Bike_Lighting_System\Radar_Core\Dave\Generated/CMSIS_DSP\arm_math.h ****  */
 269:C:\Users\Depes Crystalline\Desktop\school\Active_Bike_Lighting_System\Radar_Core\Dave\Generated/CMSIS_DSP\arm_math.h **** 
 270:C:\Users\Depes Crystalline\Desktop\school\Active_Bike_Lighting_System\Radar_Core\Dave\Generated/CMSIS_DSP\arm_math.h **** /**
 271:C:\Users\Depes Crystalline\Desktop\school\Active_Bike_Lighting_System\Radar_Core\Dave\Generated/CMSIS_DSP\arm_math.h ****  * @defgroup groupStats Statistics Functions
 272:C:\Users\Depes Crystalline\Desktop\school\Active_Bike_Lighting_System\Radar_Core\Dave\Generated/CMSIS_DSP\arm_math.h ****  */
 273:C:\Users\Depes Crystalline\Desktop\school\Active_Bike_Lighting_System\Radar_Core\Dave\Generated/CMSIS_DSP\arm_math.h **** /**
 274:C:\Users\Depes Crystalline\Desktop\school\Active_Bike_Lighting_System\Radar_Core\Dave\Generated/CMSIS_DSP\arm_math.h ****  * @defgroup groupSupport Support Functions
 275:C:\Users\Depes Crystalline\Desktop\school\Active_Bike_Lighting_System\Radar_Core\Dave\Generated/CMSIS_DSP\arm_math.h ****  */
 276:C:\Users\Depes Crystalline\Desktop\school\Active_Bike_Lighting_System\Radar_Core\Dave\Generated/CMSIS_DSP\arm_math.h **** 
 277:C:\Users\Depes Crystalline\Desktop\school\Active_Bike_Lighting_System\Radar_Core\Dave\Generated/CMSIS_DSP\arm_math.h **** /**
 278:C:\Users\Depes Crystalline\Desktop\school\Active_Bike_Lighting_System\Radar_Core\Dave\Generated/CMSIS_DSP\arm_math.h ****  * @defgroup groupInterpolation Interpolation Functions
 279:C:\Users\Depes Crystalline\Desktop\school\Active_Bike_Lighting_System\Radar_Core\Dave\Generated/CMSIS_DSP\arm_math.h ****  * These functions perform 1- and 2-dimensional interpolation of data.
 280:C:\Users\Depes Crystalline\Desktop\school\Active_Bike_Lighting_System\Radar_Core\Dave\Generated/CMSIS_DSP\arm_math.h ****  * Linear interpolation is used for 1-dimensional data and
 281:C:\Users\Depes Crystalline\Desktop\school\Active_Bike_Lighting_System\Radar_Core\Dave\Generated/CMSIS_DSP\arm_math.h ****  * bilinear interpolation is used for 2-dimensional data.
 282:C:\Users\Depes Crystalline\Desktop\school\Active_Bike_Lighting_System\Radar_Core\Dave\Generated/CMSIS_DSP\arm_math.h ****  */
 283:C:\Users\Depes Crystalline\Desktop\school\Active_Bike_Lighting_System\Radar_Core\Dave\Generated/CMSIS_DSP\arm_math.h **** 
 284:C:\Users\Depes Crystalline\Desktop\school\Active_Bike_Lighting_System\Radar_Core\Dave\Generated/CMSIS_DSP\arm_math.h **** /**
 285:C:\Users\Depes Crystalline\Desktop\school\Active_Bike_Lighting_System\Radar_Core\Dave\Generated/CMSIS_DSP\arm_math.h ****  * @defgroup groupExamples Examples
 286:C:\Users\Depes Crystalline\Desktop\school\Active_Bike_Lighting_System\Radar_Core\Dave\Generated/CMSIS_DSP\arm_math.h ****  */
 287:C:\Users\Depes Crystalline\Desktop\school\Active_Bike_Lighting_System\Radar_Core\Dave\Generated/CMSIS_DSP\arm_math.h **** #ifndef _ARM_MATH_H
 288:C:\Users\Depes Crystalline\Desktop\school\Active_Bike_Lighting_System\Radar_Core\Dave\Generated/CMSIS_DSP\arm_math.h **** #define _ARM_MATH_H
 289:C:\Users\Depes Crystalline\Desktop\school\Active_Bike_Lighting_System\Radar_Core\Dave\Generated/CMSIS_DSP\arm_math.h **** 
 290:C:\Users\Depes Crystalline\Desktop\school\Active_Bike_Lighting_System\Radar_Core\Dave\Generated/CMSIS_DSP\arm_math.h **** #define __CMSIS_GENERIC         /* disable NVIC and Systick functions */
 291:C:\Users\Depes Crystalline\Desktop\school\Active_Bike_Lighting_System\Radar_Core\Dave\Generated/CMSIS_DSP\arm_math.h **** 
 292:C:\Users\Depes Crystalline\Desktop\school\Active_Bike_Lighting_System\Radar_Core\Dave\Generated/CMSIS_DSP\arm_math.h **** #if defined(ARM_MATH_CM7)
 293:C:\Users\Depes Crystalline\Desktop\school\Active_Bike_Lighting_System\Radar_Core\Dave\Generated/CMSIS_DSP\arm_math.h ****   #include "core_cm7.h"
 294:C:\Users\Depes Crystalline\Desktop\school\Active_Bike_Lighting_System\Radar_Core\Dave\Generated/CMSIS_DSP\arm_math.h **** #elif defined (ARM_MATH_CM4)
 295:C:\Users\Depes Crystalline\Desktop\school\Active_Bike_Lighting_System\Radar_Core\Dave\Generated/CMSIS_DSP\arm_math.h ****   #include "core_cm4.h"
 296:C:\Users\Depes Crystalline\Desktop\school\Active_Bike_Lighting_System\Radar_Core\Dave\Generated/CMSIS_DSP\arm_math.h **** #elif defined (ARM_MATH_CM3)
 297:C:\Users\Depes Crystalline\Desktop\school\Active_Bike_Lighting_System\Radar_Core\Dave\Generated/CMSIS_DSP\arm_math.h ****   #include "core_cm3.h"
 298:C:\Users\Depes Crystalline\Desktop\school\Active_Bike_Lighting_System\Radar_Core\Dave\Generated/CMSIS_DSP\arm_math.h **** #elif defined (ARM_MATH_CM0)
 299:C:\Users\Depes Crystalline\Desktop\school\Active_Bike_Lighting_System\Radar_Core\Dave\Generated/CMSIS_DSP\arm_math.h ****   #include "core_cm0.h"
 300:C:\Users\Depes Crystalline\Desktop\school\Active_Bike_Lighting_System\Radar_Core\Dave\Generated/CMSIS_DSP\arm_math.h **** #define ARM_MATH_CM0_FAMILY
 301:C:\Users\Depes Crystalline\Desktop\school\Active_Bike_Lighting_System\Radar_Core\Dave\Generated/CMSIS_DSP\arm_math.h ****   #elif defined (ARM_MATH_CM0PLUS)
 302:C:\Users\Depes Crystalline\Desktop\school\Active_Bike_Lighting_System\Radar_Core\Dave\Generated/CMSIS_DSP\arm_math.h **** #include "core_cm0plus.h"
 303:C:\Users\Depes Crystalline\Desktop\school\Active_Bike_Lighting_System\Radar_Core\Dave\Generated/CMSIS_DSP\arm_math.h ****   #define ARM_MATH_CM0_FAMILY
 304:C:\Users\Depes Crystalline\Desktop\school\Active_Bike_Lighting_System\Radar_Core\Dave\Generated/CMSIS_DSP\arm_math.h **** #else
 305:C:\Users\Depes Crystalline\Desktop\school\Active_Bike_Lighting_System\Radar_Core\Dave\Generated/CMSIS_DSP\arm_math.h ****   #error "Define according the used Cortex core ARM_MATH_CM7, ARM_MATH_CM4, ARM_MATH_CM3, ARM_MATH_
 306:C:\Users\Depes Crystalline\Desktop\school\Active_Bike_Lighting_System\Radar_Core\Dave\Generated/CMSIS_DSP\arm_math.h **** #endif
 307:C:\Users\Depes Crystalline\Desktop\school\Active_Bike_Lighting_System\Radar_Core\Dave\Generated/CMSIS_DSP\arm_math.h **** 
 308:C:\Users\Depes Crystalline\Desktop\school\Active_Bike_Lighting_System\Radar_Core\Dave\Generated/CMSIS_DSP\arm_math.h **** #undef  __CMSIS_GENERIC         /* enable NVIC and Systick functions */
 309:C:\Users\Depes Crystalline\Desktop\school\Active_Bike_Lighting_System\Radar_Core\Dave\Generated/CMSIS_DSP\arm_math.h **** #include "string.h"
 310:C:\Users\Depes Crystalline\Desktop\school\Active_Bike_Lighting_System\Radar_Core\Dave\Generated/CMSIS_DSP\arm_math.h **** #include "math.h"
 311:C:\Users\Depes Crystalline\Desktop\school\Active_Bike_Lighting_System\Radar_Core\Dave\Generated/CMSIS_DSP\arm_math.h **** #ifdef	__cplusplus
 312:C:\Users\Depes Crystalline\Desktop\school\Active_Bike_Lighting_System\Radar_Core\Dave\Generated/CMSIS_DSP\arm_math.h **** extern "C"
 313:C:\Users\Depes Crystalline\Desktop\school\Active_Bike_Lighting_System\Radar_Core\Dave\Generated/CMSIS_DSP\arm_math.h **** {
 314:C:\Users\Depes Crystalline\Desktop\school\Active_Bike_Lighting_System\Radar_Core\Dave\Generated/CMSIS_DSP\arm_math.h **** #endif
 315:C:\Users\Depes Crystalline\Desktop\school\Active_Bike_Lighting_System\Radar_Core\Dave\Generated/CMSIS_DSP\arm_math.h **** 
 316:C:\Users\Depes Crystalline\Desktop\school\Active_Bike_Lighting_System\Radar_Core\Dave\Generated/CMSIS_DSP\arm_math.h **** 
 317:C:\Users\Depes Crystalline\Desktop\school\Active_Bike_Lighting_System\Radar_Core\Dave\Generated/CMSIS_DSP\arm_math.h ****   /**
 318:C:\Users\Depes Crystalline\Desktop\school\Active_Bike_Lighting_System\Radar_Core\Dave\Generated/CMSIS_DSP\arm_math.h ****    * @brief Macros required for reciprocal calculation in Normalized LMS
 319:C:\Users\Depes Crystalline\Desktop\school\Active_Bike_Lighting_System\Radar_Core\Dave\Generated/CMSIS_DSP\arm_math.h ****    */
 320:C:\Users\Depes Crystalline\Desktop\school\Active_Bike_Lighting_System\Radar_Core\Dave\Generated/CMSIS_DSP\arm_math.h **** 
 321:C:\Users\Depes Crystalline\Desktop\school\Active_Bike_Lighting_System\Radar_Core\Dave\Generated/CMSIS_DSP\arm_math.h **** #define DELTA_Q31 			(0x100)
 322:C:\Users\Depes Crystalline\Desktop\school\Active_Bike_Lighting_System\Radar_Core\Dave\Generated/CMSIS_DSP\arm_math.h **** #define DELTA_Q15 			0x5
 323:C:\Users\Depes Crystalline\Desktop\school\Active_Bike_Lighting_System\Radar_Core\Dave\Generated/CMSIS_DSP\arm_math.h **** #define INDEX_MASK 			0x0000003F
 324:C:\Users\Depes Crystalline\Desktop\school\Active_Bike_Lighting_System\Radar_Core\Dave\Generated/CMSIS_DSP\arm_math.h **** #ifndef PI
 325:C:\Users\Depes Crystalline\Desktop\school\Active_Bike_Lighting_System\Radar_Core\Dave\Generated/CMSIS_DSP\arm_math.h **** #define PI					3.14159265358979f
 326:C:\Users\Depes Crystalline\Desktop\school\Active_Bike_Lighting_System\Radar_Core\Dave\Generated/CMSIS_DSP\arm_math.h **** #endif
 327:C:\Users\Depes Crystalline\Desktop\school\Active_Bike_Lighting_System\Radar_Core\Dave\Generated/CMSIS_DSP\arm_math.h **** 
 328:C:\Users\Depes Crystalline\Desktop\school\Active_Bike_Lighting_System\Radar_Core\Dave\Generated/CMSIS_DSP\arm_math.h ****   /**
 329:C:\Users\Depes Crystalline\Desktop\school\Active_Bike_Lighting_System\Radar_Core\Dave\Generated/CMSIS_DSP\arm_math.h ****    * @brief Macros required for SINE and COSINE Fast math approximations
 330:C:\Users\Depes Crystalline\Desktop\school\Active_Bike_Lighting_System\Radar_Core\Dave\Generated/CMSIS_DSP\arm_math.h ****    */
 331:C:\Users\Depes Crystalline\Desktop\school\Active_Bike_Lighting_System\Radar_Core\Dave\Generated/CMSIS_DSP\arm_math.h **** 
 332:C:\Users\Depes Crystalline\Desktop\school\Active_Bike_Lighting_System\Radar_Core\Dave\Generated/CMSIS_DSP\arm_math.h **** #define FAST_MATH_TABLE_SIZE  512
 333:C:\Users\Depes Crystalline\Desktop\school\Active_Bike_Lighting_System\Radar_Core\Dave\Generated/CMSIS_DSP\arm_math.h **** #define FAST_MATH_Q31_SHIFT   (32 - 10)
 334:C:\Users\Depes Crystalline\Desktop\school\Active_Bike_Lighting_System\Radar_Core\Dave\Generated/CMSIS_DSP\arm_math.h **** #define FAST_MATH_Q15_SHIFT   (16 - 10)
 335:C:\Users\Depes Crystalline\Desktop\school\Active_Bike_Lighting_System\Radar_Core\Dave\Generated/CMSIS_DSP\arm_math.h **** #define CONTROLLER_Q31_SHIFT  (32 - 9)
 336:C:\Users\Depes Crystalline\Desktop\school\Active_Bike_Lighting_System\Radar_Core\Dave\Generated/CMSIS_DSP\arm_math.h **** #define TABLE_SIZE  256
 337:C:\Users\Depes Crystalline\Desktop\school\Active_Bike_Lighting_System\Radar_Core\Dave\Generated/CMSIS_DSP\arm_math.h **** #define TABLE_SPACING_Q31	   0x400000
 338:C:\Users\Depes Crystalline\Desktop\school\Active_Bike_Lighting_System\Radar_Core\Dave\Generated/CMSIS_DSP\arm_math.h **** #define TABLE_SPACING_Q15	   0x80
 339:C:\Users\Depes Crystalline\Desktop\school\Active_Bike_Lighting_System\Radar_Core\Dave\Generated/CMSIS_DSP\arm_math.h **** 
 340:C:\Users\Depes Crystalline\Desktop\school\Active_Bike_Lighting_System\Radar_Core\Dave\Generated/CMSIS_DSP\arm_math.h ****   /**
 341:C:\Users\Depes Crystalline\Desktop\school\Active_Bike_Lighting_System\Radar_Core\Dave\Generated/CMSIS_DSP\arm_math.h ****    * @brief Macros required for SINE and COSINE Controller functions
 342:C:\Users\Depes Crystalline\Desktop\school\Active_Bike_Lighting_System\Radar_Core\Dave\Generated/CMSIS_DSP\arm_math.h ****    */
 343:C:\Users\Depes Crystalline\Desktop\school\Active_Bike_Lighting_System\Radar_Core\Dave\Generated/CMSIS_DSP\arm_math.h ****   /* 1.31(q31) Fixed value of 2/360 */
 344:C:\Users\Depes Crystalline\Desktop\school\Active_Bike_Lighting_System\Radar_Core\Dave\Generated/CMSIS_DSP\arm_math.h ****   /* -1 to +1 is divided into 360 values so total spacing is (2/360) */
 345:C:\Users\Depes Crystalline\Desktop\school\Active_Bike_Lighting_System\Radar_Core\Dave\Generated/CMSIS_DSP\arm_math.h **** #define INPUT_SPACING			0xB60B61
 346:C:\Users\Depes Crystalline\Desktop\school\Active_Bike_Lighting_System\Radar_Core\Dave\Generated/CMSIS_DSP\arm_math.h **** 
 347:C:\Users\Depes Crystalline\Desktop\school\Active_Bike_Lighting_System\Radar_Core\Dave\Generated/CMSIS_DSP\arm_math.h ****   /**
 348:C:\Users\Depes Crystalline\Desktop\school\Active_Bike_Lighting_System\Radar_Core\Dave\Generated/CMSIS_DSP\arm_math.h ****    * @brief Macro for Unaligned Support
 349:C:\Users\Depes Crystalline\Desktop\school\Active_Bike_Lighting_System\Radar_Core\Dave\Generated/CMSIS_DSP\arm_math.h ****    */
 350:C:\Users\Depes Crystalline\Desktop\school\Active_Bike_Lighting_System\Radar_Core\Dave\Generated/CMSIS_DSP\arm_math.h **** #ifndef UNALIGNED_SUPPORT_DISABLE
 351:C:\Users\Depes Crystalline\Desktop\school\Active_Bike_Lighting_System\Radar_Core\Dave\Generated/CMSIS_DSP\arm_math.h ****     #define ALIGN4
 352:C:\Users\Depes Crystalline\Desktop\school\Active_Bike_Lighting_System\Radar_Core\Dave\Generated/CMSIS_DSP\arm_math.h **** #else
 353:C:\Users\Depes Crystalline\Desktop\school\Active_Bike_Lighting_System\Radar_Core\Dave\Generated/CMSIS_DSP\arm_math.h ****   #if defined  (__GNUC__)
 354:C:\Users\Depes Crystalline\Desktop\school\Active_Bike_Lighting_System\Radar_Core\Dave\Generated/CMSIS_DSP\arm_math.h ****     #define ALIGN4 __attribute__((aligned(4)))
 355:C:\Users\Depes Crystalline\Desktop\school\Active_Bike_Lighting_System\Radar_Core\Dave\Generated/CMSIS_DSP\arm_math.h ****   #elif defined  (__ICCARM__)
 356:C:\Users\Depes Crystalline\Desktop\school\Active_Bike_Lighting_System\Radar_Core\Dave\Generated/CMSIS_DSP\arm_math.h ****     #define ALIGN4
 357:C:\Users\Depes Crystalline\Desktop\school\Active_Bike_Lighting_System\Radar_Core\Dave\Generated/CMSIS_DSP\arm_math.h ****   #else
 358:C:\Users\Depes Crystalline\Desktop\school\Active_Bike_Lighting_System\Radar_Core\Dave\Generated/CMSIS_DSP\arm_math.h ****     #define ALIGN4 __align(4)
 359:C:\Users\Depes Crystalline\Desktop\school\Active_Bike_Lighting_System\Radar_Core\Dave\Generated/CMSIS_DSP\arm_math.h ****   #endif
 360:C:\Users\Depes Crystalline\Desktop\school\Active_Bike_Lighting_System\Radar_Core\Dave\Generated/CMSIS_DSP\arm_math.h **** #endif	/*	#ifndef UNALIGNED_SUPPORT_DISABLE	*/
 361:C:\Users\Depes Crystalline\Desktop\school\Active_Bike_Lighting_System\Radar_Core\Dave\Generated/CMSIS_DSP\arm_math.h **** 
 362:C:\Users\Depes Crystalline\Desktop\school\Active_Bike_Lighting_System\Radar_Core\Dave\Generated/CMSIS_DSP\arm_math.h ****   /**
 363:C:\Users\Depes Crystalline\Desktop\school\Active_Bike_Lighting_System\Radar_Core\Dave\Generated/CMSIS_DSP\arm_math.h ****    * @brief Error status returned by some functions in the library.
 364:C:\Users\Depes Crystalline\Desktop\school\Active_Bike_Lighting_System\Radar_Core\Dave\Generated/CMSIS_DSP\arm_math.h ****    */
 365:C:\Users\Depes Crystalline\Desktop\school\Active_Bike_Lighting_System\Radar_Core\Dave\Generated/CMSIS_DSP\arm_math.h **** 
 366:C:\Users\Depes Crystalline\Desktop\school\Active_Bike_Lighting_System\Radar_Core\Dave\Generated/CMSIS_DSP\arm_math.h ****   typedef enum
 367:C:\Users\Depes Crystalline\Desktop\school\Active_Bike_Lighting_System\Radar_Core\Dave\Generated/CMSIS_DSP\arm_math.h ****   {
 368:C:\Users\Depes Crystalline\Desktop\school\Active_Bike_Lighting_System\Radar_Core\Dave\Generated/CMSIS_DSP\arm_math.h ****     ARM_MATH_SUCCESS = 0,                /**< No error */
 369:C:\Users\Depes Crystalline\Desktop\school\Active_Bike_Lighting_System\Radar_Core\Dave\Generated/CMSIS_DSP\arm_math.h ****     ARM_MATH_ARGUMENT_ERROR = -1,        /**< One or more arguments are incorrect */
 370:C:\Users\Depes Crystalline\Desktop\school\Active_Bike_Lighting_System\Radar_Core\Dave\Generated/CMSIS_DSP\arm_math.h ****     ARM_MATH_LENGTH_ERROR = -2,          /**< Length of data buffer is incorrect */
 371:C:\Users\Depes Crystalline\Desktop\school\Active_Bike_Lighting_System\Radar_Core\Dave\Generated/CMSIS_DSP\arm_math.h ****     ARM_MATH_SIZE_MISMATCH = -3,         /**< Size of matrices is not compatible with the operation
 372:C:\Users\Depes Crystalline\Desktop\school\Active_Bike_Lighting_System\Radar_Core\Dave\Generated/CMSIS_DSP\arm_math.h ****     ARM_MATH_NANINF = -4,                /**< Not-a-number (NaN) or infinity is generated */
 373:C:\Users\Depes Crystalline\Desktop\school\Active_Bike_Lighting_System\Radar_Core\Dave\Generated/CMSIS_DSP\arm_math.h ****     ARM_MATH_SINGULAR = -5,              /**< Generated by matrix inversion if the input matrix is 
 374:C:\Users\Depes Crystalline\Desktop\school\Active_Bike_Lighting_System\Radar_Core\Dave\Generated/CMSIS_DSP\arm_math.h ****     ARM_MATH_TEST_FAILURE = -6           /**< Test Failed  */
 375:C:\Users\Depes Crystalline\Desktop\school\Active_Bike_Lighting_System\Radar_Core\Dave\Generated/CMSIS_DSP\arm_math.h ****   } arm_status;
 376:C:\Users\Depes Crystalline\Desktop\school\Active_Bike_Lighting_System\Radar_Core\Dave\Generated/CMSIS_DSP\arm_math.h **** 
 377:C:\Users\Depes Crystalline\Desktop\school\Active_Bike_Lighting_System\Radar_Core\Dave\Generated/CMSIS_DSP\arm_math.h ****   /**
 378:C:\Users\Depes Crystalline\Desktop\school\Active_Bike_Lighting_System\Radar_Core\Dave\Generated/CMSIS_DSP\arm_math.h ****    * @brief 8-bit fractional data type in 1.7 format.
 379:C:\Users\Depes Crystalline\Desktop\school\Active_Bike_Lighting_System\Radar_Core\Dave\Generated/CMSIS_DSP\arm_math.h ****    */
 380:C:\Users\Depes Crystalline\Desktop\school\Active_Bike_Lighting_System\Radar_Core\Dave\Generated/CMSIS_DSP\arm_math.h ****   typedef int8_t q7_t;
 381:C:\Users\Depes Crystalline\Desktop\school\Active_Bike_Lighting_System\Radar_Core\Dave\Generated/CMSIS_DSP\arm_math.h **** 
 382:C:\Users\Depes Crystalline\Desktop\school\Active_Bike_Lighting_System\Radar_Core\Dave\Generated/CMSIS_DSP\arm_math.h ****   /**
 383:C:\Users\Depes Crystalline\Desktop\school\Active_Bike_Lighting_System\Radar_Core\Dave\Generated/CMSIS_DSP\arm_math.h ****    * @brief 16-bit fractional data type in 1.15 format.
 384:C:\Users\Depes Crystalline\Desktop\school\Active_Bike_Lighting_System\Radar_Core\Dave\Generated/CMSIS_DSP\arm_math.h ****    */
 385:C:\Users\Depes Crystalline\Desktop\school\Active_Bike_Lighting_System\Radar_Core\Dave\Generated/CMSIS_DSP\arm_math.h ****   typedef int16_t q15_t;
 386:C:\Users\Depes Crystalline\Desktop\school\Active_Bike_Lighting_System\Radar_Core\Dave\Generated/CMSIS_DSP\arm_math.h **** 
 387:C:\Users\Depes Crystalline\Desktop\school\Active_Bike_Lighting_System\Radar_Core\Dave\Generated/CMSIS_DSP\arm_math.h ****   /**
 388:C:\Users\Depes Crystalline\Desktop\school\Active_Bike_Lighting_System\Radar_Core\Dave\Generated/CMSIS_DSP\arm_math.h ****    * @brief 32-bit fractional data type in 1.31 format.
 389:C:\Users\Depes Crystalline\Desktop\school\Active_Bike_Lighting_System\Radar_Core\Dave\Generated/CMSIS_DSP\arm_math.h ****    */
 390:C:\Users\Depes Crystalline\Desktop\school\Active_Bike_Lighting_System\Radar_Core\Dave\Generated/CMSIS_DSP\arm_math.h ****   typedef int32_t q31_t;
 391:C:\Users\Depes Crystalline\Desktop\school\Active_Bike_Lighting_System\Radar_Core\Dave\Generated/CMSIS_DSP\arm_math.h **** 
 392:C:\Users\Depes Crystalline\Desktop\school\Active_Bike_Lighting_System\Radar_Core\Dave\Generated/CMSIS_DSP\arm_math.h ****   /**
 393:C:\Users\Depes Crystalline\Desktop\school\Active_Bike_Lighting_System\Radar_Core\Dave\Generated/CMSIS_DSP\arm_math.h ****    * @brief 64-bit fractional data type in 1.63 format.
 394:C:\Users\Depes Crystalline\Desktop\school\Active_Bike_Lighting_System\Radar_Core\Dave\Generated/CMSIS_DSP\arm_math.h ****    */
 395:C:\Users\Depes Crystalline\Desktop\school\Active_Bike_Lighting_System\Radar_Core\Dave\Generated/CMSIS_DSP\arm_math.h ****   typedef int64_t q63_t;
 396:C:\Users\Depes Crystalline\Desktop\school\Active_Bike_Lighting_System\Radar_Core\Dave\Generated/CMSIS_DSP\arm_math.h **** 
 397:C:\Users\Depes Crystalline\Desktop\school\Active_Bike_Lighting_System\Radar_Core\Dave\Generated/CMSIS_DSP\arm_math.h ****   /**
 398:C:\Users\Depes Crystalline\Desktop\school\Active_Bike_Lighting_System\Radar_Core\Dave\Generated/CMSIS_DSP\arm_math.h ****    * @brief 32-bit floating-point type definition.
 399:C:\Users\Depes Crystalline\Desktop\school\Active_Bike_Lighting_System\Radar_Core\Dave\Generated/CMSIS_DSP\arm_math.h ****    */
 400:C:\Users\Depes Crystalline\Desktop\school\Active_Bike_Lighting_System\Radar_Core\Dave\Generated/CMSIS_DSP\arm_math.h ****   typedef float float32_t;
 401:C:\Users\Depes Crystalline\Desktop\school\Active_Bike_Lighting_System\Radar_Core\Dave\Generated/CMSIS_DSP\arm_math.h **** 
 402:C:\Users\Depes Crystalline\Desktop\school\Active_Bike_Lighting_System\Radar_Core\Dave\Generated/CMSIS_DSP\arm_math.h ****   /**
 403:C:\Users\Depes Crystalline\Desktop\school\Active_Bike_Lighting_System\Radar_Core\Dave\Generated/CMSIS_DSP\arm_math.h ****    * @brief 64-bit floating-point type definition.
 404:C:\Users\Depes Crystalline\Desktop\school\Active_Bike_Lighting_System\Radar_Core\Dave\Generated/CMSIS_DSP\arm_math.h ****    */
 405:C:\Users\Depes Crystalline\Desktop\school\Active_Bike_Lighting_System\Radar_Core\Dave\Generated/CMSIS_DSP\arm_math.h ****   typedef double float64_t;
 406:C:\Users\Depes Crystalline\Desktop\school\Active_Bike_Lighting_System\Radar_Core\Dave\Generated/CMSIS_DSP\arm_math.h **** 
 407:C:\Users\Depes Crystalline\Desktop\school\Active_Bike_Lighting_System\Radar_Core\Dave\Generated/CMSIS_DSP\arm_math.h ****   /**
 408:C:\Users\Depes Crystalline\Desktop\school\Active_Bike_Lighting_System\Radar_Core\Dave\Generated/CMSIS_DSP\arm_math.h ****    * @brief definition to read/write two 16 bit values.
 409:C:\Users\Depes Crystalline\Desktop\school\Active_Bike_Lighting_System\Radar_Core\Dave\Generated/CMSIS_DSP\arm_math.h ****    */
 410:C:\Users\Depes Crystalline\Desktop\school\Active_Bike_Lighting_System\Radar_Core\Dave\Generated/CMSIS_DSP\arm_math.h **** #if defined __CC_ARM
 411:C:\Users\Depes Crystalline\Desktop\school\Active_Bike_Lighting_System\Radar_Core\Dave\Generated/CMSIS_DSP\arm_math.h **** #define __SIMD32_TYPE int32_t __packed
 412:C:\Users\Depes Crystalline\Desktop\school\Active_Bike_Lighting_System\Radar_Core\Dave\Generated/CMSIS_DSP\arm_math.h **** #define CMSIS_UNUSED __attribute__((unused))
 413:C:\Users\Depes Crystalline\Desktop\school\Active_Bike_Lighting_System\Radar_Core\Dave\Generated/CMSIS_DSP\arm_math.h **** #elif defined __ICCARM__
 414:C:\Users\Depes Crystalline\Desktop\school\Active_Bike_Lighting_System\Radar_Core\Dave\Generated/CMSIS_DSP\arm_math.h **** #define CMSIS_UNUSED
 415:C:\Users\Depes Crystalline\Desktop\school\Active_Bike_Lighting_System\Radar_Core\Dave\Generated/CMSIS_DSP\arm_math.h **** #define __SIMD32_TYPE int32_t __packed
 416:C:\Users\Depes Crystalline\Desktop\school\Active_Bike_Lighting_System\Radar_Core\Dave\Generated/CMSIS_DSP\arm_math.h **** #elif defined __GNUC__
 417:C:\Users\Depes Crystalline\Desktop\school\Active_Bike_Lighting_System\Radar_Core\Dave\Generated/CMSIS_DSP\arm_math.h **** #define __SIMD32_TYPE int32_t
 418:C:\Users\Depes Crystalline\Desktop\school\Active_Bike_Lighting_System\Radar_Core\Dave\Generated/CMSIS_DSP\arm_math.h **** #define CMSIS_UNUSED __attribute__((unused))
 419:C:\Users\Depes Crystalline\Desktop\school\Active_Bike_Lighting_System\Radar_Core\Dave\Generated/CMSIS_DSP\arm_math.h **** #elif defined __CSMC__			/* Cosmic */
 420:C:\Users\Depes Crystalline\Desktop\school\Active_Bike_Lighting_System\Radar_Core\Dave\Generated/CMSIS_DSP\arm_math.h **** #define CMSIS_UNUSED
 421:C:\Users\Depes Crystalline\Desktop\school\Active_Bike_Lighting_System\Radar_Core\Dave\Generated/CMSIS_DSP\arm_math.h **** #define __SIMD32_TYPE int32_t
 422:C:\Users\Depes Crystalline\Desktop\school\Active_Bike_Lighting_System\Radar_Core\Dave\Generated/CMSIS_DSP\arm_math.h **** #else
 423:C:\Users\Depes Crystalline\Desktop\school\Active_Bike_Lighting_System\Radar_Core\Dave\Generated/CMSIS_DSP\arm_math.h **** #error Unknown compiler
 424:C:\Users\Depes Crystalline\Desktop\school\Active_Bike_Lighting_System\Radar_Core\Dave\Generated/CMSIS_DSP\arm_math.h **** #endif
 425:C:\Users\Depes Crystalline\Desktop\school\Active_Bike_Lighting_System\Radar_Core\Dave\Generated/CMSIS_DSP\arm_math.h **** 
 426:C:\Users\Depes Crystalline\Desktop\school\Active_Bike_Lighting_System\Radar_Core\Dave\Generated/CMSIS_DSP\arm_math.h **** #define __SIMD32(addr)  (*(__SIMD32_TYPE **) & (addr))
 427:C:\Users\Depes Crystalline\Desktop\school\Active_Bike_Lighting_System\Radar_Core\Dave\Generated/CMSIS_DSP\arm_math.h **** #define __SIMD32_CONST(addr)  ((__SIMD32_TYPE *)(addr))
 428:C:\Users\Depes Crystalline\Desktop\school\Active_Bike_Lighting_System\Radar_Core\Dave\Generated/CMSIS_DSP\arm_math.h **** 
 429:C:\Users\Depes Crystalline\Desktop\school\Active_Bike_Lighting_System\Radar_Core\Dave\Generated/CMSIS_DSP\arm_math.h **** #define _SIMD32_OFFSET(addr)  (*(__SIMD32_TYPE *)  (addr))
 430:C:\Users\Depes Crystalline\Desktop\school\Active_Bike_Lighting_System\Radar_Core\Dave\Generated/CMSIS_DSP\arm_math.h **** 
 431:C:\Users\Depes Crystalline\Desktop\school\Active_Bike_Lighting_System\Radar_Core\Dave\Generated/CMSIS_DSP\arm_math.h **** #define __SIMD64(addr)  (*(int64_t **) & (addr))
 432:C:\Users\Depes Crystalline\Desktop\school\Active_Bike_Lighting_System\Radar_Core\Dave\Generated/CMSIS_DSP\arm_math.h **** 
 433:C:\Users\Depes Crystalline\Desktop\school\Active_Bike_Lighting_System\Radar_Core\Dave\Generated/CMSIS_DSP\arm_math.h **** #if defined (ARM_MATH_CM3) || defined (ARM_MATH_CM0_FAMILY)
 434:C:\Users\Depes Crystalline\Desktop\school\Active_Bike_Lighting_System\Radar_Core\Dave\Generated/CMSIS_DSP\arm_math.h ****   /**
 435:C:\Users\Depes Crystalline\Desktop\school\Active_Bike_Lighting_System\Radar_Core\Dave\Generated/CMSIS_DSP\arm_math.h ****    * @brief definition to pack two 16 bit values.
 436:C:\Users\Depes Crystalline\Desktop\school\Active_Bike_Lighting_System\Radar_Core\Dave\Generated/CMSIS_DSP\arm_math.h ****    */
 437:C:\Users\Depes Crystalline\Desktop\school\Active_Bike_Lighting_System\Radar_Core\Dave\Generated/CMSIS_DSP\arm_math.h **** #define __PKHBT(ARG1, ARG2, ARG3)      ( (((int32_t)(ARG1) <<  0) & (int32_t)0x0000FFFF) | \
 438:C:\Users\Depes Crystalline\Desktop\school\Active_Bike_Lighting_System\Radar_Core\Dave\Generated/CMSIS_DSP\arm_math.h ****                                          (((int32_t)(ARG2) << ARG3) & (int32_t)0xFFFF0000)  )
 439:C:\Users\Depes Crystalline\Desktop\school\Active_Bike_Lighting_System\Radar_Core\Dave\Generated/CMSIS_DSP\arm_math.h **** #define __PKHTB(ARG1, ARG2, ARG3)      ( (((int32_t)(ARG1) <<  0) & (int32_t)0xFFFF0000) | \
 440:C:\Users\Depes Crystalline\Desktop\school\Active_Bike_Lighting_System\Radar_Core\Dave\Generated/CMSIS_DSP\arm_math.h ****                                          (((int32_t)(ARG2) >> ARG3) & (int32_t)0x0000FFFF)  )
 441:C:\Users\Depes Crystalline\Desktop\school\Active_Bike_Lighting_System\Radar_Core\Dave\Generated/CMSIS_DSP\arm_math.h **** 
 442:C:\Users\Depes Crystalline\Desktop\school\Active_Bike_Lighting_System\Radar_Core\Dave\Generated/CMSIS_DSP\arm_math.h **** #endif
 443:C:\Users\Depes Crystalline\Desktop\school\Active_Bike_Lighting_System\Radar_Core\Dave\Generated/CMSIS_DSP\arm_math.h **** 
 444:C:\Users\Depes Crystalline\Desktop\school\Active_Bike_Lighting_System\Radar_Core\Dave\Generated/CMSIS_DSP\arm_math.h **** 
 445:C:\Users\Depes Crystalline\Desktop\school\Active_Bike_Lighting_System\Radar_Core\Dave\Generated/CMSIS_DSP\arm_math.h ****    /**
 446:C:\Users\Depes Crystalline\Desktop\school\Active_Bike_Lighting_System\Radar_Core\Dave\Generated/CMSIS_DSP\arm_math.h ****    * @brief definition to pack four 8 bit values.
 447:C:\Users\Depes Crystalline\Desktop\school\Active_Bike_Lighting_System\Radar_Core\Dave\Generated/CMSIS_DSP\arm_math.h ****    */
 448:C:\Users\Depes Crystalline\Desktop\school\Active_Bike_Lighting_System\Radar_Core\Dave\Generated/CMSIS_DSP\arm_math.h **** #ifndef ARM_MATH_BIG_ENDIAN
 449:C:\Users\Depes Crystalline\Desktop\school\Active_Bike_Lighting_System\Radar_Core\Dave\Generated/CMSIS_DSP\arm_math.h **** 
 450:C:\Users\Depes Crystalline\Desktop\school\Active_Bike_Lighting_System\Radar_Core\Dave\Generated/CMSIS_DSP\arm_math.h **** #define __PACKq7(v0,v1,v2,v3) ( (((int32_t)(v0) <<  0) & (int32_t)0x000000FF) |	\
 451:C:\Users\Depes Crystalline\Desktop\school\Active_Bike_Lighting_System\Radar_Core\Dave\Generated/CMSIS_DSP\arm_math.h ****                                 (((int32_t)(v1) <<  8) & (int32_t)0x0000FF00) |	\
 452:C:\Users\Depes Crystalline\Desktop\school\Active_Bike_Lighting_System\Radar_Core\Dave\Generated/CMSIS_DSP\arm_math.h **** 							    (((int32_t)(v2) << 16) & (int32_t)0x00FF0000) |	\
 453:C:\Users\Depes Crystalline\Desktop\school\Active_Bike_Lighting_System\Radar_Core\Dave\Generated/CMSIS_DSP\arm_math.h **** 							    (((int32_t)(v3) << 24) & (int32_t)0xFF000000)  )
 454:C:\Users\Depes Crystalline\Desktop\school\Active_Bike_Lighting_System\Radar_Core\Dave\Generated/CMSIS_DSP\arm_math.h **** #else
 455:C:\Users\Depes Crystalline\Desktop\school\Active_Bike_Lighting_System\Radar_Core\Dave\Generated/CMSIS_DSP\arm_math.h **** 
 456:C:\Users\Depes Crystalline\Desktop\school\Active_Bike_Lighting_System\Radar_Core\Dave\Generated/CMSIS_DSP\arm_math.h **** #define __PACKq7(v0,v1,v2,v3) ( (((int32_t)(v3) <<  0) & (int32_t)0x000000FF) |	\
 457:C:\Users\Depes Crystalline\Desktop\school\Active_Bike_Lighting_System\Radar_Core\Dave\Generated/CMSIS_DSP\arm_math.h ****                                 (((int32_t)(v2) <<  8) & (int32_t)0x0000FF00) |	\
 458:C:\Users\Depes Crystalline\Desktop\school\Active_Bike_Lighting_System\Radar_Core\Dave\Generated/CMSIS_DSP\arm_math.h **** 							    (((int32_t)(v1) << 16) & (int32_t)0x00FF0000) |	\
 459:C:\Users\Depes Crystalline\Desktop\school\Active_Bike_Lighting_System\Radar_Core\Dave\Generated/CMSIS_DSP\arm_math.h **** 							    (((int32_t)(v0) << 24) & (int32_t)0xFF000000)  )
 460:C:\Users\Depes Crystalline\Desktop\school\Active_Bike_Lighting_System\Radar_Core\Dave\Generated/CMSIS_DSP\arm_math.h **** 
 461:C:\Users\Depes Crystalline\Desktop\school\Active_Bike_Lighting_System\Radar_Core\Dave\Generated/CMSIS_DSP\arm_math.h **** #endif
 462:C:\Users\Depes Crystalline\Desktop\school\Active_Bike_Lighting_System\Radar_Core\Dave\Generated/CMSIS_DSP\arm_math.h **** 
 463:C:\Users\Depes Crystalline\Desktop\school\Active_Bike_Lighting_System\Radar_Core\Dave\Generated/CMSIS_DSP\arm_math.h **** 
 464:C:\Users\Depes Crystalline\Desktop\school\Active_Bike_Lighting_System\Radar_Core\Dave\Generated/CMSIS_DSP\arm_math.h ****   /**
 465:C:\Users\Depes Crystalline\Desktop\school\Active_Bike_Lighting_System\Radar_Core\Dave\Generated/CMSIS_DSP\arm_math.h ****    * @brief Clips Q63 to Q31 values.
 466:C:\Users\Depes Crystalline\Desktop\school\Active_Bike_Lighting_System\Radar_Core\Dave\Generated/CMSIS_DSP\arm_math.h ****    */
 467:C:\Users\Depes Crystalline\Desktop\school\Active_Bike_Lighting_System\Radar_Core\Dave\Generated/CMSIS_DSP\arm_math.h ****   static __INLINE q31_t clip_q63_to_q31(
 468:C:\Users\Depes Crystalline\Desktop\school\Active_Bike_Lighting_System\Radar_Core\Dave\Generated/CMSIS_DSP\arm_math.h ****   q63_t x)
 469:C:\Users\Depes Crystalline\Desktop\school\Active_Bike_Lighting_System\Radar_Core\Dave\Generated/CMSIS_DSP\arm_math.h ****   {
  26              	 .loc 1 469 0
  27              	 .cfi_startproc
  28              	 
  29              	 
  30              	 
  31 0000 2DE9B003 	 push {r4,r5,r7,r8,r9}
  32              	.LCFI0:
  33              	 .cfi_def_cfa_offset 20
  34              	 .cfi_offset 4,-20
  35              	 .cfi_offset 5,-16
  36              	 .cfi_offset 7,-12
  37              	 .cfi_offset 8,-8
  38              	 .cfi_offset 9,-4
  39 0004 83B0     	 sub sp,sp,#12
  40              	.LCFI1:
  41              	 .cfi_def_cfa_offset 32
  42 0006 00AF     	 add r7,sp,#0
  43              	.LCFI2:
  44              	 .cfi_def_cfa_register 7
  45 0008 C7E90001 	 strd r0,[r7]
 470:C:\Users\Depes Crystalline\Desktop\school\Active_Bike_Lighting_System\Radar_Core\Dave\Generated/CMSIS_DSP\arm_math.h ****     return ((q31_t) (x >> 32) != ((q31_t) x >> 31)) ?
  46              	 .loc 1 470 0
  47 000c D7E90023 	 ldrd r2,[r7]
  48 0010 9846     	 mov r8,r3
  49 0012 4FEAE379 	 asr r9,r3,#31
  50 0016 4246     	 mov r2,r8
  51 0018 3B68     	 ldr r3,[r7]
  52 001a DB17     	 asrs r3,r3,#31
 471:C:\Users\Depes Crystalline\Desktop\school\Active_Bike_Lighting_System\Radar_Core\Dave\Generated/CMSIS_DSP\arm_math.h ****       ((0x7FFFFFFF ^ ((q31_t) (x >> 63)))) : (q31_t) x;
  53              	 .loc 1 471 0
  54 001c 9A42     	 cmp r2,r3
  55 001e 08D0     	 beq .L2
  56              	 .loc 1 471 0 is_stmt 0 discriminator 1
  57 0020 D7E90023 	 ldrd r2,[r7]
  58 0024 DC17     	 asrs r4,r3,#31
  59 0026 DD17     	 asrs r5,r3,#31
  60 0028 2346     	 mov r3,r4
  61 002a 83F00043 	 eor r3,r3,#-2147483648
  62 002e DB43     	 mvns r3,r3
  63 0030 00E0     	 b .L3
  64              	.L2:
  65              	 .loc 1 471 0 discriminator 2
  66 0032 3B68     	 ldr r3,[r7]
  67              	.L3:
 472:C:\Users\Depes Crystalline\Desktop\school\Active_Bike_Lighting_System\Radar_Core\Dave\Generated/CMSIS_DSP\arm_math.h ****   }
  68              	 .loc 1 472 0 is_stmt 1
  69 0034 1846     	 mov r0,r3
  70 0036 0C37     	 adds r7,r7,#12
  71              	.LCFI3:
  72              	 .cfi_def_cfa_offset 20
  73 0038 BD46     	 mov sp,r7
  74              	.LCFI4:
  75              	 .cfi_def_cfa_register 13
  76              	 
  77 003a BDE8B003 	 pop {r4,r5,r7,r8,r9}
  78              	.LCFI5:
  79              	 .cfi_restore 9
  80              	 .cfi_restore 8
  81              	 .cfi_restore 7
  82              	 .cfi_restore 5
  83              	 .cfi_restore 4
  84              	 .cfi_def_cfa_offset 0
  85 003e 7047     	 bx lr
  86              	 .cfi_endproc
  87              	.LFE106:
  89              	 .global __aeabi_ldivmod
  90              	 .section .text.arm_rms_q31,"ax",%progbits
  91              	 .align 2
  92              	 .global arm_rms_q31
  93              	 .thumb
  94              	 .thumb_func
  96              	arm_rms_q31:
  97              	.LFB139:
  98              	 .file 2 "../Dave/Generated/CMSIS_DSP/StatisticsFunctions/arm_rms_q31.c"
   1:../Dave/Generated/CMSIS_DSP/StatisticsFunctions/arm_rms_q31.c **** /* ----------------------------------------------------------------------    
   2:../Dave/Generated/CMSIS_DSP/StatisticsFunctions/arm_rms_q31.c **** * Copyright (C) 2010-2014 ARM Limited. All rights reserved.    
   3:../Dave/Generated/CMSIS_DSP/StatisticsFunctions/arm_rms_q31.c **** *    
   4:../Dave/Generated/CMSIS_DSP/StatisticsFunctions/arm_rms_q31.c **** * $Date:        12. March 2014
   5:../Dave/Generated/CMSIS_DSP/StatisticsFunctions/arm_rms_q31.c **** * $Revision: 	V1.4.4  
   6:../Dave/Generated/CMSIS_DSP/StatisticsFunctions/arm_rms_q31.c **** *    
   7:../Dave/Generated/CMSIS_DSP/StatisticsFunctions/arm_rms_q31.c **** * Project: 	    CMSIS DSP Library    
   8:../Dave/Generated/CMSIS_DSP/StatisticsFunctions/arm_rms_q31.c **** * Title:		arm_rms_q31.c    
   9:../Dave/Generated/CMSIS_DSP/StatisticsFunctions/arm_rms_q31.c **** *    
  10:../Dave/Generated/CMSIS_DSP/StatisticsFunctions/arm_rms_q31.c **** * Description:	Root Mean Square of the elements of a Q31 vector.    
  11:../Dave/Generated/CMSIS_DSP/StatisticsFunctions/arm_rms_q31.c **** *    
  12:../Dave/Generated/CMSIS_DSP/StatisticsFunctions/arm_rms_q31.c **** * Target Processor: Cortex-M4/Cortex-M3/Cortex-M0
  13:../Dave/Generated/CMSIS_DSP/StatisticsFunctions/arm_rms_q31.c **** *  
  14:../Dave/Generated/CMSIS_DSP/StatisticsFunctions/arm_rms_q31.c **** * Redistribution and use in source and binary forms, with or without 
  15:../Dave/Generated/CMSIS_DSP/StatisticsFunctions/arm_rms_q31.c **** * modification, are permitted provided that the following conditions
  16:../Dave/Generated/CMSIS_DSP/StatisticsFunctions/arm_rms_q31.c **** * are met:
  17:../Dave/Generated/CMSIS_DSP/StatisticsFunctions/arm_rms_q31.c **** *   - Redistributions of source code must retain the above copyright
  18:../Dave/Generated/CMSIS_DSP/StatisticsFunctions/arm_rms_q31.c **** *     notice, this list of conditions and the following disclaimer.
  19:../Dave/Generated/CMSIS_DSP/StatisticsFunctions/arm_rms_q31.c **** *   - Redistributions in binary form must reproduce the above copyright
  20:../Dave/Generated/CMSIS_DSP/StatisticsFunctions/arm_rms_q31.c **** *     notice, this list of conditions and the following disclaimer in
  21:../Dave/Generated/CMSIS_DSP/StatisticsFunctions/arm_rms_q31.c **** *     the documentation and/or other materials provided with the 
  22:../Dave/Generated/CMSIS_DSP/StatisticsFunctions/arm_rms_q31.c **** *     distribution.
  23:../Dave/Generated/CMSIS_DSP/StatisticsFunctions/arm_rms_q31.c **** *   - Neither the name of ARM LIMITED nor the names of its contributors
  24:../Dave/Generated/CMSIS_DSP/StatisticsFunctions/arm_rms_q31.c **** *     may be used to endorse or promote products derived from this
  25:../Dave/Generated/CMSIS_DSP/StatisticsFunctions/arm_rms_q31.c **** *     software without specific prior written permission.
  26:../Dave/Generated/CMSIS_DSP/StatisticsFunctions/arm_rms_q31.c **** *
  27:../Dave/Generated/CMSIS_DSP/StatisticsFunctions/arm_rms_q31.c **** * THIS SOFTWARE IS PROVIDED BY THE COPYRIGHT HOLDERS AND CONTRIBUTORS
  28:../Dave/Generated/CMSIS_DSP/StatisticsFunctions/arm_rms_q31.c **** * "AS IS" AND ANY EXPRESS OR IMPLIED WARRANTIES, INCLUDING, BUT NOT
  29:../Dave/Generated/CMSIS_DSP/StatisticsFunctions/arm_rms_q31.c **** * LIMITED TO, THE IMPLIED WARRANTIES OF MERCHANTABILITY AND FITNESS
  30:../Dave/Generated/CMSIS_DSP/StatisticsFunctions/arm_rms_q31.c **** * FOR A PARTICULAR PURPOSE ARE DISCLAIMED. IN NO EVENT SHALL THE 
  31:../Dave/Generated/CMSIS_DSP/StatisticsFunctions/arm_rms_q31.c **** * COPYRIGHT OWNER OR CONTRIBUTORS BE LIABLE FOR ANY DIRECT, INDIRECT,
  32:../Dave/Generated/CMSIS_DSP/StatisticsFunctions/arm_rms_q31.c **** * INCIDENTAL, SPECIAL, EXEMPLARY, OR CONSEQUENTIAL DAMAGES (INCLUDING,
  33:../Dave/Generated/CMSIS_DSP/StatisticsFunctions/arm_rms_q31.c **** * BUT NOT LIMITED TO, PROCUREMENT OF SUBSTITUTE GOODS OR SERVICES;
  34:../Dave/Generated/CMSIS_DSP/StatisticsFunctions/arm_rms_q31.c **** * LOSS OF USE, DATA, OR PROFITS; OR BUSINESS INTERRUPTION) HOWEVER
  35:../Dave/Generated/CMSIS_DSP/StatisticsFunctions/arm_rms_q31.c **** * CAUSED AND ON ANY THEORY OF LIABILITY, WHETHER IN CONTRACT, STRICT
  36:../Dave/Generated/CMSIS_DSP/StatisticsFunctions/arm_rms_q31.c **** * LIABILITY, OR TORT (INCLUDING NEGLIGENCE OR OTHERWISE) ARISING IN
  37:../Dave/Generated/CMSIS_DSP/StatisticsFunctions/arm_rms_q31.c **** * ANY WAY OUT OF THE USE OF THIS SOFTWARE, EVEN IF ADVISED OF THE
  38:../Dave/Generated/CMSIS_DSP/StatisticsFunctions/arm_rms_q31.c **** * POSSIBILITY OF SUCH DAMAGE.    
  39:../Dave/Generated/CMSIS_DSP/StatisticsFunctions/arm_rms_q31.c **** * ---------------------------------------------------------------------------- */
  40:../Dave/Generated/CMSIS_DSP/StatisticsFunctions/arm_rms_q31.c **** 
  41:../Dave/Generated/CMSIS_DSP/StatisticsFunctions/arm_rms_q31.c **** #include "CMSIS_DSP/cmsis_dsp.h"
  42:../Dave/Generated/CMSIS_DSP/StatisticsFunctions/arm_rms_q31.c **** 
  43:../Dave/Generated/CMSIS_DSP/StatisticsFunctions/arm_rms_q31.c **** /**        
  44:../Dave/Generated/CMSIS_DSP/StatisticsFunctions/arm_rms_q31.c ****  * @addtogroup RMS        
  45:../Dave/Generated/CMSIS_DSP/StatisticsFunctions/arm_rms_q31.c ****  * @{        
  46:../Dave/Generated/CMSIS_DSP/StatisticsFunctions/arm_rms_q31.c ****  */
  47:../Dave/Generated/CMSIS_DSP/StatisticsFunctions/arm_rms_q31.c **** 
  48:../Dave/Generated/CMSIS_DSP/StatisticsFunctions/arm_rms_q31.c **** 
  49:../Dave/Generated/CMSIS_DSP/StatisticsFunctions/arm_rms_q31.c **** /**        
  50:../Dave/Generated/CMSIS_DSP/StatisticsFunctions/arm_rms_q31.c ****  * @brief Root Mean Square of the elements of a Q31 vector.        
  51:../Dave/Generated/CMSIS_DSP/StatisticsFunctions/arm_rms_q31.c ****  * @param[in]       *pSrc points to the input vector        
  52:../Dave/Generated/CMSIS_DSP/StatisticsFunctions/arm_rms_q31.c ****  * @param[in]       blockSize length of the input vector        
  53:../Dave/Generated/CMSIS_DSP/StatisticsFunctions/arm_rms_q31.c ****  * @param[out]      *pResult rms value returned here        
  54:../Dave/Generated/CMSIS_DSP/StatisticsFunctions/arm_rms_q31.c ****  * @return none.        
  55:../Dave/Generated/CMSIS_DSP/StatisticsFunctions/arm_rms_q31.c ****  *        
  56:../Dave/Generated/CMSIS_DSP/StatisticsFunctions/arm_rms_q31.c ****  * @details        
  57:../Dave/Generated/CMSIS_DSP/StatisticsFunctions/arm_rms_q31.c ****  * <b>Scaling and Overflow Behavior:</b>        
  58:../Dave/Generated/CMSIS_DSP/StatisticsFunctions/arm_rms_q31.c ****  *        
  59:../Dave/Generated/CMSIS_DSP/StatisticsFunctions/arm_rms_q31.c ****  *\par        
  60:../Dave/Generated/CMSIS_DSP/StatisticsFunctions/arm_rms_q31.c ****  * The function is implemented using an internal 64-bit accumulator.        
  61:../Dave/Generated/CMSIS_DSP/StatisticsFunctions/arm_rms_q31.c ****  * The input is represented in 1.31 format, and intermediate multiplication        
  62:../Dave/Generated/CMSIS_DSP/StatisticsFunctions/arm_rms_q31.c ****  * yields a 2.62 format.        
  63:../Dave/Generated/CMSIS_DSP/StatisticsFunctions/arm_rms_q31.c ****  * The accumulator maintains full precision of the intermediate multiplication results,         
  64:../Dave/Generated/CMSIS_DSP/StatisticsFunctions/arm_rms_q31.c ****  * but provides only a single guard bit.        
  65:../Dave/Generated/CMSIS_DSP/StatisticsFunctions/arm_rms_q31.c ****  * There is no saturation on intermediate additions.        
  66:../Dave/Generated/CMSIS_DSP/StatisticsFunctions/arm_rms_q31.c ****  * If the accumulator overflows, it wraps around and distorts the result.         
  67:../Dave/Generated/CMSIS_DSP/StatisticsFunctions/arm_rms_q31.c ****  * In order to avoid overflows completely, the input signal must be scaled down by         
  68:../Dave/Generated/CMSIS_DSP/StatisticsFunctions/arm_rms_q31.c ****  * log2(blockSize) bits, as a total of blockSize additions are performed internally.         
  69:../Dave/Generated/CMSIS_DSP/StatisticsFunctions/arm_rms_q31.c ****  * Finally, the 2.62 accumulator is right shifted by 31 bits to yield a 1.31 format value.        
  70:../Dave/Generated/CMSIS_DSP/StatisticsFunctions/arm_rms_q31.c ****  *        
  71:../Dave/Generated/CMSIS_DSP/StatisticsFunctions/arm_rms_q31.c ****  */
  72:../Dave/Generated/CMSIS_DSP/StatisticsFunctions/arm_rms_q31.c **** 
  73:../Dave/Generated/CMSIS_DSP/StatisticsFunctions/arm_rms_q31.c **** void arm_rms_q31(
  74:../Dave/Generated/CMSIS_DSP/StatisticsFunctions/arm_rms_q31.c ****   q31_t * pSrc,
  75:../Dave/Generated/CMSIS_DSP/StatisticsFunctions/arm_rms_q31.c ****   uint32_t blockSize,
  76:../Dave/Generated/CMSIS_DSP/StatisticsFunctions/arm_rms_q31.c ****   q31_t * pResult)
  77:../Dave/Generated/CMSIS_DSP/StatisticsFunctions/arm_rms_q31.c **** {
  99              	 .loc 2 77 0
 100              	 .cfi_startproc
 101              	 
 102              	 
 103 0000 F0B5     	 push {r4,r5,r6,r7,lr}
 104              	.LCFI6:
 105              	 .cfi_def_cfa_offset 20
 106              	 .cfi_offset 4,-20
 107              	 .cfi_offset 5,-16
 108              	 .cfi_offset 6,-12
 109              	 .cfi_offset 7,-8
 110              	 .cfi_offset 14,-4
 111 0002 8DB0     	 sub sp,sp,#52
 112              	.LCFI7:
 113              	 .cfi_def_cfa_offset 72
 114 0004 00AF     	 add r7,sp,#0
 115              	.LCFI8:
 116              	 .cfi_def_cfa_register 7
 117 0006 F860     	 str r0,[r7,#12]
 118 0008 B960     	 str r1,[r7,#8]
 119 000a 7A60     	 str r2,[r7,#4]
  78:../Dave/Generated/CMSIS_DSP/StatisticsFunctions/arm_rms_q31.c ****   q63_t sum = 0;                                 /* accumulator */
 120              	 .loc 2 78 0
 121 000c 4FF00002 	 mov r2,#0
 122 0010 4FF00003 	 mov r3,#0
 123 0014 C7E90A23 	 strd r2,[r7,#40]
  79:../Dave/Generated/CMSIS_DSP/StatisticsFunctions/arm_rms_q31.c ****   q31_t in;                                      /* Temporary variable to store the input */
  80:../Dave/Generated/CMSIS_DSP/StatisticsFunctions/arm_rms_q31.c ****   uint32_t blkCnt;                               /* loop counter */
  81:../Dave/Generated/CMSIS_DSP/StatisticsFunctions/arm_rms_q31.c **** 
  82:../Dave/Generated/CMSIS_DSP/StatisticsFunctions/arm_rms_q31.c **** #ifndef ARM_MATH_CM0_FAMILY
  83:../Dave/Generated/CMSIS_DSP/StatisticsFunctions/arm_rms_q31.c **** 
  84:../Dave/Generated/CMSIS_DSP/StatisticsFunctions/arm_rms_q31.c ****   /* Run the below code for Cortex-M4 and Cortex-M3 */
  85:../Dave/Generated/CMSIS_DSP/StatisticsFunctions/arm_rms_q31.c **** 
  86:../Dave/Generated/CMSIS_DSP/StatisticsFunctions/arm_rms_q31.c ****   q31_t in1, in2, in3, in4;                      /* Temporary input variables */
  87:../Dave/Generated/CMSIS_DSP/StatisticsFunctions/arm_rms_q31.c **** 
  88:../Dave/Generated/CMSIS_DSP/StatisticsFunctions/arm_rms_q31.c ****   /*loop Unrolling */
  89:../Dave/Generated/CMSIS_DSP/StatisticsFunctions/arm_rms_q31.c ****   blkCnt = blockSize >> 2u;
 124              	 .loc 2 89 0
 125 0018 BB68     	 ldr r3,[r7,#8]
 126 001a 9B08     	 lsrs r3,r3,#2
 127 001c 7B62     	 str r3,[r7,#36]
  90:../Dave/Generated/CMSIS_DSP/StatisticsFunctions/arm_rms_q31.c **** 
  91:../Dave/Generated/CMSIS_DSP/StatisticsFunctions/arm_rms_q31.c ****   /* First part of the processing with loop unrolling.  Compute 8 outputs at a time.        
  92:../Dave/Generated/CMSIS_DSP/StatisticsFunctions/arm_rms_q31.c ****    ** a second loop below computes the remaining 1 to 7 samples. */
  93:../Dave/Generated/CMSIS_DSP/StatisticsFunctions/arm_rms_q31.c ****   while(blkCnt > 0u)
 128              	 .loc 2 93 0
 129 001e 71E0     	 b .L6
 130              	.L7:
  94:../Dave/Generated/CMSIS_DSP/StatisticsFunctions/arm_rms_q31.c ****   {
  95:../Dave/Generated/CMSIS_DSP/StatisticsFunctions/arm_rms_q31.c ****     /* C = A[0] * A[0] + A[1] * A[1] + A[2] * A[2] + ... + A[blockSize-1] * A[blockSize-1] */
  96:../Dave/Generated/CMSIS_DSP/StatisticsFunctions/arm_rms_q31.c ****     /* Compute sum of the squares and then store the result in a temporary variable, sum */
  97:../Dave/Generated/CMSIS_DSP/StatisticsFunctions/arm_rms_q31.c ****     /* read two samples from source buffer */
  98:../Dave/Generated/CMSIS_DSP/StatisticsFunctions/arm_rms_q31.c ****     in1 = pSrc[0];
 131              	 .loc 2 98 0
 132 0020 FB68     	 ldr r3,[r7,#12]
 133 0022 1B68     	 ldr r3,[r3]
 134 0024 3B62     	 str r3,[r7,#32]
  99:../Dave/Generated/CMSIS_DSP/StatisticsFunctions/arm_rms_q31.c ****     in2 = pSrc[1];
 135              	 .loc 2 99 0
 136 0026 FB68     	 ldr r3,[r7,#12]
 137 0028 5B68     	 ldr r3,[r3,#4]
 138 002a FB61     	 str r3,[r7,#28]
 100:../Dave/Generated/CMSIS_DSP/StatisticsFunctions/arm_rms_q31.c **** 
 101:../Dave/Generated/CMSIS_DSP/StatisticsFunctions/arm_rms_q31.c ****     /* calculate power and accumulate to accumulator */
 102:../Dave/Generated/CMSIS_DSP/StatisticsFunctions/arm_rms_q31.c ****     sum += (q63_t) in1 *in1;
 139              	 .loc 2 102 0
 140 002c 3B6A     	 ldr r3,[r7,#32]
 141 002e 1846     	 mov r0,r3
 142 0030 4FEAE071 	 asr r1,r0,#31
 143 0034 3B6A     	 ldr r3,[r7,#32]
 144 0036 1A46     	 mov r2,r3
 145 0038 4FEAE273 	 asr r3,r2,#31
 146 003c 02FB01FE 	 mul lr,r2,r1
 147 0040 00FB03F6 	 mul r6,r0,r3
 148 0044 7644     	 add r6,r6,lr
 149 0046 A0FB0223 	 umull r2,r3,r0,r2
 150 004a F118     	 adds r1,r6,r3
 151 004c 0B46     	 mov r3,r1
 152 004e D7E90A01 	 ldrd r0,[r7,#40]
 153 0052 1218     	 adds r2,r2,r0
 154 0054 43EB0103 	 adc r3,r3,r1
 155 0058 C7E90A23 	 strd r2,[r7,#40]
 103:../Dave/Generated/CMSIS_DSP/StatisticsFunctions/arm_rms_q31.c ****     sum += (q63_t) in2 *in2;
 156              	 .loc 2 103 0
 157 005c FB69     	 ldr r3,[r7,#28]
 158 005e 1846     	 mov r0,r3
 159 0060 4FEAE071 	 asr r1,r0,#31
 160 0064 FB69     	 ldr r3,[r7,#28]
 161 0066 1A46     	 mov r2,r3
 162 0068 4FEAE273 	 asr r3,r2,#31
 163 006c 02FB01FE 	 mul lr,r2,r1
 164 0070 00FB03F6 	 mul r6,r0,r3
 165 0074 7644     	 add r6,r6,lr
 166 0076 A0FB0223 	 umull r2,r3,r0,r2
 167 007a F118     	 adds r1,r6,r3
 168 007c 0B46     	 mov r3,r1
 169 007e D7E90A01 	 ldrd r0,[r7,#40]
 170 0082 1218     	 adds r2,r2,r0
 171 0084 43EB0103 	 adc r3,r3,r1
 172 0088 C7E90A23 	 strd r2,[r7,#40]
 104:../Dave/Generated/CMSIS_DSP/StatisticsFunctions/arm_rms_q31.c **** 
 105:../Dave/Generated/CMSIS_DSP/StatisticsFunctions/arm_rms_q31.c ****     /* read two samples from source buffer */
 106:../Dave/Generated/CMSIS_DSP/StatisticsFunctions/arm_rms_q31.c ****     in3 = pSrc[2];
 173              	 .loc 2 106 0
 174 008c FB68     	 ldr r3,[r7,#12]
 175 008e 9B68     	 ldr r3,[r3,#8]
 176 0090 BB61     	 str r3,[r7,#24]
 107:../Dave/Generated/CMSIS_DSP/StatisticsFunctions/arm_rms_q31.c ****     in4 = pSrc[3];
 177              	 .loc 2 107 0
 178 0092 FB68     	 ldr r3,[r7,#12]
 179 0094 DB68     	 ldr r3,[r3,#12]
 180 0096 7B61     	 str r3,[r7,#20]
 108:../Dave/Generated/CMSIS_DSP/StatisticsFunctions/arm_rms_q31.c **** 
 109:../Dave/Generated/CMSIS_DSP/StatisticsFunctions/arm_rms_q31.c ****     /* calculate power and accumulate to accumulator */
 110:../Dave/Generated/CMSIS_DSP/StatisticsFunctions/arm_rms_q31.c ****     sum += (q63_t) in3 *in3;
 181              	 .loc 2 110 0
 182 0098 BB69     	 ldr r3,[r7,#24]
 183 009a 1846     	 mov r0,r3
 184 009c 4FEAE071 	 asr r1,r0,#31
 185 00a0 BB69     	 ldr r3,[r7,#24]
 186 00a2 1A46     	 mov r2,r3
 187 00a4 4FEAE273 	 asr r3,r2,#31
 188 00a8 02FB01FE 	 mul lr,r2,r1
 189 00ac 00FB03F6 	 mul r6,r0,r3
 190 00b0 7644     	 add r6,r6,lr
 191 00b2 A0FB0223 	 umull r2,r3,r0,r2
 192 00b6 F118     	 adds r1,r6,r3
 193 00b8 0B46     	 mov r3,r1
 194 00ba D7E90A01 	 ldrd r0,[r7,#40]
 195 00be 1218     	 adds r2,r2,r0
 196 00c0 43EB0103 	 adc r3,r3,r1
 197 00c4 C7E90A23 	 strd r2,[r7,#40]
 111:../Dave/Generated/CMSIS_DSP/StatisticsFunctions/arm_rms_q31.c ****     sum += (q63_t) in4 *in4;
 198              	 .loc 2 111 0
 199 00c8 7B69     	 ldr r3,[r7,#20]
 200 00ca 1846     	 mov r0,r3
 201 00cc 4FEAE071 	 asr r1,r0,#31
 202 00d0 7B69     	 ldr r3,[r7,#20]
 203 00d2 1A46     	 mov r2,r3
 204 00d4 4FEAE273 	 asr r3,r2,#31
 205 00d8 02FB01FE 	 mul lr,r2,r1
 206 00dc 00FB03F6 	 mul r6,r0,r3
 207 00e0 7644     	 add r6,r6,lr
 208 00e2 A0FB0223 	 umull r2,r3,r0,r2
 209 00e6 F118     	 adds r1,r6,r3
 210 00e8 0B46     	 mov r3,r1
 211 00ea D7E90A01 	 ldrd r0,[r7,#40]
 212 00ee 1218     	 adds r2,r2,r0
 213 00f0 43EB0103 	 adc r3,r3,r1
 214 00f4 C7E90A23 	 strd r2,[r7,#40]
 112:../Dave/Generated/CMSIS_DSP/StatisticsFunctions/arm_rms_q31.c **** 
 113:../Dave/Generated/CMSIS_DSP/StatisticsFunctions/arm_rms_q31.c **** 
 114:../Dave/Generated/CMSIS_DSP/StatisticsFunctions/arm_rms_q31.c ****     /* update source buffer to process next samples */
 115:../Dave/Generated/CMSIS_DSP/StatisticsFunctions/arm_rms_q31.c ****     pSrc += 4u;
 215              	 .loc 2 115 0
 216 00f8 FB68     	 ldr r3,[r7,#12]
 217 00fa 1033     	 adds r3,r3,#16
 218 00fc FB60     	 str r3,[r7,#12]
 116:../Dave/Generated/CMSIS_DSP/StatisticsFunctions/arm_rms_q31.c **** 
 117:../Dave/Generated/CMSIS_DSP/StatisticsFunctions/arm_rms_q31.c ****     /* Decrement the loop counter */
 118:../Dave/Generated/CMSIS_DSP/StatisticsFunctions/arm_rms_q31.c ****     blkCnt--;
 219              	 .loc 2 118 0
 220 00fe 7B6A     	 ldr r3,[r7,#36]
 221 0100 013B     	 subs r3,r3,#1
 222 0102 7B62     	 str r3,[r7,#36]
 223              	.L6:
  93:../Dave/Generated/CMSIS_DSP/StatisticsFunctions/arm_rms_q31.c ****   {
 224              	 .loc 2 93 0
 225 0104 7B6A     	 ldr r3,[r7,#36]
 226 0106 002B     	 cmp r3,#0
 227 0108 8AD1     	 bne .L7
 119:../Dave/Generated/CMSIS_DSP/StatisticsFunctions/arm_rms_q31.c ****   }
 120:../Dave/Generated/CMSIS_DSP/StatisticsFunctions/arm_rms_q31.c **** 
 121:../Dave/Generated/CMSIS_DSP/StatisticsFunctions/arm_rms_q31.c ****   /* If the blockSize is not a multiple of 8, compute any remaining output samples here.        
 122:../Dave/Generated/CMSIS_DSP/StatisticsFunctions/arm_rms_q31.c ****    ** No loop unrolling is used. */
 123:../Dave/Generated/CMSIS_DSP/StatisticsFunctions/arm_rms_q31.c ****   blkCnt = blockSize % 0x4u;
 228              	 .loc 2 123 0
 229 010a BB68     	 ldr r3,[r7,#8]
 230 010c 03F00303 	 and r3,r3,#3
 231 0110 7B62     	 str r3,[r7,#36]
 124:../Dave/Generated/CMSIS_DSP/StatisticsFunctions/arm_rms_q31.c **** 
 125:../Dave/Generated/CMSIS_DSP/StatisticsFunctions/arm_rms_q31.c **** #else
 126:../Dave/Generated/CMSIS_DSP/StatisticsFunctions/arm_rms_q31.c **** 
 127:../Dave/Generated/CMSIS_DSP/StatisticsFunctions/arm_rms_q31.c ****   /* Run the below code for Cortex-M0 */
 128:../Dave/Generated/CMSIS_DSP/StatisticsFunctions/arm_rms_q31.c ****   blkCnt = blockSize;
 129:../Dave/Generated/CMSIS_DSP/StatisticsFunctions/arm_rms_q31.c **** 
 130:../Dave/Generated/CMSIS_DSP/StatisticsFunctions/arm_rms_q31.c **** #endif /* #ifndef ARM_MATH_CM0_FAMILY */
 131:../Dave/Generated/CMSIS_DSP/StatisticsFunctions/arm_rms_q31.c **** 
 132:../Dave/Generated/CMSIS_DSP/StatisticsFunctions/arm_rms_q31.c ****   while(blkCnt > 0u)
 232              	 .loc 2 132 0
 233 0112 1FE0     	 b .L8
 234              	.L9:
 133:../Dave/Generated/CMSIS_DSP/StatisticsFunctions/arm_rms_q31.c ****   {
 134:../Dave/Generated/CMSIS_DSP/StatisticsFunctions/arm_rms_q31.c ****     /* C = A[0] * A[0] + A[1] * A[1] + A[2] * A[2] + ... + A[blockSize-1] * A[blockSize-1] */
 135:../Dave/Generated/CMSIS_DSP/StatisticsFunctions/arm_rms_q31.c ****     /* Compute sum of the squares and then store the results in a temporary variable, sum */
 136:../Dave/Generated/CMSIS_DSP/StatisticsFunctions/arm_rms_q31.c ****     in = *pSrc++;
 235              	 .loc 2 136 0
 236 0114 FB68     	 ldr r3,[r7,#12]
 237 0116 1A1D     	 adds r2,r3,#4
 238 0118 FA60     	 str r2,[r7,#12]
 239 011a 1B68     	 ldr r3,[r3]
 240 011c 3B61     	 str r3,[r7,#16]
 137:../Dave/Generated/CMSIS_DSP/StatisticsFunctions/arm_rms_q31.c ****     sum += (q63_t) in *in;
 241              	 .loc 2 137 0
 242 011e 3B69     	 ldr r3,[r7,#16]
 243 0120 1846     	 mov r0,r3
 244 0122 4FEAE071 	 asr r1,r0,#31
 245 0126 3B69     	 ldr r3,[r7,#16]
 246 0128 1A46     	 mov r2,r3
 247 012a 4FEAE273 	 asr r3,r2,#31
 248 012e 02FB01FE 	 mul lr,r2,r1
 249 0132 00FB03F6 	 mul r6,r0,r3
 250 0136 7644     	 add r6,r6,lr
 251 0138 A0FB0223 	 umull r2,r3,r0,r2
 252 013c F118     	 adds r1,r6,r3
 253 013e 0B46     	 mov r3,r1
 254 0140 D7E90A01 	 ldrd r0,[r7,#40]
 255 0144 1218     	 adds r2,r2,r0
 256 0146 43EB0103 	 adc r3,r3,r1
 257 014a C7E90A23 	 strd r2,[r7,#40]
 138:../Dave/Generated/CMSIS_DSP/StatisticsFunctions/arm_rms_q31.c **** 
 139:../Dave/Generated/CMSIS_DSP/StatisticsFunctions/arm_rms_q31.c ****     /* Decrement the loop counter */
 140:../Dave/Generated/CMSIS_DSP/StatisticsFunctions/arm_rms_q31.c ****     blkCnt--;
 258              	 .loc 2 140 0
 259 014e 7B6A     	 ldr r3,[r7,#36]
 260 0150 013B     	 subs r3,r3,#1
 261 0152 7B62     	 str r3,[r7,#36]
 262              	.L8:
 132:../Dave/Generated/CMSIS_DSP/StatisticsFunctions/arm_rms_q31.c ****   {
 263              	 .loc 2 132 0
 264 0154 7B6A     	 ldr r3,[r7,#36]
 265 0156 002B     	 cmp r3,#0
 266 0158 DCD1     	 bne .L9
 141:../Dave/Generated/CMSIS_DSP/StatisticsFunctions/arm_rms_q31.c ****   }
 142:../Dave/Generated/CMSIS_DSP/StatisticsFunctions/arm_rms_q31.c **** 
 143:../Dave/Generated/CMSIS_DSP/StatisticsFunctions/arm_rms_q31.c ****   /* Convert data in 2.62 to 1.31 by 31 right shifts and saturate */
 144:../Dave/Generated/CMSIS_DSP/StatisticsFunctions/arm_rms_q31.c ****   /* Compute Rms and store the result in the destination vector */
 145:../Dave/Generated/CMSIS_DSP/StatisticsFunctions/arm_rms_q31.c ****   arm_sqrt_q31(clip_q63_to_q31((sum / (q63_t) blockSize) >> 31), pResult);
 267              	 .loc 2 145 0
 268 015a BB68     	 ldr r3,[r7,#8]
 269 015c 1A46     	 mov r2,r3
 270 015e 4FF00003 	 mov r3,#0
 271 0162 D7E90A01 	 ldrd r0,[r7,#40]
 272 0166 FFF7FEFF 	 bl __aeabi_ldivmod
 273 016a 0246     	 mov r2,r0
 274 016c 0B46     	 mov r3,r1
 275 016e D40F     	 lsrs r4,r2,#31
 276 0170 44EA4304 	 orr r4,r4,r3,lsl#1
 277 0174 DD17     	 asrs r5,r3,#31
 278 0176 2046     	 mov r0,r4
 279 0178 2946     	 mov r1,r5
 280 017a FFF7FEFF 	 bl clip_q63_to_q31
 281 017e 0346     	 mov r3,r0
 282 0180 1846     	 mov r0,r3
 283 0182 7968     	 ldr r1,[r7,#4]
 284 0184 FFF7FEFF 	 bl arm_sqrt_q31
 146:../Dave/Generated/CMSIS_DSP/StatisticsFunctions/arm_rms_q31.c **** }
 285              	 .loc 2 146 0
 286 0188 3437     	 adds r7,r7,#52
 287              	.LCFI9:
 288              	 .cfi_def_cfa_offset 20
 289 018a BD46     	 mov sp,r7
 290              	.LCFI10:
 291              	 .cfi_def_cfa_register 13
 292              	 
 293 018c F0BD     	 pop {r4,r5,r6,r7,pc}
 294              	 .cfi_endproc
 295              	.LFE139:
 297 018e 00BF     	 .text
 298              	.Letext0:
 299              	 .file 3 "c:\\davev4-64bit\\dave-4.2.6\\eclipse\\arm-gcc-49\\arm-none-eabi\\include\\machine\\_default_types.h"
 300              	 .file 4 "c:\\davev4-64bit\\dave-4.2.6\\eclipse\\arm-gcc-49\\arm-none-eabi\\include\\stdint.h"