   1              	 .syntax unified
   2              	 .cpu cortex-m4
   3              	 .fpu softvfp
   4              	 .eabi_attribute 20,1
   5              	 .eabi_attribute 21,1
   6              	 .eabi_attribute 23,3
   7              	 .eabi_attribute 24,1
   8              	 .eabi_attribute 25,1
   9              	 .eabi_attribute 26,1
  10              	 .eabi_attribute 30,6
  11              	 .eabi_attribute 34,1
  12              	 .eabi_attribute 18,4
  13              	 .thumb
  14              	 .file "arm_mat_scale_f32.c"
  15              	 .text
  16              	.Ltext0:
  17              	 .cfi_sections .debug_frame
  18              	 .global __aeabi_fmul
  19              	 .section .text.arm_mat_scale_f32,"ax",%progbits
  20              	 .align 2
  21              	 .global arm_mat_scale_f32
  22              	 .thumb
  23              	 .thumb_func
  25              	arm_mat_scale_f32:
  26              	.LFB139:
  27              	 .file 1 "../Dave/Generated/CMSIS_DSP/MatrixFunctions/arm_mat_scale_f32.c"
   1:../Dave/Generated/CMSIS_DSP/MatrixFunctions/arm_mat_scale_f32.c **** /* ----------------------------------------------------------------------    
   2:../Dave/Generated/CMSIS_DSP/MatrixFunctions/arm_mat_scale_f32.c **** * Copyright (C) 2010-2014 ARM Limited. All rights reserved.    
   3:../Dave/Generated/CMSIS_DSP/MatrixFunctions/arm_mat_scale_f32.c **** *    
   4:../Dave/Generated/CMSIS_DSP/MatrixFunctions/arm_mat_scale_f32.c **** * $Date:        31. July 2014
   5:../Dave/Generated/CMSIS_DSP/MatrixFunctions/arm_mat_scale_f32.c **** * $Revision: 	V1.4.4
   6:../Dave/Generated/CMSIS_DSP/MatrixFunctions/arm_mat_scale_f32.c **** *    
   7:../Dave/Generated/CMSIS_DSP/MatrixFunctions/arm_mat_scale_f32.c **** * Project: 	    CMSIS DSP Library    
   8:../Dave/Generated/CMSIS_DSP/MatrixFunctions/arm_mat_scale_f32.c **** * Title:        arm_mat_scale_f32.c    
   9:../Dave/Generated/CMSIS_DSP/MatrixFunctions/arm_mat_scale_f32.c **** *    
  10:../Dave/Generated/CMSIS_DSP/MatrixFunctions/arm_mat_scale_f32.c **** * Description:	Multiplies a floating-point matrix by a scalar.    
  11:../Dave/Generated/CMSIS_DSP/MatrixFunctions/arm_mat_scale_f32.c **** *    
  12:../Dave/Generated/CMSIS_DSP/MatrixFunctions/arm_mat_scale_f32.c **** * Target Processor: Cortex-M4/Cortex-M3/Cortex-M0
  13:../Dave/Generated/CMSIS_DSP/MatrixFunctions/arm_mat_scale_f32.c **** *  
  14:../Dave/Generated/CMSIS_DSP/MatrixFunctions/arm_mat_scale_f32.c **** * Redistribution and use in source and binary forms, with or without 
  15:../Dave/Generated/CMSIS_DSP/MatrixFunctions/arm_mat_scale_f32.c **** * modification, are permitted provided that the following conditions
  16:../Dave/Generated/CMSIS_DSP/MatrixFunctions/arm_mat_scale_f32.c **** * are met:
  17:../Dave/Generated/CMSIS_DSP/MatrixFunctions/arm_mat_scale_f32.c **** *   - Redistributions of source code must retain the above copyright
  18:../Dave/Generated/CMSIS_DSP/MatrixFunctions/arm_mat_scale_f32.c **** *     notice, this list of conditions and the following disclaimer.
  19:../Dave/Generated/CMSIS_DSP/MatrixFunctions/arm_mat_scale_f32.c **** *   - Redistributions in binary form must reproduce the above copyright
  20:../Dave/Generated/CMSIS_DSP/MatrixFunctions/arm_mat_scale_f32.c **** *     notice, this list of conditions and the following disclaimer in
  21:../Dave/Generated/CMSIS_DSP/MatrixFunctions/arm_mat_scale_f32.c **** *     the documentation and/or other materials provided with the 
  22:../Dave/Generated/CMSIS_DSP/MatrixFunctions/arm_mat_scale_f32.c **** *     distribution.
  23:../Dave/Generated/CMSIS_DSP/MatrixFunctions/arm_mat_scale_f32.c **** *   - Neither the name of ARM LIMITED nor the names of its contributors
  24:../Dave/Generated/CMSIS_DSP/MatrixFunctions/arm_mat_scale_f32.c **** *     may be used to endorse or promote products derived from this
  25:../Dave/Generated/CMSIS_DSP/MatrixFunctions/arm_mat_scale_f32.c **** *     software without specific prior written permission.
  26:../Dave/Generated/CMSIS_DSP/MatrixFunctions/arm_mat_scale_f32.c **** *
  27:../Dave/Generated/CMSIS_DSP/MatrixFunctions/arm_mat_scale_f32.c **** * THIS SOFTWARE IS PROVIDED BY THE COPYRIGHT HOLDERS AND CONTRIBUTORS
  28:../Dave/Generated/CMSIS_DSP/MatrixFunctions/arm_mat_scale_f32.c **** * "AS IS" AND ANY EXPRESS OR IMPLIED WARRANTIES, INCLUDING, BUT NOT
  29:../Dave/Generated/CMSIS_DSP/MatrixFunctions/arm_mat_scale_f32.c **** * LIMITED TO, THE IMPLIED WARRANTIES OF MERCHANTABILITY AND FITNESS
  30:../Dave/Generated/CMSIS_DSP/MatrixFunctions/arm_mat_scale_f32.c **** * FOR A PARTICULAR PURPOSE ARE DISCLAIMED. IN NO EVENT SHALL THE 
  31:../Dave/Generated/CMSIS_DSP/MatrixFunctions/arm_mat_scale_f32.c **** * COPYRIGHT OWNER OR CONTRIBUTORS BE LIABLE FOR ANY DIRECT, INDIRECT,
  32:../Dave/Generated/CMSIS_DSP/MatrixFunctions/arm_mat_scale_f32.c **** * INCIDENTAL, SPECIAL, EXEMPLARY, OR CONSEQUENTIAL DAMAGES (INCLUDING,
  33:../Dave/Generated/CMSIS_DSP/MatrixFunctions/arm_mat_scale_f32.c **** * BUT NOT LIMITED TO, PROCUREMENT OF SUBSTITUTE GOODS OR SERVICES;
  34:../Dave/Generated/CMSIS_DSP/MatrixFunctions/arm_mat_scale_f32.c **** * LOSS OF USE, DATA, OR PROFITS; OR BUSINESS INTERRUPTION) HOWEVER
  35:../Dave/Generated/CMSIS_DSP/MatrixFunctions/arm_mat_scale_f32.c **** * CAUSED AND ON ANY THEORY OF LIABILITY, WHETHER IN CONTRACT, STRICT
  36:../Dave/Generated/CMSIS_DSP/MatrixFunctions/arm_mat_scale_f32.c **** * LIABILITY, OR TORT (INCLUDING NEGLIGENCE OR OTHERWISE) ARISING IN
  37:../Dave/Generated/CMSIS_DSP/MatrixFunctions/arm_mat_scale_f32.c **** * ANY WAY OUT OF THE USE OF THIS SOFTWARE, EVEN IF ADVISED OF THE
  38:../Dave/Generated/CMSIS_DSP/MatrixFunctions/arm_mat_scale_f32.c **** * POSSIBILITY OF SUCH DAMAGE.     
  39:../Dave/Generated/CMSIS_DSP/MatrixFunctions/arm_mat_scale_f32.c **** * -------------------------------------------------------------------- */
  40:../Dave/Generated/CMSIS_DSP/MatrixFunctions/arm_mat_scale_f32.c **** 
  41:../Dave/Generated/CMSIS_DSP/MatrixFunctions/arm_mat_scale_f32.c **** #include "CMSIS_DSP/cmsis_dsp.h"
  42:../Dave/Generated/CMSIS_DSP/MatrixFunctions/arm_mat_scale_f32.c **** 
  43:../Dave/Generated/CMSIS_DSP/MatrixFunctions/arm_mat_scale_f32.c **** /**        
  44:../Dave/Generated/CMSIS_DSP/MatrixFunctions/arm_mat_scale_f32.c ****  * @ingroup groupMatrix        
  45:../Dave/Generated/CMSIS_DSP/MatrixFunctions/arm_mat_scale_f32.c ****  */
  46:../Dave/Generated/CMSIS_DSP/MatrixFunctions/arm_mat_scale_f32.c **** 
  47:../Dave/Generated/CMSIS_DSP/MatrixFunctions/arm_mat_scale_f32.c **** /**        
  48:../Dave/Generated/CMSIS_DSP/MatrixFunctions/arm_mat_scale_f32.c ****  * @defgroup MatrixScale Matrix Scale        
  49:../Dave/Generated/CMSIS_DSP/MatrixFunctions/arm_mat_scale_f32.c ****  *        
  50:../Dave/Generated/CMSIS_DSP/MatrixFunctions/arm_mat_scale_f32.c ****  * Multiplies a matrix by a scalar.  This is accomplished by multiplying each element in the       
  51:../Dave/Generated/CMSIS_DSP/MatrixFunctions/arm_mat_scale_f32.c ****  * matrix by the scalar.  For example:        
  52:../Dave/Generated/CMSIS_DSP/MatrixFunctions/arm_mat_scale_f32.c ****  * \image html MatrixScale.gif "Matrix Scaling of a 3 x 3 matrix"        
  53:../Dave/Generated/CMSIS_DSP/MatrixFunctions/arm_mat_scale_f32.c ****  *        
  54:../Dave/Generated/CMSIS_DSP/MatrixFunctions/arm_mat_scale_f32.c ****  * The function checks to make sure that the input and output matrices are of the same size.       
  55:../Dave/Generated/CMSIS_DSP/MatrixFunctions/arm_mat_scale_f32.c ****  *        
  56:../Dave/Generated/CMSIS_DSP/MatrixFunctions/arm_mat_scale_f32.c ****  * In the fixed-point Q15 and Q31 functions, <code>scale</code> is represented by        
  57:../Dave/Generated/CMSIS_DSP/MatrixFunctions/arm_mat_scale_f32.c ****  * a fractional multiplication <code>scaleFract</code> and an arithmetic shift <code>shift</code>. 
  58:../Dave/Generated/CMSIS_DSP/MatrixFunctions/arm_mat_scale_f32.c ****  * The shift allows the gain of the scaling operation to exceed 1.0.        
  59:../Dave/Generated/CMSIS_DSP/MatrixFunctions/arm_mat_scale_f32.c ****  * The overall scale factor applied to the fixed-point data is        
  60:../Dave/Generated/CMSIS_DSP/MatrixFunctions/arm_mat_scale_f32.c ****  * <pre>        
  61:../Dave/Generated/CMSIS_DSP/MatrixFunctions/arm_mat_scale_f32.c ****  *     scale = scaleFract * 2^shift.        
  62:../Dave/Generated/CMSIS_DSP/MatrixFunctions/arm_mat_scale_f32.c ****  * </pre>        
  63:../Dave/Generated/CMSIS_DSP/MatrixFunctions/arm_mat_scale_f32.c ****  */
  64:../Dave/Generated/CMSIS_DSP/MatrixFunctions/arm_mat_scale_f32.c **** 
  65:../Dave/Generated/CMSIS_DSP/MatrixFunctions/arm_mat_scale_f32.c **** /**        
  66:../Dave/Generated/CMSIS_DSP/MatrixFunctions/arm_mat_scale_f32.c ****  * @addtogroup MatrixScale        
  67:../Dave/Generated/CMSIS_DSP/MatrixFunctions/arm_mat_scale_f32.c ****  * @{        
  68:../Dave/Generated/CMSIS_DSP/MatrixFunctions/arm_mat_scale_f32.c ****  */
  69:../Dave/Generated/CMSIS_DSP/MatrixFunctions/arm_mat_scale_f32.c **** 
  70:../Dave/Generated/CMSIS_DSP/MatrixFunctions/arm_mat_scale_f32.c **** /**        
  71:../Dave/Generated/CMSIS_DSP/MatrixFunctions/arm_mat_scale_f32.c ****  * @brief Floating-point matrix scaling.        
  72:../Dave/Generated/CMSIS_DSP/MatrixFunctions/arm_mat_scale_f32.c ****  * @param[in]       *pSrc points to input matrix structure        
  73:../Dave/Generated/CMSIS_DSP/MatrixFunctions/arm_mat_scale_f32.c ****  * @param[in]       scale scale factor to be applied         
  74:../Dave/Generated/CMSIS_DSP/MatrixFunctions/arm_mat_scale_f32.c ****  * @param[out]      *pDst points to output matrix structure        
  75:../Dave/Generated/CMSIS_DSP/MatrixFunctions/arm_mat_scale_f32.c ****  * @return     		The function returns either <code>ARM_MATH_SIZE_MISMATCH</code>         
  76:../Dave/Generated/CMSIS_DSP/MatrixFunctions/arm_mat_scale_f32.c ****  * or <code>ARM_MATH_SUCCESS</code> based on the outcome of size checking.        
  77:../Dave/Generated/CMSIS_DSP/MatrixFunctions/arm_mat_scale_f32.c ****  *        
  78:../Dave/Generated/CMSIS_DSP/MatrixFunctions/arm_mat_scale_f32.c ****  */
  79:../Dave/Generated/CMSIS_DSP/MatrixFunctions/arm_mat_scale_f32.c **** 
  80:../Dave/Generated/CMSIS_DSP/MatrixFunctions/arm_mat_scale_f32.c **** arm_status arm_mat_scale_f32(
  81:../Dave/Generated/CMSIS_DSP/MatrixFunctions/arm_mat_scale_f32.c ****   const arm_matrix_instance_f32 * pSrc,
  82:../Dave/Generated/CMSIS_DSP/MatrixFunctions/arm_mat_scale_f32.c ****   float32_t scale,
  83:../Dave/Generated/CMSIS_DSP/MatrixFunctions/arm_mat_scale_f32.c ****   arm_matrix_instance_f32 * pDst)
  84:../Dave/Generated/CMSIS_DSP/MatrixFunctions/arm_mat_scale_f32.c **** {
  28              	 .loc 1 84 0
  29              	 .cfi_startproc
  30              	 
  31              	 
  32 0000 90B5     	 push {r4,r7,lr}
  33              	.LCFI0:
  34              	 .cfi_def_cfa_offset 12
  35              	 .cfi_offset 4,-12
  36              	 .cfi_offset 7,-8
  37              	 .cfi_offset 14,-4
  38 0002 93B0     	 sub sp,sp,#76
  39              	.LCFI1:
  40              	 .cfi_def_cfa_offset 88
  41 0004 00AF     	 add r7,sp,#0
  42              	.LCFI2:
  43              	 .cfi_def_cfa_register 7
  44 0006 F860     	 str r0,[r7,#12]
  45 0008 B960     	 str r1,[r7,#8]
  46 000a 7A60     	 str r2,[r7,#4]
  85:../Dave/Generated/CMSIS_DSP/MatrixFunctions/arm_mat_scale_f32.c ****   float32_t *pIn = pSrc->pData;                  /* input data matrix pointer */
  47              	 .loc 1 85 0
  48 000c FB68     	 ldr r3,[r7,#12]
  49 000e 5B68     	 ldr r3,[r3,#4]
  50 0010 7B64     	 str r3,[r7,#68]
  86:../Dave/Generated/CMSIS_DSP/MatrixFunctions/arm_mat_scale_f32.c ****   float32_t *pOut = pDst->pData;                 /* output data matrix pointer */
  51              	 .loc 1 86 0
  52 0012 7B68     	 ldr r3,[r7,#4]
  53 0014 5B68     	 ldr r3,[r3,#4]
  54 0016 3B64     	 str r3,[r7,#64]
  87:../Dave/Generated/CMSIS_DSP/MatrixFunctions/arm_mat_scale_f32.c ****   uint32_t numSamples;                           /* total number of elements in the matrix */
  88:../Dave/Generated/CMSIS_DSP/MatrixFunctions/arm_mat_scale_f32.c ****   uint32_t blkCnt;                               /* loop counters */
  89:../Dave/Generated/CMSIS_DSP/MatrixFunctions/arm_mat_scale_f32.c ****   arm_status status;                             /* status of matrix scaling     */
  90:../Dave/Generated/CMSIS_DSP/MatrixFunctions/arm_mat_scale_f32.c **** 
  91:../Dave/Generated/CMSIS_DSP/MatrixFunctions/arm_mat_scale_f32.c **** #ifndef ARM_MATH_CM0_FAMILY
  92:../Dave/Generated/CMSIS_DSP/MatrixFunctions/arm_mat_scale_f32.c **** 
  93:../Dave/Generated/CMSIS_DSP/MatrixFunctions/arm_mat_scale_f32.c ****   float32_t in1, in2, in3, in4;                  /* temporary variables */
  94:../Dave/Generated/CMSIS_DSP/MatrixFunctions/arm_mat_scale_f32.c ****   float32_t out1, out2, out3, out4;              /* temporary variables */
  95:../Dave/Generated/CMSIS_DSP/MatrixFunctions/arm_mat_scale_f32.c **** 
  96:../Dave/Generated/CMSIS_DSP/MatrixFunctions/arm_mat_scale_f32.c **** #endif //      #ifndef ARM_MATH_CM0_FAMILY
  97:../Dave/Generated/CMSIS_DSP/MatrixFunctions/arm_mat_scale_f32.c **** 
  98:../Dave/Generated/CMSIS_DSP/MatrixFunctions/arm_mat_scale_f32.c **** #ifdef ARM_MATH_MATRIX_CHECK
  99:../Dave/Generated/CMSIS_DSP/MatrixFunctions/arm_mat_scale_f32.c ****   /* Check for matrix mismatch condition */
 100:../Dave/Generated/CMSIS_DSP/MatrixFunctions/arm_mat_scale_f32.c ****   if((pSrc->numRows != pDst->numRows) || (pSrc->numCols != pDst->numCols))
  55              	 .loc 1 100 0
  56 0018 FB68     	 ldr r3,[r7,#12]
  57 001a 1A88     	 ldrh r2,[r3]
  58 001c 7B68     	 ldr r3,[r7,#4]
  59 001e 1B88     	 ldrh r3,[r3]
  60 0020 9A42     	 cmp r2,r3
  61 0022 05D1     	 bne .L2
  62              	 .loc 1 100 0 is_stmt 0 discriminator 1
  63 0024 FB68     	 ldr r3,[r7,#12]
  64 0026 5A88     	 ldrh r2,[r3,#2]
  65 0028 7B68     	 ldr r3,[r7,#4]
  66 002a 5B88     	 ldrh r3,[r3,#2]
  67 002c 9A42     	 cmp r2,r3
  68 002e 03D0     	 beq .L3
  69              	.L2:
 101:../Dave/Generated/CMSIS_DSP/MatrixFunctions/arm_mat_scale_f32.c ****   {
 102:../Dave/Generated/CMSIS_DSP/MatrixFunctions/arm_mat_scale_f32.c ****     /* Set status as ARM_MATH_SIZE_MISMATCH */
 103:../Dave/Generated/CMSIS_DSP/MatrixFunctions/arm_mat_scale_f32.c ****     status = ARM_MATH_SIZE_MISMATCH;
  70              	 .loc 1 103 0 is_stmt 1
  71 0030 FD23     	 movs r3,#253
  72 0032 87F83B30 	 strb r3,[r7,#59]
  73 0036 65E0     	 b .L4
  74              	.L3:
 104:../Dave/Generated/CMSIS_DSP/MatrixFunctions/arm_mat_scale_f32.c ****   }
 105:../Dave/Generated/CMSIS_DSP/MatrixFunctions/arm_mat_scale_f32.c ****   else
 106:../Dave/Generated/CMSIS_DSP/MatrixFunctions/arm_mat_scale_f32.c **** #endif /*    #ifdef ARM_MATH_MATRIX_CHECK    */
 107:../Dave/Generated/CMSIS_DSP/MatrixFunctions/arm_mat_scale_f32.c ****   {
 108:../Dave/Generated/CMSIS_DSP/MatrixFunctions/arm_mat_scale_f32.c ****     /* Total number of samples in the input matrix */
 109:../Dave/Generated/CMSIS_DSP/MatrixFunctions/arm_mat_scale_f32.c ****     numSamples = (uint32_t) pSrc->numRows * pSrc->numCols;
  75              	 .loc 1 109 0
  76 0038 FB68     	 ldr r3,[r7,#12]
  77 003a 1B88     	 ldrh r3,[r3]
  78 003c 1A46     	 mov r2,r3
  79 003e FB68     	 ldr r3,[r7,#12]
  80 0040 5B88     	 ldrh r3,[r3,#2]
  81 0042 03FB02F3 	 mul r3,r3,r2
  82 0046 7B63     	 str r3,[r7,#52]
 110:../Dave/Generated/CMSIS_DSP/MatrixFunctions/arm_mat_scale_f32.c **** 
 111:../Dave/Generated/CMSIS_DSP/MatrixFunctions/arm_mat_scale_f32.c **** #ifndef ARM_MATH_CM0_FAMILY
 112:../Dave/Generated/CMSIS_DSP/MatrixFunctions/arm_mat_scale_f32.c **** 
 113:../Dave/Generated/CMSIS_DSP/MatrixFunctions/arm_mat_scale_f32.c ****     /* Run the below code for Cortex-M4 and Cortex-M3 */
 114:../Dave/Generated/CMSIS_DSP/MatrixFunctions/arm_mat_scale_f32.c **** 
 115:../Dave/Generated/CMSIS_DSP/MatrixFunctions/arm_mat_scale_f32.c ****     /* Loop Unrolling */
 116:../Dave/Generated/CMSIS_DSP/MatrixFunctions/arm_mat_scale_f32.c ****     blkCnt = numSamples >> 2;
  83              	 .loc 1 116 0
  84 0048 7B6B     	 ldr r3,[r7,#52]
  85 004a 9B08     	 lsrs r3,r3,#2
  86 004c FB63     	 str r3,[r7,#60]
 117:../Dave/Generated/CMSIS_DSP/MatrixFunctions/arm_mat_scale_f32.c **** 
 118:../Dave/Generated/CMSIS_DSP/MatrixFunctions/arm_mat_scale_f32.c ****     /* First part of the processing with loop unrolling.  Compute 4 outputs at a time.    
 119:../Dave/Generated/CMSIS_DSP/MatrixFunctions/arm_mat_scale_f32.c ****      ** a second loop below computes the remaining 1 to 3 samples. */
 120:../Dave/Generated/CMSIS_DSP/MatrixFunctions/arm_mat_scale_f32.c ****     while(blkCnt > 0u)
  87              	 .loc 1 120 0
  88 004e 3BE0     	 b .L5
  89              	.L6:
 121:../Dave/Generated/CMSIS_DSP/MatrixFunctions/arm_mat_scale_f32.c ****     {
 122:../Dave/Generated/CMSIS_DSP/MatrixFunctions/arm_mat_scale_f32.c ****       /* C(m,n) = A(m,n) * scale */
 123:../Dave/Generated/CMSIS_DSP/MatrixFunctions/arm_mat_scale_f32.c ****       /* Scaling and results are stored in the destination buffer. */
 124:../Dave/Generated/CMSIS_DSP/MatrixFunctions/arm_mat_scale_f32.c ****       in1 = pIn[0];
  90              	 .loc 1 124 0
  91 0050 7B6C     	 ldr r3,[r7,#68]
  92 0052 1B68     	 ldr r3,[r3]
  93 0054 3B63     	 str r3,[r7,#48]
 125:../Dave/Generated/CMSIS_DSP/MatrixFunctions/arm_mat_scale_f32.c ****       in2 = pIn[1];
  94              	 .loc 1 125 0
  95 0056 7B6C     	 ldr r3,[r7,#68]
  96 0058 5B68     	 ldr r3,[r3,#4]
  97 005a FB62     	 str r3,[r7,#44]
 126:../Dave/Generated/CMSIS_DSP/MatrixFunctions/arm_mat_scale_f32.c ****       in3 = pIn[2];
  98              	 .loc 1 126 0
  99 005c 7B6C     	 ldr r3,[r7,#68]
 100 005e 9B68     	 ldr r3,[r3,#8]
 101 0060 BB62     	 str r3,[r7,#40]
 127:../Dave/Generated/CMSIS_DSP/MatrixFunctions/arm_mat_scale_f32.c ****       in4 = pIn[3];
 102              	 .loc 1 127 0
 103 0062 7B6C     	 ldr r3,[r7,#68]
 104 0064 DB68     	 ldr r3,[r3,#12]
 105 0066 7B62     	 str r3,[r7,#36]
 128:../Dave/Generated/CMSIS_DSP/MatrixFunctions/arm_mat_scale_f32.c **** 
 129:../Dave/Generated/CMSIS_DSP/MatrixFunctions/arm_mat_scale_f32.c ****       out1 = in1 * scale;
 106              	 .loc 1 129 0
 107 0068 386B     	 ldr r0,[r7,#48]
 108 006a B968     	 ldr r1,[r7,#8]
 109 006c FFF7FEFF 	 bl __aeabi_fmul
 110 0070 0346     	 mov r3,r0
 111 0072 3B62     	 str r3,[r7,#32]
 130:../Dave/Generated/CMSIS_DSP/MatrixFunctions/arm_mat_scale_f32.c ****       out2 = in2 * scale;
 112              	 .loc 1 130 0
 113 0074 F86A     	 ldr r0,[r7,#44]
 114 0076 B968     	 ldr r1,[r7,#8]
 115 0078 FFF7FEFF 	 bl __aeabi_fmul
 116 007c 0346     	 mov r3,r0
 117 007e FB61     	 str r3,[r7,#28]
 131:../Dave/Generated/CMSIS_DSP/MatrixFunctions/arm_mat_scale_f32.c ****       out3 = in3 * scale;
 118              	 .loc 1 131 0
 119 0080 B86A     	 ldr r0,[r7,#40]
 120 0082 B968     	 ldr r1,[r7,#8]
 121 0084 FFF7FEFF 	 bl __aeabi_fmul
 122 0088 0346     	 mov r3,r0
 123 008a BB61     	 str r3,[r7,#24]
 132:../Dave/Generated/CMSIS_DSP/MatrixFunctions/arm_mat_scale_f32.c ****       out4 = in4 * scale;
 124              	 .loc 1 132 0
 125 008c 786A     	 ldr r0,[r7,#36]
 126 008e B968     	 ldr r1,[r7,#8]
 127 0090 FFF7FEFF 	 bl __aeabi_fmul
 128 0094 0346     	 mov r3,r0
 129 0096 7B61     	 str r3,[r7,#20]
 133:../Dave/Generated/CMSIS_DSP/MatrixFunctions/arm_mat_scale_f32.c **** 
 134:../Dave/Generated/CMSIS_DSP/MatrixFunctions/arm_mat_scale_f32.c **** 
 135:../Dave/Generated/CMSIS_DSP/MatrixFunctions/arm_mat_scale_f32.c ****       pOut[0] = out1;
 130              	 .loc 1 135 0
 131 0098 3B6C     	 ldr r3,[r7,#64]
 132 009a 3A6A     	 ldr r2,[r7,#32]
 133 009c 1A60     	 str r2,[r3]
 136:../Dave/Generated/CMSIS_DSP/MatrixFunctions/arm_mat_scale_f32.c ****       pOut[1] = out2;
 134              	 .loc 1 136 0
 135 009e 3B6C     	 ldr r3,[r7,#64]
 136 00a0 0433     	 adds r3,r3,#4
 137 00a2 FA69     	 ldr r2,[r7,#28]
 138 00a4 1A60     	 str r2,[r3]
 137:../Dave/Generated/CMSIS_DSP/MatrixFunctions/arm_mat_scale_f32.c ****       pOut[2] = out3;
 139              	 .loc 1 137 0
 140 00a6 3B6C     	 ldr r3,[r7,#64]
 141 00a8 0833     	 adds r3,r3,#8
 142 00aa BA69     	 ldr r2,[r7,#24]
 143 00ac 1A60     	 str r2,[r3]
 138:../Dave/Generated/CMSIS_DSP/MatrixFunctions/arm_mat_scale_f32.c ****       pOut[3] = out4;
 144              	 .loc 1 138 0
 145 00ae 3B6C     	 ldr r3,[r7,#64]
 146 00b0 0C33     	 adds r3,r3,#12
 147 00b2 7A69     	 ldr r2,[r7,#20]
 148 00b4 1A60     	 str r2,[r3]
 139:../Dave/Generated/CMSIS_DSP/MatrixFunctions/arm_mat_scale_f32.c **** 
 140:../Dave/Generated/CMSIS_DSP/MatrixFunctions/arm_mat_scale_f32.c ****       /* update pointers to process next sampels */
 141:../Dave/Generated/CMSIS_DSP/MatrixFunctions/arm_mat_scale_f32.c ****       pIn += 4u;
 149              	 .loc 1 141 0
 150 00b6 7B6C     	 ldr r3,[r7,#68]
 151 00b8 1033     	 adds r3,r3,#16
 152 00ba 7B64     	 str r3,[r7,#68]
 142:../Dave/Generated/CMSIS_DSP/MatrixFunctions/arm_mat_scale_f32.c ****       pOut += 4u;
 153              	 .loc 1 142 0
 154 00bc 3B6C     	 ldr r3,[r7,#64]
 155 00be 1033     	 adds r3,r3,#16
 156 00c0 3B64     	 str r3,[r7,#64]
 143:../Dave/Generated/CMSIS_DSP/MatrixFunctions/arm_mat_scale_f32.c **** 
 144:../Dave/Generated/CMSIS_DSP/MatrixFunctions/arm_mat_scale_f32.c ****       /* Decrement the numSamples loop counter */
 145:../Dave/Generated/CMSIS_DSP/MatrixFunctions/arm_mat_scale_f32.c ****       blkCnt--;
 157              	 .loc 1 145 0
 158 00c2 FB6B     	 ldr r3,[r7,#60]
 159 00c4 013B     	 subs r3,r3,#1
 160 00c6 FB63     	 str r3,[r7,#60]
 161              	.L5:
 120:../Dave/Generated/CMSIS_DSP/MatrixFunctions/arm_mat_scale_f32.c ****     {
 162              	 .loc 1 120 0
 163 00c8 FB6B     	 ldr r3,[r7,#60]
 164 00ca 002B     	 cmp r3,#0
 165 00cc C0D1     	 bne .L6
 146:../Dave/Generated/CMSIS_DSP/MatrixFunctions/arm_mat_scale_f32.c ****     }
 147:../Dave/Generated/CMSIS_DSP/MatrixFunctions/arm_mat_scale_f32.c **** 
 148:../Dave/Generated/CMSIS_DSP/MatrixFunctions/arm_mat_scale_f32.c ****     /* If the numSamples is not a multiple of 4, compute any remaining output samples here.    
 149:../Dave/Generated/CMSIS_DSP/MatrixFunctions/arm_mat_scale_f32.c ****      ** No loop unrolling is used. */
 150:../Dave/Generated/CMSIS_DSP/MatrixFunctions/arm_mat_scale_f32.c ****     blkCnt = numSamples % 0x4u;
 166              	 .loc 1 150 0
 167 00ce 7B6B     	 ldr r3,[r7,#52]
 168 00d0 03F00303 	 and r3,r3,#3
 169 00d4 FB63     	 str r3,[r7,#60]
 151:../Dave/Generated/CMSIS_DSP/MatrixFunctions/arm_mat_scale_f32.c **** 
 152:../Dave/Generated/CMSIS_DSP/MatrixFunctions/arm_mat_scale_f32.c **** #else
 153:../Dave/Generated/CMSIS_DSP/MatrixFunctions/arm_mat_scale_f32.c **** 
 154:../Dave/Generated/CMSIS_DSP/MatrixFunctions/arm_mat_scale_f32.c ****     /* Run the below code for Cortex-M0 */
 155:../Dave/Generated/CMSIS_DSP/MatrixFunctions/arm_mat_scale_f32.c **** 
 156:../Dave/Generated/CMSIS_DSP/MatrixFunctions/arm_mat_scale_f32.c ****     /* Initialize blkCnt with number of samples */
 157:../Dave/Generated/CMSIS_DSP/MatrixFunctions/arm_mat_scale_f32.c ****     blkCnt = numSamples;
 158:../Dave/Generated/CMSIS_DSP/MatrixFunctions/arm_mat_scale_f32.c **** 
 159:../Dave/Generated/CMSIS_DSP/MatrixFunctions/arm_mat_scale_f32.c **** #endif /* #ifndef ARM_MATH_CM0_FAMILY */
 160:../Dave/Generated/CMSIS_DSP/MatrixFunctions/arm_mat_scale_f32.c **** 
 161:../Dave/Generated/CMSIS_DSP/MatrixFunctions/arm_mat_scale_f32.c ****     while(blkCnt > 0u)
 170              	 .loc 1 161 0
 171 00d6 0FE0     	 b .L7
 172              	.L8:
 162:../Dave/Generated/CMSIS_DSP/MatrixFunctions/arm_mat_scale_f32.c ****     {
 163:../Dave/Generated/CMSIS_DSP/MatrixFunctions/arm_mat_scale_f32.c ****       /* C(m,n) = A(m,n) * scale */
 164:../Dave/Generated/CMSIS_DSP/MatrixFunctions/arm_mat_scale_f32.c ****       /* The results are stored in the destination buffer. */
 165:../Dave/Generated/CMSIS_DSP/MatrixFunctions/arm_mat_scale_f32.c ****       *pOut++ = (*pIn++) * scale;
 173              	 .loc 1 165 0
 174 00d8 3C6C     	 ldr r4,[r7,#64]
 175 00da 231D     	 adds r3,r4,#4
 176 00dc 3B64     	 str r3,[r7,#64]
 177 00de 7B6C     	 ldr r3,[r7,#68]
 178 00e0 1A1D     	 adds r2,r3,#4
 179 00e2 7A64     	 str r2,[r7,#68]
 180 00e4 1B68     	 ldr r3,[r3]
 181 00e6 1846     	 mov r0,r3
 182 00e8 B968     	 ldr r1,[r7,#8]
 183 00ea FFF7FEFF 	 bl __aeabi_fmul
 184 00ee 0346     	 mov r3,r0
 185 00f0 2360     	 str r3,[r4]
 166:../Dave/Generated/CMSIS_DSP/MatrixFunctions/arm_mat_scale_f32.c **** 
 167:../Dave/Generated/CMSIS_DSP/MatrixFunctions/arm_mat_scale_f32.c ****       /* Decrement the loop counter */
 168:../Dave/Generated/CMSIS_DSP/MatrixFunctions/arm_mat_scale_f32.c ****       blkCnt--;
 186              	 .loc 1 168 0
 187 00f2 FB6B     	 ldr r3,[r7,#60]
 188 00f4 013B     	 subs r3,r3,#1
 189 00f6 FB63     	 str r3,[r7,#60]
 190              	.L7:
 161:../Dave/Generated/CMSIS_DSP/MatrixFunctions/arm_mat_scale_f32.c ****     {
 191              	 .loc 1 161 0
 192 00f8 FB6B     	 ldr r3,[r7,#60]
 193 00fa 002B     	 cmp r3,#0
 194 00fc ECD1     	 bne .L8
 169:../Dave/Generated/CMSIS_DSP/MatrixFunctions/arm_mat_scale_f32.c ****     }
 170:../Dave/Generated/CMSIS_DSP/MatrixFunctions/arm_mat_scale_f32.c **** 
 171:../Dave/Generated/CMSIS_DSP/MatrixFunctions/arm_mat_scale_f32.c ****     /* Set status as ARM_MATH_SUCCESS */
 172:../Dave/Generated/CMSIS_DSP/MatrixFunctions/arm_mat_scale_f32.c ****     status = ARM_MATH_SUCCESS;
 195              	 .loc 1 172 0
 196 00fe 0023     	 movs r3,#0
 197 0100 87F83B30 	 strb r3,[r7,#59]
 198              	.L4:
 173:../Dave/Generated/CMSIS_DSP/MatrixFunctions/arm_mat_scale_f32.c ****   }
 174:../Dave/Generated/CMSIS_DSP/MatrixFunctions/arm_mat_scale_f32.c **** 
 175:../Dave/Generated/CMSIS_DSP/MatrixFunctions/arm_mat_scale_f32.c ****   /* Return to application */
 176:../Dave/Generated/CMSIS_DSP/MatrixFunctions/arm_mat_scale_f32.c ****   return (status);
 199              	 .loc 1 176 0
 200 0104 97F83B30 	 ldrb r3,[r7,#59]
 201 0108 5BB2     	 sxtb r3,r3
 177:../Dave/Generated/CMSIS_DSP/MatrixFunctions/arm_mat_scale_f32.c **** }
 202              	 .loc 1 177 0
 203 010a 1846     	 mov r0,r3
 204 010c 4C37     	 adds r7,r7,#76
 205              	.LCFI3:
 206              	 .cfi_def_cfa_offset 12
 207 010e BD46     	 mov sp,r7
 208              	.LCFI4:
 209              	 .cfi_def_cfa_register 13
 210              	 
 211 0110 90BD     	 pop {r4,r7,pc}
 212              	 .cfi_endproc
 213              	.LFE139:
 215 0112 00BF     	 .text
 216              	.Letext0:
 217              	 .file 2 "c:\\davev4-64bit\\dave-4.2.6\\eclipse\\arm-gcc-49\\arm-none-eabi\\include\\machine\\_default_types.h"
 218              	 .file 3 "c:\\davev4-64bit\\dave-4.2.6\\eclipse\\arm-gcc-49\\arm-none-eabi\\include\\stdint.h"
 219              	 .file 4 "C:\\Users\\Depes Crystalline\\Desktop\\school\\Active_Bike_Lighting_System\\Radar_Core\\Dave\\Generated/CMSIS_DSP/arm_math.h"