   1              	 .syntax unified
   2              	 .cpu cortex-m4
   3              	 .fpu softvfp
   4              	 .eabi_attribute 20,1
   5              	 .eabi_attribute 21,1
   6              	 .eabi_attribute 23,3
   7              	 .eabi_attribute 24,1
   8              	 .eabi_attribute 25,1
   9              	 .eabi_attribute 26,1
  10              	 .eabi_attribute 30,6
  11              	 .eabi_attribute 34,1
  12              	 .eabi_attribute 18,4
  13              	 .thumb
  14              	 .file "arm_q7_to_float.c"
  15              	 .text
  16              	.Ltext0:
  17              	 .cfi_sections .debug_frame
  18              	 .global __aeabi_i2f
  19              	 .global __aeabi_fdiv
  20              	 .section .text.arm_q7_to_float,"ax",%progbits
  21              	 .align 2
  22              	 .global arm_q7_to_float
  23              	 .thumb
  24              	 .thumb_func
  26              	arm_q7_to_float:
  27              	.LFB139:
  28              	 .file 1 "../Dave/Generated/CMSIS_DSP/SupportFunctions/arm_q7_to_float.c"
   1:../Dave/Generated/CMSIS_DSP/SupportFunctions/arm_q7_to_float.c **** /* ----------------------------------------------------------------------------    
   2:../Dave/Generated/CMSIS_DSP/SupportFunctions/arm_q7_to_float.c **** * Copyright (C) 2010-2014 ARM Limited. All rights reserved.    
   3:../Dave/Generated/CMSIS_DSP/SupportFunctions/arm_q7_to_float.c **** *    
   4:../Dave/Generated/CMSIS_DSP/SupportFunctions/arm_q7_to_float.c **** * $Date:        31. July 2014
   5:../Dave/Generated/CMSIS_DSP/SupportFunctions/arm_q7_to_float.c **** * $Revision: 	V1.4.4  
   6:../Dave/Generated/CMSIS_DSP/SupportFunctions/arm_q7_to_float.c **** *    
   7:../Dave/Generated/CMSIS_DSP/SupportFunctions/arm_q7_to_float.c **** * Project: 	    CMSIS DSP Library    
   8:../Dave/Generated/CMSIS_DSP/SupportFunctions/arm_q7_to_float.c **** * Title:		arm_q7_to_float.c    
   9:../Dave/Generated/CMSIS_DSP/SupportFunctions/arm_q7_to_float.c **** *    
  10:../Dave/Generated/CMSIS_DSP/SupportFunctions/arm_q7_to_float.c **** * Description:	Converts the elements of the Q7 vector to floating-point vector.    
  11:../Dave/Generated/CMSIS_DSP/SupportFunctions/arm_q7_to_float.c **** *    
  12:../Dave/Generated/CMSIS_DSP/SupportFunctions/arm_q7_to_float.c **** * Target Processor: Cortex-M4/Cortex-M3/Cortex-M0
  13:../Dave/Generated/CMSIS_DSP/SupportFunctions/arm_q7_to_float.c **** *  
  14:../Dave/Generated/CMSIS_DSP/SupportFunctions/arm_q7_to_float.c **** * Redistribution and use in source and binary forms, with or without 
  15:../Dave/Generated/CMSIS_DSP/SupportFunctions/arm_q7_to_float.c **** * modification, are permitted provided that the following conditions
  16:../Dave/Generated/CMSIS_DSP/SupportFunctions/arm_q7_to_float.c **** * are met:
  17:../Dave/Generated/CMSIS_DSP/SupportFunctions/arm_q7_to_float.c **** *   - Redistributions of source code must retain the above copyright
  18:../Dave/Generated/CMSIS_DSP/SupportFunctions/arm_q7_to_float.c **** *     notice, this list of conditions and the following disclaimer.
  19:../Dave/Generated/CMSIS_DSP/SupportFunctions/arm_q7_to_float.c **** *   - Redistributions in binary form must reproduce the above copyright
  20:../Dave/Generated/CMSIS_DSP/SupportFunctions/arm_q7_to_float.c **** *     notice, this list of conditions and the following disclaimer in
  21:../Dave/Generated/CMSIS_DSP/SupportFunctions/arm_q7_to_float.c **** *     the documentation and/or other materials provided with the 
  22:../Dave/Generated/CMSIS_DSP/SupportFunctions/arm_q7_to_float.c **** *     distribution.
  23:../Dave/Generated/CMSIS_DSP/SupportFunctions/arm_q7_to_float.c **** *   - Neither the name of ARM LIMITED nor the names of its contributors
  24:../Dave/Generated/CMSIS_DSP/SupportFunctions/arm_q7_to_float.c **** *     may be used to endorse or promote products derived from this
  25:../Dave/Generated/CMSIS_DSP/SupportFunctions/arm_q7_to_float.c **** *     software without specific prior written permission.
  26:../Dave/Generated/CMSIS_DSP/SupportFunctions/arm_q7_to_float.c **** *
  27:../Dave/Generated/CMSIS_DSP/SupportFunctions/arm_q7_to_float.c **** * THIS SOFTWARE IS PROVIDED BY THE COPYRIGHT HOLDERS AND CONTRIBUTORS
  28:../Dave/Generated/CMSIS_DSP/SupportFunctions/arm_q7_to_float.c **** * "AS IS" AND ANY EXPRESS OR IMPLIED WARRANTIES, INCLUDING, BUT NOT
  29:../Dave/Generated/CMSIS_DSP/SupportFunctions/arm_q7_to_float.c **** * LIMITED TO, THE IMPLIED WARRANTIES OF MERCHANTABILITY AND FITNESS
  30:../Dave/Generated/CMSIS_DSP/SupportFunctions/arm_q7_to_float.c **** * FOR A PARTICULAR PURPOSE ARE DISCLAIMED. IN NO EVENT SHALL THE 
  31:../Dave/Generated/CMSIS_DSP/SupportFunctions/arm_q7_to_float.c **** * COPYRIGHT OWNER OR CONTRIBUTORS BE LIABLE FOR ANY DIRECT, INDIRECT,
  32:../Dave/Generated/CMSIS_DSP/SupportFunctions/arm_q7_to_float.c **** * INCIDENTAL, SPECIAL, EXEMPLARY, OR CONSEQUENTIAL DAMAGES (INCLUDING,
  33:../Dave/Generated/CMSIS_DSP/SupportFunctions/arm_q7_to_float.c **** * BUT NOT LIMITED TO, PROCUREMENT OF SUBSTITUTE GOODS OR SERVICES;
  34:../Dave/Generated/CMSIS_DSP/SupportFunctions/arm_q7_to_float.c **** * LOSS OF USE, DATA, OR PROFITS; OR BUSINESS INTERRUPTION) HOWEVER
  35:../Dave/Generated/CMSIS_DSP/SupportFunctions/arm_q7_to_float.c **** * CAUSED AND ON ANY THEORY OF LIABILITY, WHETHER IN CONTRACT, STRICT
  36:../Dave/Generated/CMSIS_DSP/SupportFunctions/arm_q7_to_float.c **** * LIABILITY, OR TORT (INCLUDING NEGLIGENCE OR OTHERWISE) ARISING IN
  37:../Dave/Generated/CMSIS_DSP/SupportFunctions/arm_q7_to_float.c **** * ANY WAY OUT OF THE USE OF THIS SOFTWARE, EVEN IF ADVISED OF THE
  38:../Dave/Generated/CMSIS_DSP/SupportFunctions/arm_q7_to_float.c **** * POSSIBILITY OF SUCH DAMAGE.  
  39:../Dave/Generated/CMSIS_DSP/SupportFunctions/arm_q7_to_float.c **** * ---------------------------------------------------------------------------- */
  40:../Dave/Generated/CMSIS_DSP/SupportFunctions/arm_q7_to_float.c **** 
  41:../Dave/Generated/CMSIS_DSP/SupportFunctions/arm_q7_to_float.c **** #include "CMSIS_DSP/cmsis_dsp.h"
  42:../Dave/Generated/CMSIS_DSP/SupportFunctions/arm_q7_to_float.c **** 
  43:../Dave/Generated/CMSIS_DSP/SupportFunctions/arm_q7_to_float.c **** /**    
  44:../Dave/Generated/CMSIS_DSP/SupportFunctions/arm_q7_to_float.c ****  * @ingroup groupSupport    
  45:../Dave/Generated/CMSIS_DSP/SupportFunctions/arm_q7_to_float.c ****  */
  46:../Dave/Generated/CMSIS_DSP/SupportFunctions/arm_q7_to_float.c **** 
  47:../Dave/Generated/CMSIS_DSP/SupportFunctions/arm_q7_to_float.c **** /**    
  48:../Dave/Generated/CMSIS_DSP/SupportFunctions/arm_q7_to_float.c ****  * @defgroup q7_to_x  Convert 8-bit Integer value    
  49:../Dave/Generated/CMSIS_DSP/SupportFunctions/arm_q7_to_float.c ****  */
  50:../Dave/Generated/CMSIS_DSP/SupportFunctions/arm_q7_to_float.c **** 
  51:../Dave/Generated/CMSIS_DSP/SupportFunctions/arm_q7_to_float.c **** /**    
  52:../Dave/Generated/CMSIS_DSP/SupportFunctions/arm_q7_to_float.c ****  * @addtogroup q7_to_x    
  53:../Dave/Generated/CMSIS_DSP/SupportFunctions/arm_q7_to_float.c ****  * @{    
  54:../Dave/Generated/CMSIS_DSP/SupportFunctions/arm_q7_to_float.c ****  */
  55:../Dave/Generated/CMSIS_DSP/SupportFunctions/arm_q7_to_float.c **** 
  56:../Dave/Generated/CMSIS_DSP/SupportFunctions/arm_q7_to_float.c **** /**    
  57:../Dave/Generated/CMSIS_DSP/SupportFunctions/arm_q7_to_float.c ****  * @brief Converts the elements of the Q7 vector to floating-point vector.    
  58:../Dave/Generated/CMSIS_DSP/SupportFunctions/arm_q7_to_float.c ****  * @param[in]       *pSrc points to the Q7 input vector    
  59:../Dave/Generated/CMSIS_DSP/SupportFunctions/arm_q7_to_float.c ****  * @param[out]      *pDst points to the floating-point output vector   
  60:../Dave/Generated/CMSIS_DSP/SupportFunctions/arm_q7_to_float.c ****  * @param[in]       blockSize length of the input vector    
  61:../Dave/Generated/CMSIS_DSP/SupportFunctions/arm_q7_to_float.c ****  * @return none.    
  62:../Dave/Generated/CMSIS_DSP/SupportFunctions/arm_q7_to_float.c ****  *		     
  63:../Dave/Generated/CMSIS_DSP/SupportFunctions/arm_q7_to_float.c ****  * \par Description:    
  64:../Dave/Generated/CMSIS_DSP/SupportFunctions/arm_q7_to_float.c ****  *    
  65:../Dave/Generated/CMSIS_DSP/SupportFunctions/arm_q7_to_float.c ****  * The equation used for the conversion process is:    
  66:../Dave/Generated/CMSIS_DSP/SupportFunctions/arm_q7_to_float.c ****  *   
  67:../Dave/Generated/CMSIS_DSP/SupportFunctions/arm_q7_to_float.c ****  * <pre>    
  68:../Dave/Generated/CMSIS_DSP/SupportFunctions/arm_q7_to_float.c ****  * 	pDst[n] = (float32_t) pSrc[n] / 128;   0 <= n < blockSize.    
  69:../Dave/Generated/CMSIS_DSP/SupportFunctions/arm_q7_to_float.c ****  * </pre>    
  70:../Dave/Generated/CMSIS_DSP/SupportFunctions/arm_q7_to_float.c ****  *   
  71:../Dave/Generated/CMSIS_DSP/SupportFunctions/arm_q7_to_float.c ****  */
  72:../Dave/Generated/CMSIS_DSP/SupportFunctions/arm_q7_to_float.c **** 
  73:../Dave/Generated/CMSIS_DSP/SupportFunctions/arm_q7_to_float.c **** 
  74:../Dave/Generated/CMSIS_DSP/SupportFunctions/arm_q7_to_float.c **** void arm_q7_to_float(
  75:../Dave/Generated/CMSIS_DSP/SupportFunctions/arm_q7_to_float.c ****   q7_t * pSrc,
  76:../Dave/Generated/CMSIS_DSP/SupportFunctions/arm_q7_to_float.c ****   float32_t * pDst,
  77:../Dave/Generated/CMSIS_DSP/SupportFunctions/arm_q7_to_float.c ****   uint32_t blockSize)
  78:../Dave/Generated/CMSIS_DSP/SupportFunctions/arm_q7_to_float.c **** {
  29              	 .loc 1 78 0
  30              	 .cfi_startproc
  31              	 
  32              	 
  33 0000 90B5     	 push {r4,r7,lr}
  34              	.LCFI0:
  35              	 .cfi_def_cfa_offset 12
  36              	 .cfi_offset 4,-12
  37              	 .cfi_offset 7,-8
  38              	 .cfi_offset 14,-4
  39 0002 87B0     	 sub sp,sp,#28
  40              	.LCFI1:
  41              	 .cfi_def_cfa_offset 40
  42 0004 00AF     	 add r7,sp,#0
  43              	.LCFI2:
  44              	 .cfi_def_cfa_register 7
  45 0006 F860     	 str r0,[r7,#12]
  46 0008 B960     	 str r1,[r7,#8]
  47 000a 7A60     	 str r2,[r7,#4]
  79:../Dave/Generated/CMSIS_DSP/SupportFunctions/arm_q7_to_float.c ****   q7_t *pIn = pSrc;                              /* Src pointer */
  48              	 .loc 1 79 0
  49 000c FB68     	 ldr r3,[r7,#12]
  50 000e 7B61     	 str r3,[r7,#20]
  80:../Dave/Generated/CMSIS_DSP/SupportFunctions/arm_q7_to_float.c ****   uint32_t blkCnt;                               /* loop counter */
  81:../Dave/Generated/CMSIS_DSP/SupportFunctions/arm_q7_to_float.c **** 
  82:../Dave/Generated/CMSIS_DSP/SupportFunctions/arm_q7_to_float.c **** 
  83:../Dave/Generated/CMSIS_DSP/SupportFunctions/arm_q7_to_float.c **** #ifndef ARM_MATH_CM0_FAMILY
  84:../Dave/Generated/CMSIS_DSP/SupportFunctions/arm_q7_to_float.c **** 
  85:../Dave/Generated/CMSIS_DSP/SupportFunctions/arm_q7_to_float.c ****   /* Run the below code for Cortex-M4 and Cortex-M3 */
  86:../Dave/Generated/CMSIS_DSP/SupportFunctions/arm_q7_to_float.c **** 
  87:../Dave/Generated/CMSIS_DSP/SupportFunctions/arm_q7_to_float.c ****   /*loop Unrolling */
  88:../Dave/Generated/CMSIS_DSP/SupportFunctions/arm_q7_to_float.c ****   blkCnt = blockSize >> 2u;
  51              	 .loc 1 88 0
  52 0010 7B68     	 ldr r3,[r7,#4]
  53 0012 9B08     	 lsrs r3,r3,#2
  54 0014 3B61     	 str r3,[r7,#16]
  89:../Dave/Generated/CMSIS_DSP/SupportFunctions/arm_q7_to_float.c **** 
  90:../Dave/Generated/CMSIS_DSP/SupportFunctions/arm_q7_to_float.c ****   /* First part of the processing with loop unrolling.  Compute 4 outputs at a time.    
  91:../Dave/Generated/CMSIS_DSP/SupportFunctions/arm_q7_to_float.c ****    ** a second loop below computes the remaining 1 to 3 samples. */
  92:../Dave/Generated/CMSIS_DSP/SupportFunctions/arm_q7_to_float.c ****   while(blkCnt > 0u)
  55              	 .loc 1 92 0
  56 0016 4EE0     	 b .L2
  57              	.L3:
  93:../Dave/Generated/CMSIS_DSP/SupportFunctions/arm_q7_to_float.c ****   {
  94:../Dave/Generated/CMSIS_DSP/SupportFunctions/arm_q7_to_float.c ****     /* C = (float32_t) A / 128 */
  95:../Dave/Generated/CMSIS_DSP/SupportFunctions/arm_q7_to_float.c ****     /* convert from q7 to float and then store the results in the destination buffer */
  96:../Dave/Generated/CMSIS_DSP/SupportFunctions/arm_q7_to_float.c ****     *pDst++ = ((float32_t) * pIn++ / 128.0f);
  58              	 .loc 1 96 0
  59 0018 BC68     	 ldr r4,[r7,#8]
  60 001a 231D     	 adds r3,r4,#4
  61 001c BB60     	 str r3,[r7,#8]
  62 001e 7B69     	 ldr r3,[r7,#20]
  63 0020 5A1C     	 adds r2,r3,#1
  64 0022 7A61     	 str r2,[r7,#20]
  65 0024 1B78     	 ldrb r3,[r3]
  66 0026 5BB2     	 sxtb r3,r3
  67 0028 1846     	 mov r0,r3
  68 002a FFF7FEFF 	 bl __aeabi_i2f
  69 002e 0346     	 mov r3,r0
  70 0030 1846     	 mov r0,r3
  71 0032 4FF08641 	 mov r1,#1124073472
  72 0036 FFF7FEFF 	 bl __aeabi_fdiv
  73 003a 0346     	 mov r3,r0
  74 003c 2360     	 str r3,[r4]
  97:../Dave/Generated/CMSIS_DSP/SupportFunctions/arm_q7_to_float.c ****     *pDst++ = ((float32_t) * pIn++ / 128.0f);
  75              	 .loc 1 97 0
  76 003e BC68     	 ldr r4,[r7,#8]
  77 0040 231D     	 adds r3,r4,#4
  78 0042 BB60     	 str r3,[r7,#8]
  79 0044 7B69     	 ldr r3,[r7,#20]
  80 0046 5A1C     	 adds r2,r3,#1
  81 0048 7A61     	 str r2,[r7,#20]
  82 004a 1B78     	 ldrb r3,[r3]
  83 004c 5BB2     	 sxtb r3,r3
  84 004e 1846     	 mov r0,r3
  85 0050 FFF7FEFF 	 bl __aeabi_i2f
  86 0054 0346     	 mov r3,r0
  87 0056 1846     	 mov r0,r3
  88 0058 4FF08641 	 mov r1,#1124073472
  89 005c FFF7FEFF 	 bl __aeabi_fdiv
  90 0060 0346     	 mov r3,r0
  91 0062 2360     	 str r3,[r4]
  98:../Dave/Generated/CMSIS_DSP/SupportFunctions/arm_q7_to_float.c ****     *pDst++ = ((float32_t) * pIn++ / 128.0f);
  92              	 .loc 1 98 0
  93 0064 BC68     	 ldr r4,[r7,#8]
  94 0066 231D     	 adds r3,r4,#4
  95 0068 BB60     	 str r3,[r7,#8]
  96 006a 7B69     	 ldr r3,[r7,#20]
  97 006c 5A1C     	 adds r2,r3,#1
  98 006e 7A61     	 str r2,[r7,#20]
  99 0070 1B78     	 ldrb r3,[r3]
 100 0072 5BB2     	 sxtb r3,r3
 101 0074 1846     	 mov r0,r3
 102 0076 FFF7FEFF 	 bl __aeabi_i2f
 103 007a 0346     	 mov r3,r0
 104 007c 1846     	 mov r0,r3
 105 007e 4FF08641 	 mov r1,#1124073472
 106 0082 FFF7FEFF 	 bl __aeabi_fdiv
 107 0086 0346     	 mov r3,r0
 108 0088 2360     	 str r3,[r4]
  99:../Dave/Generated/CMSIS_DSP/SupportFunctions/arm_q7_to_float.c ****     *pDst++ = ((float32_t) * pIn++ / 128.0f);
 109              	 .loc 1 99 0
 110 008a BC68     	 ldr r4,[r7,#8]
 111 008c 231D     	 adds r3,r4,#4
 112 008e BB60     	 str r3,[r7,#8]
 113 0090 7B69     	 ldr r3,[r7,#20]
 114 0092 5A1C     	 adds r2,r3,#1
 115 0094 7A61     	 str r2,[r7,#20]
 116 0096 1B78     	 ldrb r3,[r3]
 117 0098 5BB2     	 sxtb r3,r3
 118 009a 1846     	 mov r0,r3
 119 009c FFF7FEFF 	 bl __aeabi_i2f
 120 00a0 0346     	 mov r3,r0
 121 00a2 1846     	 mov r0,r3
 122 00a4 4FF08641 	 mov r1,#1124073472
 123 00a8 FFF7FEFF 	 bl __aeabi_fdiv
 124 00ac 0346     	 mov r3,r0
 125 00ae 2360     	 str r3,[r4]
 100:../Dave/Generated/CMSIS_DSP/SupportFunctions/arm_q7_to_float.c **** 
 101:../Dave/Generated/CMSIS_DSP/SupportFunctions/arm_q7_to_float.c ****     /* Decrement the loop counter */
 102:../Dave/Generated/CMSIS_DSP/SupportFunctions/arm_q7_to_float.c ****     blkCnt--;
 126              	 .loc 1 102 0
 127 00b0 3B69     	 ldr r3,[r7,#16]
 128 00b2 013B     	 subs r3,r3,#1
 129 00b4 3B61     	 str r3,[r7,#16]
 130              	.L2:
  92:../Dave/Generated/CMSIS_DSP/SupportFunctions/arm_q7_to_float.c ****   {
 131              	 .loc 1 92 0
 132 00b6 3B69     	 ldr r3,[r7,#16]
 133 00b8 002B     	 cmp r3,#0
 134 00ba ADD1     	 bne .L3
 103:../Dave/Generated/CMSIS_DSP/SupportFunctions/arm_q7_to_float.c ****   }
 104:../Dave/Generated/CMSIS_DSP/SupportFunctions/arm_q7_to_float.c **** 
 105:../Dave/Generated/CMSIS_DSP/SupportFunctions/arm_q7_to_float.c ****   /* If the blockSize is not a multiple of 4, compute any remaining output samples here.    
 106:../Dave/Generated/CMSIS_DSP/SupportFunctions/arm_q7_to_float.c ****    ** No loop unrolling is used. */
 107:../Dave/Generated/CMSIS_DSP/SupportFunctions/arm_q7_to_float.c ****   blkCnt = blockSize % 0x4u;
 135              	 .loc 1 107 0
 136 00bc 7B68     	 ldr r3,[r7,#4]
 137 00be 03F00303 	 and r3,r3,#3
 138 00c2 3B61     	 str r3,[r7,#16]
 108:../Dave/Generated/CMSIS_DSP/SupportFunctions/arm_q7_to_float.c **** 
 109:../Dave/Generated/CMSIS_DSP/SupportFunctions/arm_q7_to_float.c **** #else
 110:../Dave/Generated/CMSIS_DSP/SupportFunctions/arm_q7_to_float.c **** 
 111:../Dave/Generated/CMSIS_DSP/SupportFunctions/arm_q7_to_float.c ****   /* Run the below code for Cortex-M0 */
 112:../Dave/Generated/CMSIS_DSP/SupportFunctions/arm_q7_to_float.c **** 
 113:../Dave/Generated/CMSIS_DSP/SupportFunctions/arm_q7_to_float.c ****   /* Loop over blockSize number of values */
 114:../Dave/Generated/CMSIS_DSP/SupportFunctions/arm_q7_to_float.c ****   blkCnt = blockSize;
 115:../Dave/Generated/CMSIS_DSP/SupportFunctions/arm_q7_to_float.c **** 
 116:../Dave/Generated/CMSIS_DSP/SupportFunctions/arm_q7_to_float.c **** #endif /* #ifndef ARM_MATH_CM0_FAMILY */
 117:../Dave/Generated/CMSIS_DSP/SupportFunctions/arm_q7_to_float.c **** 
 118:../Dave/Generated/CMSIS_DSP/SupportFunctions/arm_q7_to_float.c ****   while(blkCnt > 0u)
 139              	 .loc 1 118 0
 140 00c4 15E0     	 b .L4
 141              	.L5:
 119:../Dave/Generated/CMSIS_DSP/SupportFunctions/arm_q7_to_float.c ****   {
 120:../Dave/Generated/CMSIS_DSP/SupportFunctions/arm_q7_to_float.c ****     /* C = (float32_t) A / 128 */
 121:../Dave/Generated/CMSIS_DSP/SupportFunctions/arm_q7_to_float.c ****     /* convert from q7 to float and then store the results in the destination buffer */
 122:../Dave/Generated/CMSIS_DSP/SupportFunctions/arm_q7_to_float.c ****     *pDst++ = ((float32_t) * pIn++ / 128.0f);
 142              	 .loc 1 122 0
 143 00c6 BC68     	 ldr r4,[r7,#8]
 144 00c8 231D     	 adds r3,r4,#4
 145 00ca BB60     	 str r3,[r7,#8]
 146 00cc 7B69     	 ldr r3,[r7,#20]
 147 00ce 5A1C     	 adds r2,r3,#1
 148 00d0 7A61     	 str r2,[r7,#20]
 149 00d2 1B78     	 ldrb r3,[r3]
 150 00d4 5BB2     	 sxtb r3,r3
 151 00d6 1846     	 mov r0,r3
 152 00d8 FFF7FEFF 	 bl __aeabi_i2f
 153 00dc 0346     	 mov r3,r0
 154 00de 1846     	 mov r0,r3
 155 00e0 4FF08641 	 mov r1,#1124073472
 156 00e4 FFF7FEFF 	 bl __aeabi_fdiv
 157 00e8 0346     	 mov r3,r0
 158 00ea 2360     	 str r3,[r4]
 123:../Dave/Generated/CMSIS_DSP/SupportFunctions/arm_q7_to_float.c **** 
 124:../Dave/Generated/CMSIS_DSP/SupportFunctions/arm_q7_to_float.c ****     /* Decrement the loop counter */
 125:../Dave/Generated/CMSIS_DSP/SupportFunctions/arm_q7_to_float.c ****     blkCnt--;
 159              	 .loc 1 125 0
 160 00ec 3B69     	 ldr r3,[r7,#16]
 161 00ee 013B     	 subs r3,r3,#1
 162 00f0 3B61     	 str r3,[r7,#16]
 163              	.L4:
 118:../Dave/Generated/CMSIS_DSP/SupportFunctions/arm_q7_to_float.c ****   {
 164              	 .loc 1 118 0
 165 00f2 3B69     	 ldr r3,[r7,#16]
 166 00f4 002B     	 cmp r3,#0
 167 00f6 E6D1     	 bne .L5
 126:../Dave/Generated/CMSIS_DSP/SupportFunctions/arm_q7_to_float.c ****   }
 127:../Dave/Generated/CMSIS_DSP/SupportFunctions/arm_q7_to_float.c **** }
 168              	 .loc 1 127 0
 169 00f8 1C37     	 adds r7,r7,#28
 170              	.LCFI3:
 171              	 .cfi_def_cfa_offset 12
 172 00fa BD46     	 mov sp,r7
 173              	.LCFI4:
 174              	 .cfi_def_cfa_register 13
 175              	 
 176 00fc 90BD     	 pop {r4,r7,pc}
 177              	 .cfi_endproc
 178              	.LFE139:
 180 00fe 00BF     	 .text
 181              	.Letext0:
 182              	 .file 2 "c:\\davev4-64bit\\dave-4.2.6\\eclipse\\arm-gcc-49\\arm-none-eabi\\include\\machine\\_default_types.h"
 183              	 .file 3 "c:\\davev4-64bit\\dave-4.2.6\\eclipse\\arm-gcc-49\\arm-none-eabi\\include\\stdint.h"
 184              	 .file 4 "C:\\Users\\Depes Crystalline\\Desktop\\school\\Active_Bike_Lighting_System\\Radar_Core\\Dave\\Generated/CMSIS_DSP/arm_math.h"