   1              	 .syntax unified
   2              	 .cpu cortex-m4
   3              	 .fpu softvfp
   4              	 .eabi_attribute 20,1
   5              	 .eabi_attribute 21,1
   6              	 .eabi_attribute 23,3
   7              	 .eabi_attribute 24,1
   8              	 .eabi_attribute 25,1
   9              	 .eabi_attribute 26,1
  10              	 .eabi_attribute 30,6
  11              	 .eabi_attribute 34,1
  12              	 .eabi_attribute 18,4
  13              	 .thumb
  14              	 .file "arm_float_to_q7.c"
  15              	 .text
  16              	.Ltext0:
  17              	 .cfi_sections .debug_frame
  18              	 .global __aeabi_fmul
  19              	 .global __aeabi_fcmpgt
  20              	 .global __aeabi_fadd
  21              	 .global __aeabi_f2iz
  22              	 .section .text.arm_float_to_q7,"ax",%progbits
  23              	 .align 2
  24              	 .global arm_float_to_q7
  25              	 .thumb
  26              	 .thumb_func
  28              	arm_float_to_q7:
  29              	.LFB139:
  30              	 .file 1 "../Dave/Generated/CMSIS_DSP/SupportFunctions/arm_float_to_q7.c"
   1:../Dave/Generated/CMSIS_DSP/SupportFunctions/arm_float_to_q7.c **** /* ----------------------------------------------------------------------------    
   2:../Dave/Generated/CMSIS_DSP/SupportFunctions/arm_float_to_q7.c **** * Copyright (C) 2010-2014 ARM Limited. All rights reserved.    
   3:../Dave/Generated/CMSIS_DSP/SupportFunctions/arm_float_to_q7.c **** *    
   4:../Dave/Generated/CMSIS_DSP/SupportFunctions/arm_float_to_q7.c **** * $Date:        31. July 2014
   5:../Dave/Generated/CMSIS_DSP/SupportFunctions/arm_float_to_q7.c **** * $Revision: 	V1.4.4  
   6:../Dave/Generated/CMSIS_DSP/SupportFunctions/arm_float_to_q7.c **** *    
   7:../Dave/Generated/CMSIS_DSP/SupportFunctions/arm_float_to_q7.c **** * Project: 	    CMSIS DSP Library    
   8:../Dave/Generated/CMSIS_DSP/SupportFunctions/arm_float_to_q7.c **** * Title:		arm_float_to_q7.c    
   9:../Dave/Generated/CMSIS_DSP/SupportFunctions/arm_float_to_q7.c **** *    
  10:../Dave/Generated/CMSIS_DSP/SupportFunctions/arm_float_to_q7.c **** * Description:	Converts the elements of the floating-point vector to Q7 vector.   
  11:../Dave/Generated/CMSIS_DSP/SupportFunctions/arm_float_to_q7.c **** *    
  12:../Dave/Generated/CMSIS_DSP/SupportFunctions/arm_float_to_q7.c **** * Target Processor: Cortex-M4/Cortex-M3/Cortex-M0
  13:../Dave/Generated/CMSIS_DSP/SupportFunctions/arm_float_to_q7.c **** *  
  14:../Dave/Generated/CMSIS_DSP/SupportFunctions/arm_float_to_q7.c **** * Redistribution and use in source and binary forms, with or without 
  15:../Dave/Generated/CMSIS_DSP/SupportFunctions/arm_float_to_q7.c **** * modification, are permitted provided that the following conditions
  16:../Dave/Generated/CMSIS_DSP/SupportFunctions/arm_float_to_q7.c **** * are met:
  17:../Dave/Generated/CMSIS_DSP/SupportFunctions/arm_float_to_q7.c **** *   - Redistributions of source code must retain the above copyright
  18:../Dave/Generated/CMSIS_DSP/SupportFunctions/arm_float_to_q7.c **** *     notice, this list of conditions and the following disclaimer.
  19:../Dave/Generated/CMSIS_DSP/SupportFunctions/arm_float_to_q7.c **** *   - Redistributions in binary form must reproduce the above copyright
  20:../Dave/Generated/CMSIS_DSP/SupportFunctions/arm_float_to_q7.c **** *     notice, this list of conditions and the following disclaimer in
  21:../Dave/Generated/CMSIS_DSP/SupportFunctions/arm_float_to_q7.c **** *     the documentation and/or other materials provided with the 
  22:../Dave/Generated/CMSIS_DSP/SupportFunctions/arm_float_to_q7.c **** *     distribution.
  23:../Dave/Generated/CMSIS_DSP/SupportFunctions/arm_float_to_q7.c **** *   - Neither the name of ARM LIMITED nor the names of its contributors
  24:../Dave/Generated/CMSIS_DSP/SupportFunctions/arm_float_to_q7.c **** *     may be used to endorse or promote products derived from this
  25:../Dave/Generated/CMSIS_DSP/SupportFunctions/arm_float_to_q7.c **** *     software without specific prior written permission.
  26:../Dave/Generated/CMSIS_DSP/SupportFunctions/arm_float_to_q7.c **** *
  27:../Dave/Generated/CMSIS_DSP/SupportFunctions/arm_float_to_q7.c **** * THIS SOFTWARE IS PROVIDED BY THE COPYRIGHT HOLDERS AND CONTRIBUTORS
  28:../Dave/Generated/CMSIS_DSP/SupportFunctions/arm_float_to_q7.c **** * "AS IS" AND ANY EXPRESS OR IMPLIED WARRANTIES, INCLUDING, BUT NOT
  29:../Dave/Generated/CMSIS_DSP/SupportFunctions/arm_float_to_q7.c **** * LIMITED TO, THE IMPLIED WARRANTIES OF MERCHANTABILITY AND FITNESS
  30:../Dave/Generated/CMSIS_DSP/SupportFunctions/arm_float_to_q7.c **** * FOR A PARTICULAR PURPOSE ARE DISCLAIMED. IN NO EVENT SHALL THE 
  31:../Dave/Generated/CMSIS_DSP/SupportFunctions/arm_float_to_q7.c **** * COPYRIGHT OWNER OR CONTRIBUTORS BE LIABLE FOR ANY DIRECT, INDIRECT,
  32:../Dave/Generated/CMSIS_DSP/SupportFunctions/arm_float_to_q7.c **** * INCIDENTAL, SPECIAL, EXEMPLARY, OR CONSEQUENTIAL DAMAGES (INCLUDING,
  33:../Dave/Generated/CMSIS_DSP/SupportFunctions/arm_float_to_q7.c **** * BUT NOT LIMITED TO, PROCUREMENT OF SUBSTITUTE GOODS OR SERVICES;
  34:../Dave/Generated/CMSIS_DSP/SupportFunctions/arm_float_to_q7.c **** * LOSS OF USE, DATA, OR PROFITS; OR BUSINESS INTERRUPTION) HOWEVER
  35:../Dave/Generated/CMSIS_DSP/SupportFunctions/arm_float_to_q7.c **** * CAUSED AND ON ANY THEORY OF LIABILITY, WHETHER IN CONTRACT, STRICT
  36:../Dave/Generated/CMSIS_DSP/SupportFunctions/arm_float_to_q7.c **** * LIABILITY, OR TORT (INCLUDING NEGLIGENCE OR OTHERWISE) ARISING IN
  37:../Dave/Generated/CMSIS_DSP/SupportFunctions/arm_float_to_q7.c **** * ANY WAY OUT OF THE USE OF THIS SOFTWARE, EVEN IF ADVISED OF THE
  38:../Dave/Generated/CMSIS_DSP/SupportFunctions/arm_float_to_q7.c **** * POSSIBILITY OF SUCH DAMAGE.  
  39:../Dave/Generated/CMSIS_DSP/SupportFunctions/arm_float_to_q7.c **** * ---------------------------------------------------------------------------- */
  40:../Dave/Generated/CMSIS_DSP/SupportFunctions/arm_float_to_q7.c **** 
  41:../Dave/Generated/CMSIS_DSP/SupportFunctions/arm_float_to_q7.c **** #include "CMSIS_DSP/cmsis_dsp.h"
  42:../Dave/Generated/CMSIS_DSP/SupportFunctions/arm_float_to_q7.c **** 
  43:../Dave/Generated/CMSIS_DSP/SupportFunctions/arm_float_to_q7.c **** /**    
  44:../Dave/Generated/CMSIS_DSP/SupportFunctions/arm_float_to_q7.c ****  * @ingroup groupSupport    
  45:../Dave/Generated/CMSIS_DSP/SupportFunctions/arm_float_to_q7.c ****  */
  46:../Dave/Generated/CMSIS_DSP/SupportFunctions/arm_float_to_q7.c **** 
  47:../Dave/Generated/CMSIS_DSP/SupportFunctions/arm_float_to_q7.c **** /**    
  48:../Dave/Generated/CMSIS_DSP/SupportFunctions/arm_float_to_q7.c ****  * @addtogroup float_to_x    
  49:../Dave/Generated/CMSIS_DSP/SupportFunctions/arm_float_to_q7.c ****  * @{    
  50:../Dave/Generated/CMSIS_DSP/SupportFunctions/arm_float_to_q7.c ****  */
  51:../Dave/Generated/CMSIS_DSP/SupportFunctions/arm_float_to_q7.c **** 
  52:../Dave/Generated/CMSIS_DSP/SupportFunctions/arm_float_to_q7.c **** /**    
  53:../Dave/Generated/CMSIS_DSP/SupportFunctions/arm_float_to_q7.c ****  * @brief Converts the elements of the floating-point vector to Q7 vector.    
  54:../Dave/Generated/CMSIS_DSP/SupportFunctions/arm_float_to_q7.c ****  * @param[in]       *pSrc points to the floating-point input vector    
  55:../Dave/Generated/CMSIS_DSP/SupportFunctions/arm_float_to_q7.c ****  * @param[out]      *pDst points to the Q7 output vector   
  56:../Dave/Generated/CMSIS_DSP/SupportFunctions/arm_float_to_q7.c ****  * @param[in]       blockSize length of the input vector    
  57:../Dave/Generated/CMSIS_DSP/SupportFunctions/arm_float_to_q7.c ****  * @return none.    
  58:../Dave/Generated/CMSIS_DSP/SupportFunctions/arm_float_to_q7.c ****  *    
  59:../Dave/Generated/CMSIS_DSP/SupportFunctions/arm_float_to_q7.c ****  *\par Description:    
  60:../Dave/Generated/CMSIS_DSP/SupportFunctions/arm_float_to_q7.c ****  * \par   
  61:../Dave/Generated/CMSIS_DSP/SupportFunctions/arm_float_to_q7.c ****  * The equation used for the conversion process is:    
  62:../Dave/Generated/CMSIS_DSP/SupportFunctions/arm_float_to_q7.c ****  * <pre>    
  63:../Dave/Generated/CMSIS_DSP/SupportFunctions/arm_float_to_q7.c ****  * 	pDst[n] = (q7_t)(pSrc[n] * 128);   0 <= n < blockSize.    
  64:../Dave/Generated/CMSIS_DSP/SupportFunctions/arm_float_to_q7.c ****  * </pre>    
  65:../Dave/Generated/CMSIS_DSP/SupportFunctions/arm_float_to_q7.c ****  * \par Scaling and Overflow Behavior:    
  66:../Dave/Generated/CMSIS_DSP/SupportFunctions/arm_float_to_q7.c ****  * \par    
  67:../Dave/Generated/CMSIS_DSP/SupportFunctions/arm_float_to_q7.c ****  * The function uses saturating arithmetic.    
  68:../Dave/Generated/CMSIS_DSP/SupportFunctions/arm_float_to_q7.c ****  * Results outside of the allowable Q7 range [0x80 0x7F] will be saturated.    
  69:../Dave/Generated/CMSIS_DSP/SupportFunctions/arm_float_to_q7.c ****  * \note   
  70:../Dave/Generated/CMSIS_DSP/SupportFunctions/arm_float_to_q7.c ****  * In order to apply rounding, the library should be rebuilt with the ROUNDING macro     
  71:../Dave/Generated/CMSIS_DSP/SupportFunctions/arm_float_to_q7.c ****  * defined in the preprocessor section of project options.     
  72:../Dave/Generated/CMSIS_DSP/SupportFunctions/arm_float_to_q7.c ****  */
  73:../Dave/Generated/CMSIS_DSP/SupportFunctions/arm_float_to_q7.c **** 
  74:../Dave/Generated/CMSIS_DSP/SupportFunctions/arm_float_to_q7.c **** 
  75:../Dave/Generated/CMSIS_DSP/SupportFunctions/arm_float_to_q7.c **** void arm_float_to_q7(
  76:../Dave/Generated/CMSIS_DSP/SupportFunctions/arm_float_to_q7.c ****   float32_t * pSrc,
  77:../Dave/Generated/CMSIS_DSP/SupportFunctions/arm_float_to_q7.c ****   q7_t * pDst,
  78:../Dave/Generated/CMSIS_DSP/SupportFunctions/arm_float_to_q7.c ****   uint32_t blockSize)
  79:../Dave/Generated/CMSIS_DSP/SupportFunctions/arm_float_to_q7.c **** {
  31              	 .loc 1 79 0
  32              	 .cfi_startproc
  33              	 
  34              	 
  35 0000 90B5     	 push {r4,r7,lr}
  36              	.LCFI0:
  37              	 .cfi_def_cfa_offset 12
  38              	 .cfi_offset 4,-12
  39              	 .cfi_offset 7,-8
  40              	 .cfi_offset 14,-4
  41 0002 93B0     	 sub sp,sp,#76
  42              	.LCFI1:
  43              	 .cfi_def_cfa_offset 88
  44 0004 00AF     	 add r7,sp,#0
  45              	.LCFI2:
  46              	 .cfi_def_cfa_register 7
  47 0006 F860     	 str r0,[r7,#12]
  48 0008 B960     	 str r1,[r7,#8]
  49 000a 7A60     	 str r2,[r7,#4]
  80:../Dave/Generated/CMSIS_DSP/SupportFunctions/arm_float_to_q7.c ****   float32_t *pIn = pSrc;                         /* Src pointer */
  50              	 .loc 1 80 0
  51 000c FB68     	 ldr r3,[r7,#12]
  52 000e 7B64     	 str r3,[r7,#68]
  81:../Dave/Generated/CMSIS_DSP/SupportFunctions/arm_float_to_q7.c ****   uint32_t blkCnt;                               /* loop counter */
  82:../Dave/Generated/CMSIS_DSP/SupportFunctions/arm_float_to_q7.c **** 
  83:../Dave/Generated/CMSIS_DSP/SupportFunctions/arm_float_to_q7.c **** #ifdef ARM_MATH_ROUNDING
  84:../Dave/Generated/CMSIS_DSP/SupportFunctions/arm_float_to_q7.c **** 
  85:../Dave/Generated/CMSIS_DSP/SupportFunctions/arm_float_to_q7.c ****   float32_t in;
  86:../Dave/Generated/CMSIS_DSP/SupportFunctions/arm_float_to_q7.c **** 
  87:../Dave/Generated/CMSIS_DSP/SupportFunctions/arm_float_to_q7.c **** #endif /*      #ifdef ARM_MATH_ROUNDING        */
  88:../Dave/Generated/CMSIS_DSP/SupportFunctions/arm_float_to_q7.c **** 
  89:../Dave/Generated/CMSIS_DSP/SupportFunctions/arm_float_to_q7.c **** #ifndef ARM_MATH_CM0_FAMILY
  90:../Dave/Generated/CMSIS_DSP/SupportFunctions/arm_float_to_q7.c **** 
  91:../Dave/Generated/CMSIS_DSP/SupportFunctions/arm_float_to_q7.c ****   /* Run the below code for Cortex-M4 and Cortex-M3 */
  92:../Dave/Generated/CMSIS_DSP/SupportFunctions/arm_float_to_q7.c **** 
  93:../Dave/Generated/CMSIS_DSP/SupportFunctions/arm_float_to_q7.c ****   /*loop Unrolling */
  94:../Dave/Generated/CMSIS_DSP/SupportFunctions/arm_float_to_q7.c ****   blkCnt = blockSize >> 2u;
  53              	 .loc 1 94 0
  54 0010 7B68     	 ldr r3,[r7,#4]
  55 0012 9B08     	 lsrs r3,r3,#2
  56 0014 3B64     	 str r3,[r7,#64]
  95:../Dave/Generated/CMSIS_DSP/SupportFunctions/arm_float_to_q7.c **** 
  96:../Dave/Generated/CMSIS_DSP/SupportFunctions/arm_float_to_q7.c ****   /* First part of the processing with loop unrolling.  Compute 4 outputs at a time.    
  97:../Dave/Generated/CMSIS_DSP/SupportFunctions/arm_float_to_q7.c ****    ** a second loop below computes the remaining 1 to 3 samples. */
  98:../Dave/Generated/CMSIS_DSP/SupportFunctions/arm_float_to_q7.c ****   while(blkCnt > 0u)
  57              	 .loc 1 98 0
  58 0016 C2E0     	 b .L2
  59              	.L15:
  99:../Dave/Generated/CMSIS_DSP/SupportFunctions/arm_float_to_q7.c ****   {
 100:../Dave/Generated/CMSIS_DSP/SupportFunctions/arm_float_to_q7.c **** 
 101:../Dave/Generated/CMSIS_DSP/SupportFunctions/arm_float_to_q7.c **** #ifdef ARM_MATH_ROUNDING
 102:../Dave/Generated/CMSIS_DSP/SupportFunctions/arm_float_to_q7.c ****     /* C = A * 128 */
 103:../Dave/Generated/CMSIS_DSP/SupportFunctions/arm_float_to_q7.c ****     /* convert from float to q7 and then store the results in the destination buffer */
 104:../Dave/Generated/CMSIS_DSP/SupportFunctions/arm_float_to_q7.c ****     in = *pIn++;
  60              	 .loc 1 104 0
  61 0018 7B6C     	 ldr r3,[r7,#68]
  62 001a 1A1D     	 adds r2,r3,#4
  63 001c 7A64     	 str r2,[r7,#68]
  64 001e 1B68     	 ldr r3,[r3]
  65 0020 FB63     	 str r3,[r7,#60]
 105:../Dave/Generated/CMSIS_DSP/SupportFunctions/arm_float_to_q7.c ****     in = (in * 128);
  66              	 .loc 1 105 0
  67 0022 F86B     	 ldr r0,[r7,#60]
  68 0024 4FF08641 	 mov r1,#1124073472
  69 0028 FFF7FEFF 	 bl __aeabi_fmul
  70 002c 0346     	 mov r3,r0
  71 002e FB63     	 str r3,[r7,#60]
 106:../Dave/Generated/CMSIS_DSP/SupportFunctions/arm_float_to_q7.c ****     in += in > 0.0f ? 0.5f : -0.5f;
  72              	 .loc 1 106 0
  73 0030 F86B     	 ldr r0,[r7,#60]
  74 0032 4FF00001 	 mov r1,#0
  75 0036 FFF7FEFF 	 bl __aeabi_fcmpgt
  76 003a 0346     	 mov r3,r0
  77 003c 002B     	 cmp r3,#0
  78 003e 02D0     	 beq .L26
  79              	 .loc 1 106 0 is_stmt 0 discriminator 1
  80 0040 4FF07C53 	 mov r3,#1056964608
  81 0044 01E0     	 b .L5
  82              	.L26:
  83              	 .loc 1 106 0 discriminator 2
  84 0046 4FF03F43 	 mov r3,#-1090519040
  85              	.L5:
  86              	 .loc 1 106 0 discriminator 4
  87 004a F86B     	 ldr r0,[r7,#60]
  88 004c 1946     	 mov r1,r3
  89 004e FFF7FEFF 	 bl __aeabi_fadd
  90 0052 0346     	 mov r3,r0
  91 0054 FB63     	 str r3,[r7,#60]
 107:../Dave/Generated/CMSIS_DSP/SupportFunctions/arm_float_to_q7.c ****     *pDst++ = (q7_t) (__SSAT((q15_t) (in), 8));
  92              	 .loc 1 107 0 is_stmt 1 discriminator 4
  93 0056 BC68     	 ldr r4,[r7,#8]
  94 0058 631C     	 adds r3,r4,#1
  95 005a BB60     	 str r3,[r7,#8]
  96              	.LBB2:
  97 005c F86B     	 ldr r0,[r7,#60]
  98 005e FFF7FEFF 	 bl __aeabi_f2iz
  99 0062 0346     	 mov r3,r0
 100 0064 9BB2     	 uxth r3,r3
 101 0066 1BB2     	 sxth r3,r3
 102 0068 BB63     	 str r3,[r7,#56]
 103 006a BB6B     	 ldr r3,[r7,#56]
 104              	
 105 006c 03F30703 	 ssat r3,#8,r3
 106              	
 107              	 .thumb
 108 0070 7B63     	 str r3,[r7,#52]
 109 0072 7B6B     	 ldr r3,[r7,#52]
 110              	.LBE2:
 111 0074 DBB2     	 uxtb r3,r3
 112 0076 2370     	 strb r3,[r4]
 108:../Dave/Generated/CMSIS_DSP/SupportFunctions/arm_float_to_q7.c **** 
 109:../Dave/Generated/CMSIS_DSP/SupportFunctions/arm_float_to_q7.c ****     in = *pIn++;
 113              	 .loc 1 109 0 discriminator 4
 114 0078 7B6C     	 ldr r3,[r7,#68]
 115 007a 1A1D     	 adds r2,r3,#4
 116 007c 7A64     	 str r2,[r7,#68]
 117 007e 1B68     	 ldr r3,[r3]
 118 0080 FB63     	 str r3,[r7,#60]
 110:../Dave/Generated/CMSIS_DSP/SupportFunctions/arm_float_to_q7.c ****     in = (in * 128);
 119              	 .loc 1 110 0 discriminator 4
 120 0082 F86B     	 ldr r0,[r7,#60]
 121 0084 4FF08641 	 mov r1,#1124073472
 122 0088 FFF7FEFF 	 bl __aeabi_fmul
 123 008c 0346     	 mov r3,r0
 124 008e FB63     	 str r3,[r7,#60]
 111:../Dave/Generated/CMSIS_DSP/SupportFunctions/arm_float_to_q7.c ****     in += in > 0.0f ? 0.5f : -0.5f;
 125              	 .loc 1 111 0 discriminator 4
 126 0090 F86B     	 ldr r0,[r7,#60]
 127 0092 4FF00001 	 mov r1,#0
 128 0096 FFF7FEFF 	 bl __aeabi_fcmpgt
 129 009a 0346     	 mov r3,r0
 130 009c 002B     	 cmp r3,#0
 131 009e 02D0     	 beq .L27
 132              	 .loc 1 111 0 is_stmt 0 discriminator 1
 133 00a0 4FF07C53 	 mov r3,#1056964608
 134 00a4 01E0     	 b .L8
 135              	.L27:
 136              	 .loc 1 111 0 discriminator 2
 137 00a6 4FF03F43 	 mov r3,#-1090519040
 138              	.L8:
 139              	 .loc 1 111 0 discriminator 4
 140 00aa F86B     	 ldr r0,[r7,#60]
 141 00ac 1946     	 mov r1,r3
 142 00ae FFF7FEFF 	 bl __aeabi_fadd
 143 00b2 0346     	 mov r3,r0
 144 00b4 FB63     	 str r3,[r7,#60]
 112:../Dave/Generated/CMSIS_DSP/SupportFunctions/arm_float_to_q7.c ****     *pDst++ = (q7_t) (__SSAT((q15_t) (in), 8));
 145              	 .loc 1 112 0 is_stmt 1 discriminator 4
 146 00b6 BC68     	 ldr r4,[r7,#8]
 147 00b8 631C     	 adds r3,r4,#1
 148 00ba BB60     	 str r3,[r7,#8]
 149              	.LBB3:
 150 00bc F86B     	 ldr r0,[r7,#60]
 151 00be FFF7FEFF 	 bl __aeabi_f2iz
 152 00c2 0346     	 mov r3,r0
 153 00c4 9BB2     	 uxth r3,r3
 154 00c6 1BB2     	 sxth r3,r3
 155 00c8 3B63     	 str r3,[r7,#48]
 156 00ca 3B6B     	 ldr r3,[r7,#48]
 157              	
 158 00cc 03F30703 	 ssat r3,#8,r3
 159              	
 160              	 .thumb
 161 00d0 FB62     	 str r3,[r7,#44]
 162 00d2 FB6A     	 ldr r3,[r7,#44]
 163              	.LBE3:
 164 00d4 DBB2     	 uxtb r3,r3
 165 00d6 2370     	 strb r3,[r4]
 113:../Dave/Generated/CMSIS_DSP/SupportFunctions/arm_float_to_q7.c **** 
 114:../Dave/Generated/CMSIS_DSP/SupportFunctions/arm_float_to_q7.c ****     in = *pIn++;
 166              	 .loc 1 114 0 discriminator 4
 167 00d8 7B6C     	 ldr r3,[r7,#68]
 168 00da 1A1D     	 adds r2,r3,#4
 169 00dc 7A64     	 str r2,[r7,#68]
 170 00de 1B68     	 ldr r3,[r3]
 171 00e0 FB63     	 str r3,[r7,#60]
 115:../Dave/Generated/CMSIS_DSP/SupportFunctions/arm_float_to_q7.c ****     in = (in * 128);
 172              	 .loc 1 115 0 discriminator 4
 173 00e2 F86B     	 ldr r0,[r7,#60]
 174 00e4 4FF08641 	 mov r1,#1124073472
 175 00e8 FFF7FEFF 	 bl __aeabi_fmul
 176 00ec 0346     	 mov r3,r0
 177 00ee FB63     	 str r3,[r7,#60]
 116:../Dave/Generated/CMSIS_DSP/SupportFunctions/arm_float_to_q7.c ****     in += in > 0.0f ? 0.5f : -0.5f;
 178              	 .loc 1 116 0 discriminator 4
 179 00f0 F86B     	 ldr r0,[r7,#60]
 180 00f2 4FF00001 	 mov r1,#0
 181 00f6 FFF7FEFF 	 bl __aeabi_fcmpgt
 182 00fa 0346     	 mov r3,r0
 183 00fc 002B     	 cmp r3,#0
 184 00fe 02D0     	 beq .L28
 185              	 .loc 1 116 0 is_stmt 0 discriminator 1
 186 0100 4FF07C53 	 mov r3,#1056964608
 187 0104 01E0     	 b .L11
 188              	.L28:
 189              	 .loc 1 116 0 discriminator 2
 190 0106 4FF03F43 	 mov r3,#-1090519040
 191              	.L11:
 192              	 .loc 1 116 0 discriminator 4
 193 010a F86B     	 ldr r0,[r7,#60]
 194 010c 1946     	 mov r1,r3
 195 010e FFF7FEFF 	 bl __aeabi_fadd
 196 0112 0346     	 mov r3,r0
 197 0114 FB63     	 str r3,[r7,#60]
 117:../Dave/Generated/CMSIS_DSP/SupportFunctions/arm_float_to_q7.c ****     *pDst++ = (q7_t) (__SSAT((q15_t) (in), 8));
 198              	 .loc 1 117 0 is_stmt 1 discriminator 4
 199 0116 BC68     	 ldr r4,[r7,#8]
 200 0118 631C     	 adds r3,r4,#1
 201 011a BB60     	 str r3,[r7,#8]
 202              	.LBB4:
 203 011c F86B     	 ldr r0,[r7,#60]
 204 011e FFF7FEFF 	 bl __aeabi_f2iz
 205 0122 0346     	 mov r3,r0
 206 0124 9BB2     	 uxth r3,r3
 207 0126 1BB2     	 sxth r3,r3
 208 0128 BB62     	 str r3,[r7,#40]
 209 012a BB6A     	 ldr r3,[r7,#40]
 210              	
 211 012c 03F30703 	 ssat r3,#8,r3
 212              	
 213              	 .thumb
 214 0130 7B62     	 str r3,[r7,#36]
 215 0132 7B6A     	 ldr r3,[r7,#36]
 216              	.LBE4:
 217 0134 DBB2     	 uxtb r3,r3
 218 0136 2370     	 strb r3,[r4]
 118:../Dave/Generated/CMSIS_DSP/SupportFunctions/arm_float_to_q7.c **** 
 119:../Dave/Generated/CMSIS_DSP/SupportFunctions/arm_float_to_q7.c ****     in = *pIn++;
 219              	 .loc 1 119 0 discriminator 4
 220 0138 7B6C     	 ldr r3,[r7,#68]
 221 013a 1A1D     	 adds r2,r3,#4
 222 013c 7A64     	 str r2,[r7,#68]
 223 013e 1B68     	 ldr r3,[r3]
 224 0140 FB63     	 str r3,[r7,#60]
 120:../Dave/Generated/CMSIS_DSP/SupportFunctions/arm_float_to_q7.c ****     in = (in * 128);
 225              	 .loc 1 120 0 discriminator 4
 226 0142 F86B     	 ldr r0,[r7,#60]
 227 0144 4FF08641 	 mov r1,#1124073472
 228 0148 FFF7FEFF 	 bl __aeabi_fmul
 229 014c 0346     	 mov r3,r0
 230 014e FB63     	 str r3,[r7,#60]
 121:../Dave/Generated/CMSIS_DSP/SupportFunctions/arm_float_to_q7.c ****     in += in > 0.0f ? 0.5f : -0.5f;
 231              	 .loc 1 121 0 discriminator 4
 232 0150 F86B     	 ldr r0,[r7,#60]
 233 0152 4FF00001 	 mov r1,#0
 234 0156 FFF7FEFF 	 bl __aeabi_fcmpgt
 235 015a 0346     	 mov r3,r0
 236 015c 002B     	 cmp r3,#0
 237 015e 02D0     	 beq .L29
 238              	 .loc 1 121 0 is_stmt 0 discriminator 1
 239 0160 4FF07C53 	 mov r3,#1056964608
 240 0164 01E0     	 b .L14
 241              	.L29:
 242              	 .loc 1 121 0 discriminator 2
 243 0166 4FF03F43 	 mov r3,#-1090519040
 244              	.L14:
 245              	 .loc 1 121 0 discriminator 4
 246 016a F86B     	 ldr r0,[r7,#60]
 247 016c 1946     	 mov r1,r3
 248 016e FFF7FEFF 	 bl __aeabi_fadd
 249 0172 0346     	 mov r3,r0
 250 0174 FB63     	 str r3,[r7,#60]
 122:../Dave/Generated/CMSIS_DSP/SupportFunctions/arm_float_to_q7.c ****     *pDst++ = (q7_t) (__SSAT((q15_t) (in), 8));
 251              	 .loc 1 122 0 is_stmt 1 discriminator 4
 252 0176 BC68     	 ldr r4,[r7,#8]
 253 0178 631C     	 adds r3,r4,#1
 254 017a BB60     	 str r3,[r7,#8]
 255              	.LBB5:
 256 017c F86B     	 ldr r0,[r7,#60]
 257 017e FFF7FEFF 	 bl __aeabi_f2iz
 258 0182 0346     	 mov r3,r0
 259 0184 9BB2     	 uxth r3,r3
 260 0186 1BB2     	 sxth r3,r3
 261 0188 3B62     	 str r3,[r7,#32]
 262 018a 3B6A     	 ldr r3,[r7,#32]
 263              	
 264 018c 03F30703 	 ssat r3,#8,r3
 265              	
 266              	 .thumb
 267 0190 FB61     	 str r3,[r7,#28]
 268 0192 FB69     	 ldr r3,[r7,#28]
 269              	.LBE5:
 270 0194 DBB2     	 uxtb r3,r3
 271 0196 2370     	 strb r3,[r4]
 123:../Dave/Generated/CMSIS_DSP/SupportFunctions/arm_float_to_q7.c **** 
 124:../Dave/Generated/CMSIS_DSP/SupportFunctions/arm_float_to_q7.c **** #else
 125:../Dave/Generated/CMSIS_DSP/SupportFunctions/arm_float_to_q7.c **** 
 126:../Dave/Generated/CMSIS_DSP/SupportFunctions/arm_float_to_q7.c ****     /* C = A * 128 */
 127:../Dave/Generated/CMSIS_DSP/SupportFunctions/arm_float_to_q7.c ****     /* convert from float to q7 and then store the results in the destination buffer */
 128:../Dave/Generated/CMSIS_DSP/SupportFunctions/arm_float_to_q7.c ****     *pDst++ = __SSAT((q31_t) (*pIn++ * 128.0f), 8);
 129:../Dave/Generated/CMSIS_DSP/SupportFunctions/arm_float_to_q7.c ****     *pDst++ = __SSAT((q31_t) (*pIn++ * 128.0f), 8);
 130:../Dave/Generated/CMSIS_DSP/SupportFunctions/arm_float_to_q7.c ****     *pDst++ = __SSAT((q31_t) (*pIn++ * 128.0f), 8);
 131:../Dave/Generated/CMSIS_DSP/SupportFunctions/arm_float_to_q7.c ****     *pDst++ = __SSAT((q31_t) (*pIn++ * 128.0f), 8);
 132:../Dave/Generated/CMSIS_DSP/SupportFunctions/arm_float_to_q7.c **** 
 133:../Dave/Generated/CMSIS_DSP/SupportFunctions/arm_float_to_q7.c **** #endif /*      #ifdef ARM_MATH_ROUNDING        */
 134:../Dave/Generated/CMSIS_DSP/SupportFunctions/arm_float_to_q7.c **** 
 135:../Dave/Generated/CMSIS_DSP/SupportFunctions/arm_float_to_q7.c ****     /* Decrement the loop counter */
 136:../Dave/Generated/CMSIS_DSP/SupportFunctions/arm_float_to_q7.c ****     blkCnt--;
 272              	 .loc 1 136 0 discriminator 4
 273 0198 3B6C     	 ldr r3,[r7,#64]
 274 019a 013B     	 subs r3,r3,#1
 275 019c 3B64     	 str r3,[r7,#64]
 276              	.L2:
  98:../Dave/Generated/CMSIS_DSP/SupportFunctions/arm_float_to_q7.c ****   {
 277              	 .loc 1 98 0
 278 019e 3B6C     	 ldr r3,[r7,#64]
 279 01a0 002B     	 cmp r3,#0
 280 01a2 7FF439AF 	 bne .L15
 137:../Dave/Generated/CMSIS_DSP/SupportFunctions/arm_float_to_q7.c ****   }
 138:../Dave/Generated/CMSIS_DSP/SupportFunctions/arm_float_to_q7.c **** 
 139:../Dave/Generated/CMSIS_DSP/SupportFunctions/arm_float_to_q7.c ****   /* If the blockSize is not a multiple of 4, compute any remaining output samples here.    
 140:../Dave/Generated/CMSIS_DSP/SupportFunctions/arm_float_to_q7.c ****    ** No loop unrolling is used. */
 141:../Dave/Generated/CMSIS_DSP/SupportFunctions/arm_float_to_q7.c ****   blkCnt = blockSize % 0x4u;
 281              	 .loc 1 141 0
 282 01a6 7B68     	 ldr r3,[r7,#4]
 283 01a8 03F00303 	 and r3,r3,#3
 284 01ac 3B64     	 str r3,[r7,#64]
 142:../Dave/Generated/CMSIS_DSP/SupportFunctions/arm_float_to_q7.c **** 
 143:../Dave/Generated/CMSIS_DSP/SupportFunctions/arm_float_to_q7.c ****   while(blkCnt > 0u)
 285              	 .loc 1 143 0
 286 01ae 32E0     	 b .L16
 287              	.L20:
 144:../Dave/Generated/CMSIS_DSP/SupportFunctions/arm_float_to_q7.c ****   {
 145:../Dave/Generated/CMSIS_DSP/SupportFunctions/arm_float_to_q7.c **** 
 146:../Dave/Generated/CMSIS_DSP/SupportFunctions/arm_float_to_q7.c **** #ifdef ARM_MATH_ROUNDING
 147:../Dave/Generated/CMSIS_DSP/SupportFunctions/arm_float_to_q7.c ****     /* C = A * 128 */
 148:../Dave/Generated/CMSIS_DSP/SupportFunctions/arm_float_to_q7.c ****     /* convert from float to q7 and then store the results in the destination buffer */
 149:../Dave/Generated/CMSIS_DSP/SupportFunctions/arm_float_to_q7.c ****     in = *pIn++;
 288              	 .loc 1 149 0
 289 01b0 7B6C     	 ldr r3,[r7,#68]
 290 01b2 1A1D     	 adds r2,r3,#4
 291 01b4 7A64     	 str r2,[r7,#68]
 292 01b6 1B68     	 ldr r3,[r3]
 293 01b8 FB63     	 str r3,[r7,#60]
 150:../Dave/Generated/CMSIS_DSP/SupportFunctions/arm_float_to_q7.c ****     in = (in * 128);
 294              	 .loc 1 150 0
 295 01ba F86B     	 ldr r0,[r7,#60]
 296 01bc 4FF08641 	 mov r1,#1124073472
 297 01c0 FFF7FEFF 	 bl __aeabi_fmul
 298 01c4 0346     	 mov r3,r0
 299 01c6 FB63     	 str r3,[r7,#60]
 151:../Dave/Generated/CMSIS_DSP/SupportFunctions/arm_float_to_q7.c ****     in += in > 0.0f ? 0.5f : -0.5f;
 300              	 .loc 1 151 0
 301 01c8 F86B     	 ldr r0,[r7,#60]
 302 01ca 4FF00001 	 mov r1,#0
 303 01ce FFF7FEFF 	 bl __aeabi_fcmpgt
 304 01d2 0346     	 mov r3,r0
 305 01d4 002B     	 cmp r3,#0
 306 01d6 02D0     	 beq .L30
 307              	 .loc 1 151 0 is_stmt 0 discriminator 1
 308 01d8 4FF07C53 	 mov r3,#1056964608
 309 01dc 01E0     	 b .L19
 310              	.L30:
 311              	 .loc 1 151 0 discriminator 2
 312 01de 4FF03F43 	 mov r3,#-1090519040
 313              	.L19:
 314              	 .loc 1 151 0 discriminator 4
 315 01e2 F86B     	 ldr r0,[r7,#60]
 316 01e4 1946     	 mov r1,r3
 317 01e6 FFF7FEFF 	 bl __aeabi_fadd
 318 01ea 0346     	 mov r3,r0
 319 01ec FB63     	 str r3,[r7,#60]
 152:../Dave/Generated/CMSIS_DSP/SupportFunctions/arm_float_to_q7.c ****     *pDst++ = (q7_t) (__SSAT((q15_t) (in), 8));
 320              	 .loc 1 152 0 is_stmt 1 discriminator 4
 321 01ee BC68     	 ldr r4,[r7,#8]
 322 01f0 631C     	 adds r3,r4,#1
 323 01f2 BB60     	 str r3,[r7,#8]
 324              	.LBB6:
 325 01f4 F86B     	 ldr r0,[r7,#60]
 326 01f6 FFF7FEFF 	 bl __aeabi_f2iz
 327 01fa 0346     	 mov r3,r0
 328 01fc 9BB2     	 uxth r3,r3
 329 01fe 1BB2     	 sxth r3,r3
 330 0200 BB61     	 str r3,[r7,#24]
 331 0202 BB69     	 ldr r3,[r7,#24]
 332              	
 333 0204 03F30703 	 ssat r3,#8,r3
 334              	
 335              	 .thumb
 336 0208 7B61     	 str r3,[r7,#20]
 337 020a 7B69     	 ldr r3,[r7,#20]
 338              	.LBE6:
 339 020c DBB2     	 uxtb r3,r3
 340 020e 2370     	 strb r3,[r4]
 153:../Dave/Generated/CMSIS_DSP/SupportFunctions/arm_float_to_q7.c **** 
 154:../Dave/Generated/CMSIS_DSP/SupportFunctions/arm_float_to_q7.c **** #else
 155:../Dave/Generated/CMSIS_DSP/SupportFunctions/arm_float_to_q7.c **** 
 156:../Dave/Generated/CMSIS_DSP/SupportFunctions/arm_float_to_q7.c ****     /* C = A * 128 */
 157:../Dave/Generated/CMSIS_DSP/SupportFunctions/arm_float_to_q7.c ****     /* convert from float to q7 and then store the results in the destination buffer */
 158:../Dave/Generated/CMSIS_DSP/SupportFunctions/arm_float_to_q7.c ****     *pDst++ = __SSAT((q31_t) (*pIn++ * 128.0f), 8);
 159:../Dave/Generated/CMSIS_DSP/SupportFunctions/arm_float_to_q7.c **** 
 160:../Dave/Generated/CMSIS_DSP/SupportFunctions/arm_float_to_q7.c **** #endif /*      #ifdef ARM_MATH_ROUNDING        */
 161:../Dave/Generated/CMSIS_DSP/SupportFunctions/arm_float_to_q7.c **** 
 162:../Dave/Generated/CMSIS_DSP/SupportFunctions/arm_float_to_q7.c ****     /* Decrement the loop counter */
 163:../Dave/Generated/CMSIS_DSP/SupportFunctions/arm_float_to_q7.c ****     blkCnt--;
 341              	 .loc 1 163 0 discriminator 4
 342 0210 3B6C     	 ldr r3,[r7,#64]
 343 0212 013B     	 subs r3,r3,#1
 344 0214 3B64     	 str r3,[r7,#64]
 345              	.L16:
 143:../Dave/Generated/CMSIS_DSP/SupportFunctions/arm_float_to_q7.c ****   {
 346              	 .loc 1 143 0
 347 0216 3B6C     	 ldr r3,[r7,#64]
 348 0218 002B     	 cmp r3,#0
 349 021a C9D1     	 bne .L20
 164:../Dave/Generated/CMSIS_DSP/SupportFunctions/arm_float_to_q7.c ****   }
 165:../Dave/Generated/CMSIS_DSP/SupportFunctions/arm_float_to_q7.c **** 
 166:../Dave/Generated/CMSIS_DSP/SupportFunctions/arm_float_to_q7.c **** 
 167:../Dave/Generated/CMSIS_DSP/SupportFunctions/arm_float_to_q7.c **** #else
 168:../Dave/Generated/CMSIS_DSP/SupportFunctions/arm_float_to_q7.c **** 
 169:../Dave/Generated/CMSIS_DSP/SupportFunctions/arm_float_to_q7.c ****   /* Run the below code for Cortex-M0 */
 170:../Dave/Generated/CMSIS_DSP/SupportFunctions/arm_float_to_q7.c **** 
 171:../Dave/Generated/CMSIS_DSP/SupportFunctions/arm_float_to_q7.c **** 
 172:../Dave/Generated/CMSIS_DSP/SupportFunctions/arm_float_to_q7.c ****   /* Loop over blockSize number of values */
 173:../Dave/Generated/CMSIS_DSP/SupportFunctions/arm_float_to_q7.c ****   blkCnt = blockSize;
 174:../Dave/Generated/CMSIS_DSP/SupportFunctions/arm_float_to_q7.c **** 
 175:../Dave/Generated/CMSIS_DSP/SupportFunctions/arm_float_to_q7.c ****   while(blkCnt > 0u)
 176:../Dave/Generated/CMSIS_DSP/SupportFunctions/arm_float_to_q7.c ****   {
 177:../Dave/Generated/CMSIS_DSP/SupportFunctions/arm_float_to_q7.c **** #ifdef ARM_MATH_ROUNDING
 178:../Dave/Generated/CMSIS_DSP/SupportFunctions/arm_float_to_q7.c ****     /* C = A * 128 */
 179:../Dave/Generated/CMSIS_DSP/SupportFunctions/arm_float_to_q7.c ****     /* convert from float to q7 and then store the results in the destination buffer */
 180:../Dave/Generated/CMSIS_DSP/SupportFunctions/arm_float_to_q7.c ****     in = *pIn++;
 181:../Dave/Generated/CMSIS_DSP/SupportFunctions/arm_float_to_q7.c ****     in = (in * 128.0f);
 182:../Dave/Generated/CMSIS_DSP/SupportFunctions/arm_float_to_q7.c ****     in += in > 0 ? 0.5f : -0.5f;
 183:../Dave/Generated/CMSIS_DSP/SupportFunctions/arm_float_to_q7.c ****     *pDst++ = (q7_t) (__SSAT((q31_t) (in), 8));
 184:../Dave/Generated/CMSIS_DSP/SupportFunctions/arm_float_to_q7.c **** 
 185:../Dave/Generated/CMSIS_DSP/SupportFunctions/arm_float_to_q7.c **** #else
 186:../Dave/Generated/CMSIS_DSP/SupportFunctions/arm_float_to_q7.c **** 
 187:../Dave/Generated/CMSIS_DSP/SupportFunctions/arm_float_to_q7.c ****     /* C = A * 128 */
 188:../Dave/Generated/CMSIS_DSP/SupportFunctions/arm_float_to_q7.c ****     /* convert from float to q7 and then store the results in the destination buffer */
 189:../Dave/Generated/CMSIS_DSP/SupportFunctions/arm_float_to_q7.c ****     *pDst++ = (q7_t) __SSAT((q31_t) (*pIn++ * 128.0f), 8);
 190:../Dave/Generated/CMSIS_DSP/SupportFunctions/arm_float_to_q7.c **** 
 191:../Dave/Generated/CMSIS_DSP/SupportFunctions/arm_float_to_q7.c **** #endif /*      #ifdef ARM_MATH_ROUNDING        */
 192:../Dave/Generated/CMSIS_DSP/SupportFunctions/arm_float_to_q7.c **** 
 193:../Dave/Generated/CMSIS_DSP/SupportFunctions/arm_float_to_q7.c ****     /* Decrement the loop counter */
 194:../Dave/Generated/CMSIS_DSP/SupportFunctions/arm_float_to_q7.c ****     blkCnt--;
 195:../Dave/Generated/CMSIS_DSP/SupportFunctions/arm_float_to_q7.c ****   }
 196:../Dave/Generated/CMSIS_DSP/SupportFunctions/arm_float_to_q7.c **** 
 197:../Dave/Generated/CMSIS_DSP/SupportFunctions/arm_float_to_q7.c **** #endif /* #ifndef ARM_MATH_CM0_FAMILY */
 198:../Dave/Generated/CMSIS_DSP/SupportFunctions/arm_float_to_q7.c **** 
 199:../Dave/Generated/CMSIS_DSP/SupportFunctions/arm_float_to_q7.c **** }
 350              	 .loc 1 199 0
 351 021c 4C37     	 adds r7,r7,#76
 352              	.LCFI3:
 353              	 .cfi_def_cfa_offset 12
 354 021e BD46     	 mov sp,r7
 355              	.LCFI4:
 356              	 .cfi_def_cfa_register 13
 357              	 
 358 0220 90BD     	 pop {r4,r7,pc}
 359              	 .cfi_endproc
 360              	.LFE139:
 362 0222 00BF     	 .text
 363              	.Letext0:
 364              	 .file 2 "c:\\davev4-64bit\\dave-4.2.6\\eclipse\\arm-gcc-49\\arm-none-eabi\\include\\machine\\_default_types.h"
 365              	 .file 3 "c:\\davev4-64bit\\dave-4.2.6\\eclipse\\arm-gcc-49\\arm-none-eabi\\include\\stdint.h"
 366              	 .file 4 "C:\\Users\\Depes Crystalline\\Desktop\\school\\Active_Bike_Lighting_System\\Radar_Core\\Dave\\Generated/CMSIS_DSP/arm_math.h"