   1              	 .syntax unified
   2              	 .cpu cortex-m4
   3              	 .fpu softvfp
   4              	 .eabi_attribute 20,1
   5              	 .eabi_attribute 21,1
   6              	 .eabi_attribute 23,3
   7              	 .eabi_attribute 24,1
   8              	 .eabi_attribute 25,1
   9              	 .eabi_attribute 26,1
  10              	 .eabi_attribute 30,6
  11              	 .eabi_attribute 34,1
  12              	 .eabi_attribute 18,4
  13              	 .thumb
  14              	 .file "arm_copy_q15.c"
  15              	 .text
  16              	.Ltext0:
  17              	 .cfi_sections .debug_frame
  18              	 .section .text.arm_copy_q15,"ax",%progbits
  19              	 .align 2
  20              	 .global arm_copy_q15
  21              	 .thumb
  22              	 .thumb_func
  24              	arm_copy_q15:
  25              	.LFB139:
  26              	 .file 1 "../Dave/Generated/CMSIS_DSP/SupportFunctions/arm_copy_q15.c"
   1:../Dave/Generated/CMSIS_DSP/SupportFunctions/arm_copy_q15.c **** /* ----------------------------------------------------------------------    
   2:../Dave/Generated/CMSIS_DSP/SupportFunctions/arm_copy_q15.c **** * Copyright (C) 2010-2014 ARM Limited. All rights reserved.    
   3:../Dave/Generated/CMSIS_DSP/SupportFunctions/arm_copy_q15.c **** *    
   4:../Dave/Generated/CMSIS_DSP/SupportFunctions/arm_copy_q15.c **** * $Date:        31. July 2014
   5:../Dave/Generated/CMSIS_DSP/SupportFunctions/arm_copy_q15.c **** * $Revision: 	V1.4.4  
   6:../Dave/Generated/CMSIS_DSP/SupportFunctions/arm_copy_q15.c **** *    
   7:../Dave/Generated/CMSIS_DSP/SupportFunctions/arm_copy_q15.c **** * Project: 	    CMSIS DSP Library    
   8:../Dave/Generated/CMSIS_DSP/SupportFunctions/arm_copy_q15.c **** * Title:		arm_copy_q15.c    
   9:../Dave/Generated/CMSIS_DSP/SupportFunctions/arm_copy_q15.c **** *    
  10:../Dave/Generated/CMSIS_DSP/SupportFunctions/arm_copy_q15.c **** * Description:	Copies the elements of a Q15 vector.   
  11:../Dave/Generated/CMSIS_DSP/SupportFunctions/arm_copy_q15.c **** *    
  12:../Dave/Generated/CMSIS_DSP/SupportFunctions/arm_copy_q15.c **** * Target Processor: Cortex-M4/Cortex-M3/Cortex-M0
  13:../Dave/Generated/CMSIS_DSP/SupportFunctions/arm_copy_q15.c **** *  
  14:../Dave/Generated/CMSIS_DSP/SupportFunctions/arm_copy_q15.c **** * Redistribution and use in source and binary forms, with or without 
  15:../Dave/Generated/CMSIS_DSP/SupportFunctions/arm_copy_q15.c **** * modification, are permitted provided that the following conditions
  16:../Dave/Generated/CMSIS_DSP/SupportFunctions/arm_copy_q15.c **** * are met:
  17:../Dave/Generated/CMSIS_DSP/SupportFunctions/arm_copy_q15.c **** *   - Redistributions of source code must retain the above copyright
  18:../Dave/Generated/CMSIS_DSP/SupportFunctions/arm_copy_q15.c **** *     notice, this list of conditions and the following disclaimer.
  19:../Dave/Generated/CMSIS_DSP/SupportFunctions/arm_copy_q15.c **** *   - Redistributions in binary form must reproduce the above copyright
  20:../Dave/Generated/CMSIS_DSP/SupportFunctions/arm_copy_q15.c **** *     notice, this list of conditions and the following disclaimer in
  21:../Dave/Generated/CMSIS_DSP/SupportFunctions/arm_copy_q15.c **** *     the documentation and/or other materials provided with the 
  22:../Dave/Generated/CMSIS_DSP/SupportFunctions/arm_copy_q15.c **** *     distribution.
  23:../Dave/Generated/CMSIS_DSP/SupportFunctions/arm_copy_q15.c **** *   - Neither the name of ARM LIMITED nor the names of its contributors
  24:../Dave/Generated/CMSIS_DSP/SupportFunctions/arm_copy_q15.c **** *     may be used to endorse or promote products derived from this
  25:../Dave/Generated/CMSIS_DSP/SupportFunctions/arm_copy_q15.c **** *     software without specific prior written permission.
  26:../Dave/Generated/CMSIS_DSP/SupportFunctions/arm_copy_q15.c **** *
  27:../Dave/Generated/CMSIS_DSP/SupportFunctions/arm_copy_q15.c **** * THIS SOFTWARE IS PROVIDED BY THE COPYRIGHT HOLDERS AND CONTRIBUTORS
  28:../Dave/Generated/CMSIS_DSP/SupportFunctions/arm_copy_q15.c **** * "AS IS" AND ANY EXPRESS OR IMPLIED WARRANTIES, INCLUDING, BUT NOT
  29:../Dave/Generated/CMSIS_DSP/SupportFunctions/arm_copy_q15.c **** * LIMITED TO, THE IMPLIED WARRANTIES OF MERCHANTABILITY AND FITNESS
  30:../Dave/Generated/CMSIS_DSP/SupportFunctions/arm_copy_q15.c **** * FOR A PARTICULAR PURPOSE ARE DISCLAIMED. IN NO EVENT SHALL THE 
  31:../Dave/Generated/CMSIS_DSP/SupportFunctions/arm_copy_q15.c **** * COPYRIGHT OWNER OR CONTRIBUTORS BE LIABLE FOR ANY DIRECT, INDIRECT,
  32:../Dave/Generated/CMSIS_DSP/SupportFunctions/arm_copy_q15.c **** * INCIDENTAL, SPECIAL, EXEMPLARY, OR CONSEQUENTIAL DAMAGES (INCLUDING,
  33:../Dave/Generated/CMSIS_DSP/SupportFunctions/arm_copy_q15.c **** * BUT NOT LIMITED TO, PROCUREMENT OF SUBSTITUTE GOODS OR SERVICES;
  34:../Dave/Generated/CMSIS_DSP/SupportFunctions/arm_copy_q15.c **** * LOSS OF USE, DATA, OR PROFITS; OR BUSINESS INTERRUPTION) HOWEVER
  35:../Dave/Generated/CMSIS_DSP/SupportFunctions/arm_copy_q15.c **** * CAUSED AND ON ANY THEORY OF LIABILITY, WHETHER IN CONTRACT, STRICT
  36:../Dave/Generated/CMSIS_DSP/SupportFunctions/arm_copy_q15.c **** * LIABILITY, OR TORT (INCLUDING NEGLIGENCE OR OTHERWISE) ARISING IN
  37:../Dave/Generated/CMSIS_DSP/SupportFunctions/arm_copy_q15.c **** * ANY WAY OUT OF THE USE OF THIS SOFTWARE, EVEN IF ADVISED OF THE
  38:../Dave/Generated/CMSIS_DSP/SupportFunctions/arm_copy_q15.c **** * POSSIBILITY OF SUCH DAMAGE.   
  39:../Dave/Generated/CMSIS_DSP/SupportFunctions/arm_copy_q15.c **** * -------------------------------------------------------------------- */
  40:../Dave/Generated/CMSIS_DSP/SupportFunctions/arm_copy_q15.c **** 
  41:../Dave/Generated/CMSIS_DSP/SupportFunctions/arm_copy_q15.c **** #include "CMSIS_DSP/cmsis_dsp.h"
  42:../Dave/Generated/CMSIS_DSP/SupportFunctions/arm_copy_q15.c **** 
  43:../Dave/Generated/CMSIS_DSP/SupportFunctions/arm_copy_q15.c **** /**    
  44:../Dave/Generated/CMSIS_DSP/SupportFunctions/arm_copy_q15.c ****  * @ingroup groupSupport    
  45:../Dave/Generated/CMSIS_DSP/SupportFunctions/arm_copy_q15.c ****  */
  46:../Dave/Generated/CMSIS_DSP/SupportFunctions/arm_copy_q15.c **** 
  47:../Dave/Generated/CMSIS_DSP/SupportFunctions/arm_copy_q15.c **** /**    
  48:../Dave/Generated/CMSIS_DSP/SupportFunctions/arm_copy_q15.c ****  * @addtogroup copy    
  49:../Dave/Generated/CMSIS_DSP/SupportFunctions/arm_copy_q15.c ****  * @{    
  50:../Dave/Generated/CMSIS_DSP/SupportFunctions/arm_copy_q15.c ****  */
  51:../Dave/Generated/CMSIS_DSP/SupportFunctions/arm_copy_q15.c **** /**    
  52:../Dave/Generated/CMSIS_DSP/SupportFunctions/arm_copy_q15.c ****  * @brief Copies the elements of a Q15 vector.     
  53:../Dave/Generated/CMSIS_DSP/SupportFunctions/arm_copy_q15.c ****  * @param[in]       *pSrc points to input vector    
  54:../Dave/Generated/CMSIS_DSP/SupportFunctions/arm_copy_q15.c ****  * @param[out]      *pDst points to output vector    
  55:../Dave/Generated/CMSIS_DSP/SupportFunctions/arm_copy_q15.c ****  * @param[in]       blockSize length of the input vector   
  56:../Dave/Generated/CMSIS_DSP/SupportFunctions/arm_copy_q15.c ****  * @return none.    
  57:../Dave/Generated/CMSIS_DSP/SupportFunctions/arm_copy_q15.c ****  *    
  58:../Dave/Generated/CMSIS_DSP/SupportFunctions/arm_copy_q15.c ****  */
  59:../Dave/Generated/CMSIS_DSP/SupportFunctions/arm_copy_q15.c **** 
  60:../Dave/Generated/CMSIS_DSP/SupportFunctions/arm_copy_q15.c **** void arm_copy_q15(
  61:../Dave/Generated/CMSIS_DSP/SupportFunctions/arm_copy_q15.c ****   q15_t * pSrc,
  62:../Dave/Generated/CMSIS_DSP/SupportFunctions/arm_copy_q15.c ****   q15_t * pDst,
  63:../Dave/Generated/CMSIS_DSP/SupportFunctions/arm_copy_q15.c ****   uint32_t blockSize)
  64:../Dave/Generated/CMSIS_DSP/SupportFunctions/arm_copy_q15.c **** {
  27              	 .loc 1 64 0
  28              	 .cfi_startproc
  29              	 
  30              	 
  31              	 
  32 0000 80B4     	 push {r7}
  33              	.LCFI0:
  34              	 .cfi_def_cfa_offset 4
  35              	 .cfi_offset 7,-4
  36 0002 87B0     	 sub sp,sp,#28
  37              	.LCFI1:
  38              	 .cfi_def_cfa_offset 32
  39 0004 00AF     	 add r7,sp,#0
  40              	.LCFI2:
  41              	 .cfi_def_cfa_register 7
  42 0006 F860     	 str r0,[r7,#12]
  43 0008 B960     	 str r1,[r7,#8]
  44 000a 7A60     	 str r2,[r7,#4]
  65:../Dave/Generated/CMSIS_DSP/SupportFunctions/arm_copy_q15.c ****   uint32_t blkCnt;                               /* loop counter */
  66:../Dave/Generated/CMSIS_DSP/SupportFunctions/arm_copy_q15.c **** 
  67:../Dave/Generated/CMSIS_DSP/SupportFunctions/arm_copy_q15.c **** #ifndef ARM_MATH_CM0_FAMILY
  68:../Dave/Generated/CMSIS_DSP/SupportFunctions/arm_copy_q15.c **** 
  69:../Dave/Generated/CMSIS_DSP/SupportFunctions/arm_copy_q15.c ****   /* Run the below code for Cortex-M4 and Cortex-M3 */
  70:../Dave/Generated/CMSIS_DSP/SupportFunctions/arm_copy_q15.c **** 
  71:../Dave/Generated/CMSIS_DSP/SupportFunctions/arm_copy_q15.c ****   /*loop Unrolling */
  72:../Dave/Generated/CMSIS_DSP/SupportFunctions/arm_copy_q15.c ****   blkCnt = blockSize >> 2u;
  45              	 .loc 1 72 0
  46 000c 7B68     	 ldr r3,[r7,#4]
  47 000e 9B08     	 lsrs r3,r3,#2
  48 0010 7B61     	 str r3,[r7,#20]
  73:../Dave/Generated/CMSIS_DSP/SupportFunctions/arm_copy_q15.c **** 
  74:../Dave/Generated/CMSIS_DSP/SupportFunctions/arm_copy_q15.c ****   /* First part of the processing with loop unrolling.  Compute 4 outputs at a time.    
  75:../Dave/Generated/CMSIS_DSP/SupportFunctions/arm_copy_q15.c ****    ** a second loop below computes the remaining 1 to 3 samples. */
  76:../Dave/Generated/CMSIS_DSP/SupportFunctions/arm_copy_q15.c ****   while(blkCnt > 0u)
  49              	 .loc 1 76 0
  50 0012 1AE0     	 b .L2
  51              	.L3:
  77:../Dave/Generated/CMSIS_DSP/SupportFunctions/arm_copy_q15.c ****   {
  78:../Dave/Generated/CMSIS_DSP/SupportFunctions/arm_copy_q15.c ****     /* C = A */
  79:../Dave/Generated/CMSIS_DSP/SupportFunctions/arm_copy_q15.c ****     /* Read two inputs */
  80:../Dave/Generated/CMSIS_DSP/SupportFunctions/arm_copy_q15.c ****     *__SIMD32(pDst)++ = *__SIMD32(pSrc)++;
  52              	 .loc 1 80 0
  53 0014 07F10802 	 add r2,r7,#8
  54 0018 1368     	 ldr r3,[r2]
  55 001a 191D     	 adds r1,r3,#4
  56 001c 1160     	 str r1,[r2]
  57 001e 07F10C01 	 add r1,r7,#12
  58 0022 0A68     	 ldr r2,[r1]
  59 0024 101D     	 adds r0,r2,#4
  60 0026 0860     	 str r0,[r1]
  61 0028 1268     	 ldr r2,[r2]
  62 002a 1A60     	 str r2,[r3]
  81:../Dave/Generated/CMSIS_DSP/SupportFunctions/arm_copy_q15.c ****     *__SIMD32(pDst)++ = *__SIMD32(pSrc)++;
  63              	 .loc 1 81 0
  64 002c 07F10802 	 add r2,r7,#8
  65 0030 1368     	 ldr r3,[r2]
  66 0032 191D     	 adds r1,r3,#4
  67 0034 1160     	 str r1,[r2]
  68 0036 07F10C01 	 add r1,r7,#12
  69 003a 0A68     	 ldr r2,[r1]
  70 003c 101D     	 adds r0,r2,#4
  71 003e 0860     	 str r0,[r1]
  72 0040 1268     	 ldr r2,[r2]
  73 0042 1A60     	 str r2,[r3]
  82:../Dave/Generated/CMSIS_DSP/SupportFunctions/arm_copy_q15.c **** 
  83:../Dave/Generated/CMSIS_DSP/SupportFunctions/arm_copy_q15.c ****     /* Decrement the loop counter */
  84:../Dave/Generated/CMSIS_DSP/SupportFunctions/arm_copy_q15.c ****     blkCnt--;
  74              	 .loc 1 84 0
  75 0044 7B69     	 ldr r3,[r7,#20]
  76 0046 013B     	 subs r3,r3,#1
  77 0048 7B61     	 str r3,[r7,#20]
  78              	.L2:
  76:../Dave/Generated/CMSIS_DSP/SupportFunctions/arm_copy_q15.c ****   {
  79              	 .loc 1 76 0
  80 004a 7B69     	 ldr r3,[r7,#20]
  81 004c 002B     	 cmp r3,#0
  82 004e E1D1     	 bne .L3
  85:../Dave/Generated/CMSIS_DSP/SupportFunctions/arm_copy_q15.c ****   }
  86:../Dave/Generated/CMSIS_DSP/SupportFunctions/arm_copy_q15.c **** 
  87:../Dave/Generated/CMSIS_DSP/SupportFunctions/arm_copy_q15.c ****   /* If the blockSize is not a multiple of 4, compute any remaining output samples here.    
  88:../Dave/Generated/CMSIS_DSP/SupportFunctions/arm_copy_q15.c ****    ** No loop unrolling is used. */
  89:../Dave/Generated/CMSIS_DSP/SupportFunctions/arm_copy_q15.c ****   blkCnt = blockSize % 0x4u;
  83              	 .loc 1 89 0
  84 0050 7B68     	 ldr r3,[r7,#4]
  85 0052 03F00303 	 and r3,r3,#3
  86 0056 7B61     	 str r3,[r7,#20]
  90:../Dave/Generated/CMSIS_DSP/SupportFunctions/arm_copy_q15.c **** 
  91:../Dave/Generated/CMSIS_DSP/SupportFunctions/arm_copy_q15.c **** 
  92:../Dave/Generated/CMSIS_DSP/SupportFunctions/arm_copy_q15.c **** #else
  93:../Dave/Generated/CMSIS_DSP/SupportFunctions/arm_copy_q15.c **** 
  94:../Dave/Generated/CMSIS_DSP/SupportFunctions/arm_copy_q15.c ****   /* Run the below code for Cortex-M0 */
  95:../Dave/Generated/CMSIS_DSP/SupportFunctions/arm_copy_q15.c **** 
  96:../Dave/Generated/CMSIS_DSP/SupportFunctions/arm_copy_q15.c ****   /* Loop over blockSize number of values */
  97:../Dave/Generated/CMSIS_DSP/SupportFunctions/arm_copy_q15.c ****   blkCnt = blockSize;
  98:../Dave/Generated/CMSIS_DSP/SupportFunctions/arm_copy_q15.c **** 
  99:../Dave/Generated/CMSIS_DSP/SupportFunctions/arm_copy_q15.c **** #endif /* #ifndef ARM_MATH_CM0_FAMILY */
 100:../Dave/Generated/CMSIS_DSP/SupportFunctions/arm_copy_q15.c **** 
 101:../Dave/Generated/CMSIS_DSP/SupportFunctions/arm_copy_q15.c ****   while(blkCnt > 0u)
  87              	 .loc 1 101 0
  88 0058 0AE0     	 b .L4
  89              	.L5:
 102:../Dave/Generated/CMSIS_DSP/SupportFunctions/arm_copy_q15.c ****   {
 103:../Dave/Generated/CMSIS_DSP/SupportFunctions/arm_copy_q15.c ****     /* C = A */
 104:../Dave/Generated/CMSIS_DSP/SupportFunctions/arm_copy_q15.c ****     /* Copy and then store the value in the destination buffer */
 105:../Dave/Generated/CMSIS_DSP/SupportFunctions/arm_copy_q15.c ****     *pDst++ = *pSrc++;
  90              	 .loc 1 105 0
  91 005a BB68     	 ldr r3,[r7,#8]
  92 005c 9A1C     	 adds r2,r3,#2
  93 005e BA60     	 str r2,[r7,#8]
  94 0060 FA68     	 ldr r2,[r7,#12]
  95 0062 911C     	 adds r1,r2,#2
  96 0064 F960     	 str r1,[r7,#12]
  97 0066 1288     	 ldrh r2,[r2]
  98 0068 1A80     	 strh r2,[r3]
 106:../Dave/Generated/CMSIS_DSP/SupportFunctions/arm_copy_q15.c **** 
 107:../Dave/Generated/CMSIS_DSP/SupportFunctions/arm_copy_q15.c ****     /* Decrement the loop counter */
 108:../Dave/Generated/CMSIS_DSP/SupportFunctions/arm_copy_q15.c ****     blkCnt--;
  99              	 .loc 1 108 0
 100 006a 7B69     	 ldr r3,[r7,#20]
 101 006c 013B     	 subs r3,r3,#1
 102 006e 7B61     	 str r3,[r7,#20]
 103              	.L4:
 101:../Dave/Generated/CMSIS_DSP/SupportFunctions/arm_copy_q15.c ****   {
 104              	 .loc 1 101 0
 105 0070 7B69     	 ldr r3,[r7,#20]
 106 0072 002B     	 cmp r3,#0
 107 0074 F1D1     	 bne .L5
 109:../Dave/Generated/CMSIS_DSP/SupportFunctions/arm_copy_q15.c ****   }
 110:../Dave/Generated/CMSIS_DSP/SupportFunctions/arm_copy_q15.c **** }
 108              	 .loc 1 110 0
 109 0076 1C37     	 adds r7,r7,#28
 110              	.LCFI3:
 111              	 .cfi_def_cfa_offset 4
 112 0078 BD46     	 mov sp,r7
 113              	.LCFI4:
 114              	 .cfi_def_cfa_register 13
 115              	 
 116 007a 5DF8047B 	 ldr r7,[sp],#4
 117              	.LCFI5:
 118              	 .cfi_restore 7
 119              	 .cfi_def_cfa_offset 0
 120 007e 7047     	 bx lr
 121              	 .cfi_endproc
 122              	.LFE139:
 124              	 .text
 125              	.Letext0:
 126              	 .file 2 "c:\\davev4-64bit\\dave-4.2.6\\eclipse\\arm-gcc-49\\arm-none-eabi\\include\\machine\\_default_types.h"
 127              	 .file 3 "c:\\davev4-64bit\\dave-4.2.6\\eclipse\\arm-gcc-49\\arm-none-eabi\\include\\stdint.h"
 128              	 .file 4 "C:\\Users\\Depes Crystalline\\Desktop\\school\\Active_Bike_Lighting_System\\Radar_Core\\Dave\\Generated/CMSIS_DSP/arm_math.h"