   1              	 .syntax unified
   2              	 .cpu cortex-m4
   3              	 .fpu softvfp
   4              	 .eabi_attribute 20,1
   5              	 .eabi_attribute 21,1
   6              	 .eabi_attribute 23,3
   7              	 .eabi_attribute 24,1
   8              	 .eabi_attribute 25,1
   9              	 .eabi_attribute 26,1
  10              	 .eabi_attribute 30,6
  11              	 .eabi_attribute 34,1
  12              	 .eabi_attribute 18,4
  13              	 .thumb
  14              	 .file "main.c"
  15              	 .text
  16              	.Ltext0:
  17              	 .cfi_sections .debug_frame
  18              	 .section .text.XMC_GPIO_SetOutputHigh,"ax",%progbits
  19              	 .align 2
  20              	 .thumb
  21              	 .thumb_func
  23              	XMC_GPIO_SetOutputHigh:
  24              	.LFB129:
  25              	 .file 1 "C:\\Users\\Depes Crystalline\\Desktop\\school\\Active_Bike_Lighting_System\\Radar_Core\\Libraries\\XMCLib\\inc/xmc_gpio.h"
   1:C:\Users\Depes Crystalline\Desktop\school\Active_Bike_Lighting_System\Radar_Core\Libraries\XMCLib\inc\xmc_gpio.h **** /**
   2:C:\Users\Depes Crystalline\Desktop\school\Active_Bike_Lighting_System\Radar_Core\Libraries\XMCLib\inc\xmc_gpio.h ****  * @file xmc_gpio.h
   3:C:\Users\Depes Crystalline\Desktop\school\Active_Bike_Lighting_System\Radar_Core\Libraries\XMCLib\inc\xmc_gpio.h ****  * @date 2015-06-20
   4:C:\Users\Depes Crystalline\Desktop\school\Active_Bike_Lighting_System\Radar_Core\Libraries\XMCLib\inc\xmc_gpio.h ****  *
   5:C:\Users\Depes Crystalline\Desktop\school\Active_Bike_Lighting_System\Radar_Core\Libraries\XMCLib\inc\xmc_gpio.h ****  * @cond
   6:C:\Users\Depes Crystalline\Desktop\school\Active_Bike_Lighting_System\Radar_Core\Libraries\XMCLib\inc\xmc_gpio.h ****   *************************************************************************************************
   7:C:\Users\Depes Crystalline\Desktop\school\Active_Bike_Lighting_System\Radar_Core\Libraries\XMCLib\inc\xmc_gpio.h ****  * XMClib v2.0.0 - XMC Peripheral Driver Library
   8:C:\Users\Depes Crystalline\Desktop\school\Active_Bike_Lighting_System\Radar_Core\Libraries\XMCLib\inc\xmc_gpio.h ****  *
   9:C:\Users\Depes Crystalline\Desktop\school\Active_Bike_Lighting_System\Radar_Core\Libraries\XMCLib\inc\xmc_gpio.h ****  * Copyright (c) 2015, Infineon Technologies AG
  10:C:\Users\Depes Crystalline\Desktop\school\Active_Bike_Lighting_System\Radar_Core\Libraries\XMCLib\inc\xmc_gpio.h ****  * All rights reserved.                        
  11:C:\Users\Depes Crystalline\Desktop\school\Active_Bike_Lighting_System\Radar_Core\Libraries\XMCLib\inc\xmc_gpio.h ****  *                                             
  12:C:\Users\Depes Crystalline\Desktop\school\Active_Bike_Lighting_System\Radar_Core\Libraries\XMCLib\inc\xmc_gpio.h ****  * Redistribution and use in source and binary forms, with or without modification,are permitted pr
  13:C:\Users\Depes Crystalline\Desktop\school\Active_Bike_Lighting_System\Radar_Core\Libraries\XMCLib\inc\xmc_gpio.h ****  * following conditions are met:   
  14:C:\Users\Depes Crystalline\Desktop\school\Active_Bike_Lighting_System\Radar_Core\Libraries\XMCLib\inc\xmc_gpio.h ****  *                                                                              
  15:C:\Users\Depes Crystalline\Desktop\school\Active_Bike_Lighting_System\Radar_Core\Libraries\XMCLib\inc\xmc_gpio.h ****  * Redistributions of source code must retain the above copyright notice, this list of conditions a
  16:C:\Users\Depes Crystalline\Desktop\school\Active_Bike_Lighting_System\Radar_Core\Libraries\XMCLib\inc\xmc_gpio.h ****  * disclaimer.                        
  17:C:\Users\Depes Crystalline\Desktop\school\Active_Bike_Lighting_System\Radar_Core\Libraries\XMCLib\inc\xmc_gpio.h ****  * 
  18:C:\Users\Depes Crystalline\Desktop\school\Active_Bike_Lighting_System\Radar_Core\Libraries\XMCLib\inc\xmc_gpio.h ****  * Redistributions in binary form must reproduce the above copyright notice, this list of condition
  19:C:\Users\Depes Crystalline\Desktop\school\Active_Bike_Lighting_System\Radar_Core\Libraries\XMCLib\inc\xmc_gpio.h ****  * disclaimer in the documentation and/or other materials provided with the distribution.          
  20:C:\Users\Depes Crystalline\Desktop\school\Active_Bike_Lighting_System\Radar_Core\Libraries\XMCLib\inc\xmc_gpio.h ****  * 
  21:C:\Users\Depes Crystalline\Desktop\school\Active_Bike_Lighting_System\Radar_Core\Libraries\XMCLib\inc\xmc_gpio.h ****  * Neither the name of the copyright holders nor the names of its contributors may be used to endor
  22:C:\Users\Depes Crystalline\Desktop\school\Active_Bike_Lighting_System\Radar_Core\Libraries\XMCLib\inc\xmc_gpio.h ****  * products derived from this software without specific prior written permission.                  
  23:C:\Users\Depes Crystalline\Desktop\school\Active_Bike_Lighting_System\Radar_Core\Libraries\XMCLib\inc\xmc_gpio.h ****  *                                                                              
  24:C:\Users\Depes Crystalline\Desktop\school\Active_Bike_Lighting_System\Radar_Core\Libraries\XMCLib\inc\xmc_gpio.h ****  * THIS SOFTWARE IS PROVIDED BY THE COPYRIGHT HOLDERS AND CONTRIBUTORS "AS IS" AND ANY EXPRESS OR I
  25:C:\Users\Depes Crystalline\Desktop\school\Active_Bike_Lighting_System\Radar_Core\Libraries\XMCLib\inc\xmc_gpio.h ****  * INCLUDING, BUT NOT LIMITED TO, THE IMPLIED WARRANTIES OF MERCHANTABILITY AND FITNESS FOR A PARTI
  26:C:\Users\Depes Crystalline\Desktop\school\Active_Bike_Lighting_System\Radar_Core\Libraries\XMCLib\inc\xmc_gpio.h ****  * DISCLAIMED. IN NO EVENT SHALL THE COPYRIGHT HOLDER OR CONTRIBUTORS BE LIABLE  FOR ANY DIRECT, IN
  27:C:\Users\Depes Crystalline\Desktop\school\Active_Bike_Lighting_System\Radar_Core\Libraries\XMCLib\inc\xmc_gpio.h ****  * SPECIAL, EXEMPLARY, OR CONSEQUENTIAL DAMAGES (INCLUDING, BUT NOT LIMITED TO, PROCUREMENT OF SUBS
  28:C:\Users\Depes Crystalline\Desktop\school\Active_Bike_Lighting_System\Radar_Core\Libraries\XMCLib\inc\xmc_gpio.h ****  * SERVICES; LOSS OF USE, DATA, OR PROFITS; OR BUSINESS INTERRUPTION) HOWEVER CAUSED AND ON ANY THE
  29:C:\Users\Depes Crystalline\Desktop\school\Active_Bike_Lighting_System\Radar_Core\Libraries\XMCLib\inc\xmc_gpio.h ****  * WHETHER IN CONTRACT, STRICT LIABILITY,OR TORT (INCLUDING NEGLIGENCE OR OTHERWISE) ARISING IN ANY
  30:C:\Users\Depes Crystalline\Desktop\school\Active_Bike_Lighting_System\Radar_Core\Libraries\XMCLib\inc\xmc_gpio.h ****  * OF THIS SOFTWARE, EVEN IF ADVISED OF THE POSSIBILITY OF SUCH DAMAGE.                            
  31:C:\Users\Depes Crystalline\Desktop\school\Active_Bike_Lighting_System\Radar_Core\Libraries\XMCLib\inc\xmc_gpio.h ****  *                                                                              
  32:C:\Users\Depes Crystalline\Desktop\school\Active_Bike_Lighting_System\Radar_Core\Libraries\XMCLib\inc\xmc_gpio.h ****  * To improve the quality of the software, users are encouraged to share modifications, enhancement
  33:C:\Users\Depes Crystalline\Desktop\school\Active_Bike_Lighting_System\Radar_Core\Libraries\XMCLib\inc\xmc_gpio.h ****  * Infineon Technologies AG dave@infineon.com).                                                    
  34:C:\Users\Depes Crystalline\Desktop\school\Active_Bike_Lighting_System\Radar_Core\Libraries\XMCLib\inc\xmc_gpio.h ****  **************************************************************************************************
  35:C:\Users\Depes Crystalline\Desktop\school\Active_Bike_Lighting_System\Radar_Core\Libraries\XMCLib\inc\xmc_gpio.h ****  *
  36:C:\Users\Depes Crystalline\Desktop\school\Active_Bike_Lighting_System\Radar_Core\Libraries\XMCLib\inc\xmc_gpio.h ****  * Change History
  37:C:\Users\Depes Crystalline\Desktop\school\Active_Bike_Lighting_System\Radar_Core\Libraries\XMCLib\inc\xmc_gpio.h ****  * --------------
  38:C:\Users\Depes Crystalline\Desktop\school\Active_Bike_Lighting_System\Radar_Core\Libraries\XMCLib\inc\xmc_gpio.h ****  *
  39:C:\Users\Depes Crystalline\Desktop\school\Active_Bike_Lighting_System\Radar_Core\Libraries\XMCLib\inc\xmc_gpio.h ****  * 2015-02-20:
  40:C:\Users\Depes Crystalline\Desktop\school\Active_Bike_Lighting_System\Radar_Core\Libraries\XMCLib\inc\xmc_gpio.h ****  *     - Initial draft<br>
  41:C:\Users\Depes Crystalline\Desktop\school\Active_Bike_Lighting_System\Radar_Core\Libraries\XMCLib\inc\xmc_gpio.h ****  *     - Documentation improved <br>
  42:C:\Users\Depes Crystalline\Desktop\school\Active_Bike_Lighting_System\Radar_Core\Libraries\XMCLib\inc\xmc_gpio.h ****  *      
  43:C:\Users\Depes Crystalline\Desktop\school\Active_Bike_Lighting_System\Radar_Core\Libraries\XMCLib\inc\xmc_gpio.h ****  * 2015-06-20:
  44:C:\Users\Depes Crystalline\Desktop\school\Active_Bike_Lighting_System\Radar_Core\Libraries\XMCLib\inc\xmc_gpio.h ****  *     - Removed version macros and declaration of GetDriverVersion API
  45:C:\Users\Depes Crystalline\Desktop\school\Active_Bike_Lighting_System\Radar_Core\Libraries\XMCLib\inc\xmc_gpio.h ****  *
  46:C:\Users\Depes Crystalline\Desktop\school\Active_Bike_Lighting_System\Radar_Core\Libraries\XMCLib\inc\xmc_gpio.h ****  * @endcond
  47:C:\Users\Depes Crystalline\Desktop\school\Active_Bike_Lighting_System\Radar_Core\Libraries\XMCLib\inc\xmc_gpio.h ****  *
  48:C:\Users\Depes Crystalline\Desktop\school\Active_Bike_Lighting_System\Radar_Core\Libraries\XMCLib\inc\xmc_gpio.h ****  */
  49:C:\Users\Depes Crystalline\Desktop\school\Active_Bike_Lighting_System\Radar_Core\Libraries\XMCLib\inc\xmc_gpio.h **** 
  50:C:\Users\Depes Crystalline\Desktop\school\Active_Bike_Lighting_System\Radar_Core\Libraries\XMCLib\inc\xmc_gpio.h **** #ifndef XMC_GPIO_H
  51:C:\Users\Depes Crystalline\Desktop\school\Active_Bike_Lighting_System\Radar_Core\Libraries\XMCLib\inc\xmc_gpio.h **** #define XMC_GPIO_H
  52:C:\Users\Depes Crystalline\Desktop\school\Active_Bike_Lighting_System\Radar_Core\Libraries\XMCLib\inc\xmc_gpio.h **** 
  53:C:\Users\Depes Crystalline\Desktop\school\Active_Bike_Lighting_System\Radar_Core\Libraries\XMCLib\inc\xmc_gpio.h **** /*******************************************************************************
  54:C:\Users\Depes Crystalline\Desktop\school\Active_Bike_Lighting_System\Radar_Core\Libraries\XMCLib\inc\xmc_gpio.h ****  * HEADER FILES
  55:C:\Users\Depes Crystalline\Desktop\school\Active_Bike_Lighting_System\Radar_Core\Libraries\XMCLib\inc\xmc_gpio.h ****  *******************************************************************************/
  56:C:\Users\Depes Crystalline\Desktop\school\Active_Bike_Lighting_System\Radar_Core\Libraries\XMCLib\inc\xmc_gpio.h **** 
  57:C:\Users\Depes Crystalline\Desktop\school\Active_Bike_Lighting_System\Radar_Core\Libraries\XMCLib\inc\xmc_gpio.h **** #include "xmc_common.h"
  58:C:\Users\Depes Crystalline\Desktop\school\Active_Bike_Lighting_System\Radar_Core\Libraries\XMCLib\inc\xmc_gpio.h **** 
  59:C:\Users\Depes Crystalline\Desktop\school\Active_Bike_Lighting_System\Radar_Core\Libraries\XMCLib\inc\xmc_gpio.h **** /**
  60:C:\Users\Depes Crystalline\Desktop\school\Active_Bike_Lighting_System\Radar_Core\Libraries\XMCLib\inc\xmc_gpio.h ****  * @addtogroup XMClib XMC Peripheral Library
  61:C:\Users\Depes Crystalline\Desktop\school\Active_Bike_Lighting_System\Radar_Core\Libraries\XMCLib\inc\xmc_gpio.h ****  * @{
  62:C:\Users\Depes Crystalline\Desktop\school\Active_Bike_Lighting_System\Radar_Core\Libraries\XMCLib\inc\xmc_gpio.h ****  */
  63:C:\Users\Depes Crystalline\Desktop\school\Active_Bike_Lighting_System\Radar_Core\Libraries\XMCLib\inc\xmc_gpio.h **** 
  64:C:\Users\Depes Crystalline\Desktop\school\Active_Bike_Lighting_System\Radar_Core\Libraries\XMCLib\inc\xmc_gpio.h **** /**
  65:C:\Users\Depes Crystalline\Desktop\school\Active_Bike_Lighting_System\Radar_Core\Libraries\XMCLib\inc\xmc_gpio.h ****  * @addtogroup GPIO
  66:C:\Users\Depes Crystalline\Desktop\school\Active_Bike_Lighting_System\Radar_Core\Libraries\XMCLib\inc\xmc_gpio.h ****  * @brief General Purpose Input Output (GPIO) driver for the XMC microcontroller family.
  67:C:\Users\Depes Crystalline\Desktop\school\Active_Bike_Lighting_System\Radar_Core\Libraries\XMCLib\inc\xmc_gpio.h ****  *
  68:C:\Users\Depes Crystalline\Desktop\school\Active_Bike_Lighting_System\Radar_Core\Libraries\XMCLib\inc\xmc_gpio.h ****  * GPIO driver provide a generic and very flexible software interface for all standard digital I/O 
  69:C:\Users\Depes Crystalline\Desktop\school\Active_Bike_Lighting_System\Radar_Core\Libraries\XMCLib\inc\xmc_gpio.h ****  * Each port slice has individual interfaces for the operation as General Purpose I/O and it furthe
  70:C:\Users\Depes Crystalline\Desktop\school\Active_Bike_Lighting_System\Radar_Core\Libraries\XMCLib\inc\xmc_gpio.h ****  * connectivity to the on-chip periphery and the control for the pad characteristics. 
  71:C:\Users\Depes Crystalline\Desktop\school\Active_Bike_Lighting_System\Radar_Core\Libraries\XMCLib\inc\xmc_gpio.h ****  *
  72:C:\Users\Depes Crystalline\Desktop\school\Active_Bike_Lighting_System\Radar_Core\Libraries\XMCLib\inc\xmc_gpio.h ****  * The driver is divided into Input and Output mode.
  73:C:\Users\Depes Crystalline\Desktop\school\Active_Bike_Lighting_System\Radar_Core\Libraries\XMCLib\inc\xmc_gpio.h ****  *
  74:C:\Users\Depes Crystalline\Desktop\school\Active_Bike_Lighting_System\Radar_Core\Libraries\XMCLib\inc\xmc_gpio.h ****  * Input mode features:
  75:C:\Users\Depes Crystalline\Desktop\school\Active_Bike_Lighting_System\Radar_Core\Libraries\XMCLib\inc\xmc_gpio.h ****  * -# Configuration structure XMC_GPIO_CONFIG_t and initialization function XMC_GPIO_Init()
  76:C:\Users\Depes Crystalline\Desktop\school\Active_Bike_Lighting_System\Radar_Core\Libraries\XMCLib\inc\xmc_gpio.h ****  * -# Allows the selection of weak pull-up or pull-down device. Configuration structure XMC_GPIO_MO
  77:C:\Users\Depes Crystalline\Desktop\school\Active_Bike_Lighting_System\Radar_Core\Libraries\XMCLib\inc\xmc_gpio.h ****  * \if XMC1
  78:C:\Users\Depes Crystalline\Desktop\school\Active_Bike_Lighting_System\Radar_Core\Libraries\XMCLib\inc\xmc_gpio.h ****  * -# Allows the selection of input hysteresis. XMC_GPIO_SetInputHysteresis()
  79:C:\Users\Depes Crystalline\Desktop\school\Active_Bike_Lighting_System\Radar_Core\Libraries\XMCLib\inc\xmc_gpio.h ****  * \endif
  80:C:\Users\Depes Crystalline\Desktop\school\Active_Bike_Lighting_System\Radar_Core\Libraries\XMCLib\inc\xmc_gpio.h ****  *
  81:C:\Users\Depes Crystalline\Desktop\school\Active_Bike_Lighting_System\Radar_Core\Libraries\XMCLib\inc\xmc_gpio.h ****  * 
  82:C:\Users\Depes Crystalline\Desktop\school\Active_Bike_Lighting_System\Radar_Core\Libraries\XMCLib\inc\xmc_gpio.h ****  * Output mode features:
  83:C:\Users\Depes Crystalline\Desktop\school\Active_Bike_Lighting_System\Radar_Core\Libraries\XMCLib\inc\xmc_gpio.h ****  * -# Allows the selection of push pull/open drain and Alternate output. Configuration structure XM
  84:C:\Users\Depes Crystalline\Desktop\school\Active_Bike_Lighting_System\Radar_Core\Libraries\XMCLib\inc\xmc_gpio.h ****  * \if XMC4
  85:C:\Users\Depes Crystalline\Desktop\school\Active_Bike_Lighting_System\Radar_Core\Libraries\XMCLib\inc\xmc_gpio.h ****  * -# Allows the selection of pad driver strength. Configuration structure XMC_GPIO_OUTPUT_STRENGTH
  86:C:\Users\Depes Crystalline\Desktop\school\Active_Bike_Lighting_System\Radar_Core\Libraries\XMCLib\inc\xmc_gpio.h ****  * \endif
  87:C:\Users\Depes Crystalline\Desktop\school\Active_Bike_Lighting_System\Radar_Core\Libraries\XMCLib\inc\xmc_gpio.h ****  *
  88:C:\Users\Depes Crystalline\Desktop\school\Active_Bike_Lighting_System\Radar_Core\Libraries\XMCLib\inc\xmc_gpio.h ****  * -# Allows the selection of initial output level. Configuration structure XMC_GPIO_OUTPUT_LEVEL_t
  89:C:\Users\Depes Crystalline\Desktop\school\Active_Bike_Lighting_System\Radar_Core\Libraries\XMCLib\inc\xmc_gpio.h ****  *
  90:C:\Users\Depes Crystalline\Desktop\school\Active_Bike_Lighting_System\Radar_Core\Libraries\XMCLib\inc\xmc_gpio.h ****  *@{
  91:C:\Users\Depes Crystalline\Desktop\school\Active_Bike_Lighting_System\Radar_Core\Libraries\XMCLib\inc\xmc_gpio.h ****  */
  92:C:\Users\Depes Crystalline\Desktop\school\Active_Bike_Lighting_System\Radar_Core\Libraries\XMCLib\inc\xmc_gpio.h ****  
  93:C:\Users\Depes Crystalline\Desktop\school\Active_Bike_Lighting_System\Radar_Core\Libraries\XMCLib\inc\xmc_gpio.h **** /*******************************************************************************
  94:C:\Users\Depes Crystalline\Desktop\school\Active_Bike_Lighting_System\Radar_Core\Libraries\XMCLib\inc\xmc_gpio.h ****  * MACROS
  95:C:\Users\Depes Crystalline\Desktop\school\Active_Bike_Lighting_System\Radar_Core\Libraries\XMCLib\inc\xmc_gpio.h ****  *******************************************************************************/
  96:C:\Users\Depes Crystalline\Desktop\school\Active_Bike_Lighting_System\Radar_Core\Libraries\XMCLib\inc\xmc_gpio.h **** 
  97:C:\Users\Depes Crystalline\Desktop\school\Active_Bike_Lighting_System\Radar_Core\Libraries\XMCLib\inc\xmc_gpio.h **** #define PORT_IOCR_PC_Msk PORT0_IOCR0_PC0_Msk 	/**< Port input output control register(Pn_IOCR),
  98:C:\Users\Depes Crystalline\Desktop\school\Active_Bike_Lighting_System\Radar_Core\Libraries\XMCLib\inc\xmc_gpio.h **** 													 PCx bit field-Mask :0xf8 */
  99:C:\Users\Depes Crystalline\Desktop\school\Active_Bike_Lighting_System\Radar_Core\Libraries\XMCLib\inc\xmc_gpio.h **** #define PORT_IOCR_PC_Size 				(8U) 	/**< Port input output control register(Pn_IOCR),
 100:C:\Users\Depes Crystalline\Desktop\school\Active_Bike_Lighting_System\Radar_Core\Libraries\XMCLib\inc\xmc_gpio.h **** 													 PCx bit field-shift size */
 101:C:\Users\Depes Crystalline\Desktop\school\Active_Bike_Lighting_System\Radar_Core\Libraries\XMCLib\inc\xmc_gpio.h **** 
 102:C:\Users\Depes Crystalline\Desktop\school\Active_Bike_Lighting_System\Radar_Core\Libraries\XMCLib\inc\xmc_gpio.h **** #define XMC_GPIO_CHECK_OUTPUT_LEVEL(level) ((level == XMC_GPIO_OUTPUT_LEVEL_LOW) || \
 103:C:\Users\Depes Crystalline\Desktop\school\Active_Bike_Lighting_System\Radar_Core\Libraries\XMCLib\inc\xmc_gpio.h ****                                             (level == XMC_GPIO_OUTPUT_LEVEL_HIGH))
 104:C:\Users\Depes Crystalline\Desktop\school\Active_Bike_Lighting_System\Radar_Core\Libraries\XMCLib\inc\xmc_gpio.h ****                                             
 105:C:\Users\Depes Crystalline\Desktop\school\Active_Bike_Lighting_System\Radar_Core\Libraries\XMCLib\inc\xmc_gpio.h **** #define XMC_GPIO_CHECK_HWCTRL(hwctrl) ((hwctrl == XMC_GPIO_HWCTRL_DISABLED) || \
 106:C:\Users\Depes Crystalline\Desktop\school\Active_Bike_Lighting_System\Radar_Core\Libraries\XMCLib\inc\xmc_gpio.h ****                                        (hwctrl == XMC_GPIO_HWCTRL_PERIPHERAL1) || \
 107:C:\Users\Depes Crystalline\Desktop\school\Active_Bike_Lighting_System\Radar_Core\Libraries\XMCLib\inc\xmc_gpio.h ****                                        (hwctrl == XMC_GPIO_HWCTRL_PERIPHERAL2))                    
 108:C:\Users\Depes Crystalline\Desktop\school\Active_Bike_Lighting_System\Radar_Core\Libraries\XMCLib\inc\xmc_gpio.h ****                                             
 109:C:\Users\Depes Crystalline\Desktop\school\Active_Bike_Lighting_System\Radar_Core\Libraries\XMCLib\inc\xmc_gpio.h **** /*******************************************************************************
 110:C:\Users\Depes Crystalline\Desktop\school\Active_Bike_Lighting_System\Radar_Core\Libraries\XMCLib\inc\xmc_gpio.h ****  * ENUMS
 111:C:\Users\Depes Crystalline\Desktop\school\Active_Bike_Lighting_System\Radar_Core\Libraries\XMCLib\inc\xmc_gpio.h ****  *******************************************************************************/
 112:C:\Users\Depes Crystalline\Desktop\school\Active_Bike_Lighting_System\Radar_Core\Libraries\XMCLib\inc\xmc_gpio.h **** 
 113:C:\Users\Depes Crystalline\Desktop\school\Active_Bike_Lighting_System\Radar_Core\Libraries\XMCLib\inc\xmc_gpio.h **** /**
 114:C:\Users\Depes Crystalline\Desktop\school\Active_Bike_Lighting_System\Radar_Core\Libraries\XMCLib\inc\xmc_gpio.h ****  * Defines the direction and characteristics of a pin. Use type \a XMC_GPIO_MODE_t for this enum. F
 115:C:\Users\Depes Crystalline\Desktop\school\Active_Bike_Lighting_System\Radar_Core\Libraries\XMCLib\inc\xmc_gpio.h ****  * with alternate functions, the port pins are directly connected to input or output functions of t
 116:C:\Users\Depes Crystalline\Desktop\school\Active_Bike_Lighting_System\Radar_Core\Libraries\XMCLib\inc\xmc_gpio.h ****  */
 117:C:\Users\Depes Crystalline\Desktop\school\Active_Bike_Lighting_System\Radar_Core\Libraries\XMCLib\inc\xmc_gpio.h **** 
 118:C:\Users\Depes Crystalline\Desktop\school\Active_Bike_Lighting_System\Radar_Core\Libraries\XMCLib\inc\xmc_gpio.h **** typedef enum XMC_GPIO_MODE
 119:C:\Users\Depes Crystalline\Desktop\school\Active_Bike_Lighting_System\Radar_Core\Libraries\XMCLib\inc\xmc_gpio.h **** {
 120:C:\Users\Depes Crystalline\Desktop\school\Active_Bike_Lighting_System\Radar_Core\Libraries\XMCLib\inc\xmc_gpio.h ****   XMC_GPIO_MODE_INPUT_TRISTATE = 0x00UL, 	/**<  No internal pull device active */
 121:C:\Users\Depes Crystalline\Desktop\school\Active_Bike_Lighting_System\Radar_Core\Libraries\XMCLib\inc\xmc_gpio.h ****   XMC_GPIO_MODE_INPUT_PULL_DOWN = 0x08UL, 	/**<  Internal pull-down device active */
 122:C:\Users\Depes Crystalline\Desktop\school\Active_Bike_Lighting_System\Radar_Core\Libraries\XMCLib\inc\xmc_gpio.h ****   XMC_GPIO_MODE_INPUT_PULL_UP = 0x10UL, 	/**<  Internal pull-up device active */
 123:C:\Users\Depes Crystalline\Desktop\school\Active_Bike_Lighting_System\Radar_Core\Libraries\XMCLib\inc\xmc_gpio.h ****   XMC_GPIO_MODE_INPUT_SAMPLING = 0x18UL, 	/**<  No internal pull device active;Pn_OUTx continuously
 124:C:\Users\Depes Crystalline\Desktop\school\Active_Bike_Lighting_System\Radar_Core\Libraries\XMCLib\inc\xmc_gpio.h ****   	  	  	  	  	  	  	  	  	  	  	  	  input value */
 125:C:\Users\Depes Crystalline\Desktop\school\Active_Bike_Lighting_System\Radar_Core\Libraries\XMCLib\inc\xmc_gpio.h ****   XMC_GPIO_MODE_INPUT_INVERTED_TRISTATE = 0x20UL, 	/**<  Inverted no internal pull device active */
 126:C:\Users\Depes Crystalline\Desktop\school\Active_Bike_Lighting_System\Radar_Core\Libraries\XMCLib\inc\xmc_gpio.h ****   XMC_GPIO_MODE_INPUT_INVERTED_PULL_DOWN = 0x28UL, 	/**<  Inverted internal pull-down device active
 127:C:\Users\Depes Crystalline\Desktop\school\Active_Bike_Lighting_System\Radar_Core\Libraries\XMCLib\inc\xmc_gpio.h ****   XMC_GPIO_MODE_INPUT_INVERTED_PULL_UP = 0x30UL, 	/**<  Inverted internal pull-up device active */
 128:C:\Users\Depes Crystalline\Desktop\school\Active_Bike_Lighting_System\Radar_Core\Libraries\XMCLib\inc\xmc_gpio.h ****   XMC_GPIO_MODE_INPUT_INVERTED_SAMPLING = 0x38UL, 	/**<  Inverted no internal pull device active;Pn
 129:C:\Users\Depes Crystalline\Desktop\school\Active_Bike_Lighting_System\Radar_Core\Libraries\XMCLib\inc\xmc_gpio.h ****   	  	  	  	  	  	  	  	  	  	  	  	  	  	  samples the input value */
 130:C:\Users\Depes Crystalline\Desktop\school\Active_Bike_Lighting_System\Radar_Core\Libraries\XMCLib\inc\xmc_gpio.h ****   XMC_GPIO_MODE_OUTPUT_PUSH_PULL = 0x80UL, 			/**< Push-pull general-purpose output */
 131:C:\Users\Depes Crystalline\Desktop\school\Active_Bike_Lighting_System\Radar_Core\Libraries\XMCLib\inc\xmc_gpio.h ****   XMC_GPIO_MODE_OUTPUT_PUSH_PULL_ALT1 = 0x88UL, 	/**<  Push-pull alternate output function 1 */
 132:C:\Users\Depes Crystalline\Desktop\school\Active_Bike_Lighting_System\Radar_Core\Libraries\XMCLib\inc\xmc_gpio.h ****   XMC_GPIO_MODE_OUTPUT_PUSH_PULL_ALT2 = 0x90UL, 	/**<  Push-pull alternate output function 2 */
 133:C:\Users\Depes Crystalline\Desktop\school\Active_Bike_Lighting_System\Radar_Core\Libraries\XMCLib\inc\xmc_gpio.h ****   XMC_GPIO_MODE_OUTPUT_PUSH_PULL_ALT3 = 0x98UL, 	/**<  Push-pull alternate output function 3 */
 134:C:\Users\Depes Crystalline\Desktop\school\Active_Bike_Lighting_System\Radar_Core\Libraries\XMCLib\inc\xmc_gpio.h ****   XMC_GPIO_MODE_OUTPUT_PUSH_PULL_ALT4 = 0xA0UL, 	/**<  Push-pull alternate output function 4 */
 135:C:\Users\Depes Crystalline\Desktop\school\Active_Bike_Lighting_System\Radar_Core\Libraries\XMCLib\inc\xmc_gpio.h ****   XMC_GPIO_MODE_OUTPUT_PUSH_PULL_ALT5 = 0xA8UL, 	/**<  Push-pull alternate output function 5 */
 136:C:\Users\Depes Crystalline\Desktop\school\Active_Bike_Lighting_System\Radar_Core\Libraries\XMCLib\inc\xmc_gpio.h ****   XMC_GPIO_MODE_OUTPUT_PUSH_PULL_ALT6 = 0xB0UL, 	/**<  Push-pull alternate output function 6 */
 137:C:\Users\Depes Crystalline\Desktop\school\Active_Bike_Lighting_System\Radar_Core\Libraries\XMCLib\inc\xmc_gpio.h ****   XMC_GPIO_MODE_OUTPUT_PUSH_PULL_ALT7 = 0xB8UL, 	/**<  Push-pull alternate output function 7 */
 138:C:\Users\Depes Crystalline\Desktop\school\Active_Bike_Lighting_System\Radar_Core\Libraries\XMCLib\inc\xmc_gpio.h ****   XMC_GPIO_MODE_OUTPUT_OPEN_DRAIN = 0xc0UL, 		/**< Open-drain general-purpose output */
 139:C:\Users\Depes Crystalline\Desktop\school\Active_Bike_Lighting_System\Radar_Core\Libraries\XMCLib\inc\xmc_gpio.h ****   XMC_GPIO_MODE_OUTPUT_OPEN_DRAIN_ALT1 = 0xc8UL, 	/**<  Push-pull alternate output function 1 */
 140:C:\Users\Depes Crystalline\Desktop\school\Active_Bike_Lighting_System\Radar_Core\Libraries\XMCLib\inc\xmc_gpio.h ****   XMC_GPIO_MODE_OUTPUT_OPEN_DRAIN_ALT2 = 0xD0UL, 	/**<  Push-pull alternate output function 2 */
 141:C:\Users\Depes Crystalline\Desktop\school\Active_Bike_Lighting_System\Radar_Core\Libraries\XMCLib\inc\xmc_gpio.h ****   XMC_GPIO_MODE_OUTPUT_OPEN_DRAIN_ALT3 = 0xD8UL, 	/**<  Push-pull alternate output function 3 */
 142:C:\Users\Depes Crystalline\Desktop\school\Active_Bike_Lighting_System\Radar_Core\Libraries\XMCLib\inc\xmc_gpio.h ****   XMC_GPIO_MODE_OUTPUT_OPEN_DRAIN_ALT4 = 0xE0UL, 	/**<  Push-pull alternate output function 4 */
 143:C:\Users\Depes Crystalline\Desktop\school\Active_Bike_Lighting_System\Radar_Core\Libraries\XMCLib\inc\xmc_gpio.h ****   XMC_GPIO_MODE_OUTPUT_OPEN_DRAIN_ALT5 = 0xE8UL, 	/**<  Push-pull alternate output function 5 */
 144:C:\Users\Depes Crystalline\Desktop\school\Active_Bike_Lighting_System\Radar_Core\Libraries\XMCLib\inc\xmc_gpio.h ****   XMC_GPIO_MODE_OUTPUT_OPEN_DRAIN_ALT6 = 0xF0UL, 	/**<  Push-pull alternate output function 6 */
 145:C:\Users\Depes Crystalline\Desktop\school\Active_Bike_Lighting_System\Radar_Core\Libraries\XMCLib\inc\xmc_gpio.h ****   XMC_GPIO_MODE_OUTPUT_OPEN_DRAIN_ALT7 = 0xF8UL 	/**<  Push-pull alternate output function 7 */
 146:C:\Users\Depes Crystalline\Desktop\school\Active_Bike_Lighting_System\Radar_Core\Libraries\XMCLib\inc\xmc_gpio.h **** } XMC_GPIO_MODE_t;
 147:C:\Users\Depes Crystalline\Desktop\school\Active_Bike_Lighting_System\Radar_Core\Libraries\XMCLib\inc\xmc_gpio.h **** 
 148:C:\Users\Depes Crystalline\Desktop\school\Active_Bike_Lighting_System\Radar_Core\Libraries\XMCLib\inc\xmc_gpio.h **** 
 149:C:\Users\Depes Crystalline\Desktop\school\Active_Bike_Lighting_System\Radar_Core\Libraries\XMCLib\inc\xmc_gpio.h **** /**
 150:C:\Users\Depes Crystalline\Desktop\school\Active_Bike_Lighting_System\Radar_Core\Libraries\XMCLib\inc\xmc_gpio.h ****  * Defines output level of a pin. Use type \a XMC_GPIO_OUTPUT_LEVEL_t for this enum.
 151:C:\Users\Depes Crystalline\Desktop\school\Active_Bike_Lighting_System\Radar_Core\Libraries\XMCLib\inc\xmc_gpio.h ****  */
 152:C:\Users\Depes Crystalline\Desktop\school\Active_Bike_Lighting_System\Radar_Core\Libraries\XMCLib\inc\xmc_gpio.h **** typedef enum XMC_GPIO_OUTPUT_LEVEL
 153:C:\Users\Depes Crystalline\Desktop\school\Active_Bike_Lighting_System\Radar_Core\Libraries\XMCLib\inc\xmc_gpio.h **** {
 154:C:\Users\Depes Crystalline\Desktop\school\Active_Bike_Lighting_System\Radar_Core\Libraries\XMCLib\inc\xmc_gpio.h ****   XMC_GPIO_OUTPUT_LEVEL_LOW  = 0x10000U, /**<  Reset bit */
 155:C:\Users\Depes Crystalline\Desktop\school\Active_Bike_Lighting_System\Radar_Core\Libraries\XMCLib\inc\xmc_gpio.h ****   XMC_GPIO_OUTPUT_LEVEL_HIGH = 0x1U, 	/**< Set bit  */
 156:C:\Users\Depes Crystalline\Desktop\school\Active_Bike_Lighting_System\Radar_Core\Libraries\XMCLib\inc\xmc_gpio.h **** } XMC_GPIO_OUTPUT_LEVEL_t;
 157:C:\Users\Depes Crystalline\Desktop\school\Active_Bike_Lighting_System\Radar_Core\Libraries\XMCLib\inc\xmc_gpio.h **** 
 158:C:\Users\Depes Crystalline\Desktop\school\Active_Bike_Lighting_System\Radar_Core\Libraries\XMCLib\inc\xmc_gpio.h **** /**
 159:C:\Users\Depes Crystalline\Desktop\school\Active_Bike_Lighting_System\Radar_Core\Libraries\XMCLib\inc\xmc_gpio.h ****  * Defines direct hardware control characteristics of the pin . Use type \a XMC_GPIO_HWCTRL_t for t
 160:C:\Users\Depes Crystalline\Desktop\school\Active_Bike_Lighting_System\Radar_Core\Libraries\XMCLib\inc\xmc_gpio.h ****  */
 161:C:\Users\Depes Crystalline\Desktop\school\Active_Bike_Lighting_System\Radar_Core\Libraries\XMCLib\inc\xmc_gpio.h **** typedef enum XMC_GPIO_HWCTRL
 162:C:\Users\Depes Crystalline\Desktop\school\Active_Bike_Lighting_System\Radar_Core\Libraries\XMCLib\inc\xmc_gpio.h **** {
 163:C:\Users\Depes Crystalline\Desktop\school\Active_Bike_Lighting_System\Radar_Core\Libraries\XMCLib\inc\xmc_gpio.h ****   XMC_GPIO_HWCTRL_DISABLED     = 0x0U, /**<  Software control only */
 164:C:\Users\Depes Crystalline\Desktop\school\Active_Bike_Lighting_System\Radar_Core\Libraries\XMCLib\inc\xmc_gpio.h ****   XMC_GPIO_HWCTRL_PERIPHERAL1  = 0x1U, /**<  HWI0/HWO0 control path can override the software confi
 165:C:\Users\Depes Crystalline\Desktop\school\Active_Bike_Lighting_System\Radar_Core\Libraries\XMCLib\inc\xmc_gpio.h ****   XMC_GPIO_HWCTRL_PERIPHERAL2  = 0x2U  /**<  HWI1/HWO1 control path can override the software confi
 166:C:\Users\Depes Crystalline\Desktop\school\Active_Bike_Lighting_System\Radar_Core\Libraries\XMCLib\inc\xmc_gpio.h **** } XMC_GPIO_HWCTRL_t;
 167:C:\Users\Depes Crystalline\Desktop\school\Active_Bike_Lighting_System\Radar_Core\Libraries\XMCLib\inc\xmc_gpio.h **** 
 168:C:\Users\Depes Crystalline\Desktop\school\Active_Bike_Lighting_System\Radar_Core\Libraries\XMCLib\inc\xmc_gpio.h **** /*******************************************************************************
 169:C:\Users\Depes Crystalline\Desktop\school\Active_Bike_Lighting_System\Radar_Core\Libraries\XMCLib\inc\xmc_gpio.h ****  * DEVICE FAMILY EXTENSIONS
 170:C:\Users\Depes Crystalline\Desktop\school\Active_Bike_Lighting_System\Radar_Core\Libraries\XMCLib\inc\xmc_gpio.h ****  *******************************************************************************/
 171:C:\Users\Depes Crystalline\Desktop\school\Active_Bike_Lighting_System\Radar_Core\Libraries\XMCLib\inc\xmc_gpio.h **** 
 172:C:\Users\Depes Crystalline\Desktop\school\Active_Bike_Lighting_System\Radar_Core\Libraries\XMCLib\inc\xmc_gpio.h ****  #if UC_FAMILY == XMC1
 173:C:\Users\Depes Crystalline\Desktop\school\Active_Bike_Lighting_System\Radar_Core\Libraries\XMCLib\inc\xmc_gpio.h **** #include "xmc1_gpio.h"
 174:C:\Users\Depes Crystalline\Desktop\school\Active_Bike_Lighting_System\Radar_Core\Libraries\XMCLib\inc\xmc_gpio.h **** #elif UC_FAMILY == XMC4
 175:C:\Users\Depes Crystalline\Desktop\school\Active_Bike_Lighting_System\Radar_Core\Libraries\XMCLib\inc\xmc_gpio.h **** #include "xmc4_gpio.h"
 176:C:\Users\Depes Crystalline\Desktop\school\Active_Bike_Lighting_System\Radar_Core\Libraries\XMCLib\inc\xmc_gpio.h **** #else
 177:C:\Users\Depes Crystalline\Desktop\school\Active_Bike_Lighting_System\Radar_Core\Libraries\XMCLib\inc\xmc_gpio.h **** #error "xmc_gpio.h: familiy device not supported"
 178:C:\Users\Depes Crystalline\Desktop\school\Active_Bike_Lighting_System\Radar_Core\Libraries\XMCLib\inc\xmc_gpio.h **** #endif
 179:C:\Users\Depes Crystalline\Desktop\school\Active_Bike_Lighting_System\Radar_Core\Libraries\XMCLib\inc\xmc_gpio.h **** 
 180:C:\Users\Depes Crystalline\Desktop\school\Active_Bike_Lighting_System\Radar_Core\Libraries\XMCLib\inc\xmc_gpio.h **** /*******************************************************************************
 181:C:\Users\Depes Crystalline\Desktop\school\Active_Bike_Lighting_System\Radar_Core\Libraries\XMCLib\inc\xmc_gpio.h ****  * API PROTOTYPES
 182:C:\Users\Depes Crystalline\Desktop\school\Active_Bike_Lighting_System\Radar_Core\Libraries\XMCLib\inc\xmc_gpio.h ****  *******************************************************************************/
 183:C:\Users\Depes Crystalline\Desktop\school\Active_Bike_Lighting_System\Radar_Core\Libraries\XMCLib\inc\xmc_gpio.h **** 
 184:C:\Users\Depes Crystalline\Desktop\school\Active_Bike_Lighting_System\Radar_Core\Libraries\XMCLib\inc\xmc_gpio.h **** #ifdef __cplusplus
 185:C:\Users\Depes Crystalline\Desktop\school\Active_Bike_Lighting_System\Radar_Core\Libraries\XMCLib\inc\xmc_gpio.h **** extern "C" {
 186:C:\Users\Depes Crystalline\Desktop\school\Active_Bike_Lighting_System\Radar_Core\Libraries\XMCLib\inc\xmc_gpio.h **** #endif
 187:C:\Users\Depes Crystalline\Desktop\school\Active_Bike_Lighting_System\Radar_Core\Libraries\XMCLib\inc\xmc_gpio.h **** 
 188:C:\Users\Depes Crystalline\Desktop\school\Active_Bike_Lighting_System\Radar_Core\Libraries\XMCLib\inc\xmc_gpio.h **** 
 189:C:\Users\Depes Crystalline\Desktop\school\Active_Bike_Lighting_System\Radar_Core\Libraries\XMCLib\inc\xmc_gpio.h **** /**
 190:C:\Users\Depes Crystalline\Desktop\school\Active_Bike_Lighting_System\Radar_Core\Libraries\XMCLib\inc\xmc_gpio.h ****  * @param  port	  Constant pointer pointing to GPIO port, to access port registers like Pn_OUT,Pn_O
 191:C:\Users\Depes Crystalline\Desktop\school\Active_Bike_Lighting_System\Radar_Core\Libraries\XMCLib\inc\xmc_gpio.h ****  * @param  pin	  Port pin number.
 192:C:\Users\Depes Crystalline\Desktop\school\Active_Bike_Lighting_System\Radar_Core\Libraries\XMCLib\inc\xmc_gpio.h ****  * @param  config GPIO configuration data structure. Refer data structure @ref XMC_GPIO_CONFIG_t fo
 193:C:\Users\Depes Crystalline\Desktop\school\Active_Bike_Lighting_System\Radar_Core\Libraries\XMCLib\inc\xmc_gpio.h ****  *
 194:C:\Users\Depes Crystalline\Desktop\school\Active_Bike_Lighting_System\Radar_Core\Libraries\XMCLib\inc\xmc_gpio.h ****  * @return None
 195:C:\Users\Depes Crystalline\Desktop\school\Active_Bike_Lighting_System\Radar_Core\Libraries\XMCLib\inc\xmc_gpio.h ****  *
 196:C:\Users\Depes Crystalline\Desktop\school\Active_Bike_Lighting_System\Radar_Core\Libraries\XMCLib\inc\xmc_gpio.h ****  * \par<b>Description:</b><br>
 197:C:\Users\Depes Crystalline\Desktop\school\Active_Bike_Lighting_System\Radar_Core\Libraries\XMCLib\inc\xmc_gpio.h ****  * \if XMC1
 198:C:\Users\Depes Crystalline\Desktop\school\Active_Bike_Lighting_System\Radar_Core\Libraries\XMCLib\inc\xmc_gpio.h ****  * Initializes input / output mode settings like, pull up / pull down devices,hysteresis, push pull
 199:C:\Users\Depes Crystalline\Desktop\school\Active_Bike_Lighting_System\Radar_Core\Libraries\XMCLib\inc\xmc_gpio.h ****  * Also configures alternate function outputs and clears hardware port control for a selected \a po
 200:C:\Users\Depes Crystalline\Desktop\school\Active_Bike_Lighting_System\Radar_Core\Libraries\XMCLib\inc\xmc_gpio.h ****  * \a config provides selected I/O settings. It configures hardware registers Pn_IOCR,Pn_OUT, Pn_OM
 201:C:\Users\Depes Crystalline\Desktop\school\Active_Bike_Lighting_System\Radar_Core\Libraries\XMCLib\inc\xmc_gpio.h ****  * \endif
 202:C:\Users\Depes Crystalline\Desktop\school\Active_Bike_Lighting_System\Radar_Core\Libraries\XMCLib\inc\xmc_gpio.h ****  * \if XMC4
 203:C:\Users\Depes Crystalline\Desktop\school\Active_Bike_Lighting_System\Radar_Core\Libraries\XMCLib\inc\xmc_gpio.h ****  * Initializes input / output mode settings like, pull up / pull down devices,push pull /open drain
 204:C:\Users\Depes Crystalline\Desktop\school\Active_Bike_Lighting_System\Radar_Core\Libraries\XMCLib\inc\xmc_gpio.h ****  * Also configures alternate function outputs and clears hardware port control for selected \a port
 205:C:\Users\Depes Crystalline\Desktop\school\Active_Bike_Lighting_System\Radar_Core\Libraries\XMCLib\inc\xmc_gpio.h ****  * It configures hardware registers Pn_IOCR,Pn_OUT,Pn_OMR,Pn_PDISC and Pn_PDR.\n
 206:C:\Users\Depes Crystalline\Desktop\school\Active_Bike_Lighting_System\Radar_Core\Libraries\XMCLib\inc\xmc_gpio.h ****  * \endif
 207:C:\Users\Depes Crystalline\Desktop\school\Active_Bike_Lighting_System\Radar_Core\Libraries\XMCLib\inc\xmc_gpio.h ****  *
 208:C:\Users\Depes Crystalline\Desktop\school\Active_Bike_Lighting_System\Radar_Core\Libraries\XMCLib\inc\xmc_gpio.h ****  * \par<b>Related APIs:</b><BR>
 209:C:\Users\Depes Crystalline\Desktop\school\Active_Bike_Lighting_System\Radar_Core\Libraries\XMCLib\inc\xmc_gpio.h ****  *  None
 210:C:\Users\Depes Crystalline\Desktop\school\Active_Bike_Lighting_System\Radar_Core\Libraries\XMCLib\inc\xmc_gpio.h ****  *
 211:C:\Users\Depes Crystalline\Desktop\school\Active_Bike_Lighting_System\Radar_Core\Libraries\XMCLib\inc\xmc_gpio.h ****  * \par<b>Note:</b><br>
 212:C:\Users\Depes Crystalline\Desktop\school\Active_Bike_Lighting_System\Radar_Core\Libraries\XMCLib\inc\xmc_gpio.h ****  * This API is called in definition of DAVE_init by code generation and therefore should not be exp
 213:C:\Users\Depes Crystalline\Desktop\school\Active_Bike_Lighting_System\Radar_Core\Libraries\XMCLib\inc\xmc_gpio.h ****  * for the normal operation. Use other APIs only after DAVE_init is called successfully (returns DA
 214:C:\Users\Depes Crystalline\Desktop\school\Active_Bike_Lighting_System\Radar_Core\Libraries\XMCLib\inc\xmc_gpio.h ****  *
 215:C:\Users\Depes Crystalline\Desktop\school\Active_Bike_Lighting_System\Radar_Core\Libraries\XMCLib\inc\xmc_gpio.h ****  *
 216:C:\Users\Depes Crystalline\Desktop\school\Active_Bike_Lighting_System\Radar_Core\Libraries\XMCLib\inc\xmc_gpio.h ****  */
 217:C:\Users\Depes Crystalline\Desktop\school\Active_Bike_Lighting_System\Radar_Core\Libraries\XMCLib\inc\xmc_gpio.h **** 
 218:C:\Users\Depes Crystalline\Desktop\school\Active_Bike_Lighting_System\Radar_Core\Libraries\XMCLib\inc\xmc_gpio.h ****  
 219:C:\Users\Depes Crystalline\Desktop\school\Active_Bike_Lighting_System\Radar_Core\Libraries\XMCLib\inc\xmc_gpio.h **** void XMC_GPIO_Init(XMC_GPIO_PORT_t *const port, const uint8_t pin, const XMC_GPIO_CONFIG_t *const c
 220:C:\Users\Depes Crystalline\Desktop\school\Active_Bike_Lighting_System\Radar_Core\Libraries\XMCLib\inc\xmc_gpio.h ****  
 221:C:\Users\Depes Crystalline\Desktop\school\Active_Bike_Lighting_System\Radar_Core\Libraries\XMCLib\inc\xmc_gpio.h **** /**
 222:C:\Users\Depes Crystalline\Desktop\school\Active_Bike_Lighting_System\Radar_Core\Libraries\XMCLib\inc\xmc_gpio.h ****  *
 223:C:\Users\Depes Crystalline\Desktop\school\Active_Bike_Lighting_System\Radar_Core\Libraries\XMCLib\inc\xmc_gpio.h ****  * @param  port	Constant pointer pointing to GPIO port, to access hardware register Pn_IOCR.
 224:C:\Users\Depes Crystalline\Desktop\school\Active_Bike_Lighting_System\Radar_Core\Libraries\XMCLib\inc\xmc_gpio.h ****  * @param  pin	Port pin number.
 225:C:\Users\Depes Crystalline\Desktop\school\Active_Bike_Lighting_System\Radar_Core\Libraries\XMCLib\inc\xmc_gpio.h ****  * @param  mode input / output functionality selection. Refer @ref XMC_GPIO_MODE_t for valid values
 226:C:\Users\Depes Crystalline\Desktop\school\Active_Bike_Lighting_System\Radar_Core\Libraries\XMCLib\inc\xmc_gpio.h ****  *
 227:C:\Users\Depes Crystalline\Desktop\school\Active_Bike_Lighting_System\Radar_Core\Libraries\XMCLib\inc\xmc_gpio.h ****  * @return None
 228:C:\Users\Depes Crystalline\Desktop\school\Active_Bike_Lighting_System\Radar_Core\Libraries\XMCLib\inc\xmc_gpio.h ****  *
 229:C:\Users\Depes Crystalline\Desktop\school\Active_Bike_Lighting_System\Radar_Core\Libraries\XMCLib\inc\xmc_gpio.h ****  * \par<b>Description:</b><br>
 230:C:\Users\Depes Crystalline\Desktop\school\Active_Bike_Lighting_System\Radar_Core\Libraries\XMCLib\inc\xmc_gpio.h ****  * Sets digital input and output driver functionality and characteristics of a GPIO port pin. It co
 231:C:\Users\Depes Crystalline\Desktop\school\Active_Bike_Lighting_System\Radar_Core\Libraries\XMCLib\inc\xmc_gpio.h ****  * registers Pn_IOCR. \a mode is initially configured during initialization in XMC_GPIO_Init(). Cal
 232:C:\Users\Depes Crystalline\Desktop\school\Active_Bike_Lighting_System\Radar_Core\Libraries\XMCLib\inc\xmc_gpio.h ****  * the port direction functionality as needed later in the program.
 233:C:\Users\Depes Crystalline\Desktop\school\Active_Bike_Lighting_System\Radar_Core\Libraries\XMCLib\inc\xmc_gpio.h ****  *
 234:C:\Users\Depes Crystalline\Desktop\school\Active_Bike_Lighting_System\Radar_Core\Libraries\XMCLib\inc\xmc_gpio.h ****  * \par<b>Related APIs:</b><BR>
 235:C:\Users\Depes Crystalline\Desktop\school\Active_Bike_Lighting_System\Radar_Core\Libraries\XMCLib\inc\xmc_gpio.h ****  *  None
 236:C:\Users\Depes Crystalline\Desktop\school\Active_Bike_Lighting_System\Radar_Core\Libraries\XMCLib\inc\xmc_gpio.h ****  *
 237:C:\Users\Depes Crystalline\Desktop\school\Active_Bike_Lighting_System\Radar_Core\Libraries\XMCLib\inc\xmc_gpio.h ****  */
 238:C:\Users\Depes Crystalline\Desktop\school\Active_Bike_Lighting_System\Radar_Core\Libraries\XMCLib\inc\xmc_gpio.h **** 
 239:C:\Users\Depes Crystalline\Desktop\school\Active_Bike_Lighting_System\Radar_Core\Libraries\XMCLib\inc\xmc_gpio.h **** void XMC_GPIO_SetMode(XMC_GPIO_PORT_t *const port, const uint8_t pin, const XMC_GPIO_MODE_t mode);
 240:C:\Users\Depes Crystalline\Desktop\school\Active_Bike_Lighting_System\Radar_Core\Libraries\XMCLib\inc\xmc_gpio.h **** 
 241:C:\Users\Depes Crystalline\Desktop\school\Active_Bike_Lighting_System\Radar_Core\Libraries\XMCLib\inc\xmc_gpio.h **** 
 242:C:\Users\Depes Crystalline\Desktop\school\Active_Bike_Lighting_System\Radar_Core\Libraries\XMCLib\inc\xmc_gpio.h **** /**
 243:C:\Users\Depes Crystalline\Desktop\school\Active_Bike_Lighting_System\Radar_Core\Libraries\XMCLib\inc\xmc_gpio.h ****  *
 244:C:\Users\Depes Crystalline\Desktop\school\Active_Bike_Lighting_System\Radar_Core\Libraries\XMCLib\inc\xmc_gpio.h ****  * @param  port	 Constant pointer pointing to GPIO port, to access hardware register Pn_OMR.
 245:C:\Users\Depes Crystalline\Desktop\school\Active_Bike_Lighting_System\Radar_Core\Libraries\XMCLib\inc\xmc_gpio.h ****  * @param  pin	 Port pin number.
 246:C:\Users\Depes Crystalline\Desktop\school\Active_Bike_Lighting_System\Radar_Core\Libraries\XMCLib\inc\xmc_gpio.h ****  * @param  level output level selection. Refer @ref XMC_GPIO_OUTPUT_LEVEL_t for valid values.
 247:C:\Users\Depes Crystalline\Desktop\school\Active_Bike_Lighting_System\Radar_Core\Libraries\XMCLib\inc\xmc_gpio.h ****  *
 248:C:\Users\Depes Crystalline\Desktop\school\Active_Bike_Lighting_System\Radar_Core\Libraries\XMCLib\inc\xmc_gpio.h ****  * @return None
 249:C:\Users\Depes Crystalline\Desktop\school\Active_Bike_Lighting_System\Radar_Core\Libraries\XMCLib\inc\xmc_gpio.h ****  *
 250:C:\Users\Depes Crystalline\Desktop\school\Active_Bike_Lighting_System\Radar_Core\Libraries\XMCLib\inc\xmc_gpio.h ****  * \par<b>Description:</b><br>
 251:C:\Users\Depes Crystalline\Desktop\school\Active_Bike_Lighting_System\Radar_Core\Libraries\XMCLib\inc\xmc_gpio.h ****  * Set port pin output level to high or low.It configures hardware registers Pn_OMR.\a level is ini
 252:C:\Users\Depes Crystalline\Desktop\school\Active_Bike_Lighting_System\Radar_Core\Libraries\XMCLib\inc\xmc_gpio.h ****  * configured during initialization in XMC_GPIO_Init(). Call this API to alter output level as need
 253:C:\Users\Depes Crystalline\Desktop\school\Active_Bike_Lighting_System\Radar_Core\Libraries\XMCLib\inc\xmc_gpio.h ****  *
 254:C:\Users\Depes Crystalline\Desktop\school\Active_Bike_Lighting_System\Radar_Core\Libraries\XMCLib\inc\xmc_gpio.h ****  * \par<b>Related APIs:</b><BR>
 255:C:\Users\Depes Crystalline\Desktop\school\Active_Bike_Lighting_System\Radar_Core\Libraries\XMCLib\inc\xmc_gpio.h ****  *  XMC_GPIO_SetOutputHigh(), XMC_GPIO_SetOutputLow().
 256:C:\Users\Depes Crystalline\Desktop\school\Active_Bike_Lighting_System\Radar_Core\Libraries\XMCLib\inc\xmc_gpio.h ****  *
 257:C:\Users\Depes Crystalline\Desktop\school\Active_Bike_Lighting_System\Radar_Core\Libraries\XMCLib\inc\xmc_gpio.h ****  * \par<b>Note:</b><br>
 258:C:\Users\Depes Crystalline\Desktop\school\Active_Bike_Lighting_System\Radar_Core\Libraries\XMCLib\inc\xmc_gpio.h ****  * Prior to this api, user has to configure port pin to output mode using XMC_GPIO_SetMode().
 259:C:\Users\Depes Crystalline\Desktop\school\Active_Bike_Lighting_System\Radar_Core\Libraries\XMCLib\inc\xmc_gpio.h ****  *
 260:C:\Users\Depes Crystalline\Desktop\school\Active_Bike_Lighting_System\Radar_Core\Libraries\XMCLib\inc\xmc_gpio.h ****  */
 261:C:\Users\Depes Crystalline\Desktop\school\Active_Bike_Lighting_System\Radar_Core\Libraries\XMCLib\inc\xmc_gpio.h **** 
 262:C:\Users\Depes Crystalline\Desktop\school\Active_Bike_Lighting_System\Radar_Core\Libraries\XMCLib\inc\xmc_gpio.h **** 
 263:C:\Users\Depes Crystalline\Desktop\school\Active_Bike_Lighting_System\Radar_Core\Libraries\XMCLib\inc\xmc_gpio.h **** __STATIC_INLINE void XMC_GPIO_SetOutputLevel(XMC_GPIO_PORT_t *const port, const uint8_t pin, const 
 264:C:\Users\Depes Crystalline\Desktop\school\Active_Bike_Lighting_System\Radar_Core\Libraries\XMCLib\inc\xmc_gpio.h **** {
 265:C:\Users\Depes Crystalline\Desktop\school\Active_Bike_Lighting_System\Radar_Core\Libraries\XMCLib\inc\xmc_gpio.h ****   XMC_ASSERT("XMC_GPIO_SetOutputLevel: Invalid port", XMC_GPIO_CHECK_OUTPUT_PORT(port));
 266:C:\Users\Depes Crystalline\Desktop\school\Active_Bike_Lighting_System\Radar_Core\Libraries\XMCLib\inc\xmc_gpio.h ****   XMC_ASSERT("XMC_GPIO_SetOutputLevel: Invalid output level", XMC_GPIO_CHECK_OUTPUT_LEVEL(level));
 267:C:\Users\Depes Crystalline\Desktop\school\Active_Bike_Lighting_System\Radar_Core\Libraries\XMCLib\inc\xmc_gpio.h ****   
 268:C:\Users\Depes Crystalline\Desktop\school\Active_Bike_Lighting_System\Radar_Core\Libraries\XMCLib\inc\xmc_gpio.h ****   port->OMR = (uint32_t)level << pin;
 269:C:\Users\Depes Crystalline\Desktop\school\Active_Bike_Lighting_System\Radar_Core\Libraries\XMCLib\inc\xmc_gpio.h **** }
 270:C:\Users\Depes Crystalline\Desktop\school\Active_Bike_Lighting_System\Radar_Core\Libraries\XMCLib\inc\xmc_gpio.h **** 
 271:C:\Users\Depes Crystalline\Desktop\school\Active_Bike_Lighting_System\Radar_Core\Libraries\XMCLib\inc\xmc_gpio.h **** 
 272:C:\Users\Depes Crystalline\Desktop\school\Active_Bike_Lighting_System\Radar_Core\Libraries\XMCLib\inc\xmc_gpio.h **** /**
 273:C:\Users\Depes Crystalline\Desktop\school\Active_Bike_Lighting_System\Radar_Core\Libraries\XMCLib\inc\xmc_gpio.h ****  * @param  port constant pointer pointing to GPIO port, to access hardware register Pn_OMR.
 274:C:\Users\Depes Crystalline\Desktop\school\Active_Bike_Lighting_System\Radar_Core\Libraries\XMCLib\inc\xmc_gpio.h ****  * @param  pin	Port pin number.
 275:C:\Users\Depes Crystalline\Desktop\school\Active_Bike_Lighting_System\Radar_Core\Libraries\XMCLib\inc\xmc_gpio.h ****  *
 276:C:\Users\Depes Crystalline\Desktop\school\Active_Bike_Lighting_System\Radar_Core\Libraries\XMCLib\inc\xmc_gpio.h ****  * @return None
 277:C:\Users\Depes Crystalline\Desktop\school\Active_Bike_Lighting_System\Radar_Core\Libraries\XMCLib\inc\xmc_gpio.h ****  *
 278:C:\Users\Depes Crystalline\Desktop\school\Active_Bike_Lighting_System\Radar_Core\Libraries\XMCLib\inc\xmc_gpio.h ****  * \par<b>Description:</b><br>
 279:C:\Users\Depes Crystalline\Desktop\school\Active_Bike_Lighting_System\Radar_Core\Libraries\XMCLib\inc\xmc_gpio.h ****  *  Sets port pin output to high. It configures hardware registers Pn_OMR.
 280:C:\Users\Depes Crystalline\Desktop\school\Active_Bike_Lighting_System\Radar_Core\Libraries\XMCLib\inc\xmc_gpio.h ****  *
 281:C:\Users\Depes Crystalline\Desktop\school\Active_Bike_Lighting_System\Radar_Core\Libraries\XMCLib\inc\xmc_gpio.h ****  *  \par<b>Related APIs:</b><BR>
 282:C:\Users\Depes Crystalline\Desktop\school\Active_Bike_Lighting_System\Radar_Core\Libraries\XMCLib\inc\xmc_gpio.h ****  *  XMC_GPIO_SetOutputLow()
 283:C:\Users\Depes Crystalline\Desktop\school\Active_Bike_Lighting_System\Radar_Core\Libraries\XMCLib\inc\xmc_gpio.h ****  *
 284:C:\Users\Depes Crystalline\Desktop\school\Active_Bike_Lighting_System\Radar_Core\Libraries\XMCLib\inc\xmc_gpio.h ****  * \par<b>Note:</b><br>
 285:C:\Users\Depes Crystalline\Desktop\school\Active_Bike_Lighting_System\Radar_Core\Libraries\XMCLib\inc\xmc_gpio.h ****  * Prior to this api, user has to configure port pin to output mode using XMC_GPIO_SetMode().\n
 286:C:\Users\Depes Crystalline\Desktop\school\Active_Bike_Lighting_System\Radar_Core\Libraries\XMCLib\inc\xmc_gpio.h ****  * Register Pn_OMR is virtual and does not contain any flip-flop. A read action delivers the value 
 287:C:\Users\Depes Crystalline\Desktop\school\Active_Bike_Lighting_System\Radar_Core\Libraries\XMCLib\inc\xmc_gpio.h ****  *
 288:C:\Users\Depes Crystalline\Desktop\school\Active_Bike_Lighting_System\Radar_Core\Libraries\XMCLib\inc\xmc_gpio.h ****  */
 289:C:\Users\Depes Crystalline\Desktop\school\Active_Bike_Lighting_System\Radar_Core\Libraries\XMCLib\inc\xmc_gpio.h **** 
 290:C:\Users\Depes Crystalline\Desktop\school\Active_Bike_Lighting_System\Radar_Core\Libraries\XMCLib\inc\xmc_gpio.h **** __STATIC_INLINE void XMC_GPIO_SetOutputHigh(XMC_GPIO_PORT_t *const port, const uint8_t pin)
 291:C:\Users\Depes Crystalline\Desktop\school\Active_Bike_Lighting_System\Radar_Core\Libraries\XMCLib\inc\xmc_gpio.h **** {
  26              	 .loc 1 291 0
  27              	 .cfi_startproc
  28              	 
  29              	 
  30              	 
  31 0000 80B4     	 push {r7}
  32              	.LCFI0:
  33              	 .cfi_def_cfa_offset 4
  34              	 .cfi_offset 7,-4
  35 0002 83B0     	 sub sp,sp,#12
  36              	.LCFI1:
  37              	 .cfi_def_cfa_offset 16
  38 0004 00AF     	 add r7,sp,#0
  39              	.LCFI2:
  40              	 .cfi_def_cfa_register 7
  41 0006 7860     	 str r0,[r7,#4]
  42 0008 0B46     	 mov r3,r1
  43 000a FB70     	 strb r3,[r7,#3]
 292:C:\Users\Depes Crystalline\Desktop\school\Active_Bike_Lighting_System\Radar_Core\Libraries\XMCLib\inc\xmc_gpio.h ****   XMC_ASSERT("XMC_GPIO_SetOutputHigh: Invalid port", XMC_GPIO_CHECK_OUTPUT_PORT(port));
 293:C:\Users\Depes Crystalline\Desktop\school\Active_Bike_Lighting_System\Radar_Core\Libraries\XMCLib\inc\xmc_gpio.h **** 
 294:C:\Users\Depes Crystalline\Desktop\school\Active_Bike_Lighting_System\Radar_Core\Libraries\XMCLib\inc\xmc_gpio.h ****   port->OMR = (uint32_t)0x1U << pin;
  44              	 .loc 1 294 0
  45 000c FB78     	 ldrb r3,[r7,#3]
  46 000e 0122     	 movs r2,#1
  47 0010 9A40     	 lsls r2,r2,r3
  48 0012 7B68     	 ldr r3,[r7,#4]
  49 0014 5A60     	 str r2,[r3,#4]
 295:C:\Users\Depes Crystalline\Desktop\school\Active_Bike_Lighting_System\Radar_Core\Libraries\XMCLib\inc\xmc_gpio.h **** }
  50              	 .loc 1 295 0
  51 0016 0C37     	 adds r7,r7,#12
  52              	.LCFI3:
  53              	 .cfi_def_cfa_offset 4
  54 0018 BD46     	 mov sp,r7
  55              	.LCFI4:
  56              	 .cfi_def_cfa_register 13
  57              	 
  58 001a 5DF8047B 	 ldr r7,[sp],#4
  59              	.LCFI5:
  60              	 .cfi_restore 7
  61              	 .cfi_def_cfa_offset 0
  62 001e 7047     	 bx lr
  63              	 .cfi_endproc
  64              	.LFE129:
  66              	 .section .text.XMC_GPIO_SetOutputLow,"ax",%progbits
  67              	 .align 2
  68              	 .thumb
  69              	 .thumb_func
  71              	XMC_GPIO_SetOutputLow:
  72              	.LFB130:
 296:C:\Users\Depes Crystalline\Desktop\school\Active_Bike_Lighting_System\Radar_Core\Libraries\XMCLib\inc\xmc_gpio.h **** 
 297:C:\Users\Depes Crystalline\Desktop\school\Active_Bike_Lighting_System\Radar_Core\Libraries\XMCLib\inc\xmc_gpio.h **** /**
 298:C:\Users\Depes Crystalline\Desktop\school\Active_Bike_Lighting_System\Radar_Core\Libraries\XMCLib\inc\xmc_gpio.h ****  *
 299:C:\Users\Depes Crystalline\Desktop\school\Active_Bike_Lighting_System\Radar_Core\Libraries\XMCLib\inc\xmc_gpio.h ****  * @param  port	constant pointer pointing to GPIO port, to access hardware register Pn_OMR.
 300:C:\Users\Depes Crystalline\Desktop\school\Active_Bike_Lighting_System\Radar_Core\Libraries\XMCLib\inc\xmc_gpio.h ****  * @param  pin	port pin number.
 301:C:\Users\Depes Crystalline\Desktop\school\Active_Bike_Lighting_System\Radar_Core\Libraries\XMCLib\inc\xmc_gpio.h ****  *
 302:C:\Users\Depes Crystalline\Desktop\school\Active_Bike_Lighting_System\Radar_Core\Libraries\XMCLib\inc\xmc_gpio.h ****  * @return  None
 303:C:\Users\Depes Crystalline\Desktop\school\Active_Bike_Lighting_System\Radar_Core\Libraries\XMCLib\inc\xmc_gpio.h ****  *
 304:C:\Users\Depes Crystalline\Desktop\school\Active_Bike_Lighting_System\Radar_Core\Libraries\XMCLib\inc\xmc_gpio.h ****  *\par<b>Description:</b><br>
 305:C:\Users\Depes Crystalline\Desktop\school\Active_Bike_Lighting_System\Radar_Core\Libraries\XMCLib\inc\xmc_gpio.h ****  * Sets port pin output to low. It configures hardware registers Pn_OMR.\n
 306:C:\Users\Depes Crystalline\Desktop\school\Active_Bike_Lighting_System\Radar_Core\Libraries\XMCLib\inc\xmc_gpio.h ****  *
 307:C:\Users\Depes Crystalline\Desktop\school\Active_Bike_Lighting_System\Radar_Core\Libraries\XMCLib\inc\xmc_gpio.h ****  * \par<b>Related APIs:</b><BR>>
 308:C:\Users\Depes Crystalline\Desktop\school\Active_Bike_Lighting_System\Radar_Core\Libraries\XMCLib\inc\xmc_gpio.h ****  * XMC_GPIO_SetOutputHigh()
 309:C:\Users\Depes Crystalline\Desktop\school\Active_Bike_Lighting_System\Radar_Core\Libraries\XMCLib\inc\xmc_gpio.h ****  *
 310:C:\Users\Depes Crystalline\Desktop\school\Active_Bike_Lighting_System\Radar_Core\Libraries\XMCLib\inc\xmc_gpio.h ****  *\par<b>Note:</b><br>
 311:C:\Users\Depes Crystalline\Desktop\school\Active_Bike_Lighting_System\Radar_Core\Libraries\XMCLib\inc\xmc_gpio.h ****  * Prior to this api, user has to configure port pin to output mode using XMC_GPIO_SetMode().
 312:C:\Users\Depes Crystalline\Desktop\school\Active_Bike_Lighting_System\Radar_Core\Libraries\XMCLib\inc\xmc_gpio.h ****  * Register Pn_OMR is virtual and does not contain any flip-flop. A read action delivers the value 
 313:C:\Users\Depes Crystalline\Desktop\school\Active_Bike_Lighting_System\Radar_Core\Libraries\XMCLib\inc\xmc_gpio.h ****  *
 314:C:\Users\Depes Crystalline\Desktop\school\Active_Bike_Lighting_System\Radar_Core\Libraries\XMCLib\inc\xmc_gpio.h ****  */
 315:C:\Users\Depes Crystalline\Desktop\school\Active_Bike_Lighting_System\Radar_Core\Libraries\XMCLib\inc\xmc_gpio.h **** 
 316:C:\Users\Depes Crystalline\Desktop\school\Active_Bike_Lighting_System\Radar_Core\Libraries\XMCLib\inc\xmc_gpio.h **** __STATIC_INLINE void XMC_GPIO_SetOutputLow(XMC_GPIO_PORT_t *const port, const uint8_t pin)
 317:C:\Users\Depes Crystalline\Desktop\school\Active_Bike_Lighting_System\Radar_Core\Libraries\XMCLib\inc\xmc_gpio.h **** {
  73              	 .loc 1 317 0
  74              	 .cfi_startproc
  75              	 
  76              	 
  77              	 
  78 0000 80B4     	 push {r7}
  79              	.LCFI6:
  80              	 .cfi_def_cfa_offset 4
  81              	 .cfi_offset 7,-4
  82 0002 83B0     	 sub sp,sp,#12
  83              	.LCFI7:
  84              	 .cfi_def_cfa_offset 16
  85 0004 00AF     	 add r7,sp,#0
  86              	.LCFI8:
  87              	 .cfi_def_cfa_register 7
  88 0006 7860     	 str r0,[r7,#4]
  89 0008 0B46     	 mov r3,r1
  90 000a FB70     	 strb r3,[r7,#3]
 318:C:\Users\Depes Crystalline\Desktop\school\Active_Bike_Lighting_System\Radar_Core\Libraries\XMCLib\inc\xmc_gpio.h ****   XMC_ASSERT("XMC_GPIO_SetOutputLow: Invalid port", XMC_GPIO_CHECK_OUTPUT_PORT(port));
 319:C:\Users\Depes Crystalline\Desktop\school\Active_Bike_Lighting_System\Radar_Core\Libraries\XMCLib\inc\xmc_gpio.h **** 
 320:C:\Users\Depes Crystalline\Desktop\school\Active_Bike_Lighting_System\Radar_Core\Libraries\XMCLib\inc\xmc_gpio.h ****   port->OMR = 0x10000U << pin;
  91              	 .loc 1 320 0
  92 000c FB78     	 ldrb r3,[r7,#3]
  93 000e 4FF48032 	 mov r2,#65536
  94 0012 9A40     	 lsls r2,r2,r3
  95 0014 7B68     	 ldr r3,[r7,#4]
  96 0016 5A60     	 str r2,[r3,#4]
 321:C:\Users\Depes Crystalline\Desktop\school\Active_Bike_Lighting_System\Radar_Core\Libraries\XMCLib\inc\xmc_gpio.h **** }
  97              	 .loc 1 321 0
  98 0018 0C37     	 adds r7,r7,#12
  99              	.LCFI9:
 100              	 .cfi_def_cfa_offset 4
 101 001a BD46     	 mov sp,r7
 102              	.LCFI10:
 103              	 .cfi_def_cfa_register 13
 104              	 
 105 001c 5DF8047B 	 ldr r7,[sp],#4
 106              	.LCFI11:
 107              	 .cfi_restore 7
 108              	 .cfi_def_cfa_offset 0
 109 0020 7047     	 bx lr
 110              	 .cfi_endproc
 111              	.LFE130:
 113 0022 00BF     	 .section .text.DIGITAL_IO_SetOutputHigh,"ax",%progbits
 114              	 .align 2
 115              	 .thumb
 116              	 .thumb_func
 118              	DIGITAL_IO_SetOutputHigh:
 119              	.LFB137:
 120              	 .file 2 "C:\\Users\\Depes Crystalline\\Desktop\\school\\Active_Bike_Lighting_System\\Radar_Core\\Dave\\Generated/DIGITAL_IO/digital_io.h"
   1:C:\Users\Depes Crystalline\Desktop\school\Active_Bike_Lighting_System\Radar_Core\Dave\Generated/DIGITAL_IO\digital_io.h **** /*
   2:C:\Users\Depes Crystalline\Desktop\school\Active_Bike_Lighting_System\Radar_Core\Dave\Generated/DIGITAL_IO\digital_io.h ****  *
   3:C:\Users\Depes Crystalline\Desktop\school\Active_Bike_Lighting_System\Radar_Core\Dave\Generated/DIGITAL_IO\digital_io.h ****  * @file digital_io.c
   4:C:\Users\Depes Crystalline\Desktop\school\Active_Bike_Lighting_System\Radar_Core\Dave\Generated/DIGITAL_IO\digital_io.h ****  * @date 2015-06-20
   5:C:\Users\Depes Crystalline\Desktop\school\Active_Bike_Lighting_System\Radar_Core\Dave\Generated/DIGITAL_IO\digital_io.h ****  *
   6:C:\Users\Depes Crystalline\Desktop\school\Active_Bike_Lighting_System\Radar_Core\Dave\Generated/DIGITAL_IO\digital_io.h ****  * NOTE:
   7:C:\Users\Depes Crystalline\Desktop\school\Active_Bike_Lighting_System\Radar_Core\Dave\Generated/DIGITAL_IO\digital_io.h ****  * This file is generated by DAVE. Any manual modification done to this file will be lost when the 
   8:C:\Users\Depes Crystalline\Desktop\school\Active_Bike_Lighting_System\Radar_Core\Dave\Generated/DIGITAL_IO\digital_io.h ****  *
   9:C:\Users\Depes Crystalline\Desktop\school\Active_Bike_Lighting_System\Radar_Core\Dave\Generated/DIGITAL_IO\digital_io.h ****  * @cond
  10:C:\Users\Depes Crystalline\Desktop\school\Active_Bike_Lighting_System\Radar_Core\Dave\Generated/DIGITAL_IO\digital_io.h ****  **************************************************************************************************
  11:C:\Users\Depes Crystalline\Desktop\school\Active_Bike_Lighting_System\Radar_Core\Dave\Generated/DIGITAL_IO\digital_io.h ****  * DIGITAL_IO v4.0.6 - The DIGITAL_IO APP is used to configure a port pin as digital Input/Output.
  12:C:\Users\Depes Crystalline\Desktop\school\Active_Bike_Lighting_System\Radar_Core\Dave\Generated/DIGITAL_IO\digital_io.h ****  *
  13:C:\Users\Depes Crystalline\Desktop\school\Active_Bike_Lighting_System\Radar_Core\Dave\Generated/DIGITAL_IO\digital_io.h ****  * Copyright (c) 2015, Infineon Technologies AG
  14:C:\Users\Depes Crystalline\Desktop\school\Active_Bike_Lighting_System\Radar_Core\Dave\Generated/DIGITAL_IO\digital_io.h ****  * All rights reserved.
  15:C:\Users\Depes Crystalline\Desktop\school\Active_Bike_Lighting_System\Radar_Core\Dave\Generated/DIGITAL_IO\digital_io.h ****  *
  16:C:\Users\Depes Crystalline\Desktop\school\Active_Bike_Lighting_System\Radar_Core\Dave\Generated/DIGITAL_IO\digital_io.h ****  * Redistribution and use in source and binary forms, with or without modification,are permitted pr
  17:C:\Users\Depes Crystalline\Desktop\school\Active_Bike_Lighting_System\Radar_Core\Dave\Generated/DIGITAL_IO\digital_io.h ****  * following conditions are met:
  18:C:\Users\Depes Crystalline\Desktop\school\Active_Bike_Lighting_System\Radar_Core\Dave\Generated/DIGITAL_IO\digital_io.h ****  *
  19:C:\Users\Depes Crystalline\Desktop\school\Active_Bike_Lighting_System\Radar_Core\Dave\Generated/DIGITAL_IO\digital_io.h ****  *   Redistributions of source code must retain the above copyright notice, this list of conditions
  20:C:\Users\Depes Crystalline\Desktop\school\Active_Bike_Lighting_System\Radar_Core\Dave\Generated/DIGITAL_IO\digital_io.h ****  *   disclaimer.
  21:C:\Users\Depes Crystalline\Desktop\school\Active_Bike_Lighting_System\Radar_Core\Dave\Generated/DIGITAL_IO\digital_io.h ****  *
  22:C:\Users\Depes Crystalline\Desktop\school\Active_Bike_Lighting_System\Radar_Core\Dave\Generated/DIGITAL_IO\digital_io.h ****  *   Redistributions in binary form must reproduce the above copyright notice, this list of conditi
  23:C:\Users\Depes Crystalline\Desktop\school\Active_Bike_Lighting_System\Radar_Core\Dave\Generated/DIGITAL_IO\digital_io.h ****  *   following disclaimer in the documentation and/or other materials provided with the distributio
  24:C:\Users\Depes Crystalline\Desktop\school\Active_Bike_Lighting_System\Radar_Core\Dave\Generated/DIGITAL_IO\digital_io.h ****  *
  25:C:\Users\Depes Crystalline\Desktop\school\Active_Bike_Lighting_System\Radar_Core\Dave\Generated/DIGITAL_IO\digital_io.h ****  *   Neither the name of the copyright holders nor the names of its contributors may be used to end
  26:C:\Users\Depes Crystalline\Desktop\school\Active_Bike_Lighting_System\Radar_Core\Dave\Generated/DIGITAL_IO\digital_io.h ****  *   products derived from this software without specific prior written permission.
  27:C:\Users\Depes Crystalline\Desktop\school\Active_Bike_Lighting_System\Radar_Core\Dave\Generated/DIGITAL_IO\digital_io.h ****  *
  28:C:\Users\Depes Crystalline\Desktop\school\Active_Bike_Lighting_System\Radar_Core\Dave\Generated/DIGITAL_IO\digital_io.h ****  * THIS SOFTWARE IS PROVIDED BY THE COPYRIGHT HOLDERS AND CONTRIBUTORS "AS IS" AND ANY EXPRESS OR I
  29:C:\Users\Depes Crystalline\Desktop\school\Active_Bike_Lighting_System\Radar_Core\Dave\Generated/DIGITAL_IO\digital_io.h ****  * INCLUDING, BUT NOT LIMITED TO, THE IMPLIED WARRANTIES OF MERCHANTABILITY AND FITNESS FOR A PARTI
  30:C:\Users\Depes Crystalline\Desktop\school\Active_Bike_Lighting_System\Radar_Core\Dave\Generated/DIGITAL_IO\digital_io.h ****  * DISCLAIMED. IN NO EVENT SHALL THE COPYRIGHT HOLDER OR CONTRIBUTORS BE LIABLE  FOR ANY DIRECT, IN
  31:C:\Users\Depes Crystalline\Desktop\school\Active_Bike_Lighting_System\Radar_Core\Dave\Generated/DIGITAL_IO\digital_io.h ****  * SPECIAL, EXEMPLARY, OR CONSEQUENTIAL DAMAGES (INCLUDING, BUT NOT LIMITED TO, PROCUREMENT OF SUBS
  32:C:\Users\Depes Crystalline\Desktop\school\Active_Bike_Lighting_System\Radar_Core\Dave\Generated/DIGITAL_IO\digital_io.h ****  * SERVICES; LOSS OF USE, DATA, OR PROFITS; OR BUSINESS INTERRUPTION) HOWEVER CAUSED AND ON ANY THE
  33:C:\Users\Depes Crystalline\Desktop\school\Active_Bike_Lighting_System\Radar_Core\Dave\Generated/DIGITAL_IO\digital_io.h ****  * WHETHER IN CONTRACT, STRICT LIABILITY,OR TORT (INCLUDING NEGLIGENCE OR OTHERWISE) ARISING IN ANY
  34:C:\Users\Depes Crystalline\Desktop\school\Active_Bike_Lighting_System\Radar_Core\Dave\Generated/DIGITAL_IO\digital_io.h ****  * USE OF THIS SOFTWARE, EVEN IF ADVISED OF THE POSSIBILITY OF SUCH DAMAGE.
  35:C:\Users\Depes Crystalline\Desktop\school\Active_Bike_Lighting_System\Radar_Core\Dave\Generated/DIGITAL_IO\digital_io.h ****  *
  36:C:\Users\Depes Crystalline\Desktop\school\Active_Bike_Lighting_System\Radar_Core\Dave\Generated/DIGITAL_IO\digital_io.h ****  * To improve the quality of the software, users are encouraged to share modifications, enhancement
  37:C:\Users\Depes Crystalline\Desktop\school\Active_Bike_Lighting_System\Radar_Core\Dave\Generated/DIGITAL_IO\digital_io.h ****  * with Infineon Technologies AG (dave@infineon.com).
  38:C:\Users\Depes Crystalline\Desktop\school\Active_Bike_Lighting_System\Radar_Core\Dave\Generated/DIGITAL_IO\digital_io.h ****  **************************************************************************************************
  39:C:\Users\Depes Crystalline\Desktop\school\Active_Bike_Lighting_System\Radar_Core\Dave\Generated/DIGITAL_IO\digital_io.h ****  *
  40:C:\Users\Depes Crystalline\Desktop\school\Active_Bike_Lighting_System\Radar_Core\Dave\Generated/DIGITAL_IO\digital_io.h ****  * Change History
  41:C:\Users\Depes Crystalline\Desktop\school\Active_Bike_Lighting_System\Radar_Core\Dave\Generated/DIGITAL_IO\digital_io.h ****  * --------------
  42:C:\Users\Depes Crystalline\Desktop\school\Active_Bike_Lighting_System\Radar_Core\Dave\Generated/DIGITAL_IO\digital_io.h ****  *
  43:C:\Users\Depes Crystalline\Desktop\school\Active_Bike_Lighting_System\Radar_Core\Dave\Generated/DIGITAL_IO\digital_io.h ****  * 2015-02-16
  44:C:\Users\Depes Crystalline\Desktop\school\Active_Bike_Lighting_System\Radar_Core\Dave\Generated/DIGITAL_IO\digital_io.h ****  *     - Initial version
  45:C:\Users\Depes Crystalline\Desktop\school\Active_Bike_Lighting_System\Radar_Core\Dave\Generated/DIGITAL_IO\digital_io.h ****  *
  46:C:\Users\Depes Crystalline\Desktop\school\Active_Bike_Lighting_System\Radar_Core\Dave\Generated/DIGITAL_IO\digital_io.h ****  * 2015-04-22
  47:C:\Users\Depes Crystalline\Desktop\school\Active_Bike_Lighting_System\Radar_Core\Dave\Generated/DIGITAL_IO\digital_io.h ****  *     - XMC_ASSERT is added in static inline functions.<br>
  48:C:\Users\Depes Crystalline\Desktop\school\Active_Bike_Lighting_System\Radar_Core\Dave\Generated/DIGITAL_IO\digital_io.h ****  *
  49:C:\Users\Depes Crystalline\Desktop\school\Active_Bike_Lighting_System\Radar_Core\Dave\Generated/DIGITAL_IO\digital_io.h ****  * 2015-06-20
  50:C:\Users\Depes Crystalline\Desktop\school\Active_Bike_Lighting_System\Radar_Core\Dave\Generated/DIGITAL_IO\digital_io.h ****  *     - Version check added for XMCLib dependency.<br>
  51:C:\Users\Depes Crystalline\Desktop\school\Active_Bike_Lighting_System\Radar_Core\Dave\Generated/DIGITAL_IO\digital_io.h ****  *
  52:C:\Users\Depes Crystalline\Desktop\school\Active_Bike_Lighting_System\Radar_Core\Dave\Generated/DIGITAL_IO\digital_io.h ****  * @endcond
  53:C:\Users\Depes Crystalline\Desktop\school\Active_Bike_Lighting_System\Radar_Core\Dave\Generated/DIGITAL_IO\digital_io.h ****  *
  54:C:\Users\Depes Crystalline\Desktop\school\Active_Bike_Lighting_System\Radar_Core\Dave\Generated/DIGITAL_IO\digital_io.h ****  */
  55:C:\Users\Depes Crystalline\Desktop\school\Active_Bike_Lighting_System\Radar_Core\Dave\Generated/DIGITAL_IO\digital_io.h **** 
  56:C:\Users\Depes Crystalline\Desktop\school\Active_Bike_Lighting_System\Radar_Core\Dave\Generated/DIGITAL_IO\digital_io.h **** /**************************************************************************************************
  57:C:\Users\Depes Crystalline\Desktop\school\Active_Bike_Lighting_System\Radar_Core\Dave\Generated/DIGITAL_IO\digital_io.h ****  * HEADER FILES
  58:C:\Users\Depes Crystalline\Desktop\school\Active_Bike_Lighting_System\Radar_Core\Dave\Generated/DIGITAL_IO\digital_io.h ****  **************************************************************************************************
  59:C:\Users\Depes Crystalline\Desktop\school\Active_Bike_Lighting_System\Radar_Core\Dave\Generated/DIGITAL_IO\digital_io.h **** 
  60:C:\Users\Depes Crystalline\Desktop\school\Active_Bike_Lighting_System\Radar_Core\Dave\Generated/DIGITAL_IO\digital_io.h **** #ifndef DIGITAL_IO_H
  61:C:\Users\Depes Crystalline\Desktop\school\Active_Bike_Lighting_System\Radar_Core\Dave\Generated/DIGITAL_IO\digital_io.h **** #define DIGITAL_IO_H
  62:C:\Users\Depes Crystalline\Desktop\school\Active_Bike_Lighting_System\Radar_Core\Dave\Generated/DIGITAL_IO\digital_io.h **** 
  63:C:\Users\Depes Crystalline\Desktop\school\Active_Bike_Lighting_System\Radar_Core\Dave\Generated/DIGITAL_IO\digital_io.h **** #include <xmc_gpio.h>
  64:C:\Users\Depes Crystalline\Desktop\school\Active_Bike_Lighting_System\Radar_Core\Dave\Generated/DIGITAL_IO\digital_io.h **** #include <DAVE_common.h>
  65:C:\Users\Depes Crystalline\Desktop\school\Active_Bike_Lighting_System\Radar_Core\Dave\Generated/DIGITAL_IO\digital_io.h **** #include "digital_io_conf.h"
  66:C:\Users\Depes Crystalline\Desktop\school\Active_Bike_Lighting_System\Radar_Core\Dave\Generated/DIGITAL_IO\digital_io.h **** 
  67:C:\Users\Depes Crystalline\Desktop\school\Active_Bike_Lighting_System\Radar_Core\Dave\Generated/DIGITAL_IO\digital_io.h **** /**************************************************************************************************
  68:C:\Users\Depes Crystalline\Desktop\school\Active_Bike_Lighting_System\Radar_Core\Dave\Generated/DIGITAL_IO\digital_io.h ****  * MACROS
  69:C:\Users\Depes Crystalline\Desktop\school\Active_Bike_Lighting_System\Radar_Core\Dave\Generated/DIGITAL_IO\digital_io.h ****  **************************************************************************************************
  70:C:\Users\Depes Crystalline\Desktop\school\Active_Bike_Lighting_System\Radar_Core\Dave\Generated/DIGITAL_IO\digital_io.h **** #if (!((XMC_LIB_MAJOR_VERSION == 2U) && \
  71:C:\Users\Depes Crystalline\Desktop\school\Active_Bike_Lighting_System\Radar_Core\Dave\Generated/DIGITAL_IO\digital_io.h ****        (XMC_LIB_MINOR_VERSION >= 0U) && \
  72:C:\Users\Depes Crystalline\Desktop\school\Active_Bike_Lighting_System\Radar_Core\Dave\Generated/DIGITAL_IO\digital_io.h ****        (XMC_LIB_PATCH_VERSION >= 0U)))
  73:C:\Users\Depes Crystalline\Desktop\school\Active_Bike_Lighting_System\Radar_Core\Dave\Generated/DIGITAL_IO\digital_io.h **** #error "DIGITAL_IO requires XMC Peripheral Library v2.0.0 or higher"
  74:C:\Users\Depes Crystalline\Desktop\school\Active_Bike_Lighting_System\Radar_Core\Dave\Generated/DIGITAL_IO\digital_io.h **** #endif
  75:C:\Users\Depes Crystalline\Desktop\school\Active_Bike_Lighting_System\Radar_Core\Dave\Generated/DIGITAL_IO\digital_io.h **** 
  76:C:\Users\Depes Crystalline\Desktop\school\Active_Bike_Lighting_System\Radar_Core\Dave\Generated/DIGITAL_IO\digital_io.h ****  /*************************************************************************************************
  77:C:\Users\Depes Crystalline\Desktop\school\Active_Bike_Lighting_System\Radar_Core\Dave\Generated/DIGITAL_IO\digital_io.h ****  * ENUMS
  78:C:\Users\Depes Crystalline\Desktop\school\Active_Bike_Lighting_System\Radar_Core\Dave\Generated/DIGITAL_IO\digital_io.h ****  **************************************************************************************************
  79:C:\Users\Depes Crystalline\Desktop\school\Active_Bike_Lighting_System\Radar_Core\Dave\Generated/DIGITAL_IO\digital_io.h **** 
  80:C:\Users\Depes Crystalline\Desktop\school\Active_Bike_Lighting_System\Radar_Core\Dave\Generated/DIGITAL_IO\digital_io.h **** /**
  81:C:\Users\Depes Crystalline\Desktop\school\Active_Bike_Lighting_System\Radar_Core\Dave\Generated/DIGITAL_IO\digital_io.h **** * @ingroup DIGITAL_IO_enumerations
  82:C:\Users\Depes Crystalline\Desktop\school\Active_Bike_Lighting_System\Radar_Core\Dave\Generated/DIGITAL_IO\digital_io.h **** * @{
  83:C:\Users\Depes Crystalline\Desktop\school\Active_Bike_Lighting_System\Radar_Core\Dave\Generated/DIGITAL_IO\digital_io.h **** */
  84:C:\Users\Depes Crystalline\Desktop\school\Active_Bike_Lighting_System\Radar_Core\Dave\Generated/DIGITAL_IO\digital_io.h **** 
  85:C:\Users\Depes Crystalline\Desktop\school\Active_Bike_Lighting_System\Radar_Core\Dave\Generated/DIGITAL_IO\digital_io.h **** /**
  86:C:\Users\Depes Crystalline\Desktop\school\Active_Bike_Lighting_System\Radar_Core\Dave\Generated/DIGITAL_IO\digital_io.h **** * @brief Initialization status of DIGITAL_IO APP.
  87:C:\Users\Depes Crystalline\Desktop\school\Active_Bike_Lighting_System\Radar_Core\Dave\Generated/DIGITAL_IO\digital_io.h **** */
  88:C:\Users\Depes Crystalline\Desktop\school\Active_Bike_Lighting_System\Radar_Core\Dave\Generated/DIGITAL_IO\digital_io.h **** typedef enum DIGITAL_IO_STATUS
  89:C:\Users\Depes Crystalline\Desktop\school\Active_Bike_Lighting_System\Radar_Core\Dave\Generated/DIGITAL_IO\digital_io.h **** {
  90:C:\Users\Depes Crystalline\Desktop\school\Active_Bike_Lighting_System\Radar_Core\Dave\Generated/DIGITAL_IO\digital_io.h ****   DIGITAL_IO_STATUS_OK = 0U,/**< 0=Status OK */
  91:C:\Users\Depes Crystalline\Desktop\school\Active_Bike_Lighting_System\Radar_Core\Dave\Generated/DIGITAL_IO\digital_io.h ****   DIGITAL_IO_STATUS_FAILURE = 1U/**< 1=Status Failed */
  92:C:\Users\Depes Crystalline\Desktop\school\Active_Bike_Lighting_System\Radar_Core\Dave\Generated/DIGITAL_IO\digital_io.h **** } DIGITAL_IO_STATUS_t;
  93:C:\Users\Depes Crystalline\Desktop\school\Active_Bike_Lighting_System\Radar_Core\Dave\Generated/DIGITAL_IO\digital_io.h **** 
  94:C:\Users\Depes Crystalline\Desktop\school\Active_Bike_Lighting_System\Radar_Core\Dave\Generated/DIGITAL_IO\digital_io.h **** /**
  95:C:\Users\Depes Crystalline\Desktop\school\Active_Bike_Lighting_System\Radar_Core\Dave\Generated/DIGITAL_IO\digital_io.h **** * @}
  96:C:\Users\Depes Crystalline\Desktop\school\Active_Bike_Lighting_System\Radar_Core\Dave\Generated/DIGITAL_IO\digital_io.h **** */
  97:C:\Users\Depes Crystalline\Desktop\school\Active_Bike_Lighting_System\Radar_Core\Dave\Generated/DIGITAL_IO\digital_io.h **** 
  98:C:\Users\Depes Crystalline\Desktop\school\Active_Bike_Lighting_System\Radar_Core\Dave\Generated/DIGITAL_IO\digital_io.h **** /**************************************************************************************************
  99:C:\Users\Depes Crystalline\Desktop\school\Active_Bike_Lighting_System\Radar_Core\Dave\Generated/DIGITAL_IO\digital_io.h ****  * DATA STRUCTURES
 100:C:\Users\Depes Crystalline\Desktop\school\Active_Bike_Lighting_System\Radar_Core\Dave\Generated/DIGITAL_IO\digital_io.h ****  **************************************************************************************************
 101:C:\Users\Depes Crystalline\Desktop\school\Active_Bike_Lighting_System\Radar_Core\Dave\Generated/DIGITAL_IO\digital_io.h **** /**
 102:C:\Users\Depes Crystalline\Desktop\school\Active_Bike_Lighting_System\Radar_Core\Dave\Generated/DIGITAL_IO\digital_io.h **** * @ingroup DIGITAL_IO_datastructures
 103:C:\Users\Depes Crystalline\Desktop\school\Active_Bike_Lighting_System\Radar_Core\Dave\Generated/DIGITAL_IO\digital_io.h **** * @{
 104:C:\Users\Depes Crystalline\Desktop\school\Active_Bike_Lighting_System\Radar_Core\Dave\Generated/DIGITAL_IO\digital_io.h **** */
 105:C:\Users\Depes Crystalline\Desktop\school\Active_Bike_Lighting_System\Radar_Core\Dave\Generated/DIGITAL_IO\digital_io.h **** 
 106:C:\Users\Depes Crystalline\Desktop\school\Active_Bike_Lighting_System\Radar_Core\Dave\Generated/DIGITAL_IO\digital_io.h **** /**
 107:C:\Users\Depes Crystalline\Desktop\school\Active_Bike_Lighting_System\Radar_Core\Dave\Generated/DIGITAL_IO\digital_io.h **** * @brief Initialization data structure of DIGITAL_IO APP
 108:C:\Users\Depes Crystalline\Desktop\school\Active_Bike_Lighting_System\Radar_Core\Dave\Generated/DIGITAL_IO\digital_io.h **** */
 109:C:\Users\Depes Crystalline\Desktop\school\Active_Bike_Lighting_System\Radar_Core\Dave\Generated/DIGITAL_IO\digital_io.h **** typedef struct DIGITAL_IO
 110:C:\Users\Depes Crystalline\Desktop\school\Active_Bike_Lighting_System\Radar_Core\Dave\Generated/DIGITAL_IO\digital_io.h **** {
 111:C:\Users\Depes Crystalline\Desktop\school\Active_Bike_Lighting_System\Radar_Core\Dave\Generated/DIGITAL_IO\digital_io.h ****   const XMC_GPIO_CONFIG_t *const gpio_config;   /**< mode, initial output level and pad driver stre
 112:C:\Users\Depes Crystalline\Desktop\school\Active_Bike_Lighting_System\Radar_Core\Dave\Generated/DIGITAL_IO\digital_io.h ****   XMC_GPIO_PORT_t *const gpio_port;             /**< port number */
 113:C:\Users\Depes Crystalline\Desktop\school\Active_Bike_Lighting_System\Radar_Core\Dave\Generated/DIGITAL_IO\digital_io.h ****   const uint8_t gpio_pin;                       /**< pin number */
 114:C:\Users\Depes Crystalline\Desktop\school\Active_Bike_Lighting_System\Radar_Core\Dave\Generated/DIGITAL_IO\digital_io.h **** } DIGITAL_IO_t;
 115:C:\Users\Depes Crystalline\Desktop\school\Active_Bike_Lighting_System\Radar_Core\Dave\Generated/DIGITAL_IO\digital_io.h **** 
 116:C:\Users\Depes Crystalline\Desktop\school\Active_Bike_Lighting_System\Radar_Core\Dave\Generated/DIGITAL_IO\digital_io.h **** 
 117:C:\Users\Depes Crystalline\Desktop\school\Active_Bike_Lighting_System\Radar_Core\Dave\Generated/DIGITAL_IO\digital_io.h **** /**
 118:C:\Users\Depes Crystalline\Desktop\school\Active_Bike_Lighting_System\Radar_Core\Dave\Generated/DIGITAL_IO\digital_io.h **** * @}
 119:C:\Users\Depes Crystalline\Desktop\school\Active_Bike_Lighting_System\Radar_Core\Dave\Generated/DIGITAL_IO\digital_io.h **** */
 120:C:\Users\Depes Crystalline\Desktop\school\Active_Bike_Lighting_System\Radar_Core\Dave\Generated/DIGITAL_IO\digital_io.h **** 
 121:C:\Users\Depes Crystalline\Desktop\school\Active_Bike_Lighting_System\Radar_Core\Dave\Generated/DIGITAL_IO\digital_io.h **** 
 122:C:\Users\Depes Crystalline\Desktop\school\Active_Bike_Lighting_System\Radar_Core\Dave\Generated/DIGITAL_IO\digital_io.h **** /**************************************************************************************************
 123:C:\Users\Depes Crystalline\Desktop\school\Active_Bike_Lighting_System\Radar_Core\Dave\Generated/DIGITAL_IO\digital_io.h ****  * API Prototypes
 124:C:\Users\Depes Crystalline\Desktop\school\Active_Bike_Lighting_System\Radar_Core\Dave\Generated/DIGITAL_IO\digital_io.h ****  **************************************************************************************************
 125:C:\Users\Depes Crystalline\Desktop\school\Active_Bike_Lighting_System\Radar_Core\Dave\Generated/DIGITAL_IO\digital_io.h **** 
 126:C:\Users\Depes Crystalline\Desktop\school\Active_Bike_Lighting_System\Radar_Core\Dave\Generated/DIGITAL_IO\digital_io.h **** 
 127:C:\Users\Depes Crystalline\Desktop\school\Active_Bike_Lighting_System\Radar_Core\Dave\Generated/DIGITAL_IO\digital_io.h **** #ifdef __cplusplus
 128:C:\Users\Depes Crystalline\Desktop\school\Active_Bike_Lighting_System\Radar_Core\Dave\Generated/DIGITAL_IO\digital_io.h **** extern "C" {
 129:C:\Users\Depes Crystalline\Desktop\school\Active_Bike_Lighting_System\Radar_Core\Dave\Generated/DIGITAL_IO\digital_io.h **** #endif
 130:C:\Users\Depes Crystalline\Desktop\school\Active_Bike_Lighting_System\Radar_Core\Dave\Generated/DIGITAL_IO\digital_io.h **** 
 131:C:\Users\Depes Crystalline\Desktop\school\Active_Bike_Lighting_System\Radar_Core\Dave\Generated/DIGITAL_IO\digital_io.h **** /**
 132:C:\Users\Depes Crystalline\Desktop\school\Active_Bike_Lighting_System\Radar_Core\Dave\Generated/DIGITAL_IO\digital_io.h **** * @ingroup DIGITAL_IO_apidoc
 133:C:\Users\Depes Crystalline\Desktop\school\Active_Bike_Lighting_System\Radar_Core\Dave\Generated/DIGITAL_IO\digital_io.h **** * @{
 134:C:\Users\Depes Crystalline\Desktop\school\Active_Bike_Lighting_System\Radar_Core\Dave\Generated/DIGITAL_IO\digital_io.h **** */
 135:C:\Users\Depes Crystalline\Desktop\school\Active_Bike_Lighting_System\Radar_Core\Dave\Generated/DIGITAL_IO\digital_io.h **** 
 136:C:\Users\Depes Crystalline\Desktop\school\Active_Bike_Lighting_System\Radar_Core\Dave\Generated/DIGITAL_IO\digital_io.h **** 
 137:C:\Users\Depes Crystalline\Desktop\school\Active_Bike_Lighting_System\Radar_Core\Dave\Generated/DIGITAL_IO\digital_io.h **** 
 138:C:\Users\Depes Crystalline\Desktop\school\Active_Bike_Lighting_System\Radar_Core\Dave\Generated/DIGITAL_IO\digital_io.h **** /**
 139:C:\Users\Depes Crystalline\Desktop\school\Active_Bike_Lighting_System\Radar_Core\Dave\Generated/DIGITAL_IO\digital_io.h **** * @brief Get DIGITAL_IO APP version
 140:C:\Users\Depes Crystalline\Desktop\school\Active_Bike_Lighting_System\Radar_Core\Dave\Generated/DIGITAL_IO\digital_io.h **** * @return DAVE_APP_VERSION_t APP version information (major, minor and patch number)
 141:C:\Users\Depes Crystalline\Desktop\school\Active_Bike_Lighting_System\Radar_Core\Dave\Generated/DIGITAL_IO\digital_io.h **** *
 142:C:\Users\Depes Crystalline\Desktop\school\Active_Bike_Lighting_System\Radar_Core\Dave\Generated/DIGITAL_IO\digital_io.h **** * \par<b>Description: </b><br>
 143:C:\Users\Depes Crystalline\Desktop\school\Active_Bike_Lighting_System\Radar_Core\Dave\Generated/DIGITAL_IO\digital_io.h **** * The function can be used to check application software compatibility with a
 144:C:\Users\Depes Crystalline\Desktop\school\Active_Bike_Lighting_System\Radar_Core\Dave\Generated/DIGITAL_IO\digital_io.h **** * specific version of the APP.
 145:C:\Users\Depes Crystalline\Desktop\school\Active_Bike_Lighting_System\Radar_Core\Dave\Generated/DIGITAL_IO\digital_io.h **** *
 146:C:\Users\Depes Crystalline\Desktop\school\Active_Bike_Lighting_System\Radar_Core\Dave\Generated/DIGITAL_IO\digital_io.h **** * Example Usage:
 147:C:\Users\Depes Crystalline\Desktop\school\Active_Bike_Lighting_System\Radar_Core\Dave\Generated/DIGITAL_IO\digital_io.h **** *
 148:C:\Users\Depes Crystalline\Desktop\school\Active_Bike_Lighting_System\Radar_Core\Dave\Generated/DIGITAL_IO\digital_io.h **** * @code
 149:C:\Users\Depes Crystalline\Desktop\school\Active_Bike_Lighting_System\Radar_Core\Dave\Generated/DIGITAL_IO\digital_io.h **** * #include <DAVE.h>
 150:C:\Users\Depes Crystalline\Desktop\school\Active_Bike_Lighting_System\Radar_Core\Dave\Generated/DIGITAL_IO\digital_io.h **** *
 151:C:\Users\Depes Crystalline\Desktop\school\Active_Bike_Lighting_System\Radar_Core\Dave\Generated/DIGITAL_IO\digital_io.h **** * int main(void)
 152:C:\Users\Depes Crystalline\Desktop\school\Active_Bike_Lighting_System\Radar_Core\Dave\Generated/DIGITAL_IO\digital_io.h **** * {
 153:C:\Users\Depes Crystalline\Desktop\school\Active_Bike_Lighting_System\Radar_Core\Dave\Generated/DIGITAL_IO\digital_io.h **** *   DAVE_STATUS_t init_status;
 154:C:\Users\Depes Crystalline\Desktop\school\Active_Bike_Lighting_System\Radar_Core\Dave\Generated/DIGITAL_IO\digital_io.h **** *   DAVE_APP_VERSION_t version;
 155:C:\Users\Depes Crystalline\Desktop\school\Active_Bike_Lighting_System\Radar_Core\Dave\Generated/DIGITAL_IO\digital_io.h **** *
 156:C:\Users\Depes Crystalline\Desktop\school\Active_Bike_Lighting_System\Radar_Core\Dave\Generated/DIGITAL_IO\digital_io.h **** *   // Initialize DIGITAL_IO APP:
 157:C:\Users\Depes Crystalline\Desktop\school\Active_Bike_Lighting_System\Radar_Core\Dave\Generated/DIGITAL_IO\digital_io.h **** *   // DIGITAL_IO_Init() is called from within DAVE_Init().
 158:C:\Users\Depes Crystalline\Desktop\school\Active_Bike_Lighting_System\Radar_Core\Dave\Generated/DIGITAL_IO\digital_io.h **** *   init_status = DAVE_Init();
 159:C:\Users\Depes Crystalline\Desktop\school\Active_Bike_Lighting_System\Radar_Core\Dave\Generated/DIGITAL_IO\digital_io.h **** *   if(init_status == DAVE_STATUS_SUCCESS)
 160:C:\Users\Depes Crystalline\Desktop\school\Active_Bike_Lighting_System\Radar_Core\Dave\Generated/DIGITAL_IO\digital_io.h **** *   {
 161:C:\Users\Depes Crystalline\Desktop\school\Active_Bike_Lighting_System\Radar_Core\Dave\Generated/DIGITAL_IO\digital_io.h **** *     version = DIGITAL_IO_GetAppVersion();
 162:C:\Users\Depes Crystalline\Desktop\school\Active_Bike_Lighting_System\Radar_Core\Dave\Generated/DIGITAL_IO\digital_io.h **** *     if (version.major != 4U) {
 163:C:\Users\Depes Crystalline\Desktop\school\Active_Bike_Lighting_System\Radar_Core\Dave\Generated/DIGITAL_IO\digital_io.h **** *     // Probably, not the right version.
 164:C:\Users\Depes Crystalline\Desktop\school\Active_Bike_Lighting_System\Radar_Core\Dave\Generated/DIGITAL_IO\digital_io.h **** *     }
 165:C:\Users\Depes Crystalline\Desktop\school\Active_Bike_Lighting_System\Radar_Core\Dave\Generated/DIGITAL_IO\digital_io.h **** *   }
 166:C:\Users\Depes Crystalline\Desktop\school\Active_Bike_Lighting_System\Radar_Core\Dave\Generated/DIGITAL_IO\digital_io.h **** *
 167:C:\Users\Depes Crystalline\Desktop\school\Active_Bike_Lighting_System\Radar_Core\Dave\Generated/DIGITAL_IO\digital_io.h **** *     // More code here
 168:C:\Users\Depes Crystalline\Desktop\school\Active_Bike_Lighting_System\Radar_Core\Dave\Generated/DIGITAL_IO\digital_io.h **** *     while(1) {
 169:C:\Users\Depes Crystalline\Desktop\school\Active_Bike_Lighting_System\Radar_Core\Dave\Generated/DIGITAL_IO\digital_io.h **** *
 170:C:\Users\Depes Crystalline\Desktop\school\Active_Bike_Lighting_System\Radar_Core\Dave\Generated/DIGITAL_IO\digital_io.h **** *     }
 171:C:\Users\Depes Crystalline\Desktop\school\Active_Bike_Lighting_System\Radar_Core\Dave\Generated/DIGITAL_IO\digital_io.h **** *     return (1);
 172:C:\Users\Depes Crystalline\Desktop\school\Active_Bike_Lighting_System\Radar_Core\Dave\Generated/DIGITAL_IO\digital_io.h **** *  }
 173:C:\Users\Depes Crystalline\Desktop\school\Active_Bike_Lighting_System\Radar_Core\Dave\Generated/DIGITAL_IO\digital_io.h **** * @endcode<BR>
 174:C:\Users\Depes Crystalline\Desktop\school\Active_Bike_Lighting_System\Radar_Core\Dave\Generated/DIGITAL_IO\digital_io.h **** */
 175:C:\Users\Depes Crystalline\Desktop\school\Active_Bike_Lighting_System\Radar_Core\Dave\Generated/DIGITAL_IO\digital_io.h **** 
 176:C:\Users\Depes Crystalline\Desktop\school\Active_Bike_Lighting_System\Radar_Core\Dave\Generated/DIGITAL_IO\digital_io.h **** DAVE_APP_VERSION_t DIGITAL_IO_GetAppVersion(void);
 177:C:\Users\Depes Crystalline\Desktop\school\Active_Bike_Lighting_System\Radar_Core\Dave\Generated/DIGITAL_IO\digital_io.h **** 
 178:C:\Users\Depes Crystalline\Desktop\school\Active_Bike_Lighting_System\Radar_Core\Dave\Generated/DIGITAL_IO\digital_io.h **** /**
 179:C:\Users\Depes Crystalline\Desktop\school\Active_Bike_Lighting_System\Radar_Core\Dave\Generated/DIGITAL_IO\digital_io.h **** *
 180:C:\Users\Depes Crystalline\Desktop\school\Active_Bike_Lighting_System\Radar_Core\Dave\Generated/DIGITAL_IO\digital_io.h **** * @brief Function to initialize the port pin as per UI settings.
 181:C:\Users\Depes Crystalline\Desktop\school\Active_Bike_Lighting_System\Radar_Core\Dave\Generated/DIGITAL_IO\digital_io.h **** * @param handler Pointer pointing to APP data structure. Refer @ref DIGITAL_IO_t for details.
 182:C:\Users\Depes Crystalline\Desktop\school\Active_Bike_Lighting_System\Radar_Core\Dave\Generated/DIGITAL_IO\digital_io.h **** * @return DIGITAL_IO_STATUS_t DIGITAL_IO APP status. Refer @ref DIGITAL_IO_STATUS_t structure for d
 183:C:\Users\Depes Crystalline\Desktop\school\Active_Bike_Lighting_System\Radar_Core\Dave\Generated/DIGITAL_IO\digital_io.h **** *
 184:C:\Users\Depes Crystalline\Desktop\school\Active_Bike_Lighting_System\Radar_Core\Dave\Generated/DIGITAL_IO\digital_io.h **** * \par<b>Description:</b><br>
 185:C:\Users\Depes Crystalline\Desktop\school\Active_Bike_Lighting_System\Radar_Core\Dave\Generated/DIGITAL_IO\digital_io.h **** * This function initializes GPIO port registers IOCR,PDISC,OMR,PDR/PHCR to configure pin direction,
 186:C:\Users\Depes Crystalline\Desktop\school\Active_Bike_Lighting_System\Radar_Core\Dave\Generated/DIGITAL_IO\digital_io.h **** * and pad driver strength/hysteresis.
 187:C:\Users\Depes Crystalline\Desktop\school\Active_Bike_Lighting_System\Radar_Core\Dave\Generated/DIGITAL_IO\digital_io.h **** *
 188:C:\Users\Depes Crystalline\Desktop\school\Active_Bike_Lighting_System\Radar_Core\Dave\Generated/DIGITAL_IO\digital_io.h **** * \par<b>Related APIs:</b><BR>
 189:C:\Users\Depes Crystalline\Desktop\school\Active_Bike_Lighting_System\Radar_Core\Dave\Generated/DIGITAL_IO\digital_io.h **** * None
 190:C:\Users\Depes Crystalline\Desktop\school\Active_Bike_Lighting_System\Radar_Core\Dave\Generated/DIGITAL_IO\digital_io.h **** *
 191:C:\Users\Depes Crystalline\Desktop\school\Active_Bike_Lighting_System\Radar_Core\Dave\Generated/DIGITAL_IO\digital_io.h **** * Example Usage:
 192:C:\Users\Depes Crystalline\Desktop\school\Active_Bike_Lighting_System\Radar_Core\Dave\Generated/DIGITAL_IO\digital_io.h **** * @code
 193:C:\Users\Depes Crystalline\Desktop\school\Active_Bike_Lighting_System\Radar_Core\Dave\Generated/DIGITAL_IO\digital_io.h **** * #include <DAVE.h>//Declarations from DAVE Code Generation (includes SFR declaration)
 194:C:\Users\Depes Crystalline\Desktop\school\Active_Bike_Lighting_System\Radar_Core\Dave\Generated/DIGITAL_IO\digital_io.h **** * int main(void)
 195:C:\Users\Depes Crystalline\Desktop\school\Active_Bike_Lighting_System\Radar_Core\Dave\Generated/DIGITAL_IO\digital_io.h **** * {
 196:C:\Users\Depes Crystalline\Desktop\school\Active_Bike_Lighting_System\Radar_Core\Dave\Generated/DIGITAL_IO\digital_io.h **** *   DAVE_STATUS_t status;
 197:C:\Users\Depes Crystalline\Desktop\school\Active_Bike_Lighting_System\Radar_Core\Dave\Generated/DIGITAL_IO\digital_io.h **** *   status = DAVE_Init();  //(DAVE_STATUS_t)DIGITAL_IO_Init(&DIGITAL_IO_0) is called within DAVE_In
 198:C:\Users\Depes Crystalline\Desktop\school\Active_Bike_Lighting_System\Radar_Core\Dave\Generated/DIGITAL_IO\digital_io.h **** *   if(status == DAVE_STATUS_SUCCESS)
 199:C:\Users\Depes Crystalline\Desktop\school\Active_Bike_Lighting_System\Radar_Core\Dave\Generated/DIGITAL_IO\digital_io.h **** *   {
 200:C:\Users\Depes Crystalline\Desktop\school\Active_Bike_Lighting_System\Radar_Core\Dave\Generated/DIGITAL_IO\digital_io.h **** *     XMC_DEBUG("DAVE Apps initialization success\n");
 201:C:\Users\Depes Crystalline\Desktop\school\Active_Bike_Lighting_System\Radar_Core\Dave\Generated/DIGITAL_IO\digital_io.h **** *   }
 202:C:\Users\Depes Crystalline\Desktop\school\Active_Bike_Lighting_System\Radar_Core\Dave\Generated/DIGITAL_IO\digital_io.h **** *   else
 203:C:\Users\Depes Crystalline\Desktop\school\Active_Bike_Lighting_System\Radar_Core\Dave\Generated/DIGITAL_IO\digital_io.h **** *   {
 204:C:\Users\Depes Crystalline\Desktop\school\Active_Bike_Lighting_System\Radar_Core\Dave\Generated/DIGITAL_IO\digital_io.h **** *     XMC_DEBUG(("DAVE Apps initialization failed with status %d\n", status));
 205:C:\Users\Depes Crystalline\Desktop\school\Active_Bike_Lighting_System\Radar_Core\Dave\Generated/DIGITAL_IO\digital_io.h **** *     while(1U)
 206:C:\Users\Depes Crystalline\Desktop\school\Active_Bike_Lighting_System\Radar_Core\Dave\Generated/DIGITAL_IO\digital_io.h **** *     {
 207:C:\Users\Depes Crystalline\Desktop\school\Active_Bike_Lighting_System\Radar_Core\Dave\Generated/DIGITAL_IO\digital_io.h **** *     }
 208:C:\Users\Depes Crystalline\Desktop\school\Active_Bike_Lighting_System\Radar_Core\Dave\Generated/DIGITAL_IO\digital_io.h **** *   }
 209:C:\Users\Depes Crystalline\Desktop\school\Active_Bike_Lighting_System\Radar_Core\Dave\Generated/DIGITAL_IO\digital_io.h **** *   //Placeholder for user application code. The while loop below can be replaced with user applica
 210:C:\Users\Depes Crystalline\Desktop\school\Active_Bike_Lighting_System\Radar_Core\Dave\Generated/DIGITAL_IO\digital_io.h **** *   while(1U)
 211:C:\Users\Depes Crystalline\Desktop\school\Active_Bike_Lighting_System\Radar_Core\Dave\Generated/DIGITAL_IO\digital_io.h **** *   {
 212:C:\Users\Depes Crystalline\Desktop\school\Active_Bike_Lighting_System\Radar_Core\Dave\Generated/DIGITAL_IO\digital_io.h **** *   }
 213:C:\Users\Depes Crystalline\Desktop\school\Active_Bike_Lighting_System\Radar_Core\Dave\Generated/DIGITAL_IO\digital_io.h **** *   return 1U;
 214:C:\Users\Depes Crystalline\Desktop\school\Active_Bike_Lighting_System\Radar_Core\Dave\Generated/DIGITAL_IO\digital_io.h **** *  }
 215:C:\Users\Depes Crystalline\Desktop\school\Active_Bike_Lighting_System\Radar_Core\Dave\Generated/DIGITAL_IO\digital_io.h **** *  @endcode
 216:C:\Users\Depes Crystalline\Desktop\school\Active_Bike_Lighting_System\Radar_Core\Dave\Generated/DIGITAL_IO\digital_io.h **** */
 217:C:\Users\Depes Crystalline\Desktop\school\Active_Bike_Lighting_System\Radar_Core\Dave\Generated/DIGITAL_IO\digital_io.h **** 
 218:C:\Users\Depes Crystalline\Desktop\school\Active_Bike_Lighting_System\Radar_Core\Dave\Generated/DIGITAL_IO\digital_io.h **** DIGITAL_IO_STATUS_t DIGITAL_IO_Init(const DIGITAL_IO_t *const handler);
 219:C:\Users\Depes Crystalline\Desktop\school\Active_Bike_Lighting_System\Radar_Core\Dave\Generated/DIGITAL_IO\digital_io.h **** 
 220:C:\Users\Depes Crystalline\Desktop\school\Active_Bike_Lighting_System\Radar_Core\Dave\Generated/DIGITAL_IO\digital_io.h **** /**
 221:C:\Users\Depes Crystalline\Desktop\school\Active_Bike_Lighting_System\Radar_Core\Dave\Generated/DIGITAL_IO\digital_io.h **** *
 222:C:\Users\Depes Crystalline\Desktop\school\Active_Bike_Lighting_System\Radar_Core\Dave\Generated/DIGITAL_IO\digital_io.h **** * @brief Function to set port pin high.
 223:C:\Users\Depes Crystalline\Desktop\school\Active_Bike_Lighting_System\Radar_Core\Dave\Generated/DIGITAL_IO\digital_io.h **** * @param handler Pointer pointing to APP data structure. Refer @ref DIGITAL_IO_t for details.
 224:C:\Users\Depes Crystalline\Desktop\school\Active_Bike_Lighting_System\Radar_Core\Dave\Generated/DIGITAL_IO\digital_io.h **** * @return None
 225:C:\Users\Depes Crystalline\Desktop\school\Active_Bike_Lighting_System\Radar_Core\Dave\Generated/DIGITAL_IO\digital_io.h **** *
 226:C:\Users\Depes Crystalline\Desktop\school\Active_Bike_Lighting_System\Radar_Core\Dave\Generated/DIGITAL_IO\digital_io.h **** * \par<b>Description:</b><br>
 227:C:\Users\Depes Crystalline\Desktop\school\Active_Bike_Lighting_System\Radar_Core\Dave\Generated/DIGITAL_IO\digital_io.h **** * This function configures port output modification register Pn_OMR, to make port pin to high level
 228:C:\Users\Depes Crystalline\Desktop\school\Active_Bike_Lighting_System\Radar_Core\Dave\Generated/DIGITAL_IO\digital_io.h **** *
 229:C:\Users\Depes Crystalline\Desktop\school\Active_Bike_Lighting_System\Radar_Core\Dave\Generated/DIGITAL_IO\digital_io.h **** * \par<b>Related APIs:</b><BR>
 230:C:\Users\Depes Crystalline\Desktop\school\Active_Bike_Lighting_System\Radar_Core\Dave\Generated/DIGITAL_IO\digital_io.h **** *  DIGITAL_IO_SetOutputLow()
 231:C:\Users\Depes Crystalline\Desktop\school\Active_Bike_Lighting_System\Radar_Core\Dave\Generated/DIGITAL_IO\digital_io.h **** *
 232:C:\Users\Depes Crystalline\Desktop\school\Active_Bike_Lighting_System\Radar_Core\Dave\Generated/DIGITAL_IO\digital_io.h **** * Example Usage:
 233:C:\Users\Depes Crystalline\Desktop\school\Active_Bike_Lighting_System\Radar_Core\Dave\Generated/DIGITAL_IO\digital_io.h **** * @code
 234:C:\Users\Depes Crystalline\Desktop\school\Active_Bike_Lighting_System\Radar_Core\Dave\Generated/DIGITAL_IO\digital_io.h **** * #include <DAVE.h>//Declarations from DAVE Code Generation (includes SFR declaration)
 235:C:\Users\Depes Crystalline\Desktop\school\Active_Bike_Lighting_System\Radar_Core\Dave\Generated/DIGITAL_IO\digital_io.h **** * int main(void)
 236:C:\Users\Depes Crystalline\Desktop\school\Active_Bike_Lighting_System\Radar_Core\Dave\Generated/DIGITAL_IO\digital_io.h **** * {
 237:C:\Users\Depes Crystalline\Desktop\school\Active_Bike_Lighting_System\Radar_Core\Dave\Generated/DIGITAL_IO\digital_io.h **** *   DAVE_STATUS_t status;
 238:C:\Users\Depes Crystalline\Desktop\school\Active_Bike_Lighting_System\Radar_Core\Dave\Generated/DIGITAL_IO\digital_io.h **** *   status = DAVE_Init();  //(DAVE_STATUS_t)DIGITAL_IO_Init(&DIGITAL_IO_0) is called within DAVE_In
 239:C:\Users\Depes Crystalline\Desktop\school\Active_Bike_Lighting_System\Radar_Core\Dave\Generated/DIGITAL_IO\digital_io.h **** *   if(status == DAVE_STATUS_SUCCESS)
 240:C:\Users\Depes Crystalline\Desktop\school\Active_Bike_Lighting_System\Radar_Core\Dave\Generated/DIGITAL_IO\digital_io.h **** *   {
 241:C:\Users\Depes Crystalline\Desktop\school\Active_Bike_Lighting_System\Radar_Core\Dave\Generated/DIGITAL_IO\digital_io.h **** *     XMC_DEBUG("DAVE Apps initialization success\n");
 242:C:\Users\Depes Crystalline\Desktop\school\Active_Bike_Lighting_System\Radar_Core\Dave\Generated/DIGITAL_IO\digital_io.h **** *   }
 243:C:\Users\Depes Crystalline\Desktop\school\Active_Bike_Lighting_System\Radar_Core\Dave\Generated/DIGITAL_IO\digital_io.h **** *   else
 244:C:\Users\Depes Crystalline\Desktop\school\Active_Bike_Lighting_System\Radar_Core\Dave\Generated/DIGITAL_IO\digital_io.h **** *   {
 245:C:\Users\Depes Crystalline\Desktop\school\Active_Bike_Lighting_System\Radar_Core\Dave\Generated/DIGITAL_IO\digital_io.h **** *     XMC_DEBUG(("DAVE Apps initialization failed with status %d\n", status));
 246:C:\Users\Depes Crystalline\Desktop\school\Active_Bike_Lighting_System\Radar_Core\Dave\Generated/DIGITAL_IO\digital_io.h **** *     while(1U)
 247:C:\Users\Depes Crystalline\Desktop\school\Active_Bike_Lighting_System\Radar_Core\Dave\Generated/DIGITAL_IO\digital_io.h **** *     {
 248:C:\Users\Depes Crystalline\Desktop\school\Active_Bike_Lighting_System\Radar_Core\Dave\Generated/DIGITAL_IO\digital_io.h **** *     }
 249:C:\Users\Depes Crystalline\Desktop\school\Active_Bike_Lighting_System\Radar_Core\Dave\Generated/DIGITAL_IO\digital_io.h **** *   }
 250:C:\Users\Depes Crystalline\Desktop\school\Active_Bike_Lighting_System\Radar_Core\Dave\Generated/DIGITAL_IO\digital_io.h **** *   //Placeholder for user application code. The while loop below can be replaced with user applica
 251:C:\Users\Depes Crystalline\Desktop\school\Active_Bike_Lighting_System\Radar_Core\Dave\Generated/DIGITAL_IO\digital_io.h **** *   DIGITAL_IO_SetOutputHigh(&DIGITAL_IO_0);
 252:C:\Users\Depes Crystalline\Desktop\school\Active_Bike_Lighting_System\Radar_Core\Dave\Generated/DIGITAL_IO\digital_io.h **** *   while(1U)
 253:C:\Users\Depes Crystalline\Desktop\school\Active_Bike_Lighting_System\Radar_Core\Dave\Generated/DIGITAL_IO\digital_io.h **** *   {
 254:C:\Users\Depes Crystalline\Desktop\school\Active_Bike_Lighting_System\Radar_Core\Dave\Generated/DIGITAL_IO\digital_io.h **** *     // Add application code here
 255:C:\Users\Depes Crystalline\Desktop\school\Active_Bike_Lighting_System\Radar_Core\Dave\Generated/DIGITAL_IO\digital_io.h **** *   }
 256:C:\Users\Depes Crystalline\Desktop\school\Active_Bike_Lighting_System\Radar_Core\Dave\Generated/DIGITAL_IO\digital_io.h **** *
 257:C:\Users\Depes Crystalline\Desktop\school\Active_Bike_Lighting_System\Radar_Core\Dave\Generated/DIGITAL_IO\digital_io.h **** *   return (1);
 258:C:\Users\Depes Crystalline\Desktop\school\Active_Bike_Lighting_System\Radar_Core\Dave\Generated/DIGITAL_IO\digital_io.h **** * }
 259:C:\Users\Depes Crystalline\Desktop\school\Active_Bike_Lighting_System\Radar_Core\Dave\Generated/DIGITAL_IO\digital_io.h **** *  @endcode
 260:C:\Users\Depes Crystalline\Desktop\school\Active_Bike_Lighting_System\Radar_Core\Dave\Generated/DIGITAL_IO\digital_io.h **** */
 261:C:\Users\Depes Crystalline\Desktop\school\Active_Bike_Lighting_System\Radar_Core\Dave\Generated/DIGITAL_IO\digital_io.h **** 
 262:C:\Users\Depes Crystalline\Desktop\school\Active_Bike_Lighting_System\Radar_Core\Dave\Generated/DIGITAL_IO\digital_io.h **** __STATIC_INLINE void DIGITAL_IO_SetOutputHigh(const DIGITAL_IO_t *const handler)
 263:C:\Users\Depes Crystalline\Desktop\school\Active_Bike_Lighting_System\Radar_Core\Dave\Generated/DIGITAL_IO\digital_io.h **** {
 121              	 .loc 2 263 0
 122              	 .cfi_startproc
 123              	 
 124              	 
 125 0000 80B5     	 push {r7,lr}
 126              	.LCFI12:
 127              	 .cfi_def_cfa_offset 8
 128              	 .cfi_offset 7,-8
 129              	 .cfi_offset 14,-4
 130 0002 82B0     	 sub sp,sp,#8
 131              	.LCFI13:
 132              	 .cfi_def_cfa_offset 16
 133 0004 00AF     	 add r7,sp,#0
 134              	.LCFI14:
 135              	 .cfi_def_cfa_register 7
 136 0006 7860     	 str r0,[r7,#4]
 264:C:\Users\Depes Crystalline\Desktop\school\Active_Bike_Lighting_System\Radar_Core\Dave\Generated/DIGITAL_IO\digital_io.h ****   XMC_ASSERT("DIGITAL_IO_SetOutputHigh: handler null pointer", handler != NULL);
 265:C:\Users\Depes Crystalline\Desktop\school\Active_Bike_Lighting_System\Radar_Core\Dave\Generated/DIGITAL_IO\digital_io.h ****   XMC_GPIO_SetOutputHigh(handler->gpio_port, handler->gpio_pin);
 137              	 .loc 2 265 0
 138 0008 7B68     	 ldr r3,[r7,#4]
 139 000a 5A68     	 ldr r2,[r3,#4]
 140 000c 7B68     	 ldr r3,[r7,#4]
 141 000e 1B7A     	 ldrb r3,[r3,#8]
 142 0010 1046     	 mov r0,r2
 143 0012 1946     	 mov r1,r3
 144 0014 FFF7FEFF 	 bl XMC_GPIO_SetOutputHigh
 266:C:\Users\Depes Crystalline\Desktop\school\Active_Bike_Lighting_System\Radar_Core\Dave\Generated/DIGITAL_IO\digital_io.h **** }
 145              	 .loc 2 266 0
 146 0018 0837     	 adds r7,r7,#8
 147              	.LCFI15:
 148              	 .cfi_def_cfa_offset 8
 149 001a BD46     	 mov sp,r7
 150              	.LCFI16:
 151              	 .cfi_def_cfa_register 13
 152              	 
 153 001c 80BD     	 pop {r7,pc}
 154              	 .cfi_endproc
 155              	.LFE137:
 157 001e 00BF     	 .section .text.DIGITAL_IO_SetOutputLow,"ax",%progbits
 158              	 .align 2
 159              	 .thumb
 160              	 .thumb_func
 162              	DIGITAL_IO_SetOutputLow:
 163              	.LFB138:
 267:C:\Users\Depes Crystalline\Desktop\school\Active_Bike_Lighting_System\Radar_Core\Dave\Generated/DIGITAL_IO\digital_io.h **** 
 268:C:\Users\Depes Crystalline\Desktop\school\Active_Bike_Lighting_System\Radar_Core\Dave\Generated/DIGITAL_IO\digital_io.h **** /**
 269:C:\Users\Depes Crystalline\Desktop\school\Active_Bike_Lighting_System\Radar_Core\Dave\Generated/DIGITAL_IO\digital_io.h **** * @brief Function to reset port pin.
 270:C:\Users\Depes Crystalline\Desktop\school\Active_Bike_Lighting_System\Radar_Core\Dave\Generated/DIGITAL_IO\digital_io.h **** * @param handler Pointer pointing to APP data structure. Refer @ref DIGITAL_IO_t for details.
 271:C:\Users\Depes Crystalline\Desktop\school\Active_Bike_Lighting_System\Radar_Core\Dave\Generated/DIGITAL_IO\digital_io.h **** * @return None
 272:C:\Users\Depes Crystalline\Desktop\school\Active_Bike_Lighting_System\Radar_Core\Dave\Generated/DIGITAL_IO\digital_io.h **** *
 273:C:\Users\Depes Crystalline\Desktop\school\Active_Bike_Lighting_System\Radar_Core\Dave\Generated/DIGITAL_IO\digital_io.h **** * \par<b>Description:</b><br>
 274:C:\Users\Depes Crystalline\Desktop\school\Active_Bike_Lighting_System\Radar_Core\Dave\Generated/DIGITAL_IO\digital_io.h **** * This function configures port output modification register Pn_OMR, to make port pin to low level.
 275:C:\Users\Depes Crystalline\Desktop\school\Active_Bike_Lighting_System\Radar_Core\Dave\Generated/DIGITAL_IO\digital_io.h **** *
 276:C:\Users\Depes Crystalline\Desktop\school\Active_Bike_Lighting_System\Radar_Core\Dave\Generated/DIGITAL_IO\digital_io.h **** * \par<b>Related APIs:</b><BR>
 277:C:\Users\Depes Crystalline\Desktop\school\Active_Bike_Lighting_System\Radar_Core\Dave\Generated/DIGITAL_IO\digital_io.h **** * DIGITAL_IO_SetOutputHigh()
 278:C:\Users\Depes Crystalline\Desktop\school\Active_Bike_Lighting_System\Radar_Core\Dave\Generated/DIGITAL_IO\digital_io.h **** *
 279:C:\Users\Depes Crystalline\Desktop\school\Active_Bike_Lighting_System\Radar_Core\Dave\Generated/DIGITAL_IO\digital_io.h **** * Example Usage:
 280:C:\Users\Depes Crystalline\Desktop\school\Active_Bike_Lighting_System\Radar_Core\Dave\Generated/DIGITAL_IO\digital_io.h **** * @code
 281:C:\Users\Depes Crystalline\Desktop\school\Active_Bike_Lighting_System\Radar_Core\Dave\Generated/DIGITAL_IO\digital_io.h **** *  #include <DAVE.h>//Declarations from DAVE Code Generation (includes SFR declaration)
 282:C:\Users\Depes Crystalline\Desktop\school\Active_Bike_Lighting_System\Radar_Core\Dave\Generated/DIGITAL_IO\digital_io.h **** *  int main(void)
 283:C:\Users\Depes Crystalline\Desktop\school\Active_Bike_Lighting_System\Radar_Core\Dave\Generated/DIGITAL_IO\digital_io.h **** *  {
 284:C:\Users\Depes Crystalline\Desktop\school\Active_Bike_Lighting_System\Radar_Core\Dave\Generated/DIGITAL_IO\digital_io.h **** *    DAVE_STATUS_t status;
 285:C:\Users\Depes Crystalline\Desktop\school\Active_Bike_Lighting_System\Radar_Core\Dave\Generated/DIGITAL_IO\digital_io.h **** *    status = DAVE_Init();  //(DAVE_STATUS_t)DIGITAL_IO_Init(&DIGITAL_IO_0) is called within DAVE_I
 286:C:\Users\Depes Crystalline\Desktop\school\Active_Bike_Lighting_System\Radar_Core\Dave\Generated/DIGITAL_IO\digital_io.h **** *    if(status == DAVE_STATUS_SUCCESS)
 287:C:\Users\Depes Crystalline\Desktop\school\Active_Bike_Lighting_System\Radar_Core\Dave\Generated/DIGITAL_IO\digital_io.h **** *    {
 288:C:\Users\Depes Crystalline\Desktop\school\Active_Bike_Lighting_System\Radar_Core\Dave\Generated/DIGITAL_IO\digital_io.h **** *      XMC_DEBUG("DAVE Apps initialization success\n");
 289:C:\Users\Depes Crystalline\Desktop\school\Active_Bike_Lighting_System\Radar_Core\Dave\Generated/DIGITAL_IO\digital_io.h **** *    }
 290:C:\Users\Depes Crystalline\Desktop\school\Active_Bike_Lighting_System\Radar_Core\Dave\Generated/DIGITAL_IO\digital_io.h **** *    else
 291:C:\Users\Depes Crystalline\Desktop\school\Active_Bike_Lighting_System\Radar_Core\Dave\Generated/DIGITAL_IO\digital_io.h **** *    {
 292:C:\Users\Depes Crystalline\Desktop\school\Active_Bike_Lighting_System\Radar_Core\Dave\Generated/DIGITAL_IO\digital_io.h **** *      XMC_DEBUG(("DAVE Apps initialization failed with status %d\n", status));
 293:C:\Users\Depes Crystalline\Desktop\school\Active_Bike_Lighting_System\Radar_Core\Dave\Generated/DIGITAL_IO\digital_io.h **** *      while(1U)
 294:C:\Users\Depes Crystalline\Desktop\school\Active_Bike_Lighting_System\Radar_Core\Dave\Generated/DIGITAL_IO\digital_io.h **** *      {
 295:C:\Users\Depes Crystalline\Desktop\school\Active_Bike_Lighting_System\Radar_Core\Dave\Generated/DIGITAL_IO\digital_io.h **** *      }
 296:C:\Users\Depes Crystalline\Desktop\school\Active_Bike_Lighting_System\Radar_Core\Dave\Generated/DIGITAL_IO\digital_io.h **** *    }
 297:C:\Users\Depes Crystalline\Desktop\school\Active_Bike_Lighting_System\Radar_Core\Dave\Generated/DIGITAL_IO\digital_io.h **** *    //Placeholder for user application code. The while loop below can be replaced with user applic
 298:C:\Users\Depes Crystalline\Desktop\school\Active_Bike_Lighting_System\Radar_Core\Dave\Generated/DIGITAL_IO\digital_io.h **** *    DIGITAL_IO_SetOutputLow(&DIGITAL_IO_0);
 299:C:\Users\Depes Crystalline\Desktop\school\Active_Bike_Lighting_System\Radar_Core\Dave\Generated/DIGITAL_IO\digital_io.h **** *    while(1U)
 300:C:\Users\Depes Crystalline\Desktop\school\Active_Bike_Lighting_System\Radar_Core\Dave\Generated/DIGITAL_IO\digital_io.h **** *    {
 301:C:\Users\Depes Crystalline\Desktop\school\Active_Bike_Lighting_System\Radar_Core\Dave\Generated/DIGITAL_IO\digital_io.h **** *      // Add application code here
 302:C:\Users\Depes Crystalline\Desktop\school\Active_Bike_Lighting_System\Radar_Core\Dave\Generated/DIGITAL_IO\digital_io.h **** *    }
 303:C:\Users\Depes Crystalline\Desktop\school\Active_Bike_Lighting_System\Radar_Core\Dave\Generated/DIGITAL_IO\digital_io.h **** *
 304:C:\Users\Depes Crystalline\Desktop\school\Active_Bike_Lighting_System\Radar_Core\Dave\Generated/DIGITAL_IO\digital_io.h **** *   return (1);
 305:C:\Users\Depes Crystalline\Desktop\school\Active_Bike_Lighting_System\Radar_Core\Dave\Generated/DIGITAL_IO\digital_io.h **** * }
 306:C:\Users\Depes Crystalline\Desktop\school\Active_Bike_Lighting_System\Radar_Core\Dave\Generated/DIGITAL_IO\digital_io.h **** *  @endcode
 307:C:\Users\Depes Crystalline\Desktop\school\Active_Bike_Lighting_System\Radar_Core\Dave\Generated/DIGITAL_IO\digital_io.h **** */
 308:C:\Users\Depes Crystalline\Desktop\school\Active_Bike_Lighting_System\Radar_Core\Dave\Generated/DIGITAL_IO\digital_io.h **** 
 309:C:\Users\Depes Crystalline\Desktop\school\Active_Bike_Lighting_System\Radar_Core\Dave\Generated/DIGITAL_IO\digital_io.h **** __STATIC_INLINE void DIGITAL_IO_SetOutputLow(const DIGITAL_IO_t *const handler)
 310:C:\Users\Depes Crystalline\Desktop\school\Active_Bike_Lighting_System\Radar_Core\Dave\Generated/DIGITAL_IO\digital_io.h **** {
 164              	 .loc 2 310 0
 165              	 .cfi_startproc
 166              	 
 167              	 
 168 0000 80B5     	 push {r7,lr}
 169              	.LCFI17:
 170              	 .cfi_def_cfa_offset 8
 171              	 .cfi_offset 7,-8
 172              	 .cfi_offset 14,-4
 173 0002 82B0     	 sub sp,sp,#8
 174              	.LCFI18:
 175              	 .cfi_def_cfa_offset 16
 176 0004 00AF     	 add r7,sp,#0
 177              	.LCFI19:
 178              	 .cfi_def_cfa_register 7
 179 0006 7860     	 str r0,[r7,#4]
 311:C:\Users\Depes Crystalline\Desktop\school\Active_Bike_Lighting_System\Radar_Core\Dave\Generated/DIGITAL_IO\digital_io.h ****   XMC_ASSERT("DIGITAL_IO_SetOutputLow: handler null pointer", handler != NULL);
 312:C:\Users\Depes Crystalline\Desktop\school\Active_Bike_Lighting_System\Radar_Core\Dave\Generated/DIGITAL_IO\digital_io.h ****   XMC_GPIO_SetOutputLow(handler->gpio_port,handler->gpio_pin);
 180              	 .loc 2 312 0
 181 0008 7B68     	 ldr r3,[r7,#4]
 182 000a 5A68     	 ldr r2,[r3,#4]
 183 000c 7B68     	 ldr r3,[r7,#4]
 184 000e 1B7A     	 ldrb r3,[r3,#8]
 185 0010 1046     	 mov r0,r2
 186 0012 1946     	 mov r1,r3
 187 0014 FFF7FEFF 	 bl XMC_GPIO_SetOutputLow
 313:C:\Users\Depes Crystalline\Desktop\school\Active_Bike_Lighting_System\Radar_Core\Dave\Generated/DIGITAL_IO\digital_io.h **** }
 188              	 .loc 2 313 0
 189 0018 0837     	 adds r7,r7,#8
 190              	.LCFI20:
 191              	 .cfi_def_cfa_offset 8
 192 001a BD46     	 mov sp,r7
 193              	.LCFI21:
 194              	 .cfi_def_cfa_register 13
 195              	 
 196 001c 80BD     	 pop {r7,pc}
 197              	 .cfi_endproc
 198              	.LFE138:
 200 001e 00BF     	 .section .text.DMA_CH_Enable,"ax",%progbits
 201              	 .align 2
 202              	 .thumb
 203              	 .thumb_func
 205              	DMA_CH_Enable:
 206              	.LFB430:
 207              	 .file 3 "C:\\Users\\Depes Crystalline\\Desktop\\school\\Active_Bike_Lighting_System\\Radar_Core\\Dave\\Generated/DMA_CH/dma_ch.h"
   1:C:\Users\Depes Crystalline\Desktop\school\Active_Bike_Lighting_System\Radar_Core\Dave\Generated/DMA_CH\dma_ch.h **** 
   2:C:\Users\Depes Crystalline\Desktop\school\Active_Bike_Lighting_System\Radar_Core\Dave\Generated/DMA_CH\dma_ch.h **** /**
   3:C:\Users\Depes Crystalline\Desktop\school\Active_Bike_Lighting_System\Radar_Core\Dave\Generated/DMA_CH\dma_ch.h ****  * @file dma_ch.h
   4:C:\Users\Depes Crystalline\Desktop\school\Active_Bike_Lighting_System\Radar_Core\Dave\Generated/DMA_CH\dma_ch.h ****  * @date 2015-07-09
   5:C:\Users\Depes Crystalline\Desktop\school\Active_Bike_Lighting_System\Radar_Core\Dave\Generated/DMA_CH\dma_ch.h ****  *
   6:C:\Users\Depes Crystalline\Desktop\school\Active_Bike_Lighting_System\Radar_Core\Dave\Generated/DMA_CH\dma_ch.h ****  * NOTE:
   7:C:\Users\Depes Crystalline\Desktop\school\Active_Bike_Lighting_System\Radar_Core\Dave\Generated/DMA_CH\dma_ch.h ****  * This file is generated by DAVE. Any manual modification done to this file will be lost when the 
   8:C:\Users\Depes Crystalline\Desktop\school\Active_Bike_Lighting_System\Radar_Core\Dave\Generated/DMA_CH\dma_ch.h ****  *
   9:C:\Users\Depes Crystalline\Desktop\school\Active_Bike_Lighting_System\Radar_Core\Dave\Generated/DMA_CH\dma_ch.h ****  * @cond
  10:C:\Users\Depes Crystalline\Desktop\school\Active_Bike_Lighting_System\Radar_Core\Dave\Generated/DMA_CH\dma_ch.h ****  **************************************************************************************************
  11:C:\Users\Depes Crystalline\Desktop\school\Active_Bike_Lighting_System\Radar_Core\Dave\Generated/DMA_CH\dma_ch.h ****  * DMA_CH v4.1.4 - Perform single and multi-block data transfer using the GPDMA module
  12:C:\Users\Depes Crystalline\Desktop\school\Active_Bike_Lighting_System\Radar_Core\Dave\Generated/DMA_CH\dma_ch.h ****  *
  13:C:\Users\Depes Crystalline\Desktop\school\Active_Bike_Lighting_System\Radar_Core\Dave\Generated/DMA_CH\dma_ch.h ****  * Copyright (c) 2015, Infineon Technologies AG
  14:C:\Users\Depes Crystalline\Desktop\school\Active_Bike_Lighting_System\Radar_Core\Dave\Generated/DMA_CH\dma_ch.h ****  * All rights reserved.
  15:C:\Users\Depes Crystalline\Desktop\school\Active_Bike_Lighting_System\Radar_Core\Dave\Generated/DMA_CH\dma_ch.h ****  *
  16:C:\Users\Depes Crystalline\Desktop\school\Active_Bike_Lighting_System\Radar_Core\Dave\Generated/DMA_CH\dma_ch.h ****  * Redistribution and use in source and binary forms, with or without modification,are permitted pr
  17:C:\Users\Depes Crystalline\Desktop\school\Active_Bike_Lighting_System\Radar_Core\Dave\Generated/DMA_CH\dma_ch.h ****  * following conditions are met:
  18:C:\Users\Depes Crystalline\Desktop\school\Active_Bike_Lighting_System\Radar_Core\Dave\Generated/DMA_CH\dma_ch.h ****  *
  19:C:\Users\Depes Crystalline\Desktop\school\Active_Bike_Lighting_System\Radar_Core\Dave\Generated/DMA_CH\dma_ch.h ****  *   Redistributions of source code must retain the above copyright notice, this list of conditions
  20:C:\Users\Depes Crystalline\Desktop\school\Active_Bike_Lighting_System\Radar_Core\Dave\Generated/DMA_CH\dma_ch.h ****  *   disclaimer.
  21:C:\Users\Depes Crystalline\Desktop\school\Active_Bike_Lighting_System\Radar_Core\Dave\Generated/DMA_CH\dma_ch.h ****  *
  22:C:\Users\Depes Crystalline\Desktop\school\Active_Bike_Lighting_System\Radar_Core\Dave\Generated/DMA_CH\dma_ch.h ****  *   Redistributions in binary form must reproduce the above copyright notice, this list of conditi
  23:C:\Users\Depes Crystalline\Desktop\school\Active_Bike_Lighting_System\Radar_Core\Dave\Generated/DMA_CH\dma_ch.h ****  *   following disclaimer in the documentation and/or other materials provided with the distributio
  24:C:\Users\Depes Crystalline\Desktop\school\Active_Bike_Lighting_System\Radar_Core\Dave\Generated/DMA_CH\dma_ch.h ****  *
  25:C:\Users\Depes Crystalline\Desktop\school\Active_Bike_Lighting_System\Radar_Core\Dave\Generated/DMA_CH\dma_ch.h ****  *   Neither the name of the copyright holders nor the names of its contributors may be used to end
  26:C:\Users\Depes Crystalline\Desktop\school\Active_Bike_Lighting_System\Radar_Core\Dave\Generated/DMA_CH\dma_ch.h ****  *   products derived from this software without specific prior written permission.
  27:C:\Users\Depes Crystalline\Desktop\school\Active_Bike_Lighting_System\Radar_Core\Dave\Generated/DMA_CH\dma_ch.h ****  *
  28:C:\Users\Depes Crystalline\Desktop\school\Active_Bike_Lighting_System\Radar_Core\Dave\Generated/DMA_CH\dma_ch.h ****  * THIS SOFTWARE IS PROVIDED BY THE COPYRIGHT HOLDERS AND CONTRIBUTORS "AS IS" AND ANY EXPRESS OR I
  29:C:\Users\Depes Crystalline\Desktop\school\Active_Bike_Lighting_System\Radar_Core\Dave\Generated/DMA_CH\dma_ch.h ****  * INCLUDING, BUT NOT LIMITED TO, THE IMPLIED WARRANTIES OF MERCHANTABILITY AND FITNESS FOR A PARTI
  30:C:\Users\Depes Crystalline\Desktop\school\Active_Bike_Lighting_System\Radar_Core\Dave\Generated/DMA_CH\dma_ch.h ****  * DISCLAIMED. IN NO EVENT SHALL THE COPYRIGHT HOLDER OR CONTRIBUTORS BE LIABLE  FOR ANY DIRECT, IN
  31:C:\Users\Depes Crystalline\Desktop\school\Active_Bike_Lighting_System\Radar_Core\Dave\Generated/DMA_CH\dma_ch.h ****  * SPECIAL, EXEMPLARY, OR CONSEQUENTIAL DAMAGES (INCLUDING, BUT NOT LIMITED TO, PROCUREMENT OF SUBS
  32:C:\Users\Depes Crystalline\Desktop\school\Active_Bike_Lighting_System\Radar_Core\Dave\Generated/DMA_CH\dma_ch.h ****  * SERVICES; LOSS OF USE, DATA, OR PROFITS; OR BUSINESS INTERRUPTION) HOWEVER CAUSED AND ON ANY THE
  33:C:\Users\Depes Crystalline\Desktop\school\Active_Bike_Lighting_System\Radar_Core\Dave\Generated/DMA_CH\dma_ch.h ****  * WHETHER IN CONTRACT, STRICT LIABILITY,OR TORT (INCLUDING NEGLIGENCE OR OTHERWISE) ARISING IN ANY
  34:C:\Users\Depes Crystalline\Desktop\school\Active_Bike_Lighting_System\Radar_Core\Dave\Generated/DMA_CH\dma_ch.h ****  * USE OF THIS SOFTWARE, EVEN IF ADVISED OF THE POSSIBILITY OF SUCH DAMAGE.
  35:C:\Users\Depes Crystalline\Desktop\school\Active_Bike_Lighting_System\Radar_Core\Dave\Generated/DMA_CH\dma_ch.h ****  *
  36:C:\Users\Depes Crystalline\Desktop\school\Active_Bike_Lighting_System\Radar_Core\Dave\Generated/DMA_CH\dma_ch.h ****  * To improve the quality of the software, users are encouraged to share modifications, enhancement
  37:C:\Users\Depes Crystalline\Desktop\school\Active_Bike_Lighting_System\Radar_Core\Dave\Generated/DMA_CH\dma_ch.h ****  * with Infineon Technologies AG (dave@infineon.com).
  38:C:\Users\Depes Crystalline\Desktop\school\Active_Bike_Lighting_System\Radar_Core\Dave\Generated/DMA_CH\dma_ch.h ****  **************************************************************************************************
  39:C:\Users\Depes Crystalline\Desktop\school\Active_Bike_Lighting_System\Radar_Core\Dave\Generated/DMA_CH\dma_ch.h ****  *
  40:C:\Users\Depes Crystalline\Desktop\school\Active_Bike_Lighting_System\Radar_Core\Dave\Generated/DMA_CH\dma_ch.h ****  * Change History
  41:C:\Users\Depes Crystalline\Desktop\school\Active_Bike_Lighting_System\Radar_Core\Dave\Generated/DMA_CH\dma_ch.h ****  * --------------
  42:C:\Users\Depes Crystalline\Desktop\school\Active_Bike_Lighting_System\Radar_Core\Dave\Generated/DMA_CH\dma_ch.h ****  *
  43:C:\Users\Depes Crystalline\Desktop\school\Active_Bike_Lighting_System\Radar_Core\Dave\Generated/DMA_CH\dma_ch.h ****  * 2015-02-20:
  44:C:\Users\Depes Crystalline\Desktop\school\Active_Bike_Lighting_System\Radar_Core\Dave\Generated/DMA_CH\dma_ch.h ****  *     - Initial version <br>
  45:C:\Users\Depes Crystalline\Desktop\school\Active_Bike_Lighting_System\Radar_Core\Dave\Generated/DMA_CH\dma_ch.h ****  *
  46:C:\Users\Depes Crystalline\Desktop\school\Active_Bike_Lighting_System\Radar_Core\Dave\Generated/DMA_CH\dma_ch.h ****  * 2015-04-15:
  47:C:\Users\Depes Crystalline\Desktop\school\Active_Bike_Lighting_System\Radar_Core\Dave\Generated/DMA_CH\dma_ch.h ****  *     - Handle src/dst address updates with new APIs in DMA LLD <br>
  48:C:\Users\Depes Crystalline\Desktop\school\Active_Bike_Lighting_System\Radar_Core\Dave\Generated/DMA_CH\dma_ch.h ****  *     - Documentation updates <br>
  49:C:\Users\Depes Crystalline\Desktop\school\Active_Bike_Lighting_System\Radar_Core\Dave\Generated/DMA_CH\dma_ch.h ****  *
  50:C:\Users\Depes Crystalline\Desktop\school\Active_Bike_Lighting_System\Radar_Core\Dave\Generated/DMA_CH\dma_ch.h ****  * 2015-05-20:
  51:C:\Users\Depes Crystalline\Desktop\school\Active_Bike_Lighting_System\Radar_Core\Dave\Generated/DMA_CH\dma_ch.h ****  *     - Some of the functions are now static inline <br>
  52:C:\Users\Depes Crystalline\Desktop\school\Active_Bike_Lighting_System\Radar_Core\Dave\Generated/DMA_CH\dma_ch.h ****  *     - Type changes in formal arguments <br>
  53:C:\Users\Depes Crystalline\Desktop\school\Active_Bike_Lighting_System\Radar_Core\Dave\Generated/DMA_CH\dma_ch.h ****  *
  54:C:\Users\Depes Crystalline\Desktop\school\Active_Bike_Lighting_System\Radar_Core\Dave\Generated/DMA_CH\dma_ch.h ****  * 2015-06-20:
  55:C:\Users\Depes Crystalline\Desktop\school\Active_Bike_Lighting_System\Radar_Core\Dave\Generated/DMA_CH\dma_ch.h ****  *     - Added new API DMA_CH_Reload() <br>
  56:C:\Users\Depes Crystalline\Desktop\school\Active_Bike_Lighting_System\Radar_Core\Dave\Generated/DMA_CH\dma_ch.h ****  *
  57:C:\Users\Depes Crystalline\Desktop\school\Active_Bike_Lighting_System\Radar_Core\Dave\Generated/DMA_CH\dma_ch.h ****  * @endcond
  58:C:\Users\Depes Crystalline\Desktop\school\Active_Bike_Lighting_System\Radar_Core\Dave\Generated/DMA_CH\dma_ch.h ****  */
  59:C:\Users\Depes Crystalline\Desktop\school\Active_Bike_Lighting_System\Radar_Core\Dave\Generated/DMA_CH\dma_ch.h ****  
  60:C:\Users\Depes Crystalline\Desktop\school\Active_Bike_Lighting_System\Radar_Core\Dave\Generated/DMA_CH\dma_ch.h **** #ifndef DMA_CH_H
  61:C:\Users\Depes Crystalline\Desktop\school\Active_Bike_Lighting_System\Radar_Core\Dave\Generated/DMA_CH\dma_ch.h **** #define DMA_CH_H
  62:C:\Users\Depes Crystalline\Desktop\school\Active_Bike_Lighting_System\Radar_Core\Dave\Generated/DMA_CH\dma_ch.h **** 
  63:C:\Users\Depes Crystalline\Desktop\school\Active_Bike_Lighting_System\Radar_Core\Dave\Generated/DMA_CH\dma_ch.h **** /**************************************************************************************************
  64:C:\Users\Depes Crystalline\Desktop\school\Active_Bike_Lighting_System\Radar_Core\Dave\Generated/DMA_CH\dma_ch.h ****  * HEADER FILES
  65:C:\Users\Depes Crystalline\Desktop\school\Active_Bike_Lighting_System\Radar_Core\Dave\Generated/DMA_CH\dma_ch.h ****  **************************************************************************************************
  66:C:\Users\Depes Crystalline\Desktop\school\Active_Bike_Lighting_System\Radar_Core\Dave\Generated/DMA_CH\dma_ch.h **** 
  67:C:\Users\Depes Crystalline\Desktop\school\Active_Bike_Lighting_System\Radar_Core\Dave\Generated/DMA_CH\dma_ch.h **** #include "xmc_dma.h"
  68:C:\Users\Depes Crystalline\Desktop\school\Active_Bike_Lighting_System\Radar_Core\Dave\Generated/DMA_CH\dma_ch.h **** 
  69:C:\Users\Depes Crystalline\Desktop\school\Active_Bike_Lighting_System\Radar_Core\Dave\Generated/DMA_CH\dma_ch.h **** #if (!((XMC_LIB_MAJOR_VERSION == 2U) && \
  70:C:\Users\Depes Crystalline\Desktop\school\Active_Bike_Lighting_System\Radar_Core\Dave\Generated/DMA_CH\dma_ch.h ****        (XMC_LIB_MINOR_VERSION >= 0U) && \
  71:C:\Users\Depes Crystalline\Desktop\school\Active_Bike_Lighting_System\Radar_Core\Dave\Generated/DMA_CH\dma_ch.h ****        (XMC_LIB_PATCH_VERSION >= 0U)))
  72:C:\Users\Depes Crystalline\Desktop\school\Active_Bike_Lighting_System\Radar_Core\Dave\Generated/DMA_CH\dma_ch.h **** #error "DMA_CH requires XMC Peripheral Library v2.0.0 or higher"
  73:C:\Users\Depes Crystalline\Desktop\school\Active_Bike_Lighting_System\Radar_Core\Dave\Generated/DMA_CH\dma_ch.h **** #endif
  74:C:\Users\Depes Crystalline\Desktop\school\Active_Bike_Lighting_System\Radar_Core\Dave\Generated/DMA_CH\dma_ch.h **** 
  75:C:\Users\Depes Crystalline\Desktop\school\Active_Bike_Lighting_System\Radar_Core\Dave\Generated/DMA_CH\dma_ch.h **** #include "DAVE_Common.h"
  76:C:\Users\Depes Crystalline\Desktop\school\Active_Bike_Lighting_System\Radar_Core\Dave\Generated/DMA_CH\dma_ch.h **** #include "../GLOBAL_DMA/global_dma.h"
  77:C:\Users\Depes Crystalline\Desktop\school\Active_Bike_Lighting_System\Radar_Core\Dave\Generated/DMA_CH\dma_ch.h **** 
  78:C:\Users\Depes Crystalline\Desktop\school\Active_Bike_Lighting_System\Radar_Core\Dave\Generated/DMA_CH\dma_ch.h **** /**************************************************************************************************
  79:C:\Users\Depes Crystalline\Desktop\school\Active_Bike_Lighting_System\Radar_Core\Dave\Generated/DMA_CH\dma_ch.h ****  * MACROS
  80:C:\Users\Depes Crystalline\Desktop\school\Active_Bike_Lighting_System\Radar_Core\Dave\Generated/DMA_CH\dma_ch.h ****  **************************************************************************************************
  81:C:\Users\Depes Crystalline\Desktop\school\Active_Bike_Lighting_System\Radar_Core\Dave\Generated/DMA_CH\dma_ch.h **** 
  82:C:\Users\Depes Crystalline\Desktop\school\Active_Bike_Lighting_System\Radar_Core\Dave\Generated/DMA_CH\dma_ch.h **** /**************************************************************************************************
  83:C:\Users\Depes Crystalline\Desktop\school\Active_Bike_Lighting_System\Radar_Core\Dave\Generated/DMA_CH\dma_ch.h ****  * ENUMERATIONS
  84:C:\Users\Depes Crystalline\Desktop\school\Active_Bike_Lighting_System\Radar_Core\Dave\Generated/DMA_CH\dma_ch.h ****  **************************************************************************************************
  85:C:\Users\Depes Crystalline\Desktop\school\Active_Bike_Lighting_System\Radar_Core\Dave\Generated/DMA_CH\dma_ch.h **** 
  86:C:\Users\Depes Crystalline\Desktop\school\Active_Bike_Lighting_System\Radar_Core\Dave\Generated/DMA_CH\dma_ch.h **** /**
  87:C:\Users\Depes Crystalline\Desktop\school\Active_Bike_Lighting_System\Radar_Core\Dave\Generated/DMA_CH\dma_ch.h ****  * @ingroup DMA_CH_enumerations
  88:C:\Users\Depes Crystalline\Desktop\school\Active_Bike_Lighting_System\Radar_Core\Dave\Generated/DMA_CH\dma_ch.h ****  * @{
  89:C:\Users\Depes Crystalline\Desktop\school\Active_Bike_Lighting_System\Radar_Core\Dave\Generated/DMA_CH\dma_ch.h ****  */
  90:C:\Users\Depes Crystalline\Desktop\school\Active_Bike_Lighting_System\Radar_Core\Dave\Generated/DMA_CH\dma_ch.h ****   
  91:C:\Users\Depes Crystalline\Desktop\school\Active_Bike_Lighting_System\Radar_Core\Dave\Generated/DMA_CH\dma_ch.h **** /**
  92:C:\Users\Depes Crystalline\Desktop\school\Active_Bike_Lighting_System\Radar_Core\Dave\Generated/DMA_CH\dma_ch.h ****  * @brief Describe return status of DMA_CH APP functions
  93:C:\Users\Depes Crystalline\Desktop\school\Active_Bike_Lighting_System\Radar_Core\Dave\Generated/DMA_CH\dma_ch.h ****  */
  94:C:\Users\Depes Crystalline\Desktop\school\Active_Bike_Lighting_System\Radar_Core\Dave\Generated/DMA_CH\dma_ch.h **** typedef enum DMA_CH_STATUS_t
  95:C:\Users\Depes Crystalline\Desktop\school\Active_Bike_Lighting_System\Radar_Core\Dave\Generated/DMA_CH\dma_ch.h **** {
  96:C:\Users\Depes Crystalline\Desktop\school\Active_Bike_Lighting_System\Radar_Core\Dave\Generated/DMA_CH\dma_ch.h ****   DMA_CH_STATUS_SUCCESS = 0U, /**< DMA operation successful */
  97:C:\Users\Depes Crystalline\Desktop\school\Active_Bike_Lighting_System\Radar_Core\Dave\Generated/DMA_CH\dma_ch.h ****   DMA_CH_STATUS_FAILURE,      /**< DMA operation failure */
  98:C:\Users\Depes Crystalline\Desktop\school\Active_Bike_Lighting_System\Radar_Core\Dave\Generated/DMA_CH\dma_ch.h ****   DMA_CH_STATUS_CHANNEL_BUSY  /**< DMA channel busy */
  99:C:\Users\Depes Crystalline\Desktop\school\Active_Bike_Lighting_System\Radar_Core\Dave\Generated/DMA_CH\dma_ch.h **** } DMA_CH_STATUS_t;
 100:C:\Users\Depes Crystalline\Desktop\school\Active_Bike_Lighting_System\Radar_Core\Dave\Generated/DMA_CH\dma_ch.h **** 
 101:C:\Users\Depes Crystalline\Desktop\school\Active_Bike_Lighting_System\Radar_Core\Dave\Generated/DMA_CH\dma_ch.h **** /**
 102:C:\Users\Depes Crystalline\Desktop\school\Active_Bike_Lighting_System\Radar_Core\Dave\Generated/DMA_CH\dma_ch.h ****  * @}
 103:C:\Users\Depes Crystalline\Desktop\school\Active_Bike_Lighting_System\Radar_Core\Dave\Generated/DMA_CH\dma_ch.h ****  */
 104:C:\Users\Depes Crystalline\Desktop\school\Active_Bike_Lighting_System\Radar_Core\Dave\Generated/DMA_CH\dma_ch.h ****  
 105:C:\Users\Depes Crystalline\Desktop\school\Active_Bike_Lighting_System\Radar_Core\Dave\Generated/DMA_CH\dma_ch.h **** /**************************************************************************************************
 106:C:\Users\Depes Crystalline\Desktop\school\Active_Bike_Lighting_System\Radar_Core\Dave\Generated/DMA_CH\dma_ch.h ****  * DATA STRUCTURES
 107:C:\Users\Depes Crystalline\Desktop\school\Active_Bike_Lighting_System\Radar_Core\Dave\Generated/DMA_CH\dma_ch.h ****  **************************************************************************************************
 108:C:\Users\Depes Crystalline\Desktop\school\Active_Bike_Lighting_System\Radar_Core\Dave\Generated/DMA_CH\dma_ch.h ****  
 109:C:\Users\Depes Crystalline\Desktop\school\Active_Bike_Lighting_System\Radar_Core\Dave\Generated/DMA_CH\dma_ch.h **** /**
 110:C:\Users\Depes Crystalline\Desktop\school\Active_Bike_Lighting_System\Radar_Core\Dave\Generated/DMA_CH\dma_ch.h ****  * @ingroup DMA_CH_datastructures
 111:C:\Users\Depes Crystalline\Desktop\school\Active_Bike_Lighting_System\Radar_Core\Dave\Generated/DMA_CH\dma_ch.h ****  * @{
 112:C:\Users\Depes Crystalline\Desktop\school\Active_Bike_Lighting_System\Radar_Core\Dave\Generated/DMA_CH\dma_ch.h ****  */
 113:C:\Users\Depes Crystalline\Desktop\school\Active_Bike_Lighting_System\Radar_Core\Dave\Generated/DMA_CH\dma_ch.h **** 
 114:C:\Users\Depes Crystalline\Desktop\school\Active_Bike_Lighting_System\Radar_Core\Dave\Generated/DMA_CH\dma_ch.h **** /**
 115:C:\Users\Depes Crystalline\Desktop\school\Active_Bike_Lighting_System\Radar_Core\Dave\Generated/DMA_CH\dma_ch.h ****  * @brief DMA channel configuration structure
 116:C:\Users\Depes Crystalline\Desktop\school\Active_Bike_Lighting_System\Radar_Core\Dave\Generated/DMA_CH\dma_ch.h ****  */
 117:C:\Users\Depes Crystalline\Desktop\school\Active_Bike_Lighting_System\Radar_Core\Dave\Generated/DMA_CH\dma_ch.h **** typedef struct DMA_CH_CONFIG
 118:C:\Users\Depes Crystalline\Desktop\school\Active_Bike_Lighting_System\Radar_Core\Dave\Generated/DMA_CH\dma_ch.h **** {
 119:C:\Users\Depes Crystalline\Desktop\school\Active_Bike_Lighting_System\Radar_Core\Dave\Generated/DMA_CH\dma_ch.h ****   XMC_DMA_CH_CONFIG_t ch_config; /**< A pointer to DMA channel configuration */
 120:C:\Users\Depes Crystalline\Desktop\school\Active_Bike_Lighting_System\Radar_Core\Dave\Generated/DMA_CH\dma_ch.h ****   XMC_DMA_CH_EVENT_HANDLER_t callback; /**< User callback for DMA events */
 121:C:\Users\Depes Crystalline\Desktop\school\Active_Bike_Lighting_System\Radar_Core\Dave\Generated/DMA_CH\dma_ch.h ****   uint32_t events; /**< DMA events */
 122:C:\Users\Depes Crystalline\Desktop\school\Active_Bike_Lighting_System\Radar_Core\Dave\Generated/DMA_CH\dma_ch.h **** } DMA_CH_CONFIG_t;
 123:C:\Users\Depes Crystalline\Desktop\school\Active_Bike_Lighting_System\Radar_Core\Dave\Generated/DMA_CH\dma_ch.h **** 
 124:C:\Users\Depes Crystalline\Desktop\school\Active_Bike_Lighting_System\Radar_Core\Dave\Generated/DMA_CH\dma_ch.h **** /**
 125:C:\Users\Depes Crystalline\Desktop\school\Active_Bike_Lighting_System\Radar_Core\Dave\Generated/DMA_CH\dma_ch.h ****  * @brief DMA_CH APP structure
 126:C:\Users\Depes Crystalline\Desktop\school\Active_Bike_Lighting_System\Radar_Core\Dave\Generated/DMA_CH\dma_ch.h ****  */
 127:C:\Users\Depes Crystalline\Desktop\school\Active_Bike_Lighting_System\Radar_Core\Dave\Generated/DMA_CH\dma_ch.h **** typedef struct DMA_CH_t
 128:C:\Users\Depes Crystalline\Desktop\school\Active_Bike_Lighting_System\Radar_Core\Dave\Generated/DMA_CH\dma_ch.h **** {
 129:C:\Users\Depes Crystalline\Desktop\school\Active_Bike_Lighting_System\Radar_Core\Dave\Generated/DMA_CH\dma_ch.h ****   GLOBAL_DMA_t *const dma_global; /**< A pointer to GLOBAL_DMA handle structure */
 130:C:\Users\Depes Crystalline\Desktop\school\Active_Bike_Lighting_System\Radar_Core\Dave\Generated/DMA_CH\dma_ch.h ****   DMA_CH_CONFIG_t *const config; /**< A pointer to DMA_CH configuration structure */
 131:C:\Users\Depes Crystalline\Desktop\school\Active_Bike_Lighting_System\Radar_Core\Dave\Generated/DMA_CH\dma_ch.h ****   void (*reload)(struct DMA_CH_t *obj);
 132:C:\Users\Depes Crystalline\Desktop\school\Active_Bike_Lighting_System\Radar_Core\Dave\Generated/DMA_CH\dma_ch.h ****   uint8_t ch_num; /**< Channel number */
 133:C:\Users\Depes Crystalline\Desktop\school\Active_Bike_Lighting_System\Radar_Core\Dave\Generated/DMA_CH\dma_ch.h **** } DMA_CH_t;
 134:C:\Users\Depes Crystalline\Desktop\school\Active_Bike_Lighting_System\Radar_Core\Dave\Generated/DMA_CH\dma_ch.h **** 
 135:C:\Users\Depes Crystalline\Desktop\school\Active_Bike_Lighting_System\Radar_Core\Dave\Generated/DMA_CH\dma_ch.h **** /**
 136:C:\Users\Depes Crystalline\Desktop\school\Active_Bike_Lighting_System\Radar_Core\Dave\Generated/DMA_CH\dma_ch.h ****  * @}
 137:C:\Users\Depes Crystalline\Desktop\school\Active_Bike_Lighting_System\Radar_Core\Dave\Generated/DMA_CH\dma_ch.h ****  */
 138:C:\Users\Depes Crystalline\Desktop\school\Active_Bike_Lighting_System\Radar_Core\Dave\Generated/DMA_CH\dma_ch.h **** 
 139:C:\Users\Depes Crystalline\Desktop\school\Active_Bike_Lighting_System\Radar_Core\Dave\Generated/DMA_CH\dma_ch.h **** /* Support for C++ */
 140:C:\Users\Depes Crystalline\Desktop\school\Active_Bike_Lighting_System\Radar_Core\Dave\Generated/DMA_CH\dma_ch.h **** #ifdef __cplusplus
 141:C:\Users\Depes Crystalline\Desktop\school\Active_Bike_Lighting_System\Radar_Core\Dave\Generated/DMA_CH\dma_ch.h **** extern "C" {
 142:C:\Users\Depes Crystalline\Desktop\school\Active_Bike_Lighting_System\Radar_Core\Dave\Generated/DMA_CH\dma_ch.h **** #endif
 143:C:\Users\Depes Crystalline\Desktop\school\Active_Bike_Lighting_System\Radar_Core\Dave\Generated/DMA_CH\dma_ch.h **** 
 144:C:\Users\Depes Crystalline\Desktop\school\Active_Bike_Lighting_System\Radar_Core\Dave\Generated/DMA_CH\dma_ch.h **** /**************************************************************************************************
 145:C:\Users\Depes Crystalline\Desktop\school\Active_Bike_Lighting_System\Radar_Core\Dave\Generated/DMA_CH\dma_ch.h ****  * API PROTOTYPES
 146:C:\Users\Depes Crystalline\Desktop\school\Active_Bike_Lighting_System\Radar_Core\Dave\Generated/DMA_CH\dma_ch.h ****  **************************************************************************************************
 147:C:\Users\Depes Crystalline\Desktop\school\Active_Bike_Lighting_System\Radar_Core\Dave\Generated/DMA_CH\dma_ch.h ****  
 148:C:\Users\Depes Crystalline\Desktop\school\Active_Bike_Lighting_System\Radar_Core\Dave\Generated/DMA_CH\dma_ch.h **** /**
 149:C:\Users\Depes Crystalline\Desktop\school\Active_Bike_Lighting_System\Radar_Core\Dave\Generated/DMA_CH\dma_ch.h ****  * @ingroup DMA_CH_apidoc
 150:C:\Users\Depes Crystalline\Desktop\school\Active_Bike_Lighting_System\Radar_Core\Dave\Generated/DMA_CH\dma_ch.h ****  * @{
 151:C:\Users\Depes Crystalline\Desktop\school\Active_Bike_Lighting_System\Radar_Core\Dave\Generated/DMA_CH\dma_ch.h ****  */
 152:C:\Users\Depes Crystalline\Desktop\school\Active_Bike_Lighting_System\Radar_Core\Dave\Generated/DMA_CH\dma_ch.h **** 
 153:C:\Users\Depes Crystalline\Desktop\school\Active_Bike_Lighting_System\Radar_Core\Dave\Generated/DMA_CH\dma_ch.h **** /**
 154:C:\Users\Depes Crystalline\Desktop\school\Active_Bike_Lighting_System\Radar_Core\Dave\Generated/DMA_CH\dma_ch.h ****  * @brief Get DMA_CH APP version
 155:C:\Users\Depes Crystalline\Desktop\school\Active_Bike_Lighting_System\Radar_Core\Dave\Generated/DMA_CH\dma_ch.h ****  * @return DAVE_APP_VERSION_t APP version details (major, minor and patch number)
 156:C:\Users\Depes Crystalline\Desktop\school\Active_Bike_Lighting_System\Radar_Core\Dave\Generated/DMA_CH\dma_ch.h ****  *
 157:C:\Users\Depes Crystalline\Desktop\school\Active_Bike_Lighting_System\Radar_Core\Dave\Generated/DMA_CH\dma_ch.h ****  * \par<b>Description: </b><br>
 158:C:\Users\Depes Crystalline\Desktop\school\Active_Bike_Lighting_System\Radar_Core\Dave\Generated/DMA_CH\dma_ch.h ****  * The function can be used to check application software compatibility with a
 159:C:\Users\Depes Crystalline\Desktop\school\Active_Bike_Lighting_System\Radar_Core\Dave\Generated/DMA_CH\dma_ch.h ****  * specific version of the APP.
 160:C:\Users\Depes Crystalline\Desktop\school\Active_Bike_Lighting_System\Radar_Core\Dave\Generated/DMA_CH\dma_ch.h ****  *
 161:C:\Users\Depes Crystalline\Desktop\school\Active_Bike_Lighting_System\Radar_Core\Dave\Generated/DMA_CH\dma_ch.h ****  * Example Usage:
 162:C:\Users\Depes Crystalline\Desktop\school\Active_Bike_Lighting_System\Radar_Core\Dave\Generated/DMA_CH\dma_ch.h ****  *
 163:C:\Users\Depes Crystalline\Desktop\school\Active_Bike_Lighting_System\Radar_Core\Dave\Generated/DMA_CH\dma_ch.h ****  * @code
 164:C:\Users\Depes Crystalline\Desktop\school\Active_Bike_Lighting_System\Radar_Core\Dave\Generated/DMA_CH\dma_ch.h ****  * #include <DAVE.h>
 165:C:\Users\Depes Crystalline\Desktop\school\Active_Bike_Lighting_System\Radar_Core\Dave\Generated/DMA_CH\dma_ch.h ****  *
 166:C:\Users\Depes Crystalline\Desktop\school\Active_Bike_Lighting_System\Radar_Core\Dave\Generated/DMA_CH\dma_ch.h ****  * int main(void)
 167:C:\Users\Depes Crystalline\Desktop\school\Active_Bike_Lighting_System\Radar_Core\Dave\Generated/DMA_CH\dma_ch.h ****  * {
 168:C:\Users\Depes Crystalline\Desktop\school\Active_Bike_Lighting_System\Radar_Core\Dave\Generated/DMA_CH\dma_ch.h ****  *   DAVE_APP_VERSION_t version;
 169:C:\Users\Depes Crystalline\Desktop\school\Active_Bike_Lighting_System\Radar_Core\Dave\Generated/DMA_CH\dma_ch.h ****  *
 170:C:\Users\Depes Crystalline\Desktop\school\Active_Bike_Lighting_System\Radar_Core\Dave\Generated/DMA_CH\dma_ch.h ****  *   // Initialize DMA_CH APP. The GLOBAL_DMA APP
 171:C:\Users\Depes Crystalline\Desktop\school\Active_Bike_Lighting_System\Radar_Core\Dave\Generated/DMA_CH\dma_ch.h ****  *   // is initialized in the DMA_CH initialization
 172:C:\Users\Depes Crystalline\Desktop\school\Active_Bike_Lighting_System\Radar_Core\Dave\Generated/DMA_CH\dma_ch.h ****  *   // routine
 173:C:\Users\Depes Crystalline\Desktop\school\Active_Bike_Lighting_System\Radar_Core\Dave\Generated/DMA_CH\dma_ch.h ****  *   DAVE_Init();
 174:C:\Users\Depes Crystalline\Desktop\school\Active_Bike_Lighting_System\Radar_Core\Dave\Generated/DMA_CH\dma_ch.h ****  *
 175:C:\Users\Depes Crystalline\Desktop\school\Active_Bike_Lighting_System\Radar_Core\Dave\Generated/DMA_CH\dma_ch.h ****  *   version = DMA_CH_GetAppVersion();
 176:C:\Users\Depes Crystalline\Desktop\school\Active_Bike_Lighting_System\Radar_Core\Dave\Generated/DMA_CH\dma_ch.h ****  *   if (version.major != 4U)
 177:C:\Users\Depes Crystalline\Desktop\school\Active_Bike_Lighting_System\Radar_Core\Dave\Generated/DMA_CH\dma_ch.h ****  *   {
 178:C:\Users\Depes Crystalline\Desktop\school\Active_Bike_Lighting_System\Radar_Core\Dave\Generated/DMA_CH\dma_ch.h ****  *     // Probably, not the right version.
 179:C:\Users\Depes Crystalline\Desktop\school\Active_Bike_Lighting_System\Radar_Core\Dave\Generated/DMA_CH\dma_ch.h ****  *   }
 180:C:\Users\Depes Crystalline\Desktop\school\Active_Bike_Lighting_System\Radar_Core\Dave\Generated/DMA_CH\dma_ch.h ****  *
 181:C:\Users\Depes Crystalline\Desktop\school\Active_Bike_Lighting_System\Radar_Core\Dave\Generated/DMA_CH\dma_ch.h ****  *   // More code here
 182:C:\Users\Depes Crystalline\Desktop\school\Active_Bike_Lighting_System\Radar_Core\Dave\Generated/DMA_CH\dma_ch.h ****  *   while(1)
 183:C:\Users\Depes Crystalline\Desktop\school\Active_Bike_Lighting_System\Radar_Core\Dave\Generated/DMA_CH\dma_ch.h ****  *   {
 184:C:\Users\Depes Crystalline\Desktop\school\Active_Bike_Lighting_System\Radar_Core\Dave\Generated/DMA_CH\dma_ch.h ****  *   }
 185:C:\Users\Depes Crystalline\Desktop\school\Active_Bike_Lighting_System\Radar_Core\Dave\Generated/DMA_CH\dma_ch.h ****  *   return (0);
 186:C:\Users\Depes Crystalline\Desktop\school\Active_Bike_Lighting_System\Radar_Core\Dave\Generated/DMA_CH\dma_ch.h ****  * }
 187:C:\Users\Depes Crystalline\Desktop\school\Active_Bike_Lighting_System\Radar_Core\Dave\Generated/DMA_CH\dma_ch.h ****  * @endcode<BR> </p>
 188:C:\Users\Depes Crystalline\Desktop\school\Active_Bike_Lighting_System\Radar_Core\Dave\Generated/DMA_CH\dma_ch.h ****  */
 189:C:\Users\Depes Crystalline\Desktop\school\Active_Bike_Lighting_System\Radar_Core\Dave\Generated/DMA_CH\dma_ch.h **** DAVE_APP_VERSION_t DMA_CH_GetAppVersion(void);
 190:C:\Users\Depes Crystalline\Desktop\school\Active_Bike_Lighting_System\Radar_Core\Dave\Generated/DMA_CH\dma_ch.h **** 
 191:C:\Users\Depes Crystalline\Desktop\school\Active_Bike_Lighting_System\Radar_Core\Dave\Generated/DMA_CH\dma_ch.h **** /**
 192:C:\Users\Depes Crystalline\Desktop\school\Active_Bike_Lighting_System\Radar_Core\Dave\Generated/DMA_CH\dma_ch.h ****  * @brief Enable DMA channel
 193:C:\Users\Depes Crystalline\Desktop\school\Active_Bike_Lighting_System\Radar_Core\Dave\Generated/DMA_CH\dma_ch.h ****  * @param obj A pointer to DMA_CH_t, pointing to the DMA_CH handle configuration
 194:C:\Users\Depes Crystalline\Desktop\school\Active_Bike_Lighting_System\Radar_Core\Dave\Generated/DMA_CH\dma_ch.h ****  * @return None
 195:C:\Users\Depes Crystalline\Desktop\school\Active_Bike_Lighting_System\Radar_Core\Dave\Generated/DMA_CH\dma_ch.h ****  *
 196:C:\Users\Depes Crystalline\Desktop\school\Active_Bike_Lighting_System\Radar_Core\Dave\Generated/DMA_CH\dma_ch.h ****  * \par<b>Description: </b><br>
 197:C:\Users\Depes Crystalline\Desktop\school\Active_Bike_Lighting_System\Radar_Core\Dave\Generated/DMA_CH\dma_ch.h ****  * The function enables a DMA channel. All DMA transactions are triggered when the
 198:C:\Users\Depes Crystalline\Desktop\school\Active_Bike_Lighting_System\Radar_Core\Dave\Generated/DMA_CH\dma_ch.h ****  * channels are enabled.
 199:C:\Users\Depes Crystalline\Desktop\school\Active_Bike_Lighting_System\Radar_Core\Dave\Generated/DMA_CH\dma_ch.h ****  *
 200:C:\Users\Depes Crystalline\Desktop\school\Active_Bike_Lighting_System\Radar_Core\Dave\Generated/DMA_CH\dma_ch.h ****  * Example Usage:
 201:C:\Users\Depes Crystalline\Desktop\school\Active_Bike_Lighting_System\Radar_Core\Dave\Generated/DMA_CH\dma_ch.h ****  *
 202:C:\Users\Depes Crystalline\Desktop\school\Active_Bike_Lighting_System\Radar_Core\Dave\Generated/DMA_CH\dma_ch.h ****  * @code
 203:C:\Users\Depes Crystalline\Desktop\school\Active_Bike_Lighting_System\Radar_Core\Dave\Generated/DMA_CH\dma_ch.h ****  * #include <XMC4500.h>
 204:C:\Users\Depes Crystalline\Desktop\school\Active_Bike_Lighting_System\Radar_Core\Dave\Generated/DMA_CH\dma_ch.h ****  * #include <DAVE.h>
 205:C:\Users\Depes Crystalline\Desktop\school\Active_Bike_Lighting_System\Radar_Core\Dave\Generated/DMA_CH\dma_ch.h ****  *
 206:C:\Users\Depes Crystalline\Desktop\school\Active_Bike_Lighting_System\Radar_Core\Dave\Generated/DMA_CH\dma_ch.h ****  * int main(void)
 207:C:\Users\Depes Crystalline\Desktop\school\Active_Bike_Lighting_System\Radar_Core\Dave\Generated/DMA_CH\dma_ch.h ****  * {
 208:C:\Users\Depes Crystalline\Desktop\school\Active_Bike_Lighting_System\Radar_Core\Dave\Generated/DMA_CH\dma_ch.h ****  *   DAVE_STATUS_t status;
 209:C:\Users\Depes Crystalline\Desktop\school\Active_Bike_Lighting_System\Radar_Core\Dave\Generated/DMA_CH\dma_ch.h ****  *
 210:C:\Users\Depes Crystalline\Desktop\school\Active_Bike_Lighting_System\Radar_Core\Dave\Generated/DMA_CH\dma_ch.h ****  *   status = DAVE_Init();
 211:C:\Users\Depes Crystalline\Desktop\school\Active_Bike_Lighting_System\Radar_Core\Dave\Generated/DMA_CH\dma_ch.h ****  *
 212:C:\Users\Depes Crystalline\Desktop\school\Active_Bike_Lighting_System\Radar_Core\Dave\Generated/DMA_CH\dma_ch.h ****  *   if (status == DAVE_STATUS_SUCCESS)
 213:C:\Users\Depes Crystalline\Desktop\school\Active_Bike_Lighting_System\Radar_Core\Dave\Generated/DMA_CH\dma_ch.h ****  *   {
 214:C:\Users\Depes Crystalline\Desktop\school\Active_Bike_Lighting_System\Radar_Core\Dave\Generated/DMA_CH\dma_ch.h ****  *     DMA_CH_Enable(&DMA_CH_0);
 215:C:\Users\Depes Crystalline\Desktop\school\Active_Bike_Lighting_System\Radar_Core\Dave\Generated/DMA_CH\dma_ch.h ****  *   }
 216:C:\Users\Depes Crystalline\Desktop\school\Active_Bike_Lighting_System\Radar_Core\Dave\Generated/DMA_CH\dma_ch.h ****  *   else
 217:C:\Users\Depes Crystalline\Desktop\school\Active_Bike_Lighting_System\Radar_Core\Dave\Generated/DMA_CH\dma_ch.h ****  *   {
 218:C:\Users\Depes Crystalline\Desktop\school\Active_Bike_Lighting_System\Radar_Core\Dave\Generated/DMA_CH\dma_ch.h ****  *     // Something went wrong.
 219:C:\Users\Depes Crystalline\Desktop\school\Active_Bike_Lighting_System\Radar_Core\Dave\Generated/DMA_CH\dma_ch.h ****  *     while (1U);
 220:C:\Users\Depes Crystalline\Desktop\school\Active_Bike_Lighting_System\Radar_Core\Dave\Generated/DMA_CH\dma_ch.h ****  *   }
 221:C:\Users\Depes Crystalline\Desktop\school\Active_Bike_Lighting_System\Radar_Core\Dave\Generated/DMA_CH\dma_ch.h ****  *
 222:C:\Users\Depes Crystalline\Desktop\school\Active_Bike_Lighting_System\Radar_Core\Dave\Generated/DMA_CH\dma_ch.h ****  *   // More code here.
 223:C:\Users\Depes Crystalline\Desktop\school\Active_Bike_Lighting_System\Radar_Core\Dave\Generated/DMA_CH\dma_ch.h ****  *   while (1U);
 224:C:\Users\Depes Crystalline\Desktop\school\Active_Bike_Lighting_System\Radar_Core\Dave\Generated/DMA_CH\dma_ch.h ****  *
 225:C:\Users\Depes Crystalline\Desktop\school\Active_Bike_Lighting_System\Radar_Core\Dave\Generated/DMA_CH\dma_ch.h ****  *   return 1;
 226:C:\Users\Depes Crystalline\Desktop\school\Active_Bike_Lighting_System\Radar_Core\Dave\Generated/DMA_CH\dma_ch.h ****  * }
 227:C:\Users\Depes Crystalline\Desktop\school\Active_Bike_Lighting_System\Radar_Core\Dave\Generated/DMA_CH\dma_ch.h ****  * @endcode<BR> </p>
 228:C:\Users\Depes Crystalline\Desktop\school\Active_Bike_Lighting_System\Radar_Core\Dave\Generated/DMA_CH\dma_ch.h ****  */
 229:C:\Users\Depes Crystalline\Desktop\school\Active_Bike_Lighting_System\Radar_Core\Dave\Generated/DMA_CH\dma_ch.h **** __STATIC_INLINE void DMA_CH_Enable(DMA_CH_t *const obj)
 230:C:\Users\Depes Crystalline\Desktop\school\Active_Bike_Lighting_System\Radar_Core\Dave\Generated/DMA_CH\dma_ch.h **** {
 208              	 .loc 3 230 0
 209              	 .cfi_startproc
 210              	 
 211              	 
 212 0000 80B5     	 push {r7,lr}
 213              	.LCFI22:
 214              	 .cfi_def_cfa_offset 8
 215              	 .cfi_offset 7,-8
 216              	 .cfi_offset 14,-4
 217 0002 82B0     	 sub sp,sp,#8
 218              	.LCFI23:
 219              	 .cfi_def_cfa_offset 16
 220 0004 00AF     	 add r7,sp,#0
 221              	.LCFI24:
 222              	 .cfi_def_cfa_register 7
 223 0006 7860     	 str r0,[r7,#4]
 231:C:\Users\Depes Crystalline\Desktop\school\Active_Bike_Lighting_System\Radar_Core\Dave\Generated/DMA_CH\dma_ch.h ****   XMC_ASSERT("DMA_CH_Enable: NULL DMA_CH_t object", (obj != NULL));
 232:C:\Users\Depes Crystalline\Desktop\school\Active_Bike_Lighting_System\Radar_Core\Dave\Generated/DMA_CH\dma_ch.h **** 
 233:C:\Users\Depes Crystalline\Desktop\school\Active_Bike_Lighting_System\Radar_Core\Dave\Generated/DMA_CH\dma_ch.h ****   XMC_DMA_CH_Enable(obj->dma_global->dma, obj->ch_num);
 224              	 .loc 3 233 0
 225 0008 7B68     	 ldr r3,[r7,#4]
 226 000a 1B68     	 ldr r3,[r3]
 227 000c 1A68     	 ldr r2,[r3]
 228 000e 7B68     	 ldr r3,[r7,#4]
 229 0010 1B7B     	 ldrb r3,[r3,#12]
 230 0012 1046     	 mov r0,r2
 231 0014 1946     	 mov r1,r3
 232 0016 FFF7FEFF 	 bl XMC_DMA_CH_Enable
 234:C:\Users\Depes Crystalline\Desktop\school\Active_Bike_Lighting_System\Radar_Core\Dave\Generated/DMA_CH\dma_ch.h **** }
 233              	 .loc 3 234 0
 234 001a 0837     	 adds r7,r7,#8
 235              	.LCFI25:
 236              	 .cfi_def_cfa_offset 8
 237 001c BD46     	 mov sp,r7
 238              	.LCFI26:
 239              	 .cfi_def_cfa_register 13
 240              	 
 241 001e 80BD     	 pop {r7,pc}
 242              	 .cfi_endproc
 243              	.LFE430:
 245              	 .section .text.DMA_CH_Disable,"ax",%progbits
 246              	 .align 2
 247              	 .thumb
 248              	 .thumb_func
 250              	DMA_CH_Disable:
 251              	.LFB431:
 235:C:\Users\Depes Crystalline\Desktop\school\Active_Bike_Lighting_System\Radar_Core\Dave\Generated/DMA_CH\dma_ch.h **** 
 236:C:\Users\Depes Crystalline\Desktop\school\Active_Bike_Lighting_System\Radar_Core\Dave\Generated/DMA_CH\dma_ch.h **** /**
 237:C:\Users\Depes Crystalline\Desktop\school\Active_Bike_Lighting_System\Radar_Core\Dave\Generated/DMA_CH\dma_ch.h ****  * @brief Disable DMA channel
 238:C:\Users\Depes Crystalline\Desktop\school\Active_Bike_Lighting_System\Radar_Core\Dave\Generated/DMA_CH\dma_ch.h ****  * @param obj A pointer to DMA_CH_t, pointing to the DMA_CH handle configuration
 239:C:\Users\Depes Crystalline\Desktop\school\Active_Bike_Lighting_System\Radar_Core\Dave\Generated/DMA_CH\dma_ch.h ****  * @return None
 240:C:\Users\Depes Crystalline\Desktop\school\Active_Bike_Lighting_System\Radar_Core\Dave\Generated/DMA_CH\dma_ch.h ****  *
 241:C:\Users\Depes Crystalline\Desktop\school\Active_Bike_Lighting_System\Radar_Core\Dave\Generated/DMA_CH\dma_ch.h ****  * \par<b>Description: </b><br>
 242:C:\Users\Depes Crystalline\Desktop\school\Active_Bike_Lighting_System\Radar_Core\Dave\Generated/DMA_CH\dma_ch.h ****  * The function disables a DMA channel. All DMA transactions are stopped when the
 243:C:\Users\Depes Crystalline\Desktop\school\Active_Bike_Lighting_System\Radar_Core\Dave\Generated/DMA_CH\dma_ch.h ****  * channels are disabled.
 244:C:\Users\Depes Crystalline\Desktop\school\Active_Bike_Lighting_System\Radar_Core\Dave\Generated/DMA_CH\dma_ch.h ****  *
 245:C:\Users\Depes Crystalline\Desktop\school\Active_Bike_Lighting_System\Radar_Core\Dave\Generated/DMA_CH\dma_ch.h ****  * Example Usage:
 246:C:\Users\Depes Crystalline\Desktop\school\Active_Bike_Lighting_System\Radar_Core\Dave\Generated/DMA_CH\dma_ch.h ****  *
 247:C:\Users\Depes Crystalline\Desktop\school\Active_Bike_Lighting_System\Radar_Core\Dave\Generated/DMA_CH\dma_ch.h ****  * @code
 248:C:\Users\Depes Crystalline\Desktop\school\Active_Bike_Lighting_System\Radar_Core\Dave\Generated/DMA_CH\dma_ch.h ****  * #include <XMC4500.h>
 249:C:\Users\Depes Crystalline\Desktop\school\Active_Bike_Lighting_System\Radar_Core\Dave\Generated/DMA_CH\dma_ch.h ****  * #include <DAVE.h>
 250:C:\Users\Depes Crystalline\Desktop\school\Active_Bike_Lighting_System\Radar_Core\Dave\Generated/DMA_CH\dma_ch.h ****  *
 251:C:\Users\Depes Crystalline\Desktop\school\Active_Bike_Lighting_System\Radar_Core\Dave\Generated/DMA_CH\dma_ch.h ****  * //
 252:C:\Users\Depes Crystalline\Desktop\school\Active_Bike_Lighting_System\Radar_Core\Dave\Generated/DMA_CH\dma_ch.h ****  * // The configuration structures DMA_CH_0_CONFIG & DMA_CH_0 must look like this:
 253:C:\Users\Depes Crystalline\Desktop\school\Active_Bike_Lighting_System\Radar_Core\Dave\Generated/DMA_CH\dma_ch.h ****  * //
 254:C:\Users\Depes Crystalline\Desktop\school\Active_Bike_Lighting_System\Radar_Core\Dave\Generated/DMA_CH\dma_ch.h ****  * // DMA_CH_CONFIG_t DMA_CH_0_CONFIG =
 255:C:\Users\Depes Crystalline\Desktop\school\Active_Bike_Lighting_System\Radar_Core\Dave\Generated/DMA_CH\dma_ch.h ****  * // {
 256:C:\Users\Depes Crystalline\Desktop\school\Active_Bike_Lighting_System\Radar_Core\Dave\Generated/DMA_CH\dma_ch.h ****  * //   {
 257:C:\Users\Depes Crystalline\Desktop\school\Active_Bike_Lighting_System\Radar_Core\Dave\Generated/DMA_CH\dma_ch.h ****  * //     {
 258:C:\Users\Depes Crystalline\Desktop\school\Active_Bike_Lighting_System\Radar_Core\Dave\Generated/DMA_CH\dma_ch.h ****  * //       .enable_interrupt = true, // Interrupts enabled
 259:C:\Users\Depes Crystalline\Desktop\school\Active_Bike_Lighting_System\Radar_Core\Dave\Generated/DMA_CH\dma_ch.h ****  * //       .dst_transfer_width = XMC_DMA_CH_TRANSFER_WIDTH_32, // Destination transfer width
 260:C:\Users\Depes Crystalline\Desktop\school\Active_Bike_Lighting_System\Radar_Core\Dave\Generated/DMA_CH\dma_ch.h ****  * //       .src_transfer_width = XMC_DMA_CH_TRANSFER_WIDTH_32, // Source transfer width
 261:C:\Users\Depes Crystalline\Desktop\school\Active_Bike_Lighting_System\Radar_Core\Dave\Generated/DMA_CH\dma_ch.h ****  * //       .dst_address_count_mode = XMC_DMA_CH_ADDRESS_COUNT_MODE_INCREMENT, // Destination addre
 262:C:\Users\Depes Crystalline\Desktop\school\Active_Bike_Lighting_System\Radar_Core\Dave\Generated/DMA_CH\dma_ch.h ****  * //       .src_address_count_mode = XMC_DMA_CH_ADDRESS_COUNT_MODE_INCREMENT, // Source address co
 263:C:\Users\Depes Crystalline\Desktop\school\Active_Bike_Lighting_System\Radar_Core\Dave\Generated/DMA_CH\dma_ch.h ****  * //       .dst_burst_length = XMC_DMA_CH_BURST_LENGTH_1, // Destination burst length
 264:C:\Users\Depes Crystalline\Desktop\school\Active_Bike_Lighting_System\Radar_Core\Dave\Generated/DMA_CH\dma_ch.h ****  * //       .src_burst_length = XMC_DMA_CH_BURST_LENGTH_1, // Source burst length
 265:C:\Users\Depes Crystalline\Desktop\school\Active_Bike_Lighting_System\Radar_Core\Dave\Generated/DMA_CH\dma_ch.h ****  * //       .enable_src_gather = false, // Source gather enabled?
 266:C:\Users\Depes Crystalline\Desktop\school\Active_Bike_Lighting_System\Radar_Core\Dave\Generated/DMA_CH\dma_ch.h ****  * //       .enable_dst_scatter = false, // Destination scatter enabled?
 267:C:\Users\Depes Crystalline\Desktop\school\Active_Bike_Lighting_System\Radar_Core\Dave\Generated/DMA_CH\dma_ch.h ****  * //       .transfer_flow = XMC_DMA_CH_TRANSFER_FLOW_M2M_DMA, // Transfer flow
 268:C:\Users\Depes Crystalline\Desktop\school\Active_Bike_Lighting_System\Radar_Core\Dave\Generated/DMA_CH\dma_ch.h ****  * //     },
 269:C:\Users\Depes Crystalline\Desktop\school\Active_Bike_Lighting_System\Radar_Core\Dave\Generated/DMA_CH\dma_ch.h ****  * //     .block_size = 16U, // Block size
 270:C:\Users\Depes Crystalline\Desktop\school\Active_Bike_Lighting_System\Radar_Core\Dave\Generated/DMA_CH\dma_ch.h ****  * //     .transfer_type = XMC_DMA_CH_TRANSFER_TYPE_MULTI_BLOCK_SRCADR_CONTIGUOUS_DSTADR_RELOAD, //
 271:C:\Users\Depes Crystalline\Desktop\school\Active_Bike_Lighting_System\Radar_Core\Dave\Generated/DMA_CH\dma_ch.h ****  * //     .priority = XMC_DMA_CH_PRIORITY_0, // Priority level
 272:C:\Users\Depes Crystalline\Desktop\school\Active_Bike_Lighting_System\Radar_Core\Dave\Generated/DMA_CH\dma_ch.h ****  * //     .src_handshaking = XMC_DMA_CH_SRC_HANDSHAKING_SOFTWARE, // Source handshaking
 273:C:\Users\Depes Crystalline\Desktop\school\Active_Bike_Lighting_System\Radar_Core\Dave\Generated/DMA_CH\dma_ch.h ****  * //     .dst_handshaking = XMC_DMA_CH_DST_HANDSHAKING_SOFTWARE  // Destination handshaking
 274:C:\Users\Depes Crystalline\Desktop\school\Active_Bike_Lighting_System\Radar_Core\Dave\Generated/DMA_CH\dma_ch.h ****  * //   },
 275:C:\Users\Depes Crystalline\Desktop\school\Active_Bike_Lighting_System\Radar_Core\Dave\Generated/DMA_CH\dma_ch.h ****  * //   user_event_handler,
 276:C:\Users\Depes Crystalline\Desktop\school\Active_Bike_Lighting_System\Radar_Core\Dave\Generated/DMA_CH\dma_ch.h ****  * //   XMC_DMA_CH_EVENT_ERROR | XMC_DMA_CH_EVENT_BLOCK_TRANSFER_COMPLETE | XMC_DMA_CH_EVENT_TRANSF
 277:C:\Users\Depes Crystalline\Desktop\school\Active_Bike_Lighting_System\Radar_Core\Dave\Generated/DMA_CH\dma_ch.h ****  * // };
 278:C:\Users\Depes Crystalline\Desktop\school\Active_Bike_Lighting_System\Radar_Core\Dave\Generated/DMA_CH\dma_ch.h ****  * //
 279:C:\Users\Depes Crystalline\Desktop\school\Active_Bike_Lighting_System\Radar_Core\Dave\Generated/DMA_CH\dma_ch.h ****  * // DMA_CH_t DMA_CH_0 =
 280:C:\Users\Depes Crystalline\Desktop\school\Active_Bike_Lighting_System\Radar_Core\Dave\Generated/DMA_CH\dma_ch.h ****  * // {
 281:C:\Users\Depes Crystalline\Desktop\school\Active_Bike_Lighting_System\Radar_Core\Dave\Generated/DMA_CH\dma_ch.h ****  * //   .dma_global = &GLOBAL_DMA_0, // Which DMA_GLOBAL instance?
 282:C:\Users\Depes Crystalline\Desktop\school\Active_Bike_Lighting_System\Radar_Core\Dave\Generated/DMA_CH\dma_ch.h ****  * //   .config = &DMA_CH_0_CONFIG, // Channel configuration
 283:C:\Users\Depes Crystalline\Desktop\school\Active_Bike_Lighting_System\Radar_Core\Dave\Generated/DMA_CH\dma_ch.h ****  * //   .ch_num = 0U, // Channel number
 284:C:\Users\Depes Crystalline\Desktop\school\Active_Bike_Lighting_System\Radar_Core\Dave\Generated/DMA_CH\dma_ch.h ****  * // };
 285:C:\Users\Depes Crystalline\Desktop\school\Active_Bike_Lighting_System\Radar_Core\Dave\Generated/DMA_CH\dma_ch.h ****  *
 286:C:\Users\Depes Crystalline\Desktop\school\Active_Bike_Lighting_System\Radar_Core\Dave\Generated/DMA_CH\dma_ch.h ****  * uint32_t tx_buf[256];
 287:C:\Users\Depes Crystalline\Desktop\school\Active_Bike_Lighting_System\Radar_Core\Dave\Generated/DMA_CH\dma_ch.h ****  * uint32_t rx_buf[256];
 288:C:\Users\Depes Crystalline\Desktop\school\Active_Bike_Lighting_System\Radar_Core\Dave\Generated/DMA_CH\dma_ch.h ****  *
 289:C:\Users\Depes Crystalline\Desktop\school\Active_Bike_Lighting_System\Radar_Core\Dave\Generated/DMA_CH\dma_ch.h ****  * volatile uint8_t xfer_cmplt_cb = 0, block_count = 0;
 290:C:\Users\Depes Crystalline\Desktop\school\Active_Bike_Lighting_System\Radar_Core\Dave\Generated/DMA_CH\dma_ch.h ****  * volatile uint8_t dma_error_cb = 0;
 291:C:\Users\Depes Crystalline\Desktop\school\Active_Bike_Lighting_System\Radar_Core\Dave\Generated/DMA_CH\dma_ch.h ****  * volatile uint8_t xfer_block_cmplt = 0;
 292:C:\Users\Depes Crystalline\Desktop\school\Active_Bike_Lighting_System\Radar_Core\Dave\Generated/DMA_CH\dma_ch.h ****  * volatile uint8_t src_xfer_cmplt = 0;
 293:C:\Users\Depes Crystalline\Desktop\school\Active_Bike_Lighting_System\Radar_Core\Dave\Generated/DMA_CH\dma_ch.h ****  * volatile uint8_t dest_xfer_cmplt = 0;
 294:C:\Users\Depes Crystalline\Desktop\school\Active_Bike_Lighting_System\Radar_Core\Dave\Generated/DMA_CH\dma_ch.h ****  * volatile uint8_t multi_block = 0;
 295:C:\Users\Depes Crystalline\Desktop\school\Active_Bike_Lighting_System\Radar_Core\Dave\Generated/DMA_CH\dma_ch.h ****  *
 296:C:\Users\Depes Crystalline\Desktop\school\Active_Bike_Lighting_System\Radar_Core\Dave\Generated/DMA_CH\dma_ch.h ****  * void user_event_handler (XMC_DMA_CH_EVENT_t event)
 297:C:\Users\Depes Crystalline\Desktop\school\Active_Bike_Lighting_System\Radar_Core\Dave\Generated/DMA_CH\dma_ch.h ****  * {
 298:C:\Users\Depes Crystalline\Desktop\school\Active_Bike_Lighting_System\Radar_Core\Dave\Generated/DMA_CH\dma_ch.h ****  *   DMA_CH_t *dma_ch;
 299:C:\Users\Depes Crystalline\Desktop\school\Active_Bike_Lighting_System\Radar_Core\Dave\Generated/DMA_CH\dma_ch.h ****  *   dma_ch = &DMA_CH_0;
 300:C:\Users\Depes Crystalline\Desktop\school\Active_Bike_Lighting_System\Radar_Core\Dave\Generated/DMA_CH\dma_ch.h ****  *
 301:C:\Users\Depes Crystalline\Desktop\school\Active_Bike_Lighting_System\Radar_Core\Dave\Generated/DMA_CH\dma_ch.h ****  *   // Check and update the volatile flags
 302:C:\Users\Depes Crystalline\Desktop\school\Active_Bike_Lighting_System\Radar_Core\Dave\Generated/DMA_CH\dma_ch.h ****  *   event = XMC_DMA_CH_GetEventStatus(dma_ch->dma_global->dma, dma_ch->ch_num);
 303:C:\Users\Depes Crystalline\Desktop\school\Active_Bike_Lighting_System\Radar_Core\Dave\Generated/DMA_CH\dma_ch.h ****  *   if ((event & XMC_DMA_CH_EVENT_ERROR) != 0)
 304:C:\Users\Depes Crystalline\Desktop\school\Active_Bike_Lighting_System\Radar_Core\Dave\Generated/DMA_CH\dma_ch.h ****  *   {
 305:C:\Users\Depes Crystalline\Desktop\school\Active_Bike_Lighting_System\Radar_Core\Dave\Generated/DMA_CH\dma_ch.h ****  *     dma_error_cb = 1;
 306:C:\Users\Depes Crystalline\Desktop\school\Active_Bike_Lighting_System\Radar_Core\Dave\Generated/DMA_CH\dma_ch.h ****  *   }
 307:C:\Users\Depes Crystalline\Desktop\school\Active_Bike_Lighting_System\Radar_Core\Dave\Generated/DMA_CH\dma_ch.h ****  *   else if ((event & XMC_DMA_CH_EVENT_TRANSFER_COMPLETE) != 0)
 308:C:\Users\Depes Crystalline\Desktop\school\Active_Bike_Lighting_System\Radar_Core\Dave\Generated/DMA_CH\dma_ch.h ****  *   {
 309:C:\Users\Depes Crystalline\Desktop\school\Active_Bike_Lighting_System\Radar_Core\Dave\Generated/DMA_CH\dma_ch.h ****  *     xfer_cmplt_cb = 1;
 310:C:\Users\Depes Crystalline\Desktop\school\Active_Bike_Lighting_System\Radar_Core\Dave\Generated/DMA_CH\dma_ch.h ****  *     if (multi_block)
 311:C:\Users\Depes Crystalline\Desktop\school\Active_Bike_Lighting_System\Radar_Core\Dave\Generated/DMA_CH\dma_ch.h ****  *     {
 312:C:\Users\Depes Crystalline\Desktop\school\Active_Bike_Lighting_System\Radar_Core\Dave\Generated/DMA_CH\dma_ch.h ****  *       block_count++;
 313:C:\Users\Depes Crystalline\Desktop\school\Active_Bike_Lighting_System\Radar_Core\Dave\Generated/DMA_CH\dma_ch.h ****  *       DMA_CH_Disable(dma_ch);
 314:C:\Users\Depes Crystalline\Desktop\school\Active_Bike_Lighting_System\Radar_Core\Dave\Generated/DMA_CH\dma_ch.h ****  *     }
 315:C:\Users\Depes Crystalline\Desktop\school\Active_Bike_Lighting_System\Radar_Core\Dave\Generated/DMA_CH\dma_ch.h ****  *   }
 316:C:\Users\Depes Crystalline\Desktop\school\Active_Bike_Lighting_System\Radar_Core\Dave\Generated/DMA_CH\dma_ch.h ****  *   else if ((event & XMC_DMA_CH_EVENT_BLOCK_TRANSFER_COMPLETE) != 0)
 317:C:\Users\Depes Crystalline\Desktop\school\Active_Bike_Lighting_System\Radar_Core\Dave\Generated/DMA_CH\dma_ch.h ****  *   {
 318:C:\Users\Depes Crystalline\Desktop\school\Active_Bike_Lighting_System\Radar_Core\Dave\Generated/DMA_CH\dma_ch.h ****  *     xfer_block_cmplt = 1;
 319:C:\Users\Depes Crystalline\Desktop\school\Active_Bike_Lighting_System\Radar_Core\Dave\Generated/DMA_CH\dma_ch.h ****  *     block_count++;
 320:C:\Users\Depes Crystalline\Desktop\school\Active_Bike_Lighting_System\Radar_Core\Dave\Generated/DMA_CH\dma_ch.h ****  *     if (block_count == 3)
 321:C:\Users\Depes Crystalline\Desktop\school\Active_Bike_Lighting_System\Radar_Core\Dave\Generated/DMA_CH\dma_ch.h ****  *     {
 322:C:\Users\Depes Crystalline\Desktop\school\Active_Bike_Lighting_System\Radar_Core\Dave\Generated/DMA_CH\dma_ch.h ****  *       XMC_DMA_CH_RequestLastMultiblockTransfer(dma_ch->dma_global->dma, dma_ch->ch_num);
 323:C:\Users\Depes Crystalline\Desktop\school\Active_Bike_Lighting_System\Radar_Core\Dave\Generated/DMA_CH\dma_ch.h ****  *     }
 324:C:\Users\Depes Crystalline\Desktop\school\Active_Bike_Lighting_System\Radar_Core\Dave\Generated/DMA_CH\dma_ch.h ****  *   }
 325:C:\Users\Depes Crystalline\Desktop\school\Active_Bike_Lighting_System\Radar_Core\Dave\Generated/DMA_CH\dma_ch.h ****  *   else if ((event & XMC_DMA_CH_EVENT_SRC_TRANSACTION_COMPLETE) != 0)
 326:C:\Users\Depes Crystalline\Desktop\school\Active_Bike_Lighting_System\Radar_Core\Dave\Generated/DMA_CH\dma_ch.h ****  *   {
 327:C:\Users\Depes Crystalline\Desktop\school\Active_Bike_Lighting_System\Radar_Core\Dave\Generated/DMA_CH\dma_ch.h ****  *     src_xfer_cmplt = 1;
 328:C:\Users\Depes Crystalline\Desktop\school\Active_Bike_Lighting_System\Radar_Core\Dave\Generated/DMA_CH\dma_ch.h ****  *   }
 329:C:\Users\Depes Crystalline\Desktop\school\Active_Bike_Lighting_System\Radar_Core\Dave\Generated/DMA_CH\dma_ch.h ****  *   else if ((event & XMC_DMA_CH_EVENT_DST_TRANSACTION_COMPLETE) != 0)
 330:C:\Users\Depes Crystalline\Desktop\school\Active_Bike_Lighting_System\Radar_Core\Dave\Generated/DMA_CH\dma_ch.h ****  *   {
 331:C:\Users\Depes Crystalline\Desktop\school\Active_Bike_Lighting_System\Radar_Core\Dave\Generated/DMA_CH\dma_ch.h ****  *     dest_xfer_cmplt = 1;
 332:C:\Users\Depes Crystalline\Desktop\school\Active_Bike_Lighting_System\Radar_Core\Dave\Generated/DMA_CH\dma_ch.h ****  *   }
 333:C:\Users\Depes Crystalline\Desktop\school\Active_Bike_Lighting_System\Radar_Core\Dave\Generated/DMA_CH\dma_ch.h ****  * }
 334:C:\Users\Depes Crystalline\Desktop\school\Active_Bike_Lighting_System\Radar_Core\Dave\Generated/DMA_CH\dma_ch.h ****  *
 335:C:\Users\Depes Crystalline\Desktop\school\Active_Bike_Lighting_System\Radar_Core\Dave\Generated/DMA_CH\dma_ch.h ****  * int main (void)
 336:C:\Users\Depes Crystalline\Desktop\school\Active_Bike_Lighting_System\Radar_Core\Dave\Generated/DMA_CH\dma_ch.h ****  * {
 337:C:\Users\Depes Crystalline\Desktop\school\Active_Bike_Lighting_System\Radar_Core\Dave\Generated/DMA_CH\dma_ch.h ****  *   DAVE_STATUS_t status;
 338:C:\Users\Depes Crystalline\Desktop\school\Active_Bike_Lighting_System\Radar_Core\Dave\Generated/DMA_CH\dma_ch.h ****  *   uint8_t i = 0;
 339:C:\Users\Depes Crystalline\Desktop\school\Active_Bike_Lighting_System\Radar_Core\Dave\Generated/DMA_CH\dma_ch.h ****  *
 340:C:\Users\Depes Crystalline\Desktop\school\Active_Bike_Lighting_System\Radar_Core\Dave\Generated/DMA_CH\dma_ch.h ****  *   status = DAVE_Init();
 341:C:\Users\Depes Crystalline\Desktop\school\Active_Bike_Lighting_System\Radar_Core\Dave\Generated/DMA_CH\dma_ch.h ****  *
 342:C:\Users\Depes Crystalline\Desktop\school\Active_Bike_Lighting_System\Radar_Core\Dave\Generated/DMA_CH\dma_ch.h ****  *   for(i = 0; i < 100; i++)
 343:C:\Users\Depes Crystalline\Desktop\school\Active_Bike_Lighting_System\Radar_Core\Dave\Generated/DMA_CH\dma_ch.h ****  *   {
 344:C:\Users\Depes Crystalline\Desktop\school\Active_Bike_Lighting_System\Radar_Core\Dave\Generated/DMA_CH\dma_ch.h ****  *     tx_buf[i] = i;
 345:C:\Users\Depes Crystalline\Desktop\school\Active_Bike_Lighting_System\Radar_Core\Dave\Generated/DMA_CH\dma_ch.h ****  *   }
 346:C:\Users\Depes Crystalline\Desktop\school\Active_Bike_Lighting_System\Radar_Core\Dave\Generated/DMA_CH\dma_ch.h ****  *
 347:C:\Users\Depes Crystalline\Desktop\school\Active_Bike_Lighting_System\Radar_Core\Dave\Generated/DMA_CH\dma_ch.h ****  *   if (status == DAVE_STATUS_SUCCESS)
 348:C:\Users\Depes Crystalline\Desktop\school\Active_Bike_Lighting_System\Radar_Core\Dave\Generated/DMA_CH\dma_ch.h ****  *   {
 349:C:\Users\Depes Crystalline\Desktop\school\Active_Bike_Lighting_System\Radar_Core\Dave\Generated/DMA_CH\dma_ch.h ****  *     DMA_CH_Enable(&DMA_CH_0);
 350:C:\Users\Depes Crystalline\Desktop\school\Active_Bike_Lighting_System\Radar_Core\Dave\Generated/DMA_CH\dma_ch.h ****  *   }
 351:C:\Users\Depes Crystalline\Desktop\school\Active_Bike_Lighting_System\Radar_Core\Dave\Generated/DMA_CH\dma_ch.h ****  *   else
 352:C:\Users\Depes Crystalline\Desktop\school\Active_Bike_Lighting_System\Radar_Core\Dave\Generated/DMA_CH\dma_ch.h ****  *   {
 353:C:\Users\Depes Crystalline\Desktop\school\Active_Bike_Lighting_System\Radar_Core\Dave\Generated/DMA_CH\dma_ch.h ****  *     while(1U);
 354:C:\Users\Depes Crystalline\Desktop\school\Active_Bike_Lighting_System\Radar_Core\Dave\Generated/DMA_CH\dma_ch.h ****  *   }
 355:C:\Users\Depes Crystalline\Desktop\school\Active_Bike_Lighting_System\Radar_Core\Dave\Generated/DMA_CH\dma_ch.h ****  *
 356:C:\Users\Depes Crystalline\Desktop\school\Active_Bike_Lighting_System\Radar_Core\Dave\Generated/DMA_CH\dma_ch.h ****  *   while (1U);
 357:C:\Users\Depes Crystalline\Desktop\school\Active_Bike_Lighting_System\Radar_Core\Dave\Generated/DMA_CH\dma_ch.h ****  *
 358:C:\Users\Depes Crystalline\Desktop\school\Active_Bike_Lighting_System\Radar_Core\Dave\Generated/DMA_CH\dma_ch.h ****  *   return 1;
 359:C:\Users\Depes Crystalline\Desktop\school\Active_Bike_Lighting_System\Radar_Core\Dave\Generated/DMA_CH\dma_ch.h ****  * }
 360:C:\Users\Depes Crystalline\Desktop\school\Active_Bike_Lighting_System\Radar_Core\Dave\Generated/DMA_CH\dma_ch.h ****  * @endcode<BR> </p>
 361:C:\Users\Depes Crystalline\Desktop\school\Active_Bike_Lighting_System\Radar_Core\Dave\Generated/DMA_CH\dma_ch.h ****  */
 362:C:\Users\Depes Crystalline\Desktop\school\Active_Bike_Lighting_System\Radar_Core\Dave\Generated/DMA_CH\dma_ch.h **** __STATIC_INLINE void DMA_CH_Disable(DMA_CH_t *const obj)
 363:C:\Users\Depes Crystalline\Desktop\school\Active_Bike_Lighting_System\Radar_Core\Dave\Generated/DMA_CH\dma_ch.h **** {
 252              	 .loc 3 363 0
 253              	 .cfi_startproc
 254              	 
 255              	 
 256 0000 80B5     	 push {r7,lr}
 257              	.LCFI27:
 258              	 .cfi_def_cfa_offset 8
 259              	 .cfi_offset 7,-8
 260              	 .cfi_offset 14,-4
 261 0002 82B0     	 sub sp,sp,#8
 262              	.LCFI28:
 263              	 .cfi_def_cfa_offset 16
 264 0004 00AF     	 add r7,sp,#0
 265              	.LCFI29:
 266              	 .cfi_def_cfa_register 7
 267 0006 7860     	 str r0,[r7,#4]
 364:C:\Users\Depes Crystalline\Desktop\school\Active_Bike_Lighting_System\Radar_Core\Dave\Generated/DMA_CH\dma_ch.h ****   XMC_ASSERT("DMA_CH_Disable: NULL DMA_CH_t object", (obj != NULL));
 365:C:\Users\Depes Crystalline\Desktop\school\Active_Bike_Lighting_System\Radar_Core\Dave\Generated/DMA_CH\dma_ch.h **** 
 366:C:\Users\Depes Crystalline\Desktop\school\Active_Bike_Lighting_System\Radar_Core\Dave\Generated/DMA_CH\dma_ch.h ****   XMC_DMA_CH_Disable(obj->dma_global->dma, obj->ch_num);
 268              	 .loc 3 366 0
 269 0008 7B68     	 ldr r3,[r7,#4]
 270 000a 1B68     	 ldr r3,[r3]
 271 000c 1A68     	 ldr r2,[r3]
 272 000e 7B68     	 ldr r3,[r7,#4]
 273 0010 1B7B     	 ldrb r3,[r3,#12]
 274 0012 1046     	 mov r0,r2
 275 0014 1946     	 mov r1,r3
 276 0016 FFF7FEFF 	 bl XMC_DMA_CH_Disable
 367:C:\Users\Depes Crystalline\Desktop\school\Active_Bike_Lighting_System\Radar_Core\Dave\Generated/DMA_CH\dma_ch.h **** }
 277              	 .loc 3 367 0
 278 001a 0837     	 adds r7,r7,#8
 279              	.LCFI30:
 280              	 .cfi_def_cfa_offset 8
 281 001c BD46     	 mov sp,r7
 282              	.LCFI31:
 283              	 .cfi_def_cfa_register 13
 284              	 
 285 001e 80BD     	 pop {r7,pc}
 286              	 .cfi_endproc
 287              	.LFE431:
 289              	 .section .text.DMA_CH_Reload,"ax",%progbits
 290              	 .align 2
 291              	 .thumb
 292              	 .thumb_func
 294              	DMA_CH_Reload:
 295              	.LFB442:
 368:C:\Users\Depes Crystalline\Desktop\school\Active_Bike_Lighting_System\Radar_Core\Dave\Generated/DMA_CH\dma_ch.h **** 
 369:C:\Users\Depes Crystalline\Desktop\school\Active_Bike_Lighting_System\Radar_Core\Dave\Generated/DMA_CH\dma_ch.h **** /**
 370:C:\Users\Depes Crystalline\Desktop\school\Active_Bike_Lighting_System\Radar_Core\Dave\Generated/DMA_CH\dma_ch.h ****  * @brief Check if a DMA channel is enabled
 371:C:\Users\Depes Crystalline\Desktop\school\Active_Bike_Lighting_System\Radar_Core\Dave\Generated/DMA_CH\dma_ch.h ****  * @param obj A pointer to DMA_CH_t, pointing to the DMA_CH handle configuration
 372:C:\Users\Depes Crystalline\Desktop\school\Active_Bike_Lighting_System\Radar_Core\Dave\Generated/DMA_CH\dma_ch.h ****  * @return bool "true" if enabled, "false" otherwise
 373:C:\Users\Depes Crystalline\Desktop\school\Active_Bike_Lighting_System\Radar_Core\Dave\Generated/DMA_CH\dma_ch.h ****  *
 374:C:\Users\Depes Crystalline\Desktop\school\Active_Bike_Lighting_System\Radar_Core\Dave\Generated/DMA_CH\dma_ch.h ****  * \par<b>Description: </b><br>
 375:C:\Users\Depes Crystalline\Desktop\school\Active_Bike_Lighting_System\Radar_Core\Dave\Generated/DMA_CH\dma_ch.h ****  * The function checks if the given DMA channel is enabled.
 376:C:\Users\Depes Crystalline\Desktop\school\Active_Bike_Lighting_System\Radar_Core\Dave\Generated/DMA_CH\dma_ch.h ****  *
 377:C:\Users\Depes Crystalline\Desktop\school\Active_Bike_Lighting_System\Radar_Core\Dave\Generated/DMA_CH\dma_ch.h ****  * Example Usage:
 378:C:\Users\Depes Crystalline\Desktop\school\Active_Bike_Lighting_System\Radar_Core\Dave\Generated/DMA_CH\dma_ch.h ****  *
 379:C:\Users\Depes Crystalline\Desktop\school\Active_Bike_Lighting_System\Radar_Core\Dave\Generated/DMA_CH\dma_ch.h ****  * @code
 380:C:\Users\Depes Crystalline\Desktop\school\Active_Bike_Lighting_System\Radar_Core\Dave\Generated/DMA_CH\dma_ch.h ****  * #include <XMC4500.h>
 381:C:\Users\Depes Crystalline\Desktop\school\Active_Bike_Lighting_System\Radar_Core\Dave\Generated/DMA_CH\dma_ch.h ****  * #include <DAVE.h>
 382:C:\Users\Depes Crystalline\Desktop\school\Active_Bike_Lighting_System\Radar_Core\Dave\Generated/DMA_CH\dma_ch.h ****  *
 383:C:\Users\Depes Crystalline\Desktop\school\Active_Bike_Lighting_System\Radar_Core\Dave\Generated/DMA_CH\dma_ch.h ****  * int main(void)
 384:C:\Users\Depes Crystalline\Desktop\school\Active_Bike_Lighting_System\Radar_Core\Dave\Generated/DMA_CH\dma_ch.h ****  * {
 385:C:\Users\Depes Crystalline\Desktop\school\Active_Bike_Lighting_System\Radar_Core\Dave\Generated/DMA_CH\dma_ch.h ****  *   DAVE_STATUS_t status;
 386:C:\Users\Depes Crystalline\Desktop\school\Active_Bike_Lighting_System\Radar_Core\Dave\Generated/DMA_CH\dma_ch.h ****  *
 387:C:\Users\Depes Crystalline\Desktop\school\Active_Bike_Lighting_System\Radar_Core\Dave\Generated/DMA_CH\dma_ch.h ****  *   status = DAVE_Init();
 388:C:\Users\Depes Crystalline\Desktop\school\Active_Bike_Lighting_System\Radar_Core\Dave\Generated/DMA_CH\dma_ch.h ****  *
 389:C:\Users\Depes Crystalline\Desktop\school\Active_Bike_Lighting_System\Radar_Core\Dave\Generated/DMA_CH\dma_ch.h ****  *   if (status == DAVE_STATUS_SUCCESS)
 390:C:\Users\Depes Crystalline\Desktop\school\Active_Bike_Lighting_System\Radar_Core\Dave\Generated/DMA_CH\dma_ch.h ****  *   {
 391:C:\Users\Depes Crystalline\Desktop\school\Active_Bike_Lighting_System\Radar_Core\Dave\Generated/DMA_CH\dma_ch.h ****  *     if (DMA_CH_IsEnabled(&DMA_CH_0) == false)
 392:C:\Users\Depes Crystalline\Desktop\school\Active_Bike_Lighting_System\Radar_Core\Dave\Generated/DMA_CH\dma_ch.h ****  *     {
 393:C:\Users\Depes Crystalline\Desktop\school\Active_Bike_Lighting_System\Radar_Core\Dave\Generated/DMA_CH\dma_ch.h ****  *       DMA_CH_Enable(&DMA_CH_0);
 394:C:\Users\Depes Crystalline\Desktop\school\Active_Bike_Lighting_System\Radar_Core\Dave\Generated/DMA_CH\dma_ch.h ****  *     }
 395:C:\Users\Depes Crystalline\Desktop\school\Active_Bike_Lighting_System\Radar_Core\Dave\Generated/DMA_CH\dma_ch.h ****  *   }
 396:C:\Users\Depes Crystalline\Desktop\school\Active_Bike_Lighting_System\Radar_Core\Dave\Generated/DMA_CH\dma_ch.h ****  *   else
 397:C:\Users\Depes Crystalline\Desktop\school\Active_Bike_Lighting_System\Radar_Core\Dave\Generated/DMA_CH\dma_ch.h ****  *   {
 398:C:\Users\Depes Crystalline\Desktop\school\Active_Bike_Lighting_System\Radar_Core\Dave\Generated/DMA_CH\dma_ch.h ****  *     // Something went wrong.
 399:C:\Users\Depes Crystalline\Desktop\school\Active_Bike_Lighting_System\Radar_Core\Dave\Generated/DMA_CH\dma_ch.h ****  *     while (1U);
 400:C:\Users\Depes Crystalline\Desktop\school\Active_Bike_Lighting_System\Radar_Core\Dave\Generated/DMA_CH\dma_ch.h ****  *   }
 401:C:\Users\Depes Crystalline\Desktop\school\Active_Bike_Lighting_System\Radar_Core\Dave\Generated/DMA_CH\dma_ch.h ****  *
 402:C:\Users\Depes Crystalline\Desktop\school\Active_Bike_Lighting_System\Radar_Core\Dave\Generated/DMA_CH\dma_ch.h ****  *   // More code here.
 403:C:\Users\Depes Crystalline\Desktop\school\Active_Bike_Lighting_System\Radar_Core\Dave\Generated/DMA_CH\dma_ch.h ****  *   while (1U);
 404:C:\Users\Depes Crystalline\Desktop\school\Active_Bike_Lighting_System\Radar_Core\Dave\Generated/DMA_CH\dma_ch.h ****  *
 405:C:\Users\Depes Crystalline\Desktop\school\Active_Bike_Lighting_System\Radar_Core\Dave\Generated/DMA_CH\dma_ch.h ****  *   return 1;
 406:C:\Users\Depes Crystalline\Desktop\school\Active_Bike_Lighting_System\Radar_Core\Dave\Generated/DMA_CH\dma_ch.h ****  * }
 407:C:\Users\Depes Crystalline\Desktop\school\Active_Bike_Lighting_System\Radar_Core\Dave\Generated/DMA_CH\dma_ch.h ****  * @endcode<BR> </p>
 408:C:\Users\Depes Crystalline\Desktop\school\Active_Bike_Lighting_System\Radar_Core\Dave\Generated/DMA_CH\dma_ch.h ****  */
 409:C:\Users\Depes Crystalline\Desktop\school\Active_Bike_Lighting_System\Radar_Core\Dave\Generated/DMA_CH\dma_ch.h **** __STATIC_INLINE bool DMA_CH_IsEnabled(DMA_CH_t *const obj)
 410:C:\Users\Depes Crystalline\Desktop\school\Active_Bike_Lighting_System\Radar_Core\Dave\Generated/DMA_CH\dma_ch.h **** {
 411:C:\Users\Depes Crystalline\Desktop\school\Active_Bike_Lighting_System\Radar_Core\Dave\Generated/DMA_CH\dma_ch.h ****   XMC_ASSERT("DMA_CH_IsEnabled: NULL DMA_CH_t object", (obj != NULL));
 412:C:\Users\Depes Crystalline\Desktop\school\Active_Bike_Lighting_System\Radar_Core\Dave\Generated/DMA_CH\dma_ch.h **** 
 413:C:\Users\Depes Crystalline\Desktop\school\Active_Bike_Lighting_System\Radar_Core\Dave\Generated/DMA_CH\dma_ch.h ****   return XMC_DMA_CH_IsEnabled(obj->dma_global->dma, obj->ch_num);
 414:C:\Users\Depes Crystalline\Desktop\school\Active_Bike_Lighting_System\Radar_Core\Dave\Generated/DMA_CH\dma_ch.h **** }
 415:C:\Users\Depes Crystalline\Desktop\school\Active_Bike_Lighting_System\Radar_Core\Dave\Generated/DMA_CH\dma_ch.h **** 
 416:C:\Users\Depes Crystalline\Desktop\school\Active_Bike_Lighting_System\Radar_Core\Dave\Generated/DMA_CH\dma_ch.h **** /**
 417:C:\Users\Depes Crystalline\Desktop\school\Active_Bike_Lighting_System\Radar_Core\Dave\Generated/DMA_CH\dma_ch.h ****  * @brief Suspend DMA channel
 418:C:\Users\Depes Crystalline\Desktop\school\Active_Bike_Lighting_System\Radar_Core\Dave\Generated/DMA_CH\dma_ch.h ****  * @param obj A pointer to DMA_CH_t, pointing to the DMA_CH handle configuration
 419:C:\Users\Depes Crystalline\Desktop\school\Active_Bike_Lighting_System\Radar_Core\Dave\Generated/DMA_CH\dma_ch.h ****  * @return None
 420:C:\Users\Depes Crystalline\Desktop\school\Active_Bike_Lighting_System\Radar_Core\Dave\Generated/DMA_CH\dma_ch.h ****  *
 421:C:\Users\Depes Crystalline\Desktop\school\Active_Bike_Lighting_System\Radar_Core\Dave\Generated/DMA_CH\dma_ch.h ****  * \par<b>Description: </b><br>
 422:C:\Users\Depes Crystalline\Desktop\school\Active_Bike_Lighting_System\Radar_Core\Dave\Generated/DMA_CH\dma_ch.h ****  * The function suspends the DMA channel
 423:C:\Users\Depes Crystalline\Desktop\school\Active_Bike_Lighting_System\Radar_Core\Dave\Generated/DMA_CH\dma_ch.h ****  *
 424:C:\Users\Depes Crystalline\Desktop\school\Active_Bike_Lighting_System\Radar_Core\Dave\Generated/DMA_CH\dma_ch.h ****  * Example Usage:
 425:C:\Users\Depes Crystalline\Desktop\school\Active_Bike_Lighting_System\Radar_Core\Dave\Generated/DMA_CH\dma_ch.h ****  *
 426:C:\Users\Depes Crystalline\Desktop\school\Active_Bike_Lighting_System\Radar_Core\Dave\Generated/DMA_CH\dma_ch.h ****  * @code
 427:C:\Users\Depes Crystalline\Desktop\school\Active_Bike_Lighting_System\Radar_Core\Dave\Generated/DMA_CH\dma_ch.h ****  * #include <DAVE.h>
 428:C:\Users\Depes Crystalline\Desktop\school\Active_Bike_Lighting_System\Radar_Core\Dave\Generated/DMA_CH\dma_ch.h ****  *
 429:C:\Users\Depes Crystalline\Desktop\school\Active_Bike_Lighting_System\Radar_Core\Dave\Generated/DMA_CH\dma_ch.h ****  * uint32_t tx_buf[4096];
 430:C:\Users\Depes Crystalline\Desktop\school\Active_Bike_Lighting_System\Radar_Core\Dave\Generated/DMA_CH\dma_ch.h ****  * uint32_t rx_buf[4096];
 431:C:\Users\Depes Crystalline\Desktop\school\Active_Bike_Lighting_System\Radar_Core\Dave\Generated/DMA_CH\dma_ch.h ****  *
 432:C:\Users\Depes Crystalline\Desktop\school\Active_Bike_Lighting_System\Radar_Core\Dave\Generated/DMA_CH\dma_ch.h ****  * volatile uint8_t xfer_cmplt_cb = 0;
 433:C:\Users\Depes Crystalline\Desktop\school\Active_Bike_Lighting_System\Radar_Core\Dave\Generated/DMA_CH\dma_ch.h ****  * volatile uint8_t dma_error_cb = 0;
 434:C:\Users\Depes Crystalline\Desktop\school\Active_Bike_Lighting_System\Radar_Core\Dave\Generated/DMA_CH\dma_ch.h ****  * volatile uint8_t xfer_block_cmplt = 0;
 435:C:\Users\Depes Crystalline\Desktop\school\Active_Bike_Lighting_System\Radar_Core\Dave\Generated/DMA_CH\dma_ch.h ****  *
 436:C:\Users\Depes Crystalline\Desktop\school\Active_Bike_Lighting_System\Radar_Core\Dave\Generated/DMA_CH\dma_ch.h ****  * void dma_ch_event_handler (XMC_DMA_CH_EVENT_t e)
 437:C:\Users\Depes Crystalline\Desktop\school\Active_Bike_Lighting_System\Radar_Core\Dave\Generated/DMA_CH\dma_ch.h ****  * {
 438:C:\Users\Depes Crystalline\Desktop\school\Active_Bike_Lighting_System\Radar_Core\Dave\Generated/DMA_CH\dma_ch.h ****  *   uint32_t event = 0;
 439:C:\Users\Depes Crystalline\Desktop\school\Active_Bike_Lighting_System\Radar_Core\Dave\Generated/DMA_CH\dma_ch.h ****  *   DMA_CH_t *dma_ch;
 440:C:\Users\Depes Crystalline\Desktop\school\Active_Bike_Lighting_System\Radar_Core\Dave\Generated/DMA_CH\dma_ch.h ****  *
 441:C:\Users\Depes Crystalline\Desktop\school\Active_Bike_Lighting_System\Radar_Core\Dave\Generated/DMA_CH\dma_ch.h ****  *   dma_ch = &DMA_CH_0;
 442:C:\Users\Depes Crystalline\Desktop\school\Active_Bike_Lighting_System\Radar_Core\Dave\Generated/DMA_CH\dma_ch.h ****  *
 443:C:\Users\Depes Crystalline\Desktop\school\Active_Bike_Lighting_System\Radar_Core\Dave\Generated/DMA_CH\dma_ch.h ****  *   // Check and update the volatile flags
 444:C:\Users\Depes Crystalline\Desktop\school\Active_Bike_Lighting_System\Radar_Core\Dave\Generated/DMA_CH\dma_ch.h ****  *   event = XMC_DMA_CH_GetEventStatus(dma_ch->dma_global->dma, dma_ch->ch_num);
 445:C:\Users\Depes Crystalline\Desktop\school\Active_Bike_Lighting_System\Radar_Core\Dave\Generated/DMA_CH\dma_ch.h ****  *   if ((event & XMC_DMA_CH_EVENT_ERROR) != 0)
 446:C:\Users\Depes Crystalline\Desktop\school\Active_Bike_Lighting_System\Radar_Core\Dave\Generated/DMA_CH\dma_ch.h ****  *   {
 447:C:\Users\Depes Crystalline\Desktop\school\Active_Bike_Lighting_System\Radar_Core\Dave\Generated/DMA_CH\dma_ch.h ****  *     dma_error_cb = 1;
 448:C:\Users\Depes Crystalline\Desktop\school\Active_Bike_Lighting_System\Radar_Core\Dave\Generated/DMA_CH\dma_ch.h ****  *   }
 449:C:\Users\Depes Crystalline\Desktop\school\Active_Bike_Lighting_System\Radar_Core\Dave\Generated/DMA_CH\dma_ch.h ****  *   else if((event & XMC_DMA_CH_EVENT_TRANSFER_COMPLETE) != 0)
 450:C:\Users\Depes Crystalline\Desktop\school\Active_Bike_Lighting_System\Radar_Core\Dave\Generated/DMA_CH\dma_ch.h ****  *   {
 451:C:\Users\Depes Crystalline\Desktop\school\Active_Bike_Lighting_System\Radar_Core\Dave\Generated/DMA_CH\dma_ch.h ****  *     xfer_cmplt_cb = 1;
 452:C:\Users\Depes Crystalline\Desktop\school\Active_Bike_Lighting_System\Radar_Core\Dave\Generated/DMA_CH\dma_ch.h ****  *   }
 453:C:\Users\Depes Crystalline\Desktop\school\Active_Bike_Lighting_System\Radar_Core\Dave\Generated/DMA_CH\dma_ch.h ****  *   else if ((event & XMC_DMA_CH_EVENT_BLOCK_TRANSFER_COMPLETE) != 0)
 454:C:\Users\Depes Crystalline\Desktop\school\Active_Bike_Lighting_System\Radar_Core\Dave\Generated/DMA_CH\dma_ch.h ****  *   {
 455:C:\Users\Depes Crystalline\Desktop\school\Active_Bike_Lighting_System\Radar_Core\Dave\Generated/DMA_CH\dma_ch.h ****  *     xfer_block_cmplt = 1;
 456:C:\Users\Depes Crystalline\Desktop\school\Active_Bike_Lighting_System\Radar_Core\Dave\Generated/DMA_CH\dma_ch.h ****  *   }
 457:C:\Users\Depes Crystalline\Desktop\school\Active_Bike_Lighting_System\Radar_Core\Dave\Generated/DMA_CH\dma_ch.h ****  * }
 458:C:\Users\Depes Crystalline\Desktop\school\Active_Bike_Lighting_System\Radar_Core\Dave\Generated/DMA_CH\dma_ch.h ****  *
 459:C:\Users\Depes Crystalline\Desktop\school\Active_Bike_Lighting_System\Radar_Core\Dave\Generated/DMA_CH\dma_ch.h ****  * int main (void)
 460:C:\Users\Depes Crystalline\Desktop\school\Active_Bike_Lighting_System\Radar_Core\Dave\Generated/DMA_CH\dma_ch.h ****  * {
 461:C:\Users\Depes Crystalline\Desktop\school\Active_Bike_Lighting_System\Radar_Core\Dave\Generated/DMA_CH\dma_ch.h ****  *   uint32_t dma_ch_susp_res_xfer_status = 0;
 462:C:\Users\Depes Crystalline\Desktop\school\Active_Bike_Lighting_System\Radar_Core\Dave\Generated/DMA_CH\dma_ch.h ****  *
 463:C:\Users\Depes Crystalline\Desktop\school\Active_Bike_Lighting_System\Radar_Core\Dave\Generated/DMA_CH\dma_ch.h ****  *   xfer_cmplt_cb = 0;
 464:C:\Users\Depes Crystalline\Desktop\school\Active_Bike_Lighting_System\Radar_Core\Dave\Generated/DMA_CH\dma_ch.h ****  *   dma_error_cb = 0;
 465:C:\Users\Depes Crystalline\Desktop\school\Active_Bike_Lighting_System\Radar_Core\Dave\Generated/DMA_CH\dma_ch.h ****  *
 466:C:\Users\Depes Crystalline\Desktop\school\Active_Bike_Lighting_System\Radar_Core\Dave\Generated/DMA_CH\dma_ch.h ****  *   //
 467:C:\Users\Depes Crystalline\Desktop\school\Active_Bike_Lighting_System\Radar_Core\Dave\Generated/DMA_CH\dma_ch.h ****  *   // Do 16k- 4bytes single transfer. Enable channel and suspend before it hits
 468:C:\Users\Depes Crystalline\Desktop\school\Active_Bike_Lighting_System\Radar_Core\Dave\Generated/DMA_CH\dma_ch.h ****  *   // the xfer complete callback.
 469:C:\Users\Depes Crystalline\Desktop\school\Active_Bike_Lighting_System\Radar_Core\Dave\Generated/DMA_CH\dma_ch.h ****  *   //
 470:C:\Users\Depes Crystalline\Desktop\school\Active_Bike_Lighting_System\Radar_Core\Dave\Generated/DMA_CH\dma_ch.h ****  *   // Later, check if suspended and then resume the transfer
 471:C:\Users\Depes Crystalline\Desktop\school\Active_Bike_Lighting_System\Radar_Core\Dave\Generated/DMA_CH\dma_ch.h ****  *   //
 472:C:\Users\Depes Crystalline\Desktop\school\Active_Bike_Lighting_System\Radar_Core\Dave\Generated/DMA_CH\dma_ch.h ****  *
 473:C:\Users\Depes Crystalline\Desktop\school\Active_Bike_Lighting_System\Radar_Core\Dave\Generated/DMA_CH\dma_ch.h ****  *   // The user must then configure block size as 4095 and the
 474:C:\Users\Depes Crystalline\Desktop\school\Active_Bike_Lighting_System\Radar_Core\Dave\Generated/DMA_CH\dma_ch.h ****  *   // transfer width as XMC_DMA_CH_TRANSFER_WIDTH_32 in the UI.
 475:C:\Users\Depes Crystalline\Desktop\school\Active_Bike_Lighting_System\Radar_Core\Dave\Generated/DMA_CH\dma_ch.h ****  *
 476:C:\Users\Depes Crystalline\Desktop\school\Active_Bike_Lighting_System\Radar_Core\Dave\Generated/DMA_CH\dma_ch.h ****  *   // Enable the channel
 477:C:\Users\Depes Crystalline\Desktop\school\Active_Bike_Lighting_System\Radar_Core\Dave\Generated/DMA_CH\dma_ch.h ****  *   if (!DMA_CH_IsEnabled(&DMA_CH_0))
 478:C:\Users\Depes Crystalline\Desktop\school\Active_Bike_Lighting_System\Radar_Core\Dave\Generated/DMA_CH\dma_ch.h ****  *   {
 479:C:\Users\Depes Crystalline\Desktop\school\Active_Bike_Lighting_System\Radar_Core\Dave\Generated/DMA_CH\dma_ch.h ****  *     DMA_CH_Enable(&DMA_CH_0);
 480:C:\Users\Depes Crystalline\Desktop\school\Active_Bike_Lighting_System\Radar_Core\Dave\Generated/DMA_CH\dma_ch.h ****  *   }
 481:C:\Users\Depes Crystalline\Desktop\school\Active_Bike_Lighting_System\Radar_Core\Dave\Generated/DMA_CH\dma_ch.h ****  *
 482:C:\Users\Depes Crystalline\Desktop\school\Active_Bike_Lighting_System\Radar_Core\Dave\Generated/DMA_CH\dma_ch.h ****  *   if ((xfer_cmplt_cb == 0) && (dma_error_cb == 0))
 483:C:\Users\Depes Crystalline\Desktop\school\Active_Bike_Lighting_System\Radar_Core\Dave\Generated/DMA_CH\dma_ch.h ****  *   {
 484:C:\Users\Depes Crystalline\Desktop\school\Active_Bike_Lighting_System\Radar_Core\Dave\Generated/DMA_CH\dma_ch.h ****  *     // Suspend the channel
 485:C:\Users\Depes Crystalline\Desktop\school\Active_Bike_Lighting_System\Radar_Core\Dave\Generated/DMA_CH\dma_ch.h ****  *     DMA_CH_Suspend(&DMA_CH_0);
 486:C:\Users\Depes Crystalline\Desktop\school\Active_Bike_Lighting_System\Radar_Core\Dave\Generated/DMA_CH\dma_ch.h ****  *
 487:C:\Users\Depes Crystalline\Desktop\school\Active_Bike_Lighting_System\Radar_Core\Dave\Generated/DMA_CH\dma_ch.h ****  *     // Is channel suspended?
 488:C:\Users\Depes Crystalline\Desktop\school\Active_Bike_Lighting_System\Radar_Core\Dave\Generated/DMA_CH\dma_ch.h ****  *     if (!DMA_CH_IsSuspended(&DMA_CH_0))
 489:C:\Users\Depes Crystalline\Desktop\school\Active_Bike_Lighting_System\Radar_Core\Dave\Generated/DMA_CH\dma_ch.h ****  *     {
 490:C:\Users\Depes Crystalline\Desktop\school\Active_Bike_Lighting_System\Radar_Core\Dave\Generated/DMA_CH\dma_ch.h ****  *       dma_ch_susp_res_xfer_status++;
 491:C:\Users\Depes Crystalline\Desktop\school\Active_Bike_Lighting_System\Radar_Core\Dave\Generated/DMA_CH\dma_ch.h ****  *     }
 492:C:\Users\Depes Crystalline\Desktop\school\Active_Bike_Lighting_System\Radar_Core\Dave\Generated/DMA_CH\dma_ch.h ****  *     // Resume the channel
 493:C:\Users\Depes Crystalline\Desktop\school\Active_Bike_Lighting_System\Radar_Core\Dave\Generated/DMA_CH\dma_ch.h ****  *     DMA_CH_Resume(&DMA_CH_0);
 494:C:\Users\Depes Crystalline\Desktop\school\Active_Bike_Lighting_System\Radar_Core\Dave\Generated/DMA_CH\dma_ch.h ****  *   }
 495:C:\Users\Depes Crystalline\Desktop\school\Active_Bike_Lighting_System\Radar_Core\Dave\Generated/DMA_CH\dma_ch.h ****  *   else
 496:C:\Users\Depes Crystalline\Desktop\school\Active_Bike_Lighting_System\Radar_Core\Dave\Generated/DMA_CH\dma_ch.h ****  *   {
 497:C:\Users\Depes Crystalline\Desktop\school\Active_Bike_Lighting_System\Radar_Core\Dave\Generated/DMA_CH\dma_ch.h ****  *     dma_ch_susp_res_xfer_status++;
 498:C:\Users\Depes Crystalline\Desktop\school\Active_Bike_Lighting_System\Radar_Core\Dave\Generated/DMA_CH\dma_ch.h ****  *   }
 499:C:\Users\Depes Crystalline\Desktop\school\Active_Bike_Lighting_System\Radar_Core\Dave\Generated/DMA_CH\dma_ch.h ****  *
 500:C:\Users\Depes Crystalline\Desktop\school\Active_Bike_Lighting_System\Radar_Core\Dave\Generated/DMA_CH\dma_ch.h ****  *   while ((xfer_cmplt_cb == 0) && (dma_error_cb == 0));
 501:C:\Users\Depes Crystalline\Desktop\school\Active_Bike_Lighting_System\Radar_Core\Dave\Generated/DMA_CH\dma_ch.h ****  *
 502:C:\Users\Depes Crystalline\Desktop\school\Active_Bike_Lighting_System\Radar_Core\Dave\Generated/DMA_CH\dma_ch.h ****  *   if (xfer_cmplt_cb)
 503:C:\Users\Depes Crystalline\Desktop\school\Active_Bike_Lighting_System\Radar_Core\Dave\Generated/DMA_CH\dma_ch.h ****  *   {
 504:C:\Users\Depes Crystalline\Desktop\school\Active_Bike_Lighting_System\Radar_Core\Dave\Generated/DMA_CH\dma_ch.h ****  *     xfer_cmplt_cb = 0;
 505:C:\Users\Depes Crystalline\Desktop\school\Active_Bike_Lighting_System\Radar_Core\Dave\Generated/DMA_CH\dma_ch.h ****  *     // Compare the contents of source and destination memory
 506:C:\Users\Depes Crystalline\Desktop\school\Active_Bike_Lighting_System\Radar_Core\Dave\Generated/DMA_CH\dma_ch.h ****  *     if (memcmp(tx_buf, rx_buf, DMA_CH_0.config->ch_config.block_size) != 0)
 507:C:\Users\Depes Crystalline\Desktop\school\Active_Bike_Lighting_System\Radar_Core\Dave\Generated/DMA_CH\dma_ch.h ****  *     {
 508:C:\Users\Depes Crystalline\Desktop\school\Active_Bike_Lighting_System\Radar_Core\Dave\Generated/DMA_CH\dma_ch.h ****  *       dma_ch_susp_res_xfer_status++;
 509:C:\Users\Depes Crystalline\Desktop\school\Active_Bike_Lighting_System\Radar_Core\Dave\Generated/DMA_CH\dma_ch.h ****  *     }
 510:C:\Users\Depes Crystalline\Desktop\school\Active_Bike_Lighting_System\Radar_Core\Dave\Generated/DMA_CH\dma_ch.h ****  *   }
 511:C:\Users\Depes Crystalline\Desktop\school\Active_Bike_Lighting_System\Radar_Core\Dave\Generated/DMA_CH\dma_ch.h ****  *   else
 512:C:\Users\Depes Crystalline\Desktop\school\Active_Bike_Lighting_System\Radar_Core\Dave\Generated/DMA_CH\dma_ch.h ****  *   {
 513:C:\Users\Depes Crystalline\Desktop\school\Active_Bike_Lighting_System\Radar_Core\Dave\Generated/DMA_CH\dma_ch.h ****  *     dma_ch_susp_res_xfer_status++;
 514:C:\Users\Depes Crystalline\Desktop\school\Active_Bike_Lighting_System\Radar_Core\Dave\Generated/DMA_CH\dma_ch.h ****  *     dma_error_cb = 0;
 515:C:\Users\Depes Crystalline\Desktop\school\Active_Bike_Lighting_System\Radar_Core\Dave\Generated/DMA_CH\dma_ch.h ****  *   }
 516:C:\Users\Depes Crystalline\Desktop\school\Active_Bike_Lighting_System\Radar_Core\Dave\Generated/DMA_CH\dma_ch.h ****  *
 517:C:\Users\Depes Crystalline\Desktop\school\Active_Bike_Lighting_System\Radar_Core\Dave\Generated/DMA_CH\dma_ch.h ****  *   if (!dma_ch_susp_res_xfer_status)
 518:C:\Users\Depes Crystalline\Desktop\school\Active_Bike_Lighting_System\Radar_Core\Dave\Generated/DMA_CH\dma_ch.h ****  *   {
 519:C:\Users\Depes Crystalline\Desktop\school\Active_Bike_Lighting_System\Radar_Core\Dave\Generated/DMA_CH\dma_ch.h ****  *     // Success!
 520:C:\Users\Depes Crystalline\Desktop\school\Active_Bike_Lighting_System\Radar_Core\Dave\Generated/DMA_CH\dma_ch.h ****  *   }
 521:C:\Users\Depes Crystalline\Desktop\school\Active_Bike_Lighting_System\Radar_Core\Dave\Generated/DMA_CH\dma_ch.h ****  *   else
 522:C:\Users\Depes Crystalline\Desktop\school\Active_Bike_Lighting_System\Radar_Core\Dave\Generated/DMA_CH\dma_ch.h ****  *   {
 523:C:\Users\Depes Crystalline\Desktop\school\Active_Bike_Lighting_System\Radar_Core\Dave\Generated/DMA_CH\dma_ch.h ****  *     // Failed, something went wrong.
 524:C:\Users\Depes Crystalline\Desktop\school\Active_Bike_Lighting_System\Radar_Core\Dave\Generated/DMA_CH\dma_ch.h ****  *   }
 525:C:\Users\Depes Crystalline\Desktop\school\Active_Bike_Lighting_System\Radar_Core\Dave\Generated/DMA_CH\dma_ch.h ****  * }
 526:C:\Users\Depes Crystalline\Desktop\school\Active_Bike_Lighting_System\Radar_Core\Dave\Generated/DMA_CH\dma_ch.h ****  * @endcode<BR> </p>
 527:C:\Users\Depes Crystalline\Desktop\school\Active_Bike_Lighting_System\Radar_Core\Dave\Generated/DMA_CH\dma_ch.h ****  */
 528:C:\Users\Depes Crystalline\Desktop\school\Active_Bike_Lighting_System\Radar_Core\Dave\Generated/DMA_CH\dma_ch.h **** __STATIC_INLINE void DMA_CH_Suspend(DMA_CH_t *const obj)
 529:C:\Users\Depes Crystalline\Desktop\school\Active_Bike_Lighting_System\Radar_Core\Dave\Generated/DMA_CH\dma_ch.h **** {
 530:C:\Users\Depes Crystalline\Desktop\school\Active_Bike_Lighting_System\Radar_Core\Dave\Generated/DMA_CH\dma_ch.h ****   XMC_ASSERT("DMA_CH_Suspend: NULL DMA_CH_t object", (obj != NULL));
 531:C:\Users\Depes Crystalline\Desktop\school\Active_Bike_Lighting_System\Radar_Core\Dave\Generated/DMA_CH\dma_ch.h **** 
 532:C:\Users\Depes Crystalline\Desktop\school\Active_Bike_Lighting_System\Radar_Core\Dave\Generated/DMA_CH\dma_ch.h ****   XMC_DMA_CH_Suspend(obj->dma_global->dma, obj->ch_num);
 533:C:\Users\Depes Crystalline\Desktop\school\Active_Bike_Lighting_System\Radar_Core\Dave\Generated/DMA_CH\dma_ch.h **** }
 534:C:\Users\Depes Crystalline\Desktop\school\Active_Bike_Lighting_System\Radar_Core\Dave\Generated/DMA_CH\dma_ch.h **** 
 535:C:\Users\Depes Crystalline\Desktop\school\Active_Bike_Lighting_System\Radar_Core\Dave\Generated/DMA_CH\dma_ch.h **** /**
 536:C:\Users\Depes Crystalline\Desktop\school\Active_Bike_Lighting_System\Radar_Core\Dave\Generated/DMA_CH\dma_ch.h ****  * @brief Resume DMA channel
 537:C:\Users\Depes Crystalline\Desktop\school\Active_Bike_Lighting_System\Radar_Core\Dave\Generated/DMA_CH\dma_ch.h ****  * @param obj A pointer to DMA_CH_t, pointing to the DMA_CH handle configuration
 538:C:\Users\Depes Crystalline\Desktop\school\Active_Bike_Lighting_System\Radar_Core\Dave\Generated/DMA_CH\dma_ch.h ****  * @return None
 539:C:\Users\Depes Crystalline\Desktop\school\Active_Bike_Lighting_System\Radar_Core\Dave\Generated/DMA_CH\dma_ch.h ****  *
 540:C:\Users\Depes Crystalline\Desktop\school\Active_Bike_Lighting_System\Radar_Core\Dave\Generated/DMA_CH\dma_ch.h ****  * \par<b>Description: </b><br>
 541:C:\Users\Depes Crystalline\Desktop\school\Active_Bike_Lighting_System\Radar_Core\Dave\Generated/DMA_CH\dma_ch.h ****  * The function resumes the DMA channel
 542:C:\Users\Depes Crystalline\Desktop\school\Active_Bike_Lighting_System\Radar_Core\Dave\Generated/DMA_CH\dma_ch.h ****  *
 543:C:\Users\Depes Crystalline\Desktop\school\Active_Bike_Lighting_System\Radar_Core\Dave\Generated/DMA_CH\dma_ch.h ****  * Example Usage:
 544:C:\Users\Depes Crystalline\Desktop\school\Active_Bike_Lighting_System\Radar_Core\Dave\Generated/DMA_CH\dma_ch.h ****  *
 545:C:\Users\Depes Crystalline\Desktop\school\Active_Bike_Lighting_System\Radar_Core\Dave\Generated/DMA_CH\dma_ch.h ****  * @code
 546:C:\Users\Depes Crystalline\Desktop\school\Active_Bike_Lighting_System\Radar_Core\Dave\Generated/DMA_CH\dma_ch.h ****  * #include <DAVE.h>
 547:C:\Users\Depes Crystalline\Desktop\school\Active_Bike_Lighting_System\Radar_Core\Dave\Generated/DMA_CH\dma_ch.h ****  *
 548:C:\Users\Depes Crystalline\Desktop\school\Active_Bike_Lighting_System\Radar_Core\Dave\Generated/DMA_CH\dma_ch.h ****  * uint32_t tx_buf[4096];
 549:C:\Users\Depes Crystalline\Desktop\school\Active_Bike_Lighting_System\Radar_Core\Dave\Generated/DMA_CH\dma_ch.h ****  * uint32_t rx_buf[4096];
 550:C:\Users\Depes Crystalline\Desktop\school\Active_Bike_Lighting_System\Radar_Core\Dave\Generated/DMA_CH\dma_ch.h ****  *
 551:C:\Users\Depes Crystalline\Desktop\school\Active_Bike_Lighting_System\Radar_Core\Dave\Generated/DMA_CH\dma_ch.h ****  * volatile uint8_t xfer_cmplt_cb = 0;
 552:C:\Users\Depes Crystalline\Desktop\school\Active_Bike_Lighting_System\Radar_Core\Dave\Generated/DMA_CH\dma_ch.h ****  * volatile uint8_t dma_error_cb = 0;
 553:C:\Users\Depes Crystalline\Desktop\school\Active_Bike_Lighting_System\Radar_Core\Dave\Generated/DMA_CH\dma_ch.h ****  * volatile uint8_t xfer_block_cmplt = 0;
 554:C:\Users\Depes Crystalline\Desktop\school\Active_Bike_Lighting_System\Radar_Core\Dave\Generated/DMA_CH\dma_ch.h ****  *
 555:C:\Users\Depes Crystalline\Desktop\school\Active_Bike_Lighting_System\Radar_Core\Dave\Generated/DMA_CH\dma_ch.h ****  * void dma_ch_event_handler (XMC_DMA_CH_EVENT_t e)
 556:C:\Users\Depes Crystalline\Desktop\school\Active_Bike_Lighting_System\Radar_Core\Dave\Generated/DMA_CH\dma_ch.h ****  * {
 557:C:\Users\Depes Crystalline\Desktop\school\Active_Bike_Lighting_System\Radar_Core\Dave\Generated/DMA_CH\dma_ch.h ****  *   uint32_t event = 0;
 558:C:\Users\Depes Crystalline\Desktop\school\Active_Bike_Lighting_System\Radar_Core\Dave\Generated/DMA_CH\dma_ch.h ****  *   DMA_CH_t *dma_ch;
 559:C:\Users\Depes Crystalline\Desktop\school\Active_Bike_Lighting_System\Radar_Core\Dave\Generated/DMA_CH\dma_ch.h ****  *
 560:C:\Users\Depes Crystalline\Desktop\school\Active_Bike_Lighting_System\Radar_Core\Dave\Generated/DMA_CH\dma_ch.h ****  *   dma_ch = &DMA_CH_0;
 561:C:\Users\Depes Crystalline\Desktop\school\Active_Bike_Lighting_System\Radar_Core\Dave\Generated/DMA_CH\dma_ch.h ****  *
 562:C:\Users\Depes Crystalline\Desktop\school\Active_Bike_Lighting_System\Radar_Core\Dave\Generated/DMA_CH\dma_ch.h ****  *   // Check and update the volatile flags
 563:C:\Users\Depes Crystalline\Desktop\school\Active_Bike_Lighting_System\Radar_Core\Dave\Generated/DMA_CH\dma_ch.h ****  *   event = XMC_DMA_CH_GetEventStatus(dma_ch->dma_global->dma, dma_ch->ch_num);
 564:C:\Users\Depes Crystalline\Desktop\school\Active_Bike_Lighting_System\Radar_Core\Dave\Generated/DMA_CH\dma_ch.h ****  *   if ((event & XMC_DMA_CH_EVENT_ERROR) != 0)
 565:C:\Users\Depes Crystalline\Desktop\school\Active_Bike_Lighting_System\Radar_Core\Dave\Generated/DMA_CH\dma_ch.h ****  *   {
 566:C:\Users\Depes Crystalline\Desktop\school\Active_Bike_Lighting_System\Radar_Core\Dave\Generated/DMA_CH\dma_ch.h ****  *     dma_error_cb = 1;
 567:C:\Users\Depes Crystalline\Desktop\school\Active_Bike_Lighting_System\Radar_Core\Dave\Generated/DMA_CH\dma_ch.h ****  *   }
 568:C:\Users\Depes Crystalline\Desktop\school\Active_Bike_Lighting_System\Radar_Core\Dave\Generated/DMA_CH\dma_ch.h ****  *   else if((event & XMC_DMA_CH_EVENT_TRANSFER_COMPLETE) != 0)
 569:C:\Users\Depes Crystalline\Desktop\school\Active_Bike_Lighting_System\Radar_Core\Dave\Generated/DMA_CH\dma_ch.h ****  *   {
 570:C:\Users\Depes Crystalline\Desktop\school\Active_Bike_Lighting_System\Radar_Core\Dave\Generated/DMA_CH\dma_ch.h ****  *     xfer_cmplt_cb = 1;
 571:C:\Users\Depes Crystalline\Desktop\school\Active_Bike_Lighting_System\Radar_Core\Dave\Generated/DMA_CH\dma_ch.h ****  *   }
 572:C:\Users\Depes Crystalline\Desktop\school\Active_Bike_Lighting_System\Radar_Core\Dave\Generated/DMA_CH\dma_ch.h ****  *   else if ((event & XMC_DMA_CH_EVENT_BLOCK_TRANSFER_COMPLETE) != 0)
 573:C:\Users\Depes Crystalline\Desktop\school\Active_Bike_Lighting_System\Radar_Core\Dave\Generated/DMA_CH\dma_ch.h ****  *   {
 574:C:\Users\Depes Crystalline\Desktop\school\Active_Bike_Lighting_System\Radar_Core\Dave\Generated/DMA_CH\dma_ch.h ****  *     xfer_block_cmplt = 1;
 575:C:\Users\Depes Crystalline\Desktop\school\Active_Bike_Lighting_System\Radar_Core\Dave\Generated/DMA_CH\dma_ch.h ****  *   }
 576:C:\Users\Depes Crystalline\Desktop\school\Active_Bike_Lighting_System\Radar_Core\Dave\Generated/DMA_CH\dma_ch.h ****  * }
 577:C:\Users\Depes Crystalline\Desktop\school\Active_Bike_Lighting_System\Radar_Core\Dave\Generated/DMA_CH\dma_ch.h ****  *
 578:C:\Users\Depes Crystalline\Desktop\school\Active_Bike_Lighting_System\Radar_Core\Dave\Generated/DMA_CH\dma_ch.h ****  * int main (void)
 579:C:\Users\Depes Crystalline\Desktop\school\Active_Bike_Lighting_System\Radar_Core\Dave\Generated/DMA_CH\dma_ch.h ****  * {
 580:C:\Users\Depes Crystalline\Desktop\school\Active_Bike_Lighting_System\Radar_Core\Dave\Generated/DMA_CH\dma_ch.h ****  *   uint32_t dma_ch_susp_res_xfer_status = 0;
 581:C:\Users\Depes Crystalline\Desktop\school\Active_Bike_Lighting_System\Radar_Core\Dave\Generated/DMA_CH\dma_ch.h ****  *
 582:C:\Users\Depes Crystalline\Desktop\school\Active_Bike_Lighting_System\Radar_Core\Dave\Generated/DMA_CH\dma_ch.h ****  *   xfer_cmplt_cb = 0;
 583:C:\Users\Depes Crystalline\Desktop\school\Active_Bike_Lighting_System\Radar_Core\Dave\Generated/DMA_CH\dma_ch.h ****  *   dma_error_cb = 0;
 584:C:\Users\Depes Crystalline\Desktop\school\Active_Bike_Lighting_System\Radar_Core\Dave\Generated/DMA_CH\dma_ch.h ****  *
 585:C:\Users\Depes Crystalline\Desktop\school\Active_Bike_Lighting_System\Radar_Core\Dave\Generated/DMA_CH\dma_ch.h ****  *   //
 586:C:\Users\Depes Crystalline\Desktop\school\Active_Bike_Lighting_System\Radar_Core\Dave\Generated/DMA_CH\dma_ch.h ****  *   // Do 16k- 4bytes single transfer. Enable channel and suspend before it hits
 587:C:\Users\Depes Crystalline\Desktop\school\Active_Bike_Lighting_System\Radar_Core\Dave\Generated/DMA_CH\dma_ch.h ****  *   // the xfer complete callback.
 588:C:\Users\Depes Crystalline\Desktop\school\Active_Bike_Lighting_System\Radar_Core\Dave\Generated/DMA_CH\dma_ch.h ****  *   //
 589:C:\Users\Depes Crystalline\Desktop\school\Active_Bike_Lighting_System\Radar_Core\Dave\Generated/DMA_CH\dma_ch.h ****  *   // Later, check if suspended and then resume the transfer
 590:C:\Users\Depes Crystalline\Desktop\school\Active_Bike_Lighting_System\Radar_Core\Dave\Generated/DMA_CH\dma_ch.h ****  *   //
 591:C:\Users\Depes Crystalline\Desktop\school\Active_Bike_Lighting_System\Radar_Core\Dave\Generated/DMA_CH\dma_ch.h ****  *
 592:C:\Users\Depes Crystalline\Desktop\school\Active_Bike_Lighting_System\Radar_Core\Dave\Generated/DMA_CH\dma_ch.h ****  *   // The user must then configure block size as 4095 and the
 593:C:\Users\Depes Crystalline\Desktop\school\Active_Bike_Lighting_System\Radar_Core\Dave\Generated/DMA_CH\dma_ch.h ****  *   // transfer width as XMC_DMA_CH_TRANSFER_WIDTH_32 in the UI.
 594:C:\Users\Depes Crystalline\Desktop\school\Active_Bike_Lighting_System\Radar_Core\Dave\Generated/DMA_CH\dma_ch.h ****  *
 595:C:\Users\Depes Crystalline\Desktop\school\Active_Bike_Lighting_System\Radar_Core\Dave\Generated/DMA_CH\dma_ch.h ****  *   // Enable the channel
 596:C:\Users\Depes Crystalline\Desktop\school\Active_Bike_Lighting_System\Radar_Core\Dave\Generated/DMA_CH\dma_ch.h ****  *   if (!DMA_CH_IsEnabled(&DMA_CH_0))
 597:C:\Users\Depes Crystalline\Desktop\school\Active_Bike_Lighting_System\Radar_Core\Dave\Generated/DMA_CH\dma_ch.h ****  *   {
 598:C:\Users\Depes Crystalline\Desktop\school\Active_Bike_Lighting_System\Radar_Core\Dave\Generated/DMA_CH\dma_ch.h ****  *     DMA_CH_Enable(&DMA_CH_0);
 599:C:\Users\Depes Crystalline\Desktop\school\Active_Bike_Lighting_System\Radar_Core\Dave\Generated/DMA_CH\dma_ch.h ****  *   }
 600:C:\Users\Depes Crystalline\Desktop\school\Active_Bike_Lighting_System\Radar_Core\Dave\Generated/DMA_CH\dma_ch.h ****  *
 601:C:\Users\Depes Crystalline\Desktop\school\Active_Bike_Lighting_System\Radar_Core\Dave\Generated/DMA_CH\dma_ch.h ****  *   if ((xfer_cmplt_cb == 0) && (dma_error_cb == 0))
 602:C:\Users\Depes Crystalline\Desktop\school\Active_Bike_Lighting_System\Radar_Core\Dave\Generated/DMA_CH\dma_ch.h ****  *   {
 603:C:\Users\Depes Crystalline\Desktop\school\Active_Bike_Lighting_System\Radar_Core\Dave\Generated/DMA_CH\dma_ch.h ****  *     // Suspend the channel
 604:C:\Users\Depes Crystalline\Desktop\school\Active_Bike_Lighting_System\Radar_Core\Dave\Generated/DMA_CH\dma_ch.h ****  *     DMA_CH_Suspend(&DMA_CH_0);
 605:C:\Users\Depes Crystalline\Desktop\school\Active_Bike_Lighting_System\Radar_Core\Dave\Generated/DMA_CH\dma_ch.h ****  *
 606:C:\Users\Depes Crystalline\Desktop\school\Active_Bike_Lighting_System\Radar_Core\Dave\Generated/DMA_CH\dma_ch.h ****  *     // Is channel suspended?
 607:C:\Users\Depes Crystalline\Desktop\school\Active_Bike_Lighting_System\Radar_Core\Dave\Generated/DMA_CH\dma_ch.h ****  *     if (!DMA_CH_IsSuspended(&DMA_CH_0))
 608:C:\Users\Depes Crystalline\Desktop\school\Active_Bike_Lighting_System\Radar_Core\Dave\Generated/DMA_CH\dma_ch.h ****  *     {
 609:C:\Users\Depes Crystalline\Desktop\school\Active_Bike_Lighting_System\Radar_Core\Dave\Generated/DMA_CH\dma_ch.h ****  *       dma_ch_susp_res_xfer_status++;
 610:C:\Users\Depes Crystalline\Desktop\school\Active_Bike_Lighting_System\Radar_Core\Dave\Generated/DMA_CH\dma_ch.h ****  *     }
 611:C:\Users\Depes Crystalline\Desktop\school\Active_Bike_Lighting_System\Radar_Core\Dave\Generated/DMA_CH\dma_ch.h ****  *     // Resume the channel
 612:C:\Users\Depes Crystalline\Desktop\school\Active_Bike_Lighting_System\Radar_Core\Dave\Generated/DMA_CH\dma_ch.h ****  *     DMA_CH_Resume(&DMA_CH_0);
 613:C:\Users\Depes Crystalline\Desktop\school\Active_Bike_Lighting_System\Radar_Core\Dave\Generated/DMA_CH\dma_ch.h ****  *   }
 614:C:\Users\Depes Crystalline\Desktop\school\Active_Bike_Lighting_System\Radar_Core\Dave\Generated/DMA_CH\dma_ch.h ****  *   else
 615:C:\Users\Depes Crystalline\Desktop\school\Active_Bike_Lighting_System\Radar_Core\Dave\Generated/DMA_CH\dma_ch.h ****  *   {
 616:C:\Users\Depes Crystalline\Desktop\school\Active_Bike_Lighting_System\Radar_Core\Dave\Generated/DMA_CH\dma_ch.h ****  *     dma_ch_susp_res_xfer_status++;
 617:C:\Users\Depes Crystalline\Desktop\school\Active_Bike_Lighting_System\Radar_Core\Dave\Generated/DMA_CH\dma_ch.h ****  *   }
 618:C:\Users\Depes Crystalline\Desktop\school\Active_Bike_Lighting_System\Radar_Core\Dave\Generated/DMA_CH\dma_ch.h ****  *
 619:C:\Users\Depes Crystalline\Desktop\school\Active_Bike_Lighting_System\Radar_Core\Dave\Generated/DMA_CH\dma_ch.h ****  *   while ((xfer_cmplt_cb == 0) && (dma_error_cb == 0));
 620:C:\Users\Depes Crystalline\Desktop\school\Active_Bike_Lighting_System\Radar_Core\Dave\Generated/DMA_CH\dma_ch.h ****  *
 621:C:\Users\Depes Crystalline\Desktop\school\Active_Bike_Lighting_System\Radar_Core\Dave\Generated/DMA_CH\dma_ch.h ****  *   if (xfer_cmplt_cb)
 622:C:\Users\Depes Crystalline\Desktop\school\Active_Bike_Lighting_System\Radar_Core\Dave\Generated/DMA_CH\dma_ch.h ****  *   {
 623:C:\Users\Depes Crystalline\Desktop\school\Active_Bike_Lighting_System\Radar_Core\Dave\Generated/DMA_CH\dma_ch.h ****  *     xfer_cmplt_cb = 0;
 624:C:\Users\Depes Crystalline\Desktop\school\Active_Bike_Lighting_System\Radar_Core\Dave\Generated/DMA_CH\dma_ch.h ****  *     // Compare the contents of source and destination memory
 625:C:\Users\Depes Crystalline\Desktop\school\Active_Bike_Lighting_System\Radar_Core\Dave\Generated/DMA_CH\dma_ch.h ****  *     if (memcmp(tx_buf, rx_buf, DMA_CH_0.config->ch_config.block_size) != 0)
 626:C:\Users\Depes Crystalline\Desktop\school\Active_Bike_Lighting_System\Radar_Core\Dave\Generated/DMA_CH\dma_ch.h ****  *     {
 627:C:\Users\Depes Crystalline\Desktop\school\Active_Bike_Lighting_System\Radar_Core\Dave\Generated/DMA_CH\dma_ch.h ****  *       dma_ch_susp_res_xfer_status++;
 628:C:\Users\Depes Crystalline\Desktop\school\Active_Bike_Lighting_System\Radar_Core\Dave\Generated/DMA_CH\dma_ch.h ****  *     }
 629:C:\Users\Depes Crystalline\Desktop\school\Active_Bike_Lighting_System\Radar_Core\Dave\Generated/DMA_CH\dma_ch.h ****  *   }
 630:C:\Users\Depes Crystalline\Desktop\school\Active_Bike_Lighting_System\Radar_Core\Dave\Generated/DMA_CH\dma_ch.h ****  *   else
 631:C:\Users\Depes Crystalline\Desktop\school\Active_Bike_Lighting_System\Radar_Core\Dave\Generated/DMA_CH\dma_ch.h ****  *   {
 632:C:\Users\Depes Crystalline\Desktop\school\Active_Bike_Lighting_System\Radar_Core\Dave\Generated/DMA_CH\dma_ch.h ****  *     dma_ch_susp_res_xfer_status++;
 633:C:\Users\Depes Crystalline\Desktop\school\Active_Bike_Lighting_System\Radar_Core\Dave\Generated/DMA_CH\dma_ch.h ****  *     dma_error_cb = 0;
 634:C:\Users\Depes Crystalline\Desktop\school\Active_Bike_Lighting_System\Radar_Core\Dave\Generated/DMA_CH\dma_ch.h ****  *   }
 635:C:\Users\Depes Crystalline\Desktop\school\Active_Bike_Lighting_System\Radar_Core\Dave\Generated/DMA_CH\dma_ch.h ****  *
 636:C:\Users\Depes Crystalline\Desktop\school\Active_Bike_Lighting_System\Radar_Core\Dave\Generated/DMA_CH\dma_ch.h ****  *   if (!dma_ch_susp_res_xfer_status)
 637:C:\Users\Depes Crystalline\Desktop\school\Active_Bike_Lighting_System\Radar_Core\Dave\Generated/DMA_CH\dma_ch.h ****  *   {
 638:C:\Users\Depes Crystalline\Desktop\school\Active_Bike_Lighting_System\Radar_Core\Dave\Generated/DMA_CH\dma_ch.h ****  *     // Success!
 639:C:\Users\Depes Crystalline\Desktop\school\Active_Bike_Lighting_System\Radar_Core\Dave\Generated/DMA_CH\dma_ch.h ****  *   }
 640:C:\Users\Depes Crystalline\Desktop\school\Active_Bike_Lighting_System\Radar_Core\Dave\Generated/DMA_CH\dma_ch.h ****  *   else
 641:C:\Users\Depes Crystalline\Desktop\school\Active_Bike_Lighting_System\Radar_Core\Dave\Generated/DMA_CH\dma_ch.h ****  *   {
 642:C:\Users\Depes Crystalline\Desktop\school\Active_Bike_Lighting_System\Radar_Core\Dave\Generated/DMA_CH\dma_ch.h ****  *     // Failed, something went wrong.
 643:C:\Users\Depes Crystalline\Desktop\school\Active_Bike_Lighting_System\Radar_Core\Dave\Generated/DMA_CH\dma_ch.h ****  *   }
 644:C:\Users\Depes Crystalline\Desktop\school\Active_Bike_Lighting_System\Radar_Core\Dave\Generated/DMA_CH\dma_ch.h ****  * }
 645:C:\Users\Depes Crystalline\Desktop\school\Active_Bike_Lighting_System\Radar_Core\Dave\Generated/DMA_CH\dma_ch.h ****  * @endcode<BR> </p>
 646:C:\Users\Depes Crystalline\Desktop\school\Active_Bike_Lighting_System\Radar_Core\Dave\Generated/DMA_CH\dma_ch.h ****  */
 647:C:\Users\Depes Crystalline\Desktop\school\Active_Bike_Lighting_System\Radar_Core\Dave\Generated/DMA_CH\dma_ch.h **** __STATIC_INLINE void DMA_CH_Resume(DMA_CH_t *const obj)
 648:C:\Users\Depes Crystalline\Desktop\school\Active_Bike_Lighting_System\Radar_Core\Dave\Generated/DMA_CH\dma_ch.h **** {
 649:C:\Users\Depes Crystalline\Desktop\school\Active_Bike_Lighting_System\Radar_Core\Dave\Generated/DMA_CH\dma_ch.h ****   XMC_ASSERT("DMA_CH_Resume: NULL DMA_CH_t object", (obj != NULL));
 650:C:\Users\Depes Crystalline\Desktop\school\Active_Bike_Lighting_System\Radar_Core\Dave\Generated/DMA_CH\dma_ch.h **** 
 651:C:\Users\Depes Crystalline\Desktop\school\Active_Bike_Lighting_System\Radar_Core\Dave\Generated/DMA_CH\dma_ch.h ****   XMC_DMA_CH_Resume(obj->dma_global->dma, obj->ch_num);
 652:C:\Users\Depes Crystalline\Desktop\school\Active_Bike_Lighting_System\Radar_Core\Dave\Generated/DMA_CH\dma_ch.h **** }
 653:C:\Users\Depes Crystalline\Desktop\school\Active_Bike_Lighting_System\Radar_Core\Dave\Generated/DMA_CH\dma_ch.h **** 
 654:C:\Users\Depes Crystalline\Desktop\school\Active_Bike_Lighting_System\Radar_Core\Dave\Generated/DMA_CH\dma_ch.h **** /**
 655:C:\Users\Depes Crystalline\Desktop\school\Active_Bike_Lighting_System\Radar_Core\Dave\Generated/DMA_CH\dma_ch.h ****  * @brief Check if a DMA channel is suspended
 656:C:\Users\Depes Crystalline\Desktop\school\Active_Bike_Lighting_System\Radar_Core\Dave\Generated/DMA_CH\dma_ch.h ****  * @param obj A pointer to DMA_CH_t, pointing to the DMA_CH handle configuration
 657:C:\Users\Depes Crystalline\Desktop\school\Active_Bike_Lighting_System\Radar_Core\Dave\Generated/DMA_CH\dma_ch.h ****  * @return bool "true" if suspended, "false" otherwise
 658:C:\Users\Depes Crystalline\Desktop\school\Active_Bike_Lighting_System\Radar_Core\Dave\Generated/DMA_CH\dma_ch.h ****  *
 659:C:\Users\Depes Crystalline\Desktop\school\Active_Bike_Lighting_System\Radar_Core\Dave\Generated/DMA_CH\dma_ch.h ****  * \par<b>Description: </b><br>
 660:C:\Users\Depes Crystalline\Desktop\school\Active_Bike_Lighting_System\Radar_Core\Dave\Generated/DMA_CH\dma_ch.h ****  * The function checks if a DMA channel is suspended
 661:C:\Users\Depes Crystalline\Desktop\school\Active_Bike_Lighting_System\Radar_Core\Dave\Generated/DMA_CH\dma_ch.h ****  *
 662:C:\Users\Depes Crystalline\Desktop\school\Active_Bike_Lighting_System\Radar_Core\Dave\Generated/DMA_CH\dma_ch.h ****  * Example Usage:
 663:C:\Users\Depes Crystalline\Desktop\school\Active_Bike_Lighting_System\Radar_Core\Dave\Generated/DMA_CH\dma_ch.h ****  *
 664:C:\Users\Depes Crystalline\Desktop\school\Active_Bike_Lighting_System\Radar_Core\Dave\Generated/DMA_CH\dma_ch.h ****  * @code
 665:C:\Users\Depes Crystalline\Desktop\school\Active_Bike_Lighting_System\Radar_Core\Dave\Generated/DMA_CH\dma_ch.h ****  * #include <DAVE.h>
 666:C:\Users\Depes Crystalline\Desktop\school\Active_Bike_Lighting_System\Radar_Core\Dave\Generated/DMA_CH\dma_ch.h ****  *
 667:C:\Users\Depes Crystalline\Desktop\school\Active_Bike_Lighting_System\Radar_Core\Dave\Generated/DMA_CH\dma_ch.h ****  * uint32_t tx_buf[4096];
 668:C:\Users\Depes Crystalline\Desktop\school\Active_Bike_Lighting_System\Radar_Core\Dave\Generated/DMA_CH\dma_ch.h ****  * uint32_t rx_buf[4096];
 669:C:\Users\Depes Crystalline\Desktop\school\Active_Bike_Lighting_System\Radar_Core\Dave\Generated/DMA_CH\dma_ch.h ****  *
 670:C:\Users\Depes Crystalline\Desktop\school\Active_Bike_Lighting_System\Radar_Core\Dave\Generated/DMA_CH\dma_ch.h ****  * volatile uint8_t xfer_cmplt_cb = 0;
 671:C:\Users\Depes Crystalline\Desktop\school\Active_Bike_Lighting_System\Radar_Core\Dave\Generated/DMA_CH\dma_ch.h ****  * volatile uint8_t dma_error_cb = 0;
 672:C:\Users\Depes Crystalline\Desktop\school\Active_Bike_Lighting_System\Radar_Core\Dave\Generated/DMA_CH\dma_ch.h ****  * volatile uint8_t xfer_block_cmplt = 0;
 673:C:\Users\Depes Crystalline\Desktop\school\Active_Bike_Lighting_System\Radar_Core\Dave\Generated/DMA_CH\dma_ch.h ****  *
 674:C:\Users\Depes Crystalline\Desktop\school\Active_Bike_Lighting_System\Radar_Core\Dave\Generated/DMA_CH\dma_ch.h ****  * void dma_ch_event_handler (XMC_DMA_CH_EVENT_t e)
 675:C:\Users\Depes Crystalline\Desktop\school\Active_Bike_Lighting_System\Radar_Core\Dave\Generated/DMA_CH\dma_ch.h ****  * {
 676:C:\Users\Depes Crystalline\Desktop\school\Active_Bike_Lighting_System\Radar_Core\Dave\Generated/DMA_CH\dma_ch.h ****  *   uint32_t event = 0;
 677:C:\Users\Depes Crystalline\Desktop\school\Active_Bike_Lighting_System\Radar_Core\Dave\Generated/DMA_CH\dma_ch.h ****  *   DMA_CH_t *dma_ch;
 678:C:\Users\Depes Crystalline\Desktop\school\Active_Bike_Lighting_System\Radar_Core\Dave\Generated/DMA_CH\dma_ch.h ****  *
 679:C:\Users\Depes Crystalline\Desktop\school\Active_Bike_Lighting_System\Radar_Core\Dave\Generated/DMA_CH\dma_ch.h ****  *   dma_ch = &DMA_CH_0;
 680:C:\Users\Depes Crystalline\Desktop\school\Active_Bike_Lighting_System\Radar_Core\Dave\Generated/DMA_CH\dma_ch.h ****  *
 681:C:\Users\Depes Crystalline\Desktop\school\Active_Bike_Lighting_System\Radar_Core\Dave\Generated/DMA_CH\dma_ch.h ****  *   // Check and update the volatile flags
 682:C:\Users\Depes Crystalline\Desktop\school\Active_Bike_Lighting_System\Radar_Core\Dave\Generated/DMA_CH\dma_ch.h ****  *   event = XMC_DMA_CH_GetEventStatus(dma_ch->dma_global->dma, dma_ch->ch_num);
 683:C:\Users\Depes Crystalline\Desktop\school\Active_Bike_Lighting_System\Radar_Core\Dave\Generated/DMA_CH\dma_ch.h ****  *   if ((event & XMC_DMA_CH_EVENT_ERROR) != 0)
 684:C:\Users\Depes Crystalline\Desktop\school\Active_Bike_Lighting_System\Radar_Core\Dave\Generated/DMA_CH\dma_ch.h ****  *   {
 685:C:\Users\Depes Crystalline\Desktop\school\Active_Bike_Lighting_System\Radar_Core\Dave\Generated/DMA_CH\dma_ch.h ****  *     dma_error_cb = 1;
 686:C:\Users\Depes Crystalline\Desktop\school\Active_Bike_Lighting_System\Radar_Core\Dave\Generated/DMA_CH\dma_ch.h ****  *   }
 687:C:\Users\Depes Crystalline\Desktop\school\Active_Bike_Lighting_System\Radar_Core\Dave\Generated/DMA_CH\dma_ch.h ****  *   else if((event & XMC_DMA_CH_EVENT_TRANSFER_COMPLETE) != 0)
 688:C:\Users\Depes Crystalline\Desktop\school\Active_Bike_Lighting_System\Radar_Core\Dave\Generated/DMA_CH\dma_ch.h ****  *   {
 689:C:\Users\Depes Crystalline\Desktop\school\Active_Bike_Lighting_System\Radar_Core\Dave\Generated/DMA_CH\dma_ch.h ****  *     xfer_cmplt_cb = 1;
 690:C:\Users\Depes Crystalline\Desktop\school\Active_Bike_Lighting_System\Radar_Core\Dave\Generated/DMA_CH\dma_ch.h ****  *   }
 691:C:\Users\Depes Crystalline\Desktop\school\Active_Bike_Lighting_System\Radar_Core\Dave\Generated/DMA_CH\dma_ch.h ****  *   else if ((event & XMC_DMA_CH_EVENT_BLOCK_TRANSFER_COMPLETE) != 0)
 692:C:\Users\Depes Crystalline\Desktop\school\Active_Bike_Lighting_System\Radar_Core\Dave\Generated/DMA_CH\dma_ch.h ****  *   {
 693:C:\Users\Depes Crystalline\Desktop\school\Active_Bike_Lighting_System\Radar_Core\Dave\Generated/DMA_CH\dma_ch.h ****  *     xfer_block_cmplt = 1;
 694:C:\Users\Depes Crystalline\Desktop\school\Active_Bike_Lighting_System\Radar_Core\Dave\Generated/DMA_CH\dma_ch.h ****  *   }
 695:C:\Users\Depes Crystalline\Desktop\school\Active_Bike_Lighting_System\Radar_Core\Dave\Generated/DMA_CH\dma_ch.h ****  * }
 696:C:\Users\Depes Crystalline\Desktop\school\Active_Bike_Lighting_System\Radar_Core\Dave\Generated/DMA_CH\dma_ch.h ****  *
 697:C:\Users\Depes Crystalline\Desktop\school\Active_Bike_Lighting_System\Radar_Core\Dave\Generated/DMA_CH\dma_ch.h ****  * int main (void)
 698:C:\Users\Depes Crystalline\Desktop\school\Active_Bike_Lighting_System\Radar_Core\Dave\Generated/DMA_CH\dma_ch.h ****  * {
 699:C:\Users\Depes Crystalline\Desktop\school\Active_Bike_Lighting_System\Radar_Core\Dave\Generated/DMA_CH\dma_ch.h ****  *   uint32_t dma_ch_susp_res_xfer_status = 0;
 700:C:\Users\Depes Crystalline\Desktop\school\Active_Bike_Lighting_System\Radar_Core\Dave\Generated/DMA_CH\dma_ch.h ****  *
 701:C:\Users\Depes Crystalline\Desktop\school\Active_Bike_Lighting_System\Radar_Core\Dave\Generated/DMA_CH\dma_ch.h ****  *   xfer_cmplt_cb = 0;
 702:C:\Users\Depes Crystalline\Desktop\school\Active_Bike_Lighting_System\Radar_Core\Dave\Generated/DMA_CH\dma_ch.h ****  *   dma_error_cb = 0;
 703:C:\Users\Depes Crystalline\Desktop\school\Active_Bike_Lighting_System\Radar_Core\Dave\Generated/DMA_CH\dma_ch.h ****  *
 704:C:\Users\Depes Crystalline\Desktop\school\Active_Bike_Lighting_System\Radar_Core\Dave\Generated/DMA_CH\dma_ch.h ****  *   //
 705:C:\Users\Depes Crystalline\Desktop\school\Active_Bike_Lighting_System\Radar_Core\Dave\Generated/DMA_CH\dma_ch.h ****  *   // Do 16k- 4bytes single transfer. Enable channel and suspend before it hits
 706:C:\Users\Depes Crystalline\Desktop\school\Active_Bike_Lighting_System\Radar_Core\Dave\Generated/DMA_CH\dma_ch.h ****  *   // the xfer complete callback.
 707:C:\Users\Depes Crystalline\Desktop\school\Active_Bike_Lighting_System\Radar_Core\Dave\Generated/DMA_CH\dma_ch.h ****  *   //
 708:C:\Users\Depes Crystalline\Desktop\school\Active_Bike_Lighting_System\Radar_Core\Dave\Generated/DMA_CH\dma_ch.h ****  *   // Later, check if suspended and then resume the transfer
 709:C:\Users\Depes Crystalline\Desktop\school\Active_Bike_Lighting_System\Radar_Core\Dave\Generated/DMA_CH\dma_ch.h ****  *   //
 710:C:\Users\Depes Crystalline\Desktop\school\Active_Bike_Lighting_System\Radar_Core\Dave\Generated/DMA_CH\dma_ch.h ****  *
 711:C:\Users\Depes Crystalline\Desktop\school\Active_Bike_Lighting_System\Radar_Core\Dave\Generated/DMA_CH\dma_ch.h ****  *   // The user must then configure block size as 4095 and the
 712:C:\Users\Depes Crystalline\Desktop\school\Active_Bike_Lighting_System\Radar_Core\Dave\Generated/DMA_CH\dma_ch.h ****  *   // transfer width as XMC_DMA_CH_TRANSFER_WIDTH_32 in the UI.
 713:C:\Users\Depes Crystalline\Desktop\school\Active_Bike_Lighting_System\Radar_Core\Dave\Generated/DMA_CH\dma_ch.h ****  *
 714:C:\Users\Depes Crystalline\Desktop\school\Active_Bike_Lighting_System\Radar_Core\Dave\Generated/DMA_CH\dma_ch.h ****  *   // Enable the channel
 715:C:\Users\Depes Crystalline\Desktop\school\Active_Bike_Lighting_System\Radar_Core\Dave\Generated/DMA_CH\dma_ch.h ****  *   if (!DMA_CH_IsEnabled(&DMA_CH_0))
 716:C:\Users\Depes Crystalline\Desktop\school\Active_Bike_Lighting_System\Radar_Core\Dave\Generated/DMA_CH\dma_ch.h ****  *   {
 717:C:\Users\Depes Crystalline\Desktop\school\Active_Bike_Lighting_System\Radar_Core\Dave\Generated/DMA_CH\dma_ch.h ****  *     DMA_CH_Enable(&DMA_CH_0);
 718:C:\Users\Depes Crystalline\Desktop\school\Active_Bike_Lighting_System\Radar_Core\Dave\Generated/DMA_CH\dma_ch.h ****  *   }
 719:C:\Users\Depes Crystalline\Desktop\school\Active_Bike_Lighting_System\Radar_Core\Dave\Generated/DMA_CH\dma_ch.h ****  *
 720:C:\Users\Depes Crystalline\Desktop\school\Active_Bike_Lighting_System\Radar_Core\Dave\Generated/DMA_CH\dma_ch.h ****  *   if ((xfer_cmplt_cb == 0) && (dma_error_cb == 0))
 721:C:\Users\Depes Crystalline\Desktop\school\Active_Bike_Lighting_System\Radar_Core\Dave\Generated/DMA_CH\dma_ch.h ****  *   {
 722:C:\Users\Depes Crystalline\Desktop\school\Active_Bike_Lighting_System\Radar_Core\Dave\Generated/DMA_CH\dma_ch.h ****  *     // Suspend the channel
 723:C:\Users\Depes Crystalline\Desktop\school\Active_Bike_Lighting_System\Radar_Core\Dave\Generated/DMA_CH\dma_ch.h ****  *     DMA_CH_Suspend(&DMA_CH_0);
 724:C:\Users\Depes Crystalline\Desktop\school\Active_Bike_Lighting_System\Radar_Core\Dave\Generated/DMA_CH\dma_ch.h ****  *
 725:C:\Users\Depes Crystalline\Desktop\school\Active_Bike_Lighting_System\Radar_Core\Dave\Generated/DMA_CH\dma_ch.h ****  *     // Is channel suspended?
 726:C:\Users\Depes Crystalline\Desktop\school\Active_Bike_Lighting_System\Radar_Core\Dave\Generated/DMA_CH\dma_ch.h ****  *     if (!DMA_CH_IsSuspended(&DMA_CH_0))
 727:C:\Users\Depes Crystalline\Desktop\school\Active_Bike_Lighting_System\Radar_Core\Dave\Generated/DMA_CH\dma_ch.h ****  *     {
 728:C:\Users\Depes Crystalline\Desktop\school\Active_Bike_Lighting_System\Radar_Core\Dave\Generated/DMA_CH\dma_ch.h ****  *       dma_ch_susp_res_xfer_status++;
 729:C:\Users\Depes Crystalline\Desktop\school\Active_Bike_Lighting_System\Radar_Core\Dave\Generated/DMA_CH\dma_ch.h ****  *     }
 730:C:\Users\Depes Crystalline\Desktop\school\Active_Bike_Lighting_System\Radar_Core\Dave\Generated/DMA_CH\dma_ch.h ****  *     // Resume the channel
 731:C:\Users\Depes Crystalline\Desktop\school\Active_Bike_Lighting_System\Radar_Core\Dave\Generated/DMA_CH\dma_ch.h ****  *     DMA_CH_Resume(&DMA_CH_0);
 732:C:\Users\Depes Crystalline\Desktop\school\Active_Bike_Lighting_System\Radar_Core\Dave\Generated/DMA_CH\dma_ch.h ****  *   }
 733:C:\Users\Depes Crystalline\Desktop\school\Active_Bike_Lighting_System\Radar_Core\Dave\Generated/DMA_CH\dma_ch.h ****  *   else
 734:C:\Users\Depes Crystalline\Desktop\school\Active_Bike_Lighting_System\Radar_Core\Dave\Generated/DMA_CH\dma_ch.h ****  *   {
 735:C:\Users\Depes Crystalline\Desktop\school\Active_Bike_Lighting_System\Radar_Core\Dave\Generated/DMA_CH\dma_ch.h ****  *     dma_ch_susp_res_xfer_status++;
 736:C:\Users\Depes Crystalline\Desktop\school\Active_Bike_Lighting_System\Radar_Core\Dave\Generated/DMA_CH\dma_ch.h ****  *   }
 737:C:\Users\Depes Crystalline\Desktop\school\Active_Bike_Lighting_System\Radar_Core\Dave\Generated/DMA_CH\dma_ch.h ****  *
 738:C:\Users\Depes Crystalline\Desktop\school\Active_Bike_Lighting_System\Radar_Core\Dave\Generated/DMA_CH\dma_ch.h ****  *   while ((xfer_cmplt_cb == 0) && (dma_error_cb == 0));
 739:C:\Users\Depes Crystalline\Desktop\school\Active_Bike_Lighting_System\Radar_Core\Dave\Generated/DMA_CH\dma_ch.h ****  *
 740:C:\Users\Depes Crystalline\Desktop\school\Active_Bike_Lighting_System\Radar_Core\Dave\Generated/DMA_CH\dma_ch.h ****  *   if (xfer_cmplt_cb)
 741:C:\Users\Depes Crystalline\Desktop\school\Active_Bike_Lighting_System\Radar_Core\Dave\Generated/DMA_CH\dma_ch.h ****  *   {
 742:C:\Users\Depes Crystalline\Desktop\school\Active_Bike_Lighting_System\Radar_Core\Dave\Generated/DMA_CH\dma_ch.h ****  *     xfer_cmplt_cb = 0;
 743:C:\Users\Depes Crystalline\Desktop\school\Active_Bike_Lighting_System\Radar_Core\Dave\Generated/DMA_CH\dma_ch.h ****  *     // Compare the contents of source and destination memory
 744:C:\Users\Depes Crystalline\Desktop\school\Active_Bike_Lighting_System\Radar_Core\Dave\Generated/DMA_CH\dma_ch.h ****  *     if (memcmp(tx_buf, rx_buf, DMA_CH_0.config->ch_config.block_size) != 0)
 745:C:\Users\Depes Crystalline\Desktop\school\Active_Bike_Lighting_System\Radar_Core\Dave\Generated/DMA_CH\dma_ch.h ****  *     {
 746:C:\Users\Depes Crystalline\Desktop\school\Active_Bike_Lighting_System\Radar_Core\Dave\Generated/DMA_CH\dma_ch.h ****  *       dma_ch_susp_res_xfer_status++;
 747:C:\Users\Depes Crystalline\Desktop\school\Active_Bike_Lighting_System\Radar_Core\Dave\Generated/DMA_CH\dma_ch.h ****  *     }
 748:C:\Users\Depes Crystalline\Desktop\school\Active_Bike_Lighting_System\Radar_Core\Dave\Generated/DMA_CH\dma_ch.h ****  *   }
 749:C:\Users\Depes Crystalline\Desktop\school\Active_Bike_Lighting_System\Radar_Core\Dave\Generated/DMA_CH\dma_ch.h ****  *   else
 750:C:\Users\Depes Crystalline\Desktop\school\Active_Bike_Lighting_System\Radar_Core\Dave\Generated/DMA_CH\dma_ch.h ****  *   {
 751:C:\Users\Depes Crystalline\Desktop\school\Active_Bike_Lighting_System\Radar_Core\Dave\Generated/DMA_CH\dma_ch.h ****  *     dma_ch_susp_res_xfer_status++;
 752:C:\Users\Depes Crystalline\Desktop\school\Active_Bike_Lighting_System\Radar_Core\Dave\Generated/DMA_CH\dma_ch.h ****  *     dma_error_cb = 0;
 753:C:\Users\Depes Crystalline\Desktop\school\Active_Bike_Lighting_System\Radar_Core\Dave\Generated/DMA_CH\dma_ch.h ****  *   }
 754:C:\Users\Depes Crystalline\Desktop\school\Active_Bike_Lighting_System\Radar_Core\Dave\Generated/DMA_CH\dma_ch.h ****  *
 755:C:\Users\Depes Crystalline\Desktop\school\Active_Bike_Lighting_System\Radar_Core\Dave\Generated/DMA_CH\dma_ch.h ****  *   if (!dma_ch_susp_res_xfer_status)
 756:C:\Users\Depes Crystalline\Desktop\school\Active_Bike_Lighting_System\Radar_Core\Dave\Generated/DMA_CH\dma_ch.h ****  *   {
 757:C:\Users\Depes Crystalline\Desktop\school\Active_Bike_Lighting_System\Radar_Core\Dave\Generated/DMA_CH\dma_ch.h ****  *     // Success!
 758:C:\Users\Depes Crystalline\Desktop\school\Active_Bike_Lighting_System\Radar_Core\Dave\Generated/DMA_CH\dma_ch.h ****  *   }
 759:C:\Users\Depes Crystalline\Desktop\school\Active_Bike_Lighting_System\Radar_Core\Dave\Generated/DMA_CH\dma_ch.h ****  *   else
 760:C:\Users\Depes Crystalline\Desktop\school\Active_Bike_Lighting_System\Radar_Core\Dave\Generated/DMA_CH\dma_ch.h ****  *   {
 761:C:\Users\Depes Crystalline\Desktop\school\Active_Bike_Lighting_System\Radar_Core\Dave\Generated/DMA_CH\dma_ch.h ****  *     // Failed, something went wrong.
 762:C:\Users\Depes Crystalline\Desktop\school\Active_Bike_Lighting_System\Radar_Core\Dave\Generated/DMA_CH\dma_ch.h ****  *   }
 763:C:\Users\Depes Crystalline\Desktop\school\Active_Bike_Lighting_System\Radar_Core\Dave\Generated/DMA_CH\dma_ch.h ****  * }
 764:C:\Users\Depes Crystalline\Desktop\school\Active_Bike_Lighting_System\Radar_Core\Dave\Generated/DMA_CH\dma_ch.h ****  * @endcode<BR> </p>
 765:C:\Users\Depes Crystalline\Desktop\school\Active_Bike_Lighting_System\Radar_Core\Dave\Generated/DMA_CH\dma_ch.h ****  */
 766:C:\Users\Depes Crystalline\Desktop\school\Active_Bike_Lighting_System\Radar_Core\Dave\Generated/DMA_CH\dma_ch.h ****  __STATIC_INLINE bool DMA_CH_IsSuspended(DMA_CH_t *const obj)
 767:C:\Users\Depes Crystalline\Desktop\school\Active_Bike_Lighting_System\Radar_Core\Dave\Generated/DMA_CH\dma_ch.h ****  {
 768:C:\Users\Depes Crystalline\Desktop\school\Active_Bike_Lighting_System\Radar_Core\Dave\Generated/DMA_CH\dma_ch.h ****    XMC_ASSERT("DMA_CH_IsSuspended: NULL DMA_CH_t object", (obj != NULL));
 769:C:\Users\Depes Crystalline\Desktop\school\Active_Bike_Lighting_System\Radar_Core\Dave\Generated/DMA_CH\dma_ch.h **** 
 770:C:\Users\Depes Crystalline\Desktop\school\Active_Bike_Lighting_System\Radar_Core\Dave\Generated/DMA_CH\dma_ch.h ****    return XMC_DMA_CH_IsSuspended(obj->dma_global->dma, obj->ch_num);
 771:C:\Users\Depes Crystalline\Desktop\school\Active_Bike_Lighting_System\Radar_Core\Dave\Generated/DMA_CH\dma_ch.h ****  }
 772:C:\Users\Depes Crystalline\Desktop\school\Active_Bike_Lighting_System\Radar_Core\Dave\Generated/DMA_CH\dma_ch.h **** 
 773:C:\Users\Depes Crystalline\Desktop\school\Active_Bike_Lighting_System\Radar_Core\Dave\Generated/DMA_CH\dma_ch.h **** /**
 774:C:\Users\Depes Crystalline\Desktop\school\Active_Bike_Lighting_System\Radar_Core\Dave\Generated/DMA_CH\dma_ch.h ****  * @brief DMA_CH initialization routine
 775:C:\Users\Depes Crystalline\Desktop\school\Active_Bike_Lighting_System\Radar_Core\Dave\Generated/DMA_CH\dma_ch.h ****  * @param obj A pointer to ::DMA_CH_t, pointing to the configuration parameters
 776:C:\Users\Depes Crystalline\Desktop\school\Active_Bike_Lighting_System\Radar_Core\Dave\Generated/DMA_CH\dma_ch.h ****  * @return DMA_CH_STATUS_t
 777:C:\Users\Depes Crystalline\Desktop\school\Active_Bike_Lighting_System\Radar_Core\Dave\Generated/DMA_CH\dma_ch.h ****  *
 778:C:\Users\Depes Crystalline\Desktop\school\Active_Bike_Lighting_System\Radar_Core\Dave\Generated/DMA_CH\dma_ch.h ****  * \par<b>Description: </b><br>
 779:C:\Users\Depes Crystalline\Desktop\school\Active_Bike_Lighting_System\Radar_Core\Dave\Generated/DMA_CH\dma_ch.h ****  * The function initializes the requested DMA channel and enables DMA events
 780:C:\Users\Depes Crystalline\Desktop\school\Active_Bike_Lighting_System\Radar_Core\Dave\Generated/DMA_CH\dma_ch.h ****  * The function is automatically called from within DAVE_Init();  An explicit
 781:C:\Users\Depes Crystalline\Desktop\school\Active_Bike_Lighting_System\Radar_Core\Dave\Generated/DMA_CH\dma_ch.h ****  * call to this function is not always required.
 782:C:\Users\Depes Crystalline\Desktop\school\Active_Bike_Lighting_System\Radar_Core\Dave\Generated/DMA_CH\dma_ch.h ****  * Note: In case the user wants to change the channel configuration, the user
 783:C:\Users\Depes Crystalline\Desktop\school\Active_Bike_Lighting_System\Radar_Core\Dave\Generated/DMA_CH\dma_ch.h ****  * must manipulate the generated configuration structure and initialize
 784:C:\Users\Depes Crystalline\Desktop\school\Active_Bike_Lighting_System\Radar_Core\Dave\Generated/DMA_CH\dma_ch.h ****  * the DMA_CH again by using DMA_CH_Init(). <br>
 785:C:\Users\Depes Crystalline\Desktop\school\Active_Bike_Lighting_System\Radar_Core\Dave\Generated/DMA_CH\dma_ch.h ****  * Note: Should there be changes in the DMA channel configuration parameters,
 786:C:\Users\Depes Crystalline\Desktop\school\Active_Bike_Lighting_System\Radar_Core\Dave\Generated/DMA_CH\dma_ch.h ****  * (for reconfiguration) changes shall first be made in the configuration structure.
 787:C:\Users\Depes Crystalline\Desktop\school\Active_Bike_Lighting_System\Radar_Core\Dave\Generated/DMA_CH\dma_ch.h ****  * DMA_CH_Init() shall then be invoked to cement the changes in the parameters. <br>
 788:C:\Users\Depes Crystalline\Desktop\school\Active_Bike_Lighting_System\Radar_Core\Dave\Generated/DMA_CH\dma_ch.h ****  * Post the DMA_CH_Init() invocation, DMA_CH_SetSourceAddress(),
 789:C:\Users\Depes Crystalline\Desktop\school\Active_Bike_Lighting_System\Radar_Core\Dave\Generated/DMA_CH\dma_ch.h ****  * DMA_CH_SetBlockSize() and DMA_CH_SetDestinationAddress() shall be
 790:C:\Users\Depes Crystalline\Desktop\school\Active_Bike_Lighting_System\Radar_Core\Dave\Generated/DMA_CH\dma_ch.h ****  * explicitly invoked.
 791:C:\Users\Depes Crystalline\Desktop\school\Active_Bike_Lighting_System\Radar_Core\Dave\Generated/DMA_CH\dma_ch.h ****  *
 792:C:\Users\Depes Crystalline\Desktop\school\Active_Bike_Lighting_System\Radar_Core\Dave\Generated/DMA_CH\dma_ch.h ****  * Example Usage:
 793:C:\Users\Depes Crystalline\Desktop\school\Active_Bike_Lighting_System\Radar_Core\Dave\Generated/DMA_CH\dma_ch.h ****  *
 794:C:\Users\Depes Crystalline\Desktop\school\Active_Bike_Lighting_System\Radar_Core\Dave\Generated/DMA_CH\dma_ch.h ****  * @code
 795:C:\Users\Depes Crystalline\Desktop\school\Active_Bike_Lighting_System\Radar_Core\Dave\Generated/DMA_CH\dma_ch.h ****  * #include <DAVE.h>
 796:C:\Users\Depes Crystalline\Desktop\school\Active_Bike_Lighting_System\Radar_Core\Dave\Generated/DMA_CH\dma_ch.h ****  *
 797:C:\Users\Depes Crystalline\Desktop\school\Active_Bike_Lighting_System\Radar_Core\Dave\Generated/DMA_CH\dma_ch.h ****  * int main(void)
 798:C:\Users\Depes Crystalline\Desktop\school\Active_Bike_Lighting_System\Radar_Core\Dave\Generated/DMA_CH\dma_ch.h ****  * {
 799:C:\Users\Depes Crystalline\Desktop\school\Active_Bike_Lighting_System\Radar_Core\Dave\Generated/DMA_CH\dma_ch.h ****  *   // Initialize DMA_CH APP:
 800:C:\Users\Depes Crystalline\Desktop\school\Active_Bike_Lighting_System\Radar_Core\Dave\Generated/DMA_CH\dma_ch.h ****  *   // DMA_CH_Init() is called from within DAVE_Init().
 801:C:\Users\Depes Crystalline\Desktop\school\Active_Bike_Lighting_System\Radar_Core\Dave\Generated/DMA_CH\dma_ch.h ****  *   //
 802:C:\Users\Depes Crystalline\Desktop\school\Active_Bike_Lighting_System\Radar_Core\Dave\Generated/DMA_CH\dma_ch.h ****  *   // DMA_CH_Init() takes a reference to DMA_CH_t as the *only*
 803:C:\Users\Depes Crystalline\Desktop\school\Active_Bike_Lighting_System\Radar_Core\Dave\Generated/DMA_CH\dma_ch.h ****  *   // actual parameter, defined in dma_ch_conf.c. The structure
 804:C:\Users\Depes Crystalline\Desktop\school\Active_Bike_Lighting_System\Radar_Core\Dave\Generated/DMA_CH\dma_ch.h ****  *   // contains all GUI user configuration.
 805:C:\Users\Depes Crystalline\Desktop\school\Active_Bike_Lighting_System\Radar_Core\Dave\Generated/DMA_CH\dma_ch.h ****  *
 806:C:\Users\Depes Crystalline\Desktop\school\Active_Bike_Lighting_System\Radar_Core\Dave\Generated/DMA_CH\dma_ch.h ****  *   DAVE_Init();
 807:C:\Users\Depes Crystalline\Desktop\school\Active_Bike_Lighting_System\Radar_Core\Dave\Generated/DMA_CH\dma_ch.h ****  *
 808:C:\Users\Depes Crystalline\Desktop\school\Active_Bike_Lighting_System\Radar_Core\Dave\Generated/DMA_CH\dma_ch.h ****  *   // More code here
 809:C:\Users\Depes Crystalline\Desktop\school\Active_Bike_Lighting_System\Radar_Core\Dave\Generated/DMA_CH\dma_ch.h ****  *   while(1)
 810:C:\Users\Depes Crystalline\Desktop\school\Active_Bike_Lighting_System\Radar_Core\Dave\Generated/DMA_CH\dma_ch.h ****  *   {
 811:C:\Users\Depes Crystalline\Desktop\school\Active_Bike_Lighting_System\Radar_Core\Dave\Generated/DMA_CH\dma_ch.h ****  *   }
 812:C:\Users\Depes Crystalline\Desktop\school\Active_Bike_Lighting_System\Radar_Core\Dave\Generated/DMA_CH\dma_ch.h ****  *   return (0);
 813:C:\Users\Depes Crystalline\Desktop\school\Active_Bike_Lighting_System\Radar_Core\Dave\Generated/DMA_CH\dma_ch.h ****  * }
 814:C:\Users\Depes Crystalline\Desktop\school\Active_Bike_Lighting_System\Radar_Core\Dave\Generated/DMA_CH\dma_ch.h ****  * @endcode<BR> </p>
 815:C:\Users\Depes Crystalline\Desktop\school\Active_Bike_Lighting_System\Radar_Core\Dave\Generated/DMA_CH\dma_ch.h ****  */
 816:C:\Users\Depes Crystalline\Desktop\school\Active_Bike_Lighting_System\Radar_Core\Dave\Generated/DMA_CH\dma_ch.h **** DMA_CH_STATUS_t DMA_CH_Init(DMA_CH_t *const obj);
 817:C:\Users\Depes Crystalline\Desktop\school\Active_Bike_Lighting_System\Radar_Core\Dave\Generated/DMA_CH\dma_ch.h **** 
 818:C:\Users\Depes Crystalline\Desktop\school\Active_Bike_Lighting_System\Radar_Core\Dave\Generated/DMA_CH\dma_ch.h **** /**
 819:C:\Users\Depes Crystalline\Desktop\school\Active_Bike_Lighting_System\Radar_Core\Dave\Generated/DMA_CH\dma_ch.h ****  * @brief Trigger source request
 820:C:\Users\Depes Crystalline\Desktop\school\Active_Bike_Lighting_System\Radar_Core\Dave\Generated/DMA_CH\dma_ch.h ****  * @param obj A pointer to ::DMA_CH_t, pointing to the configuration parameters
 821:C:\Users\Depes Crystalline\Desktop\school\Active_Bike_Lighting_System\Radar_Core\Dave\Generated/DMA_CH\dma_ch.h ****  * @param type Parameter of type ::XMC_DMA_CH_TRANSACTION_TYPE_t indicating transfer type
 822:C:\Users\Depes Crystalline\Desktop\school\Active_Bike_Lighting_System\Radar_Core\Dave\Generated/DMA_CH\dma_ch.h ****  * @param last A bool value indicating if the call must initiate the final source request
 823:C:\Users\Depes Crystalline\Desktop\school\Active_Bike_Lighting_System\Radar_Core\Dave\Generated/DMA_CH\dma_ch.h ****  * @return None
 824:C:\Users\Depes Crystalline\Desktop\school\Active_Bike_Lighting_System\Radar_Core\Dave\Generated/DMA_CH\dma_ch.h ****  *
 825:C:\Users\Depes Crystalline\Desktop\school\Active_Bike_Lighting_System\Radar_Core\Dave\Generated/DMA_CH\dma_ch.h ****  * \par<b>Description: </b><br>
 826:C:\Users\Depes Crystalline\Desktop\school\Active_Bike_Lighting_System\Radar_Core\Dave\Generated/DMA_CH\dma_ch.h ****  * This function is a simple wrapper around the low-level-driver function
 827:C:\Users\Depes Crystalline\Desktop\school\Active_Bike_Lighting_System\Radar_Core\Dave\Generated/DMA_CH\dma_ch.h ****  * XMC_DMA_CH_TriggerSourceRequest(). It can be used for GPDMA transfers involving
 828:C:\Users\Depes Crystalline\Desktop\school\Active_Bike_Lighting_System\Radar_Core\Dave\Generated/DMA_CH\dma_ch.h ****  * a peripheral in software handshaking mode viz. Peripheral -> memory and peripheral
 829:C:\Users\Depes Crystalline\Desktop\school\Active_Bike_Lighting_System\Radar_Core\Dave\Generated/DMA_CH\dma_ch.h ****  * -> peripheral. It would typically be used in a source peripheral's event
 830:C:\Users\Depes Crystalline\Desktop\school\Active_Bike_Lighting_System\Radar_Core\Dave\Generated/DMA_CH\dma_ch.h ****  * callback function to trigger the source request.
 831:C:\Users\Depes Crystalline\Desktop\school\Active_Bike_Lighting_System\Radar_Core\Dave\Generated/DMA_CH\dma_ch.h ****  *
 832:C:\Users\Depes Crystalline\Desktop\school\Active_Bike_Lighting_System\Radar_Core\Dave\Generated/DMA_CH\dma_ch.h ****  * Example Usage:
 833:C:\Users\Depes Crystalline\Desktop\school\Active_Bike_Lighting_System\Radar_Core\Dave\Generated/DMA_CH\dma_ch.h ****  *
 834:C:\Users\Depes Crystalline\Desktop\school\Active_Bike_Lighting_System\Radar_Core\Dave\Generated/DMA_CH\dma_ch.h ****  * @code
 835:C:\Users\Depes Crystalline\Desktop\school\Active_Bike_Lighting_System\Radar_Core\Dave\Generated/DMA_CH\dma_ch.h ****  * #include <DAVE.h>
 836:C:\Users\Depes Crystalline\Desktop\school\Active_Bike_Lighting_System\Radar_Core\Dave\Generated/DMA_CH\dma_ch.h ****  *
 837:C:\Users\Depes Crystalline\Desktop\school\Active_Bike_Lighting_System\Radar_Core\Dave\Generated/DMA_CH\dma_ch.h ****  * volatile uint8_t adc_counter = 0;
 838:C:\Users\Depes Crystalline\Desktop\school\Active_Bike_Lighting_System\Radar_Core\Dave\Generated/DMA_CH\dma_ch.h ****  *
 839:C:\Users\Depes Crystalline\Desktop\school\Active_Bike_Lighting_System\Radar_Core\Dave\Generated/DMA_CH\dma_ch.h ****  * int main(void)
 840:C:\Users\Depes Crystalline\Desktop\school\Active_Bike_Lighting_System\Radar_Core\Dave\Generated/DMA_CH\dma_ch.h ****  * {
 841:C:\Users\Depes Crystalline\Desktop\school\Active_Bike_Lighting_System\Radar_Core\Dave\Generated/DMA_CH\dma_ch.h ****  *   DAVE_Init();
 842:C:\Users\Depes Crystalline\Desktop\school\Active_Bike_Lighting_System\Radar_Core\Dave\Generated/DMA_CH\dma_ch.h ****  *
 843:C:\Users\Depes Crystalline\Desktop\school\Active_Bike_Lighting_System\Radar_Core\Dave\Generated/DMA_CH\dma_ch.h ****  *   // The user shall configure the DMA for a peripheral to memory
 844:C:\Users\Depes Crystalline\Desktop\school\Active_Bike_Lighting_System\Radar_Core\Dave\Generated/DMA_CH\dma_ch.h ****  *   // transaction (e.g. ADC -> Memory DMA transaction) with the peripheral
 845:C:\Users\Depes Crystalline\Desktop\school\Active_Bike_Lighting_System\Radar_Core\Dave\Generated/DMA_CH\dma_ch.h ****  *   // as the flow controller. These options shall be set in the GUI of
 846:C:\Users\Depes Crystalline\Desktop\school\Active_Bike_Lighting_System\Radar_Core\Dave\Generated/DMA_CH\dma_ch.h ****  *   // the DMA_CH APP.
 847:C:\Users\Depes Crystalline\Desktop\school\Active_Bike_Lighting_System\Radar_Core\Dave\Generated/DMA_CH\dma_ch.h ****  *
 848:C:\Users\Depes Crystalline\Desktop\school\Active_Bike_Lighting_System\Radar_Core\Dave\Generated/DMA_CH\dma_ch.h ****  *   DMA_CH_Init(&DMA_CH_0);
 849:C:\Users\Depes Crystalline\Desktop\school\Active_Bike_Lighting_System\Radar_Core\Dave\Generated/DMA_CH\dma_ch.h ****  *
 850:C:\Users\Depes Crystalline\Desktop\school\Active_Bike_Lighting_System\Radar_Core\Dave\Generated/DMA_CH\dma_ch.h ****  *   XMC_DMA_CH_SetSourceAddress(DMA_CH_0.dma_global->dma,DMA_CH_0.ch_num,(uint32_t)&(ADC_MEASUREME
 851:C:\Users\Depes Crystalline\Desktop\school\Active_Bike_Lighting_System\Radar_Core\Dave\Generated/DMA_CH\dma_ch.h ****  *
 852:C:\Users\Depes Crystalline\Desktop\school\Active_Bike_Lighting_System\Radar_Core\Dave\Generated/DMA_CH\dma_ch.h ****  *   if (!DMA_CH_IsEnabled(&DMA_CH_0))
 853:C:\Users\Depes Crystalline\Desktop\school\Active_Bike_Lighting_System\Radar_Core\Dave\Generated/DMA_CH\dma_ch.h ****  *   {
 854:C:\Users\Depes Crystalline\Desktop\school\Active_Bike_Lighting_System\Radar_Core\Dave\Generated/DMA_CH\dma_ch.h ****  *     DMA_CH_Enable(&DMA_CH_0);
 855:C:\Users\Depes Crystalline\Desktop\school\Active_Bike_Lighting_System\Radar_Core\Dave\Generated/DMA_CH\dma_ch.h ****  *   }
 856:C:\Users\Depes Crystalline\Desktop\school\Active_Bike_Lighting_System\Radar_Core\Dave\Generated/DMA_CH\dma_ch.h ****  *
 857:C:\Users\Depes Crystalline\Desktop\school\Active_Bike_Lighting_System\Radar_Core\Dave\Generated/DMA_CH\dma_ch.h ****  *   // Start ADC conversion
 858:C:\Users\Depes Crystalline\Desktop\school\Active_Bike_Lighting_System\Radar_Core\Dave\Generated/DMA_CH\dma_ch.h ****  *	 ADC_MEASUREMENT_StartConversion(&ADC_MEASUREMENT_0);
 859:C:\Users\Depes Crystalline\Desktop\school\Active_Bike_Lighting_System\Radar_Core\Dave\Generated/DMA_CH\dma_ch.h ****  *
 860:C:\Users\Depes Crystalline\Desktop\school\Active_Bike_Lighting_System\Radar_Core\Dave\Generated/DMA_CH\dma_ch.h ****  *	 while (1);
 861:C:\Users\Depes Crystalline\Desktop\school\Active_Bike_Lighting_System\Radar_Core\Dave\Generated/DMA_CH\dma_ch.h ****  *	 return 0;
 862:C:\Users\Depes Crystalline\Desktop\school\Active_Bike_Lighting_System\Radar_Core\Dave\Generated/DMA_CH\dma_ch.h ****  * }
 863:C:\Users\Depes Crystalline\Desktop\school\Active_Bike_Lighting_System\Radar_Core\Dave\Generated/DMA_CH\dma_ch.h ****  *
 864:C:\Users\Depes Crystalline\Desktop\school\Active_Bike_Lighting_System\Radar_Core\Dave\Generated/DMA_CH\dma_ch.h ****  * void adc_measurement_handler(void)
 865:C:\Users\Depes Crystalline\Desktop\school\Active_Bike_Lighting_System\Radar_Core\Dave\Generated/DMA_CH\dma_ch.h ****  * {
 866:C:\Users\Depes Crystalline\Desktop\school\Active_Bike_Lighting_System\Radar_Core\Dave\Generated/DMA_CH\dma_ch.h ****  *   // We're essentially transferring 10 ADC
 867:C:\Users\Depes Crystalline\Desktop\school\Active_Bike_Lighting_System\Radar_Core\Dave\Generated/DMA_CH\dma_ch.h ****  *   // result values.
 868:C:\Users\Depes Crystalline\Desktop\school\Active_Bike_Lighting_System\Radar_Core\Dave\Generated/DMA_CH\dma_ch.h ****  *   if(adc_counter < 10)
 869:C:\Users\Depes Crystalline\Desktop\school\Active_Bike_Lighting_System\Radar_Core\Dave\Generated/DMA_CH\dma_ch.h ****  *   {
 870:C:\Users\Depes Crystalline\Desktop\school\Active_Bike_Lighting_System\Radar_Core\Dave\Generated/DMA_CH\dma_ch.h ****  *     if(adc_counter == 9)
 871:C:\Users\Depes Crystalline\Desktop\school\Active_Bike_Lighting_System\Radar_Core\Dave\Generated/DMA_CH\dma_ch.h ****  *     {
 872:C:\Users\Depes Crystalline\Desktop\school\Active_Bike_Lighting_System\Radar_Core\Dave\Generated/DMA_CH\dma_ch.h ****  *       DMA_CH_TriggerSourceRequest(&DMA_CH_0, XMC_DMA_CH_TRANSACTION_TYPE_SINGLE, true);
 873:C:\Users\Depes Crystalline\Desktop\school\Active_Bike_Lighting_System\Radar_Core\Dave\Generated/DMA_CH\dma_ch.h ****  *     }
 874:C:\Users\Depes Crystalline\Desktop\school\Active_Bike_Lighting_System\Radar_Core\Dave\Generated/DMA_CH\dma_ch.h ****  *     else
 875:C:\Users\Depes Crystalline\Desktop\school\Active_Bike_Lighting_System\Radar_Core\Dave\Generated/DMA_CH\dma_ch.h ****  *     {
 876:C:\Users\Depes Crystalline\Desktop\school\Active_Bike_Lighting_System\Radar_Core\Dave\Generated/DMA_CH\dma_ch.h ****  *       XMC_DMA_CH_TriggerSourceRequest(DMA_CH_0.dma_global->dma, DMA_CH_0.ch_num, XMC_DMA_CH_TRAN
 877:C:\Users\Depes Crystalline\Desktop\school\Active_Bike_Lighting_System\Radar_Core\Dave\Generated/DMA_CH\dma_ch.h ****  *     }
 878:C:\Users\Depes Crystalline\Desktop\school\Active_Bike_Lighting_System\Radar_Core\Dave\Generated/DMA_CH\dma_ch.h ****  *     adc_counter++;
 879:C:\Users\Depes Crystalline\Desktop\school\Active_Bike_Lighting_System\Radar_Core\Dave\Generated/DMA_CH\dma_ch.h ****  *   }
 880:C:\Users\Depes Crystalline\Desktop\school\Active_Bike_Lighting_System\Radar_Core\Dave\Generated/DMA_CH\dma_ch.h ****  * }
 881:C:\Users\Depes Crystalline\Desktop\school\Active_Bike_Lighting_System\Radar_Core\Dave\Generated/DMA_CH\dma_ch.h ****  * @endcode<BR> </p>
 882:C:\Users\Depes Crystalline\Desktop\school\Active_Bike_Lighting_System\Radar_Core\Dave\Generated/DMA_CH\dma_ch.h ****  */
 883:C:\Users\Depes Crystalline\Desktop\school\Active_Bike_Lighting_System\Radar_Core\Dave\Generated/DMA_CH\dma_ch.h **** __STATIC_INLINE void DMA_CH_TriggerSourceRequest(DMA_CH_t *const obj, const XMC_DMA_CH_TRANSACTION_
 884:C:\Users\Depes Crystalline\Desktop\school\Active_Bike_Lighting_System\Radar_Core\Dave\Generated/DMA_CH\dma_ch.h **** {
 885:C:\Users\Depes Crystalline\Desktop\school\Active_Bike_Lighting_System\Radar_Core\Dave\Generated/DMA_CH\dma_ch.h ****   XMC_DMA_CH_TriggerSourceRequest(obj->dma_global->dma, obj->ch_num, type, last);
 886:C:\Users\Depes Crystalline\Desktop\school\Active_Bike_Lighting_System\Radar_Core\Dave\Generated/DMA_CH\dma_ch.h **** }
 887:C:\Users\Depes Crystalline\Desktop\school\Active_Bike_Lighting_System\Radar_Core\Dave\Generated/DMA_CH\dma_ch.h **** 
 888:C:\Users\Depes Crystalline\Desktop\school\Active_Bike_Lighting_System\Radar_Core\Dave\Generated/DMA_CH\dma_ch.h **** /**
 889:C:\Users\Depes Crystalline\Desktop\school\Active_Bike_Lighting_System\Radar_Core\Dave\Generated/DMA_CH\dma_ch.h ****  * @brief Trigger destination request
 890:C:\Users\Depes Crystalline\Desktop\school\Active_Bike_Lighting_System\Radar_Core\Dave\Generated/DMA_CH\dma_ch.h ****  * @param obj A pointer to ::DMA_CH_t, pointing to the configuration parameters
 891:C:\Users\Depes Crystalline\Desktop\school\Active_Bike_Lighting_System\Radar_Core\Dave\Generated/DMA_CH\dma_ch.h ****  * @param type Parameter of type ::XMC_DMA_CH_TRANSACTION_TYPE_t indicating transfer type
 892:C:\Users\Depes Crystalline\Desktop\school\Active_Bike_Lighting_System\Radar_Core\Dave\Generated/DMA_CH\dma_ch.h ****  * @param last A bool value indicating if the call must initiate the final destination request
 893:C:\Users\Depes Crystalline\Desktop\school\Active_Bike_Lighting_System\Radar_Core\Dave\Generated/DMA_CH\dma_ch.h ****  * @return None
 894:C:\Users\Depes Crystalline\Desktop\school\Active_Bike_Lighting_System\Radar_Core\Dave\Generated/DMA_CH\dma_ch.h ****  *
 895:C:\Users\Depes Crystalline\Desktop\school\Active_Bike_Lighting_System\Radar_Core\Dave\Generated/DMA_CH\dma_ch.h ****  * \par<b>Description: </b><br>
 896:C:\Users\Depes Crystalline\Desktop\school\Active_Bike_Lighting_System\Radar_Core\Dave\Generated/DMA_CH\dma_ch.h ****  * This function is a simple wrapper around the low-level-driver function
 897:C:\Users\Depes Crystalline\Desktop\school\Active_Bike_Lighting_System\Radar_Core\Dave\Generated/DMA_CH\dma_ch.h ****  * XMC_DMA_CH_TriggerSourceRequest(). It can be used for GPDMA transfers involving
 898:C:\Users\Depes Crystalline\Desktop\school\Active_Bike_Lighting_System\Radar_Core\Dave\Generated/DMA_CH\dma_ch.h ****  * a peripheral in software handshaking mode viz. Memory -> peripheral and peripheral
 899:C:\Users\Depes Crystalline\Desktop\school\Active_Bike_Lighting_System\Radar_Core\Dave\Generated/DMA_CH\dma_ch.h ****  * -> peripheral. It is typically used in a destination peripheral's event callback
 900:C:\Users\Depes Crystalline\Desktop\school\Active_Bike_Lighting_System\Radar_Core\Dave\Generated/DMA_CH\dma_ch.h ****  * function to trigger the destination request.
 901:C:\Users\Depes Crystalline\Desktop\school\Active_Bike_Lighting_System\Radar_Core\Dave\Generated/DMA_CH\dma_ch.h ****  *
 902:C:\Users\Depes Crystalline\Desktop\school\Active_Bike_Lighting_System\Radar_Core\Dave\Generated/DMA_CH\dma_ch.h ****  * Example Usage:
 903:C:\Users\Depes Crystalline\Desktop\school\Active_Bike_Lighting_System\Radar_Core\Dave\Generated/DMA_CH\dma_ch.h ****  *
 904:C:\Users\Depes Crystalline\Desktop\school\Active_Bike_Lighting_System\Radar_Core\Dave\Generated/DMA_CH\dma_ch.h ****  * @code
 905:C:\Users\Depes Crystalline\Desktop\school\Active_Bike_Lighting_System\Radar_Core\Dave\Generated/DMA_CH\dma_ch.h ****  * #include <DAVE.h>
 906:C:\Users\Depes Crystalline\Desktop\school\Active_Bike_Lighting_System\Radar_Core\Dave\Generated/DMA_CH\dma_ch.h ****  *
 907:C:\Users\Depes Crystalline\Desktop\school\Active_Bike_Lighting_System\Radar_Core\Dave\Generated/DMA_CH\dma_ch.h ****  * volatile uint8_t block_count = 0;
 908:C:\Users\Depes Crystalline\Desktop\school\Active_Bike_Lighting_System\Radar_Core\Dave\Generated/DMA_CH\dma_ch.h ****  *
 909:C:\Users\Depes Crystalline\Desktop\school\Active_Bike_Lighting_System\Radar_Core\Dave\Generated/DMA_CH\dma_ch.h ****  * // Memory -> Peripheral (like UART) - peripheral
 910:C:\Users\Depes Crystalline\Desktop\school\Active_Bike_Lighting_System\Radar_Core\Dave\Generated/DMA_CH\dma_ch.h ****  * // flow controller.
 911:C:\Users\Depes Crystalline\Desktop\school\Active_Bike_Lighting_System\Radar_Core\Dave\Generated/DMA_CH\dma_ch.h ****  *
 912:C:\Users\Depes Crystalline\Desktop\school\Active_Bike_Lighting_System\Radar_Core\Dave\Generated/DMA_CH\dma_ch.h ****  * int main(void)
 913:C:\Users\Depes Crystalline\Desktop\school\Active_Bike_Lighting_System\Radar_Core\Dave\Generated/DMA_CH\dma_ch.h ****  * {
 914:C:\Users\Depes Crystalline\Desktop\school\Active_Bike_Lighting_System\Radar_Core\Dave\Generated/DMA_CH\dma_ch.h ****  *   DAVE_Init();
 915:C:\Users\Depes Crystalline\Desktop\school\Active_Bike_Lighting_System\Radar_Core\Dave\Generated/DMA_CH\dma_ch.h ****  *
 916:C:\Users\Depes Crystalline\Desktop\school\Active_Bike_Lighting_System\Radar_Core\Dave\Generated/DMA_CH\dma_ch.h ****  *   DMA_CH_Init(&DMA_CH_0);
 917:C:\Users\Depes Crystalline\Desktop\school\Active_Bike_Lighting_System\Radar_Core\Dave\Generated/DMA_CH\dma_ch.h ****  *
 918:C:\Users\Depes Crystalline\Desktop\school\Active_Bike_Lighting_System\Radar_Core\Dave\Generated/DMA_CH\dma_ch.h ****  *   // Set destination address here
 919:C:\Users\Depes Crystalline\Desktop\school\Active_Bike_Lighting_System\Radar_Core\Dave\Generated/DMA_CH\dma_ch.h ****  *   // (which could be the UART transmit buffer for
 920:C:\Users\Depes Crystalline\Desktop\school\Active_Bike_Lighting_System\Radar_Core\Dave\Generated/DMA_CH\dma_ch.h ****  *   // a memory to peripheral transfer).
