   1              	 .syntax unified
   2              	 .cpu cortex-m4
   3              	 .fpu softvfp
   4              	 .eabi_attribute 20,1
   5              	 .eabi_attribute 21,1
   6              	 .eabi_attribute 23,3
   7              	 .eabi_attribute 24,1
   8              	 .eabi_attribute 25,1
   9              	 .eabi_attribute 26,1
  10              	 .eabi_attribute 30,6
  11              	 .eabi_attribute 34,1
  12              	 .eabi_attribute 18,4
  13              	 .thumb
  14              	 .file "arm_pid_init_f32.c"
  15              	 .text
  16              	.Ltext0:
  17              	 .cfi_sections .debug_frame
  18              	 .global __aeabi_fadd
  19              	 .global __aeabi_fsub
  20              	 .section .text.arm_pid_init_f32,"ax",%progbits
  21              	 .align 2
  22              	 .global arm_pid_init_f32
  23              	 .thumb
  24              	 .thumb_func
  26              	arm_pid_init_f32:
  27              	.LFB139:
  28              	 .file 1 "../Dave/Generated/CMSIS_DSP/ControllerFunctions/arm_pid_init_f32.c"
   1:../Dave/Generated/CMSIS_DSP/ControllerFunctions/arm_pid_init_f32.c **** /* ----------------------------------------------------------------------    
   2:../Dave/Generated/CMSIS_DSP/ControllerFunctions/arm_pid_init_f32.c **** * Copyright (C) 2010-2014 ARM Limited. All rights reserved.    
   3:../Dave/Generated/CMSIS_DSP/ControllerFunctions/arm_pid_init_f32.c **** *    
   4:../Dave/Generated/CMSIS_DSP/ControllerFunctions/arm_pid_init_f32.c **** * $Date:        12. March 2014
   5:../Dave/Generated/CMSIS_DSP/ControllerFunctions/arm_pid_init_f32.c **** * $Revision: 	V1.4.4
   6:../Dave/Generated/CMSIS_DSP/ControllerFunctions/arm_pid_init_f32.c **** *    
   7:../Dave/Generated/CMSIS_DSP/ControllerFunctions/arm_pid_init_f32.c **** * Project: 	    CMSIS DSP Library    
   8:../Dave/Generated/CMSIS_DSP/ControllerFunctions/arm_pid_init_f32.c **** * Title:	    arm_pid_init_f32.c    
   9:../Dave/Generated/CMSIS_DSP/ControllerFunctions/arm_pid_init_f32.c **** *    
  10:../Dave/Generated/CMSIS_DSP/ControllerFunctions/arm_pid_init_f32.c **** * Description:	Floating-point PID Control initialization function    
  11:../Dave/Generated/CMSIS_DSP/ControllerFunctions/arm_pid_init_f32.c **** *				   
  12:../Dave/Generated/CMSIS_DSP/ControllerFunctions/arm_pid_init_f32.c **** *    
  13:../Dave/Generated/CMSIS_DSP/ControllerFunctions/arm_pid_init_f32.c **** * Target Processor: Cortex-M4/Cortex-M3/Cortex-M0
  14:../Dave/Generated/CMSIS_DSP/ControllerFunctions/arm_pid_init_f32.c **** *  
  15:../Dave/Generated/CMSIS_DSP/ControllerFunctions/arm_pid_init_f32.c **** * Redistribution and use in source and binary forms, with or without 
  16:../Dave/Generated/CMSIS_DSP/ControllerFunctions/arm_pid_init_f32.c **** * modification, are permitted provided that the following conditions
  17:../Dave/Generated/CMSIS_DSP/ControllerFunctions/arm_pid_init_f32.c **** * are met:
  18:../Dave/Generated/CMSIS_DSP/ControllerFunctions/arm_pid_init_f32.c **** *   - Redistributions of source code must retain the above copyright
  19:../Dave/Generated/CMSIS_DSP/ControllerFunctions/arm_pid_init_f32.c **** *     notice, this list of conditions and the following disclaimer.
  20:../Dave/Generated/CMSIS_DSP/ControllerFunctions/arm_pid_init_f32.c **** *   - Redistributions in binary form must reproduce the above copyright
  21:../Dave/Generated/CMSIS_DSP/ControllerFunctions/arm_pid_init_f32.c **** *     notice, this list of conditions and the following disclaimer in
  22:../Dave/Generated/CMSIS_DSP/ControllerFunctions/arm_pid_init_f32.c **** *     the documentation and/or other materials provided with the 
  23:../Dave/Generated/CMSIS_DSP/ControllerFunctions/arm_pid_init_f32.c **** *     distribution.
  24:../Dave/Generated/CMSIS_DSP/ControllerFunctions/arm_pid_init_f32.c **** *   - Neither the name of ARM LIMITED nor the names of its contributors
  25:../Dave/Generated/CMSIS_DSP/ControllerFunctions/arm_pid_init_f32.c **** *     may be used to endorse or promote products derived from this
  26:../Dave/Generated/CMSIS_DSP/ControllerFunctions/arm_pid_init_f32.c **** *     software without specific prior written permission.
  27:../Dave/Generated/CMSIS_DSP/ControllerFunctions/arm_pid_init_f32.c **** *
  28:../Dave/Generated/CMSIS_DSP/ControllerFunctions/arm_pid_init_f32.c **** * THIS SOFTWARE IS PROVIDED BY THE COPYRIGHT HOLDERS AND CONTRIBUTORS
  29:../Dave/Generated/CMSIS_DSP/ControllerFunctions/arm_pid_init_f32.c **** * "AS IS" AND ANY EXPRESS OR IMPLIED WARRANTIES, INCLUDING, BUT NOT
  30:../Dave/Generated/CMSIS_DSP/ControllerFunctions/arm_pid_init_f32.c **** * LIMITED TO, THE IMPLIED WARRANTIES OF MERCHANTABILITY AND FITNESS
  31:../Dave/Generated/CMSIS_DSP/ControllerFunctions/arm_pid_init_f32.c **** * FOR A PARTICULAR PURPOSE ARE DISCLAIMED. IN NO EVENT SHALL THE 
  32:../Dave/Generated/CMSIS_DSP/ControllerFunctions/arm_pid_init_f32.c **** * COPYRIGHT OWNER OR CONTRIBUTORS BE LIABLE FOR ANY DIRECT, INDIRECT,
  33:../Dave/Generated/CMSIS_DSP/ControllerFunctions/arm_pid_init_f32.c **** * INCIDENTAL, SPECIAL, EXEMPLARY, OR CONSEQUENTIAL DAMAGES (INCLUDING,
  34:../Dave/Generated/CMSIS_DSP/ControllerFunctions/arm_pid_init_f32.c **** * BUT NOT LIMITED TO, PROCUREMENT OF SUBSTITUTE GOODS OR SERVICES;
  35:../Dave/Generated/CMSIS_DSP/ControllerFunctions/arm_pid_init_f32.c **** * LOSS OF USE, DATA, OR PROFITS; OR BUSINESS INTERRUPTION) HOWEVER
  36:../Dave/Generated/CMSIS_DSP/ControllerFunctions/arm_pid_init_f32.c **** * CAUSED AND ON ANY THEORY OF LIABILITY, WHETHER IN CONTRACT, STRICT
  37:../Dave/Generated/CMSIS_DSP/ControllerFunctions/arm_pid_init_f32.c **** * LIABILITY, OR TORT (INCLUDING NEGLIGENCE OR OTHERWISE) ARISING IN
  38:../Dave/Generated/CMSIS_DSP/ControllerFunctions/arm_pid_init_f32.c **** * ANY WAY OUT OF THE USE OF THIS SOFTWARE, EVEN IF ADVISED OF THE
  39:../Dave/Generated/CMSIS_DSP/ControllerFunctions/arm_pid_init_f32.c **** * POSSIBILITY OF SUCH DAMAGE.   
  40:../Dave/Generated/CMSIS_DSP/ControllerFunctions/arm_pid_init_f32.c **** * ------------------------------------------------------------------- */
  41:../Dave/Generated/CMSIS_DSP/ControllerFunctions/arm_pid_init_f32.c **** 
  42:../Dave/Generated/CMSIS_DSP/ControllerFunctions/arm_pid_init_f32.c **** #include "CMSIS_DSP/cmsis_dsp.h"
  43:../Dave/Generated/CMSIS_DSP/ControllerFunctions/arm_pid_init_f32.c **** 
  44:../Dave/Generated/CMSIS_DSP/ControllerFunctions/arm_pid_init_f32.c ****  /**    
  45:../Dave/Generated/CMSIS_DSP/ControllerFunctions/arm_pid_init_f32.c ****  * @addtogroup PID    
  46:../Dave/Generated/CMSIS_DSP/ControllerFunctions/arm_pid_init_f32.c ****  * @{    
  47:../Dave/Generated/CMSIS_DSP/ControllerFunctions/arm_pid_init_f32.c ****  */
  48:../Dave/Generated/CMSIS_DSP/ControllerFunctions/arm_pid_init_f32.c **** 
  49:../Dave/Generated/CMSIS_DSP/ControllerFunctions/arm_pid_init_f32.c **** /**    
  50:../Dave/Generated/CMSIS_DSP/ControllerFunctions/arm_pid_init_f32.c ****  * @brief  Initialization function for the floating-point PID Control.   
  51:../Dave/Generated/CMSIS_DSP/ControllerFunctions/arm_pid_init_f32.c ****  * @param[in,out] *S points to an instance of the PID structure.   
  52:../Dave/Generated/CMSIS_DSP/ControllerFunctions/arm_pid_init_f32.c ****  * @param[in]     resetStateFlag  flag to reset the state. 0 = no change in state & 1 = reset the s
  53:../Dave/Generated/CMSIS_DSP/ControllerFunctions/arm_pid_init_f32.c ****  * @return none.   
  54:../Dave/Generated/CMSIS_DSP/ControllerFunctions/arm_pid_init_f32.c ****  * \par Description:   
  55:../Dave/Generated/CMSIS_DSP/ControllerFunctions/arm_pid_init_f32.c ****  * \par    
  56:../Dave/Generated/CMSIS_DSP/ControllerFunctions/arm_pid_init_f32.c ****  * The <code>resetStateFlag</code> specifies whether to set state to zero or not. \n   
  57:../Dave/Generated/CMSIS_DSP/ControllerFunctions/arm_pid_init_f32.c ****  * The function computes the structure fields: <code>A0</code>, <code>A1</code> <code>A2</code>    
  58:../Dave/Generated/CMSIS_DSP/ControllerFunctions/arm_pid_init_f32.c ****  * using the proportional gain( \c Kp), integral gain( \c Ki) and derivative gain( \c Kd)    
  59:../Dave/Generated/CMSIS_DSP/ControllerFunctions/arm_pid_init_f32.c ****  * also sets the state variables to all zeros.    
  60:../Dave/Generated/CMSIS_DSP/ControllerFunctions/arm_pid_init_f32.c ****  */
  61:../Dave/Generated/CMSIS_DSP/ControllerFunctions/arm_pid_init_f32.c **** 
  62:../Dave/Generated/CMSIS_DSP/ControllerFunctions/arm_pid_init_f32.c **** void arm_pid_init_f32(
  63:../Dave/Generated/CMSIS_DSP/ControllerFunctions/arm_pid_init_f32.c ****   arm_pid_instance_f32 * S,
  64:../Dave/Generated/CMSIS_DSP/ControllerFunctions/arm_pid_init_f32.c ****   int32_t resetStateFlag)
  65:../Dave/Generated/CMSIS_DSP/ControllerFunctions/arm_pid_init_f32.c **** {
  29              	 .loc 1 65 0
  30              	 .cfi_startproc
  31              	 
  32              	 
  33 0000 90B5     	 push {r4,r7,lr}
  34              	.LCFI0:
  35              	 .cfi_def_cfa_offset 12
  36              	 .cfi_offset 4,-12
  37              	 .cfi_offset 7,-8
  38              	 .cfi_offset 14,-4
  39 0002 83B0     	 sub sp,sp,#12
  40              	.LCFI1:
  41              	 .cfi_def_cfa_offset 24
  42 0004 00AF     	 add r7,sp,#0
  43              	.LCFI2:
  44              	 .cfi_def_cfa_register 7
  45 0006 7860     	 str r0,[r7,#4]
  46 0008 3960     	 str r1,[r7]
  66:../Dave/Generated/CMSIS_DSP/ControllerFunctions/arm_pid_init_f32.c **** 
  67:../Dave/Generated/CMSIS_DSP/ControllerFunctions/arm_pid_init_f32.c ****   /* Derived coefficient A0 */
  68:../Dave/Generated/CMSIS_DSP/ControllerFunctions/arm_pid_init_f32.c ****   S->A0 = S->Kp + S->Ki + S->Kd;
  47              	 .loc 1 68 0
  48 000a 7B68     	 ldr r3,[r7,#4]
  49 000c 9A69     	 ldr r2,[r3,#24]
  50 000e 7B68     	 ldr r3,[r7,#4]
  51 0010 DB69     	 ldr r3,[r3,#28]
  52 0012 1046     	 mov r0,r2
  53 0014 1946     	 mov r1,r3
  54 0016 FFF7FEFF 	 bl __aeabi_fadd
  55 001a 0346     	 mov r3,r0
  56 001c 1A46     	 mov r2,r3
  57 001e 7B68     	 ldr r3,[r7,#4]
  58 0020 1B6A     	 ldr r3,[r3,#32]
  59 0022 1046     	 mov r0,r2
  60 0024 1946     	 mov r1,r3
  61 0026 FFF7FEFF 	 bl __aeabi_fadd
  62 002a 0346     	 mov r3,r0
  63 002c 1A46     	 mov r2,r3
  64 002e 7B68     	 ldr r3,[r7,#4]
  65 0030 1A60     	 str r2,[r3]
  69:../Dave/Generated/CMSIS_DSP/ControllerFunctions/arm_pid_init_f32.c **** 
  70:../Dave/Generated/CMSIS_DSP/ControllerFunctions/arm_pid_init_f32.c ****   /* Derived coefficient A1 */
  71:../Dave/Generated/CMSIS_DSP/ControllerFunctions/arm_pid_init_f32.c ****   S->A1 = (-S->Kp) - ((float32_t) 2.0 * S->Kd);
  66              	 .loc 1 71 0
  67 0032 7B68     	 ldr r3,[r7,#4]
  68 0034 9B69     	 ldr r3,[r3,#24]
  69 0036 83F00044 	 eor r4,r3,#-2147483648
  70 003a 7B68     	 ldr r3,[r7,#4]
  71 003c 1B6A     	 ldr r3,[r3,#32]
  72 003e 1846     	 mov r0,r3
  73 0040 1946     	 mov r1,r3
  74 0042 FFF7FEFF 	 bl __aeabi_fadd
  75 0046 0346     	 mov r3,r0
  76 0048 2046     	 mov r0,r4
  77 004a 1946     	 mov r1,r3
  78 004c FFF7FEFF 	 bl __aeabi_fsub
  79 0050 0346     	 mov r3,r0
  80 0052 1A46     	 mov r2,r3
  81 0054 7B68     	 ldr r3,[r7,#4]
  82 0056 5A60     	 str r2,[r3,#4]
  72:../Dave/Generated/CMSIS_DSP/ControllerFunctions/arm_pid_init_f32.c **** 
  73:../Dave/Generated/CMSIS_DSP/ControllerFunctions/arm_pid_init_f32.c ****   /* Derived coefficient A2 */
  74:../Dave/Generated/CMSIS_DSP/ControllerFunctions/arm_pid_init_f32.c ****   S->A2 = S->Kd;
  83              	 .loc 1 74 0
  84 0058 7B68     	 ldr r3,[r7,#4]
  85 005a 1A6A     	 ldr r2,[r3,#32]
  86 005c 7B68     	 ldr r3,[r7,#4]
  87 005e 9A60     	 str r2,[r3,#8]
  75:../Dave/Generated/CMSIS_DSP/ControllerFunctions/arm_pid_init_f32.c **** 
  76:../Dave/Generated/CMSIS_DSP/ControllerFunctions/arm_pid_init_f32.c ****   /* Check whether state needs reset or not */
  77:../Dave/Generated/CMSIS_DSP/ControllerFunctions/arm_pid_init_f32.c ****   if(resetStateFlag)
  88              	 .loc 1 77 0
  89 0060 3B68     	 ldr r3,[r7]
  90 0062 002B     	 cmp r3,#0
  91 0064 06D0     	 beq .L1
  78:../Dave/Generated/CMSIS_DSP/ControllerFunctions/arm_pid_init_f32.c ****   {
  79:../Dave/Generated/CMSIS_DSP/ControllerFunctions/arm_pid_init_f32.c ****     /* Clear the state buffer.  The size will be always 3 samples */
  80:../Dave/Generated/CMSIS_DSP/ControllerFunctions/arm_pid_init_f32.c ****     memset(S->state, 0, 3u * sizeof(float32_t));
  92              	 .loc 1 80 0
  93 0066 7B68     	 ldr r3,[r7,#4]
  94 0068 0C33     	 adds r3,r3,#12
  95 006a 1846     	 mov r0,r3
  96 006c 0021     	 movs r1,#0
  97 006e 0C22     	 movs r2,#12
  98 0070 FFF7FEFF 	 bl memset
  99              	.L1:
  81:../Dave/Generated/CMSIS_DSP/ControllerFunctions/arm_pid_init_f32.c ****   }
  82:../Dave/Generated/CMSIS_DSP/ControllerFunctions/arm_pid_init_f32.c **** 
  83:../Dave/Generated/CMSIS_DSP/ControllerFunctions/arm_pid_init_f32.c **** }
 100              	 .loc 1 83 0
 101 0074 0C37     	 adds r7,r7,#12
 102              	.LCFI3:
 103              	 .cfi_def_cfa_offset 12
 104 0076 BD46     	 mov sp,r7
 105              	.LCFI4:
 106              	 .cfi_def_cfa_register 13
 107              	 
 108 0078 90BD     	 pop {r4,r7,pc}
 109              	 .cfi_endproc
 110              	.LFE139:
 112 007a 00BF     	 .text
 113              	.Letext0:
 114              	 .file 2 "c:\\davev4-64bit\\dave-4.2.6\\eclipse\\arm-gcc-49\\arm-none-eabi\\include\\machine\\_default_types.h"
 115              	 .file 3 "c:\\davev4-64bit\\dave-4.2.6\\eclipse\\arm-gcc-49\\arm-none-eabi\\include\\stdint.h"
 116              	 .file 4 "C:\\Users\\Depes Crystalline\\Desktop\\school\\Active_Bike_Lighting_System\\Radar_Core\\Dave\\Generated/CMSIS_DSP/arm_math.h"