   1              	 .syntax unified
   2              	 .cpu cortex-m4
   3              	 .fpu softvfp
   4              	 .eabi_attribute 20,1
   5              	 .eabi_attribute 21,1
   6              	 .eabi_attribute 23,3
   7              	 .eabi_attribute 24,1
   8              	 .eabi_attribute 25,1
   9              	 .eabi_attribute 26,1
  10              	 .eabi_attribute 30,6
  11              	 .eabi_attribute 34,1
  12              	 .eabi_attribute 18,4
  13              	 .thumb
  14              	 .file "xmc4_gpio.c"
  15              	 .text
  16              	.Ltext0:
  17              	 .cfi_sections .debug_frame
  18              	 .section .text.XMC_GPIO_Init,"ax",%progbits
  19              	 .align 2
  20              	 .global XMC_GPIO_Init
  21              	 .thumb
  22              	 .thumb_func
  24              	XMC_GPIO_Init:
  25              	.LFB137:
  26              	 .file 1 "../Libraries/XMCLib/src/xmc4_gpio.c"
   1:../Libraries/XMCLib/src/xmc4_gpio.c **** /**
   2:../Libraries/XMCLib/src/xmc4_gpio.c ****  * @file xmc4_gpio.c
   3:../Libraries/XMCLib/src/xmc4_gpio.c ****  * @date 2015-06-20
   4:../Libraries/XMCLib/src/xmc4_gpio.c ****  *
   5:../Libraries/XMCLib/src/xmc4_gpio.c ****  * @cond
   6:../Libraries/XMCLib/src/xmc4_gpio.c ****   *************************************************************************************************
   7:../Libraries/XMCLib/src/xmc4_gpio.c ****  * XMClib v2.0.0 - XMC Peripheral Driver Library
   8:../Libraries/XMCLib/src/xmc4_gpio.c ****  *
   9:../Libraries/XMCLib/src/xmc4_gpio.c ****  * Copyright (c) 2015, Infineon Technologies AG
  10:../Libraries/XMCLib/src/xmc4_gpio.c ****  * All rights reserved.                        
  11:../Libraries/XMCLib/src/xmc4_gpio.c ****  *                                             
  12:../Libraries/XMCLib/src/xmc4_gpio.c ****  * Redistribution and use in source and binary forms, with or without modification,are permitted pr
  13:../Libraries/XMCLib/src/xmc4_gpio.c ****  * following conditions are met:   
  14:../Libraries/XMCLib/src/xmc4_gpio.c ****  *                                                                              
  15:../Libraries/XMCLib/src/xmc4_gpio.c ****  * Redistributions of source code must retain the above copyright notice, this list of conditions a
  16:../Libraries/XMCLib/src/xmc4_gpio.c ****  * disclaimer.                        
  17:../Libraries/XMCLib/src/xmc4_gpio.c ****  * 
  18:../Libraries/XMCLib/src/xmc4_gpio.c ****  * Redistributions in binary form must reproduce the above copyright notice, this list of condition
  19:../Libraries/XMCLib/src/xmc4_gpio.c ****  * disclaimer in the documentation and/or other materials provided with the distribution.          
  20:../Libraries/XMCLib/src/xmc4_gpio.c ****  * 
  21:../Libraries/XMCLib/src/xmc4_gpio.c ****  * Neither the name of the copyright holders nor the names of its contributors may be used to endor
  22:../Libraries/XMCLib/src/xmc4_gpio.c ****  * products derived from this software without specific prior written permission.                  
  23:../Libraries/XMCLib/src/xmc4_gpio.c ****  *                                                                              
  24:../Libraries/XMCLib/src/xmc4_gpio.c ****  * THIS SOFTWARE IS PROVIDED BY THE COPYRIGHT HOLDERS AND CONTRIBUTORS "AS IS" AND ANY EXPRESS OR I
  25:../Libraries/XMCLib/src/xmc4_gpio.c ****  * INCLUDING, BUT NOT LIMITED TO, THE IMPLIED WARRANTIES OF MERCHANTABILITY AND FITNESS FOR A PARTI
  26:../Libraries/XMCLib/src/xmc4_gpio.c ****  * DISCLAIMED. IN NO EVENT SHALL THE COPYRIGHT HOLDER OR CONTRIBUTORS BE LIABLE  FOR ANY DIRECT, IN
  27:../Libraries/XMCLib/src/xmc4_gpio.c ****  * SPECIAL, EXEMPLARY, OR CONSEQUENTIAL DAMAGES (INCLUDING, BUT NOT LIMITED TO, PROCUREMENT OF SUBS
  28:../Libraries/XMCLib/src/xmc4_gpio.c ****  * SERVICES; LOSS OF USE, DATA, OR PROFITS; OR BUSINESS INTERRUPTION) HOWEVER CAUSED AND ON ANY THE
  29:../Libraries/XMCLib/src/xmc4_gpio.c ****  * WHETHER IN CONTRACT, STRICT LIABILITY,OR TORT (INCLUDING NEGLIGENCE OR OTHERWISE) ARISING IN ANY
  30:../Libraries/XMCLib/src/xmc4_gpio.c ****  * OF THIS SOFTWARE, EVEN IF ADVISED OF THE POSSIBILITY OF SUCH DAMAGE.                            
  31:../Libraries/XMCLib/src/xmc4_gpio.c ****  *                                                                              
  32:../Libraries/XMCLib/src/xmc4_gpio.c ****  * To improve the quality of the software, users are encouraged to share modifications, enhancement
  33:../Libraries/XMCLib/src/xmc4_gpio.c ****  * Infineon Technologies AG dave@infineon.com).                                                    
  34:../Libraries/XMCLib/src/xmc4_gpio.c ****  **************************************************************************************************
  35:../Libraries/XMCLib/src/xmc4_gpio.c ****  *
  36:../Libraries/XMCLib/src/xmc4_gpio.c ****  * Change History
  37:../Libraries/XMCLib/src/xmc4_gpio.c ****  * --------------
  38:../Libraries/XMCLib/src/xmc4_gpio.c ****  *
  39:../Libraries/XMCLib/src/xmc4_gpio.c ****  * 2015-02-20:
  40:../Libraries/XMCLib/src/xmc4_gpio.c ****  *     - Initial draft <br>
  41:../Libraries/XMCLib/src/xmc4_gpio.c ****  *      
  42:../Libraries/XMCLib/src/xmc4_gpio.c ****  * 2015-06-20:
  43:../Libraries/XMCLib/src/xmc4_gpio.c ****  *     - Removed version macros and declaration of GetDriverVersion API
  44:../Libraries/XMCLib/src/xmc4_gpio.c ****  *
  45:../Libraries/XMCLib/src/xmc4_gpio.c ****  * @endcond
  46:../Libraries/XMCLib/src/xmc4_gpio.c ****  *
  47:../Libraries/XMCLib/src/xmc4_gpio.c ****  */
  48:../Libraries/XMCLib/src/xmc4_gpio.c **** 
  49:../Libraries/XMCLib/src/xmc4_gpio.c **** #include "xmc_gpio.h"
  50:../Libraries/XMCLib/src/xmc4_gpio.c **** 
  51:../Libraries/XMCLib/src/xmc4_gpio.c **** #if UC_FAMILY == XMC4
  52:../Libraries/XMCLib/src/xmc4_gpio.c **** 
  53:../Libraries/XMCLib/src/xmc4_gpio.c **** /*******************************************************************************
  54:../Libraries/XMCLib/src/xmc4_gpio.c ****  * MACROS
  55:../Libraries/XMCLib/src/xmc4_gpio.c ****  *******************************************************************************/
  56:../Libraries/XMCLib/src/xmc4_gpio.c **** 
  57:../Libraries/XMCLib/src/xmc4_gpio.c **** #define PORT_PDR_Msk              PORT0_PDR0_PD0_Msk
  58:../Libraries/XMCLib/src/xmc4_gpio.c **** #define PORT_PDR_Size             (4U)
  59:../Libraries/XMCLib/src/xmc4_gpio.c **** #define PORT_HWSEL_Msk            PORT0_HWSEL_HW0_Msk
  60:../Libraries/XMCLib/src/xmc4_gpio.c **** 
  61:../Libraries/XMCLib/src/xmc4_gpio.c **** /*******************************************************************************
  62:../Libraries/XMCLib/src/xmc4_gpio.c ****  * API IMPLEMENTATION
  63:../Libraries/XMCLib/src/xmc4_gpio.c ****  *******************************************************************************/
  64:../Libraries/XMCLib/src/xmc4_gpio.c **** 
  65:../Libraries/XMCLib/src/xmc4_gpio.c **** void XMC_GPIO_Init(XMC_GPIO_PORT_t *const port, const uint8_t pin, const XMC_GPIO_CONFIG_t *const c
  66:../Libraries/XMCLib/src/xmc4_gpio.c **** {
  27              	 .loc 1 66 0
  28              	 .cfi_startproc
  29              	 
  30              	 
  31              	 
  32 0000 80B4     	 push {r7}
  33              	.LCFI0:
  34              	 .cfi_def_cfa_offset 4
  35              	 .cfi_offset 7,-4
  36 0002 85B0     	 sub sp,sp,#20
  37              	.LCFI1:
  38              	 .cfi_def_cfa_offset 24
  39 0004 00AF     	 add r7,sp,#0
  40              	.LCFI2:
  41              	 .cfi_def_cfa_register 7
  42 0006 F860     	 str r0,[r7,#12]
  43 0008 0B46     	 mov r3,r1
  44 000a 7A60     	 str r2,[r7,#4]
  45 000c FB72     	 strb r3,[r7,#11]
  67:../Libraries/XMCLib/src/xmc4_gpio.c ****   XMC_ASSERT("XMC_GPIO_Init: Invalid port", XMC_GPIO_CHECK_PORT(port));
  68:../Libraries/XMCLib/src/xmc4_gpio.c ****   XMC_ASSERT("XMC_GPIO_Init: Invalid mode", XMC_GPIO_CHECK_MODE(config->mode));
  69:../Libraries/XMCLib/src/xmc4_gpio.c **** 
  70:../Libraries/XMCLib/src/xmc4_gpio.c ****   /* Switch to input */
  71:../Libraries/XMCLib/src/xmc4_gpio.c ****   port->IOCR[pin >> 2U] &= (uint32_t)~(PORT_IOCR_PC_Msk << (PORT_IOCR_PC_Size * (pin & 0x3U)));
  46              	 .loc 1 71 0
  47 000e FB7A     	 ldrb r3,[r7,#11]
  48 0010 9B08     	 lsrs r3,r3,#2
  49 0012 DBB2     	 uxtb r3,r3
  50 0014 1846     	 mov r0,r3
  51 0016 FB7A     	 ldrb r3,[r7,#11]
  52 0018 9B08     	 lsrs r3,r3,#2
  53 001a DBB2     	 uxtb r3,r3
  54 001c 1A46     	 mov r2,r3
  55 001e FB68     	 ldr r3,[r7,#12]
  56 0020 0432     	 adds r2,r2,#4
  57 0022 53F82220 	 ldr r2,[r3,r2,lsl#2]
  58 0026 FB7A     	 ldrb r3,[r7,#11]
  59 0028 03F00303 	 and r3,r3,#3
  60 002c DB00     	 lsls r3,r3,#3
  61 002e 1946     	 mov r1,r3
  62 0030 F823     	 movs r3,#248
  63 0032 8B40     	 lsls r3,r3,r1
  64 0034 DB43     	 mvns r3,r3
  65 0036 02EA0301 	 and r1,r2,r3
  66 003a FB68     	 ldr r3,[r7,#12]
  67 003c 021D     	 adds r2,r0,#4
  68 003e 43F82210 	 str r1,[r3,r2,lsl#2]
  72:../Libraries/XMCLib/src/xmc4_gpio.c **** 
  73:../Libraries/XMCLib/src/xmc4_gpio.c ****   /* HW port control is disabled */
  74:../Libraries/XMCLib/src/xmc4_gpio.c ****   port->HWSEL &= ~(uint32_t)((uint32_t)PORT_HWSEL_Msk << ((uint32_t)pin << 1U));
  69              	 .loc 1 74 0
  70 0042 FB68     	 ldr r3,[r7,#12]
  71 0044 5A6F     	 ldr r2,[r3,#116]
  72 0046 FB7A     	 ldrb r3,[r7,#11]
  73 0048 5B00     	 lsls r3,r3,#1
  74 004a 1946     	 mov r1,r3
  75 004c 0323     	 movs r3,#3
  76 004e 8B40     	 lsls r3,r3,r1
  77 0050 DB43     	 mvns r3,r3
  78 0052 1A40     	 ands r2,r2,r3
  79 0054 FB68     	 ldr r3,[r7,#12]
  80 0056 5A67     	 str r2,[r3,#116]
  75:../Libraries/XMCLib/src/xmc4_gpio.c **** 
  76:../Libraries/XMCLib/src/xmc4_gpio.c **** 
  77:../Libraries/XMCLib/src/xmc4_gpio.c ****   /* Enable digital input */
  78:../Libraries/XMCLib/src/xmc4_gpio.c ****   if (XMC_GPIO_CHECK_ANALOG_PORT(port))
  81              	 .loc 1 78 0
  82 0058 FB68     	 ldr r3,[r7,#12]
  83 005a 354A     	 ldr r2,.L4
  84 005c 9342     	 cmp r3,r2
  85 005e 0AD1     	 bne .L2
  79:../Libraries/XMCLib/src/xmc4_gpio.c ****   {
  80:../Libraries/XMCLib/src/xmc4_gpio.c ****     port->PDISC &= ~(uint32_t)((uint32_t)0x1U << pin);
  86              	 .loc 1 80 0
  87 0060 FB68     	 ldr r3,[r7,#12]
  88 0062 1A6E     	 ldr r2,[r3,#96]
  89 0064 FB7A     	 ldrb r3,[r7,#11]
  90 0066 0121     	 movs r1,#1
  91 0068 01FA03F3 	 lsl r3,r1,r3
  92 006c DB43     	 mvns r3,r3
  93 006e 1A40     	 ands r2,r2,r3
  94 0070 FB68     	 ldr r3,[r7,#12]
  95 0072 1A66     	 str r2,[r3,#96]
  96 0074 3CE0     	 b .L3
  97              	.L2:
  81:../Libraries/XMCLib/src/xmc4_gpio.c ****   }
  82:../Libraries/XMCLib/src/xmc4_gpio.c ****   else
  83:../Libraries/XMCLib/src/xmc4_gpio.c ****   {
  84:../Libraries/XMCLib/src/xmc4_gpio.c ****     /* Set output level */
  85:../Libraries/XMCLib/src/xmc4_gpio.c ****     port->OMR = (uint32_t)config->output_level << pin;
  98              	 .loc 1 85 0
  99 0076 7B68     	 ldr r3,[r7,#4]
 100 0078 5A68     	 ldr r2,[r3,#4]
 101 007a FB7A     	 ldrb r3,[r7,#11]
 102 007c 9A40     	 lsls r2,r2,r3
 103 007e FB68     	 ldr r3,[r7,#12]
 104 0080 5A60     	 str r2,[r3,#4]
  86:../Libraries/XMCLib/src/xmc4_gpio.c **** 
  87:../Libraries/XMCLib/src/xmc4_gpio.c ****     /* Set output driver strength */
  88:../Libraries/XMCLib/src/xmc4_gpio.c ****     port->PDR[pin >> 3U] &= (uint32_t)~(PORT_PDR_Msk << ((uint32_t)PORT_PDR_Size * ((uint32_t)pin &
 105              	 .loc 1 88 0
 106 0082 FB7A     	 ldrb r3,[r7,#11]
 107 0084 DB08     	 lsrs r3,r3,#3
 108 0086 DBB2     	 uxtb r3,r3
 109 0088 1846     	 mov r0,r3
 110 008a FB7A     	 ldrb r3,[r7,#11]
 111 008c DB08     	 lsrs r3,r3,#3
 112 008e DBB2     	 uxtb r3,r3
 113 0090 1A46     	 mov r2,r3
 114 0092 FB68     	 ldr r3,[r7,#12]
 115 0094 1032     	 adds r2,r2,#16
 116 0096 53F82220 	 ldr r2,[r3,r2,lsl#2]
 117 009a FB7A     	 ldrb r3,[r7,#11]
 118 009c 03F00703 	 and r3,r3,#7
 119 00a0 9B00     	 lsls r3,r3,#2
 120 00a2 1946     	 mov r1,r3
 121 00a4 0723     	 movs r3,#7
 122 00a6 8B40     	 lsls r3,r3,r1
 123 00a8 DB43     	 mvns r3,r3
 124 00aa 02EA0301 	 and r1,r2,r3
 125 00ae FB68     	 ldr r3,[r7,#12]
 126 00b0 00F11002 	 add r2,r0,#16
 127 00b4 43F82210 	 str r1,[r3,r2,lsl#2]
  89:../Libraries/XMCLib/src/xmc4_gpio.c ****     port->PDR[pin >> 3U] |= (uint32_t)config->output_strength << ((uint32_t)PORT_PDR_Size * ((uint3
 128              	 .loc 1 89 0
 129 00b8 FB7A     	 ldrb r3,[r7,#11]
 130 00ba DB08     	 lsrs r3,r3,#3
 131 00bc DBB2     	 uxtb r3,r3
 132 00be 1846     	 mov r0,r3
 133 00c0 FB7A     	 ldrb r3,[r7,#11]
 134 00c2 DB08     	 lsrs r3,r3,#3
 135 00c4 DBB2     	 uxtb r3,r3
 136 00c6 1A46     	 mov r2,r3
 137 00c8 FB68     	 ldr r3,[r7,#12]
 138 00ca 1032     	 adds r2,r2,#16
 139 00cc 53F82220 	 ldr r2,[r3,r2,lsl#2]
 140 00d0 7B68     	 ldr r3,[r7,#4]
 141 00d2 1B7A     	 ldrb r3,[r3,#8]
 142 00d4 1946     	 mov r1,r3
 143 00d6 FB7A     	 ldrb r3,[r7,#11]
 144 00d8 03F00703 	 and r3,r3,#7
 145 00dc 9B00     	 lsls r3,r3,#2
 146 00de 01FA03F3 	 lsl r3,r1,r3
 147 00e2 42EA0301 	 orr r1,r2,r3
 148 00e6 FB68     	 ldr r3,[r7,#12]
 149 00e8 00F11002 	 add r2,r0,#16
 150 00ec 43F82210 	 str r1,[r3,r2,lsl#2]
 151              	.L3:
  90:../Libraries/XMCLib/src/xmc4_gpio.c ****   }
  91:../Libraries/XMCLib/src/xmc4_gpio.c **** 
  92:../Libraries/XMCLib/src/xmc4_gpio.c ****   /* Set mode */
  93:../Libraries/XMCLib/src/xmc4_gpio.c ****   port->IOCR[pin >> 2U] |= (uint32_t)config->mode << ((uint32_t)PORT_IOCR_PC_Size * ((uint32_t)pin 
 152              	 .loc 1 93 0
 153 00f0 FB7A     	 ldrb r3,[r7,#11]
 154 00f2 9B08     	 lsrs r3,r3,#2
 155 00f4 DBB2     	 uxtb r3,r3
 156 00f6 1846     	 mov r0,r3
 157 00f8 FB7A     	 ldrb r3,[r7,#11]
 158 00fa 9B08     	 lsrs r3,r3,#2
 159 00fc DBB2     	 uxtb r3,r3
 160 00fe 1A46     	 mov r2,r3
 161 0100 FB68     	 ldr r3,[r7,#12]
 162 0102 0432     	 adds r2,r2,#4
 163 0104 53F82220 	 ldr r2,[r3,r2,lsl#2]
 164 0108 7B68     	 ldr r3,[r7,#4]
 165 010a 1B78     	 ldrb r3,[r3]
 166 010c 1946     	 mov r1,r3
 167 010e FB7A     	 ldrb r3,[r7,#11]
 168 0110 03F00303 	 and r3,r3,#3
 169 0114 DB00     	 lsls r3,r3,#3
 170 0116 01FA03F3 	 lsl r3,r1,r3
 171 011a 42EA0301 	 orr r1,r2,r3
 172 011e FB68     	 ldr r3,[r7,#12]
 173 0120 021D     	 adds r2,r0,#4
 174 0122 43F82210 	 str r1,[r3,r2,lsl#2]
  94:../Libraries/XMCLib/src/xmc4_gpio.c **** }
 175              	 .loc 1 94 0
 176 0126 1437     	 adds r7,r7,#20
 177              	.LCFI3:
 178              	 .cfi_def_cfa_offset 4
 179 0128 BD46     	 mov sp,r7
 180              	.LCFI4:
 181              	 .cfi_def_cfa_register 13
 182              	 
 183 012a 5DF8047B 	 ldr r7,[sp],#4
 184              	.LCFI5:
 185              	 .cfi_restore 7
 186              	 .cfi_def_cfa_offset 0
 187 012e 7047     	 bx lr
 188              	.L5:
 189              	 .align 2
 190              	.L4:
 191 0130 008E0248 	 .word 1208126976
 192              	 .cfi_endproc
 193              	.LFE137:
 195              	 .section .text.XMC_GPIO_SetOutputStrength,"ax",%progbits
 196              	 .align 2
 197              	 .global XMC_GPIO_SetOutputStrength
 198              	 .thumb
 199              	 .thumb_func
 201              	XMC_GPIO_SetOutputStrength:
 202              	.LFB138:
  95:../Libraries/XMCLib/src/xmc4_gpio.c **** 
  96:../Libraries/XMCLib/src/xmc4_gpio.c **** void XMC_GPIO_SetOutputStrength(XMC_GPIO_PORT_t *const port, const uint8_t pin, XMC_GPIO_OUTPUT_STR
  97:../Libraries/XMCLib/src/xmc4_gpio.c **** {
 203              	 .loc 1 97 0
 204              	 .cfi_startproc
 205              	 
 206              	 
 207              	 
 208 0000 80B4     	 push {r7}
 209              	.LCFI6:
 210              	 .cfi_def_cfa_offset 4
 211              	 .cfi_offset 7,-4
 212 0002 83B0     	 sub sp,sp,#12
 213              	.LCFI7:
 214              	 .cfi_def_cfa_offset 16
 215 0004 00AF     	 add r7,sp,#0
 216              	.LCFI8:
 217              	 .cfi_def_cfa_register 7
 218 0006 7860     	 str r0,[r7,#4]
 219 0008 0B46     	 mov r3,r1
 220 000a FB70     	 strb r3,[r7,#3]
 221 000c 1346     	 mov r3,r2
 222 000e BB70     	 strb r3,[r7,#2]
  98:../Libraries/XMCLib/src/xmc4_gpio.c ****   XMC_ASSERT("XMC_GPIO_Init: Invalid port", XMC_GPIO_CHECK_OUTPUT_PORT(port));
  99:../Libraries/XMCLib/src/xmc4_gpio.c ****   XMC_ASSERT("XMC_GPIO_Init: Invalid output strength", XMC_GPIO_CHECK_OUTPUT_STRENGTH(strength));
 100:../Libraries/XMCLib/src/xmc4_gpio.c **** 
 101:../Libraries/XMCLib/src/xmc4_gpio.c ****   port->PDR[pin >> 3U] &= (uint32_t)~((uint32_t)PORT_PDR_Msk << ((uint32_t)PORT_PDR_Size * ((uint32
 223              	 .loc 1 101 0
 224 0010 FB78     	 ldrb r3,[r7,#3]
 225 0012 DB08     	 lsrs r3,r3,#3
 226 0014 DBB2     	 uxtb r3,r3
 227 0016 1846     	 mov r0,r3
 228 0018 FB78     	 ldrb r3,[r7,#3]
 229 001a DB08     	 lsrs r3,r3,#3
 230 001c DBB2     	 uxtb r3,r3
 231 001e 1A46     	 mov r2,r3
 232 0020 7B68     	 ldr r3,[r7,#4]
 233 0022 1032     	 adds r2,r2,#16
 234 0024 53F82220 	 ldr r2,[r3,r2,lsl#2]
 235 0028 FB78     	 ldrb r3,[r7,#3]
 236 002a 03F00703 	 and r3,r3,#7
 237 002e 9B00     	 lsls r3,r3,#2
 238 0030 1946     	 mov r1,r3
 239 0032 0723     	 movs r3,#7
 240 0034 8B40     	 lsls r3,r3,r1
 241 0036 DB43     	 mvns r3,r3
 242 0038 02EA0301 	 and r1,r2,r3
 243 003c 7B68     	 ldr r3,[r7,#4]
 244 003e 00F11002 	 add r2,r0,#16
 245 0042 43F82210 	 str r1,[r3,r2,lsl#2]
 102:../Libraries/XMCLib/src/xmc4_gpio.c ****   port->PDR[pin >> 3U] |= (uint32_t)strength << ((uint32_t)PORT_PDR_Size * ((uint32_t)pin & 0x7U));
 246              	 .loc 1 102 0
 247 0046 FB78     	 ldrb r3,[r7,#3]
 248 0048 DB08     	 lsrs r3,r3,#3
 249 004a DBB2     	 uxtb r3,r3
 250 004c 1846     	 mov r0,r3
 251 004e FB78     	 ldrb r3,[r7,#3]
 252 0050 DB08     	 lsrs r3,r3,#3
 253 0052 DBB2     	 uxtb r3,r3
 254 0054 1A46     	 mov r2,r3
 255 0056 7B68     	 ldr r3,[r7,#4]
 256 0058 1032     	 adds r2,r2,#16
 257 005a 53F82220 	 ldr r2,[r3,r2,lsl#2]
 258 005e BB78     	 ldrb r3,[r7,#2]
 259 0060 F978     	 ldrb r1,[r7,#3]
 260 0062 01F00701 	 and r1,r1,#7
 261 0066 8900     	 lsls r1,r1,#2
 262 0068 8B40     	 lsls r3,r3,r1
 263 006a 42EA0301 	 orr r1,r2,r3
 264 006e 7B68     	 ldr r3,[r7,#4]
 265 0070 00F11002 	 add r2,r0,#16
 266 0074 43F82210 	 str r1,[r3,r2,lsl#2]
 103:../Libraries/XMCLib/src/xmc4_gpio.c **** }
 267              	 .loc 1 103 0
 268 0078 0C37     	 adds r7,r7,#12
 269              	.LCFI9:
 270              	 .cfi_def_cfa_offset 4
 271 007a BD46     	 mov sp,r7
 272              	.LCFI10:
 273              	 .cfi_def_cfa_register 13
 274              	 
 275 007c 5DF8047B 	 ldr r7,[sp],#4
 276              	.LCFI11:
 277              	 .cfi_restore 7
 278              	 .cfi_def_cfa_offset 0
 279 0080 7047     	 bx lr
 280              	 .cfi_endproc
 281              	.LFE138:
 283 0082 00BF     	 .text
 284              	.Letext0:
 285              	 .file 2 "c:\\davev4-64bit\\dave-4.2.6\\eclipse\\arm-gcc-49\\arm-none-eabi\\include\\machine\\_default_types.h"
 286              	 .file 3 "c:\\davev4-64bit\\dave-4.2.6\\eclipse\\arm-gcc-49\\arm-none-eabi\\include\\stdint.h"
 287              	 .file 4 "C:\\Users\\Depes Crystalline\\Desktop\\school\\Active_Bike_Lighting_System\\Radar_Core\\Libraries\\XMCLib\\inc/xmc_gpio.h"
 288              	 .file 5 "C:\\Users\\Depes Crystalline\\Desktop\\school\\Active_Bike_Lighting_System\\Radar_Core\\Libraries\\XMCLib\\inc/xmc4_gpio.h"
 289              	 .file 6 "C:\\Users\\Depes Crystalline\\Desktop\\school\\Active_Bike_Lighting_System\\Radar_Core/Libraries/CMSIS/Include/core_cm4.h"