   1              	 .syntax unified
   2              	 .cpu cortex-m4
   3              	 .fpu softvfp
   4              	 .eabi_attribute 20,1
   5              	 .eabi_attribute 21,1
   6              	 .eabi_attribute 23,3
   7              	 .eabi_attribute 24,1
   8              	 .eabi_attribute 25,1
   9              	 .eabi_attribute 26,1
  10              	 .eabi_attribute 30,6
  11              	 .eabi_attribute 34,1
  12              	 .eabi_attribute 18,4
  13              	 .thumb
  14              	 .file "xmc_dac.c"
  15              	 .text
  16              	.Ltext0:
  17              	 .cfi_sections .debug_frame
  18              	 .section .text.XMC_DAC_CH_EnableOutput,"ax",%progbits
  19              	 .align 2
  20              	 .thumb
  21              	 .thumb_func
  23              	XMC_DAC_CH_EnableOutput:
  24              	.LFB131:
  25              	 .file 1 "C:\\Users\\Depes Crystalline\\Desktop\\school\\Active_Bike_Lighting_System\\Radar_Core\\Libraries\\XMCLib\\inc/xmc_dac.h"
   1:C:\Users\Depes Crystalline\Desktop\school\Active_Bike_Lighting_System\Radar_Core\Libraries\XMCLib\inc\xmc_dac.h **** /**
   2:C:\Users\Depes Crystalline\Desktop\school\Active_Bike_Lighting_System\Radar_Core\Libraries\XMCLib\inc\xmc_dac.h ****  * @file xmc_dac.h
   3:C:\Users\Depes Crystalline\Desktop\school\Active_Bike_Lighting_System\Radar_Core\Libraries\XMCLib\inc\xmc_dac.h ****  * @date 2015-06-19 
   4:C:\Users\Depes Crystalline\Desktop\school\Active_Bike_Lighting_System\Radar_Core\Libraries\XMCLib\inc\xmc_dac.h ****  *
   5:C:\Users\Depes Crystalline\Desktop\school\Active_Bike_Lighting_System\Radar_Core\Libraries\XMCLib\inc\xmc_dac.h ****  * @cond
   6:C:\Users\Depes Crystalline\Desktop\school\Active_Bike_Lighting_System\Radar_Core\Libraries\XMCLib\inc\xmc_dac.h ****  **********************************************************************************
   7:C:\Users\Depes Crystalline\Desktop\school\Active_Bike_Lighting_System\Radar_Core\Libraries\XMCLib\inc\xmc_dac.h ****  * XMClib v2.0.0 - XMC Peripheral Driver Library
   8:C:\Users\Depes Crystalline\Desktop\school\Active_Bike_Lighting_System\Radar_Core\Libraries\XMCLib\inc\xmc_dac.h ****  *
   9:C:\Users\Depes Crystalline\Desktop\school\Active_Bike_Lighting_System\Radar_Core\Libraries\XMCLib\inc\xmc_dac.h ****  * Copyright (c) 2015, Infineon Technologies AG
  10:C:\Users\Depes Crystalline\Desktop\school\Active_Bike_Lighting_System\Radar_Core\Libraries\XMCLib\inc\xmc_dac.h ****  * All rights reserved.                        
  11:C:\Users\Depes Crystalline\Desktop\school\Active_Bike_Lighting_System\Radar_Core\Libraries\XMCLib\inc\xmc_dac.h ****  *                                             
  12:C:\Users\Depes Crystalline\Desktop\school\Active_Bike_Lighting_System\Radar_Core\Libraries\XMCLib\inc\xmc_dac.h ****  * Redistribution and use in source and binary forms, with or without           
  13:C:\Users\Depes Crystalline\Desktop\school\Active_Bike_Lighting_System\Radar_Core\Libraries\XMCLib\inc\xmc_dac.h ****  * modification,are permitted provided that the following conditions are met:   
  14:C:\Users\Depes Crystalline\Desktop\school\Active_Bike_Lighting_System\Radar_Core\Libraries\XMCLib\inc\xmc_dac.h ****  *                                                                              
  15:C:\Users\Depes Crystalline\Desktop\school\Active_Bike_Lighting_System\Radar_Core\Libraries\XMCLib\inc\xmc_dac.h ****  *   Redistributions of source code must retain the above copyright notice,      
  16:C:\Users\Depes Crystalline\Desktop\school\Active_Bike_Lighting_System\Radar_Core\Libraries\XMCLib\inc\xmc_dac.h ****  *   this list of conditions and the following disclaimer.                        
  17:C:\Users\Depes Crystalline\Desktop\school\Active_Bike_Lighting_System\Radar_Core\Libraries\XMCLib\inc\xmc_dac.h ****  * 
  18:C:\Users\Depes Crystalline\Desktop\school\Active_Bike_Lighting_System\Radar_Core\Libraries\XMCLib\inc\xmc_dac.h ****  *   Redistributions in binary form must reproduce the above copyright notice,   
  19:C:\Users\Depes Crystalline\Desktop\school\Active_Bike_Lighting_System\Radar_Core\Libraries\XMCLib\inc\xmc_dac.h ****  *   this list of conditions and the following disclaimer in the documentation    
  20:C:\Users\Depes Crystalline\Desktop\school\Active_Bike_Lighting_System\Radar_Core\Libraries\XMCLib\inc\xmc_dac.h ****  *   and/or other materials provided with the distribution.                       
  21:C:\Users\Depes Crystalline\Desktop\school\Active_Bike_Lighting_System\Radar_Core\Libraries\XMCLib\inc\xmc_dac.h ****  * 
  22:C:\Users\Depes Crystalline\Desktop\school\Active_Bike_Lighting_System\Radar_Core\Libraries\XMCLib\inc\xmc_dac.h ****  *   Neither the name of the copyright holders nor the names of its contributors 
  23:C:\Users\Depes Crystalline\Desktop\school\Active_Bike_Lighting_System\Radar_Core\Libraries\XMCLib\inc\xmc_dac.h ****  *   may be used to endorse or promote products derived from this software without
  24:C:\Users\Depes Crystalline\Desktop\school\Active_Bike_Lighting_System\Radar_Core\Libraries\XMCLib\inc\xmc_dac.h ****  *   specific prior written permission.                                           
  25:C:\Users\Depes Crystalline\Desktop\school\Active_Bike_Lighting_System\Radar_Core\Libraries\XMCLib\inc\xmc_dac.h ****  *                                                                              
  26:C:\Users\Depes Crystalline\Desktop\school\Active_Bike_Lighting_System\Radar_Core\Libraries\XMCLib\inc\xmc_dac.h ****  * THIS SOFTWARE IS PROVIDED BY THE COPYRIGHT HOLDERS AND CONTRIBUTORS "AS IS"  
  27:C:\Users\Depes Crystalline\Desktop\school\Active_Bike_Lighting_System\Radar_Core\Libraries\XMCLib\inc\xmc_dac.h ****  * AND ANY EXPRESS OR IMPLIED WARRANTIES, INCLUDING, BUT NOT LIMITED TO, THE    
  28:C:\Users\Depes Crystalline\Desktop\school\Active_Bike_Lighting_System\Radar_Core\Libraries\XMCLib\inc\xmc_dac.h ****  * IMPLIED WARRANTIES OF MERCHANTABILITY AND FITNESS FOR A PARTICULAR PURPOSE   
  29:C:\Users\Depes Crystalline\Desktop\school\Active_Bike_Lighting_System\Radar_Core\Libraries\XMCLib\inc\xmc_dac.h ****  * ARE  DISCLAIMED. IN NO EVENT SHALL THE COPYRIGHT HOLDER OR CONTRIBUTORS BE   
  30:C:\Users\Depes Crystalline\Desktop\school\Active_Bike_Lighting_System\Radar_Core\Libraries\XMCLib\inc\xmc_dac.h ****  * LIABLE  FOR ANY DIRECT, INDIRECT, INCIDENTAL, SPECIAL, EXEMPLARY, OR         
  31:C:\Users\Depes Crystalline\Desktop\school\Active_Bike_Lighting_System\Radar_Core\Libraries\XMCLib\inc\xmc_dac.h ****  * CONSEQUENTIAL DAMAGES (INCLUDING, BUT NOT LIMITED TO, PROCUREMENT OF         
  32:C:\Users\Depes Crystalline\Desktop\school\Active_Bike_Lighting_System\Radar_Core\Libraries\XMCLib\inc\xmc_dac.h ****  * SUBSTITUTE GOODS OR  SERVICES; LOSS OF USE, DATA, OR PROFITS; OR BUSINESS    
  33:C:\Users\Depes Crystalline\Desktop\school\Active_Bike_Lighting_System\Radar_Core\Libraries\XMCLib\inc\xmc_dac.h ****  * INTERRUPTION) HOWEVER CAUSED AND ON ANY THEORY OF LIABILITY, WHETHER IN      
  34:C:\Users\Depes Crystalline\Desktop\school\Active_Bike_Lighting_System\Radar_Core\Libraries\XMCLib\inc\xmc_dac.h ****  * CONTRACT, STRICT LIABILITY,OR TORT (INCLUDING NEGLIGENCE OR OTHERWISE)       
  35:C:\Users\Depes Crystalline\Desktop\school\Active_Bike_Lighting_System\Radar_Core\Libraries\XMCLib\inc\xmc_dac.h ****  * ARISING IN ANY WAY OUT OF THE USE OF THIS SOFTWARE, EVEN IF ADVISED OF THE   
  36:C:\Users\Depes Crystalline\Desktop\school\Active_Bike_Lighting_System\Radar_Core\Libraries\XMCLib\inc\xmc_dac.h ****  * POSSIBILITY OF SUCH DAMAGE.                                                  
  37:C:\Users\Depes Crystalline\Desktop\school\Active_Bike_Lighting_System\Radar_Core\Libraries\XMCLib\inc\xmc_dac.h ****  *                                                                              
  38:C:\Users\Depes Crystalline\Desktop\school\Active_Bike_Lighting_System\Radar_Core\Libraries\XMCLib\inc\xmc_dac.h ****  * To improve the quality of the software, users are encouraged to share        
  39:C:\Users\Depes Crystalline\Desktop\school\Active_Bike_Lighting_System\Radar_Core\Libraries\XMCLib\inc\xmc_dac.h ****  * modifications, enhancements or bug fixes with Infineon Technologies AG       
  40:C:\Users\Depes Crystalline\Desktop\school\Active_Bike_Lighting_System\Radar_Core\Libraries\XMCLib\inc\xmc_dac.h ****  * dave@infineon.com).                                                          
  41:C:\Users\Depes Crystalline\Desktop\school\Active_Bike_Lighting_System\Radar_Core\Libraries\XMCLib\inc\xmc_dac.h ****  **********************************************************************************
  42:C:\Users\Depes Crystalline\Desktop\school\Active_Bike_Lighting_System\Radar_Core\Libraries\XMCLib\inc\xmc_dac.h ****  *
  43:C:\Users\Depes Crystalline\Desktop\school\Active_Bike_Lighting_System\Radar_Core\Libraries\XMCLib\inc\xmc_dac.h ****  * Change History
  44:C:\Users\Depes Crystalline\Desktop\school\Active_Bike_Lighting_System\Radar_Core\Libraries\XMCLib\inc\xmc_dac.h ****  * --------------
  45:C:\Users\Depes Crystalline\Desktop\school\Active_Bike_Lighting_System\Radar_Core\Libraries\XMCLib\inc\xmc_dac.h ****  *
  46:C:\Users\Depes Crystalline\Desktop\school\Active_Bike_Lighting_System\Radar_Core\Libraries\XMCLib\inc\xmc_dac.h ****  * 2015-02-18:
  47:C:\Users\Depes Crystalline\Desktop\school\Active_Bike_Lighting_System\Radar_Core\Libraries\XMCLib\inc\xmc_dac.h ****  *     - Initial version
  48:C:\Users\Depes Crystalline\Desktop\school\Active_Bike_Lighting_System\Radar_Core\Libraries\XMCLib\inc\xmc_dac.h ****  *      
  49:C:\Users\Depes Crystalline\Desktop\school\Active_Bike_Lighting_System\Radar_Core\Libraries\XMCLib\inc\xmc_dac.h ****  * 2015-02-20:
  50:C:\Users\Depes Crystalline\Desktop\school\Active_Bike_Lighting_System\Radar_Core\Libraries\XMCLib\inc\xmc_dac.h ****  *     - Driver description added
  51:C:\Users\Depes Crystalline\Desktop\school\Active_Bike_Lighting_System\Radar_Core\Libraries\XMCLib\inc\xmc_dac.h ****  *
  52:C:\Users\Depes Crystalline\Desktop\school\Active_Bike_Lighting_System\Radar_Core\Libraries\XMCLib\inc\xmc_dac.h ****  * 2015-06-19:
  53:C:\Users\Depes Crystalline\Desktop\school\Active_Bike_Lighting_System\Radar_Core\Libraries\XMCLib\inc\xmc_dac.h ****  *     - Removed version macros and declaration of GetDriverVersion API
  54:C:\Users\Depes Crystalline\Desktop\school\Active_Bike_Lighting_System\Radar_Core\Libraries\XMCLib\inc\xmc_dac.h ****  * @endcond 
  55:C:\Users\Depes Crystalline\Desktop\school\Active_Bike_Lighting_System\Radar_Core\Libraries\XMCLib\inc\xmc_dac.h ****  *
  56:C:\Users\Depes Crystalline\Desktop\school\Active_Bike_Lighting_System\Radar_Core\Libraries\XMCLib\inc\xmc_dac.h ****  */
  57:C:\Users\Depes Crystalline\Desktop\school\Active_Bike_Lighting_System\Radar_Core\Libraries\XMCLib\inc\xmc_dac.h **** 
  58:C:\Users\Depes Crystalline\Desktop\school\Active_Bike_Lighting_System\Radar_Core\Libraries\XMCLib\inc\xmc_dac.h **** #ifndef XMC_DAC_H
  59:C:\Users\Depes Crystalline\Desktop\school\Active_Bike_Lighting_System\Radar_Core\Libraries\XMCLib\inc\xmc_dac.h **** #define XMC_DAC_H
  60:C:\Users\Depes Crystalline\Desktop\school\Active_Bike_Lighting_System\Radar_Core\Libraries\XMCLib\inc\xmc_dac.h **** 
  61:C:\Users\Depes Crystalline\Desktop\school\Active_Bike_Lighting_System\Radar_Core\Libraries\XMCLib\inc\xmc_dac.h **** /*******************************************************************************
  62:C:\Users\Depes Crystalline\Desktop\school\Active_Bike_Lighting_System\Radar_Core\Libraries\XMCLib\inc\xmc_dac.h ****  * HEADER FILES
  63:C:\Users\Depes Crystalline\Desktop\school\Active_Bike_Lighting_System\Radar_Core\Libraries\XMCLib\inc\xmc_dac.h ****  *******************************************************************************/
  64:C:\Users\Depes Crystalline\Desktop\school\Active_Bike_Lighting_System\Radar_Core\Libraries\XMCLib\inc\xmc_dac.h **** 
  65:C:\Users\Depes Crystalline\Desktop\school\Active_Bike_Lighting_System\Radar_Core\Libraries\XMCLib\inc\xmc_dac.h **** #include <xmc_common.h>
  66:C:\Users\Depes Crystalline\Desktop\school\Active_Bike_Lighting_System\Radar_Core\Libraries\XMCLib\inc\xmc_dac.h **** 
  67:C:\Users\Depes Crystalline\Desktop\school\Active_Bike_Lighting_System\Radar_Core\Libraries\XMCLib\inc\xmc_dac.h **** /* DAC peripheral is not available on XMC1X devices. */
  68:C:\Users\Depes Crystalline\Desktop\school\Active_Bike_Lighting_System\Radar_Core\Libraries\XMCLib\inc\xmc_dac.h **** #if defined(DAC)
  69:C:\Users\Depes Crystalline\Desktop\school\Active_Bike_Lighting_System\Radar_Core\Libraries\XMCLib\inc\xmc_dac.h **** 
  70:C:\Users\Depes Crystalline\Desktop\school\Active_Bike_Lighting_System\Radar_Core\Libraries\XMCLib\inc\xmc_dac.h **** /**
  71:C:\Users\Depes Crystalline\Desktop\school\Active_Bike_Lighting_System\Radar_Core\Libraries\XMCLib\inc\xmc_dac.h ****  * @addtogroup XMClib
  72:C:\Users\Depes Crystalline\Desktop\school\Active_Bike_Lighting_System\Radar_Core\Libraries\XMCLib\inc\xmc_dac.h ****  * @{
  73:C:\Users\Depes Crystalline\Desktop\school\Active_Bike_Lighting_System\Radar_Core\Libraries\XMCLib\inc\xmc_dac.h ****  */
  74:C:\Users\Depes Crystalline\Desktop\school\Active_Bike_Lighting_System\Radar_Core\Libraries\XMCLib\inc\xmc_dac.h **** 
  75:C:\Users\Depes Crystalline\Desktop\school\Active_Bike_Lighting_System\Radar_Core\Libraries\XMCLib\inc\xmc_dac.h **** /**
  76:C:\Users\Depes Crystalline\Desktop\school\Active_Bike_Lighting_System\Radar_Core\Libraries\XMCLib\inc\xmc_dac.h ****  * @addtogroup DAC
  77:C:\Users\Depes Crystalline\Desktop\school\Active_Bike_Lighting_System\Radar_Core\Libraries\XMCLib\inc\xmc_dac.h ****  * @{
  78:C:\Users\Depes Crystalline\Desktop\school\Active_Bike_Lighting_System\Radar_Core\Libraries\XMCLib\inc\xmc_dac.h ****  *
  79:C:\Users\Depes Crystalline\Desktop\school\Active_Bike_Lighting_System\Radar_Core\Libraries\XMCLib\inc\xmc_dac.h ****  * @brief Digital to Analog Converter (DAC) driver for XMC 4000 microcontroller family. <br>
  80:C:\Users\Depes Crystalline\Desktop\school\Active_Bike_Lighting_System\Radar_Core\Libraries\XMCLib\inc\xmc_dac.h ****  *
  81:C:\Users\Depes Crystalline\Desktop\school\Active_Bike_Lighting_System\Radar_Core\Libraries\XMCLib\inc\xmc_dac.h ****  * DAC driver uses DAC peripheral to convert digital value to analog value. XMC4000 microcontroller
  82:C:\Users\Depes Crystalline\Desktop\school\Active_Bike_Lighting_System\Radar_Core\Libraries\XMCLib\inc\xmc_dac.h ****  * and maximum conversion rate of 2MHz with full accuracy and 5MHz with reduced accuracy.
  83:C:\Users\Depes Crystalline\Desktop\school\Active_Bike_Lighting_System\Radar_Core\Libraries\XMCLib\inc\xmc_dac.h ****  * It consists of inbuilt pattern generator, ramp generator and noise generator modes. Additionally
  84:C:\Users\Depes Crystalline\Desktop\school\Active_Bike_Lighting_System\Radar_Core\Libraries\XMCLib\inc\xmc_dac.h ****  * in single value mode and in data mode.
  85:C:\Users\Depes Crystalline\Desktop\school\Active_Bike_Lighting_System\Radar_Core\Libraries\XMCLib\inc\xmc_dac.h ****  * It has DMA handling capability to generate custom waveforms in data mode without CPU interventio
  86:C:\Users\Depes Crystalline\Desktop\school\Active_Bike_Lighting_System\Radar_Core\Libraries\XMCLib\inc\xmc_dac.h ****  *
  87:C:\Users\Depes Crystalline\Desktop\school\Active_Bike_Lighting_System\Radar_Core\Libraries\XMCLib\inc\xmc_dac.h ****  * DAC driver features:
  88:C:\Users\Depes Crystalline\Desktop\school\Active_Bike_Lighting_System\Radar_Core\Libraries\XMCLib\inc\xmc_dac.h ****  * -#  Configuration structure XMC_DAC_CH_CONFIG_t and initialization function XMC_DAC_CH_Init() to
  89:C:\Users\Depes Crystalline\Desktop\school\Active_Bike_Lighting_System\Radar_Core\Libraries\XMCLib\inc\xmc_dac.h ****  * -#  Pattern Generator Mode:
  90:C:\Users\Depes Crystalline\Desktop\school\Active_Bike_Lighting_System\Radar_Core\Libraries\XMCLib\inc\xmc_dac.h ****  * 	- DAC is configured in pattern generator mode using XMC_DAC_CH_StartPatternMode()
  91:C:\Users\Depes Crystalline\Desktop\school\Active_Bike_Lighting_System\Radar_Core\Libraries\XMCLib\inc\xmc_dac.h ****  * 	- XMC_DAC_CH_SetPattern() is used to set the waveform pattern values in pattern register for on
  92:C:\Users\Depes Crystalline\Desktop\school\Active_Bike_Lighting_System\Radar_Core\Libraries\XMCLib\inc\xmc_dac.h ****  * 	- Allows to change the trigger frequency using XMC_DAC_CH_SetPatternFrequency()
  93:C:\Users\Depes Crystalline\Desktop\school\Active_Bike_Lighting_System\Radar_Core\Libraries\XMCLib\inc\xmc_dac.h ****  * -#  Single Value Mode:
  94:C:\Users\Depes Crystalline\Desktop\school\Active_Bike_Lighting_System\Radar_Core\Libraries\XMCLib\inc\xmc_dac.h ****  * 	- DAC is configured in single value mode using XMC_DAC_CH_StartSingleValueMode()
  95:C:\Users\Depes Crystalline\Desktop\school\Active_Bike_Lighting_System\Radar_Core\Libraries\XMCLib\inc\xmc_dac.h ****  * 	- Allows to change the trigger frequency using XMC_DAC_CH_SetFrequency()
  96:C:\Users\Depes Crystalline\Desktop\school\Active_Bike_Lighting_System\Radar_Core\Libraries\XMCLib\inc\xmc_dac.h ****  * -# Data Mode:
  97:C:\Users\Depes Crystalline\Desktop\school\Active_Bike_Lighting_System\Radar_Core\Libraries\XMCLib\inc\xmc_dac.h ****  * 	- DAC is configured in data mode using XMC_DAC_CH_StartDataMode()
  98:C:\Users\Depes Crystalline\Desktop\school\Active_Bike_Lighting_System\Radar_Core\Libraries\XMCLib\inc\xmc_dac.h ****  * 	- Allows to change the trigger frequency using XMC_DAC_CH_SetFrequency()
  99:C:\Users\Depes Crystalline\Desktop\school\Active_Bike_Lighting_System\Radar_Core\Libraries\XMCLib\inc\xmc_dac.h ****  * -# Ramp Mode:
 100:C:\Users\Depes Crystalline\Desktop\school\Active_Bike_Lighting_System\Radar_Core\Libraries\XMCLib\inc\xmc_dac.h ****  *  - DAC is configured in ramp generator mode using XMC_DAC_CH_StartRampMode()
 101:C:\Users\Depes Crystalline\Desktop\school\Active_Bike_Lighting_System\Radar_Core\Libraries\XMCLib\inc\xmc_dac.h ****  *  - Allows to change the trigger frequency using XMC_DAC_CH_SetRampFrequency()
 102:C:\Users\Depes Crystalline\Desktop\school\Active_Bike_Lighting_System\Radar_Core\Libraries\XMCLib\inc\xmc_dac.h ****  *  - Allows to set the start and stop values of the ramp using XMC_DAC_CH_SetRampStart() and XMC_D
 103:C:\Users\Depes Crystalline\Desktop\school\Active_Bike_Lighting_System\Radar_Core\Libraries\XMCLib\inc\xmc_dac.h ****  * -# Noise Mode:
 104:C:\Users\Depes Crystalline\Desktop\school\Active_Bike_Lighting_System\Radar_Core\Libraries\XMCLib\inc\xmc_dac.h ****  * 	- DAC is configured in noise mode using XMC_DAC_CH_StartNoiseMode()
 105:C:\Users\Depes Crystalline\Desktop\school\Active_Bike_Lighting_System\Radar_Core\Libraries\XMCLib\inc\xmc_dac.h ****  * 	- Allows to change the trigger frequency using XMC_DAC_CH_SetFrequency()
 106:C:\Users\Depes Crystalline\Desktop\school\Active_Bike_Lighting_System\Radar_Core\Libraries\XMCLib\inc\xmc_dac.h ****  * -# Allows to change the scale, offset dynamically using XMC_DAC_CH_SetOutputScale() and XMC_DAC_
 107:C:\Users\Depes Crystalline\Desktop\school\Active_Bike_Lighting_System\Radar_Core\Libraries\XMCLib\inc\xmc_dac.h ****  * -# Allows to select one of the eight possible trigger sources using XMC_DAC_CH_SetTrigger()
 108:C:\Users\Depes Crystalline\Desktop\school\Active_Bike_Lighting_System\Radar_Core\Libraries\XMCLib\inc\xmc_dac.h ****  * -# 2 DAC channels can be used in synchronization in single value mode and data mode to generate 
 109:C:\Users\Depes Crystalline\Desktop\school\Active_Bike_Lighting_System\Radar_Core\Libraries\XMCLib\inc\xmc_dac.h ****  */
 110:C:\Users\Depes Crystalline\Desktop\school\Active_Bike_Lighting_System\Radar_Core\Libraries\XMCLib\inc\xmc_dac.h **** 
 111:C:\Users\Depes Crystalline\Desktop\school\Active_Bike_Lighting_System\Radar_Core\Libraries\XMCLib\inc\xmc_dac.h **** /*******************************************************************************
 112:C:\Users\Depes Crystalline\Desktop\school\Active_Bike_Lighting_System\Radar_Core\Libraries\XMCLib\inc\xmc_dac.h ****  * MACROS
 113:C:\Users\Depes Crystalline\Desktop\school\Active_Bike_Lighting_System\Radar_Core\Libraries\XMCLib\inc\xmc_dac.h ****  *******************************************************************************/
 114:C:\Users\Depes Crystalline\Desktop\school\Active_Bike_Lighting_System\Radar_Core\Libraries\XMCLib\inc\xmc_dac.h **** 
 115:C:\Users\Depes Crystalline\Desktop\school\Active_Bike_Lighting_System\Radar_Core\Libraries\XMCLib\inc\xmc_dac.h **** #define XMC_DAC0 ((XMC_DAC_t *)DAC_BASE)         /**< DAC module register base */
 116:C:\Users\Depes Crystalline\Desktop\school\Active_Bike_Lighting_System\Radar_Core\Libraries\XMCLib\inc\xmc_dac.h **** 
 117:C:\Users\Depes Crystalline\Desktop\school\Active_Bike_Lighting_System\Radar_Core\Libraries\XMCLib\inc\xmc_dac.h **** #define XMC_DAC_DACCFG_NEGATE_Msk (0x10000000UL) /*< DAC negation enable mask in XMC44 device */
 118:C:\Users\Depes Crystalline\Desktop\school\Active_Bike_Lighting_System\Radar_Core\Libraries\XMCLib\inc\xmc_dac.h **** #define XMC_DAC_NO_CHANNELS (2U)                 /**< DAC maximum channels */
 119:C:\Users\Depes Crystalline\Desktop\school\Active_Bike_Lighting_System\Radar_Core\Libraries\XMCLib\inc\xmc_dac.h **** #define XMC_DAC_SAMPLES_PER_PERIOD (32U)         /**< DAC samples per period in pattern mode */
 120:C:\Users\Depes Crystalline\Desktop\school\Active_Bike_Lighting_System\Radar_Core\Libraries\XMCLib\inc\xmc_dac.h **** 
 121:C:\Users\Depes Crystalline\Desktop\school\Active_Bike_Lighting_System\Radar_Core\Libraries\XMCLib\inc\xmc_dac.h **** #define XMC_DAC_PATTERN_TRIANGLE  {0U, 4U, 8U, 12U, 16U, 19U, 23U, 27U, 31U} /**< First quarter Tri
 122:C:\Users\Depes Crystalline\Desktop\school\Active_Bike_Lighting_System\Radar_Core\Libraries\XMCLib\inc\xmc_dac.h **** #define XMC_DAC_PATTERN_SINE      {0U, 6U, 12U, 17U, 22U, 26U, 29U, 30U, 31U} /**< First quarter Si
 123:C:\Users\Depes Crystalline\Desktop\school\Active_Bike_Lighting_System\Radar_Core\Libraries\XMCLib\inc\xmc_dac.h **** #define XMC_DAC_PATTERN_RECTANGLE {31U, 31U, 31U, 31U, 31U, 31U, 31U, 31U, 31U} /**< First quarter 
 124:C:\Users\Depes Crystalline\Desktop\school\Active_Bike_Lighting_System\Radar_Core\Libraries\XMCLib\inc\xmc_dac.h **** 
 125:C:\Users\Depes Crystalline\Desktop\school\Active_Bike_Lighting_System\Radar_Core\Libraries\XMCLib\inc\xmc_dac.h **** #define XMC_DAC_IS_DAC_VALID(PTR)  ( ((PTR) == XMC_DAC0))  /*< Pointer validation for DAC module */
 126:C:\Users\Depes Crystalline\Desktop\school\Active_Bike_Lighting_System\Radar_Core\Libraries\XMCLib\inc\xmc_dac.h **** #define XMC_DAC_IS_CHANNEL_VALID(CH)  (((CH) == 0U) || ((CH) == 1U)) /*< CH validation */
 127:C:\Users\Depes Crystalline\Desktop\school\Active_Bike_Lighting_System\Radar_Core\Libraries\XMCLib\inc\xmc_dac.h **** 
 128:C:\Users\Depes Crystalline\Desktop\school\Active_Bike_Lighting_System\Radar_Core\Libraries\XMCLib\inc\xmc_dac.h **** /*******************************************************************************
 129:C:\Users\Depes Crystalline\Desktop\school\Active_Bike_Lighting_System\Radar_Core\Libraries\XMCLib\inc\xmc_dac.h ****  * ENUMS
 130:C:\Users\Depes Crystalline\Desktop\school\Active_Bike_Lighting_System\Radar_Core\Libraries\XMCLib\inc\xmc_dac.h ****  *******************************************************************************/
 131:C:\Users\Depes Crystalline\Desktop\school\Active_Bike_Lighting_System\Radar_Core\Libraries\XMCLib\inc\xmc_dac.h **** 
 132:C:\Users\Depes Crystalline\Desktop\school\Active_Bike_Lighting_System\Radar_Core\Libraries\XMCLib\inc\xmc_dac.h **** /**
 133:C:\Users\Depes Crystalline\Desktop\school\Active_Bike_Lighting_System\Radar_Core\Libraries\XMCLib\inc\xmc_dac.h ****  * Return types of the API's
 134:C:\Users\Depes Crystalline\Desktop\school\Active_Bike_Lighting_System\Radar_Core\Libraries\XMCLib\inc\xmc_dac.h ****  */
 135:C:\Users\Depes Crystalline\Desktop\school\Active_Bike_Lighting_System\Radar_Core\Libraries\XMCLib\inc\xmc_dac.h **** typedef enum XMC_DAC_CH_STATUS
 136:C:\Users\Depes Crystalline\Desktop\school\Active_Bike_Lighting_System\Radar_Core\Libraries\XMCLib\inc\xmc_dac.h **** {
 137:C:\Users\Depes Crystalline\Desktop\school\Active_Bike_Lighting_System\Radar_Core\Libraries\XMCLib\inc\xmc_dac.h ****   XMC_DAC_CH_STATUS_OK              = 0U, /**< Status is ok, no error detected */
 138:C:\Users\Depes Crystalline\Desktop\school\Active_Bike_Lighting_System\Radar_Core\Libraries\XMCLib\inc\xmc_dac.h ****   XMC_DAC_CH_STATUS_ERROR           = 1U, /**< Error detected */
 139:C:\Users\Depes Crystalline\Desktop\school\Active_Bike_Lighting_System\Radar_Core\Libraries\XMCLib\inc\xmc_dac.h ****   XMC_DAC_CH_STATUS_BUSY            = 2U, /**< DAC is busy */
 140:C:\Users\Depes Crystalline\Desktop\school\Active_Bike_Lighting_System\Radar_Core\Libraries\XMCLib\inc\xmc_dac.h ****   XMC_DAC_CH_STATUS_ERROR_FREQ2LOW  = 3U, /**< Frequency can't be configured. Frequency is to low. 
 141:C:\Users\Depes Crystalline\Desktop\school\Active_Bike_Lighting_System\Radar_Core\Libraries\XMCLib\inc\xmc_dac.h ****   XMC_DAC_CH_STATUS_ERROR_FREQ2HIGH = 4U  /**< Frequency can't be configured. Frequency is to high.
 142:C:\Users\Depes Crystalline\Desktop\school\Active_Bike_Lighting_System\Radar_Core\Libraries\XMCLib\inc\xmc_dac.h **** } XMC_DAC_CH_STATUS_t;
 143:C:\Users\Depes Crystalline\Desktop\school\Active_Bike_Lighting_System\Radar_Core\Libraries\XMCLib\inc\xmc_dac.h **** 
 144:C:\Users\Depes Crystalline\Desktop\school\Active_Bike_Lighting_System\Radar_Core\Libraries\XMCLib\inc\xmc_dac.h **** /**
 145:C:\Users\Depes Crystalline\Desktop\school\Active_Bike_Lighting_System\Radar_Core\Libraries\XMCLib\inc\xmc_dac.h ****  * Operating modes of DAC
 146:C:\Users\Depes Crystalline\Desktop\school\Active_Bike_Lighting_System\Radar_Core\Libraries\XMCLib\inc\xmc_dac.h ****  */
 147:C:\Users\Depes Crystalline\Desktop\school\Active_Bike_Lighting_System\Radar_Core\Libraries\XMCLib\inc\xmc_dac.h **** typedef enum XMC_DAC_CH_MODE
 148:C:\Users\Depes Crystalline\Desktop\school\Active_Bike_Lighting_System\Radar_Core\Libraries\XMCLib\inc\xmc_dac.h **** {
 149:C:\Users\Depes Crystalline\Desktop\school\Active_Bike_Lighting_System\Radar_Core\Libraries\XMCLib\inc\xmc_dac.h ****   XMC_DAC_CH_MODE_IDLE    = 0x0U << DAC_DAC0CFG0_MODE_Pos,    /**< DAC is disabled */
 150:C:\Users\Depes Crystalline\Desktop\school\Active_Bike_Lighting_System\Radar_Core\Libraries\XMCLib\inc\xmc_dac.h ****   XMC_DAC_CH_MODE_SINGLE  = 0x1U << DAC_DAC0CFG0_MODE_Pos,    /**< Single value mode - single data 
 151:C:\Users\Depes Crystalline\Desktop\school\Active_Bike_Lighting_System\Radar_Core\Libraries\XMCLib\inc\xmc_dac.h ****   XMC_DAC_CH_MODE_DATA    = 0x2U << DAC_DAC0CFG0_MODE_Pos,    /**< Data mode - continuous data proc
 152:C:\Users\Depes Crystalline\Desktop\school\Active_Bike_Lighting_System\Radar_Core\Libraries\XMCLib\inc\xmc_dac.h ****   XMC_DAC_CH_MODE_PATTERN = 0x3U << DAC_DAC0CFG0_MODE_Pos,    /**< Pattern mode - inbuilt pattern w
 153:C:\Users\Depes Crystalline\Desktop\school\Active_Bike_Lighting_System\Radar_Core\Libraries\XMCLib\inc\xmc_dac.h ****                                                                    Sine, Triangle, Rectangle */
 154:C:\Users\Depes Crystalline\Desktop\school\Active_Bike_Lighting_System\Radar_Core\Libraries\XMCLib\inc\xmc_dac.h ****   XMC_DAC_CH_MODE_NOISE   = 0x4U << DAC_DAC0CFG0_MODE_Pos,    /**< Noise mode - pseudo-random noise
 155:C:\Users\Depes Crystalline\Desktop\school\Active_Bike_Lighting_System\Radar_Core\Libraries\XMCLib\inc\xmc_dac.h ****   XMC_DAC_CH_MODE_RAMP    = 0x5U << DAC_DAC0CFG0_MODE_Pos     /**< Ramp mode - ramp generation */
 156:C:\Users\Depes Crystalline\Desktop\school\Active_Bike_Lighting_System\Radar_Core\Libraries\XMCLib\inc\xmc_dac.h **** } XMC_DAC_CH_MODE_t;
 157:C:\Users\Depes Crystalline\Desktop\school\Active_Bike_Lighting_System\Radar_Core\Libraries\XMCLib\inc\xmc_dac.h **** 
 158:C:\Users\Depes Crystalline\Desktop\school\Active_Bike_Lighting_System\Radar_Core\Libraries\XMCLib\inc\xmc_dac.h **** /**
 159:C:\Users\Depes Crystalline\Desktop\school\Active_Bike_Lighting_System\Radar_Core\Libraries\XMCLib\inc\xmc_dac.h ****  * Trigger sources for the data update
 160:C:\Users\Depes Crystalline\Desktop\school\Active_Bike_Lighting_System\Radar_Core\Libraries\XMCLib\inc\xmc_dac.h ****  */
 161:C:\Users\Depes Crystalline\Desktop\school\Active_Bike_Lighting_System\Radar_Core\Libraries\XMCLib\inc\xmc_dac.h **** typedef enum XMC_DAC_CH_TRIGGER
 162:C:\Users\Depes Crystalline\Desktop\school\Active_Bike_Lighting_System\Radar_Core\Libraries\XMCLib\inc\xmc_dac.h **** {
 163:C:\Users\Depes Crystalline\Desktop\school\Active_Bike_Lighting_System\Radar_Core\Libraries\XMCLib\inc\xmc_dac.h ****   XMC_DAC_CH_TRIGGER_INTERNAL =
 164:C:\Users\Depes Crystalline\Desktop\school\Active_Bike_Lighting_System\Radar_Core\Libraries\XMCLib\inc\xmc_dac.h ****       (0x0U << DAC_DAC0CFG1_TRIGMOD_Pos),                                      /**< Internal trigge
 165:C:\Users\Depes Crystalline\Desktop\school\Active_Bike_Lighting_System\Radar_Core\Libraries\XMCLib\inc\xmc_dac.h ****   XMC_DAC_CH_TRIGGER_EXTERNAL_CCU80_SR1 =
 166:C:\Users\Depes Crystalline\Desktop\school\Active_Bike_Lighting_System\Radar_Core\Libraries\XMCLib\inc\xmc_dac.h ****       (0x1U << DAC_DAC0CFG1_TRIGMOD_Pos) | 0x0U,                               /**< External trigge
 167:C:\Users\Depes Crystalline\Desktop\school\Active_Bike_Lighting_System\Radar_Core\Libraries\XMCLib\inc\xmc_dac.h ****   XMC_DAC_CH_TRIGGER_EXTERNAL_CCU40_SR1 =
 168:C:\Users\Depes Crystalline\Desktop\school\Active_Bike_Lighting_System\Radar_Core\Libraries\XMCLib\inc\xmc_dac.h ****       (0x1U << DAC_DAC0CFG1_TRIGMOD_Pos) | (0x2U << DAC_DAC0CFG1_TRIGSEL_Pos), /**< External trigge
 169:C:\Users\Depes Crystalline\Desktop\school\Active_Bike_Lighting_System\Radar_Core\Libraries\XMCLib\inc\xmc_dac.h ****   XMC_DAC_CH_TRIGGER_EXTERNAL_CCU41_SR1 =
 170:C:\Users\Depes Crystalline\Desktop\school\Active_Bike_Lighting_System\Radar_Core\Libraries\XMCLib\inc\xmc_dac.h ****       (0x1U << DAC_DAC0CFG1_TRIGMOD_Pos) | (0x3U << DAC_DAC0CFG1_TRIGSEL_Pos), /**< External trigge
 171:C:\Users\Depes Crystalline\Desktop\school\Active_Bike_Lighting_System\Radar_Core\Libraries\XMCLib\inc\xmc_dac.h ****   XMC_DAC_CH_TRIGGER_EXTERNAL_P2_9 =
 172:C:\Users\Depes Crystalline\Desktop\school\Active_Bike_Lighting_System\Radar_Core\Libraries\XMCLib\inc\xmc_dac.h ****       (0x1U << DAC_DAC0CFG1_TRIGMOD_Pos) | (0x4U << DAC_DAC0CFG1_TRIGSEL_Pos), /**< External trigge
 173:C:\Users\Depes Crystalline\Desktop\school\Active_Bike_Lighting_System\Radar_Core\Libraries\XMCLib\inc\xmc_dac.h ****   XMC_DAC_CH_TRIGGER_EXTERNAL_P2_8 =
 174:C:\Users\Depes Crystalline\Desktop\school\Active_Bike_Lighting_System\Radar_Core\Libraries\XMCLib\inc\xmc_dac.h ****       (0x1U << DAC_DAC0CFG1_TRIGMOD_Pos) | (0x5U << DAC_DAC0CFG1_TRIGSEL_Pos), /**< External trigge
 175:C:\Users\Depes Crystalline\Desktop\school\Active_Bike_Lighting_System\Radar_Core\Libraries\XMCLib\inc\xmc_dac.h ****   XMC_DAC_CH_TRIGGER_EXTERNAL_U0C0_DX1INS =
 176:C:\Users\Depes Crystalline\Desktop\school\Active_Bike_Lighting_System\Radar_Core\Libraries\XMCLib\inc\xmc_dac.h ****       (0x1U << DAC_DAC0CFG1_TRIGMOD_Pos) | (0x6U << DAC_DAC0CFG1_TRIGSEL_Pos), /**< External trigge
 177:C:\Users\Depes Crystalline\Desktop\school\Active_Bike_Lighting_System\Radar_Core\Libraries\XMCLib\inc\xmc_dac.h ****   XMC_DAC_CH_TRIGGER_EXTERNAL_U1C0_DX1INS =
 178:C:\Users\Depes Crystalline\Desktop\school\Active_Bike_Lighting_System\Radar_Core\Libraries\XMCLib\inc\xmc_dac.h ****       (0x1U << DAC_DAC0CFG1_TRIGMOD_Pos) | (0x7U << DAC_DAC0CFG1_TRIGSEL_Pos), /**< External trigge
 179:C:\Users\Depes Crystalline\Desktop\school\Active_Bike_Lighting_System\Radar_Core\Libraries\XMCLib\inc\xmc_dac.h ****   XMC_DAC_CH_TRIGGER_SOFTWARE =
 180:C:\Users\Depes Crystalline\Desktop\school\Active_Bike_Lighting_System\Radar_Core\Libraries\XMCLib\inc\xmc_dac.h ****       (0x2U << DAC_DAC0CFG1_TRIGMOD_Pos)                                       /**< Software trigge
 181:C:\Users\Depes Crystalline\Desktop\school\Active_Bike_Lighting_System\Radar_Core\Libraries\XMCLib\inc\xmc_dac.h **** } XMC_DAC_CH_TRIGGER_t;
 182:C:\Users\Depes Crystalline\Desktop\school\Active_Bike_Lighting_System\Radar_Core\Libraries\XMCLib\inc\xmc_dac.h **** 
 183:C:\Users\Depes Crystalline\Desktop\school\Active_Bike_Lighting_System\Radar_Core\Libraries\XMCLib\inc\xmc_dac.h **** /**
 184:C:\Users\Depes Crystalline\Desktop\school\Active_Bike_Lighting_System\Radar_Core\Libraries\XMCLib\inc\xmc_dac.h ****  * Data type of the input data
 185:C:\Users\Depes Crystalline\Desktop\school\Active_Bike_Lighting_System\Radar_Core\Libraries\XMCLib\inc\xmc_dac.h ****  */
 186:C:\Users\Depes Crystalline\Desktop\school\Active_Bike_Lighting_System\Radar_Core\Libraries\XMCLib\inc\xmc_dac.h **** typedef enum XMC_DAC_CH_DATA_TYPE
 187:C:\Users\Depes Crystalline\Desktop\school\Active_Bike_Lighting_System\Radar_Core\Libraries\XMCLib\inc\xmc_dac.h **** {
 188:C:\Users\Depes Crystalline\Desktop\school\Active_Bike_Lighting_System\Radar_Core\Libraries\XMCLib\inc\xmc_dac.h ****   XMC_DAC_CH_DATA_TYPE_UNSIGNED = 0U , /**< input data is unsigned */
 189:C:\Users\Depes Crystalline\Desktop\school\Active_Bike_Lighting_System\Radar_Core\Libraries\XMCLib\inc\xmc_dac.h ****   XMC_DAC_CH_DATA_TYPE_SIGNED = 1U     /**< input data is signed */
 190:C:\Users\Depes Crystalline\Desktop\school\Active_Bike_Lighting_System\Radar_Core\Libraries\XMCLib\inc\xmc_dac.h **** } XMC_DAC_CH_DATA_TYPE_t;
 191:C:\Users\Depes Crystalline\Desktop\school\Active_Bike_Lighting_System\Radar_Core\Libraries\XMCLib\inc\xmc_dac.h **** 
 192:C:\Users\Depes Crystalline\Desktop\school\Active_Bike_Lighting_System\Radar_Core\Libraries\XMCLib\inc\xmc_dac.h **** /**
 193:C:\Users\Depes Crystalline\Desktop\school\Active_Bike_Lighting_System\Radar_Core\Libraries\XMCLib\inc\xmc_dac.h ****  * Scaling of the input data
 194:C:\Users\Depes Crystalline\Desktop\school\Active_Bike_Lighting_System\Radar_Core\Libraries\XMCLib\inc\xmc_dac.h ****  */
 195:C:\Users\Depes Crystalline\Desktop\school\Active_Bike_Lighting_System\Radar_Core\Libraries\XMCLib\inc\xmc_dac.h **** typedef enum XMC_DAC_CH_OUTPUT_SCALE
 196:C:\Users\Depes Crystalline\Desktop\school\Active_Bike_Lighting_System\Radar_Core\Libraries\XMCLib\inc\xmc_dac.h **** {
 197:C:\Users\Depes Crystalline\Desktop\school\Active_Bike_Lighting_System\Radar_Core\Libraries\XMCLib\inc\xmc_dac.h ****   XMC_DAC_CH_OUTPUT_SCALE_NONE =
 198:C:\Users\Depes Crystalline\Desktop\school\Active_Bike_Lighting_System\Radar_Core\Libraries\XMCLib\inc\xmc_dac.h ****       0x0U,                                                                   /**< No scaling */
 199:C:\Users\Depes Crystalline\Desktop\school\Active_Bike_Lighting_System\Radar_Core\Libraries\XMCLib\inc\xmc_dac.h ****   XMC_DAC_CH_OUTPUT_SCALE_MUL_2 =
 200:C:\Users\Depes Crystalline\Desktop\school\Active_Bike_Lighting_System\Radar_Core\Libraries\XMCLib\inc\xmc_dac.h ****       (0x1U << DAC_DAC0CFG1_MULDIV_Pos) | (0x1U << DAC_DAC0CFG1_SCALE_Pos),   /**< multiplied by 2 
 201:C:\Users\Depes Crystalline\Desktop\school\Active_Bike_Lighting_System\Radar_Core\Libraries\XMCLib\inc\xmc_dac.h ****   XMC_DAC_CH_OUTPUT_SCALE_MUL_4 =
 202:C:\Users\Depes Crystalline\Desktop\school\Active_Bike_Lighting_System\Radar_Core\Libraries\XMCLib\inc\xmc_dac.h ****       (0x1U << DAC_DAC0CFG1_MULDIV_Pos) | (0x2U << DAC_DAC0CFG1_SCALE_Pos),   /**< multiplied by 4 
 203:C:\Users\Depes Crystalline\Desktop\school\Active_Bike_Lighting_System\Radar_Core\Libraries\XMCLib\inc\xmc_dac.h ****   XMC_DAC_CH_OUTPUT_SCALE_MUL_8 =
 204:C:\Users\Depes Crystalline\Desktop\school\Active_Bike_Lighting_System\Radar_Core\Libraries\XMCLib\inc\xmc_dac.h ****       (0x1U << DAC_DAC0CFG1_MULDIV_Pos) | (0x3U << DAC_DAC0CFG1_SCALE_Pos),   /**< multiplied by 8 
 205:C:\Users\Depes Crystalline\Desktop\school\Active_Bike_Lighting_System\Radar_Core\Libraries\XMCLib\inc\xmc_dac.h ****   XMC_DAC_CH_OUTPUT_SCALE_MUL_16 =
 206:C:\Users\Depes Crystalline\Desktop\school\Active_Bike_Lighting_System\Radar_Core\Libraries\XMCLib\inc\xmc_dac.h ****       (0x1U << DAC_DAC0CFG1_MULDIV_Pos) | (0x4U << DAC_DAC0CFG1_SCALE_Pos),   /**< multiplied by 16
 207:C:\Users\Depes Crystalline\Desktop\school\Active_Bike_Lighting_System\Radar_Core\Libraries\XMCLib\inc\xmc_dac.h ****   XMC_DAC_CH_OUTPUT_SCALE_MUL_32 =
 208:C:\Users\Depes Crystalline\Desktop\school\Active_Bike_Lighting_System\Radar_Core\Libraries\XMCLib\inc\xmc_dac.h ****       (0x1U << DAC_DAC0CFG1_MULDIV_Pos) | (0x5U << DAC_DAC0CFG1_SCALE_Pos),   /**< multiplied by 32
 209:C:\Users\Depes Crystalline\Desktop\school\Active_Bike_Lighting_System\Radar_Core\Libraries\XMCLib\inc\xmc_dac.h ****   XMC_DAC_CH_OUTPUT_SCALE_MUL_64 =
 210:C:\Users\Depes Crystalline\Desktop\school\Active_Bike_Lighting_System\Radar_Core\Libraries\XMCLib\inc\xmc_dac.h ****       (0x1U << DAC_DAC0CFG1_MULDIV_Pos) | (0x6U << DAC_DAC0CFG1_SCALE_Pos),   /**< multiplied by 64
 211:C:\Users\Depes Crystalline\Desktop\school\Active_Bike_Lighting_System\Radar_Core\Libraries\XMCLib\inc\xmc_dac.h ****   XMC_DAC_CH_OUTPUT_SCALE_MUL_128 =
 212:C:\Users\Depes Crystalline\Desktop\school\Active_Bike_Lighting_System\Radar_Core\Libraries\XMCLib\inc\xmc_dac.h ****       (0x1U << DAC_DAC0CFG1_MULDIV_Pos) | (0x7U << DAC_DAC0CFG1_SCALE_Pos),   /**< multiplied by 12
 213:C:\Users\Depes Crystalline\Desktop\school\Active_Bike_Lighting_System\Radar_Core\Libraries\XMCLib\inc\xmc_dac.h ****   XMC_DAC_CH_OUTPUT_SCALE_DIV_2 =
 214:C:\Users\Depes Crystalline\Desktop\school\Active_Bike_Lighting_System\Radar_Core\Libraries\XMCLib\inc\xmc_dac.h ****       0x1U << DAC_DAC0CFG1_SCALE_Pos,                                         /**< divided by 2 */
 215:C:\Users\Depes Crystalline\Desktop\school\Active_Bike_Lighting_System\Radar_Core\Libraries\XMCLib\inc\xmc_dac.h ****   XMC_DAC_CH_OUTPUT_SCALE_DIV_4 =
 216:C:\Users\Depes Crystalline\Desktop\school\Active_Bike_Lighting_System\Radar_Core\Libraries\XMCLib\inc\xmc_dac.h ****       0x2U << DAC_DAC0CFG1_SCALE_Pos,                                         /**< divided by 4 */
 217:C:\Users\Depes Crystalline\Desktop\school\Active_Bike_Lighting_System\Radar_Core\Libraries\XMCLib\inc\xmc_dac.h ****   XMC_DAC_CH_OUTPUT_SCALE_DIV_8 =
 218:C:\Users\Depes Crystalline\Desktop\school\Active_Bike_Lighting_System\Radar_Core\Libraries\XMCLib\inc\xmc_dac.h ****       0x3U << DAC_DAC0CFG1_SCALE_Pos,                                         /**< divided by 8 */
 219:C:\Users\Depes Crystalline\Desktop\school\Active_Bike_Lighting_System\Radar_Core\Libraries\XMCLib\inc\xmc_dac.h ****   XMC_DAC_CH_OUTPUT_SCALE_DIV_16 =
 220:C:\Users\Depes Crystalline\Desktop\school\Active_Bike_Lighting_System\Radar_Core\Libraries\XMCLib\inc\xmc_dac.h ****       0x4U << DAC_DAC0CFG1_SCALE_Pos,                                         /**< divided by 16 */
 221:C:\Users\Depes Crystalline\Desktop\school\Active_Bike_Lighting_System\Radar_Core\Libraries\XMCLib\inc\xmc_dac.h ****   XMC_DAC_CH_OUTPUT_SCALE_DIV_32 =
 222:C:\Users\Depes Crystalline\Desktop\school\Active_Bike_Lighting_System\Radar_Core\Libraries\XMCLib\inc\xmc_dac.h ****       0x5U << DAC_DAC0CFG1_SCALE_Pos,                                         /**< divided by 32 */
 223:C:\Users\Depes Crystalline\Desktop\school\Active_Bike_Lighting_System\Radar_Core\Libraries\XMCLib\inc\xmc_dac.h ****   XMC_DAC_CH_OUTPUT_SCALE_DIV_64 =
 224:C:\Users\Depes Crystalline\Desktop\school\Active_Bike_Lighting_System\Radar_Core\Libraries\XMCLib\inc\xmc_dac.h ****       0x6U << DAC_DAC0CFG1_SCALE_Pos,                                         /**< divided by 64 */
 225:C:\Users\Depes Crystalline\Desktop\school\Active_Bike_Lighting_System\Radar_Core\Libraries\XMCLib\inc\xmc_dac.h ****   XMC_DAC_CH_OUTPUT_SCALE_DIV_128 =
 226:C:\Users\Depes Crystalline\Desktop\school\Active_Bike_Lighting_System\Radar_Core\Libraries\XMCLib\inc\xmc_dac.h ****       0x7U << DAC_DAC0CFG1_SCALE_Pos                                          /**< divided by 128 *
 227:C:\Users\Depes Crystalline\Desktop\school\Active_Bike_Lighting_System\Radar_Core\Libraries\XMCLib\inc\xmc_dac.h **** } XMC_DAC_CH_OUTPUT_SCALE_t;
 228:C:\Users\Depes Crystalline\Desktop\school\Active_Bike_Lighting_System\Radar_Core\Libraries\XMCLib\inc\xmc_dac.h **** 
 229:C:\Users\Depes Crystalline\Desktop\school\Active_Bike_Lighting_System\Radar_Core\Libraries\XMCLib\inc\xmc_dac.h **** /**
 230:C:\Users\Depes Crystalline\Desktop\school\Active_Bike_Lighting_System\Radar_Core\Libraries\XMCLib\inc\xmc_dac.h ****  * Negation of input data (applicable only for XMC44 device)
 231:C:\Users\Depes Crystalline\Desktop\school\Active_Bike_Lighting_System\Radar_Core\Libraries\XMCLib\inc\xmc_dac.h ****  */
 232:C:\Users\Depes Crystalline\Desktop\school\Active_Bike_Lighting_System\Radar_Core\Libraries\XMCLib\inc\xmc_dac.h **** typedef enum XMC_DAC_CH_OUTPUT_NEGATION
 233:C:\Users\Depes Crystalline\Desktop\school\Active_Bike_Lighting_System\Radar_Core\Libraries\XMCLib\inc\xmc_dac.h **** {
 234:C:\Users\Depes Crystalline\Desktop\school\Active_Bike_Lighting_System\Radar_Core\Libraries\XMCLib\inc\xmc_dac.h ****   XMC_DAC_CH_OUTPUT_NEGATION_DISABLED = 0U,                   /**< XMC_DAC_CH_OUTPUT_NEGATION_DISAB
 235:C:\Users\Depes Crystalline\Desktop\school\Active_Bike_Lighting_System\Radar_Core\Libraries\XMCLib\inc\xmc_dac.h ****   XMC_DAC_CH_OUTPUT_NEGATION_ENABLED = 1U                     /**< XMC_DAC_CH_OUTPUT_NEGATION_ENABL
 236:C:\Users\Depes Crystalline\Desktop\school\Active_Bike_Lighting_System\Radar_Core\Libraries\XMCLib\inc\xmc_dac.h **** } XMC_DAC_CH_OUTPUT_NEGATION_t;
 237:C:\Users\Depes Crystalline\Desktop\school\Active_Bike_Lighting_System\Radar_Core\Libraries\XMCLib\inc\xmc_dac.h **** 
 238:C:\Users\Depes Crystalline\Desktop\school\Active_Bike_Lighting_System\Radar_Core\Libraries\XMCLib\inc\xmc_dac.h **** /**
 239:C:\Users\Depes Crystalline\Desktop\school\Active_Bike_Lighting_System\Radar_Core\Libraries\XMCLib\inc\xmc_dac.h ****  * Output sign signal for the Pattern Generation Mode
 240:C:\Users\Depes Crystalline\Desktop\school\Active_Bike_Lighting_System\Radar_Core\Libraries\XMCLib\inc\xmc_dac.h ****  */
 241:C:\Users\Depes Crystalline\Desktop\school\Active_Bike_Lighting_System\Radar_Core\Libraries\XMCLib\inc\xmc_dac.h **** typedef enum XMC_DAC_CH_PATTERN_SIGN_OUTPUT
 242:C:\Users\Depes Crystalline\Desktop\school\Active_Bike_Lighting_System\Radar_Core\Libraries\XMCLib\inc\xmc_dac.h **** {
 243:C:\Users\Depes Crystalline\Desktop\school\Active_Bike_Lighting_System\Radar_Core\Libraries\XMCLib\inc\xmc_dac.h ****   XMC_DAC_CH_PATTERN_SIGN_OUTPUT_DISABLED = 0U,  /**< Sign output signal generation is disabled */
 244:C:\Users\Depes Crystalline\Desktop\school\Active_Bike_Lighting_System\Radar_Core\Libraries\XMCLib\inc\xmc_dac.h ****   XMC_DAC_CH_PATTERN_SIGN_OUTPUT_ENABLED = 1U    /**< Sign output signal generation is enabled */
 245:C:\Users\Depes Crystalline\Desktop\school\Active_Bike_Lighting_System\Radar_Core\Libraries\XMCLib\inc\xmc_dac.h **** } XMC_DAC_CH_PATTERN_SIGN_OUTPUT_t;
 246:C:\Users\Depes Crystalline\Desktop\school\Active_Bike_Lighting_System\Radar_Core\Libraries\XMCLib\inc\xmc_dac.h **** 
 247:C:\Users\Depes Crystalline\Desktop\school\Active_Bike_Lighting_System\Radar_Core\Libraries\XMCLib\inc\xmc_dac.h **** /*******************************************************************************
 248:C:\Users\Depes Crystalline\Desktop\school\Active_Bike_Lighting_System\Radar_Core\Libraries\XMCLib\inc\xmc_dac.h ****  * DATA STRUCTURES
 249:C:\Users\Depes Crystalline\Desktop\school\Active_Bike_Lighting_System\Radar_Core\Libraries\XMCLib\inc\xmc_dac.h ****  *******************************************************************************/
 250:C:\Users\Depes Crystalline\Desktop\school\Active_Bike_Lighting_System\Radar_Core\Libraries\XMCLib\inc\xmc_dac.h **** /**
 251:C:\Users\Depes Crystalline\Desktop\school\Active_Bike_Lighting_System\Radar_Core\Libraries\XMCLib\inc\xmc_dac.h ****  * DAC peripheral registers configuration.
 252:C:\Users\Depes Crystalline\Desktop\school\Active_Bike_Lighting_System\Radar_Core\Libraries\XMCLib\inc\xmc_dac.h ****  */
 253:C:\Users\Depes Crystalline\Desktop\school\Active_Bike_Lighting_System\Radar_Core\Libraries\XMCLib\inc\xmc_dac.h **** typedef struct
 254:C:\Users\Depes Crystalline\Desktop\school\Active_Bike_Lighting_System\Radar_Core\Libraries\XMCLib\inc\xmc_dac.h **** {
 255:C:\Users\Depes Crystalline\Desktop\school\Active_Bike_Lighting_System\Radar_Core\Libraries\XMCLib\inc\xmc_dac.h ****   __I  uint32_t  ID;
 256:C:\Users\Depes Crystalline\Desktop\school\Active_Bike_Lighting_System\Radar_Core\Libraries\XMCLib\inc\xmc_dac.h **** 
 257:C:\Users\Depes Crystalline\Desktop\school\Active_Bike_Lighting_System\Radar_Core\Libraries\XMCLib\inc\xmc_dac.h ****   struct
 258:C:\Users\Depes Crystalline\Desktop\school\Active_Bike_Lighting_System\Radar_Core\Libraries\XMCLib\inc\xmc_dac.h ****   {
 259:C:\Users\Depes Crystalline\Desktop\school\Active_Bike_Lighting_System\Radar_Core\Libraries\XMCLib\inc\xmc_dac.h ****      __IO uint32_t low;
 260:C:\Users\Depes Crystalline\Desktop\school\Active_Bike_Lighting_System\Radar_Core\Libraries\XMCLib\inc\xmc_dac.h ****      __IO uint32_t high;
 261:C:\Users\Depes Crystalline\Desktop\school\Active_Bike_Lighting_System\Radar_Core\Libraries\XMCLib\inc\xmc_dac.h ****   } DACCFG[XMC_DAC_NO_CHANNELS];
 262:C:\Users\Depes Crystalline\Desktop\school\Active_Bike_Lighting_System\Radar_Core\Libraries\XMCLib\inc\xmc_dac.h **** 
 263:C:\Users\Depes Crystalline\Desktop\school\Active_Bike_Lighting_System\Radar_Core\Libraries\XMCLib\inc\xmc_dac.h ****   __IO uint32_t DACDATA[XMC_DAC_NO_CHANNELS];
 264:C:\Users\Depes Crystalline\Desktop\school\Active_Bike_Lighting_System\Radar_Core\Libraries\XMCLib\inc\xmc_dac.h ****   __IO uint32_t DAC01DATA;
 265:C:\Users\Depes Crystalline\Desktop\school\Active_Bike_Lighting_System\Radar_Core\Libraries\XMCLib\inc\xmc_dac.h **** 
 266:C:\Users\Depes Crystalline\Desktop\school\Active_Bike_Lighting_System\Radar_Core\Libraries\XMCLib\inc\xmc_dac.h ****   struct
 267:C:\Users\Depes Crystalline\Desktop\school\Active_Bike_Lighting_System\Radar_Core\Libraries\XMCLib\inc\xmc_dac.h ****   {
 268:C:\Users\Depes Crystalline\Desktop\school\Active_Bike_Lighting_System\Radar_Core\Libraries\XMCLib\inc\xmc_dac.h ****      __IO uint32_t low;
 269:C:\Users\Depes Crystalline\Desktop\school\Active_Bike_Lighting_System\Radar_Core\Libraries\XMCLib\inc\xmc_dac.h ****      __IO uint32_t high;
 270:C:\Users\Depes Crystalline\Desktop\school\Active_Bike_Lighting_System\Radar_Core\Libraries\XMCLib\inc\xmc_dac.h ****   } DACPAT[XMC_DAC_NO_CHANNELS];
 271:C:\Users\Depes Crystalline\Desktop\school\Active_Bike_Lighting_System\Radar_Core\Libraries\XMCLib\inc\xmc_dac.h **** 
 272:C:\Users\Depes Crystalline\Desktop\school\Active_Bike_Lighting_System\Radar_Core\Libraries\XMCLib\inc\xmc_dac.h **** } XMC_DAC_t;
 273:C:\Users\Depes Crystalline\Desktop\school\Active_Bike_Lighting_System\Radar_Core\Libraries\XMCLib\inc\xmc_dac.h **** 
 274:C:\Users\Depes Crystalline\Desktop\school\Active_Bike_Lighting_System\Radar_Core\Libraries\XMCLib\inc\xmc_dac.h **** /*Anonymous structure/union guard start*/
 275:C:\Users\Depes Crystalline\Desktop\school\Active_Bike_Lighting_System\Radar_Core\Libraries\XMCLib\inc\xmc_dac.h **** #if defined(__CC_ARM)
 276:C:\Users\Depes Crystalline\Desktop\school\Active_Bike_Lighting_System\Radar_Core\Libraries\XMCLib\inc\xmc_dac.h ****   #pragma push
 277:C:\Users\Depes Crystalline\Desktop\school\Active_Bike_Lighting_System\Radar_Core\Libraries\XMCLib\inc\xmc_dac.h ****   #pragma anon_unions
 278:C:\Users\Depes Crystalline\Desktop\school\Active_Bike_Lighting_System\Radar_Core\Libraries\XMCLib\inc\xmc_dac.h **** #elif defined(__TASKING__)
 279:C:\Users\Depes Crystalline\Desktop\school\Active_Bike_Lighting_System\Radar_Core\Libraries\XMCLib\inc\xmc_dac.h ****   #pragma warning 586
 280:C:\Users\Depes Crystalline\Desktop\school\Active_Bike_Lighting_System\Radar_Core\Libraries\XMCLib\inc\xmc_dac.h **** #endif
 281:C:\Users\Depes Crystalline\Desktop\school\Active_Bike_Lighting_System\Radar_Core\Libraries\XMCLib\inc\xmc_dac.h **** 
 282:C:\Users\Depes Crystalline\Desktop\school\Active_Bike_Lighting_System\Radar_Core\Libraries\XMCLib\inc\xmc_dac.h **** /**
 283:C:\Users\Depes Crystalline\Desktop\school\Active_Bike_Lighting_System\Radar_Core\Libraries\XMCLib\inc\xmc_dac.h ****  * Channel related configuration
 284:C:\Users\Depes Crystalline\Desktop\school\Active_Bike_Lighting_System\Radar_Core\Libraries\XMCLib\inc\xmc_dac.h ****  */
 285:C:\Users\Depes Crystalline\Desktop\school\Active_Bike_Lighting_System\Radar_Core\Libraries\XMCLib\inc\xmc_dac.h **** typedef struct XMC_DAC_CH_CONFIG
 286:C:\Users\Depes Crystalline\Desktop\school\Active_Bike_Lighting_System\Radar_Core\Libraries\XMCLib\inc\xmc_dac.h **** {
 287:C:\Users\Depes Crystalline\Desktop\school\Active_Bike_Lighting_System\Radar_Core\Libraries\XMCLib\inc\xmc_dac.h ****   union
 288:C:\Users\Depes Crystalline\Desktop\school\Active_Bike_Lighting_System\Radar_Core\Libraries\XMCLib\inc\xmc_dac.h ****   {
 289:C:\Users\Depes Crystalline\Desktop\school\Active_Bike_Lighting_System\Radar_Core\Libraries\XMCLib\inc\xmc_dac.h ****   struct
 290:C:\Users\Depes Crystalline\Desktop\school\Active_Bike_Lighting_System\Radar_Core\Libraries\XMCLib\inc\xmc_dac.h ****   {
 291:C:\Users\Depes Crystalline\Desktop\school\Active_Bike_Lighting_System\Radar_Core\Libraries\XMCLib\inc\xmc_dac.h ****     uint32_t :23;                /**< Not used bits */
 292:C:\Users\Depes Crystalline\Desktop\school\Active_Bike_Lighting_System\Radar_Core\Libraries\XMCLib\inc\xmc_dac.h ****     uint32_t data_type:1;        /**< input data type - unsigned / signed */
 293:C:\Users\Depes Crystalline\Desktop\school\Active_Bike_Lighting_System\Radar_Core\Libraries\XMCLib\inc\xmc_dac.h ****     uint32_t :4;                 /**< Not used bits */
 294:C:\Users\Depes Crystalline\Desktop\school\Active_Bike_Lighting_System\Radar_Core\Libraries\XMCLib\inc\xmc_dac.h ****     uint32_t output_negation:1;  /**< Negation of the output waveform enabled/disabled */
 295:C:\Users\Depes Crystalline\Desktop\school\Active_Bike_Lighting_System\Radar_Core\Libraries\XMCLib\inc\xmc_dac.h ****     uint32_t :3;
 296:C:\Users\Depes Crystalline\Desktop\school\Active_Bike_Lighting_System\Radar_Core\Libraries\XMCLib\inc\xmc_dac.h ****   };
 297:C:\Users\Depes Crystalline\Desktop\school\Active_Bike_Lighting_System\Radar_Core\Libraries\XMCLib\inc\xmc_dac.h ****   uint32_t cfg0;
 298:C:\Users\Depes Crystalline\Desktop\school\Active_Bike_Lighting_System\Radar_Core\Libraries\XMCLib\inc\xmc_dac.h ****   };
 299:C:\Users\Depes Crystalline\Desktop\school\Active_Bike_Lighting_System\Radar_Core\Libraries\XMCLib\inc\xmc_dac.h ****   union
 300:C:\Users\Depes Crystalline\Desktop\school\Active_Bike_Lighting_System\Radar_Core\Libraries\XMCLib\inc\xmc_dac.h ****   {
 301:C:\Users\Depes Crystalline\Desktop\school\Active_Bike_Lighting_System\Radar_Core\Libraries\XMCLib\inc\xmc_dac.h ****   struct
 302:C:\Users\Depes Crystalline\Desktop\school\Active_Bike_Lighting_System\Radar_Core\Libraries\XMCLib\inc\xmc_dac.h ****   {
 303:C:\Users\Depes Crystalline\Desktop\school\Active_Bike_Lighting_System\Radar_Core\Libraries\XMCLib\inc\xmc_dac.h ****     uint32_t output_scale:4;  /**< Scale value of type XMC_DAC_CH_OUTPUT_SCALE_t. It includes scali
 304:C:\Users\Depes Crystalline\Desktop\school\Active_Bike_Lighting_System\Radar_Core\Libraries\XMCLib\inc\xmc_dac.h ****     uint32_t output_offset:8; /**< offset value */
 305:C:\Users\Depes Crystalline\Desktop\school\Active_Bike_Lighting_System\Radar_Core\Libraries\XMCLib\inc\xmc_dac.h ****     uint32_t :20;
 306:C:\Users\Depes Crystalline\Desktop\school\Active_Bike_Lighting_System\Radar_Core\Libraries\XMCLib\inc\xmc_dac.h ****   };
 307:C:\Users\Depes Crystalline\Desktop\school\Active_Bike_Lighting_System\Radar_Core\Libraries\XMCLib\inc\xmc_dac.h ****   uint32_t cfg1;
 308:C:\Users\Depes Crystalline\Desktop\school\Active_Bike_Lighting_System\Radar_Core\Libraries\XMCLib\inc\xmc_dac.h ****   };
 309:C:\Users\Depes Crystalline\Desktop\school\Active_Bike_Lighting_System\Radar_Core\Libraries\XMCLib\inc\xmc_dac.h **** } XMC_DAC_CH_CONFIG_t;
 310:C:\Users\Depes Crystalline\Desktop\school\Active_Bike_Lighting_System\Radar_Core\Libraries\XMCLib\inc\xmc_dac.h **** /*Anonymous structure/union guard end*/
 311:C:\Users\Depes Crystalline\Desktop\school\Active_Bike_Lighting_System\Radar_Core\Libraries\XMCLib\inc\xmc_dac.h **** #if defined(__CC_ARM)
 312:C:\Users\Depes Crystalline\Desktop\school\Active_Bike_Lighting_System\Radar_Core\Libraries\XMCLib\inc\xmc_dac.h ****   #pragma pop
 313:C:\Users\Depes Crystalline\Desktop\school\Active_Bike_Lighting_System\Radar_Core\Libraries\XMCLib\inc\xmc_dac.h **** #elif defined(__TASKING__)
 314:C:\Users\Depes Crystalline\Desktop\school\Active_Bike_Lighting_System\Radar_Core\Libraries\XMCLib\inc\xmc_dac.h ****   #pragma warning restore
 315:C:\Users\Depes Crystalline\Desktop\school\Active_Bike_Lighting_System\Radar_Core\Libraries\XMCLib\inc\xmc_dac.h **** #endif
 316:C:\Users\Depes Crystalline\Desktop\school\Active_Bike_Lighting_System\Radar_Core\Libraries\XMCLib\inc\xmc_dac.h **** /*******************************************************************************
 317:C:\Users\Depes Crystalline\Desktop\school\Active_Bike_Lighting_System\Radar_Core\Libraries\XMCLib\inc\xmc_dac.h ****  * API PROTOTYPES
 318:C:\Users\Depes Crystalline\Desktop\school\Active_Bike_Lighting_System\Radar_Core\Libraries\XMCLib\inc\xmc_dac.h ****  *******************************************************************************/
 319:C:\Users\Depes Crystalline\Desktop\school\Active_Bike_Lighting_System\Radar_Core\Libraries\XMCLib\inc\xmc_dac.h **** 
 320:C:\Users\Depes Crystalline\Desktop\school\Active_Bike_Lighting_System\Radar_Core\Libraries\XMCLib\inc\xmc_dac.h **** #ifdef __cplusplus
 321:C:\Users\Depes Crystalline\Desktop\school\Active_Bike_Lighting_System\Radar_Core\Libraries\XMCLib\inc\xmc_dac.h **** extern "C" {
 322:C:\Users\Depes Crystalline\Desktop\school\Active_Bike_Lighting_System\Radar_Core\Libraries\XMCLib\inc\xmc_dac.h **** #endif
 323:C:\Users\Depes Crystalline\Desktop\school\Active_Bike_Lighting_System\Radar_Core\Libraries\XMCLib\inc\xmc_dac.h **** 
 324:C:\Users\Depes Crystalline\Desktop\school\Active_Bike_Lighting_System\Radar_Core\Libraries\XMCLib\inc\xmc_dac.h **** /**
 325:C:\Users\Depes Crystalline\Desktop\school\Active_Bike_Lighting_System\Radar_Core\Libraries\XMCLib\inc\xmc_dac.h ****  * @param dac Pointer to an instance of DAC module
 326:C:\Users\Depes Crystalline\Desktop\school\Active_Bike_Lighting_System\Radar_Core\Libraries\XMCLib\inc\xmc_dac.h ****  *
 327:C:\Users\Depes Crystalline\Desktop\school\Active_Bike_Lighting_System\Radar_Core\Libraries\XMCLib\inc\xmc_dac.h ****  * @return None
 328:C:\Users\Depes Crystalline\Desktop\school\Active_Bike_Lighting_System\Radar_Core\Libraries\XMCLib\inc\xmc_dac.h ****  *
 329:C:\Users\Depes Crystalline\Desktop\school\Active_Bike_Lighting_System\Radar_Core\Libraries\XMCLib\inc\xmc_dac.h ****  * \par<b>Description:</b><br>
 330:C:\Users\Depes Crystalline\Desktop\school\Active_Bike_Lighting_System\Radar_Core\Libraries\XMCLib\inc\xmc_dac.h ****  * Enables DAC clock and releases DAC reset.<br>
 331:C:\Users\Depes Crystalline\Desktop\school\Active_Bike_Lighting_System\Radar_Core\Libraries\XMCLib\inc\xmc_dac.h ****  *
 332:C:\Users\Depes Crystalline\Desktop\school\Active_Bike_Lighting_System\Radar_Core\Libraries\XMCLib\inc\xmc_dac.h ****  * \par
 333:C:\Users\Depes Crystalline\Desktop\school\Active_Bike_Lighting_System\Radar_Core\Libraries\XMCLib\inc\xmc_dac.h ****  * Enabling DAC is the first step of DAC initialisation. This API is called by XMC_DAC_CH_Init().
 334:C:\Users\Depes Crystalline\Desktop\school\Active_Bike_Lighting_System\Radar_Core\Libraries\XMCLib\inc\xmc_dac.h ****  * DAC clock is enabled by setting \a DAC bit of \a CGATCLR1 register. DAC reset is released by set
 335:C:\Users\Depes Crystalline\Desktop\school\Active_Bike_Lighting_System\Radar_Core\Libraries\XMCLib\inc\xmc_dac.h ****  *
 336:C:\Users\Depes Crystalline\Desktop\school\Active_Bike_Lighting_System\Radar_Core\Libraries\XMCLib\inc\xmc_dac.h ****  *
 337:C:\Users\Depes Crystalline\Desktop\school\Active_Bike_Lighting_System\Radar_Core\Libraries\XMCLib\inc\xmc_dac.h ****  * \par<b>Related APIs:</b><BR>
 338:C:\Users\Depes Crystalline\Desktop\school\Active_Bike_Lighting_System\Radar_Core\Libraries\XMCLib\inc\xmc_dac.h ****  * XMC_DAC_IsEnabled(), XMC_DAC_Disable(), XMC_DAC_CH_Init()\n\n\n
 339:C:\Users\Depes Crystalline\Desktop\school\Active_Bike_Lighting_System\Radar_Core\Libraries\XMCLib\inc\xmc_dac.h ****  *
 340:C:\Users\Depes Crystalline\Desktop\school\Active_Bike_Lighting_System\Radar_Core\Libraries\XMCLib\inc\xmc_dac.h ****  */
 341:C:\Users\Depes Crystalline\Desktop\school\Active_Bike_Lighting_System\Radar_Core\Libraries\XMCLib\inc\xmc_dac.h **** void XMC_DAC_Enable(XMC_DAC_t *const dac);
 342:C:\Users\Depes Crystalline\Desktop\school\Active_Bike_Lighting_System\Radar_Core\Libraries\XMCLib\inc\xmc_dac.h **** 
 343:C:\Users\Depes Crystalline\Desktop\school\Active_Bike_Lighting_System\Radar_Core\Libraries\XMCLib\inc\xmc_dac.h **** /**
 344:C:\Users\Depes Crystalline\Desktop\school\Active_Bike_Lighting_System\Radar_Core\Libraries\XMCLib\inc\xmc_dac.h ****  * @param dac Pointer to an instance of DAC module
 345:C:\Users\Depes Crystalline\Desktop\school\Active_Bike_Lighting_System\Radar_Core\Libraries\XMCLib\inc\xmc_dac.h ****  *
 346:C:\Users\Depes Crystalline\Desktop\school\Active_Bike_Lighting_System\Radar_Core\Libraries\XMCLib\inc\xmc_dac.h ****  * @return None
 347:C:\Users\Depes Crystalline\Desktop\school\Active_Bike_Lighting_System\Radar_Core\Libraries\XMCLib\inc\xmc_dac.h ****  *
 348:C:\Users\Depes Crystalline\Desktop\school\Active_Bike_Lighting_System\Radar_Core\Libraries\XMCLib\inc\xmc_dac.h ****  * \par<b>Description:</b><br>
 349:C:\Users\Depes Crystalline\Desktop\school\Active_Bike_Lighting_System\Radar_Core\Libraries\XMCLib\inc\xmc_dac.h ****  * Disables DAC clock and resets DAC.
 350:C:\Users\Depes Crystalline\Desktop\school\Active_Bike_Lighting_System\Radar_Core\Libraries\XMCLib\inc\xmc_dac.h ****  *
 351:C:\Users\Depes Crystalline\Desktop\school\Active_Bike_Lighting_System\Radar_Core\Libraries\XMCLib\inc\xmc_dac.h ****  * \par
 352:C:\Users\Depes Crystalline\Desktop\school\Active_Bike_Lighting_System\Radar_Core\Libraries\XMCLib\inc\xmc_dac.h ****  * DAC clock is disabled by setting \a DAC bit of \a CGATSET1 register. DAC is reset by setting \a 
 353:C:\Users\Depes Crystalline\Desktop\school\Active_Bike_Lighting_System\Radar_Core\Libraries\XMCLib\inc\xmc_dac.h ****  *
 354:C:\Users\Depes Crystalline\Desktop\school\Active_Bike_Lighting_System\Radar_Core\Libraries\XMCLib\inc\xmc_dac.h ****  * \par<b>Related APIs:</b><BR>
 355:C:\Users\Depes Crystalline\Desktop\school\Active_Bike_Lighting_System\Radar_Core\Libraries\XMCLib\inc\xmc_dac.h ****  * XMC_DAC_IsEnabled(), XMC_DAC_Enable()\n\n\n
 356:C:\Users\Depes Crystalline\Desktop\school\Active_Bike_Lighting_System\Radar_Core\Libraries\XMCLib\inc\xmc_dac.h ****  *
 357:C:\Users\Depes Crystalline\Desktop\school\Active_Bike_Lighting_System\Radar_Core\Libraries\XMCLib\inc\xmc_dac.h ****  */
 358:C:\Users\Depes Crystalline\Desktop\school\Active_Bike_Lighting_System\Radar_Core\Libraries\XMCLib\inc\xmc_dac.h **** void XMC_DAC_Disable(XMC_DAC_t *const dac);
 359:C:\Users\Depes Crystalline\Desktop\school\Active_Bike_Lighting_System\Radar_Core\Libraries\XMCLib\inc\xmc_dac.h **** 
 360:C:\Users\Depes Crystalline\Desktop\school\Active_Bike_Lighting_System\Radar_Core\Libraries\XMCLib\inc\xmc_dac.h **** /**
 361:C:\Users\Depes Crystalline\Desktop\school\Active_Bike_Lighting_System\Radar_Core\Libraries\XMCLib\inc\xmc_dac.h ****  * @param dac Pointer to an instance of DAC module
 362:C:\Users\Depes Crystalline\Desktop\school\Active_Bike_Lighting_System\Radar_Core\Libraries\XMCLib\inc\xmc_dac.h ****  *
 363:C:\Users\Depes Crystalline\Desktop\school\Active_Bike_Lighting_System\Radar_Core\Libraries\XMCLib\inc\xmc_dac.h ****  * @return bool<br>
 364:C:\Users\Depes Crystalline\Desktop\school\Active_Bike_Lighting_System\Radar_Core\Libraries\XMCLib\inc\xmc_dac.h ****  * true  - if DAC is enabled<br>
 365:C:\Users\Depes Crystalline\Desktop\school\Active_Bike_Lighting_System\Radar_Core\Libraries\XMCLib\inc\xmc_dac.h ****  * false - if DAC is disabled
 366:C:\Users\Depes Crystalline\Desktop\school\Active_Bike_Lighting_System\Radar_Core\Libraries\XMCLib\inc\xmc_dac.h ****  *
 367:C:\Users\Depes Crystalline\Desktop\school\Active_Bike_Lighting_System\Radar_Core\Libraries\XMCLib\inc\xmc_dac.h ****  * \par<b>Description:</b><br>
 368:C:\Users\Depes Crystalline\Desktop\school\Active_Bike_Lighting_System\Radar_Core\Libraries\XMCLib\inc\xmc_dac.h ****  * Returns the state of the DAC.
 369:C:\Users\Depes Crystalline\Desktop\school\Active_Bike_Lighting_System\Radar_Core\Libraries\XMCLib\inc\xmc_dac.h ****  *
 370:C:\Users\Depes Crystalline\Desktop\school\Active_Bike_Lighting_System\Radar_Core\Libraries\XMCLib\inc\xmc_dac.h ****  * \par
 371:C:\Users\Depes Crystalline\Desktop\school\Active_Bike_Lighting_System\Radar_Core\Libraries\XMCLib\inc\xmc_dac.h ****  * DAC enabled status is determined by referring to \a DACRS bit of \a PRSTAT1 register.
 372:C:\Users\Depes Crystalline\Desktop\school\Active_Bike_Lighting_System\Radar_Core\Libraries\XMCLib\inc\xmc_dac.h ****  *
 373:C:\Users\Depes Crystalline\Desktop\school\Active_Bike_Lighting_System\Radar_Core\Libraries\XMCLib\inc\xmc_dac.h ****  * \par<b>Related APIs:</b><BR>
 374:C:\Users\Depes Crystalline\Desktop\school\Active_Bike_Lighting_System\Radar_Core\Libraries\XMCLib\inc\xmc_dac.h ****  * XMC_DAC_Enable(), XMC_DAC_Disable()\n\n\n
 375:C:\Users\Depes Crystalline\Desktop\school\Active_Bike_Lighting_System\Radar_Core\Libraries\XMCLib\inc\xmc_dac.h ****  *
 376:C:\Users\Depes Crystalline\Desktop\school\Active_Bike_Lighting_System\Radar_Core\Libraries\XMCLib\inc\xmc_dac.h ****  */
 377:C:\Users\Depes Crystalline\Desktop\school\Active_Bike_Lighting_System\Radar_Core\Libraries\XMCLib\inc\xmc_dac.h **** bool XMC_DAC_IsEnabled(const XMC_DAC_t *const dac);
 378:C:\Users\Depes Crystalline\Desktop\school\Active_Bike_Lighting_System\Radar_Core\Libraries\XMCLib\inc\xmc_dac.h **** 
 379:C:\Users\Depes Crystalline\Desktop\school\Active_Bike_Lighting_System\Radar_Core\Libraries\XMCLib\inc\xmc_dac.h **** /**
 380:C:\Users\Depes Crystalline\Desktop\school\Active_Bike_Lighting_System\Radar_Core\Libraries\XMCLib\inc\xmc_dac.h ****  * @param dac Pointer to an instance of DAC module
 381:C:\Users\Depes Crystalline\Desktop\school\Active_Bike_Lighting_System\Radar_Core\Libraries\XMCLib\inc\xmc_dac.h ****  *
 382:C:\Users\Depes Crystalline\Desktop\school\Active_Bike_Lighting_System\Radar_Core\Libraries\XMCLib\inc\xmc_dac.h ****  * @return None
 383:C:\Users\Depes Crystalline\Desktop\school\Active_Bike_Lighting_System\Radar_Core\Libraries\XMCLib\inc\xmc_dac.h ****  *
 384:C:\Users\Depes Crystalline\Desktop\school\Active_Bike_Lighting_System\Radar_Core\Libraries\XMCLib\inc\xmc_dac.h ****  * \par<b>Description:</b><br>
 385:C:\Users\Depes Crystalline\Desktop\school\Active_Bike_Lighting_System\Radar_Core\Libraries\XMCLib\inc\xmc_dac.h ****  * DAC switches to Simultaneous data mode from Independent data mode.
 386:C:\Users\Depes Crystalline\Desktop\school\Active_Bike_Lighting_System\Radar_Core\Libraries\XMCLib\inc\xmc_dac.h ****  *
 387:C:\Users\Depes Crystalline\Desktop\school\Active_Bike_Lighting_System\Radar_Core\Libraries\XMCLib\inc\xmc_dac.h ****  * \par
 388:C:\Users\Depes Crystalline\Desktop\school\Active_Bike_Lighting_System\Radar_Core\Libraries\XMCLib\inc\xmc_dac.h ****  * Independent data mode is the default data mode.
 389:C:\Users\Depes Crystalline\Desktop\school\Active_Bike_Lighting_System\Radar_Core\Libraries\XMCLib\inc\xmc_dac.h ****  * Simultaneous data mode is enabled by setting \a DATMOD bit of \a DAC0CFG1 register.
 390:C:\Users\Depes Crystalline\Desktop\school\Active_Bike_Lighting_System\Radar_Core\Libraries\XMCLib\inc\xmc_dac.h ****  *
 391:C:\Users\Depes Crystalline\Desktop\school\Active_Bike_Lighting_System\Radar_Core\Libraries\XMCLib\inc\xmc_dac.h ****  * \par<b>Note:</b><br>
 392:C:\Users\Depes Crystalline\Desktop\school\Active_Bike_Lighting_System\Radar_Core\Libraries\XMCLib\inc\xmc_dac.h ****  * Set channel 0 and channel 1 to Data mode before calling this API.
 393:C:\Users\Depes Crystalline\Desktop\school\Active_Bike_Lighting_System\Radar_Core\Libraries\XMCLib\inc\xmc_dac.h ****  *
 394:C:\Users\Depes Crystalline\Desktop\school\Active_Bike_Lighting_System\Radar_Core\Libraries\XMCLib\inc\xmc_dac.h ****  * \par<b>Related APIs:</b><BR>
 395:C:\Users\Depes Crystalline\Desktop\school\Active_Bike_Lighting_System\Radar_Core\Libraries\XMCLib\inc\xmc_dac.h ****  * XMC_DAC_CH_StartSingleValueMode(), XMC_DAC_CH_StartDataMode(), XMC_DAC_SimultaneousWrite(), XMC_
 396:C:\Users\Depes Crystalline\Desktop\school\Active_Bike_Lighting_System\Radar_Core\Libraries\XMCLib\inc\xmc_dac.h ****  *
 397:C:\Users\Depes Crystalline\Desktop\school\Active_Bike_Lighting_System\Radar_Core\Libraries\XMCLib\inc\xmc_dac.h ****  */
 398:C:\Users\Depes Crystalline\Desktop\school\Active_Bike_Lighting_System\Radar_Core\Libraries\XMCLib\inc\xmc_dac.h **** __STATIC_INLINE void XMC_DAC_EnableSimultaneousDataMode(XMC_DAC_t *const dac)
 399:C:\Users\Depes Crystalline\Desktop\school\Active_Bike_Lighting_System\Radar_Core\Libraries\XMCLib\inc\xmc_dac.h **** {
 400:C:\Users\Depes Crystalline\Desktop\school\Active_Bike_Lighting_System\Radar_Core\Libraries\XMCLib\inc\xmc_dac.h ****   dac->DACCFG[0].high |= DAC_DAC0CFG1_DATMOD_Msk;
 401:C:\Users\Depes Crystalline\Desktop\school\Active_Bike_Lighting_System\Radar_Core\Libraries\XMCLib\inc\xmc_dac.h **** }
 402:C:\Users\Depes Crystalline\Desktop\school\Active_Bike_Lighting_System\Radar_Core\Libraries\XMCLib\inc\xmc_dac.h **** 
 403:C:\Users\Depes Crystalline\Desktop\school\Active_Bike_Lighting_System\Radar_Core\Libraries\XMCLib\inc\xmc_dac.h **** /**
 404:C:\Users\Depes Crystalline\Desktop\school\Active_Bike_Lighting_System\Radar_Core\Libraries\XMCLib\inc\xmc_dac.h ****  * @param dac Pointer to an instance of DAC module
 405:C:\Users\Depes Crystalline\Desktop\school\Active_Bike_Lighting_System\Radar_Core\Libraries\XMCLib\inc\xmc_dac.h ****  *
 406:C:\Users\Depes Crystalline\Desktop\school\Active_Bike_Lighting_System\Radar_Core\Libraries\XMCLib\inc\xmc_dac.h ****  * @return None
 407:C:\Users\Depes Crystalline\Desktop\school\Active_Bike_Lighting_System\Radar_Core\Libraries\XMCLib\inc\xmc_dac.h ****  *
 408:C:\Users\Depes Crystalline\Desktop\school\Active_Bike_Lighting_System\Radar_Core\Libraries\XMCLib\inc\xmc_dac.h ****  * \par<b>Description:</b><br>
 409:C:\Users\Depes Crystalline\Desktop\school\Active_Bike_Lighting_System\Radar_Core\Libraries\XMCLib\inc\xmc_dac.h ****  * DAC switches to independent data mode from simultaneous Data mode.
 410:C:\Users\Depes Crystalline\Desktop\school\Active_Bike_Lighting_System\Radar_Core\Libraries\XMCLib\inc\xmc_dac.h ****  *
 411:C:\Users\Depes Crystalline\Desktop\school\Active_Bike_Lighting_System\Radar_Core\Libraries\XMCLib\inc\xmc_dac.h ****  * \par
 412:C:\Users\Depes Crystalline\Desktop\school\Active_Bike_Lighting_System\Radar_Core\Libraries\XMCLib\inc\xmc_dac.h ****  * Independent data mode is the default data mode.
 413:C:\Users\Depes Crystalline\Desktop\school\Active_Bike_Lighting_System\Radar_Core\Libraries\XMCLib\inc\xmc_dac.h ****  * Simultaneous data mode is disabled by clearing \a DATMOD bit of \a DAC0CFG1 register.
 414:C:\Users\Depes Crystalline\Desktop\school\Active_Bike_Lighting_System\Radar_Core\Libraries\XMCLib\inc\xmc_dac.h ****  *
 415:C:\Users\Depes Crystalline\Desktop\school\Active_Bike_Lighting_System\Radar_Core\Libraries\XMCLib\inc\xmc_dac.h ****  * \par<b>Related APIs:</b><BR>
 416:C:\Users\Depes Crystalline\Desktop\school\Active_Bike_Lighting_System\Radar_Core\Libraries\XMCLib\inc\xmc_dac.h ****  * XMC_DAC_CH_StartDataMode(), XMC_DAC_EnableSimultaneousDataMode()\n\n\n
 417:C:\Users\Depes Crystalline\Desktop\school\Active_Bike_Lighting_System\Radar_Core\Libraries\XMCLib\inc\xmc_dac.h ****  *
 418:C:\Users\Depes Crystalline\Desktop\school\Active_Bike_Lighting_System\Radar_Core\Libraries\XMCLib\inc\xmc_dac.h ****  */
 419:C:\Users\Depes Crystalline\Desktop\school\Active_Bike_Lighting_System\Radar_Core\Libraries\XMCLib\inc\xmc_dac.h **** __STATIC_INLINE void XMC_DAC_DisableSimultaneousDataMode(XMC_DAC_t *const dac)
 420:C:\Users\Depes Crystalline\Desktop\school\Active_Bike_Lighting_System\Radar_Core\Libraries\XMCLib\inc\xmc_dac.h **** {
 421:C:\Users\Depes Crystalline\Desktop\school\Active_Bike_Lighting_System\Radar_Core\Libraries\XMCLib\inc\xmc_dac.h ****   dac->DACCFG[0].high &= ~DAC_DAC0CFG1_DATMOD_Msk;
 422:C:\Users\Depes Crystalline\Desktop\school\Active_Bike_Lighting_System\Radar_Core\Libraries\XMCLib\inc\xmc_dac.h **** }
 423:C:\Users\Depes Crystalline\Desktop\school\Active_Bike_Lighting_System\Radar_Core\Libraries\XMCLib\inc\xmc_dac.h **** 
 424:C:\Users\Depes Crystalline\Desktop\school\Active_Bike_Lighting_System\Radar_Core\Libraries\XMCLib\inc\xmc_dac.h **** /**
 425:C:\Users\Depes Crystalline\Desktop\school\Active_Bike_Lighting_System\Radar_Core\Libraries\XMCLib\inc\xmc_dac.h ****  * @param dac Pointer to an instance of DAC module
 426:C:\Users\Depes Crystalline\Desktop\school\Active_Bike_Lighting_System\Radar_Core\Libraries\XMCLib\inc\xmc_dac.h ****  * @param data0 Data for DAC channel 0 [0-4095]
 427:C:\Users\Depes Crystalline\Desktop\school\Active_Bike_Lighting_System\Radar_Core\Libraries\XMCLib\inc\xmc_dac.h ****  * @param data1 Data for DAC channel 1 [0-4095]
 428:C:\Users\Depes Crystalline\Desktop\school\Active_Bike_Lighting_System\Radar_Core\Libraries\XMCLib\inc\xmc_dac.h ****  *
 429:C:\Users\Depes Crystalline\Desktop\school\Active_Bike_Lighting_System\Radar_Core\Libraries\XMCLib\inc\xmc_dac.h ****  * @return None
 430:C:\Users\Depes Crystalline\Desktop\school\Active_Bike_Lighting_System\Radar_Core\Libraries\XMCLib\inc\xmc_dac.h ****  *
 431:C:\Users\Depes Crystalline\Desktop\school\Active_Bike_Lighting_System\Radar_Core\Libraries\XMCLib\inc\xmc_dac.h ****  * \par<b>Description:</b><br>
 432:C:\Users\Depes Crystalline\Desktop\school\Active_Bike_Lighting_System\Radar_Core\Libraries\XMCLib\inc\xmc_dac.h ****  * The data (\e data0 & \e data1) to be converted by channel 0 & channel 1 are updated to \a DATA1 
 433:C:\Users\Depes Crystalline\Desktop\school\Active_Bike_Lighting_System\Radar_Core\Libraries\XMCLib\inc\xmc_dac.h ****  * data0 and data1 have the range of [0-4095].
 434:C:\Users\Depes Crystalline\Desktop\school\Active_Bike_Lighting_System\Radar_Core\Libraries\XMCLib\inc\xmc_dac.h ****  *
 435:C:\Users\Depes Crystalline\Desktop\school\Active_Bike_Lighting_System\Radar_Core\Libraries\XMCLib\inc\xmc_dac.h ****  * \par<b>Note:</b><br>
 436:C:\Users\Depes Crystalline\Desktop\school\Active_Bike_Lighting_System\Radar_Core\Libraries\XMCLib\inc\xmc_dac.h ****  * Channel 0 and Channel 1 should be set to simultaneous data mode before calling this API.
 437:C:\Users\Depes Crystalline\Desktop\school\Active_Bike_Lighting_System\Radar_Core\Libraries\XMCLib\inc\xmc_dac.h ****  *
 438:C:\Users\Depes Crystalline\Desktop\school\Active_Bike_Lighting_System\Radar_Core\Libraries\XMCLib\inc\xmc_dac.h ****  * \par<b>Related APIs:</b><BR>
 439:C:\Users\Depes Crystalline\Desktop\school\Active_Bike_Lighting_System\Radar_Core\Libraries\XMCLib\inc\xmc_dac.h ****  * XMC_DAC_EnableSimultaneousDataMode()\n\n\n
 440:C:\Users\Depes Crystalline\Desktop\school\Active_Bike_Lighting_System\Radar_Core\Libraries\XMCLib\inc\xmc_dac.h ****  *
 441:C:\Users\Depes Crystalline\Desktop\school\Active_Bike_Lighting_System\Radar_Core\Libraries\XMCLib\inc\xmc_dac.h ****  */
 442:C:\Users\Depes Crystalline\Desktop\school\Active_Bike_Lighting_System\Radar_Core\Libraries\XMCLib\inc\xmc_dac.h **** __STATIC_INLINE void XMC_DAC_SimultaneousWrite(XMC_DAC_t *const dac, const uint16_t data0, const ui
 443:C:\Users\Depes Crystalline\Desktop\school\Active_Bike_Lighting_System\Radar_Core\Libraries\XMCLib\inc\xmc_dac.h **** {
 444:C:\Users\Depes Crystalline\Desktop\school\Active_Bike_Lighting_System\Radar_Core\Libraries\XMCLib\inc\xmc_dac.h ****   dac->DAC01DATA = (data0 << DAC_DAC01DATA_DATA0_Pos) | (data1 << DAC_DAC01DATA_DATA1_Pos);
 445:C:\Users\Depes Crystalline\Desktop\school\Active_Bike_Lighting_System\Radar_Core\Libraries\XMCLib\inc\xmc_dac.h **** }
 446:C:\Users\Depes Crystalline\Desktop\school\Active_Bike_Lighting_System\Radar_Core\Libraries\XMCLib\inc\xmc_dac.h **** 
 447:C:\Users\Depes Crystalline\Desktop\school\Active_Bike_Lighting_System\Radar_Core\Libraries\XMCLib\inc\xmc_dac.h **** /**
 448:C:\Users\Depes Crystalline\Desktop\school\Active_Bike_Lighting_System\Radar_Core\Libraries\XMCLib\inc\xmc_dac.h ****  * @param dac Pointer to an instance of DAC module
 449:C:\Users\Depes Crystalline\Desktop\school\Active_Bike_Lighting_System\Radar_Core\Libraries\XMCLib\inc\xmc_dac.h ****  * @param channel DAC channel number
 450:C:\Users\Depes Crystalline\Desktop\school\Active_Bike_Lighting_System\Radar_Core\Libraries\XMCLib\inc\xmc_dac.h ****  * @param config Pointer to the DAC channel configuration structure
 451:C:\Users\Depes Crystalline\Desktop\school\Active_Bike_Lighting_System\Radar_Core\Libraries\XMCLib\inc\xmc_dac.h ****  *
 452:C:\Users\Depes Crystalline\Desktop\school\Active_Bike_Lighting_System\Radar_Core\Libraries\XMCLib\inc\xmc_dac.h ****  * @return None
 453:C:\Users\Depes Crystalline\Desktop\school\Active_Bike_Lighting_System\Radar_Core\Libraries\XMCLib\inc\xmc_dac.h ****  *
 454:C:\Users\Depes Crystalline\Desktop\school\Active_Bike_Lighting_System\Radar_Core\Libraries\XMCLib\inc\xmc_dac.h ****  * \par<b>Description:</b><br>
 455:C:\Users\Depes Crystalline\Desktop\school\Active_Bike_Lighting_System\Radar_Core\Libraries\XMCLib\inc\xmc_dac.h ****  * Initialises and configures the DAC \e channel with the configuration date pointed by \e config.
 456:C:\Users\Depes Crystalline\Desktop\school\Active_Bike_Lighting_System\Radar_Core\Libraries\XMCLib\inc\xmc_dac.h ****  *
 457:C:\Users\Depes Crystalline\Desktop\school\Active_Bike_Lighting_System\Radar_Core\Libraries\XMCLib\inc\xmc_dac.h ****  * \par
 458:C:\Users\Depes Crystalline\Desktop\school\Active_Bike_Lighting_System\Radar_Core\Libraries\XMCLib\inc\xmc_dac.h ****  * DAC channel is initialised by configuring the registers \a DAC0CFG0 and \a DAC0CFG1 registers (f
 459:C:\Users\Depes Crystalline\Desktop\school\Active_Bike_Lighting_System\Radar_Core\Libraries\XMCLib\inc\xmc_dac.h ****  * It enables the channel output by calling XMC_DAC_CH_EnableOutput().
 460:C:\Users\Depes Crystalline\Desktop\school\Active_Bike_Lighting_System\Radar_Core\Libraries\XMCLib\inc\xmc_dac.h ****  *
 461:C:\Users\Depes Crystalline\Desktop\school\Active_Bike_Lighting_System\Radar_Core\Libraries\XMCLib\inc\xmc_dac.h ****  */
 462:C:\Users\Depes Crystalline\Desktop\school\Active_Bike_Lighting_System\Radar_Core\Libraries\XMCLib\inc\xmc_dac.h **** void XMC_DAC_CH_Init(XMC_DAC_t *const dac, const uint8_t channel, const XMC_DAC_CH_CONFIG_t *const 
 463:C:\Users\Depes Crystalline\Desktop\school\Active_Bike_Lighting_System\Radar_Core\Libraries\XMCLib\inc\xmc_dac.h **** 
 464:C:\Users\Depes Crystalline\Desktop\school\Active_Bike_Lighting_System\Radar_Core\Libraries\XMCLib\inc\xmc_dac.h **** /**
 465:C:\Users\Depes Crystalline\Desktop\school\Active_Bike_Lighting_System\Radar_Core\Libraries\XMCLib\inc\xmc_dac.h ****  * @param dac Pointer to an instance of DAC module
 466:C:\Users\Depes Crystalline\Desktop\school\Active_Bike_Lighting_System\Radar_Core\Libraries\XMCLib\inc\xmc_dac.h ****  * @param channel DAC channel number
 467:C:\Users\Depes Crystalline\Desktop\school\Active_Bike_Lighting_System\Radar_Core\Libraries\XMCLib\inc\xmc_dac.h ****  *
 468:C:\Users\Depes Crystalline\Desktop\school\Active_Bike_Lighting_System\Radar_Core\Libraries\XMCLib\inc\xmc_dac.h ****  * @return None
 469:C:\Users\Depes Crystalline\Desktop\school\Active_Bike_Lighting_System\Radar_Core\Libraries\XMCLib\inc\xmc_dac.h ****  *
 470:C:\Users\Depes Crystalline\Desktop\school\Active_Bike_Lighting_System\Radar_Core\Libraries\XMCLib\inc\xmc_dac.h ****  * \par<b>Description:</b><br>
 471:C:\Users\Depes Crystalline\Desktop\school\Active_Bike_Lighting_System\Radar_Core\Libraries\XMCLib\inc\xmc_dac.h ****  * Channel \a channel output is enabled by setting the \a ANAEN bit of \a DAC0CFG1 register (for ch
 472:C:\Users\Depes Crystalline\Desktop\school\Active_Bike_Lighting_System\Radar_Core\Libraries\XMCLib\inc\xmc_dac.h ****  *
 473:C:\Users\Depes Crystalline\Desktop\school\Active_Bike_Lighting_System\Radar_Core\Libraries\XMCLib\inc\xmc_dac.h ****  * \par<b>Note:</b><BR>
 474:C:\Users\Depes Crystalline\Desktop\school\Active_Bike_Lighting_System\Radar_Core\Libraries\XMCLib\inc\xmc_dac.h ****  * \a tSTARTUP time for DAC analog output starts after the \a ANAEN bit is set to one.
 475:C:\Users\Depes Crystalline\Desktop\school\Active_Bike_Lighting_System\Radar_Core\Libraries\XMCLib\inc\xmc_dac.h ****  * After the expiry of the startup time the default value is driven to DAC output and a new value c
 476:C:\Users\Depes Crystalline\Desktop\school\Active_Bike_Lighting_System\Radar_Core\Libraries\XMCLib\inc\xmc_dac.h ****  *
 477:C:\Users\Depes Crystalline\Desktop\school\Active_Bike_Lighting_System\Radar_Core\Libraries\XMCLib\inc\xmc_dac.h ****  * \par<b>Related APIs:</b><BR>
 478:C:\Users\Depes Crystalline\Desktop\school\Active_Bike_Lighting_System\Radar_Core\Libraries\XMCLib\inc\xmc_dac.h ****  * XMC_DAC_CH_DisableOutput(), XMC_DAC_CH_IsOutputEnabled()\n\n\n
 479:C:\Users\Depes Crystalline\Desktop\school\Active_Bike_Lighting_System\Radar_Core\Libraries\XMCLib\inc\xmc_dac.h ****  *
 480:C:\Users\Depes Crystalline\Desktop\school\Active_Bike_Lighting_System\Radar_Core\Libraries\XMCLib\inc\xmc_dac.h ****  */
 481:C:\Users\Depes Crystalline\Desktop\school\Active_Bike_Lighting_System\Radar_Core\Libraries\XMCLib\inc\xmc_dac.h **** __STATIC_INLINE void XMC_DAC_CH_EnableOutput(XMC_DAC_t *const dac, const uint8_t channel)
 482:C:\Users\Depes Crystalline\Desktop\school\Active_Bike_Lighting_System\Radar_Core\Libraries\XMCLib\inc\xmc_dac.h **** {
  26              	 .loc 1 482 0
  27              	 .cfi_startproc
  28              	 
  29              	 
  30              	 
  31 0000 80B4     	 push {r7}
  32              	.LCFI0:
  33              	 .cfi_def_cfa_offset 4
  34              	 .cfi_offset 7,-4
  35 0002 83B0     	 sub sp,sp,#12
  36              	.LCFI1:
  37              	 .cfi_def_cfa_offset 16
  38 0004 00AF     	 add r7,sp,#0
  39              	.LCFI2:
  40              	 .cfi_def_cfa_register 7
  41 0006 7860     	 str r0,[r7,#4]
  42 0008 0B46     	 mov r3,r1
  43 000a FB70     	 strb r3,[r7,#3]
 483:C:\Users\Depes Crystalline\Desktop\school\Active_Bike_Lighting_System\Radar_Core\Libraries\XMCLib\inc\xmc_dac.h ****   dac->DACCFG[channel].high |= DAC_DAC0CFG1_ANAEN_Msk;
  44              	 .loc 1 483 0
  45 000c F878     	 ldrb r0,[r7,#3]
  46 000e FB78     	 ldrb r3,[r7,#3]
  47 0010 7A68     	 ldr r2,[r7,#4]
  48 0012 DB00     	 lsls r3,r3,#3
  49 0014 1344     	 add r3,r3,r2
  50 0016 9B68     	 ldr r3,[r3,#8]
  51 0018 43F08072 	 orr r2,r3,#16777216
  52 001c 7968     	 ldr r1,[r7,#4]
  53 001e C300     	 lsls r3,r0,#3
  54 0020 0B44     	 add r3,r3,r1
  55 0022 9A60     	 str r2,[r3,#8]
 484:C:\Users\Depes Crystalline\Desktop\school\Active_Bike_Lighting_System\Radar_Core\Libraries\XMCLib\inc\xmc_dac.h **** }
  56              	 .loc 1 484 0
  57 0024 0C37     	 adds r7,r7,#12
  58              	.LCFI3:
  59              	 .cfi_def_cfa_offset 4
  60 0026 BD46     	 mov sp,r7
  61              	.LCFI4:
  62              	 .cfi_def_cfa_register 13
  63              	 
  64 0028 5DF8047B 	 ldr r7,[sp],#4
  65              	.LCFI5:
  66              	 .cfi_restore 7
  67              	 .cfi_def_cfa_offset 0
  68 002c 7047     	 bx lr
  69              	 .cfi_endproc
  70              	.LFE131:
  72 002e 00BF     	 .section .text.XMC_DAC_CH_EnablePatternSignOutput,"ax",%progbits
  73              	 .align 2
  74              	 .thumb
  75              	 .thumb_func
  77              	XMC_DAC_CH_EnablePatternSignOutput:
  78              	.LFB135:
 485:C:\Users\Depes Crystalline\Desktop\school\Active_Bike_Lighting_System\Radar_Core\Libraries\XMCLib\inc\xmc_dac.h **** 
 486:C:\Users\Depes Crystalline\Desktop\school\Active_Bike_Lighting_System\Radar_Core\Libraries\XMCLib\inc\xmc_dac.h **** /**
 487:C:\Users\Depes Crystalline\Desktop\school\Active_Bike_Lighting_System\Radar_Core\Libraries\XMCLib\inc\xmc_dac.h ****  * @param dac Pointer to an instance of DAC module
 488:C:\Users\Depes Crystalline\Desktop\school\Active_Bike_Lighting_System\Radar_Core\Libraries\XMCLib\inc\xmc_dac.h ****  * @param channel DAC channel number
 489:C:\Users\Depes Crystalline\Desktop\school\Active_Bike_Lighting_System\Radar_Core\Libraries\XMCLib\inc\xmc_dac.h ****  *
 490:C:\Users\Depes Crystalline\Desktop\school\Active_Bike_Lighting_System\Radar_Core\Libraries\XMCLib\inc\xmc_dac.h ****  * @return None
 491:C:\Users\Depes Crystalline\Desktop\school\Active_Bike_Lighting_System\Radar_Core\Libraries\XMCLib\inc\xmc_dac.h ****  *
 492:C:\Users\Depes Crystalline\Desktop\school\Active_Bike_Lighting_System\Radar_Core\Libraries\XMCLib\inc\xmc_dac.h ****  * \par<b>Description:</b><br>
 493:C:\Users\Depes Crystalline\Desktop\school\Active_Bike_Lighting_System\Radar_Core\Libraries\XMCLib\inc\xmc_dac.h ****  * Channel \a channel output is disabled by clearing the \a ANAEN bit of \a DAC0CFG1 register (for 
 494:C:\Users\Depes Crystalline\Desktop\school\Active_Bike_Lighting_System\Radar_Core\Libraries\XMCLib\inc\xmc_dac.h ****  *
 495:C:\Users\Depes Crystalline\Desktop\school\Active_Bike_Lighting_System\Radar_Core\Libraries\XMCLib\inc\xmc_dac.h ****  * \par
 496:C:\Users\Depes Crystalline\Desktop\school\Active_Bike_Lighting_System\Radar_Core\Libraries\XMCLib\inc\xmc_dac.h ****  * A call to this API stops driving the converted digital input to its output.
 497:C:\Users\Depes Crystalline\Desktop\school\Active_Bike_Lighting_System\Radar_Core\Libraries\XMCLib\inc\xmc_dac.h ****  *
 498:C:\Users\Depes Crystalline\Desktop\school\Active_Bike_Lighting_System\Radar_Core\Libraries\XMCLib\inc\xmc_dac.h ****  * \par<b>Related APIs:</b><BR>
 499:C:\Users\Depes Crystalline\Desktop\school\Active_Bike_Lighting_System\Radar_Core\Libraries\XMCLib\inc\xmc_dac.h ****  * XMC_DAC_CH_EnableOutput(), XMC_DAC_CH_IsOutputEnabled()\n\n\n
 500:C:\Users\Depes Crystalline\Desktop\school\Active_Bike_Lighting_System\Radar_Core\Libraries\XMCLib\inc\xmc_dac.h ****  *
 501:C:\Users\Depes Crystalline\Desktop\school\Active_Bike_Lighting_System\Radar_Core\Libraries\XMCLib\inc\xmc_dac.h ****  */
 502:C:\Users\Depes Crystalline\Desktop\school\Active_Bike_Lighting_System\Radar_Core\Libraries\XMCLib\inc\xmc_dac.h **** __STATIC_INLINE void XMC_DAC_CH_DisableOutput(XMC_DAC_t *const dac, const uint8_t channel)
 503:C:\Users\Depes Crystalline\Desktop\school\Active_Bike_Lighting_System\Radar_Core\Libraries\XMCLib\inc\xmc_dac.h **** {
 504:C:\Users\Depes Crystalline\Desktop\school\Active_Bike_Lighting_System\Radar_Core\Libraries\XMCLib\inc\xmc_dac.h ****   dac->DACCFG[channel].high &= ~DAC_DAC0CFG1_ANAEN_Msk;
 505:C:\Users\Depes Crystalline\Desktop\school\Active_Bike_Lighting_System\Radar_Core\Libraries\XMCLib\inc\xmc_dac.h **** }
 506:C:\Users\Depes Crystalline\Desktop\school\Active_Bike_Lighting_System\Radar_Core\Libraries\XMCLib\inc\xmc_dac.h **** 
 507:C:\Users\Depes Crystalline\Desktop\school\Active_Bike_Lighting_System\Radar_Core\Libraries\XMCLib\inc\xmc_dac.h **** /**
 508:C:\Users\Depes Crystalline\Desktop\school\Active_Bike_Lighting_System\Radar_Core\Libraries\XMCLib\inc\xmc_dac.h ****  * @param dac Pointer to an instance of DAC module
 509:C:\Users\Depes Crystalline\Desktop\school\Active_Bike_Lighting_System\Radar_Core\Libraries\XMCLib\inc\xmc_dac.h ****  * @param channel DAC channel number
 510:C:\Users\Depes Crystalline\Desktop\school\Active_Bike_Lighting_System\Radar_Core\Libraries\XMCLib\inc\xmc_dac.h ****  *
 511:C:\Users\Depes Crystalline\Desktop\school\Active_Bike_Lighting_System\Radar_Core\Libraries\XMCLib\inc\xmc_dac.h ****  * @return bool <BR>
 512:C:\Users\Depes Crystalline\Desktop\school\Active_Bike_Lighting_System\Radar_Core\Libraries\XMCLib\inc\xmc_dac.h ****  * true  - if analog output is enabled <BR>
 513:C:\Users\Depes Crystalline\Desktop\school\Active_Bike_Lighting_System\Radar_Core\Libraries\XMCLib\inc\xmc_dac.h ****  * false - if analog output is disabled <BR>
 514:C:\Users\Depes Crystalline\Desktop\school\Active_Bike_Lighting_System\Radar_Core\Libraries\XMCLib\inc\xmc_dac.h ****  *
 515:C:\Users\Depes Crystalline\Desktop\school\Active_Bike_Lighting_System\Radar_Core\Libraries\XMCLib\inc\xmc_dac.h ****  * \par<b>Description:</b><br>
 516:C:\Users\Depes Crystalline\Desktop\school\Active_Bike_Lighting_System\Radar_Core\Libraries\XMCLib\inc\xmc_dac.h ****  * Returns the status of DAC analog output.
 517:C:\Users\Depes Crystalline\Desktop\school\Active_Bike_Lighting_System\Radar_Core\Libraries\XMCLib\inc\xmc_dac.h ****  *
 518:C:\Users\Depes Crystalline\Desktop\school\Active_Bike_Lighting_System\Radar_Core\Libraries\XMCLib\inc\xmc_dac.h ****  * \par
 519:C:\Users\Depes Crystalline\Desktop\school\Active_Bike_Lighting_System\Radar_Core\Libraries\XMCLib\inc\xmc_dac.h ****  * Channel \a channel output enabled or disabled is determined by reading the \a ANAEN bit of \a DA
 520:C:\Users\Depes Crystalline\Desktop\school\Active_Bike_Lighting_System\Radar_Core\Libraries\XMCLib\inc\xmc_dac.h ****  *
 521:C:\Users\Depes Crystalline\Desktop\school\Active_Bike_Lighting_System\Radar_Core\Libraries\XMCLib\inc\xmc_dac.h ****  * \par<b>Related APIs:</b><BR>
 522:C:\Users\Depes Crystalline\Desktop\school\Active_Bike_Lighting_System\Radar_Core\Libraries\XMCLib\inc\xmc_dac.h ****  * XMC_DAC_CH_EnableOutput(), XMC_DAC_CH_DisableOutput()\n\n\n
 523:C:\Users\Depes Crystalline\Desktop\school\Active_Bike_Lighting_System\Radar_Core\Libraries\XMCLib\inc\xmc_dac.h ****  *
 524:C:\Users\Depes Crystalline\Desktop\school\Active_Bike_Lighting_System\Radar_Core\Libraries\XMCLib\inc\xmc_dac.h ****  */
 525:C:\Users\Depes Crystalline\Desktop\school\Active_Bike_Lighting_System\Radar_Core\Libraries\XMCLib\inc\xmc_dac.h **** __STATIC_INLINE bool XMC_DAC_CH_IsOutputEnabled(const XMC_DAC_t *const dac, const uint8_t channel)
 526:C:\Users\Depes Crystalline\Desktop\school\Active_Bike_Lighting_System\Radar_Core\Libraries\XMCLib\inc\xmc_dac.h **** {
 527:C:\Users\Depes Crystalline\Desktop\school\Active_Bike_Lighting_System\Radar_Core\Libraries\XMCLib\inc\xmc_dac.h ****   return (bool)(dac->DACCFG[channel].high & DAC_DAC0CFG1_ANAEN_Msk);
 528:C:\Users\Depes Crystalline\Desktop\school\Active_Bike_Lighting_System\Radar_Core\Libraries\XMCLib\inc\xmc_dac.h **** }
 529:C:\Users\Depes Crystalline\Desktop\school\Active_Bike_Lighting_System\Radar_Core\Libraries\XMCLib\inc\xmc_dac.h **** 
 530:C:\Users\Depes Crystalline\Desktop\school\Active_Bike_Lighting_System\Radar_Core\Libraries\XMCLib\inc\xmc_dac.h **** /**
 531:C:\Users\Depes Crystalline\Desktop\school\Active_Bike_Lighting_System\Radar_Core\Libraries\XMCLib\inc\xmc_dac.h ****  * @param dac Pointer to an instance of DAC module
 532:C:\Users\Depes Crystalline\Desktop\school\Active_Bike_Lighting_System\Radar_Core\Libraries\XMCLib\inc\xmc_dac.h ****  * @param channel DAC channel number
 533:C:\Users\Depes Crystalline\Desktop\school\Active_Bike_Lighting_System\Radar_Core\Libraries\XMCLib\inc\xmc_dac.h ****  * @param data Data to be written  [0-4095]
 534:C:\Users\Depes Crystalline\Desktop\school\Active_Bike_Lighting_System\Radar_Core\Libraries\XMCLib\inc\xmc_dac.h ****  *
 535:C:\Users\Depes Crystalline\Desktop\school\Active_Bike_Lighting_System\Radar_Core\Libraries\XMCLib\inc\xmc_dac.h ****  * @return None
 536:C:\Users\Depes Crystalline\Desktop\school\Active_Bike_Lighting_System\Radar_Core\Libraries\XMCLib\inc\xmc_dac.h ****  *
 537:C:\Users\Depes Crystalline\Desktop\school\Active_Bike_Lighting_System\Radar_Core\Libraries\XMCLib\inc\xmc_dac.h ****  * \par<b>Description:</b><br>
 538:C:\Users\Depes Crystalline\Desktop\school\Active_Bike_Lighting_System\Radar_Core\Libraries\XMCLib\inc\xmc_dac.h ****  * Writes the \e data to the \e channel's DATA register.
 539:C:\Users\Depes Crystalline\Desktop\school\Active_Bike_Lighting_System\Radar_Core\Libraries\XMCLib\inc\xmc_dac.h ****  *
 540:C:\Users\Depes Crystalline\Desktop\school\Active_Bike_Lighting_System\Radar_Core\Libraries\XMCLib\inc\xmc_dac.h ****  * \par
 541:C:\Users\Depes Crystalline\Desktop\school\Active_Bike_Lighting_System\Radar_Core\Libraries\XMCLib\inc\xmc_dac.h ****  * The \e data is then converted and driven to the output.
 542:C:\Users\Depes Crystalline\Desktop\school\Active_Bike_Lighting_System\Radar_Core\Libraries\XMCLib\inc\xmc_dac.h ****  * If the trigger is set, On a trigger event the data in DATA register is converted and driven to \
 543:C:\Users\Depes Crystalline\Desktop\school\Active_Bike_Lighting_System\Radar_Core\Libraries\XMCLib\inc\xmc_dac.h ****  * Data \a data is written to the \a channel by loading \a data to \a DATA0 bit-field of \a DAC0DAT
 544:C:\Users\Depes Crystalline\Desktop\school\Active_Bike_Lighting_System\Radar_Core\Libraries\XMCLib\inc\xmc_dac.h ****  * data has the range of [0-4095].
 545:C:\Users\Depes Crystalline\Desktop\school\Active_Bike_Lighting_System\Radar_Core\Libraries\XMCLib\inc\xmc_dac.h ****  *
 546:C:\Users\Depes Crystalline\Desktop\school\Active_Bike_Lighting_System\Radar_Core\Libraries\XMCLib\inc\xmc_dac.h ****  * \par<b>Note:</b><br>
 547:C:\Users\Depes Crystalline\Desktop\school\Active_Bike_Lighting_System\Radar_Core\Libraries\XMCLib\inc\xmc_dac.h ****  * The API can be used for Single Value Mode, Data Mode (Individual) & Ramp Mode.
 548:C:\Users\Depes Crystalline\Desktop\school\Active_Bike_Lighting_System\Radar_Core\Libraries\XMCLib\inc\xmc_dac.h ****  * Call XMC_DAC_CH_EnableOutput() API to enable analog output.
 549:C:\Users\Depes Crystalline\Desktop\school\Active_Bike_Lighting_System\Radar_Core\Libraries\XMCLib\inc\xmc_dac.h ****  *
 550:C:\Users\Depes Crystalline\Desktop\school\Active_Bike_Lighting_System\Radar_Core\Libraries\XMCLib\inc\xmc_dac.h ****  * \par<b>Related APIs:</b><BR>
 551:C:\Users\Depes Crystalline\Desktop\school\Active_Bike_Lighting_System\Radar_Core\Libraries\XMCLib\inc\xmc_dac.h ****  * XMC_DAC_CH_StartSingleValueMode(), XMC_DAC_CH_StartDataMode(), XMC_DAC_CH_StartRampMode()\n\n\n
 552:C:\Users\Depes Crystalline\Desktop\school\Active_Bike_Lighting_System\Radar_Core\Libraries\XMCLib\inc\xmc_dac.h ****  *
 553:C:\Users\Depes Crystalline\Desktop\school\Active_Bike_Lighting_System\Radar_Core\Libraries\XMCLib\inc\xmc_dac.h ****  */
 554:C:\Users\Depes Crystalline\Desktop\school\Active_Bike_Lighting_System\Radar_Core\Libraries\XMCLib\inc\xmc_dac.h **** __STATIC_INLINE void XMC_DAC_CH_Write(XMC_DAC_t *const dac, const uint8_t channel, const uint16_t d
 555:C:\Users\Depes Crystalline\Desktop\school\Active_Bike_Lighting_System\Radar_Core\Libraries\XMCLib\inc\xmc_dac.h **** {
 556:C:\Users\Depes Crystalline\Desktop\school\Active_Bike_Lighting_System\Radar_Core\Libraries\XMCLib\inc\xmc_dac.h ****   dac->DACDATA[channel] = data;
 557:C:\Users\Depes Crystalline\Desktop\school\Active_Bike_Lighting_System\Radar_Core\Libraries\XMCLib\inc\xmc_dac.h **** }
 558:C:\Users\Depes Crystalline\Desktop\school\Active_Bike_Lighting_System\Radar_Core\Libraries\XMCLib\inc\xmc_dac.h **** 
 559:C:\Users\Depes Crystalline\Desktop\school\Active_Bike_Lighting_System\Radar_Core\Libraries\XMCLib\inc\xmc_dac.h **** /**
 560:C:\Users\Depes Crystalline\Desktop\school\Active_Bike_Lighting_System\Radar_Core\Libraries\XMCLib\inc\xmc_dac.h ****  * @param dac Pointer to an instance of DAC module
 561:C:\Users\Depes Crystalline\Desktop\school\Active_Bike_Lighting_System\Radar_Core\Libraries\XMCLib\inc\xmc_dac.h ****  * @param channel DAC channel number
 562:C:\Users\Depes Crystalline\Desktop\school\Active_Bike_Lighting_System\Radar_Core\Libraries\XMCLib\inc\xmc_dac.h ****  *
 563:C:\Users\Depes Crystalline\Desktop\school\Active_Bike_Lighting_System\Radar_Core\Libraries\XMCLib\inc\xmc_dac.h ****  * @return None
 564:C:\Users\Depes Crystalline\Desktop\school\Active_Bike_Lighting_System\Radar_Core\Libraries\XMCLib\inc\xmc_dac.h ****  *
 565:C:\Users\Depes Crystalline\Desktop\school\Active_Bike_Lighting_System\Radar_Core\Libraries\XMCLib\inc\xmc_dac.h ****  * \par<b>Description:</b><br>
 566:C:\Users\Depes Crystalline\Desktop\school\Active_Bike_Lighting_System\Radar_Core\Libraries\XMCLib\inc\xmc_dac.h ****  * Sets the \e channel to Single Value Mode by calling XMC_DAC_CH_SetMode().
 567:C:\Users\Depes Crystalline\Desktop\school\Active_Bike_Lighting_System\Radar_Core\Libraries\XMCLib\inc\xmc_dac.h ****  *
 568:C:\Users\Depes Crystalline\Desktop\school\Active_Bike_Lighting_System\Radar_Core\Libraries\XMCLib\inc\xmc_dac.h ****  * \par<b>Note:</b><br>
 569:C:\Users\Depes Crystalline\Desktop\school\Active_Bike_Lighting_System\Radar_Core\Libraries\XMCLib\inc\xmc_dac.h ****  * Call XMC_DAC_CH_Write() API to write the data.
 570:C:\Users\Depes Crystalline\Desktop\school\Active_Bike_Lighting_System\Radar_Core\Libraries\XMCLib\inc\xmc_dac.h ****  *
 571:C:\Users\Depes Crystalline\Desktop\school\Active_Bike_Lighting_System\Radar_Core\Libraries\XMCLib\inc\xmc_dac.h ****  * \par<b>Related APIs:</b><BR>
 572:C:\Users\Depes Crystalline\Desktop\school\Active_Bike_Lighting_System\Radar_Core\Libraries\XMCLib\inc\xmc_dac.h ****  * XMC_DAC_CH_Write()\n\n\n
 573:C:\Users\Depes Crystalline\Desktop\school\Active_Bike_Lighting_System\Radar_Core\Libraries\XMCLib\inc\xmc_dac.h ****  *
 574:C:\Users\Depes Crystalline\Desktop\school\Active_Bike_Lighting_System\Radar_Core\Libraries\XMCLib\inc\xmc_dac.h ****  */
 575:C:\Users\Depes Crystalline\Desktop\school\Active_Bike_Lighting_System\Radar_Core\Libraries\XMCLib\inc\xmc_dac.h **** XMC_DAC_CH_STATUS_t XMC_DAC_CH_StartSingleValueMode(XMC_DAC_t *const dac, const uint8_t channel);
 576:C:\Users\Depes Crystalline\Desktop\school\Active_Bike_Lighting_System\Radar_Core\Libraries\XMCLib\inc\xmc_dac.h **** 
 577:C:\Users\Depes Crystalline\Desktop\school\Active_Bike_Lighting_System\Radar_Core\Libraries\XMCLib\inc\xmc_dac.h **** /**
 578:C:\Users\Depes Crystalline\Desktop\school\Active_Bike_Lighting_System\Radar_Core\Libraries\XMCLib\inc\xmc_dac.h ****  * @param dac Pointer to an instance of DAC module
 579:C:\Users\Depes Crystalline\Desktop\school\Active_Bike_Lighting_System\Radar_Core\Libraries\XMCLib\inc\xmc_dac.h ****  * @param channel DAC channel number
 580:C:\Users\Depes Crystalline\Desktop\school\Active_Bike_Lighting_System\Radar_Core\Libraries\XMCLib\inc\xmc_dac.h ****  * @param trigger Data points update trigger
 581:C:\Users\Depes Crystalline\Desktop\school\Active_Bike_Lighting_System\Radar_Core\Libraries\XMCLib\inc\xmc_dac.h ****  * @param frequency Waveform frequency [Hz]
 582:C:\Users\Depes Crystalline\Desktop\school\Active_Bike_Lighting_System\Radar_Core\Libraries\XMCLib\inc\xmc_dac.h ****  *
 583:C:\Users\Depes Crystalline\Desktop\school\Active_Bike_Lighting_System\Radar_Core\Libraries\XMCLib\inc\xmc_dac.h ****  * @return XMC_DAC_CH_STATUS_t status
 584:C:\Users\Depes Crystalline\Desktop\school\Active_Bike_Lighting_System\Radar_Core\Libraries\XMCLib\inc\xmc_dac.h ****  *
 585:C:\Users\Depes Crystalline\Desktop\school\Active_Bike_Lighting_System\Radar_Core\Libraries\XMCLib\inc\xmc_dac.h ****  * \par<b>Description:</b><br>
 586:C:\Users\Depes Crystalline\Desktop\school\Active_Bike_Lighting_System\Radar_Core\Libraries\XMCLib\inc\xmc_dac.h ****  * Sets the \e channel to Data mode. Trigger and frequency are configured.
 587:C:\Users\Depes Crystalline\Desktop\school\Active_Bike_Lighting_System\Radar_Core\Libraries\XMCLib\inc\xmc_dac.h ****  *
 588:C:\Users\Depes Crystalline\Desktop\school\Active_Bike_Lighting_System\Radar_Core\Libraries\XMCLib\inc\xmc_dac.h ****  * \par<b>Note:</b><br>
 589:C:\Users\Depes Crystalline\Desktop\school\Active_Bike_Lighting_System\Radar_Core\Libraries\XMCLib\inc\xmc_dac.h ****  * Call XMC_DAC_CH_Write() API to write the data. Call XMC_DAC_EnableSimultaneousDataMode() to swit
 590:C:\Users\Depes Crystalline\Desktop\school\Active_Bike_Lighting_System\Radar_Core\Libraries\XMCLib\inc\xmc_dac.h ****  *
 591:C:\Users\Depes Crystalline\Desktop\school\Active_Bike_Lighting_System\Radar_Core\Libraries\XMCLib\inc\xmc_dac.h ****  * \par<b>Related APIs:</b><BR>
 592:C:\Users\Depes Crystalline\Desktop\school\Active_Bike_Lighting_System\Radar_Core\Libraries\XMCLib\inc\xmc_dac.h ****  * XMC_DAC_CH_Init(), XMC_DAC_CH_Write(), XMC_DAC_EnableSimultaneousDataMode() \n\n\n
 593:C:\Users\Depes Crystalline\Desktop\school\Active_Bike_Lighting_System\Radar_Core\Libraries\XMCLib\inc\xmc_dac.h ****  *
 594:C:\Users\Depes Crystalline\Desktop\school\Active_Bike_Lighting_System\Radar_Core\Libraries\XMCLib\inc\xmc_dac.h ****  */
 595:C:\Users\Depes Crystalline\Desktop\school\Active_Bike_Lighting_System\Radar_Core\Libraries\XMCLib\inc\xmc_dac.h **** XMC_DAC_CH_STATUS_t XMC_DAC_CH_StartDataMode(XMC_DAC_t *const dac,
 596:C:\Users\Depes Crystalline\Desktop\school\Active_Bike_Lighting_System\Radar_Core\Libraries\XMCLib\inc\xmc_dac.h ****                                              const uint8_t channel,
 597:C:\Users\Depes Crystalline\Desktop\school\Active_Bike_Lighting_System\Radar_Core\Libraries\XMCLib\inc\xmc_dac.h ****                                              const XMC_DAC_CH_TRIGGER_t trigger,
 598:C:\Users\Depes Crystalline\Desktop\school\Active_Bike_Lighting_System\Radar_Core\Libraries\XMCLib\inc\xmc_dac.h ****                                              const uint32_t frequency);
 599:C:\Users\Depes Crystalline\Desktop\school\Active_Bike_Lighting_System\Radar_Core\Libraries\XMCLib\inc\xmc_dac.h **** 
 600:C:\Users\Depes Crystalline\Desktop\school\Active_Bike_Lighting_System\Radar_Core\Libraries\XMCLib\inc\xmc_dac.h **** /**
 601:C:\Users\Depes Crystalline\Desktop\school\Active_Bike_Lighting_System\Radar_Core\Libraries\XMCLib\inc\xmc_dac.h ****  * @param dac Pointer to an instance of DAC module
 602:C:\Users\Depes Crystalline\Desktop\school\Active_Bike_Lighting_System\Radar_Core\Libraries\XMCLib\inc\xmc_dac.h ****  * @param channel DAC channel number
 603:C:\Users\Depes Crystalline\Desktop\school\Active_Bike_Lighting_System\Radar_Core\Libraries\XMCLib\inc\xmc_dac.h ****  * @param start Start point of the ramp [0-4095]
 604:C:\Users\Depes Crystalline\Desktop\school\Active_Bike_Lighting_System\Radar_Core\Libraries\XMCLib\inc\xmc_dac.h ****  * @param stop Stop point of the ramp [0-4095]
 605:C:\Users\Depes Crystalline\Desktop\school\Active_Bike_Lighting_System\Radar_Core\Libraries\XMCLib\inc\xmc_dac.h ****  * @param trigger Data points update trigger
 606:C:\Users\Depes Crystalline\Desktop\school\Active_Bike_Lighting_System\Radar_Core\Libraries\XMCLib\inc\xmc_dac.h ****  * @param frequency Ramp frequency in [Hz]
 607:C:\Users\Depes Crystalline\Desktop\school\Active_Bike_Lighting_System\Radar_Core\Libraries\XMCLib\inc\xmc_dac.h ****  *
 608:C:\Users\Depes Crystalline\Desktop\school\Active_Bike_Lighting_System\Radar_Core\Libraries\XMCLib\inc\xmc_dac.h ****  * @return XMC_DAC_CH_STATUS_t status
 609:C:\Users\Depes Crystalline\Desktop\school\Active_Bike_Lighting_System\Radar_Core\Libraries\XMCLib\inc\xmc_dac.h ****  *
 610:C:\Users\Depes Crystalline\Desktop\school\Active_Bike_Lighting_System\Radar_Core\Libraries\XMCLib\inc\xmc_dac.h ****  * \par<b>Description:</b><br>
 611:C:\Users\Depes Crystalline\Desktop\school\Active_Bike_Lighting_System\Radar_Core\Libraries\XMCLib\inc\xmc_dac.h ****  * Sets the \e channel to Ramp mode. Trigger, frequency, start and stop values are configured.
 612:C:\Users\Depes Crystalline\Desktop\school\Active_Bike_Lighting_System\Radar_Core\Libraries\XMCLib\inc\xmc_dac.h ****  * On a \e trigger ramp values are converted and driven to \e channel output.
 613:C:\Users\Depes Crystalline\Desktop\school\Active_Bike_Lighting_System\Radar_Core\Libraries\XMCLib\inc\xmc_dac.h ****  * Start and stop have the range of [0-4095]. Stop should be equal or greater than start. 
 614:C:\Users\Depes Crystalline\Desktop\school\Active_Bike_Lighting_System\Radar_Core\Libraries\XMCLib\inc\xmc_dac.h ****  *
 615:C:\Users\Depes Crystalline\Desktop\school\Active_Bike_Lighting_System\Radar_Core\Libraries\XMCLib\inc\xmc_dac.h ****  * \par<b>Note:</b><br>
 616:C:\Users\Depes Crystalline\Desktop\school\Active_Bike_Lighting_System\Radar_Core\Libraries\XMCLib\inc\xmc_dac.h ****  * If the ramp counter reaches its \e stop value, it restarts from the \e start value with the next
 617:C:\Users\Depes Crystalline\Desktop\school\Active_Bike_Lighting_System\Radar_Core\Libraries\XMCLib\inc\xmc_dac.h ****  *
 618:C:\Users\Depes Crystalline\Desktop\school\Active_Bike_Lighting_System\Radar_Core\Libraries\XMCLib\inc\xmc_dac.h ****  * \par<b>Related APIs:</b><BR>
 619:C:\Users\Depes Crystalline\Desktop\school\Active_Bike_Lighting_System\Radar_Core\Libraries\XMCLib\inc\xmc_dac.h ****  * XMC_DAC_CH_Init(), XMC_DAC_CH_GetRampStart(), XMC_DAC_CH_GetRampStop() \n\n\n
 620:C:\Users\Depes Crystalline\Desktop\school\Active_Bike_Lighting_System\Radar_Core\Libraries\XMCLib\inc\xmc_dac.h ****  *
 621:C:\Users\Depes Crystalline\Desktop\school\Active_Bike_Lighting_System\Radar_Core\Libraries\XMCLib\inc\xmc_dac.h ****  */
 622:C:\Users\Depes Crystalline\Desktop\school\Active_Bike_Lighting_System\Radar_Core\Libraries\XMCLib\inc\xmc_dac.h **** XMC_DAC_CH_STATUS_t XMC_DAC_CH_StartRampMode(XMC_DAC_t *const dac,
 623:C:\Users\Depes Crystalline\Desktop\school\Active_Bike_Lighting_System\Radar_Core\Libraries\XMCLib\inc\xmc_dac.h ****                                              const uint8_t channel,
 624:C:\Users\Depes Crystalline\Desktop\school\Active_Bike_Lighting_System\Radar_Core\Libraries\XMCLib\inc\xmc_dac.h ****                                              const uint16_t start,
 625:C:\Users\Depes Crystalline\Desktop\school\Active_Bike_Lighting_System\Radar_Core\Libraries\XMCLib\inc\xmc_dac.h ****                                              const uint16_t stop,
 626:C:\Users\Depes Crystalline\Desktop\school\Active_Bike_Lighting_System\Radar_Core\Libraries\XMCLib\inc\xmc_dac.h ****                                              const XMC_DAC_CH_TRIGGER_t trigger,
 627:C:\Users\Depes Crystalline\Desktop\school\Active_Bike_Lighting_System\Radar_Core\Libraries\XMCLib\inc\xmc_dac.h ****                                              const uint32_t frequency);
 628:C:\Users\Depes Crystalline\Desktop\school\Active_Bike_Lighting_System\Radar_Core\Libraries\XMCLib\inc\xmc_dac.h **** 
 629:C:\Users\Depes Crystalline\Desktop\school\Active_Bike_Lighting_System\Radar_Core\Libraries\XMCLib\inc\xmc_dac.h **** /**
 630:C:\Users\Depes Crystalline\Desktop\school\Active_Bike_Lighting_System\Radar_Core\Libraries\XMCLib\inc\xmc_dac.h ****  * @param dac Pointer to an instance of DAC module
 631:C:\Users\Depes Crystalline\Desktop\school\Active_Bike_Lighting_System\Radar_Core\Libraries\XMCLib\inc\xmc_dac.h ****  * @param channel DAC channel number
 632:C:\Users\Depes Crystalline\Desktop\school\Active_Bike_Lighting_System\Radar_Core\Libraries\XMCLib\inc\xmc_dac.h ****  * @param pattern Data table of a pattern
 633:C:\Users\Depes Crystalline\Desktop\school\Active_Bike_Lighting_System\Radar_Core\Libraries\XMCLib\inc\xmc_dac.h ****  * @param sign_output Sign information of the waveform
 634:C:\Users\Depes Crystalline\Desktop\school\Active_Bike_Lighting_System\Radar_Core\Libraries\XMCLib\inc\xmc_dac.h ****  * @param trigger Data points update trigger
 635:C:\Users\Depes Crystalline\Desktop\school\Active_Bike_Lighting_System\Radar_Core\Libraries\XMCLib\inc\xmc_dac.h ****  * @param frequency Waveform frequency in [Hz]
 636:C:\Users\Depes Crystalline\Desktop\school\Active_Bike_Lighting_System\Radar_Core\Libraries\XMCLib\inc\xmc_dac.h ****  *
 637:C:\Users\Depes Crystalline\Desktop\school\Active_Bike_Lighting_System\Radar_Core\Libraries\XMCLib\inc\xmc_dac.h ****  * @return XMC_DAC_CH_STATUS_t status
 638:C:\Users\Depes Crystalline\Desktop\school\Active_Bike_Lighting_System\Radar_Core\Libraries\XMCLib\inc\xmc_dac.h ****  *
 639:C:\Users\Depes Crystalline\Desktop\school\Active_Bike_Lighting_System\Radar_Core\Libraries\XMCLib\inc\xmc_dac.h ****  * \par<b>Description:</b><br>
 640:C:\Users\Depes Crystalline\Desktop\school\Active_Bike_Lighting_System\Radar_Core\Libraries\XMCLib\inc\xmc_dac.h ****  * Sets the \e channel to Pattern mode. Trigger, frequency, sign output and data are configured.
 641:C:\Users\Depes Crystalline\Desktop\school\Active_Bike_Lighting_System\Radar_Core\Libraries\XMCLib\inc\xmc_dac.h ****  * On a \e trigger, the \e pattern values are converted and driven to \e channel output.
 642:C:\Users\Depes Crystalline\Desktop\school\Active_Bike_Lighting_System\Radar_Core\Libraries\XMCLib\inc\xmc_dac.h ****  *
 643:C:\Users\Depes Crystalline\Desktop\school\Active_Bike_Lighting_System\Radar_Core\Libraries\XMCLib\inc\xmc_dac.h ****  * \par<b>Related APIs:</b><BR>
 644:C:\Users\Depes Crystalline\Desktop\school\Active_Bike_Lighting_System\Radar_Core\Libraries\XMCLib\inc\xmc_dac.h ****  * XMC_DAC_CH_Init(), XMC_DAC_CH_DisablePatternSignOutput() \n\n\n
 645:C:\Users\Depes Crystalline\Desktop\school\Active_Bike_Lighting_System\Radar_Core\Libraries\XMCLib\inc\xmc_dac.h ****  *
 646:C:\Users\Depes Crystalline\Desktop\school\Active_Bike_Lighting_System\Radar_Core\Libraries\XMCLib\inc\xmc_dac.h ****  */
 647:C:\Users\Depes Crystalline\Desktop\school\Active_Bike_Lighting_System\Radar_Core\Libraries\XMCLib\inc\xmc_dac.h **** XMC_DAC_CH_STATUS_t XMC_DAC_CH_StartPatternMode(XMC_DAC_t *const dac,
 648:C:\Users\Depes Crystalline\Desktop\school\Active_Bike_Lighting_System\Radar_Core\Libraries\XMCLib\inc\xmc_dac.h ****                                                 const uint8_t channel,
 649:C:\Users\Depes Crystalline\Desktop\school\Active_Bike_Lighting_System\Radar_Core\Libraries\XMCLib\inc\xmc_dac.h ****                                                 const uint8_t *const pattern,
 650:C:\Users\Depes Crystalline\Desktop\school\Active_Bike_Lighting_System\Radar_Core\Libraries\XMCLib\inc\xmc_dac.h ****                                                 const XMC_DAC_CH_PATTERN_SIGN_OUTPUT_t sign_output,
 651:C:\Users\Depes Crystalline\Desktop\school\Active_Bike_Lighting_System\Radar_Core\Libraries\XMCLib\inc\xmc_dac.h ****                                                 const XMC_DAC_CH_TRIGGER_t trigger,
 652:C:\Users\Depes Crystalline\Desktop\school\Active_Bike_Lighting_System\Radar_Core\Libraries\XMCLib\inc\xmc_dac.h ****                                                 const uint32_t frequency);
 653:C:\Users\Depes Crystalline\Desktop\school\Active_Bike_Lighting_System\Radar_Core\Libraries\XMCLib\inc\xmc_dac.h **** 
 654:C:\Users\Depes Crystalline\Desktop\school\Active_Bike_Lighting_System\Radar_Core\Libraries\XMCLib\inc\xmc_dac.h **** /**
 655:C:\Users\Depes Crystalline\Desktop\school\Active_Bike_Lighting_System\Radar_Core\Libraries\XMCLib\inc\xmc_dac.h ****  * @param dac Pointer to an instance of DAC module
 656:C:\Users\Depes Crystalline\Desktop\school\Active_Bike_Lighting_System\Radar_Core\Libraries\XMCLib\inc\xmc_dac.h ****  * @param channel DAC channel number
 657:C:\Users\Depes Crystalline\Desktop\school\Active_Bike_Lighting_System\Radar_Core\Libraries\XMCLib\inc\xmc_dac.h ****  * @param trigger Data points update trigger
 658:C:\Users\Depes Crystalline\Desktop\school\Active_Bike_Lighting_System\Radar_Core\Libraries\XMCLib\inc\xmc_dac.h ****  * @param frequency Waveform frequency in [Hz]
 659:C:\Users\Depes Crystalline\Desktop\school\Active_Bike_Lighting_System\Radar_Core\Libraries\XMCLib\inc\xmc_dac.h ****  *
 660:C:\Users\Depes Crystalline\Desktop\school\Active_Bike_Lighting_System\Radar_Core\Libraries\XMCLib\inc\xmc_dac.h ****  * @return XMC_DAC_CH_STATUS_t status
 661:C:\Users\Depes Crystalline\Desktop\school\Active_Bike_Lighting_System\Radar_Core\Libraries\XMCLib\inc\xmc_dac.h ****  *
 662:C:\Users\Depes Crystalline\Desktop\school\Active_Bike_Lighting_System\Radar_Core\Libraries\XMCLib\inc\xmc_dac.h ****  * \par<b>Description:</b><br>
 663:C:\Users\Depes Crystalline\Desktop\school\Active_Bike_Lighting_System\Radar_Core\Libraries\XMCLib\inc\xmc_dac.h ****  * Sets the \e channel to Noise mode. Trigger and frequency are configured.
 664:C:\Users\Depes Crystalline\Desktop\school\Active_Bike_Lighting_System\Radar_Core\Libraries\XMCLib\inc\xmc_dac.h ****  * On a \e trigger the DAC starts converting and drives to \e channel output.
 665:C:\Users\Depes Crystalline\Desktop\school\Active_Bike_Lighting_System\Radar_Core\Libraries\XMCLib\inc\xmc_dac.h ****  *
 666:C:\Users\Depes Crystalline\Desktop\school\Active_Bike_Lighting_System\Radar_Core\Libraries\XMCLib\inc\xmc_dac.h ****  * \par<b>Related APIs:</b><BR>
 667:C:\Users\Depes Crystalline\Desktop\school\Active_Bike_Lighting_System\Radar_Core\Libraries\XMCLib\inc\xmc_dac.h ****  * XMC_DAC_CH_Init()\n\n\n
 668:C:\Users\Depes Crystalline\Desktop\school\Active_Bike_Lighting_System\Radar_Core\Libraries\XMCLib\inc\xmc_dac.h ****  *
 669:C:\Users\Depes Crystalline\Desktop\school\Active_Bike_Lighting_System\Radar_Core\Libraries\XMCLib\inc\xmc_dac.h ****  */
 670:C:\Users\Depes Crystalline\Desktop\school\Active_Bike_Lighting_System\Radar_Core\Libraries\XMCLib\inc\xmc_dac.h **** XMC_DAC_CH_STATUS_t XMC_DAC_CH_StartNoiseMode(XMC_DAC_t *const dac,
 671:C:\Users\Depes Crystalline\Desktop\school\Active_Bike_Lighting_System\Radar_Core\Libraries\XMCLib\inc\xmc_dac.h ****                                               const uint8_t channel,
 672:C:\Users\Depes Crystalline\Desktop\school\Active_Bike_Lighting_System\Radar_Core\Libraries\XMCLib\inc\xmc_dac.h ****                                               const XMC_DAC_CH_TRIGGER_t trigger,
 673:C:\Users\Depes Crystalline\Desktop\school\Active_Bike_Lighting_System\Radar_Core\Libraries\XMCLib\inc\xmc_dac.h ****                                               const uint32_t frequency);
 674:C:\Users\Depes Crystalline\Desktop\school\Active_Bike_Lighting_System\Radar_Core\Libraries\XMCLib\inc\xmc_dac.h **** 
 675:C:\Users\Depes Crystalline\Desktop\school\Active_Bike_Lighting_System\Radar_Core\Libraries\XMCLib\inc\xmc_dac.h **** /**
 676:C:\Users\Depes Crystalline\Desktop\school\Active_Bike_Lighting_System\Radar_Core\Libraries\XMCLib\inc\xmc_dac.h ****  * @param dac Pointer to an instance of DAC module
 677:C:\Users\Depes Crystalline\Desktop\school\Active_Bike_Lighting_System\Radar_Core\Libraries\XMCLib\inc\xmc_dac.h ****  * @param channel DAC channel number
 678:C:\Users\Depes Crystalline\Desktop\school\Active_Bike_Lighting_System\Radar_Core\Libraries\XMCLib\inc\xmc_dac.h ****  * @param pattern Pointer to the data table
 679:C:\Users\Depes Crystalline\Desktop\school\Active_Bike_Lighting_System\Radar_Core\Libraries\XMCLib\inc\xmc_dac.h ****  *
 680:C:\Users\Depes Crystalline\Desktop\school\Active_Bike_Lighting_System\Radar_Core\Libraries\XMCLib\inc\xmc_dac.h ****  * @return None
 681:C:\Users\Depes Crystalline\Desktop\school\Active_Bike_Lighting_System\Radar_Core\Libraries\XMCLib\inc\xmc_dac.h ****  *
 682:C:\Users\Depes Crystalline\Desktop\school\Active_Bike_Lighting_System\Radar_Core\Libraries\XMCLib\inc\xmc_dac.h ****  * \par<b>Description:</b><br>
 683:C:\Users\Depes Crystalline\Desktop\school\Active_Bike_Lighting_System\Radar_Core\Libraries\XMCLib\inc\xmc_dac.h ****  * The data for the Pattern mode is written to the \a DAC0PATL and \a DAC0PATH registers.
 684:C:\Users\Depes Crystalline\Desktop\school\Active_Bike_Lighting_System\Radar_Core\Libraries\XMCLib\inc\xmc_dac.h ****  * The API is called by XMC_DAC_CH_StartPatternMode().
 685:C:\Users\Depes Crystalline\Desktop\school\Active_Bike_Lighting_System\Radar_Core\Libraries\XMCLib\inc\xmc_dac.h ****  *
 686:C:\Users\Depes Crystalline\Desktop\school\Active_Bike_Lighting_System\Radar_Core\Libraries\XMCLib\inc\xmc_dac.h ****  * \par<b>Note:</b><br>
 687:C:\Users\Depes Crystalline\Desktop\school\Active_Bike_Lighting_System\Radar_Core\Libraries\XMCLib\inc\xmc_dac.h ****  * Call this API if the \a channel is set to Pattern mode.
 688:C:\Users\Depes Crystalline\Desktop\school\Active_Bike_Lighting_System\Radar_Core\Libraries\XMCLib\inc\xmc_dac.h ****  *
 689:C:\Users\Depes Crystalline\Desktop\school\Active_Bike_Lighting_System\Radar_Core\Libraries\XMCLib\inc\xmc_dac.h ****  * \par<b>Related APIs:</b><BR>
 690:C:\Users\Depes Crystalline\Desktop\school\Active_Bike_Lighting_System\Radar_Core\Libraries\XMCLib\inc\xmc_dac.h ****  * XMC_DAC_CH_EnablePatternSignOutput(), XMC_DAC_CH_DisablePatternSignOutput()\n\n\n
 691:C:\Users\Depes Crystalline\Desktop\school\Active_Bike_Lighting_System\Radar_Core\Libraries\XMCLib\inc\xmc_dac.h ****  *
 692:C:\Users\Depes Crystalline\Desktop\school\Active_Bike_Lighting_System\Radar_Core\Libraries\XMCLib\inc\xmc_dac.h ****  */
 693:C:\Users\Depes Crystalline\Desktop\school\Active_Bike_Lighting_System\Radar_Core\Libraries\XMCLib\inc\xmc_dac.h **** void XMC_DAC_CH_SetPattern(XMC_DAC_t *const dac, const uint8_t channel, const uint8_t *const patter
 694:C:\Users\Depes Crystalline\Desktop\school\Active_Bike_Lighting_System\Radar_Core\Libraries\XMCLib\inc\xmc_dac.h **** 
 695:C:\Users\Depes Crystalline\Desktop\school\Active_Bike_Lighting_System\Radar_Core\Libraries\XMCLib\inc\xmc_dac.h **** /**
 696:C:\Users\Depes Crystalline\Desktop\school\Active_Bike_Lighting_System\Radar_Core\Libraries\XMCLib\inc\xmc_dac.h ****  * @param dac Pointer to an instance of DAC module
 697:C:\Users\Depes Crystalline\Desktop\school\Active_Bike_Lighting_System\Radar_Core\Libraries\XMCLib\inc\xmc_dac.h ****  * @param channel DAC channel number
 698:C:\Users\Depes Crystalline\Desktop\school\Active_Bike_Lighting_System\Radar_Core\Libraries\XMCLib\inc\xmc_dac.h ****  *
 699:C:\Users\Depes Crystalline\Desktop\school\Active_Bike_Lighting_System\Radar_Core\Libraries\XMCLib\inc\xmc_dac.h ****  * @return None
 700:C:\Users\Depes Crystalline\Desktop\school\Active_Bike_Lighting_System\Radar_Core\Libraries\XMCLib\inc\xmc_dac.h ****  *
 701:C:\Users\Depes Crystalline\Desktop\school\Active_Bike_Lighting_System\Radar_Core\Libraries\XMCLib\inc\xmc_dac.h ****  * \par<b>Description:</b><br>
 702:C:\Users\Depes Crystalline\Desktop\school\Active_Bike_Lighting_System\Radar_Core\Libraries\XMCLib\inc\xmc_dac.h ****  * Enables the output sign information for Pattern Mode.
 703:C:\Users\Depes Crystalline\Desktop\school\Active_Bike_Lighting_System\Radar_Core\Libraries\XMCLib\inc\xmc_dac.h ****  *
 704:C:\Users\Depes Crystalline\Desktop\school\Active_Bike_Lighting_System\Radar_Core\Libraries\XMCLib\inc\xmc_dac.h ****  * \par
 705:C:\Users\Depes Crystalline\Desktop\school\Active_Bike_Lighting_System\Radar_Core\Libraries\XMCLib\inc\xmc_dac.h ****  * Sign output is enabled by setting \a SIGNEN bit of \a DAC0CFG0 register (for channel 0) / DAC1CF
 706:C:\Users\Depes Crystalline\Desktop\school\Active_Bike_Lighting_System\Radar_Core\Libraries\XMCLib\inc\xmc_dac.h ****  *
 707:C:\Users\Depes Crystalline\Desktop\school\Active_Bike_Lighting_System\Radar_Core\Libraries\XMCLib\inc\xmc_dac.h ****  * \par<b>Note:</b><br>
 708:C:\Users\Depes Crystalline\Desktop\school\Active_Bike_Lighting_System\Radar_Core\Libraries\XMCLib\inc\xmc_dac.h ****  * Call this API if the \e channel is set to Pattern mode.
 709:C:\Users\Depes Crystalline\Desktop\school\Active_Bike_Lighting_System\Radar_Core\Libraries\XMCLib\inc\xmc_dac.h ****  *
 710:C:\Users\Depes Crystalline\Desktop\school\Active_Bike_Lighting_System\Radar_Core\Libraries\XMCLib\inc\xmc_dac.h ****  * \par<b>Related APIs:</b><BR>
 711:C:\Users\Depes Crystalline\Desktop\school\Active_Bike_Lighting_System\Radar_Core\Libraries\XMCLib\inc\xmc_dac.h ****  * XMC_DAC_CH_StartPatternMode(), XMC_DAC_CH_DisablePatternSignOutput()\n\n\n
 712:C:\Users\Depes Crystalline\Desktop\school\Active_Bike_Lighting_System\Radar_Core\Libraries\XMCLib\inc\xmc_dac.h ****  *
 713:C:\Users\Depes Crystalline\Desktop\school\Active_Bike_Lighting_System\Radar_Core\Libraries\XMCLib\inc\xmc_dac.h ****  */
 714:C:\Users\Depes Crystalline\Desktop\school\Active_Bike_Lighting_System\Radar_Core\Libraries\XMCLib\inc\xmc_dac.h **** __STATIC_INLINE void XMC_DAC_CH_EnablePatternSignOutput(XMC_DAC_t *const dac,
 715:C:\Users\Depes Crystalline\Desktop\school\Active_Bike_Lighting_System\Radar_Core\Libraries\XMCLib\inc\xmc_dac.h ****                                                      const uint8_t channel)
 716:C:\Users\Depes Crystalline\Desktop\school\Active_Bike_Lighting_System\Radar_Core\Libraries\XMCLib\inc\xmc_dac.h **** {
  79              	 .loc 1 716 0
  80              	 .cfi_startproc
  81              	 
  82              	 
  83              	 
  84 0000 80B4     	 push {r7}
  85              	.LCFI6:
  86              	 .cfi_def_cfa_offset 4
  87              	 .cfi_offset 7,-4
  88 0002 83B0     	 sub sp,sp,#12
  89              	.LCFI7:
  90              	 .cfi_def_cfa_offset 16
  91 0004 00AF     	 add r7,sp,#0
  92              	.LCFI8:
  93              	 .cfi_def_cfa_register 7
  94 0006 7860     	 str r0,[r7,#4]
  95 0008 0B46     	 mov r3,r1
  96 000a FB70     	 strb r3,[r7,#3]
 717:C:\Users\Depes Crystalline\Desktop\school\Active_Bike_Lighting_System\Radar_Core\Libraries\XMCLib\inc\xmc_dac.h ****   dac->DACCFG[channel].low |= DAC_DAC0CFG0_SIGNEN_Msk;
  97              	 .loc 1 717 0
  98 000c F878     	 ldrb r0,[r7,#3]
  99 000e FB78     	 ldrb r3,[r7,#3]
 100 0010 7A68     	 ldr r2,[r7,#4]
 101 0012 DB00     	 lsls r3,r3,#3
 102 0014 1344     	 add r3,r3,r2
 103 0016 5B68     	 ldr r3,[r3,#4]
 104 0018 43F00052 	 orr r2,r3,#536870912
 105 001c 7968     	 ldr r1,[r7,#4]
 106 001e C300     	 lsls r3,r0,#3
 107 0020 0B44     	 add r3,r3,r1
 108 0022 5A60     	 str r2,[r3,#4]
 718:C:\Users\Depes Crystalline\Desktop\school\Active_Bike_Lighting_System\Radar_Core\Libraries\XMCLib\inc\xmc_dac.h **** }
 109              	 .loc 1 718 0
 110 0024 0C37     	 adds r7,r7,#12
 111              	.LCFI9:
 112              	 .cfi_def_cfa_offset 4
 113 0026 BD46     	 mov sp,r7
 114              	.LCFI10:
 115              	 .cfi_def_cfa_register 13
 116              	 
 117 0028 5DF8047B 	 ldr r7,[sp],#4
 118              	.LCFI11:
 119              	 .cfi_restore 7
 120              	 .cfi_def_cfa_offset 0
 121 002c 7047     	 bx lr
 122              	 .cfi_endproc
 123              	.LFE135:
 125 002e 00BF     	 .section .text.XMC_DAC_CH_DisablePatternSignOutput,"ax",%progbits
 126              	 .align 2
 127              	 .thumb
 128              	 .thumb_func
 130              	XMC_DAC_CH_DisablePatternSignOutput:
 131              	.LFB136:
 719:C:\Users\Depes Crystalline\Desktop\school\Active_Bike_Lighting_System\Radar_Core\Libraries\XMCLib\inc\xmc_dac.h **** 
 720:C:\Users\Depes Crystalline\Desktop\school\Active_Bike_Lighting_System\Radar_Core\Libraries\XMCLib\inc\xmc_dac.h **** /**
 721:C:\Users\Depes Crystalline\Desktop\school\Active_Bike_Lighting_System\Radar_Core\Libraries\XMCLib\inc\xmc_dac.h ****  * @param dac Pointer to an instance of DAC module
 722:C:\Users\Depes Crystalline\Desktop\school\Active_Bike_Lighting_System\Radar_Core\Libraries\XMCLib\inc\xmc_dac.h ****  * @param channel DAC channel number
 723:C:\Users\Depes Crystalline\Desktop\school\Active_Bike_Lighting_System\Radar_Core\Libraries\XMCLib\inc\xmc_dac.h ****  *
 724:C:\Users\Depes Crystalline\Desktop\school\Active_Bike_Lighting_System\Radar_Core\Libraries\XMCLib\inc\xmc_dac.h ****  * @return None
 725:C:\Users\Depes Crystalline\Desktop\school\Active_Bike_Lighting_System\Radar_Core\Libraries\XMCLib\inc\xmc_dac.h ****  *
 726:C:\Users\Depes Crystalline\Desktop\school\Active_Bike_Lighting_System\Radar_Core\Libraries\XMCLib\inc\xmc_dac.h ****  * \par<b>Description:</b><br>
 727:C:\Users\Depes Crystalline\Desktop\school\Active_Bike_Lighting_System\Radar_Core\Libraries\XMCLib\inc\xmc_dac.h ****  * Disables output sign information for Pattern Mode.
 728:C:\Users\Depes Crystalline\Desktop\school\Active_Bike_Lighting_System\Radar_Core\Libraries\XMCLib\inc\xmc_dac.h ****  *
 729:C:\Users\Depes Crystalline\Desktop\school\Active_Bike_Lighting_System\Radar_Core\Libraries\XMCLib\inc\xmc_dac.h ****  * \par
 730:C:\Users\Depes Crystalline\Desktop\school\Active_Bike_Lighting_System\Radar_Core\Libraries\XMCLib\inc\xmc_dac.h ****  * Sign output is disabled by clearing \a SIGNEN bit of \a DAC0CFG0 register (for channel 0) / DAC1
 731:C:\Users\Depes Crystalline\Desktop\school\Active_Bike_Lighting_System\Radar_Core\Libraries\XMCLib\inc\xmc_dac.h ****  *
 732:C:\Users\Depes Crystalline\Desktop\school\Active_Bike_Lighting_System\Radar_Core\Libraries\XMCLib\inc\xmc_dac.h ****  * \par<b>Note:</b><br>
 733:C:\Users\Depes Crystalline\Desktop\school\Active_Bike_Lighting_System\Radar_Core\Libraries\XMCLib\inc\xmc_dac.h ****  * Call this API if the \e channel is set to Pattern mode.
 734:C:\Users\Depes Crystalline\Desktop\school\Active_Bike_Lighting_System\Radar_Core\Libraries\XMCLib\inc\xmc_dac.h ****  *
 735:C:\Users\Depes Crystalline\Desktop\school\Active_Bike_Lighting_System\Radar_Core\Libraries\XMCLib\inc\xmc_dac.h ****  * \par<b>Related APIs:</b><BR>
 736:C:\Users\Depes Crystalline\Desktop\school\Active_Bike_Lighting_System\Radar_Core\Libraries\XMCLib\inc\xmc_dac.h ****  * XMC_DAC_CH_StartPatternMode(), XMC_DAC_CH_EnablePatternSignOutput()\n\n\n
 737:C:\Users\Depes Crystalline\Desktop\school\Active_Bike_Lighting_System\Radar_Core\Libraries\XMCLib\inc\xmc_dac.h ****  *
 738:C:\Users\Depes Crystalline\Desktop\school\Active_Bike_Lighting_System\Radar_Core\Libraries\XMCLib\inc\xmc_dac.h ****  */
 739:C:\Users\Depes Crystalline\Desktop\school\Active_Bike_Lighting_System\Radar_Core\Libraries\XMCLib\inc\xmc_dac.h **** __STATIC_INLINE void XMC_DAC_CH_DisablePatternSignOutput(XMC_DAC_t *const dac,
 740:C:\Users\Depes Crystalline\Desktop\school\Active_Bike_Lighting_System\Radar_Core\Libraries\XMCLib\inc\xmc_dac.h ****                                                      const uint8_t channel)
 741:C:\Users\Depes Crystalline\Desktop\school\Active_Bike_Lighting_System\Radar_Core\Libraries\XMCLib\inc\xmc_dac.h **** {
 132              	 .loc 1 741 0
 133              	 .cfi_startproc
 134              	 
 135              	 
 136              	 
 137 0000 80B4     	 push {r7}
 138              	.LCFI12:
 139              	 .cfi_def_cfa_offset 4
 140              	 .cfi_offset 7,-4
 141 0002 83B0     	 sub sp,sp,#12
 142              	.LCFI13:
 143              	 .cfi_def_cfa_offset 16
 144 0004 00AF     	 add r7,sp,#0
 145              	.LCFI14:
 146              	 .cfi_def_cfa_register 7
 147 0006 7860     	 str r0,[r7,#4]
 148 0008 0B46     	 mov r3,r1
 149 000a FB70     	 strb r3,[r7,#3]
 742:C:\Users\Depes Crystalline\Desktop\school\Active_Bike_Lighting_System\Radar_Core\Libraries\XMCLib\inc\xmc_dac.h ****   dac->DACCFG[channel].low &= ~DAC_DAC0CFG0_SIGNEN_Msk;
 150              	 .loc 1 742 0
 151 000c F878     	 ldrb r0,[r7,#3]
 152 000e FB78     	 ldrb r3,[r7,#3]
 153 0010 7A68     	 ldr r2,[r7,#4]
 154 0012 DB00     	 lsls r3,r3,#3
 155 0014 1344     	 add r3,r3,r2
 156 0016 5B68     	 ldr r3,[r3,#4]
 157 0018 23F00052 	 bic r2,r3,#536870912
 158 001c 7968     	 ldr r1,[r7,#4]
 159 001e C300     	 lsls r3,r0,#3
 160 0020 0B44     	 add r3,r3,r1
 161 0022 5A60     	 str r2,[r3,#4]
 743:C:\Users\Depes Crystalline\Desktop\school\Active_Bike_Lighting_System\Radar_Core\Libraries\XMCLib\inc\xmc_dac.h **** }
 162              	 .loc 1 743 0
 163 0024 0C37     	 adds r7,r7,#12
 164              	.LCFI15:
 165              	 .cfi_def_cfa_offset 4
 166 0026 BD46     	 mov sp,r7
 167              	.LCFI16:
 168              	 .cfi_def_cfa_register 13
 169              	 
 170 0028 5DF8047B 	 ldr r7,[sp],#4
 171              	.LCFI17:
 172              	 .cfi_restore 7
 173              	 .cfi_def_cfa_offset 0
 174 002c 7047     	 bx lr
 175              	 .cfi_endproc
 176              	.LFE136:
 178 002e 00BF     	 .section .text.XMC_DAC_CH_SetRampStart,"ax",%progbits
 179              	 .align 2
 180              	 .thumb
 181              	 .thumb_func
 183              	XMC_DAC_CH_SetRampStart:
 184              	.LFB137:
 744:C:\Users\Depes Crystalline\Desktop\school\Active_Bike_Lighting_System\Radar_Core\Libraries\XMCLib\inc\xmc_dac.h **** 
 745:C:\Users\Depes Crystalline\Desktop\school\Active_Bike_Lighting_System\Radar_Core\Libraries\XMCLib\inc\xmc_dac.h **** /**
 746:C:\Users\Depes Crystalline\Desktop\school\Active_Bike_Lighting_System\Radar_Core\Libraries\XMCLib\inc\xmc_dac.h ****  * @param dac Pointer to an instance of DAC module
 747:C:\Users\Depes Crystalline\Desktop\school\Active_Bike_Lighting_System\Radar_Core\Libraries\XMCLib\inc\xmc_dac.h ****  * @param channel DAC channel number
 748:C:\Users\Depes Crystalline\Desktop\school\Active_Bike_Lighting_System\Radar_Core\Libraries\XMCLib\inc\xmc_dac.h ****  * @param start Ramp start point [0-4095]
 749:C:\Users\Depes Crystalline\Desktop\school\Active_Bike_Lighting_System\Radar_Core\Libraries\XMCLib\inc\xmc_dac.h ****  *
 750:C:\Users\Depes Crystalline\Desktop\school\Active_Bike_Lighting_System\Radar_Core\Libraries\XMCLib\inc\xmc_dac.h ****  * @return None
 751:C:\Users\Depes Crystalline\Desktop\school\Active_Bike_Lighting_System\Radar_Core\Libraries\XMCLib\inc\xmc_dac.h ****  *
 752:C:\Users\Depes Crystalline\Desktop\school\Active_Bike_Lighting_System\Radar_Core\Libraries\XMCLib\inc\xmc_dac.h ****  * \par<b>Description:</b><br>
 753:C:\Users\Depes Crystalline\Desktop\school\Active_Bike_Lighting_System\Radar_Core\Libraries\XMCLib\inc\xmc_dac.h ****  * Sets the ramp start value by writing to the register \a DAC0DATA (for \e channel 0) or \a DAC1DA
 754:C:\Users\Depes Crystalline\Desktop\school\Active_Bike_Lighting_System\Radar_Core\Libraries\XMCLib\inc\xmc_dac.h ****  * If the ramp counter reaches its stop value, it restarts from the \a start value with the next tr
 755:C:\Users\Depes Crystalline\Desktop\school\Active_Bike_Lighting_System\Radar_Core\Libraries\XMCLib\inc\xmc_dac.h ****  * Ensure \e start value is lower than the stop value.
 756:C:\Users\Depes Crystalline\Desktop\school\Active_Bike_Lighting_System\Radar_Core\Libraries\XMCLib\inc\xmc_dac.h ****  *
 757:C:\Users\Depes Crystalline\Desktop\school\Active_Bike_Lighting_System\Radar_Core\Libraries\XMCLib\inc\xmc_dac.h ****  * \par<b>Note:</b><br>
 758:C:\Users\Depes Crystalline\Desktop\school\Active_Bike_Lighting_System\Radar_Core\Libraries\XMCLib\inc\xmc_dac.h ****  * Call this API if the \a channel is set to Ramp mode.
 759:C:\Users\Depes Crystalline\Desktop\school\Active_Bike_Lighting_System\Radar_Core\Libraries\XMCLib\inc\xmc_dac.h ****  * Start value is a 12 bit data.
 760:C:\Users\Depes Crystalline\Desktop\school\Active_Bike_Lighting_System\Radar_Core\Libraries\XMCLib\inc\xmc_dac.h ****  *
 761:C:\Users\Depes Crystalline\Desktop\school\Active_Bike_Lighting_System\Radar_Core\Libraries\XMCLib\inc\xmc_dac.h ****  * \par<b>Related APIs:</b><BR>
 762:C:\Users\Depes Crystalline\Desktop\school\Active_Bike_Lighting_System\Radar_Core\Libraries\XMCLib\inc\xmc_dac.h ****  * XMC_DAC_CH_GetRampStart(), XMC_DAC_CH_GetRampStop(), XMC_DAC_CH_SetRampStop()\n\n\n
 763:C:\Users\Depes Crystalline\Desktop\school\Active_Bike_Lighting_System\Radar_Core\Libraries\XMCLib\inc\xmc_dac.h ****  *
 764:C:\Users\Depes Crystalline\Desktop\school\Active_Bike_Lighting_System\Radar_Core\Libraries\XMCLib\inc\xmc_dac.h ****  */
 765:C:\Users\Depes Crystalline\Desktop\school\Active_Bike_Lighting_System\Radar_Core\Libraries\XMCLib\inc\xmc_dac.h **** __STATIC_INLINE void XMC_DAC_CH_SetRampStart(XMC_DAC_t *const dac, const uint8_t channel, const uin
 766:C:\Users\Depes Crystalline\Desktop\school\Active_Bike_Lighting_System\Radar_Core\Libraries\XMCLib\inc\xmc_dac.h **** {
 185              	 .loc 1 766 0
 186              	 .cfi_startproc
 187              	 
 188              	 
 189              	 
 190 0000 80B4     	 push {r7}
 191              	.LCFI18:
 192              	 .cfi_def_cfa_offset 4
 193              	 .cfi_offset 7,-4
 194 0002 83B0     	 sub sp,sp,#12
 195              	.LCFI19:
 196              	 .cfi_def_cfa_offset 16
 197 0004 00AF     	 add r7,sp,#0
 198              	.LCFI20:
 199              	 .cfi_def_cfa_register 7
 200 0006 7860     	 str r0,[r7,#4]
 201 0008 0B46     	 mov r3,r1
 202 000a FB70     	 strb r3,[r7,#3]
 203 000c 1346     	 mov r3,r2
 204 000e 3B80     	 strh r3,[r7]
 767:C:\Users\Depes Crystalline\Desktop\school\Active_Bike_Lighting_System\Radar_Core\Libraries\XMCLib\inc\xmc_dac.h ****   dac->DACDATA[channel] = start;
 205              	 .loc 1 767 0
 206 0010 FB78     	 ldrb r3,[r7,#3]
 207 0012 3A88     	 ldrh r2,[r7]
 208 0014 7968     	 ldr r1,[r7,#4]
 209 0016 0433     	 adds r3,r3,#4
 210 0018 9B00     	 lsls r3,r3,#2
 211 001a 0B44     	 add r3,r3,r1
 212 001c 5A60     	 str r2,[r3,#4]
 768:C:\Users\Depes Crystalline\Desktop\school\Active_Bike_Lighting_System\Radar_Core\Libraries\XMCLib\inc\xmc_dac.h **** }
 213              	 .loc 1 768 0
 214 001e 0C37     	 adds r7,r7,#12
 215              	.LCFI21:
 216              	 .cfi_def_cfa_offset 4
 217 0020 BD46     	 mov sp,r7
 218              	.LCFI22:
 219              	 .cfi_def_cfa_register 13
 220              	 
 221 0022 5DF8047B 	 ldr r7,[sp],#4
 222              	.LCFI23:
 223              	 .cfi_restore 7
 224              	 .cfi_def_cfa_offset 0
 225 0026 7047     	 bx lr
 226              	 .cfi_endproc
 227              	.LFE137:
 229              	 .section .text.XMC_DAC_CH_SetRampStop,"ax",%progbits
 230              	 .align 2
 231              	 .thumb
 232              	 .thumb_func
 234              	XMC_DAC_CH_SetRampStop:
 235              	.LFB139:
 769:C:\Users\Depes Crystalline\Desktop\school\Active_Bike_Lighting_System\Radar_Core\Libraries\XMCLib\inc\xmc_dac.h **** 
 770:C:\Users\Depes Crystalline\Desktop\school\Active_Bike_Lighting_System\Radar_Core\Libraries\XMCLib\inc\xmc_dac.h **** /**
 771:C:\Users\Depes Crystalline\Desktop\school\Active_Bike_Lighting_System\Radar_Core\Libraries\XMCLib\inc\xmc_dac.h ****  * @param dac Pointer to an instance of DAC module
 772:C:\Users\Depes Crystalline\Desktop\school\Active_Bike_Lighting_System\Radar_Core\Libraries\XMCLib\inc\xmc_dac.h ****  * @param channel DAC channel number
 773:C:\Users\Depes Crystalline\Desktop\school\Active_Bike_Lighting_System\Radar_Core\Libraries\XMCLib\inc\xmc_dac.h ****  *
 774:C:\Users\Depes Crystalline\Desktop\school\Active_Bike_Lighting_System\Radar_Core\Libraries\XMCLib\inc\xmc_dac.h ****  * @return uint16_t
 775:C:\Users\Depes Crystalline\Desktop\school\Active_Bike_Lighting_System\Radar_Core\Libraries\XMCLib\inc\xmc_dac.h ****  *
 776:C:\Users\Depes Crystalline\Desktop\school\Active_Bike_Lighting_System\Radar_Core\Libraries\XMCLib\inc\xmc_dac.h ****  * \par<b>Description:</b><br>
 777:C:\Users\Depes Crystalline\Desktop\school\Active_Bike_Lighting_System\Radar_Core\Libraries\XMCLib\inc\xmc_dac.h ****  * Gets the ramp start value by reading \a DATA0 bit-field of \a DAC0DATA register (for channel 0) 
 778:C:\Users\Depes Crystalline\Desktop\school\Active_Bike_Lighting_System\Radar_Core\Libraries\XMCLib\inc\xmc_dac.h ****  * If the ramp counter reaches its stop value, it restarts from the start value with the next trigg
 779:C:\Users\Depes Crystalline\Desktop\school\Active_Bike_Lighting_System\Radar_Core\Libraries\XMCLib\inc\xmc_dac.h ****  *
 780:C:\Users\Depes Crystalline\Desktop\school\Active_Bike_Lighting_System\Radar_Core\Libraries\XMCLib\inc\xmc_dac.h ****  * \par<b>Note:</b><br>
 781:C:\Users\Depes Crystalline\Desktop\school\Active_Bike_Lighting_System\Radar_Core\Libraries\XMCLib\inc\xmc_dac.h ****  * Call this API if the \e channel is set to Ramp mode.
 782:C:\Users\Depes Crystalline\Desktop\school\Active_Bike_Lighting_System\Radar_Core\Libraries\XMCLib\inc\xmc_dac.h ****  *
 783:C:\Users\Depes Crystalline\Desktop\school\Active_Bike_Lighting_System\Radar_Core\Libraries\XMCLib\inc\xmc_dac.h ****  * \par<b>Related APIs:</b><BR>
 784:C:\Users\Depes Crystalline\Desktop\school\Active_Bike_Lighting_System\Radar_Core\Libraries\XMCLib\inc\xmc_dac.h ****  * XMC_DAC_CH_SetRampStart(), XMC_DAC_CH_StartRampMode(), XMC_DAC_CH_GetRampStop(), XMC_DAC_CH_SetR
 785:C:\Users\Depes Crystalline\Desktop\school\Active_Bike_Lighting_System\Radar_Core\Libraries\XMCLib\inc\xmc_dac.h ****  *
 786:C:\Users\Depes Crystalline\Desktop\school\Active_Bike_Lighting_System\Radar_Core\Libraries\XMCLib\inc\xmc_dac.h ****  */
 787:C:\Users\Depes Crystalline\Desktop\school\Active_Bike_Lighting_System\Radar_Core\Libraries\XMCLib\inc\xmc_dac.h **** __STATIC_INLINE uint16_t XMC_DAC_CH_GetRampStart(XMC_DAC_t *const dac, const uint8_t channel)
 788:C:\Users\Depes Crystalline\Desktop\school\Active_Bike_Lighting_System\Radar_Core\Libraries\XMCLib\inc\xmc_dac.h **** {
 789:C:\Users\Depes Crystalline\Desktop\school\Active_Bike_Lighting_System\Radar_Core\Libraries\XMCLib\inc\xmc_dac.h ****   return (uint16_t)(dac->DACDATA[channel]);
 790:C:\Users\Depes Crystalline\Desktop\school\Active_Bike_Lighting_System\Radar_Core\Libraries\XMCLib\inc\xmc_dac.h **** }
 791:C:\Users\Depes Crystalline\Desktop\school\Active_Bike_Lighting_System\Radar_Core\Libraries\XMCLib\inc\xmc_dac.h **** 
 792:C:\Users\Depes Crystalline\Desktop\school\Active_Bike_Lighting_System\Radar_Core\Libraries\XMCLib\inc\xmc_dac.h **** /**
 793:C:\Users\Depes Crystalline\Desktop\school\Active_Bike_Lighting_System\Radar_Core\Libraries\XMCLib\inc\xmc_dac.h ****  * @param dac Pointer to an instance of DAC module
 794:C:\Users\Depes Crystalline\Desktop\school\Active_Bike_Lighting_System\Radar_Core\Libraries\XMCLib\inc\xmc_dac.h ****  * @param channel DAC channel number
 795:C:\Users\Depes Crystalline\Desktop\school\Active_Bike_Lighting_System\Radar_Core\Libraries\XMCLib\inc\xmc_dac.h ****  * @param stop Ramp stop point [0-4095]
 796:C:\Users\Depes Crystalline\Desktop\school\Active_Bike_Lighting_System\Radar_Core\Libraries\XMCLib\inc\xmc_dac.h ****  *
 797:C:\Users\Depes Crystalline\Desktop\school\Active_Bike_Lighting_System\Radar_Core\Libraries\XMCLib\inc\xmc_dac.h ****  * @return None
 798:C:\Users\Depes Crystalline\Desktop\school\Active_Bike_Lighting_System\Radar_Core\Libraries\XMCLib\inc\xmc_dac.h ****  *
 799:C:\Users\Depes Crystalline\Desktop\school\Active_Bike_Lighting_System\Radar_Core\Libraries\XMCLib\inc\xmc_dac.h ****  * \par<b>Description:</b><br>
 800:C:\Users\Depes Crystalline\Desktop\school\Active_Bike_Lighting_System\Radar_Core\Libraries\XMCLib\inc\xmc_dac.h ****  * Sets the ramp stop value by writing to the bit-field \a DATA0 (for \e channel 0) or \a DATA1 (fo
 801:C:\Users\Depes Crystalline\Desktop\school\Active_Bike_Lighting_System\Radar_Core\Libraries\XMCLib\inc\xmc_dac.h ****  * If the ramp counter reaches its \a stop value, it restarts from the start value with the next tr
 802:C:\Users\Depes Crystalline\Desktop\school\Active_Bike_Lighting_System\Radar_Core\Libraries\XMCLib\inc\xmc_dac.h ****  * Ensure \e stop value is higher than the start value.
 803:C:\Users\Depes Crystalline\Desktop\school\Active_Bike_Lighting_System\Radar_Core\Libraries\XMCLib\inc\xmc_dac.h ****  *
 804:C:\Users\Depes Crystalline\Desktop\school\Active_Bike_Lighting_System\Radar_Core\Libraries\XMCLib\inc\xmc_dac.h ****  * \par<b>Note:</b><br>
 805:C:\Users\Depes Crystalline\Desktop\school\Active_Bike_Lighting_System\Radar_Core\Libraries\XMCLib\inc\xmc_dac.h ****  * Call this API if the \e channel is set to Ramp mode.
 806:C:\Users\Depes Crystalline\Desktop\school\Active_Bike_Lighting_System\Radar_Core\Libraries\XMCLib\inc\xmc_dac.h ****  * Stop value is a 12 bit data.
 807:C:\Users\Depes Crystalline\Desktop\school\Active_Bike_Lighting_System\Radar_Core\Libraries\XMCLib\inc\xmc_dac.h ****  *
 808:C:\Users\Depes Crystalline\Desktop\school\Active_Bike_Lighting_System\Radar_Core\Libraries\XMCLib\inc\xmc_dac.h ****  * \par<b>Related APIs:</b><BR>
 809:C:\Users\Depes Crystalline\Desktop\school\Active_Bike_Lighting_System\Radar_Core\Libraries\XMCLib\inc\xmc_dac.h ****  * XMC_DAC_CH_GetRampStop(), XMC_DAC_CH_SetRampStart()\n\n\n
 810:C:\Users\Depes Crystalline\Desktop\school\Active_Bike_Lighting_System\Radar_Core\Libraries\XMCLib\inc\xmc_dac.h ****  *
 811:C:\Users\Depes Crystalline\Desktop\school\Active_Bike_Lighting_System\Radar_Core\Libraries\XMCLib\inc\xmc_dac.h ****  */
 812:C:\Users\Depes Crystalline\Desktop\school\Active_Bike_Lighting_System\Radar_Core\Libraries\XMCLib\inc\xmc_dac.h **** __STATIC_INLINE void XMC_DAC_CH_SetRampStop(XMC_DAC_t *const dac, const uint8_t channel, const uint
 813:C:\Users\Depes Crystalline\Desktop\school\Active_Bike_Lighting_System\Radar_Core\Libraries\XMCLib\inc\xmc_dac.h **** {
 236              	 .loc 1 813 0
 237              	 .cfi_startproc
 238              	 
 239              	 
 240              	 
 241 0000 80B4     	 push {r7}
 242              	.LCFI24:
 243              	 .cfi_def_cfa_offset 4
 244              	 .cfi_offset 7,-4
 245 0002 83B0     	 sub sp,sp,#12
 246              	.LCFI25:
 247              	 .cfi_def_cfa_offset 16
 248 0004 00AF     	 add r7,sp,#0
 249              	.LCFI26:
 250              	 .cfi_def_cfa_register 7
 251 0006 7860     	 str r0,[r7,#4]
 252 0008 0B46     	 mov r3,r1
 253 000a FB70     	 strb r3,[r7,#3]
 254 000c 1346     	 mov r3,r2
 255 000e 3B80     	 strh r3,[r7]
 814:C:\Users\Depes Crystalline\Desktop\school\Active_Bike_Lighting_System\Radar_Core\Libraries\XMCLib\inc\xmc_dac.h ****   dac->DAC01DATA = (dac->DAC01DATA & ~(DAC_DAC01DATA_DATA0_Msk << (channel * DAC_DAC01DATA_DATA1_Po
 256              	 .loc 1 814 0
 257 0010 7B68     	 ldr r3,[r7,#4]
 258 0012 DA69     	 ldr r2,[r3,#28]
 259 0014 FB78     	 ldrb r3,[r7,#3]
 260 0016 1B01     	 lsls r3,r3,#4
 261 0018 1946     	 mov r1,r3
 262 001a 40F6FF73 	 movw r3,#4095
 263 001e 8B40     	 lsls r3,r3,r1
 264 0020 DB43     	 mvns r3,r3
 265 0022 1340     	 ands r3,r3,r2
 815:C:\Users\Depes Crystalline\Desktop\school\Active_Bike_Lighting_System\Radar_Core\Libraries\XMCLib\inc\xmc_dac.h ****                (stop << (channel * DAC_DAC01DATA_DATA1_Pos));
 266              	 .loc 1 815 0
 267 0024 3A88     	 ldrh r2,[r7]
 268 0026 F978     	 ldrb r1,[r7,#3]
 269 0028 0901     	 lsls r1,r1,#4
 270 002a 8A40     	 lsls r2,r2,r1
 814:C:\Users\Depes Crystalline\Desktop\school\Active_Bike_Lighting_System\Radar_Core\Libraries\XMCLib\inc\xmc_dac.h ****   dac->DAC01DATA = (dac->DAC01DATA & ~(DAC_DAC01DATA_DATA0_Msk << (channel * DAC_DAC01DATA_DATA1_Po
 271              	 .loc 1 814 0
 272 002c 1A43     	 orrs r2,r2,r3
 273 002e 7B68     	 ldr r3,[r7,#4]
 274 0030 DA61     	 str r2,[r3,#28]
 816:C:\Users\Depes Crystalline\Desktop\school\Active_Bike_Lighting_System\Radar_Core\Libraries\XMCLib\inc\xmc_dac.h **** }
 275              	 .loc 1 816 0
 276 0032 0C37     	 adds r7,r7,#12
 277              	.LCFI27:
 278              	 .cfi_def_cfa_offset 4
 279 0034 BD46     	 mov sp,r7
 280              	.LCFI28:
 281              	 .cfi_def_cfa_register 13
 282              	 
 283 0036 5DF8047B 	 ldr r7,[sp],#4
 284              	.LCFI29:
 285              	 .cfi_restore 7
 286              	 .cfi_def_cfa_offset 0
 287 003a 7047     	 bx lr
 288              	 .cfi_endproc
 289              	.LFE139:
 291              	 .section .text.XMC_DAC_CH_SetTrigger,"ax",%progbits
 292              	 .align 2
 293              	 .thumb
 294              	 .thumb_func
 296              	XMC_DAC_CH_SetTrigger:
 297              	.LFB141:
 817:C:\Users\Depes Crystalline\Desktop\school\Active_Bike_Lighting_System\Radar_Core\Libraries\XMCLib\inc\xmc_dac.h **** 
 818:C:\Users\Depes Crystalline\Desktop\school\Active_Bike_Lighting_System\Radar_Core\Libraries\XMCLib\inc\xmc_dac.h **** /**
 819:C:\Users\Depes Crystalline\Desktop\school\Active_Bike_Lighting_System\Radar_Core\Libraries\XMCLib\inc\xmc_dac.h ****  * @param dac Pointer to an instance of DAC module
 820:C:\Users\Depes Crystalline\Desktop\school\Active_Bike_Lighting_System\Radar_Core\Libraries\XMCLib\inc\xmc_dac.h ****  * @param channel DAC channel number
 821:C:\Users\Depes Crystalline\Desktop\school\Active_Bike_Lighting_System\Radar_Core\Libraries\XMCLib\inc\xmc_dac.h ****  *
 822:C:\Users\Depes Crystalline\Desktop\school\Active_Bike_Lighting_System\Radar_Core\Libraries\XMCLib\inc\xmc_dac.h ****  * @return uint16_t
 823:C:\Users\Depes Crystalline\Desktop\school\Active_Bike_Lighting_System\Radar_Core\Libraries\XMCLib\inc\xmc_dac.h ****  *
 824:C:\Users\Depes Crystalline\Desktop\school\Active_Bike_Lighting_System\Radar_Core\Libraries\XMCLib\inc\xmc_dac.h ****  * \par<b>Description:</b><br>
 825:C:\Users\Depes Crystalline\Desktop\school\Active_Bike_Lighting_System\Radar_Core\Libraries\XMCLib\inc\xmc_dac.h ****  * Gets the ramp stop value by reading \a DATA0 bit-field of \a DAC01DATA register (for channel 0) 
 826:C:\Users\Depes Crystalline\Desktop\school\Active_Bike_Lighting_System\Radar_Core\Libraries\XMCLib\inc\xmc_dac.h ****  * If the ramp counter reaches its stop value, it restarts from the start value with the next trigg
 827:C:\Users\Depes Crystalline\Desktop\school\Active_Bike_Lighting_System\Radar_Core\Libraries\XMCLib\inc\xmc_dac.h ****  *
 828:C:\Users\Depes Crystalline\Desktop\school\Active_Bike_Lighting_System\Radar_Core\Libraries\XMCLib\inc\xmc_dac.h ****  * \par<b>Note:</b><br>
 829:C:\Users\Depes Crystalline\Desktop\school\Active_Bike_Lighting_System\Radar_Core\Libraries\XMCLib\inc\xmc_dac.h ****  * Call this API if the \e channel is set to Ramp mode.
 830:C:\Users\Depes Crystalline\Desktop\school\Active_Bike_Lighting_System\Radar_Core\Libraries\XMCLib\inc\xmc_dac.h ****  *
 831:C:\Users\Depes Crystalline\Desktop\school\Active_Bike_Lighting_System\Radar_Core\Libraries\XMCLib\inc\xmc_dac.h ****  * \par<b>Related APIs:</b><BR>
 832:C:\Users\Depes Crystalline\Desktop\school\Active_Bike_Lighting_System\Radar_Core\Libraries\XMCLib\inc\xmc_dac.h ****  * XMC_DAC_CH_SetRampStop(), XMC_DAC_CH_StartRampMode(), XMC_DAC_CH_GetRampStart()\n\n\n
 833:C:\Users\Depes Crystalline\Desktop\school\Active_Bike_Lighting_System\Radar_Core\Libraries\XMCLib\inc\xmc_dac.h ****  *
 834:C:\Users\Depes Crystalline\Desktop\school\Active_Bike_Lighting_System\Radar_Core\Libraries\XMCLib\inc\xmc_dac.h ****  */
 835:C:\Users\Depes Crystalline\Desktop\school\Active_Bike_Lighting_System\Radar_Core\Libraries\XMCLib\inc\xmc_dac.h **** __STATIC_INLINE uint16_t XMC_DAC_CH_GetRampStop(XMC_DAC_t *const dac, const uint8_t channel)
 836:C:\Users\Depes Crystalline\Desktop\school\Active_Bike_Lighting_System\Radar_Core\Libraries\XMCLib\inc\xmc_dac.h **** {
 837:C:\Users\Depes Crystalline\Desktop\school\Active_Bike_Lighting_System\Radar_Core\Libraries\XMCLib\inc\xmc_dac.h ****   return((dac->DAC01DATA >> (channel * DAC_DAC01DATA_DATA1_Pos)) & DAC_DAC01DATA_DATA0_Msk);
 838:C:\Users\Depes Crystalline\Desktop\school\Active_Bike_Lighting_System\Radar_Core\Libraries\XMCLib\inc\xmc_dac.h **** }
 839:C:\Users\Depes Crystalline\Desktop\school\Active_Bike_Lighting_System\Radar_Core\Libraries\XMCLib\inc\xmc_dac.h **** 
 840:C:\Users\Depes Crystalline\Desktop\school\Active_Bike_Lighting_System\Radar_Core\Libraries\XMCLib\inc\xmc_dac.h **** /**
 841:C:\Users\Depes Crystalline\Desktop\school\Active_Bike_Lighting_System\Radar_Core\Libraries\XMCLib\inc\xmc_dac.h ****  * @param dac Pointer to an instance of DAC module
 842:C:\Users\Depes Crystalline\Desktop\school\Active_Bike_Lighting_System\Radar_Core\Libraries\XMCLib\inc\xmc_dac.h ****  * @param channel DAC channel number
 843:C:\Users\Depes Crystalline\Desktop\school\Active_Bike_Lighting_System\Radar_Core\Libraries\XMCLib\inc\xmc_dac.h ****  * @param trigger Trigger source
 844:C:\Users\Depes Crystalline\Desktop\school\Active_Bike_Lighting_System\Radar_Core\Libraries\XMCLib\inc\xmc_dac.h ****  *
 845:C:\Users\Depes Crystalline\Desktop\school\Active_Bike_Lighting_System\Radar_Core\Libraries\XMCLib\inc\xmc_dac.h ****  * @return None
 846:C:\Users\Depes Crystalline\Desktop\school\Active_Bike_Lighting_System\Radar_Core\Libraries\XMCLib\inc\xmc_dac.h ****  *
 847:C:\Users\Depes Crystalline\Desktop\school\Active_Bike_Lighting_System\Radar_Core\Libraries\XMCLib\inc\xmc_dac.h ****  * \par<b>Description:</b><br>
 848:C:\Users\Depes Crystalline\Desktop\school\Active_Bike_Lighting_System\Radar_Core\Libraries\XMCLib\inc\xmc_dac.h ****  * Selects the \e trigger source for the \e channel by configuring the bits TRIGSEL & TRIGMOD of CF
 849:C:\Users\Depes Crystalline\Desktop\school\Active_Bike_Lighting_System\Radar_Core\Libraries\XMCLib\inc\xmc_dac.h ****  *
 850:C:\Users\Depes Crystalline\Desktop\school\Active_Bike_Lighting_System\Radar_Core\Libraries\XMCLib\inc\xmc_dac.h ****  * \par
 851:C:\Users\Depes Crystalline\Desktop\school\Active_Bike_Lighting_System\Radar_Core\Libraries\XMCLib\inc\xmc_dac.h ****  * Channel \a channel trigger source is selected by \a TRIGSEL bit-field of \a DAC0CFG1 register (f
 852:C:\Users\Depes Crystalline\Desktop\school\Active_Bike_Lighting_System\Radar_Core\Libraries\XMCLib\inc\xmc_dac.h ****  *
 853:C:\Users\Depes Crystalline\Desktop\school\Active_Bike_Lighting_System\Radar_Core\Libraries\XMCLib\inc\xmc_dac.h ****  */
 854:C:\Users\Depes Crystalline\Desktop\school\Active_Bike_Lighting_System\Radar_Core\Libraries\XMCLib\inc\xmc_dac.h **** __STATIC_INLINE void XMC_DAC_CH_SetTrigger(XMC_DAC_t *const dac, const uint8_t channel, const XMC_D
 855:C:\Users\Depes Crystalline\Desktop\school\Active_Bike_Lighting_System\Radar_Core\Libraries\XMCLib\inc\xmc_dac.h **** {
 298              	 .loc 1 855 0
 299              	 .cfi_startproc
 300              	 
 301              	 
 302              	 
 303 0000 80B4     	 push {r7}
 304              	.LCFI30:
 305              	 .cfi_def_cfa_offset 4
 306              	 .cfi_offset 7,-4
 307 0002 85B0     	 sub sp,sp,#20
 308              	.LCFI31:
 309              	 .cfi_def_cfa_offset 24
 310 0004 00AF     	 add r7,sp,#0
 311              	.LCFI32:
 312              	 .cfi_def_cfa_register 7
 313 0006 F860     	 str r0,[r7,#12]
 314 0008 0B46     	 mov r3,r1
 315 000a 7A60     	 str r2,[r7,#4]
 316 000c FB72     	 strb r3,[r7,#11]
 856:C:\Users\Depes Crystalline\Desktop\school\Active_Bike_Lighting_System\Radar_Core\Libraries\XMCLib\inc\xmc_dac.h ****   dac->DACCFG[channel].high = (dac->DACCFG[channel].high & ~(DAC_DAC0CFG1_TRIGSEL_Msk | DAC_DAC0CFG
 317              	 .loc 1 856 0
 318 000e F87A     	 ldrb r0,[r7,#11]
 319 0010 FB7A     	 ldrb r3,[r7,#11]
 320 0012 FA68     	 ldr r2,[r7,#12]
 321 0014 DB00     	 lsls r3,r3,#3
 322 0016 1344     	 add r3,r3,r2
 323 0018 9B68     	 ldr r3,[r3,#8]
 324 001a 23F4CE22 	 bic r2,r3,#421888
 325 001e 7B68     	 ldr r3,[r7,#4]
 326 0020 1A43     	 orrs r2,r2,r3
 327 0022 F968     	 ldr r1,[r7,#12]
 328 0024 C300     	 lsls r3,r0,#3
 329 0026 0B44     	 add r3,r3,r1
 330 0028 9A60     	 str r2,[r3,#8]
 857:C:\Users\Depes Crystalline\Desktop\school\Active_Bike_Lighting_System\Radar_Core\Libraries\XMCLib\inc\xmc_dac.h ****                               trigger;
 858:C:\Users\Depes Crystalline\Desktop\school\Active_Bike_Lighting_System\Radar_Core\Libraries\XMCLib\inc\xmc_dac.h **** }
 331              	 .loc 1 858 0
 332 002a 1437     	 adds r7,r7,#20
 333              	.LCFI33:
 334              	 .cfi_def_cfa_offset 4
 335 002c BD46     	 mov sp,r7
 336              	.LCFI34:
 337              	 .cfi_def_cfa_register 13
 338              	 
 339 002e 5DF8047B 	 ldr r7,[sp],#4
 340              	.LCFI35:
 341              	 .cfi_restore 7
 342              	 .cfi_def_cfa_offset 0
 343 0032 7047     	 bx lr
 344              	 .cfi_endproc
 345              	.LFE141:
 347              	 .section .text.XMC_DAC_CH_SetMode,"ax",%progbits
 348              	 .align 2
 349              	 .thumb
 350              	 .thumb_func
 352              	XMC_DAC_CH_SetMode:
 353              	.LFB143:
 859:C:\Users\Depes Crystalline\Desktop\school\Active_Bike_Lighting_System\Radar_Core\Libraries\XMCLib\inc\xmc_dac.h **** 
 860:C:\Users\Depes Crystalline\Desktop\school\Active_Bike_Lighting_System\Radar_Core\Libraries\XMCLib\inc\xmc_dac.h **** /**
 861:C:\Users\Depes Crystalline\Desktop\school\Active_Bike_Lighting_System\Radar_Core\Libraries\XMCLib\inc\xmc_dac.h ****  * @param dac Pointer to an instance of DAC module
 862:C:\Users\Depes Crystalline\Desktop\school\Active_Bike_Lighting_System\Radar_Core\Libraries\XMCLib\inc\xmc_dac.h ****  * @param channel DAC channel number
 863:C:\Users\Depes Crystalline\Desktop\school\Active_Bike_Lighting_System\Radar_Core\Libraries\XMCLib\inc\xmc_dac.h ****  * @param frequency Waveform frequency in [Hz]
 864:C:\Users\Depes Crystalline\Desktop\school\Active_Bike_Lighting_System\Radar_Core\Libraries\XMCLib\inc\xmc_dac.h ****  *
 865:C:\Users\Depes Crystalline\Desktop\school\Active_Bike_Lighting_System\Radar_Core\Libraries\XMCLib\inc\xmc_dac.h ****  * @return XMC_DAC_CH_STATUS_t
 866:C:\Users\Depes Crystalline\Desktop\school\Active_Bike_Lighting_System\Radar_Core\Libraries\XMCLib\inc\xmc_dac.h ****  *
 867:C:\Users\Depes Crystalline\Desktop\school\Active_Bike_Lighting_System\Radar_Core\Libraries\XMCLib\inc\xmc_dac.h ****  * \par<b>Description:</b><br>
 868:C:\Users\Depes Crystalline\Desktop\school\Active_Bike_Lighting_System\Radar_Core\Libraries\XMCLib\inc\xmc_dac.h ****  * Sets the \e frequency of DAC channel.
 869:C:\Users\Depes Crystalline\Desktop\school\Active_Bike_Lighting_System\Radar_Core\Libraries\XMCLib\inc\xmc_dac.h ****  *
 870:C:\Users\Depes Crystalline\Desktop\school\Active_Bike_Lighting_System\Radar_Core\Libraries\XMCLib\inc\xmc_dac.h ****  * \par
 871:C:\Users\Depes Crystalline\Desktop\school\Active_Bike_Lighting_System\Radar_Core\Libraries\XMCLib\inc\xmc_dac.h ****  * The value \e frequency acts as clock divider. The smallest \e frequency divider value is 16.
 872:C:\Users\Depes Crystalline\Desktop\school\Active_Bike_Lighting_System\Radar_Core\Libraries\XMCLib\inc\xmc_dac.h ****  * A valid \e frequency value should be within the range XMC_DAC_MIN_FREQ_DIVIDER to XMC_DAC_MAX_FR
 873:C:\Users\Depes Crystalline\Desktop\school\Active_Bike_Lighting_System\Radar_Core\Libraries\XMCLib\inc\xmc_dac.h ****  * Frequency \a frequency is configured by setting \a FREQ bit-field of \a DAC0CFG0 register (for c
 874:C:\Users\Depes Crystalline\Desktop\school\Active_Bike_Lighting_System\Radar_Core\Libraries\XMCLib\inc\xmc_dac.h ****  *
 875:C:\Users\Depes Crystalline\Desktop\school\Active_Bike_Lighting_System\Radar_Core\Libraries\XMCLib\inc\xmc_dac.h ****  * \par<b>Note:</b><br>
 876:C:\Users\Depes Crystalline\Desktop\school\Active_Bike_Lighting_System\Radar_Core\Libraries\XMCLib\inc\xmc_dac.h ****  * Call this API only for Single value mode, Data mode and Noise mode.
 877:C:\Users\Depes Crystalline\Desktop\school\Active_Bike_Lighting_System\Radar_Core\Libraries\XMCLib\inc\xmc_dac.h ****  * Call XMC_DAC_CH_SetRampFrequency() in case of Ramp mode and XMC_DAC_CH_SetPatternFrequency() in 
 878:C:\Users\Depes Crystalline\Desktop\school\Active_Bike_Lighting_System\Radar_Core\Libraries\XMCLib\inc\xmc_dac.h ****  *
 879:C:\Users\Depes Crystalline\Desktop\school\Active_Bike_Lighting_System\Radar_Core\Libraries\XMCLib\inc\xmc_dac.h ****  * \par<b>Related APIs:</b><BR>
 880:C:\Users\Depes Crystalline\Desktop\school\Active_Bike_Lighting_System\Radar_Core\Libraries\XMCLib\inc\xmc_dac.h ****  * XMC_DAC_CH_SetRampFrequency(), XMC_DAC_CH_SetPatternFrequency()\n\n\n
 881:C:\Users\Depes Crystalline\Desktop\school\Active_Bike_Lighting_System\Radar_Core\Libraries\XMCLib\inc\xmc_dac.h ****  *
 882:C:\Users\Depes Crystalline\Desktop\school\Active_Bike_Lighting_System\Radar_Core\Libraries\XMCLib\inc\xmc_dac.h ****  */
 883:C:\Users\Depes Crystalline\Desktop\school\Active_Bike_Lighting_System\Radar_Core\Libraries\XMCLib\inc\xmc_dac.h **** XMC_DAC_CH_STATUS_t XMC_DAC_CH_SetFrequency(XMC_DAC_t *const dac, const uint8_t channel, const uint
 884:C:\Users\Depes Crystalline\Desktop\school\Active_Bike_Lighting_System\Radar_Core\Libraries\XMCLib\inc\xmc_dac.h **** 
 885:C:\Users\Depes Crystalline\Desktop\school\Active_Bike_Lighting_System\Radar_Core\Libraries\XMCLib\inc\xmc_dac.h **** /**
 886:C:\Users\Depes Crystalline\Desktop\school\Active_Bike_Lighting_System\Radar_Core\Libraries\XMCLib\inc\xmc_dac.h ****  * @param dac Pointer to an instance of DAC module
 887:C:\Users\Depes Crystalline\Desktop\school\Active_Bike_Lighting_System\Radar_Core\Libraries\XMCLib\inc\xmc_dac.h ****  * @param channel DAC channel number
 888:C:\Users\Depes Crystalline\Desktop\school\Active_Bike_Lighting_System\Radar_Core\Libraries\XMCLib\inc\xmc_dac.h ****  * @param frequency [Hz]
 889:C:\Users\Depes Crystalline\Desktop\school\Active_Bike_Lighting_System\Radar_Core\Libraries\XMCLib\inc\xmc_dac.h ****  *
 890:C:\Users\Depes Crystalline\Desktop\school\Active_Bike_Lighting_System\Radar_Core\Libraries\XMCLib\inc\xmc_dac.h ****  * @return XMC_DAC_CH_STATUS_t
 891:C:\Users\Depes Crystalline\Desktop\school\Active_Bike_Lighting_System\Radar_Core\Libraries\XMCLib\inc\xmc_dac.h ****  *
 892:C:\Users\Depes Crystalline\Desktop\school\Active_Bike_Lighting_System\Radar_Core\Libraries\XMCLib\inc\xmc_dac.h ****  * \par<b>Description:</b><br>
 893:C:\Users\Depes Crystalline\Desktop\school\Active_Bike_Lighting_System\Radar_Core\Libraries\XMCLib\inc\xmc_dac.h ****  * Sets the \e frequency of DAC channel by calling XMC_DAC_CH_SetFrequency().
 894:C:\Users\Depes Crystalline\Desktop\school\Active_Bike_Lighting_System\Radar_Core\Libraries\XMCLib\inc\xmc_dac.h ****  *
 895:C:\Users\Depes Crystalline\Desktop\school\Active_Bike_Lighting_System\Radar_Core\Libraries\XMCLib\inc\xmc_dac.h ****  * \par
 896:C:\Users\Depes Crystalline\Desktop\school\Active_Bike_Lighting_System\Radar_Core\Libraries\XMCLib\inc\xmc_dac.h ****  * For the Ramp mode, the \a frequency of operation depends on the total number of sample points (\
 897:C:\Users\Depes Crystalline\Desktop\school\Active_Bike_Lighting_System\Radar_Core\Libraries\XMCLib\inc\xmc_dac.h ****  * Frequency \e frequency is multiplied by the total number of sample points, so that each trigger 
 898:C:\Users\Depes Crystalline\Desktop\school\Active_Bike_Lighting_System\Radar_Core\Libraries\XMCLib\inc\xmc_dac.h ****  *
 899:C:\Users\Depes Crystalline\Desktop\school\Active_Bike_Lighting_System\Radar_Core\Libraries\XMCLib\inc\xmc_dac.h ****  * \par<b>Note:</b><br>
 900:C:\Users\Depes Crystalline\Desktop\school\Active_Bike_Lighting_System\Radar_Core\Libraries\XMCLib\inc\xmc_dac.h ****  * Call this API only if the \a channel is set to Ramp mode.
 901:C:\Users\Depes Crystalline\Desktop\school\Active_Bike_Lighting_System\Radar_Core\Libraries\XMCLib\inc\xmc_dac.h ****  *
 902:C:\Users\Depes Crystalline\Desktop\school\Active_Bike_Lighting_System\Radar_Core\Libraries\XMCLib\inc\xmc_dac.h ****  * \par<b>Related APIs:</b><BR>
 903:C:\Users\Depes Crystalline\Desktop\school\Active_Bike_Lighting_System\Radar_Core\Libraries\XMCLib\inc\xmc_dac.h ****  * XMC_DAC_CH_StartRampMode()\n\n\n
 904:C:\Users\Depes Crystalline\Desktop\school\Active_Bike_Lighting_System\Radar_Core\Libraries\XMCLib\inc\xmc_dac.h ****  *
 905:C:\Users\Depes Crystalline\Desktop\school\Active_Bike_Lighting_System\Radar_Core\Libraries\XMCLib\inc\xmc_dac.h ****  */
 906:C:\Users\Depes Crystalline\Desktop\school\Active_Bike_Lighting_System\Radar_Core\Libraries\XMCLib\inc\xmc_dac.h **** XMC_DAC_CH_STATUS_t XMC_DAC_CH_SetRampFrequency(XMC_DAC_t *const dac, const uint8_t channel, const 
 907:C:\Users\Depes Crystalline\Desktop\school\Active_Bike_Lighting_System\Radar_Core\Libraries\XMCLib\inc\xmc_dac.h **** 
 908:C:\Users\Depes Crystalline\Desktop\school\Active_Bike_Lighting_System\Radar_Core\Libraries\XMCLib\inc\xmc_dac.h **** /**
 909:C:\Users\Depes Crystalline\Desktop\school\Active_Bike_Lighting_System\Radar_Core\Libraries\XMCLib\inc\xmc_dac.h ****  * @param dac Pointer to an instance of DAC module
 910:C:\Users\Depes Crystalline\Desktop\school\Active_Bike_Lighting_System\Radar_Core\Libraries\XMCLib\inc\xmc_dac.h ****  * @param channel DAC channel number
 911:C:\Users\Depes Crystalline\Desktop\school\Active_Bike_Lighting_System\Radar_Core\Libraries\XMCLib\inc\xmc_dac.h ****  * @param frequency in [Hz]
 912:C:\Users\Depes Crystalline\Desktop\school\Active_Bike_Lighting_System\Radar_Core\Libraries\XMCLib\inc\xmc_dac.h ****  *
 913:C:\Users\Depes Crystalline\Desktop\school\Active_Bike_Lighting_System\Radar_Core\Libraries\XMCLib\inc\xmc_dac.h ****  * @return XMC_DAC_CH_STATUS_t
 914:C:\Users\Depes Crystalline\Desktop\school\Active_Bike_Lighting_System\Radar_Core\Libraries\XMCLib\inc\xmc_dac.h ****  *
 915:C:\Users\Depes Crystalline\Desktop\school\Active_Bike_Lighting_System\Radar_Core\Libraries\XMCLib\inc\xmc_dac.h ****  * \par<b>Description:</b><br>
 916:C:\Users\Depes Crystalline\Desktop\school\Active_Bike_Lighting_System\Radar_Core\Libraries\XMCLib\inc\xmc_dac.h ****  * Sets the \e frequency of DAC channel by calling XMC_DAC_CH_SetFrequency().
 917:C:\Users\Depes Crystalline\Desktop\school\Active_Bike_Lighting_System\Radar_Core\Libraries\XMCLib\inc\xmc_dac.h ****  *
 918:C:\Users\Depes Crystalline\Desktop\school\Active_Bike_Lighting_System\Radar_Core\Libraries\XMCLib\inc\xmc_dac.h ****  * \par
 919:C:\Users\Depes Crystalline\Desktop\school\Active_Bike_Lighting_System\Radar_Core\Libraries\XMCLib\inc\xmc_dac.h ****  * For the Pattern mode, the \a frequency of operation depends on the total number of sample points
 920:C:\Users\Depes Crystalline\Desktop\school\Active_Bike_Lighting_System\Radar_Core\Libraries\XMCLib\inc\xmc_dac.h ****  * Frequency \e frequency is multiplied by the total number of sample points, so that each trigger 
 921:C:\Users\Depes Crystalline\Desktop\school\Active_Bike_Lighting_System\Radar_Core\Libraries\XMCLib\inc\xmc_dac.h ****  *
 922:C:\Users\Depes Crystalline\Desktop\school\Active_Bike_Lighting_System\Radar_Core\Libraries\XMCLib\inc\xmc_dac.h ****  * \par<b>Note:</b><br>
 923:C:\Users\Depes Crystalline\Desktop\school\Active_Bike_Lighting_System\Radar_Core\Libraries\XMCLib\inc\xmc_dac.h ****  * Call this API only if the \a channel is set to Pattern mode.
 924:C:\Users\Depes Crystalline\Desktop\school\Active_Bike_Lighting_System\Radar_Core\Libraries\XMCLib\inc\xmc_dac.h ****  *
 925:C:\Users\Depes Crystalline\Desktop\school\Active_Bike_Lighting_System\Radar_Core\Libraries\XMCLib\inc\xmc_dac.h ****  * \par<b>Related APIs:</b><BR>
 926:C:\Users\Depes Crystalline\Desktop\school\Active_Bike_Lighting_System\Radar_Core\Libraries\XMCLib\inc\xmc_dac.h ****  * XMC_DAC_CH_StartPatternMode()\n\n\n
 927:C:\Users\Depes Crystalline\Desktop\school\Active_Bike_Lighting_System\Radar_Core\Libraries\XMCLib\inc\xmc_dac.h ****  *
 928:C:\Users\Depes Crystalline\Desktop\school\Active_Bike_Lighting_System\Radar_Core\Libraries\XMCLib\inc\xmc_dac.h ****  */
 929:C:\Users\Depes Crystalline\Desktop\school\Active_Bike_Lighting_System\Radar_Core\Libraries\XMCLib\inc\xmc_dac.h **** __STATIC_INLINE XMC_DAC_CH_STATUS_t XMC_DAC_CH_SetPatternFrequency(XMC_DAC_t *const dac,
 930:C:\Users\Depes Crystalline\Desktop\school\Active_Bike_Lighting_System\Radar_Core\Libraries\XMCLib\inc\xmc_dac.h ****                                                                    const uint8_t channel,
 931:C:\Users\Depes Crystalline\Desktop\school\Active_Bike_Lighting_System\Radar_Core\Libraries\XMCLib\inc\xmc_dac.h ****                                                                    const uint32_t frequency)
 932:C:\Users\Depes Crystalline\Desktop\school\Active_Bike_Lighting_System\Radar_Core\Libraries\XMCLib\inc\xmc_dac.h **** {
 933:C:\Users\Depes Crystalline\Desktop\school\Active_Bike_Lighting_System\Radar_Core\Libraries\XMCLib\inc\xmc_dac.h ****   return XMC_DAC_CH_SetFrequency(dac, channel, frequency * XMC_DAC_SAMPLES_PER_PERIOD);
 934:C:\Users\Depes Crystalline\Desktop\school\Active_Bike_Lighting_System\Radar_Core\Libraries\XMCLib\inc\xmc_dac.h **** }
 935:C:\Users\Depes Crystalline\Desktop\school\Active_Bike_Lighting_System\Radar_Core\Libraries\XMCLib\inc\xmc_dac.h **** 
 936:C:\Users\Depes Crystalline\Desktop\school\Active_Bike_Lighting_System\Radar_Core\Libraries\XMCLib\inc\xmc_dac.h **** /**
 937:C:\Users\Depes Crystalline\Desktop\school\Active_Bike_Lighting_System\Radar_Core\Libraries\XMCLib\inc\xmc_dac.h ****  * @param dac Pointer to an instance of DAC module
 938:C:\Users\Depes Crystalline\Desktop\school\Active_Bike_Lighting_System\Radar_Core\Libraries\XMCLib\inc\xmc_dac.h ****  * @param channel DAC channel number
 939:C:\Users\Depes Crystalline\Desktop\school\Active_Bike_Lighting_System\Radar_Core\Libraries\XMCLib\inc\xmc_dac.h ****  * @param mode DAC operation mode
 940:C:\Users\Depes Crystalline\Desktop\school\Active_Bike_Lighting_System\Radar_Core\Libraries\XMCLib\inc\xmc_dac.h ****  *
 941:C:\Users\Depes Crystalline\Desktop\school\Active_Bike_Lighting_System\Radar_Core\Libraries\XMCLib\inc\xmc_dac.h ****  * @return None
 942:C:\Users\Depes Crystalline\Desktop\school\Active_Bike_Lighting_System\Radar_Core\Libraries\XMCLib\inc\xmc_dac.h ****  *
 943:C:\Users\Depes Crystalline\Desktop\school\Active_Bike_Lighting_System\Radar_Core\Libraries\XMCLib\inc\xmc_dac.h ****  * \par<b>Description:</b><br>
 944:C:\Users\Depes Crystalline\Desktop\school\Active_Bike_Lighting_System\Radar_Core\Libraries\XMCLib\inc\xmc_dac.h ****  * Sets the operating \e mode for the \e channel by setting the \a MODE bit-field of \a DAC0CFG0 re
 945:C:\Users\Depes Crystalline\Desktop\school\Active_Bike_Lighting_System\Radar_Core\Libraries\XMCLib\inc\xmc_dac.h ****  * Different modes of DAC operation are defined by enum XMC_DAC_CH_MODE_t.
 946:C:\Users\Depes Crystalline\Desktop\school\Active_Bike_Lighting_System\Radar_Core\Libraries\XMCLib\inc\xmc_dac.h ****  *
 947:C:\Users\Depes Crystalline\Desktop\school\Active_Bike_Lighting_System\Radar_Core\Libraries\XMCLib\inc\xmc_dac.h ****  */
 948:C:\Users\Depes Crystalline\Desktop\school\Active_Bike_Lighting_System\Radar_Core\Libraries\XMCLib\inc\xmc_dac.h **** __STATIC_INLINE void XMC_DAC_CH_SetMode(XMC_DAC_t *const dac, const uint8_t channel, const XMC_DAC_
 949:C:\Users\Depes Crystalline\Desktop\school\Active_Bike_Lighting_System\Radar_Core\Libraries\XMCLib\inc\xmc_dac.h **** {
 354              	 .loc 1 949 0
 355              	 .cfi_startproc
 356              	 
 357              	 
 358              	 
 359 0000 80B4     	 push {r7}
 360              	.LCFI36:
 361              	 .cfi_def_cfa_offset 4
 362              	 .cfi_offset 7,-4
 363 0002 85B0     	 sub sp,sp,#20
 364              	.LCFI37:
 365              	 .cfi_def_cfa_offset 24
 366 0004 00AF     	 add r7,sp,#0
 367              	.LCFI38:
 368              	 .cfi_def_cfa_register 7
 369 0006 F860     	 str r0,[r7,#12]
 370 0008 0B46     	 mov r3,r1
 371 000a 7A60     	 str r2,[r7,#4]
 372 000c FB72     	 strb r3,[r7,#11]
 950:C:\Users\Depes Crystalline\Desktop\school\Active_Bike_Lighting_System\Radar_Core\Libraries\XMCLib\inc\xmc_dac.h ****   dac->DACCFG[channel].low = (dac->DACCFG[channel].low & ~DAC_DAC0CFG0_MODE_Msk) |
 373              	 .loc 1 950 0
 374 000e F87A     	 ldrb r0,[r7,#11]
 375 0010 FB7A     	 ldrb r3,[r7,#11]
 376 0012 FA68     	 ldr r2,[r7,#12]
 377 0014 DB00     	 lsls r3,r3,#3
 378 0016 1344     	 add r3,r3,r2
 379 0018 5B68     	 ldr r3,[r3,#4]
 380 001a 23F4E002 	 bic r2,r3,#7340032
 381 001e 7B68     	 ldr r3,[r7,#4]
 382 0020 1A43     	 orrs r2,r2,r3
 383 0022 F968     	 ldr r1,[r7,#12]
 384 0024 C300     	 lsls r3,r0,#3
 385 0026 0B44     	 add r3,r3,r1
 386 0028 5A60     	 str r2,[r3,#4]
 951:C:\Users\Depes Crystalline\Desktop\school\Active_Bike_Lighting_System\Radar_Core\Libraries\XMCLib\inc\xmc_dac.h ****                              mode;
 952:C:\Users\Depes Crystalline\Desktop\school\Active_Bike_Lighting_System\Radar_Core\Libraries\XMCLib\inc\xmc_dac.h **** }
 387              	 .loc 1 952 0
 388 002a 1437     	 adds r7,r7,#20
 389              	.LCFI39:
 390              	 .cfi_def_cfa_offset 4
 391 002c BD46     	 mov sp,r7
 392              	.LCFI40:
 393              	 .cfi_def_cfa_register 13
 394              	 
 395 002e 5DF8047B 	 ldr r7,[sp],#4
 396              	.LCFI41:
 397              	 .cfi_restore 7
 398              	 .cfi_def_cfa_offset 0
 399 0032 7047     	 bx lr
 400              	 .cfi_endproc
 401              	.LFE143:
 403              	 .section .text.XMC_DAC_Enable,"ax",%progbits
 404              	 .align 2
 405              	 .global XMC_DAC_Enable
 406              	 .thumb
 407              	 .thumb_func
 409              	XMC_DAC_Enable:
 410              	.LFB178:
 411              	 .file 2 "../Libraries/XMCLib/src/xmc_dac.c"
   1:../Libraries/XMCLib/src/xmc_dac.c **** /**
   2:../Libraries/XMCLib/src/xmc_dac.c ****  * @file xmc_dac.c
   3:../Libraries/XMCLib/src/xmc_dac.c ****  * @date 2015-06-19 
   4:../Libraries/XMCLib/src/xmc_dac.c ****  *
   5:../Libraries/XMCLib/src/xmc_dac.c ****  * @cond
   6:../Libraries/XMCLib/src/xmc_dac.c ****  **********************************************************************************
   7:../Libraries/XMCLib/src/xmc_dac.c ****  * XMClib v2.0.0 - XMC Peripheral Driver Library
   8:../Libraries/XMCLib/src/xmc_dac.c ****  *
   9:../Libraries/XMCLib/src/xmc_dac.c ****  * Copyright (c) 2015, Infineon Technologies AG
  10:../Libraries/XMCLib/src/xmc_dac.c ****  * All rights reserved.                        
  11:../Libraries/XMCLib/src/xmc_dac.c ****  *                                             
  12:../Libraries/XMCLib/src/xmc_dac.c ****  * Redistribution and use in source and binary forms, with or without           
  13:../Libraries/XMCLib/src/xmc_dac.c ****  * modification,are permitted provided that the following conditions are met:   
  14:../Libraries/XMCLib/src/xmc_dac.c ****  *                                                                              
  15:../Libraries/XMCLib/src/xmc_dac.c ****  *   Redistributions of source code must retain the above copyright notice,      
  16:../Libraries/XMCLib/src/xmc_dac.c ****  *   this list of conditions and the following disclaimer.                        
  17:../Libraries/XMCLib/src/xmc_dac.c ****  * 
  18:../Libraries/XMCLib/src/xmc_dac.c ****  *   Redistributions in binary form must reproduce the above copyright notice,   
  19:../Libraries/XMCLib/src/xmc_dac.c ****  *   this list of conditions and the following disclaimer in the documentation    
  20:../Libraries/XMCLib/src/xmc_dac.c ****  *   and/or other materials provided with the distribution.                       
  21:../Libraries/XMCLib/src/xmc_dac.c ****  * 
  22:../Libraries/XMCLib/src/xmc_dac.c ****  *   Neither the name of the copyright holders nor the names of its contributors 
  23:../Libraries/XMCLib/src/xmc_dac.c ****  *   may be used to endorse or promote products derived from this software without
  24:../Libraries/XMCLib/src/xmc_dac.c ****  *   specific prior written permission.                                           
  25:../Libraries/XMCLib/src/xmc_dac.c ****  *                                                                              
  26:../Libraries/XMCLib/src/xmc_dac.c ****  * THIS SOFTWARE IS PROVIDED BY THE COPYRIGHT HOLDERS AND CONTRIBUTORS "AS IS"  
  27:../Libraries/XMCLib/src/xmc_dac.c ****  * AND ANY EXPRESS OR IMPLIED WARRANTIES, INCLUDING, BUT NOT LIMITED TO, THE    
  28:../Libraries/XMCLib/src/xmc_dac.c ****  * IMPLIED WARRANTIES OF MERCHANTABILITY AND FITNESS FOR A PARTICULAR PURPOSE   
  29:../Libraries/XMCLib/src/xmc_dac.c ****  * ARE  DISCLAIMED. IN NO EVENT SHALL THE COPYRIGHT HOLDER OR CONTRIBUTORS BE   
  30:../Libraries/XMCLib/src/xmc_dac.c ****  * LIABLE  FOR ANY DIRECT, INDIRECT, INCIDENTAL, SPECIAL, EXEMPLARY, OR         
  31:../Libraries/XMCLib/src/xmc_dac.c ****  * CONSEQUENTIAL DAMAGES (INCLUDING, BUT NOT LIMITED TO, PROCUREMENT OF         
  32:../Libraries/XMCLib/src/xmc_dac.c ****  * SUBSTITUTE GOODS OR  SERVICES; LOSS OF USE, DATA, OR PROFITS; OR BUSINESS    
  33:../Libraries/XMCLib/src/xmc_dac.c ****  * INTERRUPTION) HOWEVER CAUSED AND ON ANY THEORY OF LIABILITY, WHETHER IN      
  34:../Libraries/XMCLib/src/xmc_dac.c ****  * CONTRACT, STRICT LIABILITY,OR TORT (INCLUDING NEGLIGENCE OR OTHERWISE)       
  35:../Libraries/XMCLib/src/xmc_dac.c ****  * ARISING IN ANY WAY OUT OF THE USE OF THIS SOFTWARE, EVEN IF ADVISED OF THE   
  36:../Libraries/XMCLib/src/xmc_dac.c ****  * POSSIBILITY OF SUCH DAMAGE.                                                  
  37:../Libraries/XMCLib/src/xmc_dac.c ****  *                                                                              
  38:../Libraries/XMCLib/src/xmc_dac.c ****  * To improve the quality of the software, users are encouraged to share        
  39:../Libraries/XMCLib/src/xmc_dac.c ****  * modifications, enhancements or bug fixes with Infineon Technologies AG       
  40:../Libraries/XMCLib/src/xmc_dac.c ****  * dave@infineon.com).                                                          
  41:../Libraries/XMCLib/src/xmc_dac.c ****  **********************************************************************************
  42:../Libraries/XMCLib/src/xmc_dac.c ****  *
  43:../Libraries/XMCLib/src/xmc_dac.c ****  * Change History
  44:../Libraries/XMCLib/src/xmc_dac.c ****  * --------------
  45:../Libraries/XMCLib/src/xmc_dac.c ****  *
  46:../Libraries/XMCLib/src/xmc_dac.c ****  * 2015-02-18:
  47:../Libraries/XMCLib/src/xmc_dac.c ****  *     - Initial version
  48:../Libraries/XMCLib/src/xmc_dac.c ****  *
  49:../Libraries/XMCLib/src/xmc_dac.c ****  * 2015-06-19:
  50:../Libraries/XMCLib/src/xmc_dac.c ****  *     - Removed GetDriverVersion API
  51:../Libraries/XMCLib/src/xmc_dac.c ****  * @endcond 
  52:../Libraries/XMCLib/src/xmc_dac.c ****  *
  53:../Libraries/XMCLib/src/xmc_dac.c ****  */
  54:../Libraries/XMCLib/src/xmc_dac.c **** 
  55:../Libraries/XMCLib/src/xmc_dac.c **** /*******************************************************************************
  56:../Libraries/XMCLib/src/xmc_dac.c ****  * HEADER FILES
  57:../Libraries/XMCLib/src/xmc_dac.c ****  *******************************************************************************/
  58:../Libraries/XMCLib/src/xmc_dac.c **** 
  59:../Libraries/XMCLib/src/xmc_dac.c **** #include <xmc_dac.h>
  60:../Libraries/XMCLib/src/xmc_dac.c **** #include <xmc_scu.h>
  61:../Libraries/XMCLib/src/xmc_dac.c **** 
  62:../Libraries/XMCLib/src/xmc_dac.c **** /* DAC peripheral is not available on XMC1X devices. */
  63:../Libraries/XMCLib/src/xmc_dac.c **** #if defined(DAC)
  64:../Libraries/XMCLib/src/xmc_dac.c **** 
  65:../Libraries/XMCLib/src/xmc_dac.c **** /*******************************************************************************
  66:../Libraries/XMCLib/src/xmc_dac.c ****  * MACROS
  67:../Libraries/XMCLib/src/xmc_dac.c ****  *******************************************************************************/
  68:../Libraries/XMCLib/src/xmc_dac.c **** 
  69:../Libraries/XMCLib/src/xmc_dac.c **** #define XMC_DAC_MIN_FREQ_DIVIDER (16U)
  70:../Libraries/XMCLib/src/xmc_dac.c **** #define XMC_DAC_MAX_FREQ_DIVIDER (1048576U)
  71:../Libraries/XMCLib/src/xmc_dac.c **** #define XMC_DAC_DAC0PATL_PAT_BITSIZE (5U)
  72:../Libraries/XMCLib/src/xmc_dac.c **** 
  73:../Libraries/XMCLib/src/xmc_dac.c **** /*******************************************************************************
  74:../Libraries/XMCLib/src/xmc_dac.c ****  * API IMPLEMENTATION
  75:../Libraries/XMCLib/src/xmc_dac.c ****  *******************************************************************************/
  76:../Libraries/XMCLib/src/xmc_dac.c **** 
  77:../Libraries/XMCLib/src/xmc_dac.c **** /* API to enable the DAC module */
  78:../Libraries/XMCLib/src/xmc_dac.c **** void XMC_DAC_Enable(XMC_DAC_t *const dac)
  79:../Libraries/XMCLib/src/xmc_dac.c **** {
 412              	 .loc 2 79 0
 413              	 .cfi_startproc
 414              	 
 415              	 
 416 0000 80B5     	 push {r7,lr}
 417              	.LCFI42:
 418              	 .cfi_def_cfa_offset 8
 419              	 .cfi_offset 7,-8
 420              	 .cfi_offset 14,-4
 421 0002 82B0     	 sub sp,sp,#8
 422              	.LCFI43:
 423              	 .cfi_def_cfa_offset 16
 424 0004 00AF     	 add r7,sp,#0
 425              	.LCFI44:
 426              	 .cfi_def_cfa_register 7
 427 0006 7860     	 str r0,[r7,#4]
  80:../Libraries/XMCLib/src/xmc_dac.c ****   XMC_UNUSED_ARG(dac);
  81:../Libraries/XMCLib/src/xmc_dac.c ****   
  82:../Libraries/XMCLib/src/xmc_dac.c **** #if(UC_SERIES != XMC45)
  83:../Libraries/XMCLib/src/xmc_dac.c ****   XMC_SCU_CLOCK_UngatePeripheralClock(XMC_SCU_PERIPHERAL_CLOCK_DAC);
 428              	 .loc 2 83 0
 429 0008 0448     	 ldr r0,.L9
 430 000a FFF7FEFF 	 bl XMC_SCU_CLOCK_UngatePeripheralClock
  84:../Libraries/XMCLib/src/xmc_dac.c **** #endif
  85:../Libraries/XMCLib/src/xmc_dac.c ****   XMC_SCU_RESET_DeassertPeripheralReset(XMC_SCU_PERIPHERAL_RESET_DAC);
 431              	 .loc 2 85 0
 432 000e 0348     	 ldr r0,.L9
 433 0010 FFF7FEFF 	 bl XMC_SCU_RESET_DeassertPeripheralReset
  86:../Libraries/XMCLib/src/xmc_dac.c **** }
 434              	 .loc 2 86 0
 435 0014 0837     	 adds r7,r7,#8
 436              	.LCFI45:
 437              	 .cfi_def_cfa_offset 8
 438 0016 BD46     	 mov sp,r7
 439              	.LCFI46:
 440              	 .cfi_def_cfa_register 13
 441              	 
 442 0018 80BD     	 pop {r7,pc}
 443              	.L10:
 444 001a 00BF     	 .align 2
 445              	.L9:
 446 001c 20000010 	 .word 268435488
 447              	 .cfi_endproc
 448              	.LFE178:
 450              	 .section .text.XMC_DAC_Disable,"ax",%progbits
 451              	 .align 2
 452              	 .global XMC_DAC_Disable
 453              	 .thumb
 454              	 .thumb_func
 456              	XMC_DAC_Disable:
 457              	.LFB179:
  87:../Libraries/XMCLib/src/xmc_dac.c **** 
  88:../Libraries/XMCLib/src/xmc_dac.c **** /* API to disable the DAC module */
  89:../Libraries/XMCLib/src/xmc_dac.c **** void XMC_DAC_Disable(XMC_DAC_t *const dac)
  90:../Libraries/XMCLib/src/xmc_dac.c **** {
 458              	 .loc 2 90 0
 459              	 .cfi_startproc
 460              	 
 461              	 
 462 0000 80B5     	 push {r7,lr}
 463              	.LCFI47:
 464              	 .cfi_def_cfa_offset 8
 465              	 .cfi_offset 7,-8
 466              	 .cfi_offset 14,-4
 467 0002 82B0     	 sub sp,sp,#8
 468              	.LCFI48:
 469              	 .cfi_def_cfa_offset 16
 470 0004 00AF     	 add r7,sp,#0
 471              	.LCFI49:
 472              	 .cfi_def_cfa_register 7
 473 0006 7860     	 str r0,[r7,#4]
  91:../Libraries/XMCLib/src/xmc_dac.c ****   XMC_UNUSED_ARG(dac);
  92:../Libraries/XMCLib/src/xmc_dac.c **** 
  93:../Libraries/XMCLib/src/xmc_dac.c ****   XMC_SCU_RESET_AssertPeripheralReset(XMC_SCU_PERIPHERAL_RESET_DAC);
 474              	 .loc 2 93 0
 475 0008 0448     	 ldr r0,.L12
 476 000a FFF7FEFF 	 bl XMC_SCU_RESET_AssertPeripheralReset
  94:../Libraries/XMCLib/src/xmc_dac.c **** #if(UC_SERIES != XMC45)
  95:../Libraries/XMCLib/src/xmc_dac.c ****   XMC_SCU_CLOCK_GatePeripheralClock(XMC_SCU_PERIPHERAL_CLOCK_DAC);
 477              	 .loc 2 95 0
 478 000e 0348     	 ldr r0,.L12
 479 0010 FFF7FEFF 	 bl XMC_SCU_CLOCK_GatePeripheralClock
  96:../Libraries/XMCLib/src/xmc_dac.c **** #endif
  97:../Libraries/XMCLib/src/xmc_dac.c **** }
 480              	 .loc 2 97 0
 481 0014 0837     	 adds r7,r7,#8
 482              	.LCFI50:
 483              	 .cfi_def_cfa_offset 8
 484 0016 BD46     	 mov sp,r7
 485              	.LCFI51:
 486              	 .cfi_def_cfa_register 13
 487              	 
 488 0018 80BD     	 pop {r7,pc}
 489              	.L13:
 490 001a 00BF     	 .align 2
 491              	.L12:
 492 001c 20000010 	 .word 268435488
 493              	 .cfi_endproc
 494              	.LFE179:
 496              	 .section .text.XMC_DAC_IsEnabled,"ax",%progbits
 497              	 .align 2
 498              	 .global XMC_DAC_IsEnabled
 499              	 .thumb
 500              	 .thumb_func
 502              	XMC_DAC_IsEnabled:
 503              	.LFB180:
  98:../Libraries/XMCLib/src/xmc_dac.c **** 
  99:../Libraries/XMCLib/src/xmc_dac.c **** /* API to check whether DAC is enabled */
 100:../Libraries/XMCLib/src/xmc_dac.c **** bool XMC_DAC_IsEnabled(const XMC_DAC_t *const dac)
 101:../Libraries/XMCLib/src/xmc_dac.c **** {
 504              	 .loc 2 101 0
 505              	 .cfi_startproc
 506              	 
 507              	 
 508 0000 80B5     	 push {r7,lr}
 509              	.LCFI52:
 510              	 .cfi_def_cfa_offset 8
 511              	 .cfi_offset 7,-8
 512              	 .cfi_offset 14,-4
 513 0002 84B0     	 sub sp,sp,#16
 514              	.LCFI53:
 515              	 .cfi_def_cfa_offset 24
 516 0004 00AF     	 add r7,sp,#0
 517              	.LCFI54:
 518              	 .cfi_def_cfa_register 7
 519 0006 7860     	 str r0,[r7,#4]
 102:../Libraries/XMCLib/src/xmc_dac.c ****   bool status;
 103:../Libraries/XMCLib/src/xmc_dac.c **** 
 104:../Libraries/XMCLib/src/xmc_dac.c ****   XMC_UNUSED_ARG(dac);
 105:../Libraries/XMCLib/src/xmc_dac.c **** 
 106:../Libraries/XMCLib/src/xmc_dac.c ****   status = XMC_SCU_RESET_IsPeripheralResetAsserted(XMC_SCU_PERIPHERAL_RESET_DAC);
 520              	 .loc 2 106 0
 521 0008 0848     	 ldr r0,.L18
 522 000a FFF7FEFF 	 bl XMC_SCU_RESET_IsPeripheralResetAsserted
 523 000e 0346     	 mov r3,r0
 524 0010 FB73     	 strb r3,[r7,#15]
 107:../Libraries/XMCLib/src/xmc_dac.c ****   if(status == true)
 525              	 .loc 2 107 0
 526 0012 FB7B     	 ldrb r3,[r7,#15]
 527 0014 002B     	 cmp r3,#0
 528 0016 02D0     	 beq .L15
 108:../Libraries/XMCLib/src/xmc_dac.c ****   {
 109:../Libraries/XMCLib/src/xmc_dac.c ****     status = false;
 529              	 .loc 2 109 0
 530 0018 0023     	 movs r3,#0
 531 001a FB73     	 strb r3,[r7,#15]
 532 001c 01E0     	 b .L16
 533              	.L15:
 110:../Libraries/XMCLib/src/xmc_dac.c ****   }
 111:../Libraries/XMCLib/src/xmc_dac.c ****   else
 112:../Libraries/XMCLib/src/xmc_dac.c ****   {
 113:../Libraries/XMCLib/src/xmc_dac.c ****     status = true;
 534              	 .loc 2 113 0
 535 001e 0123     	 movs r3,#1
 536 0020 FB73     	 strb r3,[r7,#15]
 537              	.L16:
 114:../Libraries/XMCLib/src/xmc_dac.c ****   }
 115:../Libraries/XMCLib/src/xmc_dac.c ****   return (status);
 538              	 .loc 2 115 0
 539 0022 FB7B     	 ldrb r3,[r7,#15]
 116:../Libraries/XMCLib/src/xmc_dac.c **** }
 540              	 .loc 2 116 0
 541 0024 1846     	 mov r0,r3
 542 0026 1037     	 adds r7,r7,#16
 543              	.LCFI55:
 544              	 .cfi_def_cfa_offset 8
 545 0028 BD46     	 mov sp,r7
 546              	.LCFI56:
 547              	 .cfi_def_cfa_register 13
 548              	 
 549 002a 80BD     	 pop {r7,pc}
 550              	.L19:
 551              	 .align 2
 552              	.L18:
 553 002c 20000010 	 .word 268435488
 554              	 .cfi_endproc
 555              	.LFE180:
 557              	 .section .text.XMC_DAC_CH_Init,"ax",%progbits
 558              	 .align 2
 559              	 .global XMC_DAC_CH_Init
 560              	 .thumb
 561              	 .thumb_func
 563              	XMC_DAC_CH_Init:
 564              	.LFB181:
 117:../Libraries/XMCLib/src/xmc_dac.c **** 
 118:../Libraries/XMCLib/src/xmc_dac.c **** /* API to initialize DAC channel configuration */
 119:../Libraries/XMCLib/src/xmc_dac.c **** void XMC_DAC_CH_Init(XMC_DAC_t *const dac, const uint8_t channel, const XMC_DAC_CH_CONFIG_t *const 
 120:../Libraries/XMCLib/src/xmc_dac.c **** {
 565              	 .loc 2 120 0
 566              	 .cfi_startproc
 567              	 
 568              	 
 569 0000 80B5     	 push {r7,lr}
 570              	.LCFI57:
 571              	 .cfi_def_cfa_offset 8
 572              	 .cfi_offset 7,-8
 573              	 .cfi_offset 14,-4
 574 0002 84B0     	 sub sp,sp,#16
 575              	.LCFI58:
 576              	 .cfi_def_cfa_offset 24
 577 0004 00AF     	 add r7,sp,#0
 578              	.LCFI59:
 579              	 .cfi_def_cfa_register 7
 580 0006 F860     	 str r0,[r7,#12]
 581 0008 0B46     	 mov r3,r1
 582 000a 7A60     	 str r2,[r7,#4]
 583 000c FB72     	 strb r3,[r7,#11]
 121:../Libraries/XMCLib/src/xmc_dac.c ****   XMC_DAC_Enable(dac);
 584              	 .loc 2 121 0
 585 000e F868     	 ldr r0,[r7,#12]
 586 0010 FFF7FEFF 	 bl XMC_DAC_Enable
 122:../Libraries/XMCLib/src/xmc_dac.c **** 
 123:../Libraries/XMCLib/src/xmc_dac.c ****   dac->DACCFG[channel].low = config->cfg0;
 587              	 .loc 2 123 0
 588 0014 FB7A     	 ldrb r3,[r7,#11]
 589 0016 7A68     	 ldr r2,[r7,#4]
 590 0018 1268     	 ldr r2,[r2]
 591 001a F968     	 ldr r1,[r7,#12]
 592 001c DB00     	 lsls r3,r3,#3
 593 001e 0B44     	 add r3,r3,r1
 594 0020 5A60     	 str r2,[r3,#4]
 124:../Libraries/XMCLib/src/xmc_dac.c ****   dac->DACCFG[channel].high = config->cfg1;
 595              	 .loc 2 124 0
 596 0022 FB7A     	 ldrb r3,[r7,#11]
 597 0024 7A68     	 ldr r2,[r7,#4]
 598 0026 5268     	 ldr r2,[r2,#4]
 599 0028 F968     	 ldr r1,[r7,#12]
 600 002a DB00     	 lsls r3,r3,#3
 601 002c 0B44     	 add r3,r3,r1
 602 002e 9A60     	 str r2,[r3,#8]
 125:../Libraries/XMCLib/src/xmc_dac.c ****   if (channel < XMC_DAC_NO_CHANNELS)
 603              	 .loc 2 125 0
 604 0030 FB7A     	 ldrb r3,[r7,#11]
 605 0032 012B     	 cmp r3,#1
 606 0034 04D8     	 bhi .L20
 126:../Libraries/XMCLib/src/xmc_dac.c ****   {
 127:../Libraries/XMCLib/src/xmc_dac.c ****     XMC_DAC_CH_EnableOutput(dac, channel);
 607              	 .loc 2 127 0
 608 0036 FB7A     	 ldrb r3,[r7,#11]
 609 0038 F868     	 ldr r0,[r7,#12]
 610 003a 1946     	 mov r1,r3
 611 003c FFF7FEFF 	 bl XMC_DAC_CH_EnableOutput
 612              	.L20:
 128:../Libraries/XMCLib/src/xmc_dac.c ****   }
 129:../Libraries/XMCLib/src/xmc_dac.c **** }
 613              	 .loc 2 129 0
 614 0040 1037     	 adds r7,r7,#16
 615              	.LCFI60:
 616              	 .cfi_def_cfa_offset 8
 617 0042 BD46     	 mov sp,r7
 618              	.LCFI61:
 619              	 .cfi_def_cfa_register 13
 620              	 
 621 0044 80BD     	 pop {r7,pc}
 622              	 .cfi_endproc
 623              	.LFE181:
 625 0046 00BF     	 .section .text.XMC_DAC_CH_SetFrequency,"ax",%progbits
 626              	 .align 2
 627              	 .global XMC_DAC_CH_SetFrequency
 628              	 .thumb
 629              	 .thumb_func
 631              	XMC_DAC_CH_SetFrequency:
 632              	.LFB182:
 130:../Libraries/XMCLib/src/xmc_dac.c **** 
 131:../Libraries/XMCLib/src/xmc_dac.c **** /* API to set the waveform frequency except in Ramp and Pattern generation mode. */
 132:../Libraries/XMCLib/src/xmc_dac.c **** XMC_DAC_CH_STATUS_t XMC_DAC_CH_SetFrequency(XMC_DAC_t *const dac,
 133:../Libraries/XMCLib/src/xmc_dac.c ****                                             const uint8_t channel,
 134:../Libraries/XMCLib/src/xmc_dac.c ****                                             const uint32_t frequency)
 135:../Libraries/XMCLib/src/xmc_dac.c **** {
 633              	 .loc 2 135 0
 634              	 .cfi_startproc
 635              	 
 636              	 
 637 0000 80B5     	 push {r7,lr}
 638              	.LCFI62:
 639              	 .cfi_def_cfa_offset 8
 640              	 .cfi_offset 7,-8
 641              	 .cfi_offset 14,-4
 642 0002 86B0     	 sub sp,sp,#24
 643              	.LCFI63:
 644              	 .cfi_def_cfa_offset 32
 645 0004 00AF     	 add r7,sp,#0
 646              	.LCFI64:
 647              	 .cfi_def_cfa_register 7
 648 0006 F860     	 str r0,[r7,#12]
 649 0008 0B46     	 mov r3,r1
 650 000a 7A60     	 str r2,[r7,#4]
 651 000c FB72     	 strb r3,[r7,#11]
 136:../Libraries/XMCLib/src/xmc_dac.c ****   uint32_t divider;
 137:../Libraries/XMCLib/src/xmc_dac.c ****   XMC_DAC_CH_STATUS_t status;
 138:../Libraries/XMCLib/src/xmc_dac.c **** 
 139:../Libraries/XMCLib/src/xmc_dac.c ****   XMC_ASSERT("XMC_DAC_CH_SetFrequency: frequency must be greater than zero", frequency > 0U);
 140:../Libraries/XMCLib/src/xmc_dac.c **** 
 141:../Libraries/XMCLib/src/xmc_dac.c ****   divider = XMC_SCU_CLOCK_GetPeripheralClockFrequency() / frequency;
 652              	 .loc 2 141 0
 653 000e FFF7FEFF 	 bl XMC_SCU_CLOCK_GetPeripheralClockFrequency
 654 0012 0246     	 mov r2,r0
 655 0014 7B68     	 ldr r3,[r7,#4]
 656 0016 B2FBF3F3 	 udiv r3,r2,r3
 657 001a 3B61     	 str r3,[r7,#16]
 142:../Libraries/XMCLib/src/xmc_dac.c **** 
 143:../Libraries/XMCLib/src/xmc_dac.c ****   if (divider < XMC_DAC_MIN_FREQ_DIVIDER)
 658              	 .loc 2 143 0
 659 001c 3B69     	 ldr r3,[r7,#16]
 660 001e 0F2B     	 cmp r3,#15
 661 0020 02D8     	 bhi .L23
 144:../Libraries/XMCLib/src/xmc_dac.c ****   {
 145:../Libraries/XMCLib/src/xmc_dac.c ****     status = XMC_DAC_CH_STATUS_ERROR_FREQ2HIGH;
 662              	 .loc 2 145 0
 663 0022 0423     	 movs r3,#4
 664 0024 FB75     	 strb r3,[r7,#23]
 665 0026 16E0     	 b .L24
 666              	.L23:
 146:../Libraries/XMCLib/src/xmc_dac.c ****   }
 147:../Libraries/XMCLib/src/xmc_dac.c ****   else if (divider >= XMC_DAC_MAX_FREQ_DIVIDER)
 667              	 .loc 2 147 0
 668 0028 3B69     	 ldr r3,[r7,#16]
 669 002a B3F5801F 	 cmp r3,#1048576
 670 002e 02D3     	 bcc .L25
 148:../Libraries/XMCLib/src/xmc_dac.c ****   {
 149:../Libraries/XMCLib/src/xmc_dac.c ****     status = XMC_DAC_CH_STATUS_ERROR_FREQ2LOW;
 671              	 .loc 2 149 0
 672 0030 0323     	 movs r3,#3
 673 0032 FB75     	 strb r3,[r7,#23]
 674 0034 0FE0     	 b .L24
 675              	.L25:
 150:../Libraries/XMCLib/src/xmc_dac.c ****   }
 151:../Libraries/XMCLib/src/xmc_dac.c ****   else {
 152:../Libraries/XMCLib/src/xmc_dac.c ****     dac->DACCFG[channel].low = (dac->DACCFG[channel].low & (uint32_t)(~DAC_DAC0CFG0_FREQ_Msk)) |
 676              	 .loc 2 152 0
 677 0036 F87A     	 ldrb r0,[r7,#11]
 678 0038 FB7A     	 ldrb r3,[r7,#11]
 679 003a FA68     	 ldr r2,[r7,#12]
 680 003c DB00     	 lsls r3,r3,#3
 681 003e 1344     	 add r3,r3,r2
 682 0040 5B68     	 ldr r3,[r3,#4]
 683 0042 1B0D     	 lsrs r3,r3,#20
 684 0044 1B05     	 lsls r3,r3,#20
 685 0046 3A69     	 ldr r2,[r7,#16]
 686 0048 1A43     	 orrs r2,r2,r3
 687 004a F968     	 ldr r1,[r7,#12]
 688 004c C300     	 lsls r3,r0,#3
 689 004e 0B44     	 add r3,r3,r1
 690 0050 5A60     	 str r2,[r3,#4]
 153:../Libraries/XMCLib/src/xmc_dac.c ****                                (divider << DAC_DAC0CFG0_FREQ_Pos);
 154:../Libraries/XMCLib/src/xmc_dac.c ****     status = XMC_DAC_CH_STATUS_OK;
 691              	 .loc 2 154 0
 692 0052 0023     	 movs r3,#0
 693 0054 FB75     	 strb r3,[r7,#23]
 694              	.L24:
 155:../Libraries/XMCLib/src/xmc_dac.c ****   }
 156:../Libraries/XMCLib/src/xmc_dac.c **** 
 157:../Libraries/XMCLib/src/xmc_dac.c ****   return status;
 695              	 .loc 2 157 0
 696 0056 FB7D     	 ldrb r3,[r7,#23]
 158:../Libraries/XMCLib/src/xmc_dac.c **** }
 697              	 .loc 2 158 0
 698 0058 1846     	 mov r0,r3
 699 005a 1837     	 adds r7,r7,#24
 700              	.LCFI65:
 701              	 .cfi_def_cfa_offset 8
 702 005c BD46     	 mov sp,r7
 703              	.LCFI66:
 704              	 .cfi_def_cfa_register 13
 705              	 
 706 005e 80BD     	 pop {r7,pc}
 707              	 .cfi_endproc
 708              	.LFE182:
 710              	 .section .text.XMC_DAC_CH_SetRampFrequency,"ax",%progbits
 711              	 .align 2
 712              	 .global XMC_DAC_CH_SetRampFrequency
 713              	 .thumb
 714              	 .thumb_func
 716              	XMC_DAC_CH_SetRampFrequency:
 717              	.LFB183:
 159:../Libraries/XMCLib/src/xmc_dac.c **** 
 160:../Libraries/XMCLib/src/xmc_dac.c **** /* API to set the waveform frequency in Ramp Mode. */
 161:../Libraries/XMCLib/src/xmc_dac.c **** XMC_DAC_CH_STATUS_t XMC_DAC_CH_SetRampFrequency(XMC_DAC_t *const dac,
 162:../Libraries/XMCLib/src/xmc_dac.c ****                                                 const uint8_t channel,
 163:../Libraries/XMCLib/src/xmc_dac.c ****                                                 const uint32_t frequency)
 164:../Libraries/XMCLib/src/xmc_dac.c **** {
 718              	 .loc 2 164 0
 719              	 .cfi_startproc
 720              	 
 721              	 
 722 0000 80B5     	 push {r7,lr}
 723              	.LCFI67:
 724              	 .cfi_def_cfa_offset 8
 725              	 .cfi_offset 7,-8
 726              	 .cfi_offset 14,-4
 727 0002 86B0     	 sub sp,sp,#24
 728              	.LCFI68:
 729              	 .cfi_def_cfa_offset 32
 730 0004 00AF     	 add r7,sp,#0
 731              	.LCFI69:
 732              	 .cfi_def_cfa_register 7
 733 0006 F860     	 str r0,[r7,#12]
 734 0008 0B46     	 mov r3,r1
 735 000a 7A60     	 str r2,[r7,#4]
 736 000c FB72     	 strb r3,[r7,#11]
 165:../Libraries/XMCLib/src/xmc_dac.c ****   uint32_t stop;
 166:../Libraries/XMCLib/src/xmc_dac.c ****   uint32_t start;
 167:../Libraries/XMCLib/src/xmc_dac.c **** 
 168:../Libraries/XMCLib/src/xmc_dac.c ****   start = dac->DACDATA[channel];
 737              	 .loc 2 168 0
 738 000e FB7A     	 ldrb r3,[r7,#11]
 739 0010 FA68     	 ldr r2,[r7,#12]
 740 0012 0433     	 adds r3,r3,#4
 741 0014 9B00     	 lsls r3,r3,#2
 742 0016 1344     	 add r3,r3,r2
 743 0018 5B68     	 ldr r3,[r3,#4]
 744 001a 7B61     	 str r3,[r7,#20]
 169:../Libraries/XMCLib/src/xmc_dac.c ****   stop = (dac->DAC01DATA >> (channel * DAC_DAC01DATA_DATA1_Pos)) & (uint32_t)DAC_DAC01DATA_DATA0_Ms
 745              	 .loc 2 169 0
 746 001c FB68     	 ldr r3,[r7,#12]
 747 001e DB69     	 ldr r3,[r3,#28]
 748 0020 FA7A     	 ldrb r2,[r7,#11]
 749 0022 1201     	 lsls r2,r2,#4
 750 0024 D340     	 lsrs r3,r3,r2
 751 0026 C3F30B03 	 ubfx r3,r3,#0,#12
 752 002a 3B61     	 str r3,[r7,#16]
 170:../Libraries/XMCLib/src/xmc_dac.c **** 
 171:../Libraries/XMCLib/src/xmc_dac.c ****   return XMC_DAC_CH_SetFrequency(dac, channel, frequency * ((stop - start) + 1U));
 753              	 .loc 2 171 0
 754 002c 3A69     	 ldr r2,[r7,#16]
 755 002e 7B69     	 ldr r3,[r7,#20]
 756 0030 D31A     	 subs r3,r2,r3
 757 0032 0133     	 adds r3,r3,#1
 758 0034 7A68     	 ldr r2,[r7,#4]
 759 0036 02FB03F3 	 mul r3,r2,r3
 760 003a FA7A     	 ldrb r2,[r7,#11]
 761 003c F868     	 ldr r0,[r7,#12]
 762 003e 1146     	 mov r1,r2
 763 0040 1A46     	 mov r2,r3
 764 0042 FFF7FEFF 	 bl XMC_DAC_CH_SetFrequency
 765 0046 0346     	 mov r3,r0
 172:../Libraries/XMCLib/src/xmc_dac.c **** }
 766              	 .loc 2 172 0
 767 0048 1846     	 mov r0,r3
 768 004a 1837     	 adds r7,r7,#24
 769              	.LCFI70:
 770              	 .cfi_def_cfa_offset 8
 771 004c BD46     	 mov sp,r7
 772              	.LCFI71:
 773              	 .cfi_def_cfa_register 13
 774              	 
 775 004e 80BD     	 pop {r7,pc}
 776              	 .cfi_endproc
 777              	.LFE183:
 779              	 .section .text.XMC_DAC_CH_StartSingleValueMode,"ax",%progbits
 780              	 .align 2
 781              	 .global XMC_DAC_CH_StartSingleValueMode
 782              	 .thumb
 783              	 .thumb_func
 785              	XMC_DAC_CH_StartSingleValueMode:
 786              	.LFB184:
 173:../Libraries/XMCLib/src/xmc_dac.c **** 
 174:../Libraries/XMCLib/src/xmc_dac.c **** /* API to start the operation in Single Value Mode. */
 175:../Libraries/XMCLib/src/xmc_dac.c **** XMC_DAC_CH_STATUS_t XMC_DAC_CH_StartSingleValueMode(XMC_DAC_t *const dac, const uint8_t channel)
 176:../Libraries/XMCLib/src/xmc_dac.c **** {
 787              	 .loc 2 176 0
 788              	 .cfi_startproc
 789              	 
 790              	 
 791 0000 80B5     	 push {r7,lr}
 792              	.LCFI72:
 793              	 .cfi_def_cfa_offset 8
 794              	 .cfi_offset 7,-8
 795              	 .cfi_offset 14,-4
 796 0002 82B0     	 sub sp,sp,#8
 797              	.LCFI73:
 798              	 .cfi_def_cfa_offset 16
 799 0004 00AF     	 add r7,sp,#0
 800              	.LCFI74:
 801              	 .cfi_def_cfa_register 7
 802 0006 7860     	 str r0,[r7,#4]
 803 0008 0B46     	 mov r3,r1
 804 000a FB70     	 strb r3,[r7,#3]
 177:../Libraries/XMCLib/src/xmc_dac.c ****   XMC_ASSERT("XMC_DAC_CH_StartSingleValueMode: dac parameter not valid\n", XMC_DAC_IS_DAC_VALID(dac
 178:../Libraries/XMCLib/src/xmc_dac.c ****   XMC_ASSERT("XMC_DAC_CH_StartSingleValueMode: channel parameter not valid\n", XMC_DAC_IS_CHANNEL_V
 179:../Libraries/XMCLib/src/xmc_dac.c ****   XMC_ASSERT("XMC_DAC_CH_StartSingleValueMode: dac module not enabled\n", XMC_DAC_IsEnabled(dac));
 180:../Libraries/XMCLib/src/xmc_dac.c **** 
 181:../Libraries/XMCLib/src/xmc_dac.c ****   XMC_DAC_CH_SetMode(dac, channel, XMC_DAC_CH_MODE_SINGLE);
 805              	 .loc 2 181 0
 806 000c FB78     	 ldrb r3,[r7,#3]
 807 000e 7868     	 ldr r0,[r7,#4]
 808 0010 1946     	 mov r1,r3
 809 0012 4FF48012 	 mov r2,#1048576
 810 0016 FFF7FEFF 	 bl XMC_DAC_CH_SetMode
 182:../Libraries/XMCLib/src/xmc_dac.c **** 
 183:../Libraries/XMCLib/src/xmc_dac.c ****   return XMC_DAC_CH_STATUS_OK;
 811              	 .loc 2 183 0
 812 001a 0023     	 movs r3,#0
 184:../Libraries/XMCLib/src/xmc_dac.c **** }
 813              	 .loc 2 184 0
 814 001c 1846     	 mov r0,r3
 815 001e 0837     	 adds r7,r7,#8
 816              	.LCFI75:
 817              	 .cfi_def_cfa_offset 8
 818 0020 BD46     	 mov sp,r7
 819              	.LCFI76:
 820              	 .cfi_def_cfa_register 13
 821              	 
 822 0022 80BD     	 pop {r7,pc}
 823              	 .cfi_endproc
 824              	.LFE184:
 826              	 .section .text.XMC_DAC_CH_StartDataMode,"ax",%progbits
 827              	 .align 2
 828              	 .global XMC_DAC_CH_StartDataMode
 829              	 .thumb
 830              	 .thumb_func
 832              	XMC_DAC_CH_StartDataMode:
 833              	.LFB185:
 185:../Libraries/XMCLib/src/xmc_dac.c **** 
 186:../Libraries/XMCLib/src/xmc_dac.c **** /* API to start the operation in Data Mode. */
 187:../Libraries/XMCLib/src/xmc_dac.c **** XMC_DAC_CH_STATUS_t XMC_DAC_CH_StartDataMode(XMC_DAC_t *const dac,
 188:../Libraries/XMCLib/src/xmc_dac.c ****                                              const uint8_t channel,
 189:../Libraries/XMCLib/src/xmc_dac.c ****                                              const XMC_DAC_CH_TRIGGER_t trigger,
 190:../Libraries/XMCLib/src/xmc_dac.c ****                                              const uint32_t frequency)
 191:../Libraries/XMCLib/src/xmc_dac.c **** {
 834              	 .loc 2 191 0
 835              	 .cfi_startproc
 836              	 
 837              	 
 838 0000 80B5     	 push {r7,lr}
 839              	.LCFI77:
 840              	 .cfi_def_cfa_offset 8
 841              	 .cfi_offset 7,-8
 842              	 .cfi_offset 14,-4
 843 0002 86B0     	 sub sp,sp,#24
 844              	.LCFI78:
 845              	 .cfi_def_cfa_offset 32
 846 0004 00AF     	 add r7,sp,#0
 847              	.LCFI79:
 848              	 .cfi_def_cfa_register 7
 849 0006 F860     	 str r0,[r7,#12]
 850 0008 7A60     	 str r2,[r7,#4]
 851 000a 3B60     	 str r3,[r7]
 852 000c 0B46     	 mov r3,r1
 853 000e FB72     	 strb r3,[r7,#11]
 192:../Libraries/XMCLib/src/xmc_dac.c ****   XMC_DAC_CH_STATUS_t status = XMC_DAC_CH_STATUS_OK;
 854              	 .loc 2 192 0
 855 0010 0023     	 movs r3,#0
 856 0012 FB75     	 strb r3,[r7,#23]
 193:../Libraries/XMCLib/src/xmc_dac.c **** 
 194:../Libraries/XMCLib/src/xmc_dac.c ****   XMC_ASSERT("XMC_DAC_CH_StartDataMode: dac parameter not valid\n", XMC_DAC_IS_DAC_VALID(dac));
 195:../Libraries/XMCLib/src/xmc_dac.c ****   XMC_ASSERT("XMC_DAC_CH_StartDataMode: channel parameter not valid\n", XMC_DAC_IS_CHANNEL_VALID(ch
 196:../Libraries/XMCLib/src/xmc_dac.c ****   XMC_ASSERT("XMC_DAC_CH_StartDataMode: dac module not enabled\n", XMC_DAC_IsEnabled(dac));
 197:../Libraries/XMCLib/src/xmc_dac.c **** 
 198:../Libraries/XMCLib/src/xmc_dac.c ****   XMC_DAC_CH_SetMode(dac, channel, XMC_DAC_CH_MODE_IDLE);
 857              	 .loc 2 198 0
 858 0014 FB7A     	 ldrb r3,[r7,#11]
 859 0016 F868     	 ldr r0,[r7,#12]
 860 0018 1946     	 mov r1,r3
 861 001a 0022     	 movs r2,#0
 862 001c FFF7FEFF 	 bl XMC_DAC_CH_SetMode
 199:../Libraries/XMCLib/src/xmc_dac.c **** 
 200:../Libraries/XMCLib/src/xmc_dac.c ****   if (trigger == XMC_DAC_CH_TRIGGER_INTERNAL)
 863              	 .loc 2 200 0
 864 0020 7B68     	 ldr r3,[r7,#4]
 865 0022 002B     	 cmp r3,#0
 866 0024 07D1     	 bne .L32
 201:../Libraries/XMCLib/src/xmc_dac.c ****   {
 202:../Libraries/XMCLib/src/xmc_dac.c ****     status = XMC_DAC_CH_SetFrequency(dac, channel, frequency);
 867              	 .loc 2 202 0
 868 0026 FB7A     	 ldrb r3,[r7,#11]
 869 0028 F868     	 ldr r0,[r7,#12]
 870 002a 1946     	 mov r1,r3
 871 002c 3A68     	 ldr r2,[r7]
 872 002e FFF7FEFF 	 bl XMC_DAC_CH_SetFrequency
 873 0032 0346     	 mov r3,r0
 874 0034 FB75     	 strb r3,[r7,#23]
 875              	.L32:
 203:../Libraries/XMCLib/src/xmc_dac.c ****   }
 204:../Libraries/XMCLib/src/xmc_dac.c **** 
 205:../Libraries/XMCLib/src/xmc_dac.c ****   if (status == XMC_DAC_CH_STATUS_OK)
 876              	 .loc 2 205 0
 877 0036 FB7D     	 ldrb r3,[r7,#23]
 878 0038 002B     	 cmp r3,#0
 879 003a 0CD1     	 bne .L33
 206:../Libraries/XMCLib/src/xmc_dac.c ****   {
 207:../Libraries/XMCLib/src/xmc_dac.c ****     XMC_DAC_CH_SetTrigger(dac, channel, trigger);
 880              	 .loc 2 207 0
 881 003c FB7A     	 ldrb r3,[r7,#11]
 882 003e F868     	 ldr r0,[r7,#12]
 883 0040 1946     	 mov r1,r3
 884 0042 7A68     	 ldr r2,[r7,#4]
 885 0044 FFF7FEFF 	 bl XMC_DAC_CH_SetTrigger
 208:../Libraries/XMCLib/src/xmc_dac.c ****     XMC_DAC_CH_SetMode(dac, channel, XMC_DAC_CH_MODE_DATA);
 886              	 .loc 2 208 0
 887 0048 FB7A     	 ldrb r3,[r7,#11]
 888 004a F868     	 ldr r0,[r7,#12]
 889 004c 1946     	 mov r1,r3
 890 004e 4FF40012 	 mov r2,#2097152
 891 0052 FFF7FEFF 	 bl XMC_DAC_CH_SetMode
 892              	.L33:
 209:../Libraries/XMCLib/src/xmc_dac.c ****   }
 210:../Libraries/XMCLib/src/xmc_dac.c **** 
 211:../Libraries/XMCLib/src/xmc_dac.c ****   return status;
 893              	 .loc 2 211 0
 894 0056 FB7D     	 ldrb r3,[r7,#23]
 212:../Libraries/XMCLib/src/xmc_dac.c **** }
 895              	 .loc 2 212 0
 896 0058 1846     	 mov r0,r3
 897 005a 1837     	 adds r7,r7,#24
 898              	.LCFI80:
 899              	 .cfi_def_cfa_offset 8
 900 005c BD46     	 mov sp,r7
 901              	.LCFI81:
 902              	 .cfi_def_cfa_register 13
 903              	 
 904 005e 80BD     	 pop {r7,pc}
 905              	 .cfi_endproc
 906              	.LFE185:
 908              	 .section .text.XMC_DAC_CH_StartRampMode,"ax",%progbits
 909              	 .align 2
 910              	 .global XMC_DAC_CH_StartRampMode
 911              	 .thumb
 912              	 .thumb_func
 914              	XMC_DAC_CH_StartRampMode:
 915              	.LFB186:
 213:../Libraries/XMCLib/src/xmc_dac.c **** 
 214:../Libraries/XMCLib/src/xmc_dac.c **** /* API to start the operation in Ramp Mode. */
 215:../Libraries/XMCLib/src/xmc_dac.c **** XMC_DAC_CH_STATUS_t XMC_DAC_CH_StartRampMode(XMC_DAC_t *const dac,
 216:../Libraries/XMCLib/src/xmc_dac.c ****                                              const uint8_t channel,
 217:../Libraries/XMCLib/src/xmc_dac.c ****                                              const uint16_t start,
 218:../Libraries/XMCLib/src/xmc_dac.c ****                                              const uint16_t stop,
 219:../Libraries/XMCLib/src/xmc_dac.c ****                                              const XMC_DAC_CH_TRIGGER_t trigger,
 220:../Libraries/XMCLib/src/xmc_dac.c ****                                              const uint32_t frequency)
 221:../Libraries/XMCLib/src/xmc_dac.c **** {
 916              	 .loc 2 221 0
 917              	 .cfi_startproc
 918              	 
 919              	 
 920 0000 80B5     	 push {r7,lr}
 921              	.LCFI82:
 922              	 .cfi_def_cfa_offset 8
 923              	 .cfi_offset 7,-8
 924              	 .cfi_offset 14,-4
 925 0002 86B0     	 sub sp,sp,#24
 926              	.LCFI83:
 927              	 .cfi_def_cfa_offset 32
 928 0004 00AF     	 add r7,sp,#0
 929              	.LCFI84:
 930              	 .cfi_def_cfa_register 7
 931 0006 F860     	 str r0,[r7,#12]
 932 0008 0846     	 mov r0,r1
 933 000a 1146     	 mov r1,r2
 934 000c 1A46     	 mov r2,r3
 935 000e 0346     	 mov r3,r0
 936 0010 FB72     	 strb r3,[r7,#11]
 937 0012 0B46     	 mov r3,r1
 938 0014 3B81     	 strh r3,[r7,#8]
 939 0016 1346     	 mov r3,r2
 940 0018 FB80     	 strh r3,[r7,#6]
 222:../Libraries/XMCLib/src/xmc_dac.c ****   XMC_DAC_CH_STATUS_t status = XMC_DAC_CH_STATUS_OK;
 941              	 .loc 2 222 0
 942 001a 0023     	 movs r3,#0
 943 001c FB75     	 strb r3,[r7,#23]
 223:../Libraries/XMCLib/src/xmc_dac.c **** 
 224:../Libraries/XMCLib/src/xmc_dac.c ****   XMC_ASSERT("XMC_DAC_CH_StartRampMode: dac parameter not valid\n", XMC_DAC_IS_DAC_VALID(dac));
 225:../Libraries/XMCLib/src/xmc_dac.c ****   XMC_ASSERT("XMC_DAC_CH_StartRampMode: channel parameter not valid\n", XMC_DAC_IS_CHANNEL_VALID(ch
 226:../Libraries/XMCLib/src/xmc_dac.c ****   XMC_ASSERT("XMC_DAC_CH_StartRampMode: dac module not enabled\n", XMC_DAC_IsEnabled(dac));
 227:../Libraries/XMCLib/src/xmc_dac.c **** 
 228:../Libraries/XMCLib/src/xmc_dac.c ****   XMC_DAC_CH_SetMode(dac, channel, XMC_DAC_CH_MODE_IDLE);
 944              	 .loc 2 228 0
 945 001e FB7A     	 ldrb r3,[r7,#11]
 946 0020 F868     	 ldr r0,[r7,#12]
 947 0022 1946     	 mov r1,r3
 948 0024 0022     	 movs r2,#0
 949 0026 FFF7FEFF 	 bl XMC_DAC_CH_SetMode
 229:../Libraries/XMCLib/src/xmc_dac.c **** 
 230:../Libraries/XMCLib/src/xmc_dac.c ****   XMC_DAC_CH_SetRampStart(dac, channel, start);
 950              	 .loc 2 230 0
 951 002a FA7A     	 ldrb r2,[r7,#11]
 952 002c 3B89     	 ldrh r3,[r7,#8]
 953 002e F868     	 ldr r0,[r7,#12]
 954 0030 1146     	 mov r1,r2
 955 0032 1A46     	 mov r2,r3
 956 0034 FFF7FEFF 	 bl XMC_DAC_CH_SetRampStart
 231:../Libraries/XMCLib/src/xmc_dac.c ****   XMC_DAC_CH_SetRampStop(dac, channel, stop);
 957              	 .loc 2 231 0
 958 0038 FA7A     	 ldrb r2,[r7,#11]
 959 003a FB88     	 ldrh r3,[r7,#6]
 960 003c F868     	 ldr r0,[r7,#12]
 961 003e 1146     	 mov r1,r2
 962 0040 1A46     	 mov r2,r3
 963 0042 FFF7FEFF 	 bl XMC_DAC_CH_SetRampStop
 232:../Libraries/XMCLib/src/xmc_dac.c ****   XMC_DAC_CH_SetTrigger(dac, channel, trigger);
 964              	 .loc 2 232 0
 965 0046 FB7A     	 ldrb r3,[r7,#11]
 966 0048 F868     	 ldr r0,[r7,#12]
 967 004a 1946     	 mov r1,r3
 968 004c 3A6A     	 ldr r2,[r7,#32]
 969 004e FFF7FEFF 	 bl XMC_DAC_CH_SetTrigger
 233:../Libraries/XMCLib/src/xmc_dac.c **** 
 234:../Libraries/XMCLib/src/xmc_dac.c ****   if (trigger == XMC_DAC_CH_TRIGGER_INTERNAL)
 970              	 .loc 2 234 0
 971 0052 3B6A     	 ldr r3,[r7,#32]
 972 0054 002B     	 cmp r3,#0
 973 0056 07D1     	 bne .L36
 235:../Libraries/XMCLib/src/xmc_dac.c ****   {
 236:../Libraries/XMCLib/src/xmc_dac.c ****     status = XMC_DAC_CH_SetRampFrequency(dac, channel, frequency);
 974              	 .loc 2 236 0
 975 0058 FB7A     	 ldrb r3,[r7,#11]
 976 005a F868     	 ldr r0,[r7,#12]
 977 005c 1946     	 mov r1,r3
 978 005e 7A6A     	 ldr r2,[r7,#36]
 979 0060 FFF7FEFF 	 bl XMC_DAC_CH_SetRampFrequency
 980 0064 0346     	 mov r3,r0
 981 0066 FB75     	 strb r3,[r7,#23]
 982              	.L36:
 237:../Libraries/XMCLib/src/xmc_dac.c ****   }
 238:../Libraries/XMCLib/src/xmc_dac.c **** 
 239:../Libraries/XMCLib/src/xmc_dac.c ****   if (status == XMC_DAC_CH_STATUS_OK)
 983              	 .loc 2 239 0
 984 0068 FB7D     	 ldrb r3,[r7,#23]
 985 006a 002B     	 cmp r3,#0
 986 006c 06D1     	 bne .L37
 240:../Libraries/XMCLib/src/xmc_dac.c ****   {
 241:../Libraries/XMCLib/src/xmc_dac.c ****     XMC_DAC_CH_SetMode(dac, channel, XMC_DAC_CH_MODE_RAMP);
 987              	 .loc 2 241 0
 988 006e FB7A     	 ldrb r3,[r7,#11]
 989 0070 F868     	 ldr r0,[r7,#12]
 990 0072 1946     	 mov r1,r3
 991 0074 4FF4A002 	 mov r2,#5242880
 992 0078 FFF7FEFF 	 bl XMC_DAC_CH_SetMode
 993              	.L37:
 242:../Libraries/XMCLib/src/xmc_dac.c ****   }
 243:../Libraries/XMCLib/src/xmc_dac.c **** 
 244:../Libraries/XMCLib/src/xmc_dac.c ****   return status;
 994              	 .loc 2 244 0
 995 007c FB7D     	 ldrb r3,[r7,#23]
 245:../Libraries/XMCLib/src/xmc_dac.c **** }
 996              	 .loc 2 245 0
 997 007e 1846     	 mov r0,r3
 998 0080 1837     	 adds r7,r7,#24
 999              	.LCFI85:
 1000              	 .cfi_def_cfa_offset 8
 1001 0082 BD46     	 mov sp,r7
 1002              	.LCFI86:
 1003              	 .cfi_def_cfa_register 13
 1004              	 
 1005 0084 80BD     	 pop {r7,pc}
 1006              	 .cfi_endproc
 1007              	.LFE186:
 1009 0086 00BF     	 .section .text.XMC_DAC_CH_StartPatternMode,"ax",%progbits
 1010              	 .align 2
 1011              	 .global XMC_DAC_CH_StartPatternMode
 1012              	 .thumb
 1013              	 .thumb_func
 1015              	XMC_DAC_CH_StartPatternMode:
 1016              	.LFB187:
 246:../Libraries/XMCLib/src/xmc_dac.c **** 
 247:../Libraries/XMCLib/src/xmc_dac.c **** /* API to start the operation in Pattern Mode. */
 248:../Libraries/XMCLib/src/xmc_dac.c **** XMC_DAC_CH_STATUS_t XMC_DAC_CH_StartPatternMode(XMC_DAC_t *const dac,
 249:../Libraries/XMCLib/src/xmc_dac.c ****                                                 const uint8_t channel,
 250:../Libraries/XMCLib/src/xmc_dac.c ****                                                 const uint8_t *const pattern,
 251:../Libraries/XMCLib/src/xmc_dac.c ****                                                 const XMC_DAC_CH_PATTERN_SIGN_OUTPUT_t sign_output,
 252:../Libraries/XMCLib/src/xmc_dac.c ****                                                 const XMC_DAC_CH_TRIGGER_t trigger,
 253:../Libraries/XMCLib/src/xmc_dac.c ****                                                 const uint32_t frequency)
 254:../Libraries/XMCLib/src/xmc_dac.c **** {
 1017              	 .loc 2 254 0
 1018              	 .cfi_startproc
 1019              	 
 1020              	 
 1021 0000 80B5     	 push {r7,lr}
 1022              	.LCFI87:
 1023              	 .cfi_def_cfa_offset 8
 1024              	 .cfi_offset 7,-8
 1025              	 .cfi_offset 14,-4
 1026 0002 86B0     	 sub sp,sp,#24
 1027              	.LCFI88:
 1028              	 .cfi_def_cfa_offset 32
 1029 0004 00AF     	 add r7,sp,#0
 1030              	.LCFI89:
 1031              	 .cfi_def_cfa_register 7
 1032 0006 F860     	 str r0,[r7,#12]
 1033 0008 7A60     	 str r2,[r7,#4]
 1034 000a 1A46     	 mov r2,r3
 1035 000c 0B46     	 mov r3,r1
 1036 000e FB72     	 strb r3,[r7,#11]
 1037 0010 1346     	 mov r3,r2
 1038 0012 BB72     	 strb r3,[r7,#10]
 255:../Libraries/XMCLib/src/xmc_dac.c ****   XMC_DAC_CH_STATUS_t status = XMC_DAC_CH_STATUS_OK;
 1039              	 .loc 2 255 0
 1040 0014 0023     	 movs r3,#0
 1041 0016 FB75     	 strb r3,[r7,#23]
 256:../Libraries/XMCLib/src/xmc_dac.c **** 
 257:../Libraries/XMCLib/src/xmc_dac.c ****   XMC_ASSERT("XMC_DAC_CH_StartPatternMode: dac parameter not valid\n", XMC_DAC_IS_DAC_VALID(dac));
 258:../Libraries/XMCLib/src/xmc_dac.c ****   XMC_ASSERT("XMC_DAC_CH_StartPatternMode: channel parameter not valid\n", XMC_DAC_IS_CHANNEL_VALID
 259:../Libraries/XMCLib/src/xmc_dac.c ****   XMC_ASSERT("XMC_DAC_CH_StartPatternMode: dac module not enabled\n", XMC_DAC_IsEnabled(dac));
 260:../Libraries/XMCLib/src/xmc_dac.c **** 
 261:../Libraries/XMCLib/src/xmc_dac.c ****   XMC_DAC_CH_SetMode(dac, channel, XMC_DAC_CH_MODE_IDLE);
 1042              	 .loc 2 261 0
 1043 0018 FB7A     	 ldrb r3,[r7,#11]
 1044 001a F868     	 ldr r0,[r7,#12]
 1045 001c 1946     	 mov r1,r3
 1046 001e 0022     	 movs r2,#0
 1047 0020 FFF7FEFF 	 bl XMC_DAC_CH_SetMode
 262:../Libraries/XMCLib/src/xmc_dac.c **** 
 263:../Libraries/XMCLib/src/xmc_dac.c ****   if (trigger == XMC_DAC_CH_TRIGGER_INTERNAL)
 1048              	 .loc 2 263 0
 1049 0024 3B6A     	 ldr r3,[r7,#32]
 1050 0026 002B     	 cmp r3,#0
 1051 0028 09D1     	 bne .L40
 264:../Libraries/XMCLib/src/xmc_dac.c ****   {
 265:../Libraries/XMCLib/src/xmc_dac.c ****     status = XMC_DAC_CH_SetFrequency(dac, channel, frequency * XMC_DAC_SAMPLES_PER_PERIOD);
 1052              	 .loc 2 265 0
 1053 002a 7B6A     	 ldr r3,[r7,#36]
 1054 002c 5B01     	 lsls r3,r3,#5
 1055 002e FA7A     	 ldrb r2,[r7,#11]
 1056 0030 F868     	 ldr r0,[r7,#12]
 1057 0032 1146     	 mov r1,r2
 1058 0034 1A46     	 mov r2,r3
 1059 0036 FFF7FEFF 	 bl XMC_DAC_CH_SetFrequency
 1060 003a 0346     	 mov r3,r0
 1061 003c FB75     	 strb r3,[r7,#23]
 1062              	.L40:
 266:../Libraries/XMCLib/src/xmc_dac.c ****   }
 267:../Libraries/XMCLib/src/xmc_dac.c **** 
 268:../Libraries/XMCLib/src/xmc_dac.c ****   if (status == XMC_DAC_CH_STATUS_OK)
 1063              	 .loc 2 268 0
 1064 003e FB7D     	 ldrb r3,[r7,#23]
 1065 0040 002B     	 cmp r3,#0
 1066 0042 20D1     	 bne .L41
 269:../Libraries/XMCLib/src/xmc_dac.c ****   {
 270:../Libraries/XMCLib/src/xmc_dac.c ****     XMC_DAC_CH_SetPattern(dac, channel, pattern);
 1067              	 .loc 2 270 0
 1068 0044 FB7A     	 ldrb r3,[r7,#11]
 1069 0046 F868     	 ldr r0,[r7,#12]
 1070 0048 1946     	 mov r1,r3
 1071 004a 7A68     	 ldr r2,[r7,#4]
 1072 004c FFF7FEFF 	 bl XMC_DAC_CH_SetPattern
 271:../Libraries/XMCLib/src/xmc_dac.c ****     if (XMC_DAC_CH_PATTERN_SIGN_OUTPUT_ENABLED == sign_output)
 1073              	 .loc 2 271 0
 1074 0050 BB7A     	 ldrb r3,[r7,#10]
 1075 0052 012B     	 cmp r3,#1
 1076 0054 05D1     	 bne .L42
 272:../Libraries/XMCLib/src/xmc_dac.c ****     {
 273:../Libraries/XMCLib/src/xmc_dac.c ****       XMC_DAC_CH_EnablePatternSignOutput(dac, channel);
 1077              	 .loc 2 273 0
 1078 0056 FB7A     	 ldrb r3,[r7,#11]
 1079 0058 F868     	 ldr r0,[r7,#12]
 1080 005a 1946     	 mov r1,r3
 1081 005c FFF7FEFF 	 bl XMC_DAC_CH_EnablePatternSignOutput
 1082 0060 04E0     	 b .L43
 1083              	.L42:
 274:../Libraries/XMCLib/src/xmc_dac.c ****     }
 275:../Libraries/XMCLib/src/xmc_dac.c ****     else
 276:../Libraries/XMCLib/src/xmc_dac.c ****     {
 277:../Libraries/XMCLib/src/xmc_dac.c ****       XMC_DAC_CH_DisablePatternSignOutput(dac, channel);
 1084              	 .loc 2 277 0
 1085 0062 FB7A     	 ldrb r3,[r7,#11]
 1086 0064 F868     	 ldr r0,[r7,#12]
 1087 0066 1946     	 mov r1,r3
 1088 0068 FFF7FEFF 	 bl XMC_DAC_CH_DisablePatternSignOutput
 1089              	.L43:
 278:../Libraries/XMCLib/src/xmc_dac.c ****     }
 279:../Libraries/XMCLib/src/xmc_dac.c ****     XMC_DAC_CH_SetTrigger(dac, channel, trigger);
 1090              	 .loc 2 279 0
 1091 006c FB7A     	 ldrb r3,[r7,#11]
 1092 006e F868     	 ldr r0,[r7,#12]
 1093 0070 1946     	 mov r1,r3
 1094 0072 3A6A     	 ldr r2,[r7,#32]
 1095 0074 FFF7FEFF 	 bl XMC_DAC_CH_SetTrigger
 280:../Libraries/XMCLib/src/xmc_dac.c ****     XMC_DAC_CH_SetMode(dac, channel, XMC_DAC_CH_MODE_PATTERN);
 1096              	 .loc 2 280 0
 1097 0078 FB7A     	 ldrb r3,[r7,#11]
 1098 007a F868     	 ldr r0,[r7,#12]
 1099 007c 1946     	 mov r1,r3
 1100 007e 4FF44012 	 mov r2,#3145728
 1101 0082 FFF7FEFF 	 bl XMC_DAC_CH_SetMode
 1102              	.L41:
 281:../Libraries/XMCLib/src/xmc_dac.c ****   }
 282:../Libraries/XMCLib/src/xmc_dac.c **** 
 283:../Libraries/XMCLib/src/xmc_dac.c ****   return status;
 1103              	 .loc 2 283 0
 1104 0086 FB7D     	 ldrb r3,[r7,#23]
 284:../Libraries/XMCLib/src/xmc_dac.c **** }
 1105              	 .loc 2 284 0
 1106 0088 1846     	 mov r0,r3
 1107 008a 1837     	 adds r7,r7,#24
 1108              	.LCFI90:
 1109              	 .cfi_def_cfa_offset 8
 1110 008c BD46     	 mov sp,r7
 1111              	.LCFI91:
 1112              	 .cfi_def_cfa_register 13
 1113              	 
 1114 008e 80BD     	 pop {r7,pc}
 1115              	 .cfi_endproc
 1116              	.LFE187:
 1118              	 .section .text.XMC_DAC_CH_StartNoiseMode,"ax",%progbits
 1119              	 .align 2
 1120              	 .global XMC_DAC_CH_StartNoiseMode
 1121              	 .thumb
 1122              	 .thumb_func
 1124              	XMC_DAC_CH_StartNoiseMode:
 1125              	.LFB188:
 285:../Libraries/XMCLib/src/xmc_dac.c **** 
 286:../Libraries/XMCLib/src/xmc_dac.c **** /* API to start the operation in Noise Mode. */
 287:../Libraries/XMCLib/src/xmc_dac.c **** XMC_DAC_CH_STATUS_t XMC_DAC_CH_StartNoiseMode(XMC_DAC_t *const dac,
 288:../Libraries/XMCLib/src/xmc_dac.c ****                                               const uint8_t channel,
 289:../Libraries/XMCLib/src/xmc_dac.c ****                                               const XMC_DAC_CH_TRIGGER_t trigger,
 290:../Libraries/XMCLib/src/xmc_dac.c ****                                               const uint32_t frequency)
 291:../Libraries/XMCLib/src/xmc_dac.c **** {
 1126              	 .loc 2 291 0
 1127              	 .cfi_startproc
 1128              	 
 1129              	 
 1130 0000 80B5     	 push {r7,lr}
 1131              	.LCFI92:
 1132              	 .cfi_def_cfa_offset 8
 1133              	 .cfi_offset 7,-8
 1134              	 .cfi_offset 14,-4
 1135 0002 86B0     	 sub sp,sp,#24
 1136              	.LCFI93:
 1137              	 .cfi_def_cfa_offset 32
 1138 0004 00AF     	 add r7,sp,#0
 1139              	.LCFI94:
 1140              	 .cfi_def_cfa_register 7
 1141 0006 F860     	 str r0,[r7,#12]
 1142 0008 7A60     	 str r2,[r7,#4]
 1143 000a 3B60     	 str r3,[r7]
 1144 000c 0B46     	 mov r3,r1
 1145 000e FB72     	 strb r3,[r7,#11]
 292:../Libraries/XMCLib/src/xmc_dac.c ****   XMC_DAC_CH_STATUS_t status = XMC_DAC_CH_STATUS_OK;
 1146              	 .loc 2 292 0
 1147 0010 0023     	 movs r3,#0
 1148 0012 FB75     	 strb r3,[r7,#23]
 293:../Libraries/XMCLib/src/xmc_dac.c **** 
 294:../Libraries/XMCLib/src/xmc_dac.c ****   XMC_ASSERT("XMC_DAC_CH_StartNoiseMode: dac parameter not valid\n", XMC_DAC_IS_DAC_VALID(dac));
 295:../Libraries/XMCLib/src/xmc_dac.c ****   XMC_ASSERT("XMC_DAC_CH_StartNoiseMode: channel parameter not valid\n", XMC_DAC_IS_CHANNEL_VALID(c
 296:../Libraries/XMCLib/src/xmc_dac.c ****   XMC_ASSERT("XMC_DAC_CH_StartNoiseMode: dac module not enabled\n", XMC_DAC_IsEnabled(dac));
 297:../Libraries/XMCLib/src/xmc_dac.c **** 
 298:../Libraries/XMCLib/src/xmc_dac.c ****   XMC_DAC_CH_SetMode(dac, channel, XMC_DAC_CH_MODE_IDLE);
 1149              	 .loc 2 298 0
 1150 0014 FB7A     	 ldrb r3,[r7,#11]
 1151 0016 F868     	 ldr r0,[r7,#12]
 1152 0018 1946     	 mov r1,r3
 1153 001a 0022     	 movs r2,#0
 1154 001c FFF7FEFF 	 bl XMC_DAC_CH_SetMode
 299:../Libraries/XMCLib/src/xmc_dac.c **** 
 300:../Libraries/XMCLib/src/xmc_dac.c ****   if (trigger == XMC_DAC_CH_TRIGGER_INTERNAL)
 1155              	 .loc 2 300 0
 1156 0020 7B68     	 ldr r3,[r7,#4]
 1157 0022 002B     	 cmp r3,#0
 1158 0024 07D1     	 bne .L46
 301:../Libraries/XMCLib/src/xmc_dac.c ****   {
 302:../Libraries/XMCLib/src/xmc_dac.c ****     status = XMC_DAC_CH_SetFrequency(dac, channel, frequency);
 1159              	 .loc 2 302 0
 1160 0026 FB7A     	 ldrb r3,[r7,#11]
 1161 0028 F868     	 ldr r0,[r7,#12]
 1162 002a 1946     	 mov r1,r3
 1163 002c 3A68     	 ldr r2,[r7]
 1164 002e FFF7FEFF 	 bl XMC_DAC_CH_SetFrequency
 1165 0032 0346     	 mov r3,r0
 1166 0034 FB75     	 strb r3,[r7,#23]
 1167              	.L46:
 303:../Libraries/XMCLib/src/xmc_dac.c ****   }
 304:../Libraries/XMCLib/src/xmc_dac.c **** 
 305:../Libraries/XMCLib/src/xmc_dac.c ****   if (status == XMC_DAC_CH_STATUS_OK)
 1168              	 .loc 2 305 0
 1169 0036 FB7D     	 ldrb r3,[r7,#23]
 1170 0038 002B     	 cmp r3,#0
 1171 003a 0CD1     	 bne .L47
 306:../Libraries/XMCLib/src/xmc_dac.c ****   {
 307:../Libraries/XMCLib/src/xmc_dac.c ****     XMC_DAC_CH_SetTrigger(dac, channel, trigger);
 1172              	 .loc 2 307 0
 1173 003c FB7A     	 ldrb r3,[r7,#11]
 1174 003e F868     	 ldr r0,[r7,#12]
 1175 0040 1946     	 mov r1,r3
 1176 0042 7A68     	 ldr r2,[r7,#4]
 1177 0044 FFF7FEFF 	 bl XMC_DAC_CH_SetTrigger
 308:../Libraries/XMCLib/src/xmc_dac.c ****     XMC_DAC_CH_SetMode(dac, channel, XMC_DAC_CH_MODE_NOISE);
 1178              	 .loc 2 308 0
 1179 0048 FB7A     	 ldrb r3,[r7,#11]
 1180 004a F868     	 ldr r0,[r7,#12]
 1181 004c 1946     	 mov r1,r3
 1182 004e 4FF48002 	 mov r2,#4194304
 1183 0052 FFF7FEFF 	 bl XMC_DAC_CH_SetMode
 1184              	.L47:
 309:../Libraries/XMCLib/src/xmc_dac.c ****   }
 310:../Libraries/XMCLib/src/xmc_dac.c **** 
 311:../Libraries/XMCLib/src/xmc_dac.c ****   return status;
 1185              	 .loc 2 311 0
 1186 0056 FB7D     	 ldrb r3,[r7,#23]
 312:../Libraries/XMCLib/src/xmc_dac.c **** }
 1187              	 .loc 2 312 0
 1188 0058 1846     	 mov r0,r3
 1189 005a 1837     	 adds r7,r7,#24
 1190              	.LCFI95:
 1191              	 .cfi_def_cfa_offset 8
 1192 005c BD46     	 mov sp,r7
 1193              	.LCFI96:
 1194              	 .cfi_def_cfa_register 13
 1195              	 
 1196 005e 80BD     	 pop {r7,pc}
 1197              	 .cfi_endproc
 1198              	.LFE188:
 1200              	 .section .text.XMC_DAC_CH_SetPattern,"ax",%progbits
 1201              	 .align 2
 1202              	 .global XMC_DAC_CH_SetPattern
 1203              	 .thumb
 1204              	 .thumb_func
 1206              	XMC_DAC_CH_SetPattern:
 1207              	.LFB189:
 313:../Libraries/XMCLib/src/xmc_dac.c **** 
 314:../Libraries/XMCLib/src/xmc_dac.c **** /* API to write the pattern data table. */
 315:../Libraries/XMCLib/src/xmc_dac.c **** void XMC_DAC_CH_SetPattern(XMC_DAC_t *const dac, uint8_t channel, const uint8_t *const data)
 316:../Libraries/XMCLib/src/xmc_dac.c **** {
 1208              	 .loc 2 316 0
 1209              	 .cfi_startproc
 1210              	 
 1211              	 
 1212              	 
 1213 0000 80B4     	 push {r7}
 1214              	.LCFI97:
 1215              	 .cfi_def_cfa_offset 4
 1216              	 .cfi_offset 7,-4
 1217 0002 87B0     	 sub sp,sp,#28
 1218              	.LCFI98:
 1219              	 .cfi_def_cfa_offset 32
 1220 0004 00AF     	 add r7,sp,#0
 1221              	.LCFI99:
 1222              	 .cfi_def_cfa_register 7
 1223 0006 F860     	 str r0,[r7,#12]
 1224 0008 0B46     	 mov r3,r1
 1225 000a 7A60     	 str r2,[r7,#4]
 1226 000c FB72     	 strb r3,[r7,#11]
 317:../Libraries/XMCLib/src/xmc_dac.c ****   uint32_t index;
 318:../Libraries/XMCLib/src/xmc_dac.c ****   uint32_t temp;
 319:../Libraries/XMCLib/src/xmc_dac.c **** 
 320:../Libraries/XMCLib/src/xmc_dac.c ****   XMC_ASSERT("XMC_DAC_CH_SetPattern: dac parameter not valid\n", XMC_DAC_IS_DAC_VALID(dac));
 321:../Libraries/XMCLib/src/xmc_dac.c ****   XMC_ASSERT("XMC_DAC_CH_SetPattern: channel parameter not valid\n", XMC_DAC_IS_CHANNEL_VALID(chann
 322:../Libraries/XMCLib/src/xmc_dac.c ****   XMC_ASSERT("XMC_DAC_CH_SetPattern: dac module not enabled\n", XMC_DAC_IsEnabled(dac));
 323:../Libraries/XMCLib/src/xmc_dac.c **** 
 324:../Libraries/XMCLib/src/xmc_dac.c ****   temp = data[0U];
 1227              	 .loc 2 324 0
 1228 000e 7B68     	 ldr r3,[r7,#4]
 1229 0010 1B78     	 ldrb r3,[r3]
 1230 0012 3B61     	 str r3,[r7,#16]
 325:../Libraries/XMCLib/src/xmc_dac.c ****   for(index = 1U; index < 6U; ++index)
 1231              	 .loc 2 325 0
 1232 0014 0123     	 movs r3,#1
 1233 0016 7B61     	 str r3,[r7,#20]
 1234 0018 10E0     	 b .L50
 1235              	.L51:
 326:../Libraries/XMCLib/src/xmc_dac.c ****   {
 327:../Libraries/XMCLib/src/xmc_dac.c ****     temp |= (uint32_t)data[index] << (index * XMC_DAC_DAC0PATL_PAT_BITSIZE);
 1236              	 .loc 2 327 0 discriminator 3
 1237 001a 7A68     	 ldr r2,[r7,#4]
 1238 001c 7B69     	 ldr r3,[r7,#20]
 1239 001e 1344     	 add r3,r3,r2
 1240 0020 1B78     	 ldrb r3,[r3]
 1241 0022 1946     	 mov r1,r3
 1242 0024 7A69     	 ldr r2,[r7,#20]
 1243 0026 1346     	 mov r3,r2
 1244 0028 9B00     	 lsls r3,r3,#2
 1245 002a 1344     	 add r3,r3,r2
 1246 002c 01FA03F3 	 lsl r3,r1,r3
 1247 0030 3A69     	 ldr r2,[r7,#16]
 1248 0032 1343     	 orrs r3,r3,r2
 1249 0034 3B61     	 str r3,[r7,#16]
 325:../Libraries/XMCLib/src/xmc_dac.c ****   for(index = 1U; index < 6U; ++index)
 1250              	 .loc 2 325 0 discriminator 3
 1251 0036 7B69     	 ldr r3,[r7,#20]
 1252 0038 0133     	 adds r3,r3,#1
 1253 003a 7B61     	 str r3,[r7,#20]
 1254              	.L50:
 325:../Libraries/XMCLib/src/xmc_dac.c ****   for(index = 1U; index < 6U; ++index)
 1255              	 .loc 2 325 0 is_stmt 0 discriminator 1
 1256 003c 7B69     	 ldr r3,[r7,#20]
 1257 003e 052B     	 cmp r3,#5
 1258 0040 EBD9     	 bls .L51
 328:../Libraries/XMCLib/src/xmc_dac.c ****   }
 329:../Libraries/XMCLib/src/xmc_dac.c ****   dac->DACPAT[channel].low = temp;
 1259              	 .loc 2 329 0 is_stmt 1
 1260 0042 FA7A     	 ldrb r2,[r7,#11]
 1261 0044 FB68     	 ldr r3,[r7,#12]
 1262 0046 0432     	 adds r2,r2,#4
 1263 0048 3969     	 ldr r1,[r7,#16]
 1264 004a 43F83210 	 str r1,[r3,r2,lsl#3]
 330:../Libraries/XMCLib/src/xmc_dac.c **** 
 331:../Libraries/XMCLib/src/xmc_dac.c ****   temp = data[6U];
 1265              	 .loc 2 331 0
 1266 004e 7B68     	 ldr r3,[r7,#4]
 1267 0050 0633     	 adds r3,r3,#6
 1268 0052 1B78     	 ldrb r3,[r3]
 1269 0054 3B61     	 str r3,[r7,#16]
 332:../Libraries/XMCLib/src/xmc_dac.c ****   for(index = 1U; index < 6U; ++index)
 1270              	 .loc 2 332 0
 1271 0056 0123     	 movs r3,#1
 1272 0058 7B61     	 str r3,[r7,#20]
 1273 005a 11E0     	 b .L52
 1274              	.L53:
 333:../Libraries/XMCLib/src/xmc_dac.c ****   {
 334:../Libraries/XMCLib/src/xmc_dac.c ****     temp |= (uint32_t)data[index + 6U] << (index * XMC_DAC_DAC0PATL_PAT_BITSIZE);
 1275              	 .loc 2 334 0 discriminator 3
 1276 005c 7B69     	 ldr r3,[r7,#20]
 1277 005e 0633     	 adds r3,r3,#6
 1278 0060 7A68     	 ldr r2,[r7,#4]
 1279 0062 1344     	 add r3,r3,r2
 1280 0064 1B78     	 ldrb r3,[r3]
 1281 0066 1946     	 mov r1,r3
 1282 0068 7A69     	 ldr r2,[r7,#20]
 1283 006a 1346     	 mov r3,r2
 1284 006c 9B00     	 lsls r3,r3,#2
 1285 006e 1344     	 add r3,r3,r2
 1286 0070 01FA03F3 	 lsl r3,r1,r3
 1287 0074 3A69     	 ldr r2,[r7,#16]
 1288 0076 1343     	 orrs r3,r3,r2
 1289 0078 3B61     	 str r3,[r7,#16]
 332:../Libraries/XMCLib/src/xmc_dac.c ****   for(index = 1U; index < 6U; ++index)
 1290              	 .loc 2 332 0 discriminator 3
 1291 007a 7B69     	 ldr r3,[r7,#20]
 1292 007c 0133     	 adds r3,r3,#1
 1293 007e 7B61     	 str r3,[r7,#20]
 1294              	.L52:
 332:../Libraries/XMCLib/src/xmc_dac.c ****   for(index = 1U; index < 6U; ++index)
 1295              	 .loc 2 332 0 is_stmt 0 discriminator 1
 1296 0080 7B69     	 ldr r3,[r7,#20]
 1297 0082 052B     	 cmp r3,#5
 1298 0084 EAD9     	 bls .L53
 335:../Libraries/XMCLib/src/xmc_dac.c ****   }
 336:../Libraries/XMCLib/src/xmc_dac.c ****   dac->DACPAT[channel].high = temp;
 1299              	 .loc 2 336 0 is_stmt 1
 1300 0086 FB7A     	 ldrb r3,[r7,#11]
 1301 0088 FA68     	 ldr r2,[r7,#12]
 1302 008a 0433     	 adds r3,r3,#4
 1303 008c DB00     	 lsls r3,r3,#3
 1304 008e 1344     	 add r3,r3,r2
 1305 0090 3A69     	 ldr r2,[r7,#16]
 1306 0092 5A60     	 str r2,[r3,#4]
 337:../Libraries/XMCLib/src/xmc_dac.c **** }
 1307              	 .loc 2 337 0
 1308 0094 1C37     	 adds r7,r7,#28
 1309              	.LCFI100:
 1310              	 .cfi_def_cfa_offset 4
 1311 0096 BD46     	 mov sp,r7
 1312              	.LCFI101:
 1313              	 .cfi_def_cfa_register 13
 1314              	 
 1315 0098 5DF8047B 	 ldr r7,[sp],#4
 1316              	.LCFI102:
 1317              	 .cfi_restore 7
 1318              	 .cfi_def_cfa_offset 0
 1319 009c 7047     	 bx lr
 1320              	 .cfi_endproc
 1321              	.LFE189:
 1323 009e 00BF     	 .text
 1324              	.Letext0:
 1325              	 .file 3 "c:\\davev4-64bit\\dave-4.2.6\\eclipse\\arm-gcc-49\\arm-none-eabi\\include\\machine\\_default_types.h"
 1326              	 .file 4 "c:\\davev4-64bit\\dave-4.2.6\\eclipse\\arm-gcc-49\\arm-none-eabi\\include\\stdint.h"
 1327              	 .file 5 "C:\\Users\\Depes Crystalline\\Desktop\\school\\Active_Bike_Lighting_System\\Radar_Core\\Libraries\\XMCLib\\inc/xmc4_scu.h"
 1328              	 .file 6 "C:\\Users\\Depes Crystalline\\Desktop\\school\\Active_Bike_Lighting_System\\Radar_Core/Libraries/CMSIS/Include/core_cm4.h"
 1329              	 .file 7 "C:\\Users\\Depes Crystalline\\Desktop\\school\\Active_Bike_Lighting_System\\Radar_Core/Libraries/CMSIS/Infineon/XMC4200_series/Include/system_XMC4200.h"