   1              	 .syntax unified
   2              	 .cpu cortex-m4
   3              	 .fpu softvfp
   4              	 .eabi_attribute 20,1
   5              	 .eabi_attribute 21,1
   6              	 .eabi_attribute 23,3
   7              	 .eabi_attribute 24,1
   8              	 .eabi_attribute 25,1
   9              	 .eabi_attribute 26,1
  10              	 .eabi_attribute 30,6
  11              	 .eabi_attribute 34,1
  12              	 .eabi_attribute 18,4
  13              	 .thumb
  14              	 .file "xmc_common.c"
  15              	 .text
  16              	.Ltext0:
  17              	 .cfi_sections .debug_frame
  18              	 .section .text.XMC_PRIOARRAY_GetHead,"ax",%progbits
  19              	 .align 2
  20              	 .thumb
  21              	 .thumb_func
  23              	XMC_PRIOARRAY_GetHead:
  24              	.LFB123:
  25              	 .file 1 "C:\\Users\\Depes Crystalline\\Desktop\\school\\Active_Bike_Lighting_System\\Radar_Core\\Libraries\\XMCLib\\inc/xmc_common.h"
   1:C:\Users\Depes Crystalline\Desktop\school\Active_Bike_Lighting_System\Radar_Core\Libraries\XMCLib\inc\xmc_common.h **** /**
   2:C:\Users\Depes Crystalline\Desktop\school\Active_Bike_Lighting_System\Radar_Core\Libraries\XMCLib\inc\xmc_common.h ****  * @file xmc_common.h
   3:C:\Users\Depes Crystalline\Desktop\school\Active_Bike_Lighting_System\Radar_Core\Libraries\XMCLib\inc\xmc_common.h ****  * @date 2015-06-20
   4:C:\Users\Depes Crystalline\Desktop\school\Active_Bike_Lighting_System\Radar_Core\Libraries\XMCLib\inc\xmc_common.h ****  *
   5:C:\Users\Depes Crystalline\Desktop\school\Active_Bike_Lighting_System\Radar_Core\Libraries\XMCLib\inc\xmc_common.h ****  * @cond
   6:C:\Users\Depes Crystalline\Desktop\school\Active_Bike_Lighting_System\Radar_Core\Libraries\XMCLib\inc\xmc_common.h ****   *************************************************************************************************
   7:C:\Users\Depes Crystalline\Desktop\school\Active_Bike_Lighting_System\Radar_Core\Libraries\XMCLib\inc\xmc_common.h ****  * XMClib v2.0.0 - XMC Peripheral Driver Library
   8:C:\Users\Depes Crystalline\Desktop\school\Active_Bike_Lighting_System\Radar_Core\Libraries\XMCLib\inc\xmc_common.h ****  *
   9:C:\Users\Depes Crystalline\Desktop\school\Active_Bike_Lighting_System\Radar_Core\Libraries\XMCLib\inc\xmc_common.h ****  * Copyright (c) 2015, Infineon Technologies AG
  10:C:\Users\Depes Crystalline\Desktop\school\Active_Bike_Lighting_System\Radar_Core\Libraries\XMCLib\inc\xmc_common.h ****  * All rights reserved.                        
  11:C:\Users\Depes Crystalline\Desktop\school\Active_Bike_Lighting_System\Radar_Core\Libraries\XMCLib\inc\xmc_common.h ****  *                                             
  12:C:\Users\Depes Crystalline\Desktop\school\Active_Bike_Lighting_System\Radar_Core\Libraries\XMCLib\inc\xmc_common.h ****  * Redistribution and use in source and binary forms, with or without modification,are permitted pr
  13:C:\Users\Depes Crystalline\Desktop\school\Active_Bike_Lighting_System\Radar_Core\Libraries\XMCLib\inc\xmc_common.h ****  * following conditions are met:   
  14:C:\Users\Depes Crystalline\Desktop\school\Active_Bike_Lighting_System\Radar_Core\Libraries\XMCLib\inc\xmc_common.h ****  *                                                                              
  15:C:\Users\Depes Crystalline\Desktop\school\Active_Bike_Lighting_System\Radar_Core\Libraries\XMCLib\inc\xmc_common.h ****  * Redistributions of source code must retain the above copyright notice, this list of conditions a
  16:C:\Users\Depes Crystalline\Desktop\school\Active_Bike_Lighting_System\Radar_Core\Libraries\XMCLib\inc\xmc_common.h ****  * disclaimer.                        
  17:C:\Users\Depes Crystalline\Desktop\school\Active_Bike_Lighting_System\Radar_Core\Libraries\XMCLib\inc\xmc_common.h ****  * 
  18:C:\Users\Depes Crystalline\Desktop\school\Active_Bike_Lighting_System\Radar_Core\Libraries\XMCLib\inc\xmc_common.h ****  * Redistributions in binary form must reproduce the above copyright notice, this list of condition
  19:C:\Users\Depes Crystalline\Desktop\school\Active_Bike_Lighting_System\Radar_Core\Libraries\XMCLib\inc\xmc_common.h ****  * disclaimer in the documentation and/or other materials provided with the distribution.          
  20:C:\Users\Depes Crystalline\Desktop\school\Active_Bike_Lighting_System\Radar_Core\Libraries\XMCLib\inc\xmc_common.h ****  * 
  21:C:\Users\Depes Crystalline\Desktop\school\Active_Bike_Lighting_System\Radar_Core\Libraries\XMCLib\inc\xmc_common.h ****  * Neither the name of the copyright holders nor the names of its contributors may be used to endor
  22:C:\Users\Depes Crystalline\Desktop\school\Active_Bike_Lighting_System\Radar_Core\Libraries\XMCLib\inc\xmc_common.h ****  * products derived from this software without specific prior written permission.                  
  23:C:\Users\Depes Crystalline\Desktop\school\Active_Bike_Lighting_System\Radar_Core\Libraries\XMCLib\inc\xmc_common.h ****  *                                                                              
  24:C:\Users\Depes Crystalline\Desktop\school\Active_Bike_Lighting_System\Radar_Core\Libraries\XMCLib\inc\xmc_common.h ****  * THIS SOFTWARE IS PROVIDED BY THE COPYRIGHT HOLDERS AND CONTRIBUTORS "AS IS" AND ANY EXPRESS OR I
  25:C:\Users\Depes Crystalline\Desktop\school\Active_Bike_Lighting_System\Radar_Core\Libraries\XMCLib\inc\xmc_common.h ****  * INCLUDING, BUT NOT LIMITED TO, THE IMPLIED WARRANTIES OF MERCHANTABILITY AND FITNESS FOR A PARTI
  26:C:\Users\Depes Crystalline\Desktop\school\Active_Bike_Lighting_System\Radar_Core\Libraries\XMCLib\inc\xmc_common.h ****  * DISCLAIMED. IN NO EVENT SHALL THE COPYRIGHT HOLDER OR CONTRIBUTORS BE LIABLE  FOR ANY DIRECT, IN
  27:C:\Users\Depes Crystalline\Desktop\school\Active_Bike_Lighting_System\Radar_Core\Libraries\XMCLib\inc\xmc_common.h ****  * SPECIAL, EXEMPLARY, OR CONSEQUENTIAL DAMAGES (INCLUDING, BUT NOT LIMITED TO, PROCUREMENT OF SUBS
  28:C:\Users\Depes Crystalline\Desktop\school\Active_Bike_Lighting_System\Radar_Core\Libraries\XMCLib\inc\xmc_common.h ****  * SERVICES; LOSS OF USE, DATA, OR PROFITS; OR BUSINESS INTERRUPTION) HOWEVER CAUSED AND ON ANY THE
  29:C:\Users\Depes Crystalline\Desktop\school\Active_Bike_Lighting_System\Radar_Core\Libraries\XMCLib\inc\xmc_common.h ****  * WHETHER IN CONTRACT, STRICT LIABILITY,OR TORT (INCLUDING NEGLIGENCE OR OTHERWISE) ARISING IN ANY
  30:C:\Users\Depes Crystalline\Desktop\school\Active_Bike_Lighting_System\Radar_Core\Libraries\XMCLib\inc\xmc_common.h ****  * OF THIS SOFTWARE, EVEN IF ADVISED OF THE POSSIBILITY OF SUCH DAMAGE.                            
  31:C:\Users\Depes Crystalline\Desktop\school\Active_Bike_Lighting_System\Radar_Core\Libraries\XMCLib\inc\xmc_common.h ****  *                                                                              
  32:C:\Users\Depes Crystalline\Desktop\school\Active_Bike_Lighting_System\Radar_Core\Libraries\XMCLib\inc\xmc_common.h ****  * To improve the quality of the software, users are encouraged to share modifications, enhancement
  33:C:\Users\Depes Crystalline\Desktop\school\Active_Bike_Lighting_System\Radar_Core\Libraries\XMCLib\inc\xmc_common.h ****  * Infineon Technologies AG dave@infineon.com).                                                    
  34:C:\Users\Depes Crystalline\Desktop\school\Active_Bike_Lighting_System\Radar_Core\Libraries\XMCLib\inc\xmc_common.h ****  **************************************************************************************************
  35:C:\Users\Depes Crystalline\Desktop\school\Active_Bike_Lighting_System\Radar_Core\Libraries\XMCLib\inc\xmc_common.h ****  *
  36:C:\Users\Depes Crystalline\Desktop\school\Active_Bike_Lighting_System\Radar_Core\Libraries\XMCLib\inc\xmc_common.h ****  * Change History
  37:C:\Users\Depes Crystalline\Desktop\school\Active_Bike_Lighting_System\Radar_Core\Libraries\XMCLib\inc\xmc_common.h ****  * --------------
  38:C:\Users\Depes Crystalline\Desktop\school\Active_Bike_Lighting_System\Radar_Core\Libraries\XMCLib\inc\xmc_common.h ****  *
  39:C:\Users\Depes Crystalline\Desktop\school\Active_Bike_Lighting_System\Radar_Core\Libraries\XMCLib\inc\xmc_common.h ****  * 2015-06-20:
  40:C:\Users\Depes Crystalline\Desktop\school\Active_Bike_Lighting_System\Radar_Core\Libraries\XMCLib\inc\xmc_common.h ****  *     - Initial
  41:C:\Users\Depes Crystalline\Desktop\school\Active_Bike_Lighting_System\Radar_Core\Libraries\XMCLib\inc\xmc_common.h ****  *     - Brief section updated
  42:C:\Users\Depes Crystalline\Desktop\school\Active_Bike_Lighting_System\Radar_Core\Libraries\XMCLib\inc\xmc_common.h ****  *     - Added XMC_LIB_VERSION macro
  43:C:\Users\Depes Crystalline\Desktop\school\Active_Bike_Lighting_System\Radar_Core\Libraries\XMCLib\inc\xmc_common.h ****  *      
  44:C:\Users\Depes Crystalline\Desktop\school\Active_Bike_Lighting_System\Radar_Core\Libraries\XMCLib\inc\xmc_common.h ****  * @endcond 
  45:C:\Users\Depes Crystalline\Desktop\school\Active_Bike_Lighting_System\Radar_Core\Libraries\XMCLib\inc\xmc_common.h ****  *
  46:C:\Users\Depes Crystalline\Desktop\school\Active_Bike_Lighting_System\Radar_Core\Libraries\XMCLib\inc\xmc_common.h ****  */
  47:C:\Users\Depes Crystalline\Desktop\school\Active_Bike_Lighting_System\Radar_Core\Libraries\XMCLib\inc\xmc_common.h **** 
  48:C:\Users\Depes Crystalline\Desktop\school\Active_Bike_Lighting_System\Radar_Core\Libraries\XMCLib\inc\xmc_common.h **** #ifndef XMC_COMMON_H
  49:C:\Users\Depes Crystalline\Desktop\school\Active_Bike_Lighting_System\Radar_Core\Libraries\XMCLib\inc\xmc_common.h **** #define XMC_COMMON_H
  50:C:\Users\Depes Crystalline\Desktop\school\Active_Bike_Lighting_System\Radar_Core\Libraries\XMCLib\inc\xmc_common.h **** 
  51:C:\Users\Depes Crystalline\Desktop\school\Active_Bike_Lighting_System\Radar_Core\Libraries\XMCLib\inc\xmc_common.h **** #include <stddef.h>
  52:C:\Users\Depes Crystalline\Desktop\school\Active_Bike_Lighting_System\Radar_Core\Libraries\XMCLib\inc\xmc_common.h **** #include <stdint.h>
  53:C:\Users\Depes Crystalline\Desktop\school\Active_Bike_Lighting_System\Radar_Core\Libraries\XMCLib\inc\xmc_common.h **** #include <stdbool.h>
  54:C:\Users\Depes Crystalline\Desktop\school\Active_Bike_Lighting_System\Radar_Core\Libraries\XMCLib\inc\xmc_common.h **** #include <string.h>
  55:C:\Users\Depes Crystalline\Desktop\school\Active_Bike_Lighting_System\Radar_Core\Libraries\XMCLib\inc\xmc_common.h **** 
  56:C:\Users\Depes Crystalline\Desktop\school\Active_Bike_Lighting_System\Radar_Core\Libraries\XMCLib\inc\xmc_common.h **** #include "xmc_device.h"
  57:C:\Users\Depes Crystalline\Desktop\school\Active_Bike_Lighting_System\Radar_Core\Libraries\XMCLib\inc\xmc_common.h **** 
  58:C:\Users\Depes Crystalline\Desktop\school\Active_Bike_Lighting_System\Radar_Core\Libraries\XMCLib\inc\xmc_common.h **** /**
  59:C:\Users\Depes Crystalline\Desktop\school\Active_Bike_Lighting_System\Radar_Core\Libraries\XMCLib\inc\xmc_common.h ****  * @addtogroup XMClib XMC Peripheral Library
  60:C:\Users\Depes Crystalline\Desktop\school\Active_Bike_Lighting_System\Radar_Core\Libraries\XMCLib\inc\xmc_common.h ****  * @{
  61:C:\Users\Depes Crystalline\Desktop\school\Active_Bike_Lighting_System\Radar_Core\Libraries\XMCLib\inc\xmc_common.h ****  */
  62:C:\Users\Depes Crystalline\Desktop\school\Active_Bike_Lighting_System\Radar_Core\Libraries\XMCLib\inc\xmc_common.h **** 
  63:C:\Users\Depes Crystalline\Desktop\school\Active_Bike_Lighting_System\Radar_Core\Libraries\XMCLib\inc\xmc_common.h **** /**
  64:C:\Users\Depes Crystalline\Desktop\school\Active_Bike_Lighting_System\Radar_Core\Libraries\XMCLib\inc\xmc_common.h ****  * @addtogroup COMMON
  65:C:\Users\Depes Crystalline\Desktop\school\Active_Bike_Lighting_System\Radar_Core\Libraries\XMCLib\inc\xmc_common.h ****  * @brief Common APIs to all peripherals for XMC microcontroller family 
  66:C:\Users\Depes Crystalline\Desktop\school\Active_Bike_Lighting_System\Radar_Core\Libraries\XMCLib\inc\xmc_common.h ****  * @{
  67:C:\Users\Depes Crystalline\Desktop\school\Active_Bike_Lighting_System\Radar_Core\Libraries\XMCLib\inc\xmc_common.h ****  */
  68:C:\Users\Depes Crystalline\Desktop\school\Active_Bike_Lighting_System\Radar_Core\Libraries\XMCLib\inc\xmc_common.h **** 
  69:C:\Users\Depes Crystalline\Desktop\school\Active_Bike_Lighting_System\Radar_Core\Libraries\XMCLib\inc\xmc_common.h **** /**************************************************************************************************
  70:C:\Users\Depes Crystalline\Desktop\school\Active_Bike_Lighting_System\Radar_Core\Libraries\XMCLib\inc\xmc_common.h ****  * MACROS
  71:C:\Users\Depes Crystalline\Desktop\school\Active_Bike_Lighting_System\Radar_Core\Libraries\XMCLib\inc\xmc_common.h ****  **************************************************************************************************
  72:C:\Users\Depes Crystalline\Desktop\school\Active_Bike_Lighting_System\Radar_Core\Libraries\XMCLib\inc\xmc_common.h **** #define XMC_LIB_MAJOR_VERSION	(2U)
  73:C:\Users\Depes Crystalline\Desktop\school\Active_Bike_Lighting_System\Radar_Core\Libraries\XMCLib\inc\xmc_common.h **** #define XMC_LIB_MINOR_VERSION	(0U)
  74:C:\Users\Depes Crystalline\Desktop\school\Active_Bike_Lighting_System\Radar_Core\Libraries\XMCLib\inc\xmc_common.h **** #define XMC_LIB_PATCH_VERSION	(0U)
  75:C:\Users\Depes Crystalline\Desktop\school\Active_Bike_Lighting_System\Radar_Core\Libraries\XMCLib\inc\xmc_common.h ****  
  76:C:\Users\Depes Crystalline\Desktop\school\Active_Bike_Lighting_System\Radar_Core\Libraries\XMCLib\inc\xmc_common.h **** #define XMC_LIB_VERSION         ((XMC_LIB_MAJOR_VERSION << 16U) + (XMC_LIB_MINOR_VERSION << 8U) + X
  77:C:\Users\Depes Crystalline\Desktop\school\Active_Bike_Lighting_System\Radar_Core\Libraries\XMCLib\inc\xmc_common.h **** 
  78:C:\Users\Depes Crystalline\Desktop\school\Active_Bike_Lighting_System\Radar_Core\Libraries\XMCLib\inc\xmc_common.h **** /* Define WEAK attribute */
  79:C:\Users\Depes Crystalline\Desktop\school\Active_Bike_Lighting_System\Radar_Core\Libraries\XMCLib\inc\xmc_common.h **** #if !defined(__WEAK)
  80:C:\Users\Depes Crystalline\Desktop\school\Active_Bike_Lighting_System\Radar_Core\Libraries\XMCLib\inc\xmc_common.h **** #if defined ( __CC_ARM )
  81:C:\Users\Depes Crystalline\Desktop\school\Active_Bike_Lighting_System\Radar_Core\Libraries\XMCLib\inc\xmc_common.h **** #define __WEAK __attribute__ ((weak))
  82:C:\Users\Depes Crystalline\Desktop\school\Active_Bike_Lighting_System\Radar_Core\Libraries\XMCLib\inc\xmc_common.h **** #elif defined ( __ICCARM__ )
  83:C:\Users\Depes Crystalline\Desktop\school\Active_Bike_Lighting_System\Radar_Core\Libraries\XMCLib\inc\xmc_common.h **** #define __WEAK __weak
  84:C:\Users\Depes Crystalline\Desktop\school\Active_Bike_Lighting_System\Radar_Core\Libraries\XMCLib\inc\xmc_common.h **** #elif defined ( __GNUC__ )
  85:C:\Users\Depes Crystalline\Desktop\school\Active_Bike_Lighting_System\Radar_Core\Libraries\XMCLib\inc\xmc_common.h **** #define __WEAK __attribute__ ((weak))
  86:C:\Users\Depes Crystalline\Desktop\school\Active_Bike_Lighting_System\Radar_Core\Libraries\XMCLib\inc\xmc_common.h **** #elif defined ( __TASKING__ )
  87:C:\Users\Depes Crystalline\Desktop\school\Active_Bike_Lighting_System\Radar_Core\Libraries\XMCLib\inc\xmc_common.h **** #define __WEAK __attribute__ ((weak))
  88:C:\Users\Depes Crystalline\Desktop\school\Active_Bike_Lighting_System\Radar_Core\Libraries\XMCLib\inc\xmc_common.h **** #endif
  89:C:\Users\Depes Crystalline\Desktop\school\Active_Bike_Lighting_System\Radar_Core\Libraries\XMCLib\inc\xmc_common.h **** #endif
  90:C:\Users\Depes Crystalline\Desktop\school\Active_Bike_Lighting_System\Radar_Core\Libraries\XMCLib\inc\xmc_common.h **** 
  91:C:\Users\Depes Crystalline\Desktop\school\Active_Bike_Lighting_System\Radar_Core\Libraries\XMCLib\inc\xmc_common.h **** #ifdef XMC_ASSERT_ENABLE
  92:C:\Users\Depes Crystalline\Desktop\school\Active_Bike_Lighting_System\Radar_Core\Libraries\XMCLib\inc\xmc_common.h ****  #define XMC_ASSERT(msg, exp) { if(!(exp)) {XMC_AssertHandler(msg, __FILE__, __LINE__);} }
  93:C:\Users\Depes Crystalline\Desktop\school\Active_Bike_Lighting_System\Radar_Core\Libraries\XMCLib\inc\xmc_common.h **** #else
  94:C:\Users\Depes Crystalline\Desktop\school\Active_Bike_Lighting_System\Radar_Core\Libraries\XMCLib\inc\xmc_common.h ****  #define XMC_ASSERT(msg, exp) { ; }
  95:C:\Users\Depes Crystalline\Desktop\school\Active_Bike_Lighting_System\Radar_Core\Libraries\XMCLib\inc\xmc_common.h **** #endif
  96:C:\Users\Depes Crystalline\Desktop\school\Active_Bike_Lighting_System\Radar_Core\Libraries\XMCLib\inc\xmc_common.h **** 
  97:C:\Users\Depes Crystalline\Desktop\school\Active_Bike_Lighting_System\Radar_Core\Libraries\XMCLib\inc\xmc_common.h **** #ifdef XMC_DEBUG_ENABLE
  98:C:\Users\Depes Crystalline\Desktop\school\Active_Bike_Lighting_System\Radar_Core\Libraries\XMCLib\inc\xmc_common.h ****  #include <stdio.h>
  99:C:\Users\Depes Crystalline\Desktop\school\Active_Bike_Lighting_System\Radar_Core\Libraries\XMCLib\inc\xmc_common.h ****  #define XMC_DEBUG(...) { printf(__VA_ARGS__); }
 100:C:\Users\Depes Crystalline\Desktop\school\Active_Bike_Lighting_System\Radar_Core\Libraries\XMCLib\inc\xmc_common.h **** #else
 101:C:\Users\Depes Crystalline\Desktop\school\Active_Bike_Lighting_System\Radar_Core\Libraries\XMCLib\inc\xmc_common.h ****  #define XMC_DEBUG(...) { ; }
 102:C:\Users\Depes Crystalline\Desktop\school\Active_Bike_Lighting_System\Radar_Core\Libraries\XMCLib\inc\xmc_common.h **** #endif
 103:C:\Users\Depes Crystalline\Desktop\school\Active_Bike_Lighting_System\Radar_Core\Libraries\XMCLib\inc\xmc_common.h **** 
 104:C:\Users\Depes Crystalline\Desktop\school\Active_Bike_Lighting_System\Radar_Core\Libraries\XMCLib\inc\xmc_common.h **** #define XMC_UNUSED_ARG(x) (void)x
 105:C:\Users\Depes Crystalline\Desktop\school\Active_Bike_Lighting_System\Radar_Core\Libraries\XMCLib\inc\xmc_common.h **** 
 106:C:\Users\Depes Crystalline\Desktop\school\Active_Bike_Lighting_System\Radar_Core\Libraries\XMCLib\inc\xmc_common.h **** #define XMC_STRUCT_INIT(m) memset(&m, 0, sizeof(m))
 107:C:\Users\Depes Crystalline\Desktop\school\Active_Bike_Lighting_System\Radar_Core\Libraries\XMCLib\inc\xmc_common.h **** 
 108:C:\Users\Depes Crystalline\Desktop\school\Active_Bike_Lighting_System\Radar_Core\Libraries\XMCLib\inc\xmc_common.h **** #define XMC_PRIOARRAY_DEF(name, size) \
 109:C:\Users\Depes Crystalline\Desktop\school\Active_Bike_Lighting_System\Radar_Core\Libraries\XMCLib\inc\xmc_common.h **** XMC_PRIOARRAY_ITEM_t prioarray_m_##name[size + 2]; \
 110:C:\Users\Depes Crystalline\Desktop\school\Active_Bike_Lighting_System\Radar_Core\Libraries\XMCLib\inc\xmc_common.h **** XMC_PRIOARRAY_t prioarray_def_##name = {(size), (prioarray_m_##name)};
 111:C:\Users\Depes Crystalline\Desktop\school\Active_Bike_Lighting_System\Radar_Core\Libraries\XMCLib\inc\xmc_common.h **** 
 112:C:\Users\Depes Crystalline\Desktop\school\Active_Bike_Lighting_System\Radar_Core\Libraries\XMCLib\inc\xmc_common.h **** #define XMC_PRIOARRAY(name) \
 113:C:\Users\Depes Crystalline\Desktop\school\Active_Bike_Lighting_System\Radar_Core\Libraries\XMCLib\inc\xmc_common.h **** &prioarray_def_##name
 114:C:\Users\Depes Crystalline\Desktop\school\Active_Bike_Lighting_System\Radar_Core\Libraries\XMCLib\inc\xmc_common.h **** 
 115:C:\Users\Depes Crystalline\Desktop\school\Active_Bike_Lighting_System\Radar_Core\Libraries\XMCLib\inc\xmc_common.h **** /**************************************************************************************************
 116:C:\Users\Depes Crystalline\Desktop\school\Active_Bike_Lighting_System\Radar_Core\Libraries\XMCLib\inc\xmc_common.h ****  * DATA STRUCTURES
 117:C:\Users\Depes Crystalline\Desktop\school\Active_Bike_Lighting_System\Radar_Core\Libraries\XMCLib\inc\xmc_common.h ****  **************************************************************************************************
 118:C:\Users\Depes Crystalline\Desktop\school\Active_Bike_Lighting_System\Radar_Core\Libraries\XMCLib\inc\xmc_common.h **** /*
 119:C:\Users\Depes Crystalline\Desktop\school\Active_Bike_Lighting_System\Radar_Core\Libraries\XMCLib\inc\xmc_common.h ****  *
 120:C:\Users\Depes Crystalline\Desktop\school\Active_Bike_Lighting_System\Radar_Core\Libraries\XMCLib\inc\xmc_common.h ****  */
 121:C:\Users\Depes Crystalline\Desktop\school\Active_Bike_Lighting_System\Radar_Core\Libraries\XMCLib\inc\xmc_common.h **** typedef struct XMC_DRIVER_VERSION 
 122:C:\Users\Depes Crystalline\Desktop\school\Active_Bike_Lighting_System\Radar_Core\Libraries\XMCLib\inc\xmc_common.h **** {
 123:C:\Users\Depes Crystalline\Desktop\school\Active_Bike_Lighting_System\Radar_Core\Libraries\XMCLib\inc\xmc_common.h ****   uint8_t major;
 124:C:\Users\Depes Crystalline\Desktop\school\Active_Bike_Lighting_System\Radar_Core\Libraries\XMCLib\inc\xmc_common.h ****   uint8_t minor;
 125:C:\Users\Depes Crystalline\Desktop\school\Active_Bike_Lighting_System\Radar_Core\Libraries\XMCLib\inc\xmc_common.h ****   uint8_t patch;
 126:C:\Users\Depes Crystalline\Desktop\school\Active_Bike_Lighting_System\Radar_Core\Libraries\XMCLib\inc\xmc_common.h **** } XMC_DRIVER_VERSION_t;
 127:C:\Users\Depes Crystalline\Desktop\school\Active_Bike_Lighting_System\Radar_Core\Libraries\XMCLib\inc\xmc_common.h **** 
 128:C:\Users\Depes Crystalline\Desktop\school\Active_Bike_Lighting_System\Radar_Core\Libraries\XMCLib\inc\xmc_common.h **** /*
 129:C:\Users\Depes Crystalline\Desktop\school\Active_Bike_Lighting_System\Radar_Core\Libraries\XMCLib\inc\xmc_common.h ****  *
 130:C:\Users\Depes Crystalline\Desktop\school\Active_Bike_Lighting_System\Radar_Core\Libraries\XMCLib\inc\xmc_common.h ****  */
 131:C:\Users\Depes Crystalline\Desktop\school\Active_Bike_Lighting_System\Radar_Core\Libraries\XMCLib\inc\xmc_common.h **** typedef void *XMC_LIST_t;
 132:C:\Users\Depes Crystalline\Desktop\school\Active_Bike_Lighting_System\Radar_Core\Libraries\XMCLib\inc\xmc_common.h **** 
 133:C:\Users\Depes Crystalline\Desktop\school\Active_Bike_Lighting_System\Radar_Core\Libraries\XMCLib\inc\xmc_common.h **** /*
 134:C:\Users\Depes Crystalline\Desktop\school\Active_Bike_Lighting_System\Radar_Core\Libraries\XMCLib\inc\xmc_common.h ****  *
 135:C:\Users\Depes Crystalline\Desktop\school\Active_Bike_Lighting_System\Radar_Core\Libraries\XMCLib\inc\xmc_common.h ****  */
 136:C:\Users\Depes Crystalline\Desktop\school\Active_Bike_Lighting_System\Radar_Core\Libraries\XMCLib\inc\xmc_common.h **** typedef struct XMC_PRIOARRAY_ITEM
 137:C:\Users\Depes Crystalline\Desktop\school\Active_Bike_Lighting_System\Radar_Core\Libraries\XMCLib\inc\xmc_common.h **** {
 138:C:\Users\Depes Crystalline\Desktop\school\Active_Bike_Lighting_System\Radar_Core\Libraries\XMCLib\inc\xmc_common.h ****   int32_t priority;
 139:C:\Users\Depes Crystalline\Desktop\school\Active_Bike_Lighting_System\Radar_Core\Libraries\XMCLib\inc\xmc_common.h ****   int32_t previous;
 140:C:\Users\Depes Crystalline\Desktop\school\Active_Bike_Lighting_System\Radar_Core\Libraries\XMCLib\inc\xmc_common.h ****   int32_t next;
 141:C:\Users\Depes Crystalline\Desktop\school\Active_Bike_Lighting_System\Radar_Core\Libraries\XMCLib\inc\xmc_common.h **** } XMC_PRIOARRAY_ITEM_t;
 142:C:\Users\Depes Crystalline\Desktop\school\Active_Bike_Lighting_System\Radar_Core\Libraries\XMCLib\inc\xmc_common.h **** 
 143:C:\Users\Depes Crystalline\Desktop\school\Active_Bike_Lighting_System\Radar_Core\Libraries\XMCLib\inc\xmc_common.h **** /*
 144:C:\Users\Depes Crystalline\Desktop\school\Active_Bike_Lighting_System\Radar_Core\Libraries\XMCLib\inc\xmc_common.h ****  *
 145:C:\Users\Depes Crystalline\Desktop\school\Active_Bike_Lighting_System\Radar_Core\Libraries\XMCLib\inc\xmc_common.h ****  */
 146:C:\Users\Depes Crystalline\Desktop\school\Active_Bike_Lighting_System\Radar_Core\Libraries\XMCLib\inc\xmc_common.h **** typedef struct XMC_PRIOARRAY
 147:C:\Users\Depes Crystalline\Desktop\school\Active_Bike_Lighting_System\Radar_Core\Libraries\XMCLib\inc\xmc_common.h **** {
 148:C:\Users\Depes Crystalline\Desktop\school\Active_Bike_Lighting_System\Radar_Core\Libraries\XMCLib\inc\xmc_common.h ****   uint32_t size;
 149:C:\Users\Depes Crystalline\Desktop\school\Active_Bike_Lighting_System\Radar_Core\Libraries\XMCLib\inc\xmc_common.h ****   XMC_PRIOARRAY_ITEM_t *items;
 150:C:\Users\Depes Crystalline\Desktop\school\Active_Bike_Lighting_System\Radar_Core\Libraries\XMCLib\inc\xmc_common.h **** } XMC_PRIOARRAY_t;
 151:C:\Users\Depes Crystalline\Desktop\school\Active_Bike_Lighting_System\Radar_Core\Libraries\XMCLib\inc\xmc_common.h **** 
 152:C:\Users\Depes Crystalline\Desktop\school\Active_Bike_Lighting_System\Radar_Core\Libraries\XMCLib\inc\xmc_common.h **** /**************************************************************************************************
 153:C:\Users\Depes Crystalline\Desktop\school\Active_Bike_Lighting_System\Radar_Core\Libraries\XMCLib\inc\xmc_common.h ****  * API PROTOTYPES
 154:C:\Users\Depes Crystalline\Desktop\school\Active_Bike_Lighting_System\Radar_Core\Libraries\XMCLib\inc\xmc_common.h ****  **************************************************************************************************
 155:C:\Users\Depes Crystalline\Desktop\school\Active_Bike_Lighting_System\Radar_Core\Libraries\XMCLib\inc\xmc_common.h **** 
 156:C:\Users\Depes Crystalline\Desktop\school\Active_Bike_Lighting_System\Radar_Core\Libraries\XMCLib\inc\xmc_common.h **** #ifdef __cplusplus
 157:C:\Users\Depes Crystalline\Desktop\school\Active_Bike_Lighting_System\Radar_Core\Libraries\XMCLib\inc\xmc_common.h **** extern "C" {
 158:C:\Users\Depes Crystalline\Desktop\school\Active_Bike_Lighting_System\Radar_Core\Libraries\XMCLib\inc\xmc_common.h **** #endif
 159:C:\Users\Depes Crystalline\Desktop\school\Active_Bike_Lighting_System\Radar_Core\Libraries\XMCLib\inc\xmc_common.h **** 
 160:C:\Users\Depes Crystalline\Desktop\school\Active_Bike_Lighting_System\Radar_Core\Libraries\XMCLib\inc\xmc_common.h **** /*
 161:C:\Users\Depes Crystalline\Desktop\school\Active_Bike_Lighting_System\Radar_Core\Libraries\XMCLib\inc\xmc_common.h ****  *
 162:C:\Users\Depes Crystalline\Desktop\school\Active_Bike_Lighting_System\Radar_Core\Libraries\XMCLib\inc\xmc_common.h ****  */
 163:C:\Users\Depes Crystalline\Desktop\school\Active_Bike_Lighting_System\Radar_Core\Libraries\XMCLib\inc\xmc_common.h **** void XMC_AssertHandler(const char *const msg, const char *const file, uint32_t line);
 164:C:\Users\Depes Crystalline\Desktop\school\Active_Bike_Lighting_System\Radar_Core\Libraries\XMCLib\inc\xmc_common.h **** 
 165:C:\Users\Depes Crystalline\Desktop\school\Active_Bike_Lighting_System\Radar_Core\Libraries\XMCLib\inc\xmc_common.h **** /*
 166:C:\Users\Depes Crystalline\Desktop\school\Active_Bike_Lighting_System\Radar_Core\Libraries\XMCLib\inc\xmc_common.h ****  *
 167:C:\Users\Depes Crystalline\Desktop\school\Active_Bike_Lighting_System\Radar_Core\Libraries\XMCLib\inc\xmc_common.h ****  */
 168:C:\Users\Depes Crystalline\Desktop\school\Active_Bike_Lighting_System\Radar_Core\Libraries\XMCLib\inc\xmc_common.h **** void XMC_LIST_Init(XMC_LIST_t *list);
 169:C:\Users\Depes Crystalline\Desktop\school\Active_Bike_Lighting_System\Radar_Core\Libraries\XMCLib\inc\xmc_common.h **** 
 170:C:\Users\Depes Crystalline\Desktop\school\Active_Bike_Lighting_System\Radar_Core\Libraries\XMCLib\inc\xmc_common.h **** /*
 171:C:\Users\Depes Crystalline\Desktop\school\Active_Bike_Lighting_System\Radar_Core\Libraries\XMCLib\inc\xmc_common.h ****  *
 172:C:\Users\Depes Crystalline\Desktop\school\Active_Bike_Lighting_System\Radar_Core\Libraries\XMCLib\inc\xmc_common.h ****  */
 173:C:\Users\Depes Crystalline\Desktop\school\Active_Bike_Lighting_System\Radar_Core\Libraries\XMCLib\inc\xmc_common.h **** void XMC_LIST_Add(XMC_LIST_t *list, void *const item);
 174:C:\Users\Depes Crystalline\Desktop\school\Active_Bike_Lighting_System\Radar_Core\Libraries\XMCLib\inc\xmc_common.h **** 
 175:C:\Users\Depes Crystalline\Desktop\school\Active_Bike_Lighting_System\Radar_Core\Libraries\XMCLib\inc\xmc_common.h **** /*
 176:C:\Users\Depes Crystalline\Desktop\school\Active_Bike_Lighting_System\Radar_Core\Libraries\XMCLib\inc\xmc_common.h ****  *
 177:C:\Users\Depes Crystalline\Desktop\school\Active_Bike_Lighting_System\Radar_Core\Libraries\XMCLib\inc\xmc_common.h ****  */
 178:C:\Users\Depes Crystalline\Desktop\school\Active_Bike_Lighting_System\Radar_Core\Libraries\XMCLib\inc\xmc_common.h **** void XMC_LIST_Remove(XMC_LIST_t *list, void *const item);
 179:C:\Users\Depes Crystalline\Desktop\school\Active_Bike_Lighting_System\Radar_Core\Libraries\XMCLib\inc\xmc_common.h **** 
 180:C:\Users\Depes Crystalline\Desktop\school\Active_Bike_Lighting_System\Radar_Core\Libraries\XMCLib\inc\xmc_common.h **** /*
 181:C:\Users\Depes Crystalline\Desktop\school\Active_Bike_Lighting_System\Radar_Core\Libraries\XMCLib\inc\xmc_common.h ****  *
 182:C:\Users\Depes Crystalline\Desktop\school\Active_Bike_Lighting_System\Radar_Core\Libraries\XMCLib\inc\xmc_common.h ****  */
 183:C:\Users\Depes Crystalline\Desktop\school\Active_Bike_Lighting_System\Radar_Core\Libraries\XMCLib\inc\xmc_common.h **** uint32_t XMC_LIST_GetLength(XMC_LIST_t *list);
 184:C:\Users\Depes Crystalline\Desktop\school\Active_Bike_Lighting_System\Radar_Core\Libraries\XMCLib\inc\xmc_common.h **** 
 185:C:\Users\Depes Crystalline\Desktop\school\Active_Bike_Lighting_System\Radar_Core\Libraries\XMCLib\inc\xmc_common.h **** /*
 186:C:\Users\Depes Crystalline\Desktop\school\Active_Bike_Lighting_System\Radar_Core\Libraries\XMCLib\inc\xmc_common.h ****  *
 187:C:\Users\Depes Crystalline\Desktop\school\Active_Bike_Lighting_System\Radar_Core\Libraries\XMCLib\inc\xmc_common.h ****  */
 188:C:\Users\Depes Crystalline\Desktop\school\Active_Bike_Lighting_System\Radar_Core\Libraries\XMCLib\inc\xmc_common.h **** void *XMC_LIST_GetHead(XMC_LIST_t *list);
 189:C:\Users\Depes Crystalline\Desktop\school\Active_Bike_Lighting_System\Radar_Core\Libraries\XMCLib\inc\xmc_common.h **** 
 190:C:\Users\Depes Crystalline\Desktop\school\Active_Bike_Lighting_System\Radar_Core\Libraries\XMCLib\inc\xmc_common.h **** /*
 191:C:\Users\Depes Crystalline\Desktop\school\Active_Bike_Lighting_System\Radar_Core\Libraries\XMCLib\inc\xmc_common.h ****  *
 192:C:\Users\Depes Crystalline\Desktop\school\Active_Bike_Lighting_System\Radar_Core\Libraries\XMCLib\inc\xmc_common.h ****  */
 193:C:\Users\Depes Crystalline\Desktop\school\Active_Bike_Lighting_System\Radar_Core\Libraries\XMCLib\inc\xmc_common.h **** void *XMC_LIST_GetTail(XMC_LIST_t *list);
 194:C:\Users\Depes Crystalline\Desktop\school\Active_Bike_Lighting_System\Radar_Core\Libraries\XMCLib\inc\xmc_common.h **** 
 195:C:\Users\Depes Crystalline\Desktop\school\Active_Bike_Lighting_System\Radar_Core\Libraries\XMCLib\inc\xmc_common.h **** /*
 196:C:\Users\Depes Crystalline\Desktop\school\Active_Bike_Lighting_System\Radar_Core\Libraries\XMCLib\inc\xmc_common.h ****  *
 197:C:\Users\Depes Crystalline\Desktop\school\Active_Bike_Lighting_System\Radar_Core\Libraries\XMCLib\inc\xmc_common.h ****  */
 198:C:\Users\Depes Crystalline\Desktop\school\Active_Bike_Lighting_System\Radar_Core\Libraries\XMCLib\inc\xmc_common.h **** void XMC_LIST_Insert(XMC_LIST_t *list, void *prev_item, void *new_item);
 199:C:\Users\Depes Crystalline\Desktop\school\Active_Bike_Lighting_System\Radar_Core\Libraries\XMCLib\inc\xmc_common.h **** 
 200:C:\Users\Depes Crystalline\Desktop\school\Active_Bike_Lighting_System\Radar_Core\Libraries\XMCLib\inc\xmc_common.h **** /*
 201:C:\Users\Depes Crystalline\Desktop\school\Active_Bike_Lighting_System\Radar_Core\Libraries\XMCLib\inc\xmc_common.h ****  *
 202:C:\Users\Depes Crystalline\Desktop\school\Active_Bike_Lighting_System\Radar_Core\Libraries\XMCLib\inc\xmc_common.h ****  */
 203:C:\Users\Depes Crystalline\Desktop\school\Active_Bike_Lighting_System\Radar_Core\Libraries\XMCLib\inc\xmc_common.h **** void XMC_PRIOARRAY_Init(XMC_PRIOARRAY_t *prioarray);
 204:C:\Users\Depes Crystalline\Desktop\school\Active_Bike_Lighting_System\Radar_Core\Libraries\XMCLib\inc\xmc_common.h **** 
 205:C:\Users\Depes Crystalline\Desktop\school\Active_Bike_Lighting_System\Radar_Core\Libraries\XMCLib\inc\xmc_common.h **** /*
 206:C:\Users\Depes Crystalline\Desktop\school\Active_Bike_Lighting_System\Radar_Core\Libraries\XMCLib\inc\xmc_common.h ****  *
 207:C:\Users\Depes Crystalline\Desktop\school\Active_Bike_Lighting_System\Radar_Core\Libraries\XMCLib\inc\xmc_common.h ****  */
 208:C:\Users\Depes Crystalline\Desktop\school\Active_Bike_Lighting_System\Radar_Core\Libraries\XMCLib\inc\xmc_common.h **** void XMC_PRIOARRAY_Add(XMC_PRIOARRAY_t *prioarray, int32_t item, int32_t priority);
 209:C:\Users\Depes Crystalline\Desktop\school\Active_Bike_Lighting_System\Radar_Core\Libraries\XMCLib\inc\xmc_common.h **** 
 210:C:\Users\Depes Crystalline\Desktop\school\Active_Bike_Lighting_System\Radar_Core\Libraries\XMCLib\inc\xmc_common.h **** /*
 211:C:\Users\Depes Crystalline\Desktop\school\Active_Bike_Lighting_System\Radar_Core\Libraries\XMCLib\inc\xmc_common.h ****  *
 212:C:\Users\Depes Crystalline\Desktop\school\Active_Bike_Lighting_System\Radar_Core\Libraries\XMCLib\inc\xmc_common.h ****  */
 213:C:\Users\Depes Crystalline\Desktop\school\Active_Bike_Lighting_System\Radar_Core\Libraries\XMCLib\inc\xmc_common.h **** void XMC_PRIOARRAY_Remove(XMC_PRIOARRAY_t *prioarray, int32_t item);
 214:C:\Users\Depes Crystalline\Desktop\school\Active_Bike_Lighting_System\Radar_Core\Libraries\XMCLib\inc\xmc_common.h **** 
 215:C:\Users\Depes Crystalline\Desktop\school\Active_Bike_Lighting_System\Radar_Core\Libraries\XMCLib\inc\xmc_common.h **** /*
 216:C:\Users\Depes Crystalline\Desktop\school\Active_Bike_Lighting_System\Radar_Core\Libraries\XMCLib\inc\xmc_common.h ****  *
 217:C:\Users\Depes Crystalline\Desktop\school\Active_Bike_Lighting_System\Radar_Core\Libraries\XMCLib\inc\xmc_common.h ****  */
 218:C:\Users\Depes Crystalline\Desktop\school\Active_Bike_Lighting_System\Radar_Core\Libraries\XMCLib\inc\xmc_common.h **** __STATIC_INLINE int32_t XMC_PRIOARRAY_GetHead(XMC_PRIOARRAY_t *prioarray)
 219:C:\Users\Depes Crystalline\Desktop\school\Active_Bike_Lighting_System\Radar_Core\Libraries\XMCLib\inc\xmc_common.h **** {
  26              	 .loc 1 219 0
  27              	 .cfi_startproc
  28              	 
  29              	 
  30              	 
  31 0000 80B4     	 push {r7}
  32              	.LCFI0:
  33              	 .cfi_def_cfa_offset 4
  34              	 .cfi_offset 7,-4
  35 0002 83B0     	 sub sp,sp,#12
  36              	.LCFI1:
  37              	 .cfi_def_cfa_offset 16
  38 0004 00AF     	 add r7,sp,#0
  39              	.LCFI2:
  40              	 .cfi_def_cfa_register 7
  41 0006 7860     	 str r0,[r7,#4]
 220:C:\Users\Depes Crystalline\Desktop\school\Active_Bike_Lighting_System\Radar_Core\Libraries\XMCLib\inc\xmc_common.h ****   XMC_ASSERT("XMC_PRIOARRAY_Init: NULL pointer", prioarray != NULL);
 221:C:\Users\Depes Crystalline\Desktop\school\Active_Bike_Lighting_System\Radar_Core\Libraries\XMCLib\inc\xmc_common.h ****   return prioarray->items[prioarray->size].next;
  42              	 .loc 1 221 0
  43 0008 7B68     	 ldr r3,[r7,#4]
  44 000a 5968     	 ldr r1,[r3,#4]
  45 000c 7B68     	 ldr r3,[r7,#4]
  46 000e 1A68     	 ldr r2,[r3]
  47 0010 1346     	 mov r3,r2
  48 0012 5B00     	 lsls r3,r3,#1
  49 0014 1344     	 add r3,r3,r2
  50 0016 9B00     	 lsls r3,r3,#2
  51 0018 0B44     	 add r3,r3,r1
  52 001a 9B68     	 ldr r3,[r3,#8]
 222:C:\Users\Depes Crystalline\Desktop\school\Active_Bike_Lighting_System\Radar_Core\Libraries\XMCLib\inc\xmc_common.h **** }
  53              	 .loc 1 222 0
  54 001c 1846     	 mov r0,r3
  55 001e 0C37     	 adds r7,r7,#12
  56              	.LCFI3:
  57              	 .cfi_def_cfa_offset 4
  58 0020 BD46     	 mov sp,r7
  59              	.LCFI4:
  60              	 .cfi_def_cfa_register 13
  61              	 
  62 0022 5DF8047B 	 ldr r7,[sp],#4
  63              	.LCFI5:
  64              	 .cfi_restore 7
  65              	 .cfi_def_cfa_offset 0
  66 0026 7047     	 bx lr
  67              	 .cfi_endproc
  68              	.LFE123:
  70              	 .section .text.XMC_PRIOARRAY_GetItemPriority,"ax",%progbits
  71              	 .align 2
  72              	 .thumb
  73              	 .thumb_func
  75              	XMC_PRIOARRAY_GetItemPriority:
  76              	.LFB125:
 223:C:\Users\Depes Crystalline\Desktop\school\Active_Bike_Lighting_System\Radar_Core\Libraries\XMCLib\inc\xmc_common.h **** 
 224:C:\Users\Depes Crystalline\Desktop\school\Active_Bike_Lighting_System\Radar_Core\Libraries\XMCLib\inc\xmc_common.h **** /*
 225:C:\Users\Depes Crystalline\Desktop\school\Active_Bike_Lighting_System\Radar_Core\Libraries\XMCLib\inc\xmc_common.h ****  *
 226:C:\Users\Depes Crystalline\Desktop\school\Active_Bike_Lighting_System\Radar_Core\Libraries\XMCLib\inc\xmc_common.h ****  */
 227:C:\Users\Depes Crystalline\Desktop\school\Active_Bike_Lighting_System\Radar_Core\Libraries\XMCLib\inc\xmc_common.h **** __STATIC_INLINE int32_t XMC_PRIOARRAY_GetTail(XMC_PRIOARRAY_t *prioarray)
 228:C:\Users\Depes Crystalline\Desktop\school\Active_Bike_Lighting_System\Radar_Core\Libraries\XMCLib\inc\xmc_common.h **** {
 229:C:\Users\Depes Crystalline\Desktop\school\Active_Bike_Lighting_System\Radar_Core\Libraries\XMCLib\inc\xmc_common.h ****   XMC_ASSERT("XMC_PRIOARRAY_Init: NULL pointer", prioarray != NULL);
 230:C:\Users\Depes Crystalline\Desktop\school\Active_Bike_Lighting_System\Radar_Core\Libraries\XMCLib\inc\xmc_common.h ****   return prioarray->items[prioarray->size + 1].previous;
 231:C:\Users\Depes Crystalline\Desktop\school\Active_Bike_Lighting_System\Radar_Core\Libraries\XMCLib\inc\xmc_common.h **** }
 232:C:\Users\Depes Crystalline\Desktop\school\Active_Bike_Lighting_System\Radar_Core\Libraries\XMCLib\inc\xmc_common.h **** 
 233:C:\Users\Depes Crystalline\Desktop\school\Active_Bike_Lighting_System\Radar_Core\Libraries\XMCLib\inc\xmc_common.h **** /*
 234:C:\Users\Depes Crystalline\Desktop\school\Active_Bike_Lighting_System\Radar_Core\Libraries\XMCLib\inc\xmc_common.h ****  *
 235:C:\Users\Depes Crystalline\Desktop\school\Active_Bike_Lighting_System\Radar_Core\Libraries\XMCLib\inc\xmc_common.h ****  */
 236:C:\Users\Depes Crystalline\Desktop\school\Active_Bike_Lighting_System\Radar_Core\Libraries\XMCLib\inc\xmc_common.h **** __STATIC_INLINE int32_t XMC_PRIOARRAY_GetItemPriority(XMC_PRIOARRAY_t *prioarray, int32_t item)
 237:C:\Users\Depes Crystalline\Desktop\school\Active_Bike_Lighting_System\Radar_Core\Libraries\XMCLib\inc\xmc_common.h **** {
  77              	 .loc 1 237 0
  78              	 .cfi_startproc
  79              	 
  80              	 
  81              	 
  82 0000 80B4     	 push {r7}
  83              	.LCFI6:
  84              	 .cfi_def_cfa_offset 4
  85              	 .cfi_offset 7,-4
  86 0002 83B0     	 sub sp,sp,#12
  87              	.LCFI7:
  88              	 .cfi_def_cfa_offset 16
  89 0004 00AF     	 add r7,sp,#0
  90              	.LCFI8:
  91              	 .cfi_def_cfa_register 7
  92 0006 7860     	 str r0,[r7,#4]
  93 0008 3960     	 str r1,[r7]
 238:C:\Users\Depes Crystalline\Desktop\school\Active_Bike_Lighting_System\Radar_Core\Libraries\XMCLib\inc\xmc_common.h ****   XMC_ASSERT("XMC_PRIOARRAY_GetItemPriority: item out of range", (item >= 0) && (item < prioarray->
 239:C:\Users\Depes Crystalline\Desktop\school\Active_Bike_Lighting_System\Radar_Core\Libraries\XMCLib\inc\xmc_common.h ****   return prioarray->items[item].priority;
  94              	 .loc 1 239 0
  95 000a 7B68     	 ldr r3,[r7,#4]
  96 000c 5968     	 ldr r1,[r3,#4]
  97 000e 3A68     	 ldr r2,[r7]
  98 0010 1346     	 mov r3,r2
  99 0012 5B00     	 lsls r3,r3,#1
 100 0014 1344     	 add r3,r3,r2
 101 0016 9B00     	 lsls r3,r3,#2
 102 0018 0B44     	 add r3,r3,r1
 103 001a 1B68     	 ldr r3,[r3]
 240:C:\Users\Depes Crystalline\Desktop\school\Active_Bike_Lighting_System\Radar_Core\Libraries\XMCLib\inc\xmc_common.h **** }
 104              	 .loc 1 240 0
 105 001c 1846     	 mov r0,r3
 106 001e 0C37     	 adds r7,r7,#12
 107              	.LCFI9:
 108              	 .cfi_def_cfa_offset 4
 109 0020 BD46     	 mov sp,r7
 110              	.LCFI10:
 111              	 .cfi_def_cfa_register 13
 112              	 
 113 0022 5DF8047B 	 ldr r7,[sp],#4
 114              	.LCFI11:
 115              	 .cfi_restore 7
 116              	 .cfi_def_cfa_offset 0
 117 0026 7047     	 bx lr
 118              	 .cfi_endproc
 119              	.LFE125:
 121              	 .section .text.XMC_PRIOARRAY_GetItemNext,"ax",%progbits
 122              	 .align 2
 123              	 .thumb
 124              	 .thumb_func
 126              	XMC_PRIOARRAY_GetItemNext:
 127              	.LFB126:
 241:C:\Users\Depes Crystalline\Desktop\school\Active_Bike_Lighting_System\Radar_Core\Libraries\XMCLib\inc\xmc_common.h **** 
 242:C:\Users\Depes Crystalline\Desktop\school\Active_Bike_Lighting_System\Radar_Core\Libraries\XMCLib\inc\xmc_common.h **** /*
 243:C:\Users\Depes Crystalline\Desktop\school\Active_Bike_Lighting_System\Radar_Core\Libraries\XMCLib\inc\xmc_common.h ****  *
 244:C:\Users\Depes Crystalline\Desktop\school\Active_Bike_Lighting_System\Radar_Core\Libraries\XMCLib\inc\xmc_common.h ****  */
 245:C:\Users\Depes Crystalline\Desktop\school\Active_Bike_Lighting_System\Radar_Core\Libraries\XMCLib\inc\xmc_common.h **** __STATIC_INLINE int32_t XMC_PRIOARRAY_GetItemNext(XMC_PRIOARRAY_t *prioarray, int32_t item)
 246:C:\Users\Depes Crystalline\Desktop\school\Active_Bike_Lighting_System\Radar_Core\Libraries\XMCLib\inc\xmc_common.h **** {
 128              	 .loc 1 246 0
 129              	 .cfi_startproc
 130              	 
 131              	 
 132              	 
 133 0000 80B4     	 push {r7}
 134              	.LCFI12:
 135              	 .cfi_def_cfa_offset 4
 136              	 .cfi_offset 7,-4
 137 0002 83B0     	 sub sp,sp,#12
 138              	.LCFI13:
 139              	 .cfi_def_cfa_offset 16
 140 0004 00AF     	 add r7,sp,#0
 141              	.LCFI14:
 142              	 .cfi_def_cfa_register 7
 143 0006 7860     	 str r0,[r7,#4]
 144 0008 3960     	 str r1,[r7]
 247:C:\Users\Depes Crystalline\Desktop\school\Active_Bike_Lighting_System\Radar_Core\Libraries\XMCLib\inc\xmc_common.h ****   XMC_ASSERT("XMC_PRIOARRAY_GetItemNext: item out of range", (item >= 0) && (item < prioarray->size
 248:C:\Users\Depes Crystalline\Desktop\school\Active_Bike_Lighting_System\Radar_Core\Libraries\XMCLib\inc\xmc_common.h ****   return prioarray->items[item].next;
 145              	 .loc 1 248 0
 146 000a 7B68     	 ldr r3,[r7,#4]
 147 000c 5968     	 ldr r1,[r3,#4]
 148 000e 3A68     	 ldr r2,[r7]
 149 0010 1346     	 mov r3,r2
 150 0012 5B00     	 lsls r3,r3,#1
 151 0014 1344     	 add r3,r3,r2
 152 0016 9B00     	 lsls r3,r3,#2
 153 0018 0B44     	 add r3,r3,r1
 154 001a 9B68     	 ldr r3,[r3,#8]
 249:C:\Users\Depes Crystalline\Desktop\school\Active_Bike_Lighting_System\Radar_Core\Libraries\XMCLib\inc\xmc_common.h **** }
 155              	 .loc 1 249 0
 156 001c 1846     	 mov r0,r3
 157 001e 0C37     	 adds r7,r7,#12
 158              	.LCFI15:
 159              	 .cfi_def_cfa_offset 4
 160 0020 BD46     	 mov sp,r7
 161              	.LCFI16:
 162              	 .cfi_def_cfa_register 13
 163              	 
 164 0022 5DF8047B 	 ldr r7,[sp],#4
 165              	.LCFI17:
 166              	 .cfi_restore 7
 167              	 .cfi_def_cfa_offset 0
 168 0026 7047     	 bx lr
 169              	 .cfi_endproc
 170              	.LFE126:
 172              	 .section .text.XMC_LIST_Init,"ax",%progbits
 173              	 .align 2
 174              	 .global XMC_LIST_Init
 175              	 .thumb
 176              	 .thumb_func
 178              	XMC_LIST_Init:
 179              	.LFB128:
 180              	 .file 2 "../Libraries/XMCLib/src/xmc_common.c"
   1:../Libraries/XMCLib/src/xmc_common.c **** /**
   2:../Libraries/XMCLib/src/xmc_common.c ****  * @file xmc_common.c
   3:../Libraries/XMCLib/src/xmc_common.c ****  * @date 2015-06-20 
   4:../Libraries/XMCLib/src/xmc_common.c ****  *
   5:../Libraries/XMCLib/src/xmc_common.c ****  * @cond
   6:../Libraries/XMCLib/src/xmc_common.c ****  **************************************************************************************************
   7:../Libraries/XMCLib/src/xmc_common.c ****  * XMClib v2.0.0 - XMC Peripheral Driver Library
   8:../Libraries/XMCLib/src/xmc_common.c ****  *
   9:../Libraries/XMCLib/src/xmc_common.c ****  * Copyright (c) 2015, Infineon Technologies AG
  10:../Libraries/XMCLib/src/xmc_common.c ****  * All rights reserved.                        
  11:../Libraries/XMCLib/src/xmc_common.c ****  *                                             
  12:../Libraries/XMCLib/src/xmc_common.c ****  * Redistribution and use in source and binary forms, with or without modification,are permitted pr
  13:../Libraries/XMCLib/src/xmc_common.c ****  * following conditions are met:   
  14:../Libraries/XMCLib/src/xmc_common.c ****  *                                                                              
  15:../Libraries/XMCLib/src/xmc_common.c ****  * Redistributions of source code must retain the above copyright notice, this list of conditions a
  16:../Libraries/XMCLib/src/xmc_common.c ****  * disclaimer.                        
  17:../Libraries/XMCLib/src/xmc_common.c ****  * 
  18:../Libraries/XMCLib/src/xmc_common.c ****  * Redistributions in binary form must reproduce the above copyright notice, this list of condition
  19:../Libraries/XMCLib/src/xmc_common.c ****  * disclaimer in the documentation and/or other materials provided with the distribution.          
  20:../Libraries/XMCLib/src/xmc_common.c ****  * 
  21:../Libraries/XMCLib/src/xmc_common.c ****  * Neither the name of the copyright holders nor the names of its contributors may be used to endor
  22:../Libraries/XMCLib/src/xmc_common.c ****  * products derived from this software without specific prior written permission.                  
  23:../Libraries/XMCLib/src/xmc_common.c ****  *                                                                              
  24:../Libraries/XMCLib/src/xmc_common.c ****  * THIS SOFTWARE IS PROVIDED BY THE COPYRIGHT HOLDERS AND CONTRIBUTORS "AS IS" AND ANY EXPRESS OR I
  25:../Libraries/XMCLib/src/xmc_common.c ****  * INCLUDING, BUT NOT LIMITED TO, THE IMPLIED WARRANTIES OF MERCHANTABILITY AND FITNESS FOR A PARTI
  26:../Libraries/XMCLib/src/xmc_common.c ****  * DISCLAIMED. IN NO EVENT SHALL THE COPYRIGHT HOLDER OR CONTRIBUTORS BE LIABLE  FOR ANY DIRECT, IN
  27:../Libraries/XMCLib/src/xmc_common.c ****  * SPECIAL, EXEMPLARY, OR CONSEQUENTIAL DAMAGES (INCLUDING, BUT NOT LIMITED TO, PROCUREMENT OF SUBS
  28:../Libraries/XMCLib/src/xmc_common.c ****  * SERVICES; LOSS OF USE, DATA, OR PROFITS; OR BUSINESS INTERRUPTION) HOWEVER CAUSED AND ON ANY THE
  29:../Libraries/XMCLib/src/xmc_common.c ****  * WHETHER IN CONTRACT, STRICT LIABILITY,OR TORT (INCLUDING NEGLIGENCE OR OTHERWISE) ARISING IN ANY
  30:../Libraries/XMCLib/src/xmc_common.c ****  * OF THIS SOFTWARE, EVEN IF ADVISED OF THE POSSIBILITY OF SUCH DAMAGE.                            
  31:../Libraries/XMCLib/src/xmc_common.c ****  *                                                                              
  32:../Libraries/XMCLib/src/xmc_common.c ****  * To improve the quality of the software, users are encouraged to share modifications, enhancement
  33:../Libraries/XMCLib/src/xmc_common.c ****  * Infineon Technologies AG dave@infineon.com).                                                    
  34:../Libraries/XMCLib/src/xmc_common.c ****  **************************************************************************************************
  35:../Libraries/XMCLib/src/xmc_common.c ****  *
  36:../Libraries/XMCLib/src/xmc_common.c ****  * Change History
  37:../Libraries/XMCLib/src/xmc_common.c ****  * --------------
  38:../Libraries/XMCLib/src/xmc_common.c ****  *
  39:../Libraries/XMCLib/src/xmc_common.c ****  * 2015-02-20:
  40:../Libraries/XMCLib/src/xmc_common.c ****  *     - Initial <br>
  41:../Libraries/XMCLib/src/xmc_common.c ****  *      
  42:../Libraries/XMCLib/src/xmc_common.c ****  * @endcond 
  43:../Libraries/XMCLib/src/xmc_common.c ****  *
  44:../Libraries/XMCLib/src/xmc_common.c ****  */
  45:../Libraries/XMCLib/src/xmc_common.c **** 
  46:../Libraries/XMCLib/src/xmc_common.c **** #include "xmc_common.h"
  47:../Libraries/XMCLib/src/xmc_common.c **** 
  48:../Libraries/XMCLib/src/xmc_common.c **** /*******************************************************************************
  49:../Libraries/XMCLib/src/xmc_common.c ****  * DATA STRUCTURES
  50:../Libraries/XMCLib/src/xmc_common.c ****  *******************************************************************************/
  51:../Libraries/XMCLib/src/xmc_common.c **** struct list
  52:../Libraries/XMCLib/src/xmc_common.c **** {
  53:../Libraries/XMCLib/src/xmc_common.c ****   struct list *next;
  54:../Libraries/XMCLib/src/xmc_common.c **** };
  55:../Libraries/XMCLib/src/xmc_common.c **** 
  56:../Libraries/XMCLib/src/xmc_common.c **** /*******************************************************************************
  57:../Libraries/XMCLib/src/xmc_common.c ****  * API IMPLEMENTATION
  58:../Libraries/XMCLib/src/xmc_common.c ****  *******************************************************************************/
  59:../Libraries/XMCLib/src/xmc_common.c **** #if defined(XMC_ASSERT_ENABLE) && !defined(XMC_USER_ASSERT_FUNCTION)
  60:../Libraries/XMCLib/src/xmc_common.c **** 
  61:../Libraries/XMCLib/src/xmc_common.c **** void XMC_AssertHandler(const char *const msg, const char *const file, uint32_t line)
  62:../Libraries/XMCLib/src/xmc_common.c **** {
  63:../Libraries/XMCLib/src/xmc_common.c ****   while(1)
  64:../Libraries/XMCLib/src/xmc_common.c ****   {
  65:../Libraries/XMCLib/src/xmc_common.c ****     /* Endless loop */
  66:../Libraries/XMCLib/src/xmc_common.c ****   }
  67:../Libraries/XMCLib/src/xmc_common.c **** }
  68:../Libraries/XMCLib/src/xmc_common.c **** 
  69:../Libraries/XMCLib/src/xmc_common.c **** #endif
  70:../Libraries/XMCLib/src/xmc_common.c **** 
  71:../Libraries/XMCLib/src/xmc_common.c **** void XMC_LIST_Init(XMC_LIST_t *list)
  72:../Libraries/XMCLib/src/xmc_common.c **** {
 181              	 .loc 2 72 0
 182              	 .cfi_startproc
 183              	 
 184              	 
 185              	 
 186 0000 80B4     	 push {r7}
 187              	.LCFI18:
 188              	 .cfi_def_cfa_offset 4
 189              	 .cfi_offset 7,-4
 190 0002 83B0     	 sub sp,sp,#12
 191              	.LCFI19:
 192              	 .cfi_def_cfa_offset 16
 193 0004 00AF     	 add r7,sp,#0
 194              	.LCFI20:
 195              	 .cfi_def_cfa_register 7
 196 0006 7860     	 str r0,[r7,#4]
  73:../Libraries/XMCLib/src/xmc_common.c ****   *list = NULL;
 197              	 .loc 2 73 0
 198 0008 7B68     	 ldr r3,[r7,#4]
 199 000a 0022     	 movs r2,#0
 200 000c 1A60     	 str r2,[r3]
  74:../Libraries/XMCLib/src/xmc_common.c **** }
 201              	 .loc 2 74 0
 202 000e 0C37     	 adds r7,r7,#12
 203              	.LCFI21:
 204              	 .cfi_def_cfa_offset 4
 205 0010 BD46     	 mov sp,r7
 206              	.LCFI22:
 207              	 .cfi_def_cfa_register 13
 208              	 
 209 0012 5DF8047B 	 ldr r7,[sp],#4
 210              	.LCFI23:
 211              	 .cfi_restore 7
 212              	 .cfi_def_cfa_offset 0
 213 0016 7047     	 bx lr
 214              	 .cfi_endproc
 215              	.LFE128:
 217              	 .section .text.XMC_LIST_GetHead,"ax",%progbits
 218              	 .align 2
 219              	 .global XMC_LIST_GetHead
 220              	 .thumb
 221              	 .thumb_func
 223              	XMC_LIST_GetHead:
 224              	.LFB129:
  75:../Libraries/XMCLib/src/xmc_common.c **** 
  76:../Libraries/XMCLib/src/xmc_common.c **** void *XMC_LIST_GetHead(XMC_LIST_t *list)
  77:../Libraries/XMCLib/src/xmc_common.c **** {
 225              	 .loc 2 77 0
 226              	 .cfi_startproc
 227              	 
 228              	 
 229              	 
 230 0000 80B4     	 push {r7}
 231              	.LCFI24:
 232              	 .cfi_def_cfa_offset 4
 233              	 .cfi_offset 7,-4
 234 0002 83B0     	 sub sp,sp,#12
 235              	.LCFI25:
 236              	 .cfi_def_cfa_offset 16
 237 0004 00AF     	 add r7,sp,#0
 238              	.LCFI26:
 239              	 .cfi_def_cfa_register 7
 240 0006 7860     	 str r0,[r7,#4]
  78:../Libraries/XMCLib/src/xmc_common.c ****   return *list;
 241              	 .loc 2 78 0
 242 0008 7B68     	 ldr r3,[r7,#4]
 243 000a 1B68     	 ldr r3,[r3]
  79:../Libraries/XMCLib/src/xmc_common.c **** }
 244              	 .loc 2 79 0
 245 000c 1846     	 mov r0,r3
 246 000e 0C37     	 adds r7,r7,#12
 247              	.LCFI27:
 248              	 .cfi_def_cfa_offset 4
 249 0010 BD46     	 mov sp,r7
 250              	.LCFI28:
 251              	 .cfi_def_cfa_register 13
 252              	 
 253 0012 5DF8047B 	 ldr r7,[sp],#4
 254              	.LCFI29:
 255              	 .cfi_restore 7
 256              	 .cfi_def_cfa_offset 0
 257 0016 7047     	 bx lr
 258              	 .cfi_endproc
 259              	.LFE129:
 261              	 .section .text.XMC_LIST_GetTail,"ax",%progbits
 262              	 .align 2
 263              	 .global XMC_LIST_GetTail
 264              	 .thumb
 265              	 .thumb_func
 267              	XMC_LIST_GetTail:
 268              	.LFB130:
  80:../Libraries/XMCLib/src/xmc_common.c **** 
  81:../Libraries/XMCLib/src/xmc_common.c **** void *XMC_LIST_GetTail(XMC_LIST_t *list)
  82:../Libraries/XMCLib/src/xmc_common.c **** {
 269              	 .loc 2 82 0
 270              	 .cfi_startproc
 271              	 
 272              	 
 273              	 
 274 0000 80B4     	 push {r7}
 275              	.LCFI30:
 276              	 .cfi_def_cfa_offset 4
 277              	 .cfi_offset 7,-4
 278 0002 85B0     	 sub sp,sp,#20
 279              	.LCFI31:
 280              	 .cfi_def_cfa_offset 24
 281 0004 00AF     	 add r7,sp,#0
 282              	.LCFI32:
 283              	 .cfi_def_cfa_register 7
 284 0006 7860     	 str r0,[r7,#4]
  83:../Libraries/XMCLib/src/xmc_common.c ****   struct list *tail;
  84:../Libraries/XMCLib/src/xmc_common.c ****   
  85:../Libraries/XMCLib/src/xmc_common.c ****   if (*list == NULL) 
 285              	 .loc 2 85 0
 286 0008 7B68     	 ldr r3,[r7,#4]
 287 000a 1B68     	 ldr r3,[r3]
 288 000c 002B     	 cmp r3,#0
 289 000e 02D1     	 bne .L11
  86:../Libraries/XMCLib/src/xmc_common.c ****   {
  87:../Libraries/XMCLib/src/xmc_common.c ****     tail = NULL;
 290              	 .loc 2 87 0
 291 0010 0023     	 movs r3,#0
 292 0012 FB60     	 str r3,[r7,#12]
 293 0014 0AE0     	 b .L12
 294              	.L11:
  88:../Libraries/XMCLib/src/xmc_common.c ****   }
  89:../Libraries/XMCLib/src/xmc_common.c ****   else
  90:../Libraries/XMCLib/src/xmc_common.c ****   {
  91:../Libraries/XMCLib/src/xmc_common.c ****     for (tail = (struct list *)*list; tail->next != NULL; tail = tail->next)
 295              	 .loc 2 91 0
 296 0016 7B68     	 ldr r3,[r7,#4]
 297 0018 1B68     	 ldr r3,[r3]
 298 001a FB60     	 str r3,[r7,#12]
 299 001c 02E0     	 b .L13
 300              	.L14:
 301              	 .loc 2 91 0 is_stmt 0 discriminator 3
 302 001e FB68     	 ldr r3,[r7,#12]
 303 0020 1B68     	 ldr r3,[r3]
 304 0022 FB60     	 str r3,[r7,#12]
 305              	.L13:
 306              	 .loc 2 91 0 discriminator 1
 307 0024 FB68     	 ldr r3,[r7,#12]
 308 0026 1B68     	 ldr r3,[r3]
 309 0028 002B     	 cmp r3,#0
 310 002a F8D1     	 bne .L14
 311              	.L12:
  92:../Libraries/XMCLib/src/xmc_common.c ****     {
  93:../Libraries/XMCLib/src/xmc_common.c ****       /* Loop through the list */
  94:../Libraries/XMCLib/src/xmc_common.c ****     }  
  95:../Libraries/XMCLib/src/xmc_common.c ****   }
  96:../Libraries/XMCLib/src/xmc_common.c ****   
  97:../Libraries/XMCLib/src/xmc_common.c ****   return tail;    
 312              	 .loc 2 97 0 is_stmt 1
 313 002c FB68     	 ldr r3,[r7,#12]
  98:../Libraries/XMCLib/src/xmc_common.c **** }
 314              	 .loc 2 98 0
 315 002e 1846     	 mov r0,r3
 316 0030 1437     	 adds r7,r7,#20
 317              	.LCFI33:
 318              	 .cfi_def_cfa_offset 4
 319 0032 BD46     	 mov sp,r7
 320              	.LCFI34:
 321              	 .cfi_def_cfa_register 13
 322              	 
 323 0034 5DF8047B 	 ldr r7,[sp],#4
 324              	.LCFI35:
 325              	 .cfi_restore 7
 326              	 .cfi_def_cfa_offset 0
 327 0038 7047     	 bx lr
 328              	 .cfi_endproc
 329              	.LFE130:
 331 003a 00BF     	 .section .text.XMC_LIST_Add,"ax",%progbits
 332              	 .align 2
 333              	 .global XMC_LIST_Add
 334              	 .thumb
 335              	 .thumb_func
 337              	XMC_LIST_Add:
 338              	.LFB131:
  99:../Libraries/XMCLib/src/xmc_common.c **** 
 100:../Libraries/XMCLib/src/xmc_common.c **** void XMC_LIST_Add(XMC_LIST_t *list, void *item)
 101:../Libraries/XMCLib/src/xmc_common.c **** {
 339              	 .loc 2 101 0
 340              	 .cfi_startproc
 341              	 
 342              	 
 343 0000 80B5     	 push {r7,lr}
 344              	.LCFI36:
 345              	 .cfi_def_cfa_offset 8
 346              	 .cfi_offset 7,-8
 347              	 .cfi_offset 14,-4
 348 0002 84B0     	 sub sp,sp,#16
 349              	.LCFI37:
 350              	 .cfi_def_cfa_offset 24
 351 0004 00AF     	 add r7,sp,#0
 352              	.LCFI38:
 353              	 .cfi_def_cfa_register 7
 354 0006 7860     	 str r0,[r7,#4]
 355 0008 3960     	 str r1,[r7]
 102:../Libraries/XMCLib/src/xmc_common.c ****   struct list *tail;
 103:../Libraries/XMCLib/src/xmc_common.c ****   
 104:../Libraries/XMCLib/src/xmc_common.c ****   ((struct list *)item)->next = NULL;
 356              	 .loc 2 104 0
 357 000a 3B68     	 ldr r3,[r7]
 358 000c 0022     	 movs r2,#0
 359 000e 1A60     	 str r2,[r3]
 105:../Libraries/XMCLib/src/xmc_common.c ****   tail = (struct list *)XMC_LIST_GetTail(list);
 360              	 .loc 2 105 0
 361 0010 7868     	 ldr r0,[r7,#4]
 362 0012 FFF7FEFF 	 bl XMC_LIST_GetTail
 363 0016 F860     	 str r0,[r7,#12]
 106:../Libraries/XMCLib/src/xmc_common.c ****   
 107:../Libraries/XMCLib/src/xmc_common.c ****   if (tail == NULL) 
 364              	 .loc 2 107 0
 365 0018 FB68     	 ldr r3,[r7,#12]
 366 001a 002B     	 cmp r3,#0
 367 001c 03D1     	 bne .L17
 108:../Libraries/XMCLib/src/xmc_common.c ****   {
 109:../Libraries/XMCLib/src/xmc_common.c ****     *list = item;
 368              	 .loc 2 109 0
 369 001e 7B68     	 ldr r3,[r7,#4]
 370 0020 3A68     	 ldr r2,[r7]
 371 0022 1A60     	 str r2,[r3]
 372 0024 02E0     	 b .L16
 373              	.L17:
 110:../Libraries/XMCLib/src/xmc_common.c ****   } 
 111:../Libraries/XMCLib/src/xmc_common.c ****   else 
 112:../Libraries/XMCLib/src/xmc_common.c ****   {
 113:../Libraries/XMCLib/src/xmc_common.c ****     tail->next = (struct list *)item;
 374              	 .loc 2 113 0
 375 0026 FB68     	 ldr r3,[r7,#12]
 376 0028 3A68     	 ldr r2,[r7]
 377 002a 1A60     	 str r2,[r3]
 378              	.L16:
 114:../Libraries/XMCLib/src/xmc_common.c ****   }
 115:../Libraries/XMCLib/src/xmc_common.c **** }
 379              	 .loc 2 115 0
 380 002c 1037     	 adds r7,r7,#16
 381              	.LCFI39:
 382              	 .cfi_def_cfa_offset 8
 383 002e BD46     	 mov sp,r7
 384              	.LCFI40:
 385              	 .cfi_def_cfa_register 13
 386              	 
 387 0030 80BD     	 pop {r7,pc}
 388              	 .cfi_endproc
 389              	.LFE131:
 391 0032 00BF     	 .section .text.XMC_LIST_Remove,"ax",%progbits
 392              	 .align 2
 393              	 .global XMC_LIST_Remove
 394              	 .thumb
 395              	 .thumb_func
 397              	XMC_LIST_Remove:
 398              	.LFB132:
 116:../Libraries/XMCLib/src/xmc_common.c **** 
 117:../Libraries/XMCLib/src/xmc_common.c **** void XMC_LIST_Remove(XMC_LIST_t *list, void *item)
 118:../Libraries/XMCLib/src/xmc_common.c **** {
 399              	 .loc 2 118 0
 400              	 .cfi_startproc
 401              	 
 402              	 
 403              	 
 404 0000 80B4     	 push {r7}
 405              	.LCFI41:
 406              	 .cfi_def_cfa_offset 4
 407              	 .cfi_offset 7,-4
 408 0002 85B0     	 sub sp,sp,#20
 409              	.LCFI42:
 410              	 .cfi_def_cfa_offset 24
 411 0004 00AF     	 add r7,sp,#0
 412              	.LCFI43:
 413              	 .cfi_def_cfa_register 7
 414 0006 7860     	 str r0,[r7,#4]
 415 0008 3960     	 str r1,[r7]
 119:../Libraries/XMCLib/src/xmc_common.c ****   struct list *right, *left;
 120:../Libraries/XMCLib/src/xmc_common.c ****   
 121:../Libraries/XMCLib/src/xmc_common.c ****   if (*list != NULL) 
 416              	 .loc 2 121 0
 417 000a 7B68     	 ldr r3,[r7,#4]
 418 000c 1B68     	 ldr r3,[r3]
 419 000e 002B     	 cmp r3,#0
 420 0010 21D0     	 beq .L19
 122:../Libraries/XMCLib/src/xmc_common.c ****   {
 123:../Libraries/XMCLib/src/xmc_common.c ****     left = NULL;
 421              	 .loc 2 123 0
 422 0012 0023     	 movs r3,#0
 423 0014 BB60     	 str r3,[r7,#8]
 124:../Libraries/XMCLib/src/xmc_common.c ****     for(right = (struct list *)*list; right != NULL; right = right->next)
 424              	 .loc 2 124 0
 425 0016 7B68     	 ldr r3,[r7,#4]
 426 0018 1B68     	 ldr r3,[r3]
 427 001a FB60     	 str r3,[r7,#12]
 428 001c 18E0     	 b .L21
 429              	.L25:
 125:../Libraries/XMCLib/src/xmc_common.c ****     {
 126:../Libraries/XMCLib/src/xmc_common.c ****       if(right == item) 
 430              	 .loc 2 126 0
 431 001e FA68     	 ldr r2,[r7,#12]
 432 0020 3B68     	 ldr r3,[r7]
 433 0022 9A42     	 cmp r2,r3
 434 0024 0FD1     	 bne .L22
 127:../Libraries/XMCLib/src/xmc_common.c ****       {
 128:../Libraries/XMCLib/src/xmc_common.c ****         if(left == NULL) 
 435              	 .loc 2 128 0
 436 0026 BB68     	 ldr r3,[r7,#8]
 437 0028 002B     	 cmp r3,#0
 438 002a 04D1     	 bne .L23
 129:../Libraries/XMCLib/src/xmc_common.c ****         {
 130:../Libraries/XMCLib/src/xmc_common.c ****           /* First on list */
 131:../Libraries/XMCLib/src/xmc_common.c ****           *list = right->next;
 439              	 .loc 2 131 0
 440 002c FB68     	 ldr r3,[r7,#12]
 441 002e 1A68     	 ldr r2,[r3]
 442 0030 7B68     	 ldr r3,[r7,#4]
 443 0032 1A60     	 str r2,[r3]
 444 0034 03E0     	 b .L24
 445              	.L23:
 132:../Libraries/XMCLib/src/xmc_common.c ****         } 
 133:../Libraries/XMCLib/src/xmc_common.c ****         else 
 134:../Libraries/XMCLib/src/xmc_common.c ****         {
 135:../Libraries/XMCLib/src/xmc_common.c ****           /* Not first on list */
 136:../Libraries/XMCLib/src/xmc_common.c ****           left->next = right->next;
 446              	 .loc 2 136 0
 447 0036 FB68     	 ldr r3,[r7,#12]
 448 0038 1A68     	 ldr r2,[r3]
 449 003a BB68     	 ldr r3,[r7,#8]
 450 003c 1A60     	 str r2,[r3]
 451              	.L24:
 137:../Libraries/XMCLib/src/xmc_common.c ****         }
 138:../Libraries/XMCLib/src/xmc_common.c ****         right->next = NULL;
 452              	 .loc 2 138 0
 453 003e FB68     	 ldr r3,[r7,#12]
 454 0040 0022     	 movs r2,#0
 455 0042 1A60     	 str r2,[r3]
 139:../Libraries/XMCLib/src/xmc_common.c ****         break;
 456              	 .loc 2 139 0
 457 0044 07E0     	 b .L19
 458              	.L22:
 140:../Libraries/XMCLib/src/xmc_common.c ****       }
 141:../Libraries/XMCLib/src/xmc_common.c ****       left = right;
 459              	 .loc 2 141 0 discriminator 2
 460 0046 FB68     	 ldr r3,[r7,#12]
 461 0048 BB60     	 str r3,[r7,#8]
 124:../Libraries/XMCLib/src/xmc_common.c ****     {
 462              	 .loc 2 124 0 discriminator 2
 463 004a FB68     	 ldr r3,[r7,#12]
 464 004c 1B68     	 ldr r3,[r3]
 465 004e FB60     	 str r3,[r7,#12]
 466              	.L21:
 124:../Libraries/XMCLib/src/xmc_common.c ****     {
 467              	 .loc 2 124 0 is_stmt 0 discriminator 1
 468 0050 FB68     	 ldr r3,[r7,#12]
 469 0052 002B     	 cmp r3,#0
 470 0054 E3D1     	 bne .L25
 471              	.L19:
 142:../Libraries/XMCLib/src/xmc_common.c ****     }
 143:../Libraries/XMCLib/src/xmc_common.c ****   }
 144:../Libraries/XMCLib/src/xmc_common.c **** }
 472              	 .loc 2 144 0 is_stmt 1
 473 0056 1437     	 adds r7,r7,#20
 474              	.LCFI44:
 475              	 .cfi_def_cfa_offset 4
 476 0058 BD46     	 mov sp,r7
 477              	.LCFI45:
 478              	 .cfi_def_cfa_register 13
 479              	 
 480 005a 5DF8047B 	 ldr r7,[sp],#4
 481              	.LCFI46:
 482              	 .cfi_restore 7
 483              	 .cfi_def_cfa_offset 0
 484 005e 7047     	 bx lr
 485              	 .cfi_endproc
 486              	.LFE132:
 488              	 .section .text.XMC_LIST_Insert,"ax",%progbits
 489              	 .align 2
 490              	 .global XMC_LIST_Insert
 491              	 .thumb
 492              	 .thumb_func
 494              	XMC_LIST_Insert:
 495              	.LFB133:
 145:../Libraries/XMCLib/src/xmc_common.c **** 
 146:../Libraries/XMCLib/src/xmc_common.c **** void XMC_LIST_Insert(XMC_LIST_t *list, void *prev_item, void *new_item)
 147:../Libraries/XMCLib/src/xmc_common.c **** {
 496              	 .loc 2 147 0
 497              	 .cfi_startproc
 498              	 
 499              	 
 500              	 
 501 0000 80B4     	 push {r7}
 502              	.LCFI47:
 503              	 .cfi_def_cfa_offset 4
 504              	 .cfi_offset 7,-4
 505 0002 85B0     	 sub sp,sp,#20
 506              	.LCFI48:
 507              	 .cfi_def_cfa_offset 24
 508 0004 00AF     	 add r7,sp,#0
 509              	.LCFI49:
 510              	 .cfi_def_cfa_register 7
 511 0006 F860     	 str r0,[r7,#12]
 512 0008 B960     	 str r1,[r7,#8]
 513 000a 7A60     	 str r2,[r7,#4]
 148:../Libraries/XMCLib/src/xmc_common.c ****   if (prev_item == NULL) 
 514              	 .loc 2 148 0
 515 000c BB68     	 ldr r3,[r7,#8]
 516 000e 002B     	 cmp r3,#0
 517 0010 07D1     	 bne .L27
 149:../Libraries/XMCLib/src/xmc_common.c ****   {
 150:../Libraries/XMCLib/src/xmc_common.c **** 	((struct list *)new_item)->next = (struct list *)*list;
 518              	 .loc 2 150 0
 519 0012 FB68     	 ldr r3,[r7,#12]
 520 0014 1A68     	 ldr r2,[r3]
 521 0016 7B68     	 ldr r3,[r7,#4]
 522 0018 1A60     	 str r2,[r3]
 151:../Libraries/XMCLib/src/xmc_common.c **** 	*list = new_item;
 523              	 .loc 2 151 0
 524 001a FB68     	 ldr r3,[r7,#12]
 525 001c 7A68     	 ldr r2,[r7,#4]
 526 001e 1A60     	 str r2,[r3]
 527 0020 06E0     	 b .L26
 528              	.L27:
 152:../Libraries/XMCLib/src/xmc_common.c ****   } 
 153:../Libraries/XMCLib/src/xmc_common.c ****   else 
 154:../Libraries/XMCLib/src/xmc_common.c ****   {
 155:../Libraries/XMCLib/src/xmc_common.c ****     ((struct list *)new_item)->next = ((struct list *)prev_item)->next;
 529              	 .loc 2 155 0
 530 0022 BB68     	 ldr r3,[r7,#8]
 531 0024 1A68     	 ldr r2,[r3]
 532 0026 7B68     	 ldr r3,[r7,#4]
 533 0028 1A60     	 str r2,[r3]
 156:../Libraries/XMCLib/src/xmc_common.c ****     ((struct list *)prev_item)->next = (struct list *)new_item;
 534              	 .loc 2 156 0
 535 002a BB68     	 ldr r3,[r7,#8]
 536 002c 7A68     	 ldr r2,[r7,#4]
 537 002e 1A60     	 str r2,[r3]
 538              	.L26:
 157:../Libraries/XMCLib/src/xmc_common.c ****   }
 158:../Libraries/XMCLib/src/xmc_common.c **** }
 539              	 .loc 2 158 0
 540 0030 1437     	 adds r7,r7,#20
 541              	.LCFI50:
 542              	 .cfi_def_cfa_offset 4
 543 0032 BD46     	 mov sp,r7
 544              	.LCFI51:
 545              	 .cfi_def_cfa_register 13
 546              	 
 547 0034 5DF8047B 	 ldr r7,[sp],#4
 548              	.LCFI52:
 549              	 .cfi_restore 7
 550              	 .cfi_def_cfa_offset 0
 551 0038 7047     	 bx lr
 552              	 .cfi_endproc
 553              	.LFE133:
 555 003a 00BF     	 .section .text.XMC_PRIOARRAY_Init,"ax",%progbits
 556              	 .align 2
 557              	 .global XMC_PRIOARRAY_Init
 558              	 .thumb
 559              	 .thumb_func
 561              	XMC_PRIOARRAY_Init:
 562              	.LFB134:
 159:../Libraries/XMCLib/src/xmc_common.c **** 
 160:../Libraries/XMCLib/src/xmc_common.c **** void XMC_PRIOARRAY_Init(XMC_PRIOARRAY_t *prioarray)
 161:../Libraries/XMCLib/src/xmc_common.c **** {
 563              	 .loc 2 161 0
 564              	 .cfi_startproc
 565              	 
 566              	 
 567              	 
 568 0000 80B4     	 push {r7}
 569              	.LCFI53:
 570              	 .cfi_def_cfa_offset 4
 571              	 .cfi_offset 7,-4
 572 0002 83B0     	 sub sp,sp,#12
 573              	.LCFI54:
 574              	 .cfi_def_cfa_offset 16
 575 0004 00AF     	 add r7,sp,#0
 576              	.LCFI55:
 577              	 .cfi_def_cfa_register 7
 578 0006 7860     	 str r0,[r7,#4]
 162:../Libraries/XMCLib/src/xmc_common.c ****   XMC_ASSERT("XMC_PRIOARRAY_Init: NULL pointer", prioarray != NULL);
 163:../Libraries/XMCLib/src/xmc_common.c **** 
 164:../Libraries/XMCLib/src/xmc_common.c ****   /* Initialize head, next points to tail, previous to NULL and the priority is MININT */
 165:../Libraries/XMCLib/src/xmc_common.c ****   prioarray->items[prioarray->size].next = prioarray->size + 1;
 579              	 .loc 2 165 0
 580 0008 7B68     	 ldr r3,[r7,#4]
 581 000a 5968     	 ldr r1,[r3,#4]
 582 000c 7B68     	 ldr r3,[r7,#4]
 583 000e 1A68     	 ldr r2,[r3]
 584 0010 1346     	 mov r3,r2
 585 0012 5B00     	 lsls r3,r3,#1
 586 0014 1344     	 add r3,r3,r2
 587 0016 9B00     	 lsls r3,r3,#2
 588 0018 0B44     	 add r3,r3,r1
 589 001a 7A68     	 ldr r2,[r7,#4]
 590 001c 1268     	 ldr r2,[r2]
 591 001e 0132     	 adds r2,r2,#1
 592 0020 9A60     	 str r2,[r3,#8]
 166:../Libraries/XMCLib/src/xmc_common.c ****   prioarray->items[prioarray->size].previous = -1;
 593              	 .loc 2 166 0
 594 0022 7B68     	 ldr r3,[r7,#4]
 595 0024 5968     	 ldr r1,[r3,#4]
 596 0026 7B68     	 ldr r3,[r7,#4]
 597 0028 1A68     	 ldr r2,[r3]
 598 002a 1346     	 mov r3,r2
 599 002c 5B00     	 lsls r3,r3,#1
 600 002e 1344     	 add r3,r3,r2
 601 0030 9B00     	 lsls r3,r3,#2
 602 0032 0B44     	 add r3,r3,r1
 603 0034 4FF0FF32 	 mov r2,#-1
 604 0038 5A60     	 str r2,[r3,#4]
 167:../Libraries/XMCLib/src/xmc_common.c ****   prioarray->items[prioarray->size].priority = INT32_MAX;
 605              	 .loc 2 167 0
 606 003a 7B68     	 ldr r3,[r7,#4]
 607 003c 5968     	 ldr r1,[r3,#4]
 608 003e 7B68     	 ldr r3,[r7,#4]
 609 0040 1A68     	 ldr r2,[r3]
 610 0042 1346     	 mov r3,r2
 611 0044 5B00     	 lsls r3,r3,#1
 612 0046 1344     	 add r3,r3,r2
 613 0048 9B00     	 lsls r3,r3,#2
 614 004a 0B44     	 add r3,r3,r1
 615 004c 6FF00042 	 mvn r2,#-2147483648
 616 0050 1A60     	 str r2,[r3]
 168:../Libraries/XMCLib/src/xmc_common.c **** 
 169:../Libraries/XMCLib/src/xmc_common.c ****   /* Initialize tail, next points to NULL, previous is the head and the priority is MAXINT */
 170:../Libraries/XMCLib/src/xmc_common.c ****   prioarray->items[prioarray->size + 1].next = -1;
 617              	 .loc 2 170 0
 618 0052 7B68     	 ldr r3,[r7,#4]
 619 0054 5968     	 ldr r1,[r3,#4]
 620 0056 7B68     	 ldr r3,[r7,#4]
 621 0058 1B68     	 ldr r3,[r3]
 622 005a 5A1C     	 adds r2,r3,#1
 623 005c 1346     	 mov r3,r2
 624 005e 5B00     	 lsls r3,r3,#1
 625 0060 1344     	 add r3,r3,r2
 626 0062 9B00     	 lsls r3,r3,#2
 627 0064 0B44     	 add r3,r3,r1
 628 0066 4FF0FF32 	 mov r2,#-1
 629 006a 9A60     	 str r2,[r3,#8]
 171:../Libraries/XMCLib/src/xmc_common.c ****   prioarray->items[prioarray->size + 1].previous = prioarray->size;
 630              	 .loc 2 171 0
 631 006c 7B68     	 ldr r3,[r7,#4]
 632 006e 5968     	 ldr r1,[r3,#4]
 633 0070 7B68     	 ldr r3,[r7,#4]
 634 0072 1B68     	 ldr r3,[r3]
 635 0074 5A1C     	 adds r2,r3,#1
 636 0076 1346     	 mov r3,r2
 637 0078 5B00     	 lsls r3,r3,#1
 638 007a 1344     	 add r3,r3,r2
 639 007c 9B00     	 lsls r3,r3,#2
 640 007e 0B44     	 add r3,r3,r1
 641 0080 7A68     	 ldr r2,[r7,#4]
 642 0082 1268     	 ldr r2,[r2]
 643 0084 5A60     	 str r2,[r3,#4]
 172:../Libraries/XMCLib/src/xmc_common.c ****   prioarray->items[prioarray->size + 1].priority = INT32_MIN;
 644              	 .loc 2 172 0
 645 0086 7B68     	 ldr r3,[r7,#4]
 646 0088 5968     	 ldr r1,[r3,#4]
 647 008a 7B68     	 ldr r3,[r7,#4]
 648 008c 1B68     	 ldr r3,[r3]
 649 008e 5A1C     	 adds r2,r3,#1
 650 0090 1346     	 mov r3,r2
 651 0092 5B00     	 lsls r3,r3,#1
 652 0094 1344     	 add r3,r3,r2
 653 0096 9B00     	 lsls r3,r3,#2
 654 0098 0B44     	 add r3,r3,r1
 655 009a 4FF00042 	 mov r2,#-2147483648
 656 009e 1A60     	 str r2,[r3]
 173:../Libraries/XMCLib/src/xmc_common.c **** 
 174:../Libraries/XMCLib/src/xmc_common.c **** }
 657              	 .loc 2 174 0
 658 00a0 0C37     	 adds r7,r7,#12
 659              	.LCFI56:
 660              	 .cfi_def_cfa_offset 4
 661 00a2 BD46     	 mov sp,r7
 662              	.LCFI57:
 663              	 .cfi_def_cfa_register 13
 664              	 
 665 00a4 5DF8047B 	 ldr r7,[sp],#4
 666              	.LCFI58:
 667              	 .cfi_restore 7
 668              	 .cfi_def_cfa_offset 0
 669 00a8 7047     	 bx lr
 670              	 .cfi_endproc
 671              	.LFE134:
 673 00aa 00BF     	 .section .text.XMC_PRIOARRAY_Add,"ax",%progbits
 674              	 .align 2
 675              	 .global XMC_PRIOARRAY_Add
 676              	 .thumb
 677              	 .thumb_func
 679              	XMC_PRIOARRAY_Add:
 680              	.LFB135:
 175:../Libraries/XMCLib/src/xmc_common.c **** 
 176:../Libraries/XMCLib/src/xmc_common.c **** void XMC_PRIOARRAY_Add(XMC_PRIOARRAY_t *prioarray, int32_t item, int32_t priority)
 177:../Libraries/XMCLib/src/xmc_common.c **** {
 681              	 .loc 2 177 0
 682              	 .cfi_startproc
 683              	 
 684              	 
 685 0000 80B5     	 push {r7,lr}
 686              	.LCFI59:
 687              	 .cfi_def_cfa_offset 8
 688              	 .cfi_offset 7,-8
 689              	 .cfi_offset 14,-4
 690 0002 86B0     	 sub sp,sp,#24
 691              	.LCFI60:
 692              	 .cfi_def_cfa_offset 32
 693 0004 00AF     	 add r7,sp,#0
 694              	.LCFI61:
 695              	 .cfi_def_cfa_register 7
 696 0006 F860     	 str r0,[r7,#12]
 697 0008 B960     	 str r1,[r7,#8]
 698 000a 7A60     	 str r2,[r7,#4]
 178:../Libraries/XMCLib/src/xmc_common.c ****   int32_t next;
 179:../Libraries/XMCLib/src/xmc_common.c ****   int32_t previous;
 180:../Libraries/XMCLib/src/xmc_common.c **** 
 181:../Libraries/XMCLib/src/xmc_common.c ****   XMC_ASSERT("XMC_PRIOARRAY_Add: item out of range", (item >= 0) && (item < prioarray->size));
 182:../Libraries/XMCLib/src/xmc_common.c ****   
 183:../Libraries/XMCLib/src/xmc_common.c ****   next = XMC_PRIOARRAY_GetHead(prioarray);
 699              	 .loc 2 183 0
 700 000c F868     	 ldr r0,[r7,#12]
 701 000e FFF7FEFF 	 bl XMC_PRIOARRAY_GetHead
 702 0012 7861     	 str r0,[r7,#20]
 184:../Libraries/XMCLib/src/xmc_common.c ****   while (XMC_PRIOARRAY_GetItemPriority(prioarray, next) > priority)
 703              	 .loc 2 184 0
 704 0014 04E0     	 b .L31
 705              	.L32:
 185:../Libraries/XMCLib/src/xmc_common.c ****   {
 186:../Libraries/XMCLib/src/xmc_common.c ****     next = XMC_PRIOARRAY_GetItemNext(prioarray, next);
 706              	 .loc 2 186 0
 707 0016 F868     	 ldr r0,[r7,#12]
 708 0018 7969     	 ldr r1,[r7,#20]
 709 001a FFF7FEFF 	 bl XMC_PRIOARRAY_GetItemNext
 710 001e 7861     	 str r0,[r7,#20]
 711              	.L31:
 184:../Libraries/XMCLib/src/xmc_common.c ****   while (XMC_PRIOARRAY_GetItemPriority(prioarray, next) > priority)
 712              	 .loc 2 184 0
 713 0020 F868     	 ldr r0,[r7,#12]
 714 0022 7969     	 ldr r1,[r7,#20]
 715 0024 FFF7FEFF 	 bl XMC_PRIOARRAY_GetItemPriority
 716 0028 0246     	 mov r2,r0
 717 002a 7B68     	 ldr r3,[r7,#4]
 718 002c 9A42     	 cmp r2,r3
 719 002e F2DC     	 bgt .L32
 187:../Libraries/XMCLib/src/xmc_common.c ****   }
 188:../Libraries/XMCLib/src/xmc_common.c **** 
 189:../Libraries/XMCLib/src/xmc_common.c ****   previous = prioarray->items[next].previous;
 720              	 .loc 2 189 0
 721 0030 FB68     	 ldr r3,[r7,#12]
 722 0032 5968     	 ldr r1,[r3,#4]
 723 0034 7A69     	 ldr r2,[r7,#20]
 724 0036 1346     	 mov r3,r2
 725 0038 5B00     	 lsls r3,r3,#1
 726 003a 1344     	 add r3,r3,r2
 727 003c 9B00     	 lsls r3,r3,#2
 728 003e 0B44     	 add r3,r3,r1
 729 0040 5B68     	 ldr r3,[r3,#4]
 730 0042 3B61     	 str r3,[r7,#16]
 190:../Libraries/XMCLib/src/xmc_common.c **** 
 191:../Libraries/XMCLib/src/xmc_common.c ****   prioarray->items[item].next = next;
 731              	 .loc 2 191 0
 732 0044 FB68     	 ldr r3,[r7,#12]
 733 0046 5968     	 ldr r1,[r3,#4]
 734 0048 BA68     	 ldr r2,[r7,#8]
 735 004a 1346     	 mov r3,r2
 736 004c 5B00     	 lsls r3,r3,#1
 737 004e 1344     	 add r3,r3,r2
 738 0050 9B00     	 lsls r3,r3,#2
 739 0052 0B44     	 add r3,r3,r1
 740 0054 7A69     	 ldr r2,[r7,#20]
 741 0056 9A60     	 str r2,[r3,#8]
 192:../Libraries/XMCLib/src/xmc_common.c ****   prioarray->items[item].previous = previous;
 742              	 .loc 2 192 0
 743 0058 FB68     	 ldr r3,[r7,#12]
 744 005a 5968     	 ldr r1,[r3,#4]
 745 005c BA68     	 ldr r2,[r7,#8]
 746 005e 1346     	 mov r3,r2
 747 0060 5B00     	 lsls r3,r3,#1
 748 0062 1344     	 add r3,r3,r2
 749 0064 9B00     	 lsls r3,r3,#2
 750 0066 0B44     	 add r3,r3,r1
 751 0068 3A69     	 ldr r2,[r7,#16]
 752 006a 5A60     	 str r2,[r3,#4]
 193:../Libraries/XMCLib/src/xmc_common.c ****   prioarray->items[item].priority = priority;
 753              	 .loc 2 193 0
 754 006c FB68     	 ldr r3,[r7,#12]
 755 006e 5968     	 ldr r1,[r3,#4]
 756 0070 BA68     	 ldr r2,[r7,#8]
 757 0072 1346     	 mov r3,r2
 758 0074 5B00     	 lsls r3,r3,#1
 759 0076 1344     	 add r3,r3,r2
 760 0078 9B00     	 lsls r3,r3,#2
 761 007a 0B44     	 add r3,r3,r1
 762 007c 7A68     	 ldr r2,[r7,#4]
 763 007e 1A60     	 str r2,[r3]
 194:../Libraries/XMCLib/src/xmc_common.c **** 
 195:../Libraries/XMCLib/src/xmc_common.c ****   prioarray->items[previous].next = item;
 764              	 .loc 2 195 0
 765 0080 FB68     	 ldr r3,[r7,#12]
 766 0082 5968     	 ldr r1,[r3,#4]
 767 0084 3A69     	 ldr r2,[r7,#16]
 768 0086 1346     	 mov r3,r2
 769 0088 5B00     	 lsls r3,r3,#1
 770 008a 1344     	 add r3,r3,r2
 771 008c 9B00     	 lsls r3,r3,#2
 772 008e 0B44     	 add r3,r3,r1
 773 0090 BA68     	 ldr r2,[r7,#8]
 774 0092 9A60     	 str r2,[r3,#8]
 196:../Libraries/XMCLib/src/xmc_common.c ****   prioarray->items[next].previous = item;
 775              	 .loc 2 196 0
 776 0094 FB68     	 ldr r3,[r7,#12]
 777 0096 5968     	 ldr r1,[r3,#4]
 778 0098 7A69     	 ldr r2,[r7,#20]
 779 009a 1346     	 mov r3,r2
 780 009c 5B00     	 lsls r3,r3,#1
 781 009e 1344     	 add r3,r3,r2
 782 00a0 9B00     	 lsls r3,r3,#2
 783 00a2 0B44     	 add r3,r3,r1
 784 00a4 BA68     	 ldr r2,[r7,#8]
 785 00a6 5A60     	 str r2,[r3,#4]
 197:../Libraries/XMCLib/src/xmc_common.c **** }
 786              	 .loc 2 197 0
 787 00a8 1837     	 adds r7,r7,#24
 788              	.LCFI62:
 789              	 .cfi_def_cfa_offset 8
 790 00aa BD46     	 mov sp,r7
 791              	.LCFI63:
 792              	 .cfi_def_cfa_register 13
 793              	 
 794 00ac 80BD     	 pop {r7,pc}
 795              	 .cfi_endproc
 796              	.LFE135:
 798 00ae 00BF     	 .section .text.XMC_PRIOARRAY_Remove,"ax",%progbits
 799              	 .align 2
 800              	 .global XMC_PRIOARRAY_Remove
 801              	 .thumb
 802              	 .thumb_func
 804              	XMC_PRIOARRAY_Remove:
 805              	.LFB136:
 198:../Libraries/XMCLib/src/xmc_common.c **** 
 199:../Libraries/XMCLib/src/xmc_common.c **** void XMC_PRIOARRAY_Remove(XMC_PRIOARRAY_t *prioarray, int32_t item)
 200:../Libraries/XMCLib/src/xmc_common.c **** {
 806              	 .loc 2 200 0
 807              	 .cfi_startproc
 808              	 
 809              	 
 810              	 
 811 0000 80B4     	 push {r7}
 812              	.LCFI64:
 813              	 .cfi_def_cfa_offset 4
 814              	 .cfi_offset 7,-4
 815 0002 85B0     	 sub sp,sp,#20
 816              	.LCFI65:
 817              	 .cfi_def_cfa_offset 24
 818 0004 00AF     	 add r7,sp,#0
 819              	.LCFI66:
 820              	 .cfi_def_cfa_register 7
 821 0006 7860     	 str r0,[r7,#4]
 822 0008 3960     	 str r1,[r7]
 201:../Libraries/XMCLib/src/xmc_common.c ****   int32_t next;
 202:../Libraries/XMCLib/src/xmc_common.c ****   int32_t previous;
 203:../Libraries/XMCLib/src/xmc_common.c **** 
 204:../Libraries/XMCLib/src/xmc_common.c ****   XMC_ASSERT("XMC_PRIOARRAY_Add: item out of range", (item >= 0) && (item < prioarray->size));
 205:../Libraries/XMCLib/src/xmc_common.c ****   
 206:../Libraries/XMCLib/src/xmc_common.c ****   next = prioarray->items[item].next;
 823              	 .loc 2 206 0
 824 000a 7B68     	 ldr r3,[r7,#4]
 825 000c 5968     	 ldr r1,[r3,#4]
 826 000e 3A68     	 ldr r2,[r7]
 827 0010 1346     	 mov r3,r2
 828 0012 5B00     	 lsls r3,r3,#1
 829 0014 1344     	 add r3,r3,r2
 830 0016 9B00     	 lsls r3,r3,#2
 831 0018 0B44     	 add r3,r3,r1
 832 001a 9B68     	 ldr r3,[r3,#8]
 833 001c FB60     	 str r3,[r7,#12]
 207:../Libraries/XMCLib/src/xmc_common.c ****   previous = prioarray->items[item].previous;
 834              	 .loc 2 207 0
 835 001e 7B68     	 ldr r3,[r7,#4]
 836 0020 5968     	 ldr r1,[r3,#4]
 837 0022 3A68     	 ldr r2,[r7]
 838 0024 1346     	 mov r3,r2
 839 0026 5B00     	 lsls r3,r3,#1
 840 0028 1344     	 add r3,r3,r2
 841 002a 9B00     	 lsls r3,r3,#2
 842 002c 0B44     	 add r3,r3,r1
 843 002e 5B68     	 ldr r3,[r3,#4]
 844 0030 BB60     	 str r3,[r7,#8]
 208:../Libraries/XMCLib/src/xmc_common.c **** 
 209:../Libraries/XMCLib/src/xmc_common.c ****   prioarray->items[previous].next = next;
 845              	 .loc 2 209 0
 846 0032 7B68     	 ldr r3,[r7,#4]
 847 0034 5968     	 ldr r1,[r3,#4]
 848 0036 BA68     	 ldr r2,[r7,#8]
 849 0038 1346     	 mov r3,r2
 850 003a 5B00     	 lsls r3,r3,#1
 851 003c 1344     	 add r3,r3,r2
 852 003e 9B00     	 lsls r3,r3,#2
 853 0040 0B44     	 add r3,r3,r1
 854 0042 FA68     	 ldr r2,[r7,#12]
 855 0044 9A60     	 str r2,[r3,#8]
 210:../Libraries/XMCLib/src/xmc_common.c ****   prioarray->items[next].previous = previous;
 856              	 .loc 2 210 0
 857 0046 7B68     	 ldr r3,[r7,#4]
 858 0048 5968     	 ldr r1,[r3,#4]
 859 004a FA68     	 ldr r2,[r7,#12]
 860 004c 1346     	 mov r3,r2
 861 004e 5B00     	 lsls r3,r3,#1
 862 0050 1344     	 add r3,r3,r2
 863 0052 9B00     	 lsls r3,r3,#2
 864 0054 0B44     	 add r3,r3,r1
 865 0056 BA68     	 ldr r2,[r7,#8]
 866 0058 5A60     	 str r2,[r3,#4]
 211:../Libraries/XMCLib/src/xmc_common.c **** }
 867              	 .loc 2 211 0
 868 005a 1437     	 adds r7,r7,#20
 869              	.LCFI67:
 870              	 .cfi_def_cfa_offset 4
 871 005c BD46     	 mov sp,r7
 872              	.LCFI68:
 873              	 .cfi_def_cfa_register 13
 874              	 
 875 005e 5DF8047B 	 ldr r7,[sp],#4
 876              	.LCFI69:
 877              	 .cfi_restore 7
 878              	 .cfi_def_cfa_offset 0
 879 0062 7047     	 bx lr
 880              	 .cfi_endproc
 881              	.LFE136:
 883              	 .text
 884              	.Letext0:
 885              	 .file 3 "c:\\davev4-64bit\\dave-4.2.6\\eclipse\\arm-gcc-49\\arm-none-eabi\\include\\machine\\_default_types.h"
 886              	 .file 4 "c:\\davev4-64bit\\dave-4.2.6\\eclipse\\arm-gcc-49\\arm-none-eabi\\include\\stdint.h"
 887              	 .file 5 "C:\\Users\\Depes Crystalline\\Desktop\\school\\Active_Bike_Lighting_System\\Radar_Core/Libraries/CMSIS/Include/core_cm4.h"