   1              	 .syntax unified
   2              	 .cpu cortex-m4
   3              	 .fpu softvfp
   4              	 .eabi_attribute 20,1
   5              	 .eabi_attribute 21,1
   6              	 .eabi_attribute 23,3
   7              	 .eabi_attribute 24,1
   8              	 .eabi_attribute 25,1
   9              	 .eabi_attribute 26,1
  10              	 .eabi_attribute 30,6
  11              	 .eabi_attribute 34,1
  12              	 .eabi_attribute 18,4
  13              	 .thumb
  14              	 .file "arm_conv_fast_q15.c"
  15              	 .text
  16              	.Ltext0:
  17              	 .cfi_sections .debug_frame
  18              	 .section .text.arm_conv_fast_q15,"ax",%progbits
  19              	 .align 2
  20              	 .global arm_conv_fast_q15
  21              	 .thumb
  22              	 .thumb_func
  24              	arm_conv_fast_q15:
  25              	.LFB139:
  26              	 .file 1 "../Dave/Generated/CMSIS_DSP/FilteringFunctions/arm_conv_fast_q15.c"
   1:../Dave/Generated/CMSIS_DSP/FilteringFunctions/arm_conv_fast_q15.c **** /* ----------------------------------------------------------------------   
   2:../Dave/Generated/CMSIS_DSP/FilteringFunctions/arm_conv_fast_q15.c **** * Copyright (C) 2010-2014 ARM Limited. All rights reserved.   
   3:../Dave/Generated/CMSIS_DSP/FilteringFunctions/arm_conv_fast_q15.c **** *   
   4:../Dave/Generated/CMSIS_DSP/FilteringFunctions/arm_conv_fast_q15.c **** * $Date:        12. March 2014
   5:../Dave/Generated/CMSIS_DSP/FilteringFunctions/arm_conv_fast_q15.c **** * $Revision: 	V1.4.4
   6:../Dave/Generated/CMSIS_DSP/FilteringFunctions/arm_conv_fast_q15.c **** *   
   7:../Dave/Generated/CMSIS_DSP/FilteringFunctions/arm_conv_fast_q15.c **** * Project: 	    CMSIS DSP Library   
   8:../Dave/Generated/CMSIS_DSP/FilteringFunctions/arm_conv_fast_q15.c **** * Title:		arm_conv_fast_q15.c   
   9:../Dave/Generated/CMSIS_DSP/FilteringFunctions/arm_conv_fast_q15.c **** *   
  10:../Dave/Generated/CMSIS_DSP/FilteringFunctions/arm_conv_fast_q15.c **** * Description:	Fast Q15 Convolution.   
  11:../Dave/Generated/CMSIS_DSP/FilteringFunctions/arm_conv_fast_q15.c **** *   
  12:../Dave/Generated/CMSIS_DSP/FilteringFunctions/arm_conv_fast_q15.c **** * Target Processor: Cortex-M4/Cortex-M3
  13:../Dave/Generated/CMSIS_DSP/FilteringFunctions/arm_conv_fast_q15.c **** * 
  14:../Dave/Generated/CMSIS_DSP/FilteringFunctions/arm_conv_fast_q15.c **** * Redistribution and use in source and binary forms, with or without 
  15:../Dave/Generated/CMSIS_DSP/FilteringFunctions/arm_conv_fast_q15.c **** * modification, are permitted provided that the following conditions
  16:../Dave/Generated/CMSIS_DSP/FilteringFunctions/arm_conv_fast_q15.c **** * are met:
  17:../Dave/Generated/CMSIS_DSP/FilteringFunctions/arm_conv_fast_q15.c **** *   - Redistributions of source code must retain the above copyright
  18:../Dave/Generated/CMSIS_DSP/FilteringFunctions/arm_conv_fast_q15.c **** *     notice, this list of conditions and the following disclaimer.
  19:../Dave/Generated/CMSIS_DSP/FilteringFunctions/arm_conv_fast_q15.c **** *   - Redistributions in binary form must reproduce the above copyright
  20:../Dave/Generated/CMSIS_DSP/FilteringFunctions/arm_conv_fast_q15.c **** *     notice, this list of conditions and the following disclaimer in
  21:../Dave/Generated/CMSIS_DSP/FilteringFunctions/arm_conv_fast_q15.c **** *     the documentation and/or other materials provided with the 
  22:../Dave/Generated/CMSIS_DSP/FilteringFunctions/arm_conv_fast_q15.c **** *     distribution.
  23:../Dave/Generated/CMSIS_DSP/FilteringFunctions/arm_conv_fast_q15.c **** *   - Neither the name of ARM LIMITED nor the names of its contributors
  24:../Dave/Generated/CMSIS_DSP/FilteringFunctions/arm_conv_fast_q15.c **** *     may be used to endorse or promote products derived from this
  25:../Dave/Generated/CMSIS_DSP/FilteringFunctions/arm_conv_fast_q15.c **** *     software without specific prior written permission.
  26:../Dave/Generated/CMSIS_DSP/FilteringFunctions/arm_conv_fast_q15.c **** *
  27:../Dave/Generated/CMSIS_DSP/FilteringFunctions/arm_conv_fast_q15.c **** * THIS SOFTWARE IS PROVIDED BY THE COPYRIGHT HOLDERS AND CONTRIBUTORS
  28:../Dave/Generated/CMSIS_DSP/FilteringFunctions/arm_conv_fast_q15.c **** * "AS IS" AND ANY EXPRESS OR IMPLIED WARRANTIES, INCLUDING, BUT NOT
  29:../Dave/Generated/CMSIS_DSP/FilteringFunctions/arm_conv_fast_q15.c **** * LIMITED TO, THE IMPLIED WARRANTIES OF MERCHANTABILITY AND FITNESS
  30:../Dave/Generated/CMSIS_DSP/FilteringFunctions/arm_conv_fast_q15.c **** * FOR A PARTICULAR PURPOSE ARE DISCLAIMED. IN NO EVENT SHALL THE 
  31:../Dave/Generated/CMSIS_DSP/FilteringFunctions/arm_conv_fast_q15.c **** * COPYRIGHT OWNER OR CONTRIBUTORS BE LIABLE FOR ANY DIRECT, INDIRECT,
  32:../Dave/Generated/CMSIS_DSP/FilteringFunctions/arm_conv_fast_q15.c **** * INCIDENTAL, SPECIAL, EXEMPLARY, OR CONSEQUENTIAL DAMAGES (INCLUDING,
  33:../Dave/Generated/CMSIS_DSP/FilteringFunctions/arm_conv_fast_q15.c **** * BUT NOT LIMITED TO, PROCUREMENT OF SUBSTITUTE GOODS OR SERVICES;
  34:../Dave/Generated/CMSIS_DSP/FilteringFunctions/arm_conv_fast_q15.c **** * LOSS OF USE, DATA, OR PROFITS; OR BUSINESS INTERRUPTION) HOWEVER
  35:../Dave/Generated/CMSIS_DSP/FilteringFunctions/arm_conv_fast_q15.c **** * CAUSED AND ON ANY THEORY OF LIABILITY, WHETHER IN CONTRACT, STRICT
  36:../Dave/Generated/CMSIS_DSP/FilteringFunctions/arm_conv_fast_q15.c **** * LIABILITY, OR TORT (INCLUDING NEGLIGENCE OR OTHERWISE) ARISING IN
  37:../Dave/Generated/CMSIS_DSP/FilteringFunctions/arm_conv_fast_q15.c **** * ANY WAY OUT OF THE USE OF THIS SOFTWARE, EVEN IF ADVISED OF THE
  38:../Dave/Generated/CMSIS_DSP/FilteringFunctions/arm_conv_fast_q15.c **** * POSSIBILITY OF SUCH DAMAGE.    
  39:../Dave/Generated/CMSIS_DSP/FilteringFunctions/arm_conv_fast_q15.c **** * -------------------------------------------------------------------- */
  40:../Dave/Generated/CMSIS_DSP/FilteringFunctions/arm_conv_fast_q15.c **** 
  41:../Dave/Generated/CMSIS_DSP/FilteringFunctions/arm_conv_fast_q15.c **** #include "CMSIS_DSP/cmsis_dsp.h"
  42:../Dave/Generated/CMSIS_DSP/FilteringFunctions/arm_conv_fast_q15.c **** 
  43:../Dave/Generated/CMSIS_DSP/FilteringFunctions/arm_conv_fast_q15.c **** /**   
  44:../Dave/Generated/CMSIS_DSP/FilteringFunctions/arm_conv_fast_q15.c ****  * @ingroup groupFilters   
  45:../Dave/Generated/CMSIS_DSP/FilteringFunctions/arm_conv_fast_q15.c ****  */
  46:../Dave/Generated/CMSIS_DSP/FilteringFunctions/arm_conv_fast_q15.c **** 
  47:../Dave/Generated/CMSIS_DSP/FilteringFunctions/arm_conv_fast_q15.c **** /**   
  48:../Dave/Generated/CMSIS_DSP/FilteringFunctions/arm_conv_fast_q15.c ****  * @addtogroup Conv   
  49:../Dave/Generated/CMSIS_DSP/FilteringFunctions/arm_conv_fast_q15.c ****  * @{   
  50:../Dave/Generated/CMSIS_DSP/FilteringFunctions/arm_conv_fast_q15.c ****  */
  51:../Dave/Generated/CMSIS_DSP/FilteringFunctions/arm_conv_fast_q15.c **** 
  52:../Dave/Generated/CMSIS_DSP/FilteringFunctions/arm_conv_fast_q15.c **** /**   
  53:../Dave/Generated/CMSIS_DSP/FilteringFunctions/arm_conv_fast_q15.c ****  * @brief Convolution of Q15 sequences (fast version) for Cortex-M3 and Cortex-M4.   
  54:../Dave/Generated/CMSIS_DSP/FilteringFunctions/arm_conv_fast_q15.c ****  * @param[in] *pSrcA points to the first input sequence.   
  55:../Dave/Generated/CMSIS_DSP/FilteringFunctions/arm_conv_fast_q15.c ****  * @param[in] srcALen length of the first input sequence.   
  56:../Dave/Generated/CMSIS_DSP/FilteringFunctions/arm_conv_fast_q15.c ****  * @param[in] *pSrcB points to the second input sequence.   
  57:../Dave/Generated/CMSIS_DSP/FilteringFunctions/arm_conv_fast_q15.c ****  * @param[in] srcBLen length of the second input sequence.   
  58:../Dave/Generated/CMSIS_DSP/FilteringFunctions/arm_conv_fast_q15.c ****  * @param[out] *pDst points to the location where the output result is written.  Length srcALen+src
  59:../Dave/Generated/CMSIS_DSP/FilteringFunctions/arm_conv_fast_q15.c ****  * @return none.   
  60:../Dave/Generated/CMSIS_DSP/FilteringFunctions/arm_conv_fast_q15.c ****  *   
  61:../Dave/Generated/CMSIS_DSP/FilteringFunctions/arm_conv_fast_q15.c ****  * <b>Scaling and Overflow Behavior:</b>   
  62:../Dave/Generated/CMSIS_DSP/FilteringFunctions/arm_conv_fast_q15.c ****  *   
  63:../Dave/Generated/CMSIS_DSP/FilteringFunctions/arm_conv_fast_q15.c ****  * \par   
  64:../Dave/Generated/CMSIS_DSP/FilteringFunctions/arm_conv_fast_q15.c ****  * This fast version uses a 32-bit accumulator with 2.30 format.   
  65:../Dave/Generated/CMSIS_DSP/FilteringFunctions/arm_conv_fast_q15.c ****  * The accumulator maintains full precision of the intermediate multiplication results   
  66:../Dave/Generated/CMSIS_DSP/FilteringFunctions/arm_conv_fast_q15.c ****  * but provides only a single guard bit. There is no saturation on intermediate additions.   
  67:../Dave/Generated/CMSIS_DSP/FilteringFunctions/arm_conv_fast_q15.c ****  * Thus, if the accumulator overflows it wraps around and distorts the result.   
  68:../Dave/Generated/CMSIS_DSP/FilteringFunctions/arm_conv_fast_q15.c ****  * The input signals should be scaled down to avoid intermediate overflows.   
  69:../Dave/Generated/CMSIS_DSP/FilteringFunctions/arm_conv_fast_q15.c ****  * Scale down the inputs by log2(min(srcALen, srcBLen)) (log2 is read as log to the base 2) times t
  70:../Dave/Generated/CMSIS_DSP/FilteringFunctions/arm_conv_fast_q15.c ****  * as maximum of min(srcALen, srcBLen) number of additions are carried internally.   
  71:../Dave/Generated/CMSIS_DSP/FilteringFunctions/arm_conv_fast_q15.c ****  * The 2.30 accumulator is right shifted by 15 bits and then saturated to 1.15 format to yield the 
  72:../Dave/Generated/CMSIS_DSP/FilteringFunctions/arm_conv_fast_q15.c ****  *   
  73:../Dave/Generated/CMSIS_DSP/FilteringFunctions/arm_conv_fast_q15.c ****  * \par   
  74:../Dave/Generated/CMSIS_DSP/FilteringFunctions/arm_conv_fast_q15.c ****  * See <code>arm_conv_q15()</code> for a slower implementation of this function which uses 64-bit a
  75:../Dave/Generated/CMSIS_DSP/FilteringFunctions/arm_conv_fast_q15.c ****  */
  76:../Dave/Generated/CMSIS_DSP/FilteringFunctions/arm_conv_fast_q15.c **** 
  77:../Dave/Generated/CMSIS_DSP/FilteringFunctions/arm_conv_fast_q15.c **** void arm_conv_fast_q15(
  78:../Dave/Generated/CMSIS_DSP/FilteringFunctions/arm_conv_fast_q15.c ****   q15_t * pSrcA,
  79:../Dave/Generated/CMSIS_DSP/FilteringFunctions/arm_conv_fast_q15.c ****   uint32_t srcALen,
  80:../Dave/Generated/CMSIS_DSP/FilteringFunctions/arm_conv_fast_q15.c ****   q15_t * pSrcB,
  81:../Dave/Generated/CMSIS_DSP/FilteringFunctions/arm_conv_fast_q15.c ****   uint32_t srcBLen,
  82:../Dave/Generated/CMSIS_DSP/FilteringFunctions/arm_conv_fast_q15.c ****   q15_t * pDst)
  83:../Dave/Generated/CMSIS_DSP/FilteringFunctions/arm_conv_fast_q15.c **** {
  27              	 .loc 1 83 0
  28              	 .cfi_startproc
  29              	 
  30              	 
  31              	 
  32 0000 90B4     	 push {r4,r7}
  33              	.LCFI0:
  34              	 .cfi_def_cfa_offset 8
  35              	 .cfi_offset 4,-8
  36              	 .cfi_offset 7,-4
  37 0002 ADF5227D 	 sub sp,sp,#648
  38              	.LCFI1:
  39              	 .cfi_def_cfa_offset 656
  40 0006 00AF     	 add r7,sp,#0
  41              	.LCFI2:
  42              	 .cfi_def_cfa_register 7
  43 0008 07F10C04 	 add r4,r7,#12
  44 000c 2060     	 str r0,[r4]
  45 000e 07F10800 	 add r0,r7,#8
  46 0012 0160     	 str r1,[r0]
  47 0014 391D     	 adds r1,r7,#4
  48 0016 0A60     	 str r2,[r1]
  49 0018 3A46     	 mov r2,r7
  50 001a 1360     	 str r3,[r2]
  84:../Dave/Generated/CMSIS_DSP/FilteringFunctions/arm_conv_fast_q15.c **** #ifndef UNALIGNED_SUPPORT_DISABLE
  85:../Dave/Generated/CMSIS_DSP/FilteringFunctions/arm_conv_fast_q15.c ****   q15_t *pIn1;                                   /* inputA pointer */
  86:../Dave/Generated/CMSIS_DSP/FilteringFunctions/arm_conv_fast_q15.c ****   q15_t *pIn2;                                   /* inputB pointer */
  87:../Dave/Generated/CMSIS_DSP/FilteringFunctions/arm_conv_fast_q15.c ****   q15_t *pOut = pDst;                            /* output pointer */
  51              	 .loc 1 87 0
  52 001c 07F11803 	 add r3,r7,#24
  53 0020 D7F89022 	 ldr r2,[r7,#656]
  54 0024 1A60     	 str r2,[r3]
  88:../Dave/Generated/CMSIS_DSP/FilteringFunctions/arm_conv_fast_q15.c ****   q31_t sum, acc0, acc1, acc2, acc3;             /* Accumulator */
  89:../Dave/Generated/CMSIS_DSP/FilteringFunctions/arm_conv_fast_q15.c ****   q15_t *px;                                     /* Intermediate inputA pointer  */
  90:../Dave/Generated/CMSIS_DSP/FilteringFunctions/arm_conv_fast_q15.c ****   q15_t *py;                                     /* Intermediate inputB pointer  */
  91:../Dave/Generated/CMSIS_DSP/FilteringFunctions/arm_conv_fast_q15.c ****   q15_t *pSrc1, *pSrc2;                          /* Intermediate pointers */
  92:../Dave/Generated/CMSIS_DSP/FilteringFunctions/arm_conv_fast_q15.c ****   q31_t x0, x1, x2, x3, c0;                      /* Temporary variables to hold state and coefficie
  93:../Dave/Generated/CMSIS_DSP/FilteringFunctions/arm_conv_fast_q15.c ****   uint32_t blockSize1, blockSize2, blockSize3, j, k, count, blkCnt;     /* loop counter */
  94:../Dave/Generated/CMSIS_DSP/FilteringFunctions/arm_conv_fast_q15.c **** 
  95:../Dave/Generated/CMSIS_DSP/FilteringFunctions/arm_conv_fast_q15.c ****   /* The algorithm implementation is based on the lengths of the inputs. */
  96:../Dave/Generated/CMSIS_DSP/FilteringFunctions/arm_conv_fast_q15.c ****   /* srcB is always made to slide across srcA. */
  97:../Dave/Generated/CMSIS_DSP/FilteringFunctions/arm_conv_fast_q15.c ****   /* So srcBLen is always considered as shorter or equal to srcALen */
  98:../Dave/Generated/CMSIS_DSP/FilteringFunctions/arm_conv_fast_q15.c ****   if(srcALen >= srcBLen)
  55              	 .loc 1 98 0
  56 0026 07F10802 	 add r2,r7,#8
  57 002a 3B46     	 mov r3,r7
  58 002c 1268     	 ldr r2,[r2]
  59 002e 1B68     	 ldr r3,[r3]
  60 0030 9A42     	 cmp r2,r3
  61 0032 09D3     	 bcc .L2
  99:../Dave/Generated/CMSIS_DSP/FilteringFunctions/arm_conv_fast_q15.c ****   {
 100:../Dave/Generated/CMSIS_DSP/FilteringFunctions/arm_conv_fast_q15.c ****     /* Initialization of inputA pointer */
 101:../Dave/Generated/CMSIS_DSP/FilteringFunctions/arm_conv_fast_q15.c ****     pIn1 = pSrcA;
  62              	 .loc 1 101 0
  63 0034 07F10C03 	 add r3,r7,#12
  64 0038 1B68     	 ldr r3,[r3]
  65 003a C7F88432 	 str r3,[r7,#644]
 102:../Dave/Generated/CMSIS_DSP/FilteringFunctions/arm_conv_fast_q15.c **** 
 103:../Dave/Generated/CMSIS_DSP/FilteringFunctions/arm_conv_fast_q15.c ****     /* Initialization of inputB pointer */
 104:../Dave/Generated/CMSIS_DSP/FilteringFunctions/arm_conv_fast_q15.c ****     pIn2 = pSrcB;
  66              	 .loc 1 104 0
  67 003e 3B1D     	 adds r3,r7,#4
  68 0040 1B68     	 ldr r3,[r3]
  69 0042 C7F88032 	 str r3,[r7,#640]
  70 0046 16E0     	 b .L3
  71              	.L2:
 105:../Dave/Generated/CMSIS_DSP/FilteringFunctions/arm_conv_fast_q15.c ****   }
 106:../Dave/Generated/CMSIS_DSP/FilteringFunctions/arm_conv_fast_q15.c ****   else
 107:../Dave/Generated/CMSIS_DSP/FilteringFunctions/arm_conv_fast_q15.c ****   {
 108:../Dave/Generated/CMSIS_DSP/FilteringFunctions/arm_conv_fast_q15.c ****     /* Initialization of inputA pointer */
 109:../Dave/Generated/CMSIS_DSP/FilteringFunctions/arm_conv_fast_q15.c ****     pIn1 = pSrcB;
  72              	 .loc 1 109 0
  73 0048 3B1D     	 adds r3,r7,#4
  74 004a 1B68     	 ldr r3,[r3]
  75 004c C7F88432 	 str r3,[r7,#644]
 110:../Dave/Generated/CMSIS_DSP/FilteringFunctions/arm_conv_fast_q15.c **** 
 111:../Dave/Generated/CMSIS_DSP/FilteringFunctions/arm_conv_fast_q15.c ****     /* Initialization of inputB pointer */
 112:../Dave/Generated/CMSIS_DSP/FilteringFunctions/arm_conv_fast_q15.c ****     pIn2 = pSrcA;
  76              	 .loc 1 112 0
  77 0050 07F10C03 	 add r3,r7,#12
  78 0054 1B68     	 ldr r3,[r3]
  79 0056 C7F88032 	 str r3,[r7,#640]
 113:../Dave/Generated/CMSIS_DSP/FilteringFunctions/arm_conv_fast_q15.c **** 
 114:../Dave/Generated/CMSIS_DSP/FilteringFunctions/arm_conv_fast_q15.c ****     /* srcBLen is always considered as shorter or equal to srcALen */
 115:../Dave/Generated/CMSIS_DSP/FilteringFunctions/arm_conv_fast_q15.c ****     j = srcBLen;
  80              	 .loc 1 115 0
  81 005a 3B46     	 mov r3,r7
  82 005c 1B68     	 ldr r3,[r3]
  83 005e C7F85432 	 str r3,[r7,#596]
 116:../Dave/Generated/CMSIS_DSP/FilteringFunctions/arm_conv_fast_q15.c ****     srcBLen = srcALen;
  84              	 .loc 1 116 0
  85 0062 3B46     	 mov r3,r7
  86 0064 07F10802 	 add r2,r7,#8
  87 0068 1268     	 ldr r2,[r2]
  88 006a 1A60     	 str r2,[r3]
 117:../Dave/Generated/CMSIS_DSP/FilteringFunctions/arm_conv_fast_q15.c ****     srcALen = j;
  89              	 .loc 1 117 0
  90 006c 07F10803 	 add r3,r7,#8
  91 0070 D7F85422 	 ldr r2,[r7,#596]
  92 0074 1A60     	 str r2,[r3]
  93              	.L3:
 118:../Dave/Generated/CMSIS_DSP/FilteringFunctions/arm_conv_fast_q15.c ****   }
 119:../Dave/Generated/CMSIS_DSP/FilteringFunctions/arm_conv_fast_q15.c **** 
 120:../Dave/Generated/CMSIS_DSP/FilteringFunctions/arm_conv_fast_q15.c ****   /* conv(x,y) at n = x[n] * y[0] + x[n-1] * y[1] + x[n-2] * y[2] + ...+ x[n-N+1] * y[N -1] */
 121:../Dave/Generated/CMSIS_DSP/FilteringFunctions/arm_conv_fast_q15.c ****   /* The function is internally   
 122:../Dave/Generated/CMSIS_DSP/FilteringFunctions/arm_conv_fast_q15.c ****    * divided into three stages according to the number of multiplications that has to be   
 123:../Dave/Generated/CMSIS_DSP/FilteringFunctions/arm_conv_fast_q15.c ****    * taken place between inputA samples and inputB samples. In the first stage of the   
 124:../Dave/Generated/CMSIS_DSP/FilteringFunctions/arm_conv_fast_q15.c ****    * algorithm, the multiplications increase by one for every iteration.   
 125:../Dave/Generated/CMSIS_DSP/FilteringFunctions/arm_conv_fast_q15.c ****    * In the second stage of the algorithm, srcBLen number of multiplications are done.   
 126:../Dave/Generated/CMSIS_DSP/FilteringFunctions/arm_conv_fast_q15.c ****    * In the third stage of the algorithm, the multiplications decrease by one   
 127:../Dave/Generated/CMSIS_DSP/FilteringFunctions/arm_conv_fast_q15.c ****    * for every iteration. */
 128:../Dave/Generated/CMSIS_DSP/FilteringFunctions/arm_conv_fast_q15.c **** 
 129:../Dave/Generated/CMSIS_DSP/FilteringFunctions/arm_conv_fast_q15.c ****   /* The algorithm is implemented in three stages.   
 130:../Dave/Generated/CMSIS_DSP/FilteringFunctions/arm_conv_fast_q15.c ****      The loop counters of each stage is initiated here. */
 131:../Dave/Generated/CMSIS_DSP/FilteringFunctions/arm_conv_fast_q15.c ****   blockSize1 = srcBLen - 1u;
  94              	 .loc 1 131 0
  95 0076 3B46     	 mov r3,r7
  96 0078 1B68     	 ldr r3,[r3]
  97 007a 013B     	 subs r3,r3,#1
  98 007c C7F85C32 	 str r3,[r7,#604]
 132:../Dave/Generated/CMSIS_DSP/FilteringFunctions/arm_conv_fast_q15.c ****   blockSize2 = srcALen - (srcBLen - 1u);
  99              	 .loc 1 132 0
 100 0080 07F10802 	 add r2,r7,#8
 101 0084 3B46     	 mov r3,r7
 102 0086 1268     	 ldr r2,[r2]
 103 0088 1B68     	 ldr r3,[r3]
 104 008a D31A     	 subs r3,r2,r3
 105 008c 0133     	 adds r3,r3,#1
 106 008e C7F84432 	 str r3,[r7,#580]
 133:../Dave/Generated/CMSIS_DSP/FilteringFunctions/arm_conv_fast_q15.c ****   blockSize3 = blockSize1;
 107              	 .loc 1 133 0
 108 0092 D7F85C32 	 ldr r3,[r7,#604]
 109 0096 C7F85832 	 str r3,[r7,#600]
 134:../Dave/Generated/CMSIS_DSP/FilteringFunctions/arm_conv_fast_q15.c **** 
 135:../Dave/Generated/CMSIS_DSP/FilteringFunctions/arm_conv_fast_q15.c ****   /* --------------------------   
 136:../Dave/Generated/CMSIS_DSP/FilteringFunctions/arm_conv_fast_q15.c ****    * Initializations of stage1   
 137:../Dave/Generated/CMSIS_DSP/FilteringFunctions/arm_conv_fast_q15.c ****    * -------------------------*/
 138:../Dave/Generated/CMSIS_DSP/FilteringFunctions/arm_conv_fast_q15.c **** 
 139:../Dave/Generated/CMSIS_DSP/FilteringFunctions/arm_conv_fast_q15.c ****   /* sum = x[0] * y[0]   
 140:../Dave/Generated/CMSIS_DSP/FilteringFunctions/arm_conv_fast_q15.c ****    * sum = x[0] * y[1] + x[1] * y[0]   
 141:../Dave/Generated/CMSIS_DSP/FilteringFunctions/arm_conv_fast_q15.c ****    * ....   
 142:../Dave/Generated/CMSIS_DSP/FilteringFunctions/arm_conv_fast_q15.c ****    * sum = x[0] * y[srcBlen - 1] + x[1] * y[srcBlen - 2] +...+ x[srcBLen - 1] * y[0]   
 143:../Dave/Generated/CMSIS_DSP/FilteringFunctions/arm_conv_fast_q15.c ****    */
 144:../Dave/Generated/CMSIS_DSP/FilteringFunctions/arm_conv_fast_q15.c **** 
 145:../Dave/Generated/CMSIS_DSP/FilteringFunctions/arm_conv_fast_q15.c ****   /* In this stage the MAC operations are increased by 1 for every iteration.   
 146:../Dave/Generated/CMSIS_DSP/FilteringFunctions/arm_conv_fast_q15.c ****      The count variable holds the number of MAC operations performed */
 147:../Dave/Generated/CMSIS_DSP/FilteringFunctions/arm_conv_fast_q15.c ****   count = 1u;
 110              	 .loc 1 147 0
 111 009a 0123     	 movs r3,#1
 112 009c C7F84C32 	 str r3,[r7,#588]
 148:../Dave/Generated/CMSIS_DSP/FilteringFunctions/arm_conv_fast_q15.c **** 
 149:../Dave/Generated/CMSIS_DSP/FilteringFunctions/arm_conv_fast_q15.c ****   /* Working pointer of inputA */
 150:../Dave/Generated/CMSIS_DSP/FilteringFunctions/arm_conv_fast_q15.c ****   px = pIn1;
 113              	 .loc 1 150 0
 114 00a0 07F11403 	 add r3,r7,#20
 115 00a4 D7F88422 	 ldr r2,[r7,#644]
 116 00a8 1A60     	 str r2,[r3]
 151:../Dave/Generated/CMSIS_DSP/FilteringFunctions/arm_conv_fast_q15.c **** 
 152:../Dave/Generated/CMSIS_DSP/FilteringFunctions/arm_conv_fast_q15.c ****   /* Working pointer of inputB */
 153:../Dave/Generated/CMSIS_DSP/FilteringFunctions/arm_conv_fast_q15.c ****   py = pIn2;
 117              	 .loc 1 153 0
 118 00aa 07F11003 	 add r3,r7,#16
 119 00ae D7F88022 	 ldr r2,[r7,#640]
 120 00b2 1A60     	 str r2,[r3]
 154:../Dave/Generated/CMSIS_DSP/FilteringFunctions/arm_conv_fast_q15.c **** 
 155:../Dave/Generated/CMSIS_DSP/FilteringFunctions/arm_conv_fast_q15.c **** 
 156:../Dave/Generated/CMSIS_DSP/FilteringFunctions/arm_conv_fast_q15.c ****   /* ------------------------   
 157:../Dave/Generated/CMSIS_DSP/FilteringFunctions/arm_conv_fast_q15.c ****    * Stage1 process   
 158:../Dave/Generated/CMSIS_DSP/FilteringFunctions/arm_conv_fast_q15.c ****    * ----------------------*/
 159:../Dave/Generated/CMSIS_DSP/FilteringFunctions/arm_conv_fast_q15.c **** 
 160:../Dave/Generated/CMSIS_DSP/FilteringFunctions/arm_conv_fast_q15.c ****   /* For loop unrolling by 4, this stage is divided into two. */
 161:../Dave/Generated/CMSIS_DSP/FilteringFunctions/arm_conv_fast_q15.c ****   /* First part of this stage computes the MAC operations less than 4 */
 162:../Dave/Generated/CMSIS_DSP/FilteringFunctions/arm_conv_fast_q15.c ****   /* Second part of this stage computes the MAC operations greater than or equal to 4 */
 163:../Dave/Generated/CMSIS_DSP/FilteringFunctions/arm_conv_fast_q15.c **** 
 164:../Dave/Generated/CMSIS_DSP/FilteringFunctions/arm_conv_fast_q15.c ****   /* The first part of the stage starts here */
 165:../Dave/Generated/CMSIS_DSP/FilteringFunctions/arm_conv_fast_q15.c ****   while((count < 4u) && (blockSize1 > 0u))
 121              	 .loc 1 165 0
 122 00b4 5CE0     	 b .L4
 123              	.L9:
 166:../Dave/Generated/CMSIS_DSP/FilteringFunctions/arm_conv_fast_q15.c ****   {
 167:../Dave/Generated/CMSIS_DSP/FilteringFunctions/arm_conv_fast_q15.c ****     /* Accumulator is made zero for every iteration */
 168:../Dave/Generated/CMSIS_DSP/FilteringFunctions/arm_conv_fast_q15.c ****     sum = 0;
 124              	 .loc 1 168 0
 125 00b6 0023     	 movs r3,#0
 126 00b8 C7F87C32 	 str r3,[r7,#636]
 169:../Dave/Generated/CMSIS_DSP/FilteringFunctions/arm_conv_fast_q15.c **** 
 170:../Dave/Generated/CMSIS_DSP/FilteringFunctions/arm_conv_fast_q15.c ****     /* Loop over number of MAC operations between   
 171:../Dave/Generated/CMSIS_DSP/FilteringFunctions/arm_conv_fast_q15.c ****      * inputA samples and inputB samples */
 172:../Dave/Generated/CMSIS_DSP/FilteringFunctions/arm_conv_fast_q15.c ****     k = count;
 127              	 .loc 1 172 0
 128 00bc D7F84C32 	 ldr r3,[r7,#588]
 129 00c0 C7F85032 	 str r3,[r7,#592]
 173:../Dave/Generated/CMSIS_DSP/FilteringFunctions/arm_conv_fast_q15.c **** 
 174:../Dave/Generated/CMSIS_DSP/FilteringFunctions/arm_conv_fast_q15.c ****     while(k > 0u)
 130              	 .loc 1 174 0
 131 00c4 2CE0     	 b .L5
 132              	.L7:
 175:../Dave/Generated/CMSIS_DSP/FilteringFunctions/arm_conv_fast_q15.c ****     {
 176:../Dave/Generated/CMSIS_DSP/FilteringFunctions/arm_conv_fast_q15.c ****       /* Perform the multiply-accumulates */
 177:../Dave/Generated/CMSIS_DSP/FilteringFunctions/arm_conv_fast_q15.c ****       sum = __SMLAD(*px++, *py--, sum);
 133              	 .loc 1 177 0
 134 00c6 07F11403 	 add r3,r7,#20
 135 00ca 1B68     	 ldr r3,[r3]
 136 00cc 991C     	 adds r1,r3,#2
 137 00ce 07F11402 	 add r2,r7,#20
 138 00d2 1160     	 str r1,[r2]
 139 00d4 1B88     	 ldrh r3,[r3]
 140 00d6 19B2     	 sxth r1,r3
 141 00d8 07F11003 	 add r3,r7,#16
 142 00dc 1B68     	 ldr r3,[r3]
 143 00de 981E     	 subs r0,r3,#2
 144 00e0 07F11002 	 add r2,r7,#16
 145 00e4 1060     	 str r0,[r2]
 146 00e6 1B88     	 ldrh r3,[r3]
 147 00e8 1AB2     	 sxth r2,r3
 148 00ea D7F87C32 	 ldr r3,[r7,#636]
 149 00ee C7F81812 	 str r1,[r7,#536]
 150 00f2 C7F81422 	 str r2,[r7,#532]
 151 00f6 C7F81032 	 str r3,[r7,#528]
 152              	.LBB68:
 153              	.LBB69:
 154              	 .file 2 "C:\\Users\\Depes Crystalline\\Desktop\\school\\Active_Bike_Lighting_System\\Radar_Core/Libraries/CMSIS/Include/core_cmSimd.h"
   1:C:\Users\Depes Crystalline\Desktop\school\Active_Bike_Lighting_System\Radar_Core/Libraries/CMSIS/Include\core_cmSimd.h **** /**************************************************************************//**
   2:C:\Users\Depes Crystalline\Desktop\school\Active_Bike_Lighting_System\Radar_Core/Libraries/CMSIS/Include\core_cmSimd.h ****  * @file     core_cmSimd.h
   3:C:\Users\Depes Crystalline\Desktop\school\Active_Bike_Lighting_System\Radar_Core/Libraries/CMSIS/Include\core_cmSimd.h ****  * @brief    CMSIS Cortex-M SIMD Header File
   4:C:\Users\Depes Crystalline\Desktop\school\Active_Bike_Lighting_System\Radar_Core/Libraries/CMSIS/Include\core_cmSimd.h ****  * @version  V4.00
   5:C:\Users\Depes Crystalline\Desktop\school\Active_Bike_Lighting_System\Radar_Core/Libraries/CMSIS/Include\core_cmSimd.h ****  * @date     22. August 2014
   6:C:\Users\Depes Crystalline\Desktop\school\Active_Bike_Lighting_System\Radar_Core/Libraries/CMSIS/Include\core_cmSimd.h ****  *
   7:C:\Users\Depes Crystalline\Desktop\school\Active_Bike_Lighting_System\Radar_Core/Libraries/CMSIS/Include\core_cmSimd.h ****  * @note
   8:C:\Users\Depes Crystalline\Desktop\school\Active_Bike_Lighting_System\Radar_Core/Libraries/CMSIS/Include\core_cmSimd.h ****  *
   9:C:\Users\Depes Crystalline\Desktop\school\Active_Bike_Lighting_System\Radar_Core/Libraries/CMSIS/Include\core_cmSimd.h ****  ******************************************************************************/
  10:C:\Users\Depes Crystalline\Desktop\school\Active_Bike_Lighting_System\Radar_Core/Libraries/CMSIS/Include\core_cmSimd.h **** /* Copyright (c) 2009 - 2014 ARM LIMITED
  11:C:\Users\Depes Crystalline\Desktop\school\Active_Bike_Lighting_System\Radar_Core/Libraries/CMSIS/Include\core_cmSimd.h **** 
  12:C:\Users\Depes Crystalline\Desktop\school\Active_Bike_Lighting_System\Radar_Core/Libraries/CMSIS/Include\core_cmSimd.h ****    All rights reserved.
  13:C:\Users\Depes Crystalline\Desktop\school\Active_Bike_Lighting_System\Radar_Core/Libraries/CMSIS/Include\core_cmSimd.h ****    Redistribution and use in source and binary forms, with or without
  14:C:\Users\Depes Crystalline\Desktop\school\Active_Bike_Lighting_System\Radar_Core/Libraries/CMSIS/Include\core_cmSimd.h ****    modification, are permitted provided that the following conditions are met:
  15:C:\Users\Depes Crystalline\Desktop\school\Active_Bike_Lighting_System\Radar_Core/Libraries/CMSIS/Include\core_cmSimd.h ****    - Redistributions of source code must retain the above copyright
  16:C:\Users\Depes Crystalline\Desktop\school\Active_Bike_Lighting_System\Radar_Core/Libraries/CMSIS/Include\core_cmSimd.h ****      notice, this list of conditions and the following disclaimer.
  17:C:\Users\Depes Crystalline\Desktop\school\Active_Bike_Lighting_System\Radar_Core/Libraries/CMSIS/Include\core_cmSimd.h ****    - Redistributions in binary form must reproduce the above copyright
  18:C:\Users\Depes Crystalline\Desktop\school\Active_Bike_Lighting_System\Radar_Core/Libraries/CMSIS/Include\core_cmSimd.h ****      notice, this list of conditions and the following disclaimer in the
  19:C:\Users\Depes Crystalline\Desktop\school\Active_Bike_Lighting_System\Radar_Core/Libraries/CMSIS/Include\core_cmSimd.h ****      documentation and/or other materials provided with the distribution.
  20:C:\Users\Depes Crystalline\Desktop\school\Active_Bike_Lighting_System\Radar_Core/Libraries/CMSIS/Include\core_cmSimd.h ****    - Neither the name of ARM nor the names of its contributors may be used
  21:C:\Users\Depes Crystalline\Desktop\school\Active_Bike_Lighting_System\Radar_Core/Libraries/CMSIS/Include\core_cmSimd.h ****      to endorse or promote products derived from this software without
  22:C:\Users\Depes Crystalline\Desktop\school\Active_Bike_Lighting_System\Radar_Core/Libraries/CMSIS/Include\core_cmSimd.h ****      specific prior written permission.
  23:C:\Users\Depes Crystalline\Desktop\school\Active_Bike_Lighting_System\Radar_Core/Libraries/CMSIS/Include\core_cmSimd.h ****    *
  24:C:\Users\Depes Crystalline\Desktop\school\Active_Bike_Lighting_System\Radar_Core/Libraries/CMSIS/Include\core_cmSimd.h ****    THIS SOFTWARE IS PROVIDED BY THE COPYRIGHT HOLDERS AND CONTRIBUTORS "AS IS"
  25:C:\Users\Depes Crystalline\Desktop\school\Active_Bike_Lighting_System\Radar_Core/Libraries/CMSIS/Include\core_cmSimd.h ****    AND ANY EXPRESS OR IMPLIED WARRANTIES, INCLUDING, BUT NOT LIMITED TO, THE
  26:C:\Users\Depes Crystalline\Desktop\school\Active_Bike_Lighting_System\Radar_Core/Libraries/CMSIS/Include\core_cmSimd.h ****    IMPLIED WARRANTIES OF MERCHANTABILITY AND FITNESS FOR A PARTICULAR PURPOSE
  27:C:\Users\Depes Crystalline\Desktop\school\Active_Bike_Lighting_System\Radar_Core/Libraries/CMSIS/Include\core_cmSimd.h ****    ARE DISCLAIMED. IN NO EVENT SHALL COPYRIGHT HOLDERS AND CONTRIBUTORS BE
  28:C:\Users\Depes Crystalline\Desktop\school\Active_Bike_Lighting_System\Radar_Core/Libraries/CMSIS/Include\core_cmSimd.h ****    LIABLE FOR ANY DIRECT, INDIRECT, INCIDENTAL, SPECIAL, EXEMPLARY, OR
  29:C:\Users\Depes Crystalline\Desktop\school\Active_Bike_Lighting_System\Radar_Core/Libraries/CMSIS/Include\core_cmSimd.h ****    CONSEQUENTIAL DAMAGES (INCLUDING, BUT NOT LIMITED TO, PROCUREMENT OF
  30:C:\Users\Depes Crystalline\Desktop\school\Active_Bike_Lighting_System\Radar_Core/Libraries/CMSIS/Include\core_cmSimd.h ****    SUBSTITUTE GOODS OR SERVICES; LOSS OF USE, DATA, OR PROFITS; OR BUSINESS
  31:C:\Users\Depes Crystalline\Desktop\school\Active_Bike_Lighting_System\Radar_Core/Libraries/CMSIS/Include\core_cmSimd.h ****    INTERRUPTION) HOWEVER CAUSED AND ON ANY THEORY OF LIABILITY, WHETHER IN
  32:C:\Users\Depes Crystalline\Desktop\school\Active_Bike_Lighting_System\Radar_Core/Libraries/CMSIS/Include\core_cmSimd.h ****    CONTRACT, STRICT LIABILITY, OR TORT (INCLUDING NEGLIGENCE OR OTHERWISE)
  33:C:\Users\Depes Crystalline\Desktop\school\Active_Bike_Lighting_System\Radar_Core/Libraries/CMSIS/Include\core_cmSimd.h ****    ARISING IN ANY WAY OUT OF THE USE OF THIS SOFTWARE, EVEN IF ADVISED OF THE
  34:C:\Users\Depes Crystalline\Desktop\school\Active_Bike_Lighting_System\Radar_Core/Libraries/CMSIS/Include\core_cmSimd.h ****    POSSIBILITY OF SUCH DAMAGE.
  35:C:\Users\Depes Crystalline\Desktop\school\Active_Bike_Lighting_System\Radar_Core/Libraries/CMSIS/Include\core_cmSimd.h ****    ---------------------------------------------------------------------------*/
  36:C:\Users\Depes Crystalline\Desktop\school\Active_Bike_Lighting_System\Radar_Core/Libraries/CMSIS/Include\core_cmSimd.h **** 
  37:C:\Users\Depes Crystalline\Desktop\school\Active_Bike_Lighting_System\Radar_Core/Libraries/CMSIS/Include\core_cmSimd.h **** 
  38:C:\Users\Depes Crystalline\Desktop\school\Active_Bike_Lighting_System\Radar_Core/Libraries/CMSIS/Include\core_cmSimd.h **** #if defined ( __ICCARM__ )
  39:C:\Users\Depes Crystalline\Desktop\school\Active_Bike_Lighting_System\Radar_Core/Libraries/CMSIS/Include\core_cmSimd.h ****  #pragma system_include  /* treat file as system include file for MISRA check */
  40:C:\Users\Depes Crystalline\Desktop\school\Active_Bike_Lighting_System\Radar_Core/Libraries/CMSIS/Include\core_cmSimd.h **** #endif
  41:C:\Users\Depes Crystalline\Desktop\school\Active_Bike_Lighting_System\Radar_Core/Libraries/CMSIS/Include\core_cmSimd.h **** 
  42:C:\Users\Depes Crystalline\Desktop\school\Active_Bike_Lighting_System\Radar_Core/Libraries/CMSIS/Include\core_cmSimd.h **** #ifndef __CORE_CMSIMD_H
  43:C:\Users\Depes Crystalline\Desktop\school\Active_Bike_Lighting_System\Radar_Core/Libraries/CMSIS/Include\core_cmSimd.h **** #define __CORE_CMSIMD_H
  44:C:\Users\Depes Crystalline\Desktop\school\Active_Bike_Lighting_System\Radar_Core/Libraries/CMSIS/Include\core_cmSimd.h **** 
  45:C:\Users\Depes Crystalline\Desktop\school\Active_Bike_Lighting_System\Radar_Core/Libraries/CMSIS/Include\core_cmSimd.h **** #ifdef __cplusplus
  46:C:\Users\Depes Crystalline\Desktop\school\Active_Bike_Lighting_System\Radar_Core/Libraries/CMSIS/Include\core_cmSimd.h ****  extern "C" {
  47:C:\Users\Depes Crystalline\Desktop\school\Active_Bike_Lighting_System\Radar_Core/Libraries/CMSIS/Include\core_cmSimd.h **** #endif
  48:C:\Users\Depes Crystalline\Desktop\school\Active_Bike_Lighting_System\Radar_Core/Libraries/CMSIS/Include\core_cmSimd.h **** 
  49:C:\Users\Depes Crystalline\Desktop\school\Active_Bike_Lighting_System\Radar_Core/Libraries/CMSIS/Include\core_cmSimd.h **** 
  50:C:\Users\Depes Crystalline\Desktop\school\Active_Bike_Lighting_System\Radar_Core/Libraries/CMSIS/Include\core_cmSimd.h **** /*******************************************************************************
  51:C:\Users\Depes Crystalline\Desktop\school\Active_Bike_Lighting_System\Radar_Core/Libraries/CMSIS/Include\core_cmSimd.h ****  *                Hardware Abstraction Layer
  52:C:\Users\Depes Crystalline\Desktop\school\Active_Bike_Lighting_System\Radar_Core/Libraries/CMSIS/Include\core_cmSimd.h ****  ******************************************************************************/
  53:C:\Users\Depes Crystalline\Desktop\school\Active_Bike_Lighting_System\Radar_Core/Libraries/CMSIS/Include\core_cmSimd.h **** 
  54:C:\Users\Depes Crystalline\Desktop\school\Active_Bike_Lighting_System\Radar_Core/Libraries/CMSIS/Include\core_cmSimd.h **** 
  55:C:\Users\Depes Crystalline\Desktop\school\Active_Bike_Lighting_System\Radar_Core/Libraries/CMSIS/Include\core_cmSimd.h **** /* ###################  Compiler specific Intrinsics  ########################### */
  56:C:\Users\Depes Crystalline\Desktop\school\Active_Bike_Lighting_System\Radar_Core/Libraries/CMSIS/Include\core_cmSimd.h **** /** \defgroup CMSIS_SIMD_intrinsics CMSIS SIMD Intrinsics
  57:C:\Users\Depes Crystalline\Desktop\school\Active_Bike_Lighting_System\Radar_Core/Libraries/CMSIS/Include\core_cmSimd.h ****   Access to dedicated SIMD instructions
  58:C:\Users\Depes Crystalline\Desktop\school\Active_Bike_Lighting_System\Radar_Core/Libraries/CMSIS/Include\core_cmSimd.h ****   @{
  59:C:\Users\Depes Crystalline\Desktop\school\Active_Bike_Lighting_System\Radar_Core/Libraries/CMSIS/Include\core_cmSimd.h **** */
  60:C:\Users\Depes Crystalline\Desktop\school\Active_Bike_Lighting_System\Radar_Core/Libraries/CMSIS/Include\core_cmSimd.h **** 
  61:C:\Users\Depes Crystalline\Desktop\school\Active_Bike_Lighting_System\Radar_Core/Libraries/CMSIS/Include\core_cmSimd.h **** #if   defined ( __CC_ARM ) /*------------------RealView Compiler -----------------*/
  62:C:\Users\Depes Crystalline\Desktop\school\Active_Bike_Lighting_System\Radar_Core/Libraries/CMSIS/Include\core_cmSimd.h **** /* ARM armcc specific functions */
  63:C:\Users\Depes Crystalline\Desktop\school\Active_Bike_Lighting_System\Radar_Core/Libraries/CMSIS/Include\core_cmSimd.h **** #define __SADD8                           __sadd8
  64:C:\Users\Depes Crystalline\Desktop\school\Active_Bike_Lighting_System\Radar_Core/Libraries/CMSIS/Include\core_cmSimd.h **** #define __QADD8                           __qadd8
  65:C:\Users\Depes Crystalline\Desktop\school\Active_Bike_Lighting_System\Radar_Core/Libraries/CMSIS/Include\core_cmSimd.h **** #define __SHADD8                          __shadd8
  66:C:\Users\Depes Crystalline\Desktop\school\Active_Bike_Lighting_System\Radar_Core/Libraries/CMSIS/Include\core_cmSimd.h **** #define __UADD8                           __uadd8
  67:C:\Users\Depes Crystalline\Desktop\school\Active_Bike_Lighting_System\Radar_Core/Libraries/CMSIS/Include\core_cmSimd.h **** #define __UQADD8                          __uqadd8
  68:C:\Users\Depes Crystalline\Desktop\school\Active_Bike_Lighting_System\Radar_Core/Libraries/CMSIS/Include\core_cmSimd.h **** #define __UHADD8                          __uhadd8
  69:C:\Users\Depes Crystalline\Desktop\school\Active_Bike_Lighting_System\Radar_Core/Libraries/CMSIS/Include\core_cmSimd.h **** #define __SSUB8                           __ssub8
  70:C:\Users\Depes Crystalline\Desktop\school\Active_Bike_Lighting_System\Radar_Core/Libraries/CMSIS/Include\core_cmSimd.h **** #define __QSUB8                           __qsub8
  71:C:\Users\Depes Crystalline\Desktop\school\Active_Bike_Lighting_System\Radar_Core/Libraries/CMSIS/Include\core_cmSimd.h **** #define __SHSUB8                          __shsub8
  72:C:\Users\Depes Crystalline\Desktop\school\Active_Bike_Lighting_System\Radar_Core/Libraries/CMSIS/Include\core_cmSimd.h **** #define __USUB8                           __usub8
  73:C:\Users\Depes Crystalline\Desktop\school\Active_Bike_Lighting_System\Radar_Core/Libraries/CMSIS/Include\core_cmSimd.h **** #define __UQSUB8                          __uqsub8
  74:C:\Users\Depes Crystalline\Desktop\school\Active_Bike_Lighting_System\Radar_Core/Libraries/CMSIS/Include\core_cmSimd.h **** #define __UHSUB8                          __uhsub8
  75:C:\Users\Depes Crystalline\Desktop\school\Active_Bike_Lighting_System\Radar_Core/Libraries/CMSIS/Include\core_cmSimd.h **** #define __SADD16                          __sadd16
  76:C:\Users\Depes Crystalline\Desktop\school\Active_Bike_Lighting_System\Radar_Core/Libraries/CMSIS/Include\core_cmSimd.h **** #define __QADD16                          __qadd16
  77:C:\Users\Depes Crystalline\Desktop\school\Active_Bike_Lighting_System\Radar_Core/Libraries/CMSIS/Include\core_cmSimd.h **** #define __SHADD16                         __shadd16
  78:C:\Users\Depes Crystalline\Desktop\school\Active_Bike_Lighting_System\Radar_Core/Libraries/CMSIS/Include\core_cmSimd.h **** #define __UADD16                          __uadd16
  79:C:\Users\Depes Crystalline\Desktop\school\Active_Bike_Lighting_System\Radar_Core/Libraries/CMSIS/Include\core_cmSimd.h **** #define __UQADD16                         __uqadd16
  80:C:\Users\Depes Crystalline\Desktop\school\Active_Bike_Lighting_System\Radar_Core/Libraries/CMSIS/Include\core_cmSimd.h **** #define __UHADD16                         __uhadd16
  81:C:\Users\Depes Crystalline\Desktop\school\Active_Bike_Lighting_System\Radar_Core/Libraries/CMSIS/Include\core_cmSimd.h **** #define __SSUB16                          __ssub16
  82:C:\Users\Depes Crystalline\Desktop\school\Active_Bike_Lighting_System\Radar_Core/Libraries/CMSIS/Include\core_cmSimd.h **** #define __QSUB16                          __qsub16
  83:C:\Users\Depes Crystalline\Desktop\school\Active_Bike_Lighting_System\Radar_Core/Libraries/CMSIS/Include\core_cmSimd.h **** #define __SHSUB16                         __shsub16
  84:C:\Users\Depes Crystalline\Desktop\school\Active_Bike_Lighting_System\Radar_Core/Libraries/CMSIS/Include\core_cmSimd.h **** #define __USUB16                          __usub16
  85:C:\Users\Depes Crystalline\Desktop\school\Active_Bike_Lighting_System\Radar_Core/Libraries/CMSIS/Include\core_cmSimd.h **** #define __UQSUB16                         __uqsub16
  86:C:\Users\Depes Crystalline\Desktop\school\Active_Bike_Lighting_System\Radar_Core/Libraries/CMSIS/Include\core_cmSimd.h **** #define __UHSUB16                         __uhsub16
  87:C:\Users\Depes Crystalline\Desktop\school\Active_Bike_Lighting_System\Radar_Core/Libraries/CMSIS/Include\core_cmSimd.h **** #define __SASX                            __sasx
  88:C:\Users\Depes Crystalline\Desktop\school\Active_Bike_Lighting_System\Radar_Core/Libraries/CMSIS/Include\core_cmSimd.h **** #define __QASX                            __qasx
  89:C:\Users\Depes Crystalline\Desktop\school\Active_Bike_Lighting_System\Radar_Core/Libraries/CMSIS/Include\core_cmSimd.h **** #define __SHASX                           __shasx
  90:C:\Users\Depes Crystalline\Desktop\school\Active_Bike_Lighting_System\Radar_Core/Libraries/CMSIS/Include\core_cmSimd.h **** #define __UASX                            __uasx
  91:C:\Users\Depes Crystalline\Desktop\school\Active_Bike_Lighting_System\Radar_Core/Libraries/CMSIS/Include\core_cmSimd.h **** #define __UQASX                           __uqasx
  92:C:\Users\Depes Crystalline\Desktop\school\Active_Bike_Lighting_System\Radar_Core/Libraries/CMSIS/Include\core_cmSimd.h **** #define __UHASX                           __uhasx
  93:C:\Users\Depes Crystalline\Desktop\school\Active_Bike_Lighting_System\Radar_Core/Libraries/CMSIS/Include\core_cmSimd.h **** #define __SSAX                            __ssax
  94:C:\Users\Depes Crystalline\Desktop\school\Active_Bike_Lighting_System\Radar_Core/Libraries/CMSIS/Include\core_cmSimd.h **** #define __QSAX                            __qsax
  95:C:\Users\Depes Crystalline\Desktop\school\Active_Bike_Lighting_System\Radar_Core/Libraries/CMSIS/Include\core_cmSimd.h **** #define __SHSAX                           __shsax
  96:C:\Users\Depes Crystalline\Desktop\school\Active_Bike_Lighting_System\Radar_Core/Libraries/CMSIS/Include\core_cmSimd.h **** #define __USAX                            __usax
  97:C:\Users\Depes Crystalline\Desktop\school\Active_Bike_Lighting_System\Radar_Core/Libraries/CMSIS/Include\core_cmSimd.h **** #define __UQSAX                           __uqsax
  98:C:\Users\Depes Crystalline\Desktop\school\Active_Bike_Lighting_System\Radar_Core/Libraries/CMSIS/Include\core_cmSimd.h **** #define __UHSAX                           __uhsax
  99:C:\Users\Depes Crystalline\Desktop\school\Active_Bike_Lighting_System\Radar_Core/Libraries/CMSIS/Include\core_cmSimd.h **** #define __USAD8                           __usad8
 100:C:\Users\Depes Crystalline\Desktop\school\Active_Bike_Lighting_System\Radar_Core/Libraries/CMSIS/Include\core_cmSimd.h **** #define __USADA8                          __usada8
 101:C:\Users\Depes Crystalline\Desktop\school\Active_Bike_Lighting_System\Radar_Core/Libraries/CMSIS/Include\core_cmSimd.h **** #define __SSAT16                          __ssat16
 102:C:\Users\Depes Crystalline\Desktop\school\Active_Bike_Lighting_System\Radar_Core/Libraries/CMSIS/Include\core_cmSimd.h **** #define __USAT16                          __usat16
 103:C:\Users\Depes Crystalline\Desktop\school\Active_Bike_Lighting_System\Radar_Core/Libraries/CMSIS/Include\core_cmSimd.h **** #define __UXTB16                          __uxtb16
 104:C:\Users\Depes Crystalline\Desktop\school\Active_Bike_Lighting_System\Radar_Core/Libraries/CMSIS/Include\core_cmSimd.h **** #define __UXTAB16                         __uxtab16
 105:C:\Users\Depes Crystalline\Desktop\school\Active_Bike_Lighting_System\Radar_Core/Libraries/CMSIS/Include\core_cmSimd.h **** #define __SXTB16                          __sxtb16
 106:C:\Users\Depes Crystalline\Desktop\school\Active_Bike_Lighting_System\Radar_Core/Libraries/CMSIS/Include\core_cmSimd.h **** #define __SXTAB16                         __sxtab16
 107:C:\Users\Depes Crystalline\Desktop\school\Active_Bike_Lighting_System\Radar_Core/Libraries/CMSIS/Include\core_cmSimd.h **** #define __SMUAD                           __smuad
 108:C:\Users\Depes Crystalline\Desktop\school\Active_Bike_Lighting_System\Radar_Core/Libraries/CMSIS/Include\core_cmSimd.h **** #define __SMUADX                          __smuadx
 109:C:\Users\Depes Crystalline\Desktop\school\Active_Bike_Lighting_System\Radar_Core/Libraries/CMSIS/Include\core_cmSimd.h **** #define __SMLAD                           __smlad
 110:C:\Users\Depes Crystalline\Desktop\school\Active_Bike_Lighting_System\Radar_Core/Libraries/CMSIS/Include\core_cmSimd.h **** #define __SMLADX                          __smladx
 111:C:\Users\Depes Crystalline\Desktop\school\Active_Bike_Lighting_System\Radar_Core/Libraries/CMSIS/Include\core_cmSimd.h **** #define __SMLALD                          __smlald
 112:C:\Users\Depes Crystalline\Desktop\school\Active_Bike_Lighting_System\Radar_Core/Libraries/CMSIS/Include\core_cmSimd.h **** #define __SMLALDX                         __smlaldx
 113:C:\Users\Depes Crystalline\Desktop\school\Active_Bike_Lighting_System\Radar_Core/Libraries/CMSIS/Include\core_cmSimd.h **** #define __SMUSD                           __smusd
 114:C:\Users\Depes Crystalline\Desktop\school\Active_Bike_Lighting_System\Radar_Core/Libraries/CMSIS/Include\core_cmSimd.h **** #define __SMUSDX                          __smusdx
 115:C:\Users\Depes Crystalline\Desktop\school\Active_Bike_Lighting_System\Radar_Core/Libraries/CMSIS/Include\core_cmSimd.h **** #define __SMLSD                           __smlsd
 116:C:\Users\Depes Crystalline\Desktop\school\Active_Bike_Lighting_System\Radar_Core/Libraries/CMSIS/Include\core_cmSimd.h **** #define __SMLSDX                          __smlsdx
 117:C:\Users\Depes Crystalline\Desktop\school\Active_Bike_Lighting_System\Radar_Core/Libraries/CMSIS/Include\core_cmSimd.h **** #define __SMLSLD                          __smlsld
 118:C:\Users\Depes Crystalline\Desktop\school\Active_Bike_Lighting_System\Radar_Core/Libraries/CMSIS/Include\core_cmSimd.h **** #define __SMLSLDX                         __smlsldx
 119:C:\Users\Depes Crystalline\Desktop\school\Active_Bike_Lighting_System\Radar_Core/Libraries/CMSIS/Include\core_cmSimd.h **** #define __SEL                             __sel
 120:C:\Users\Depes Crystalline\Desktop\school\Active_Bike_Lighting_System\Radar_Core/Libraries/CMSIS/Include\core_cmSimd.h **** #define __QADD                            __qadd
 121:C:\Users\Depes Crystalline\Desktop\school\Active_Bike_Lighting_System\Radar_Core/Libraries/CMSIS/Include\core_cmSimd.h **** #define __QSUB                            __qsub
 122:C:\Users\Depes Crystalline\Desktop\school\Active_Bike_Lighting_System\Radar_Core/Libraries/CMSIS/Include\core_cmSimd.h **** 
 123:C:\Users\Depes Crystalline\Desktop\school\Active_Bike_Lighting_System\Radar_Core/Libraries/CMSIS/Include\core_cmSimd.h **** #define __PKHBT(ARG1,ARG2,ARG3)          ( ((((uint32_t)(ARG1))          ) & 0x0000FFFFUL) |  \
 124:C:\Users\Depes Crystalline\Desktop\school\Active_Bike_Lighting_System\Radar_Core/Libraries/CMSIS/Include\core_cmSimd.h ****                                            ((((uint32_t)(ARG2)) << (ARG3)) & 0xFFFF0000UL)  )
 125:C:\Users\Depes Crystalline\Desktop\school\Active_Bike_Lighting_System\Radar_Core/Libraries/CMSIS/Include\core_cmSimd.h **** 
 126:C:\Users\Depes Crystalline\Desktop\school\Active_Bike_Lighting_System\Radar_Core/Libraries/CMSIS/Include\core_cmSimd.h **** #define __PKHTB(ARG1,ARG2,ARG3)          ( ((((uint32_t)(ARG1))          ) & 0xFFFF0000UL) |  \
 127:C:\Users\Depes Crystalline\Desktop\school\Active_Bike_Lighting_System\Radar_Core/Libraries/CMSIS/Include\core_cmSimd.h ****                                            ((((uint32_t)(ARG2)) >> (ARG3)) & 0x0000FFFFUL)  )
 128:C:\Users\Depes Crystalline\Desktop\school\Active_Bike_Lighting_System\Radar_Core/Libraries/CMSIS/Include\core_cmSimd.h **** 
 129:C:\Users\Depes Crystalline\Desktop\school\Active_Bike_Lighting_System\Radar_Core/Libraries/CMSIS/Include\core_cmSimd.h **** #define __SMMLA(ARG1,ARG2,ARG3)          ( (int32_t)((((int64_t)(ARG1) * (ARG2)) + \
 130:C:\Users\Depes Crystalline\Desktop\school\Active_Bike_Lighting_System\Radar_Core/Libraries/CMSIS/Include\core_cmSimd.h ****                                                       ((int64_t)(ARG3) << 32)      ) >> 32))
 131:C:\Users\Depes Crystalline\Desktop\school\Active_Bike_Lighting_System\Radar_Core/Libraries/CMSIS/Include\core_cmSimd.h **** 
 132:C:\Users\Depes Crystalline\Desktop\school\Active_Bike_Lighting_System\Radar_Core/Libraries/CMSIS/Include\core_cmSimd.h **** 
 133:C:\Users\Depes Crystalline\Desktop\school\Active_Bike_Lighting_System\Radar_Core/Libraries/CMSIS/Include\core_cmSimd.h **** #elif defined ( __GNUC__ ) /*------------------ GNU Compiler ---------------------*/
 134:C:\Users\Depes Crystalline\Desktop\school\Active_Bike_Lighting_System\Radar_Core/Libraries/CMSIS/Include\core_cmSimd.h **** /* GNU gcc specific functions */
 135:C:\Users\Depes Crystalline\Desktop\school\Active_Bike_Lighting_System\Radar_Core/Libraries/CMSIS/Include\core_cmSimd.h **** __attribute__( ( always_inline ) ) __STATIC_INLINE uint32_t __SADD8(uint32_t op1, uint32_t op2)
 136:C:\Users\Depes Crystalline\Desktop\school\Active_Bike_Lighting_System\Radar_Core/Libraries/CMSIS/Include\core_cmSimd.h **** {
 137:C:\Users\Depes Crystalline\Desktop\school\Active_Bike_Lighting_System\Radar_Core/Libraries/CMSIS/Include\core_cmSimd.h ****   uint32_t result;
 138:C:\Users\Depes Crystalline\Desktop\school\Active_Bike_Lighting_System\Radar_Core/Libraries/CMSIS/Include\core_cmSimd.h **** 
 139:C:\Users\Depes Crystalline\Desktop\school\Active_Bike_Lighting_System\Radar_Core/Libraries/CMSIS/Include\core_cmSimd.h ****   __ASM volatile ("sadd8 %0, %1, %2" : "=r" (result) : "r" (op1), "r" (op2) );
 140:C:\Users\Depes Crystalline\Desktop\school\Active_Bike_Lighting_System\Radar_Core/Libraries/CMSIS/Include\core_cmSimd.h ****   return(result);
 141:C:\Users\Depes Crystalline\Desktop\school\Active_Bike_Lighting_System\Radar_Core/Libraries/CMSIS/Include\core_cmSimd.h **** }
 142:C:\Users\Depes Crystalline\Desktop\school\Active_Bike_Lighting_System\Radar_Core/Libraries/CMSIS/Include\core_cmSimd.h **** 
 143:C:\Users\Depes Crystalline\Desktop\school\Active_Bike_Lighting_System\Radar_Core/Libraries/CMSIS/Include\core_cmSimd.h **** __attribute__( ( always_inline ) ) __STATIC_INLINE uint32_t __QADD8(uint32_t op1, uint32_t op2)
 144:C:\Users\Depes Crystalline\Desktop\school\Active_Bike_Lighting_System\Radar_Core/Libraries/CMSIS/Include\core_cmSimd.h **** {
 145:C:\Users\Depes Crystalline\Desktop\school\Active_Bike_Lighting_System\Radar_Core/Libraries/CMSIS/Include\core_cmSimd.h ****   uint32_t result;
 146:C:\Users\Depes Crystalline\Desktop\school\Active_Bike_Lighting_System\Radar_Core/Libraries/CMSIS/Include\core_cmSimd.h **** 
 147:C:\Users\Depes Crystalline\Desktop\school\Active_Bike_Lighting_System\Radar_Core/Libraries/CMSIS/Include\core_cmSimd.h ****   __ASM volatile ("qadd8 %0, %1, %2" : "=r" (result) : "r" (op1), "r" (op2) );
 148:C:\Users\Depes Crystalline\Desktop\school\Active_Bike_Lighting_System\Radar_Core/Libraries/CMSIS/Include\core_cmSimd.h ****   return(result);
 149:C:\Users\Depes Crystalline\Desktop\school\Active_Bike_Lighting_System\Radar_Core/Libraries/CMSIS/Include\core_cmSimd.h **** }
 150:C:\Users\Depes Crystalline\Desktop\school\Active_Bike_Lighting_System\Radar_Core/Libraries/CMSIS/Include\core_cmSimd.h **** 
 151:C:\Users\Depes Crystalline\Desktop\school\Active_Bike_Lighting_System\Radar_Core/Libraries/CMSIS/Include\core_cmSimd.h **** __attribute__( ( always_inline ) ) __STATIC_INLINE uint32_t __SHADD8(uint32_t op1, uint32_t op2)
 152:C:\Users\Depes Crystalline\Desktop\school\Active_Bike_Lighting_System\Radar_Core/Libraries/CMSIS/Include\core_cmSimd.h **** {
 153:C:\Users\Depes Crystalline\Desktop\school\Active_Bike_Lighting_System\Radar_Core/Libraries/CMSIS/Include\core_cmSimd.h ****   uint32_t result;
 154:C:\Users\Depes Crystalline\Desktop\school\Active_Bike_Lighting_System\Radar_Core/Libraries/CMSIS/Include\core_cmSimd.h **** 
 155:C:\Users\Depes Crystalline\Desktop\school\Active_Bike_Lighting_System\Radar_Core/Libraries/CMSIS/Include\core_cmSimd.h ****   __ASM volatile ("shadd8 %0, %1, %2" : "=r" (result) : "r" (op1), "r" (op2) );
 156:C:\Users\Depes Crystalline\Desktop\school\Active_Bike_Lighting_System\Radar_Core/Libraries/CMSIS/Include\core_cmSimd.h ****   return(result);
 157:C:\Users\Depes Crystalline\Desktop\school\Active_Bike_Lighting_System\Radar_Core/Libraries/CMSIS/Include\core_cmSimd.h **** }
 158:C:\Users\Depes Crystalline\Desktop\school\Active_Bike_Lighting_System\Radar_Core/Libraries/CMSIS/Include\core_cmSimd.h **** 
 159:C:\Users\Depes Crystalline\Desktop\school\Active_Bike_Lighting_System\Radar_Core/Libraries/CMSIS/Include\core_cmSimd.h **** __attribute__( ( always_inline ) ) __STATIC_INLINE uint32_t __UADD8(uint32_t op1, uint32_t op2)
 160:C:\Users\Depes Crystalline\Desktop\school\Active_Bike_Lighting_System\Radar_Core/Libraries/CMSIS/Include\core_cmSimd.h **** {
 161:C:\Users\Depes Crystalline\Desktop\school\Active_Bike_Lighting_System\Radar_Core/Libraries/CMSIS/Include\core_cmSimd.h ****   uint32_t result;
 162:C:\Users\Depes Crystalline\Desktop\school\Active_Bike_Lighting_System\Radar_Core/Libraries/CMSIS/Include\core_cmSimd.h **** 
 163:C:\Users\Depes Crystalline\Desktop\school\Active_Bike_Lighting_System\Radar_Core/Libraries/CMSIS/Include\core_cmSimd.h ****   __ASM volatile ("uadd8 %0, %1, %2" : "=r" (result) : "r" (op1), "r" (op2) );
 164:C:\Users\Depes Crystalline\Desktop\school\Active_Bike_Lighting_System\Radar_Core/Libraries/CMSIS/Include\core_cmSimd.h ****   return(result);
 165:C:\Users\Depes Crystalline\Desktop\school\Active_Bike_Lighting_System\Radar_Core/Libraries/CMSIS/Include\core_cmSimd.h **** }
 166:C:\Users\Depes Crystalline\Desktop\school\Active_Bike_Lighting_System\Radar_Core/Libraries/CMSIS/Include\core_cmSimd.h **** 
 167:C:\Users\Depes Crystalline\Desktop\school\Active_Bike_Lighting_System\Radar_Core/Libraries/CMSIS/Include\core_cmSimd.h **** __attribute__( ( always_inline ) ) __STATIC_INLINE uint32_t __UQADD8(uint32_t op1, uint32_t op2)
 168:C:\Users\Depes Crystalline\Desktop\school\Active_Bike_Lighting_System\Radar_Core/Libraries/CMSIS/Include\core_cmSimd.h **** {
 169:C:\Users\Depes Crystalline\Desktop\school\Active_Bike_Lighting_System\Radar_Core/Libraries/CMSIS/Include\core_cmSimd.h ****   uint32_t result;
 170:C:\Users\Depes Crystalline\Desktop\school\Active_Bike_Lighting_System\Radar_Core/Libraries/CMSIS/Include\core_cmSimd.h **** 
 171:C:\Users\Depes Crystalline\Desktop\school\Active_Bike_Lighting_System\Radar_Core/Libraries/CMSIS/Include\core_cmSimd.h ****   __ASM volatile ("uqadd8 %0, %1, %2" : "=r" (result) : "r" (op1), "r" (op2) );
 172:C:\Users\Depes Crystalline\Desktop\school\Active_Bike_Lighting_System\Radar_Core/Libraries/CMSIS/Include\core_cmSimd.h ****   return(result);
 173:C:\Users\Depes Crystalline\Desktop\school\Active_Bike_Lighting_System\Radar_Core/Libraries/CMSIS/Include\core_cmSimd.h **** }
 174:C:\Users\Depes Crystalline\Desktop\school\Active_Bike_Lighting_System\Radar_Core/Libraries/CMSIS/Include\core_cmSimd.h **** 
 175:C:\Users\Depes Crystalline\Desktop\school\Active_Bike_Lighting_System\Radar_Core/Libraries/CMSIS/Include\core_cmSimd.h **** __attribute__( ( always_inline ) ) __STATIC_INLINE uint32_t __UHADD8(uint32_t op1, uint32_t op2)
 176:C:\Users\Depes Crystalline\Desktop\school\Active_Bike_Lighting_System\Radar_Core/Libraries/CMSIS/Include\core_cmSimd.h **** {
 177:C:\Users\Depes Crystalline\Desktop\school\Active_Bike_Lighting_System\Radar_Core/Libraries/CMSIS/Include\core_cmSimd.h ****   uint32_t result;
 178:C:\Users\Depes Crystalline\Desktop\school\Active_Bike_Lighting_System\Radar_Core/Libraries/CMSIS/Include\core_cmSimd.h **** 
 179:C:\Users\Depes Crystalline\Desktop\school\Active_Bike_Lighting_System\Radar_Core/Libraries/CMSIS/Include\core_cmSimd.h ****   __ASM volatile ("uhadd8 %0, %1, %2" : "=r" (result) : "r" (op1), "r" (op2) );
 180:C:\Users\Depes Crystalline\Desktop\school\Active_Bike_Lighting_System\Radar_Core/Libraries/CMSIS/Include\core_cmSimd.h ****   return(result);
 181:C:\Users\Depes Crystalline\Desktop\school\Active_Bike_Lighting_System\Radar_Core/Libraries/CMSIS/Include\core_cmSimd.h **** }
 182:C:\Users\Depes Crystalline\Desktop\school\Active_Bike_Lighting_System\Radar_Core/Libraries/CMSIS/Include\core_cmSimd.h **** 
 183:C:\Users\Depes Crystalline\Desktop\school\Active_Bike_Lighting_System\Radar_Core/Libraries/CMSIS/Include\core_cmSimd.h **** 
 184:C:\Users\Depes Crystalline\Desktop\school\Active_Bike_Lighting_System\Radar_Core/Libraries/CMSIS/Include\core_cmSimd.h **** __attribute__( ( always_inline ) ) __STATIC_INLINE uint32_t __SSUB8(uint32_t op1, uint32_t op2)
 185:C:\Users\Depes Crystalline\Desktop\school\Active_Bike_Lighting_System\Radar_Core/Libraries/CMSIS/Include\core_cmSimd.h **** {
 186:C:\Users\Depes Crystalline\Desktop\school\Active_Bike_Lighting_System\Radar_Core/Libraries/CMSIS/Include\core_cmSimd.h ****   uint32_t result;
 187:C:\Users\Depes Crystalline\Desktop\school\Active_Bike_Lighting_System\Radar_Core/Libraries/CMSIS/Include\core_cmSimd.h **** 
 188:C:\Users\Depes Crystalline\Desktop\school\Active_Bike_Lighting_System\Radar_Core/Libraries/CMSIS/Include\core_cmSimd.h ****   __ASM volatile ("ssub8 %0, %1, %2" : "=r" (result) : "r" (op1), "r" (op2) );
 189:C:\Users\Depes Crystalline\Desktop\school\Active_Bike_Lighting_System\Radar_Core/Libraries/CMSIS/Include\core_cmSimd.h ****   return(result);
 190:C:\Users\Depes Crystalline\Desktop\school\Active_Bike_Lighting_System\Radar_Core/Libraries/CMSIS/Include\core_cmSimd.h **** }
 191:C:\Users\Depes Crystalline\Desktop\school\Active_Bike_Lighting_System\Radar_Core/Libraries/CMSIS/Include\core_cmSimd.h **** 
 192:C:\Users\Depes Crystalline\Desktop\school\Active_Bike_Lighting_System\Radar_Core/Libraries/CMSIS/Include\core_cmSimd.h **** __attribute__( ( always_inline ) ) __STATIC_INLINE uint32_t __QSUB8(uint32_t op1, uint32_t op2)
 193:C:\Users\Depes Crystalline\Desktop\school\Active_Bike_Lighting_System\Radar_Core/Libraries/CMSIS/Include\core_cmSimd.h **** {
 194:C:\Users\Depes Crystalline\Desktop\school\Active_Bike_Lighting_System\Radar_Core/Libraries/CMSIS/Include\core_cmSimd.h ****   uint32_t result;
 195:C:\Users\Depes Crystalline\Desktop\school\Active_Bike_Lighting_System\Radar_Core/Libraries/CMSIS/Include\core_cmSimd.h **** 
 196:C:\Users\Depes Crystalline\Desktop\school\Active_Bike_Lighting_System\Radar_Core/Libraries/CMSIS/Include\core_cmSimd.h ****   __ASM volatile ("qsub8 %0, %1, %2" : "=r" (result) : "r" (op1), "r" (op2) );
 197:C:\Users\Depes Crystalline\Desktop\school\Active_Bike_Lighting_System\Radar_Core/Libraries/CMSIS/Include\core_cmSimd.h ****   return(result);
 198:C:\Users\Depes Crystalline\Desktop\school\Active_Bike_Lighting_System\Radar_Core/Libraries/CMSIS/Include\core_cmSimd.h **** }
 199:C:\Users\Depes Crystalline\Desktop\school\Active_Bike_Lighting_System\Radar_Core/Libraries/CMSIS/Include\core_cmSimd.h **** 
 200:C:\Users\Depes Crystalline\Desktop\school\Active_Bike_Lighting_System\Radar_Core/Libraries/CMSIS/Include\core_cmSimd.h **** __attribute__( ( always_inline ) ) __STATIC_INLINE uint32_t __SHSUB8(uint32_t op1, uint32_t op2)
 201:C:\Users\Depes Crystalline\Desktop\school\Active_Bike_Lighting_System\Radar_Core/Libraries/CMSIS/Include\core_cmSimd.h **** {
 202:C:\Users\Depes Crystalline\Desktop\school\Active_Bike_Lighting_System\Radar_Core/Libraries/CMSIS/Include\core_cmSimd.h ****   uint32_t result;
 203:C:\Users\Depes Crystalline\Desktop\school\Active_Bike_Lighting_System\Radar_Core/Libraries/CMSIS/Include\core_cmSimd.h **** 
 204:C:\Users\Depes Crystalline\Desktop\school\Active_Bike_Lighting_System\Radar_Core/Libraries/CMSIS/Include\core_cmSimd.h ****   __ASM volatile ("shsub8 %0, %1, %2" : "=r" (result) : "r" (op1), "r" (op2) );
 205:C:\Users\Depes Crystalline\Desktop\school\Active_Bike_Lighting_System\Radar_Core/Libraries/CMSIS/Include\core_cmSimd.h ****   return(result);
 206:C:\Users\Depes Crystalline\Desktop\school\Active_Bike_Lighting_System\Radar_Core/Libraries/CMSIS/Include\core_cmSimd.h **** }
 207:C:\Users\Depes Crystalline\Desktop\school\Active_Bike_Lighting_System\Radar_Core/Libraries/CMSIS/Include\core_cmSimd.h **** 
 208:C:\Users\Depes Crystalline\Desktop\school\Active_Bike_Lighting_System\Radar_Core/Libraries/CMSIS/Include\core_cmSimd.h **** __attribute__( ( always_inline ) ) __STATIC_INLINE uint32_t __USUB8(uint32_t op1, uint32_t op2)
 209:C:\Users\Depes Crystalline\Desktop\school\Active_Bike_Lighting_System\Radar_Core/Libraries/CMSIS/Include\core_cmSimd.h **** {
 210:C:\Users\Depes Crystalline\Desktop\school\Active_Bike_Lighting_System\Radar_Core/Libraries/CMSIS/Include\core_cmSimd.h ****   uint32_t result;
 211:C:\Users\Depes Crystalline\Desktop\school\Active_Bike_Lighting_System\Radar_Core/Libraries/CMSIS/Include\core_cmSimd.h **** 
 212:C:\Users\Depes Crystalline\Desktop\school\Active_Bike_Lighting_System\Radar_Core/Libraries/CMSIS/Include\core_cmSimd.h ****   __ASM volatile ("usub8 %0, %1, %2" : "=r" (result) : "r" (op1), "r" (op2) );
 213:C:\Users\Depes Crystalline\Desktop\school\Active_Bike_Lighting_System\Radar_Core/Libraries/CMSIS/Include\core_cmSimd.h ****   return(result);
 214:C:\Users\Depes Crystalline\Desktop\school\Active_Bike_Lighting_System\Radar_Core/Libraries/CMSIS/Include\core_cmSimd.h **** }
 215:C:\Users\Depes Crystalline\Desktop\school\Active_Bike_Lighting_System\Radar_Core/Libraries/CMSIS/Include\core_cmSimd.h **** 
 216:C:\Users\Depes Crystalline\Desktop\school\Active_Bike_Lighting_System\Radar_Core/Libraries/CMSIS/Include\core_cmSimd.h **** __attribute__( ( always_inline ) ) __STATIC_INLINE uint32_t __UQSUB8(uint32_t op1, uint32_t op2)
 217:C:\Users\Depes Crystalline\Desktop\school\Active_Bike_Lighting_System\Radar_Core/Libraries/CMSIS/Include\core_cmSimd.h **** {
 218:C:\Users\Depes Crystalline\Desktop\school\Active_Bike_Lighting_System\Radar_Core/Libraries/CMSIS/Include\core_cmSimd.h ****   uint32_t result;
 219:C:\Users\Depes Crystalline\Desktop\school\Active_Bike_Lighting_System\Radar_Core/Libraries/CMSIS/Include\core_cmSimd.h **** 
 220:C:\Users\Depes Crystalline\Desktop\school\Active_Bike_Lighting_System\Radar_Core/Libraries/CMSIS/Include\core_cmSimd.h ****   __ASM volatile ("uqsub8 %0, %1, %2" : "=r" (result) : "r" (op1), "r" (op2) );
 221:C:\Users\Depes Crystalline\Desktop\school\Active_Bike_Lighting_System\Radar_Core/Libraries/CMSIS/Include\core_cmSimd.h ****   return(result);
 222:C:\Users\Depes Crystalline\Desktop\school\Active_Bike_Lighting_System\Radar_Core/Libraries/CMSIS/Include\core_cmSimd.h **** }
 223:C:\Users\Depes Crystalline\Desktop\school\Active_Bike_Lighting_System\Radar_Core/Libraries/CMSIS/Include\core_cmSimd.h **** 
 224:C:\Users\Depes Crystalline\Desktop\school\Active_Bike_Lighting_System\Radar_Core/Libraries/CMSIS/Include\core_cmSimd.h **** __attribute__( ( always_inline ) ) __STATIC_INLINE uint32_t __UHSUB8(uint32_t op1, uint32_t op2)
 225:C:\Users\Depes Crystalline\Desktop\school\Active_Bike_Lighting_System\Radar_Core/Libraries/CMSIS/Include\core_cmSimd.h **** {
 226:C:\Users\Depes Crystalline\Desktop\school\Active_Bike_Lighting_System\Radar_Core/Libraries/CMSIS/Include\core_cmSimd.h ****   uint32_t result;
 227:C:\Users\Depes Crystalline\Desktop\school\Active_Bike_Lighting_System\Radar_Core/Libraries/CMSIS/Include\core_cmSimd.h **** 
 228:C:\Users\Depes Crystalline\Desktop\school\Active_Bike_Lighting_System\Radar_Core/Libraries/CMSIS/Include\core_cmSimd.h ****   __ASM volatile ("uhsub8 %0, %1, %2" : "=r" (result) : "r" (op1), "r" (op2) );
 229:C:\Users\Depes Crystalline\Desktop\school\Active_Bike_Lighting_System\Radar_Core/Libraries/CMSIS/Include\core_cmSimd.h ****   return(result);
 230:C:\Users\Depes Crystalline\Desktop\school\Active_Bike_Lighting_System\Radar_Core/Libraries/CMSIS/Include\core_cmSimd.h **** }
 231:C:\Users\Depes Crystalline\Desktop\school\Active_Bike_Lighting_System\Radar_Core/Libraries/CMSIS/Include\core_cmSimd.h **** 
 232:C:\Users\Depes Crystalline\Desktop\school\Active_Bike_Lighting_System\Radar_Core/Libraries/CMSIS/Include\core_cmSimd.h **** 
 233:C:\Users\Depes Crystalline\Desktop\school\Active_Bike_Lighting_System\Radar_Core/Libraries/CMSIS/Include\core_cmSimd.h **** __attribute__( ( always_inline ) ) __STATIC_INLINE uint32_t __SADD16(uint32_t op1, uint32_t op2)
 234:C:\Users\Depes Crystalline\Desktop\school\Active_Bike_Lighting_System\Radar_Core/Libraries/CMSIS/Include\core_cmSimd.h **** {
 235:C:\Users\Depes Crystalline\Desktop\school\Active_Bike_Lighting_System\Radar_Core/Libraries/CMSIS/Include\core_cmSimd.h ****   uint32_t result;
 236:C:\Users\Depes Crystalline\Desktop\school\Active_Bike_Lighting_System\Radar_Core/Libraries/CMSIS/Include\core_cmSimd.h **** 
 237:C:\Users\Depes Crystalline\Desktop\school\Active_Bike_Lighting_System\Radar_Core/Libraries/CMSIS/Include\core_cmSimd.h ****   __ASM volatile ("sadd16 %0, %1, %2" : "=r" (result) : "r" (op1), "r" (op2) );
 238:C:\Users\Depes Crystalline\Desktop\school\Active_Bike_Lighting_System\Radar_Core/Libraries/CMSIS/Include\core_cmSimd.h ****   return(result);
 239:C:\Users\Depes Crystalline\Desktop\school\Active_Bike_Lighting_System\Radar_Core/Libraries/CMSIS/Include\core_cmSimd.h **** }
 240:C:\Users\Depes Crystalline\Desktop\school\Active_Bike_Lighting_System\Radar_Core/Libraries/CMSIS/Include\core_cmSimd.h **** 
 241:C:\Users\Depes Crystalline\Desktop\school\Active_Bike_Lighting_System\Radar_Core/Libraries/CMSIS/Include\core_cmSimd.h **** __attribute__( ( always_inline ) ) __STATIC_INLINE uint32_t __QADD16(uint32_t op1, uint32_t op2)
 242:C:\Users\Depes Crystalline\Desktop\school\Active_Bike_Lighting_System\Radar_Core/Libraries/CMSIS/Include\core_cmSimd.h **** {
 243:C:\Users\Depes Crystalline\Desktop\school\Active_Bike_Lighting_System\Radar_Core/Libraries/CMSIS/Include\core_cmSimd.h ****   uint32_t result;
 244:C:\Users\Depes Crystalline\Desktop\school\Active_Bike_Lighting_System\Radar_Core/Libraries/CMSIS/Include\core_cmSimd.h **** 
 245:C:\Users\Depes Crystalline\Desktop\school\Active_Bike_Lighting_System\Radar_Core/Libraries/CMSIS/Include\core_cmSimd.h ****   __ASM volatile ("qadd16 %0, %1, %2" : "=r" (result) : "r" (op1), "r" (op2) );
 246:C:\Users\Depes Crystalline\Desktop\school\Active_Bike_Lighting_System\Radar_Core/Libraries/CMSIS/Include\core_cmSimd.h ****   return(result);
 247:C:\Users\Depes Crystalline\Desktop\school\Active_Bike_Lighting_System\Radar_Core/Libraries/CMSIS/Include\core_cmSimd.h **** }
 248:C:\Users\Depes Crystalline\Desktop\school\Active_Bike_Lighting_System\Radar_Core/Libraries/CMSIS/Include\core_cmSimd.h **** 
 249:C:\Users\Depes Crystalline\Desktop\school\Active_Bike_Lighting_System\Radar_Core/Libraries/CMSIS/Include\core_cmSimd.h **** __attribute__( ( always_inline ) ) __STATIC_INLINE uint32_t __SHADD16(uint32_t op1, uint32_t op2)
 250:C:\Users\Depes Crystalline\Desktop\school\Active_Bike_Lighting_System\Radar_Core/Libraries/CMSIS/Include\core_cmSimd.h **** {
 251:C:\Users\Depes Crystalline\Desktop\school\Active_Bike_Lighting_System\Radar_Core/Libraries/CMSIS/Include\core_cmSimd.h ****   uint32_t result;
 252:C:\Users\Depes Crystalline\Desktop\school\Active_Bike_Lighting_System\Radar_Core/Libraries/CMSIS/Include\core_cmSimd.h **** 
 253:C:\Users\Depes Crystalline\Desktop\school\Active_Bike_Lighting_System\Radar_Core/Libraries/CMSIS/Include\core_cmSimd.h ****   __ASM volatile ("shadd16 %0, %1, %2" : "=r" (result) : "r" (op1), "r" (op2) );
 254:C:\Users\Depes Crystalline\Desktop\school\Active_Bike_Lighting_System\Radar_Core/Libraries/CMSIS/Include\core_cmSimd.h ****   return(result);
 255:C:\Users\Depes Crystalline\Desktop\school\Active_Bike_Lighting_System\Radar_Core/Libraries/CMSIS/Include\core_cmSimd.h **** }
 256:C:\Users\Depes Crystalline\Desktop\school\Active_Bike_Lighting_System\Radar_Core/Libraries/CMSIS/Include\core_cmSimd.h **** 
 257:C:\Users\Depes Crystalline\Desktop\school\Active_Bike_Lighting_System\Radar_Core/Libraries/CMSIS/Include\core_cmSimd.h **** __attribute__( ( always_inline ) ) __STATIC_INLINE uint32_t __UADD16(uint32_t op1, uint32_t op2)
 258:C:\Users\Depes Crystalline\Desktop\school\Active_Bike_Lighting_System\Radar_Core/Libraries/CMSIS/Include\core_cmSimd.h **** {
 259:C:\Users\Depes Crystalline\Desktop\school\Active_Bike_Lighting_System\Radar_Core/Libraries/CMSIS/Include\core_cmSimd.h ****   uint32_t result;
 260:C:\Users\Depes Crystalline\Desktop\school\Active_Bike_Lighting_System\Radar_Core/Libraries/CMSIS/Include\core_cmSimd.h **** 
 261:C:\Users\Depes Crystalline\Desktop\school\Active_Bike_Lighting_System\Radar_Core/Libraries/CMSIS/Include\core_cmSimd.h ****   __ASM volatile ("uadd16 %0, %1, %2" : "=r" (result) : "r" (op1), "r" (op2) );
 262:C:\Users\Depes Crystalline\Desktop\school\Active_Bike_Lighting_System\Radar_Core/Libraries/CMSIS/Include\core_cmSimd.h ****   return(result);
 263:C:\Users\Depes Crystalline\Desktop\school\Active_Bike_Lighting_System\Radar_Core/Libraries/CMSIS/Include\core_cmSimd.h **** }
 264:C:\Users\Depes Crystalline\Desktop\school\Active_Bike_Lighting_System\Radar_Core/Libraries/CMSIS/Include\core_cmSimd.h **** 
 265:C:\Users\Depes Crystalline\Desktop\school\Active_Bike_Lighting_System\Radar_Core/Libraries/CMSIS/Include\core_cmSimd.h **** __attribute__( ( always_inline ) ) __STATIC_INLINE uint32_t __UQADD16(uint32_t op1, uint32_t op2)
 266:C:\Users\Depes Crystalline\Desktop\school\Active_Bike_Lighting_System\Radar_Core/Libraries/CMSIS/Include\core_cmSimd.h **** {
 267:C:\Users\Depes Crystalline\Desktop\school\Active_Bike_Lighting_System\Radar_Core/Libraries/CMSIS/Include\core_cmSimd.h ****   uint32_t result;
 268:C:\Users\Depes Crystalline\Desktop\school\Active_Bike_Lighting_System\Radar_Core/Libraries/CMSIS/Include\core_cmSimd.h **** 
 269:C:\Users\Depes Crystalline\Desktop\school\Active_Bike_Lighting_System\Radar_Core/Libraries/CMSIS/Include\core_cmSimd.h ****   __ASM volatile ("uqadd16 %0, %1, %2" : "=r" (result) : "r" (op1), "r" (op2) );
 270:C:\Users\Depes Crystalline\Desktop\school\Active_Bike_Lighting_System\Radar_Core/Libraries/CMSIS/Include\core_cmSimd.h ****   return(result);
 271:C:\Users\Depes Crystalline\Desktop\school\Active_Bike_Lighting_System\Radar_Core/Libraries/CMSIS/Include\core_cmSimd.h **** }
 272:C:\Users\Depes Crystalline\Desktop\school\Active_Bike_Lighting_System\Radar_Core/Libraries/CMSIS/Include\core_cmSimd.h **** 
 273:C:\Users\Depes Crystalline\Desktop\school\Active_Bike_Lighting_System\Radar_Core/Libraries/CMSIS/Include\core_cmSimd.h **** __attribute__( ( always_inline ) ) __STATIC_INLINE uint32_t __UHADD16(uint32_t op1, uint32_t op2)
 274:C:\Users\Depes Crystalline\Desktop\school\Active_Bike_Lighting_System\Radar_Core/Libraries/CMSIS/Include\core_cmSimd.h **** {
 275:C:\Users\Depes Crystalline\Desktop\school\Active_Bike_Lighting_System\Radar_Core/Libraries/CMSIS/Include\core_cmSimd.h ****   uint32_t result;
 276:C:\Users\Depes Crystalline\Desktop\school\Active_Bike_Lighting_System\Radar_Core/Libraries/CMSIS/Include\core_cmSimd.h **** 
 277:C:\Users\Depes Crystalline\Desktop\school\Active_Bike_Lighting_System\Radar_Core/Libraries/CMSIS/Include\core_cmSimd.h ****   __ASM volatile ("uhadd16 %0, %1, %2" : "=r" (result) : "r" (op1), "r" (op2) );
 278:C:\Users\Depes Crystalline\Desktop\school\Active_Bike_Lighting_System\Radar_Core/Libraries/CMSIS/Include\core_cmSimd.h ****   return(result);
 279:C:\Users\Depes Crystalline\Desktop\school\Active_Bike_Lighting_System\Radar_Core/Libraries/CMSIS/Include\core_cmSimd.h **** }
 280:C:\Users\Depes Crystalline\Desktop\school\Active_Bike_Lighting_System\Radar_Core/Libraries/CMSIS/Include\core_cmSimd.h **** 
 281:C:\Users\Depes Crystalline\Desktop\school\Active_Bike_Lighting_System\Radar_Core/Libraries/CMSIS/Include\core_cmSimd.h **** __attribute__( ( always_inline ) ) __STATIC_INLINE uint32_t __SSUB16(uint32_t op1, uint32_t op2)
 282:C:\Users\Depes Crystalline\Desktop\school\Active_Bike_Lighting_System\Radar_Core/Libraries/CMSIS/Include\core_cmSimd.h **** {
 283:C:\Users\Depes Crystalline\Desktop\school\Active_Bike_Lighting_System\Radar_Core/Libraries/CMSIS/Include\core_cmSimd.h ****   uint32_t result;
 284:C:\Users\Depes Crystalline\Desktop\school\Active_Bike_Lighting_System\Radar_Core/Libraries/CMSIS/Include\core_cmSimd.h **** 
 285:C:\Users\Depes Crystalline\Desktop\school\Active_Bike_Lighting_System\Radar_Core/Libraries/CMSIS/Include\core_cmSimd.h ****   __ASM volatile ("ssub16 %0, %1, %2" : "=r" (result) : "r" (op1), "r" (op2) );
 286:C:\Users\Depes Crystalline\Desktop\school\Active_Bike_Lighting_System\Radar_Core/Libraries/CMSIS/Include\core_cmSimd.h ****   return(result);
 287:C:\Users\Depes Crystalline\Desktop\school\Active_Bike_Lighting_System\Radar_Core/Libraries/CMSIS/Include\core_cmSimd.h **** }
 288:C:\Users\Depes Crystalline\Desktop\school\Active_Bike_Lighting_System\Radar_Core/Libraries/CMSIS/Include\core_cmSimd.h **** 
 289:C:\Users\Depes Crystalline\Desktop\school\Active_Bike_Lighting_System\Radar_Core/Libraries/CMSIS/Include\core_cmSimd.h **** __attribute__( ( always_inline ) ) __STATIC_INLINE uint32_t __QSUB16(uint32_t op1, uint32_t op2)
 290:C:\Users\Depes Crystalline\Desktop\school\Active_Bike_Lighting_System\Radar_Core/Libraries/CMSIS/Include\core_cmSimd.h **** {
 291:C:\Users\Depes Crystalline\Desktop\school\Active_Bike_Lighting_System\Radar_Core/Libraries/CMSIS/Include\core_cmSimd.h ****   uint32_t result;
 292:C:\Users\Depes Crystalline\Desktop\school\Active_Bike_Lighting_System\Radar_Core/Libraries/CMSIS/Include\core_cmSimd.h **** 
 293:C:\Users\Depes Crystalline\Desktop\school\Active_Bike_Lighting_System\Radar_Core/Libraries/CMSIS/Include\core_cmSimd.h ****   __ASM volatile ("qsub16 %0, %1, %2" : "=r" (result) : "r" (op1), "r" (op2) );
 294:C:\Users\Depes Crystalline\Desktop\school\Active_Bike_Lighting_System\Radar_Core/Libraries/CMSIS/Include\core_cmSimd.h ****   return(result);
 295:C:\Users\Depes Crystalline\Desktop\school\Active_Bike_Lighting_System\Radar_Core/Libraries/CMSIS/Include\core_cmSimd.h **** }
 296:C:\Users\Depes Crystalline\Desktop\school\Active_Bike_Lighting_System\Radar_Core/Libraries/CMSIS/Include\core_cmSimd.h **** 
 297:C:\Users\Depes Crystalline\Desktop\school\Active_Bike_Lighting_System\Radar_Core/Libraries/CMSIS/Include\core_cmSimd.h **** __attribute__( ( always_inline ) ) __STATIC_INLINE uint32_t __SHSUB16(uint32_t op1, uint32_t op2)
 298:C:\Users\Depes Crystalline\Desktop\school\Active_Bike_Lighting_System\Radar_Core/Libraries/CMSIS/Include\core_cmSimd.h **** {
 299:C:\Users\Depes Crystalline\Desktop\school\Active_Bike_Lighting_System\Radar_Core/Libraries/CMSIS/Include\core_cmSimd.h ****   uint32_t result;
 300:C:\Users\Depes Crystalline\Desktop\school\Active_Bike_Lighting_System\Radar_Core/Libraries/CMSIS/Include\core_cmSimd.h **** 
 301:C:\Users\Depes Crystalline\Desktop\school\Active_Bike_Lighting_System\Radar_Core/Libraries/CMSIS/Include\core_cmSimd.h ****   __ASM volatile ("shsub16 %0, %1, %2" : "=r" (result) : "r" (op1), "r" (op2) );
 302:C:\Users\Depes Crystalline\Desktop\school\Active_Bike_Lighting_System\Radar_Core/Libraries/CMSIS/Include\core_cmSimd.h ****   return(result);
 303:C:\Users\Depes Crystalline\Desktop\school\Active_Bike_Lighting_System\Radar_Core/Libraries/CMSIS/Include\core_cmSimd.h **** }
 304:C:\Users\Depes Crystalline\Desktop\school\Active_Bike_Lighting_System\Radar_Core/Libraries/CMSIS/Include\core_cmSimd.h **** 
 305:C:\Users\Depes Crystalline\Desktop\school\Active_Bike_Lighting_System\Radar_Core/Libraries/CMSIS/Include\core_cmSimd.h **** __attribute__( ( always_inline ) ) __STATIC_INLINE uint32_t __USUB16(uint32_t op1, uint32_t op2)
 306:C:\Users\Depes Crystalline\Desktop\school\Active_Bike_Lighting_System\Radar_Core/Libraries/CMSIS/Include\core_cmSimd.h **** {
 307:C:\Users\Depes Crystalline\Desktop\school\Active_Bike_Lighting_System\Radar_Core/Libraries/CMSIS/Include\core_cmSimd.h ****   uint32_t result;
 308:C:\Users\Depes Crystalline\Desktop\school\Active_Bike_Lighting_System\Radar_Core/Libraries/CMSIS/Include\core_cmSimd.h **** 
 309:C:\Users\Depes Crystalline\Desktop\school\Active_Bike_Lighting_System\Radar_Core/Libraries/CMSIS/Include\core_cmSimd.h ****   __ASM volatile ("usub16 %0, %1, %2" : "=r" (result) : "r" (op1), "r" (op2) );
 310:C:\Users\Depes Crystalline\Desktop\school\Active_Bike_Lighting_System\Radar_Core/Libraries/CMSIS/Include\core_cmSimd.h ****   return(result);
 311:C:\Users\Depes Crystalline\Desktop\school\Active_Bike_Lighting_System\Radar_Core/Libraries/CMSIS/Include\core_cmSimd.h **** }
 312:C:\Users\Depes Crystalline\Desktop\school\Active_Bike_Lighting_System\Radar_Core/Libraries/CMSIS/Include\core_cmSimd.h **** 
 313:C:\Users\Depes Crystalline\Desktop\school\Active_Bike_Lighting_System\Radar_Core/Libraries/CMSIS/Include\core_cmSimd.h **** __attribute__( ( always_inline ) ) __STATIC_INLINE uint32_t __UQSUB16(uint32_t op1, uint32_t op2)
 314:C:\Users\Depes Crystalline\Desktop\school\Active_Bike_Lighting_System\Radar_Core/Libraries/CMSIS/Include\core_cmSimd.h **** {
 315:C:\Users\Depes Crystalline\Desktop\school\Active_Bike_Lighting_System\Radar_Core/Libraries/CMSIS/Include\core_cmSimd.h ****   uint32_t result;
 316:C:\Users\Depes Crystalline\Desktop\school\Active_Bike_Lighting_System\Radar_Core/Libraries/CMSIS/Include\core_cmSimd.h **** 
 317:C:\Users\Depes Crystalline\Desktop\school\Active_Bike_Lighting_System\Radar_Core/Libraries/CMSIS/Include\core_cmSimd.h ****   __ASM volatile ("uqsub16 %0, %1, %2" : "=r" (result) : "r" (op1), "r" (op2) );
 318:C:\Users\Depes Crystalline\Desktop\school\Active_Bike_Lighting_System\Radar_Core/Libraries/CMSIS/Include\core_cmSimd.h ****   return(result);
 319:C:\Users\Depes Crystalline\Desktop\school\Active_Bike_Lighting_System\Radar_Core/Libraries/CMSIS/Include\core_cmSimd.h **** }
 320:C:\Users\Depes Crystalline\Desktop\school\Active_Bike_Lighting_System\Radar_Core/Libraries/CMSIS/Include\core_cmSimd.h **** 
 321:C:\Users\Depes Crystalline\Desktop\school\Active_Bike_Lighting_System\Radar_Core/Libraries/CMSIS/Include\core_cmSimd.h **** __attribute__( ( always_inline ) ) __STATIC_INLINE uint32_t __UHSUB16(uint32_t op1, uint32_t op2)
 322:C:\Users\Depes Crystalline\Desktop\school\Active_Bike_Lighting_System\Radar_Core/Libraries/CMSIS/Include\core_cmSimd.h **** {
 323:C:\Users\Depes Crystalline\Desktop\school\Active_Bike_Lighting_System\Radar_Core/Libraries/CMSIS/Include\core_cmSimd.h ****   uint32_t result;
 324:C:\Users\Depes Crystalline\Desktop\school\Active_Bike_Lighting_System\Radar_Core/Libraries/CMSIS/Include\core_cmSimd.h **** 
 325:C:\Users\Depes Crystalline\Desktop\school\Active_Bike_Lighting_System\Radar_Core/Libraries/CMSIS/Include\core_cmSimd.h ****   __ASM volatile ("uhsub16 %0, %1, %2" : "=r" (result) : "r" (op1), "r" (op2) );
 326:C:\Users\Depes Crystalline\Desktop\school\Active_Bike_Lighting_System\Radar_Core/Libraries/CMSIS/Include\core_cmSimd.h ****   return(result);
 327:C:\Users\Depes Crystalline\Desktop\school\Active_Bike_Lighting_System\Radar_Core/Libraries/CMSIS/Include\core_cmSimd.h **** }
 328:C:\Users\Depes Crystalline\Desktop\school\Active_Bike_Lighting_System\Radar_Core/Libraries/CMSIS/Include\core_cmSimd.h **** 
 329:C:\Users\Depes Crystalline\Desktop\school\Active_Bike_Lighting_System\Radar_Core/Libraries/CMSIS/Include\core_cmSimd.h **** __attribute__( ( always_inline ) ) __STATIC_INLINE uint32_t __SASX(uint32_t op1, uint32_t op2)
 330:C:\Users\Depes Crystalline\Desktop\school\Active_Bike_Lighting_System\Radar_Core/Libraries/CMSIS/Include\core_cmSimd.h **** {
 331:C:\Users\Depes Crystalline\Desktop\school\Active_Bike_Lighting_System\Radar_Core/Libraries/CMSIS/Include\core_cmSimd.h ****   uint32_t result;
 332:C:\Users\Depes Crystalline\Desktop\school\Active_Bike_Lighting_System\Radar_Core/Libraries/CMSIS/Include\core_cmSimd.h **** 
 333:C:\Users\Depes Crystalline\Desktop\school\Active_Bike_Lighting_System\Radar_Core/Libraries/CMSIS/Include\core_cmSimd.h ****   __ASM volatile ("sasx %0, %1, %2" : "=r" (result) : "r" (op1), "r" (op2) );
 334:C:\Users\Depes Crystalline\Desktop\school\Active_Bike_Lighting_System\Radar_Core/Libraries/CMSIS/Include\core_cmSimd.h ****   return(result);
 335:C:\Users\Depes Crystalline\Desktop\school\Active_Bike_Lighting_System\Radar_Core/Libraries/CMSIS/Include\core_cmSimd.h **** }
 336:C:\Users\Depes Crystalline\Desktop\school\Active_Bike_Lighting_System\Radar_Core/Libraries/CMSIS/Include\core_cmSimd.h **** 
 337:C:\Users\Depes Crystalline\Desktop\school\Active_Bike_Lighting_System\Radar_Core/Libraries/CMSIS/Include\core_cmSimd.h **** __attribute__( ( always_inline ) ) __STATIC_INLINE uint32_t __QASX(uint32_t op1, uint32_t op2)
 338:C:\Users\Depes Crystalline\Desktop\school\Active_Bike_Lighting_System\Radar_Core/Libraries/CMSIS/Include\core_cmSimd.h **** {
 339:C:\Users\Depes Crystalline\Desktop\school\Active_Bike_Lighting_System\Radar_Core/Libraries/CMSIS/Include\core_cmSimd.h ****   uint32_t result;
 340:C:\Users\Depes Crystalline\Desktop\school\Active_Bike_Lighting_System\Radar_Core/Libraries/CMSIS/Include\core_cmSimd.h **** 
 341:C:\Users\Depes Crystalline\Desktop\school\Active_Bike_Lighting_System\Radar_Core/Libraries/CMSIS/Include\core_cmSimd.h ****   __ASM volatile ("qasx %0, %1, %2" : "=r" (result) : "r" (op1), "r" (op2) );
 342:C:\Users\Depes Crystalline\Desktop\school\Active_Bike_Lighting_System\Radar_Core/Libraries/CMSIS/Include\core_cmSimd.h ****   return(result);
 343:C:\Users\Depes Crystalline\Desktop\school\Active_Bike_Lighting_System\Radar_Core/Libraries/CMSIS/Include\core_cmSimd.h **** }
 344:C:\Users\Depes Crystalline\Desktop\school\Active_Bike_Lighting_System\Radar_Core/Libraries/CMSIS/Include\core_cmSimd.h **** 
 345:C:\Users\Depes Crystalline\Desktop\school\Active_Bike_Lighting_System\Radar_Core/Libraries/CMSIS/Include\core_cmSimd.h **** __attribute__( ( always_inline ) ) __STATIC_INLINE uint32_t __SHASX(uint32_t op1, uint32_t op2)
 346:C:\Users\Depes Crystalline\Desktop\school\Active_Bike_Lighting_System\Radar_Core/Libraries/CMSIS/Include\core_cmSimd.h **** {
 347:C:\Users\Depes Crystalline\Desktop\school\Active_Bike_Lighting_System\Radar_Core/Libraries/CMSIS/Include\core_cmSimd.h ****   uint32_t result;
 348:C:\Users\Depes Crystalline\Desktop\school\Active_Bike_Lighting_System\Radar_Core/Libraries/CMSIS/Include\core_cmSimd.h **** 
 349:C:\Users\Depes Crystalline\Desktop\school\Active_Bike_Lighting_System\Radar_Core/Libraries/CMSIS/Include\core_cmSimd.h ****   __ASM volatile ("shasx %0, %1, %2" : "=r" (result) : "r" (op1), "r" (op2) );
 350:C:\Users\Depes Crystalline\Desktop\school\Active_Bike_Lighting_System\Radar_Core/Libraries/CMSIS/Include\core_cmSimd.h ****   return(result);
 351:C:\Users\Depes Crystalline\Desktop\school\Active_Bike_Lighting_System\Radar_Core/Libraries/CMSIS/Include\core_cmSimd.h **** }
 352:C:\Users\Depes Crystalline\Desktop\school\Active_Bike_Lighting_System\Radar_Core/Libraries/CMSIS/Include\core_cmSimd.h **** 
 353:C:\Users\Depes Crystalline\Desktop\school\Active_Bike_Lighting_System\Radar_Core/Libraries/CMSIS/Include\core_cmSimd.h **** __attribute__( ( always_inline ) ) __STATIC_INLINE uint32_t __UASX(uint32_t op1, uint32_t op2)
 354:C:\Users\Depes Crystalline\Desktop\school\Active_Bike_Lighting_System\Radar_Core/Libraries/CMSIS/Include\core_cmSimd.h **** {
 355:C:\Users\Depes Crystalline\Desktop\school\Active_Bike_Lighting_System\Radar_Core/Libraries/CMSIS/Include\core_cmSimd.h ****   uint32_t result;
 356:C:\Users\Depes Crystalline\Desktop\school\Active_Bike_Lighting_System\Radar_Core/Libraries/CMSIS/Include\core_cmSimd.h **** 
 357:C:\Users\Depes Crystalline\Desktop\school\Active_Bike_Lighting_System\Radar_Core/Libraries/CMSIS/Include\core_cmSimd.h ****   __ASM volatile ("uasx %0, %1, %2" : "=r" (result) : "r" (op1), "r" (op2) );
 358:C:\Users\Depes Crystalline\Desktop\school\Active_Bike_Lighting_System\Radar_Core/Libraries/CMSIS/Include\core_cmSimd.h ****   return(result);
 359:C:\Users\Depes Crystalline\Desktop\school\Active_Bike_Lighting_System\Radar_Core/Libraries/CMSIS/Include\core_cmSimd.h **** }
 360:C:\Users\Depes Crystalline\Desktop\school\Active_Bike_Lighting_System\Radar_Core/Libraries/CMSIS/Include\core_cmSimd.h **** 
 361:C:\Users\Depes Crystalline\Desktop\school\Active_Bike_Lighting_System\Radar_Core/Libraries/CMSIS/Include\core_cmSimd.h **** __attribute__( ( always_inline ) ) __STATIC_INLINE uint32_t __UQASX(uint32_t op1, uint32_t op2)
 362:C:\Users\Depes Crystalline\Desktop\school\Active_Bike_Lighting_System\Radar_Core/Libraries/CMSIS/Include\core_cmSimd.h **** {
 363:C:\Users\Depes Crystalline\Desktop\school\Active_Bike_Lighting_System\Radar_Core/Libraries/CMSIS/Include\core_cmSimd.h ****   uint32_t result;
 364:C:\Users\Depes Crystalline\Desktop\school\Active_Bike_Lighting_System\Radar_Core/Libraries/CMSIS/Include\core_cmSimd.h **** 
 365:C:\Users\Depes Crystalline\Desktop\school\Active_Bike_Lighting_System\Radar_Core/Libraries/CMSIS/Include\core_cmSimd.h ****   __ASM volatile ("uqasx %0, %1, %2" : "=r" (result) : "r" (op1), "r" (op2) );
 366:C:\Users\Depes Crystalline\Desktop\school\Active_Bike_Lighting_System\Radar_Core/Libraries/CMSIS/Include\core_cmSimd.h ****   return(result);
 367:C:\Users\Depes Crystalline\Desktop\school\Active_Bike_Lighting_System\Radar_Core/Libraries/CMSIS/Include\core_cmSimd.h **** }
 368:C:\Users\Depes Crystalline\Desktop\school\Active_Bike_Lighting_System\Radar_Core/Libraries/CMSIS/Include\core_cmSimd.h **** 
 369:C:\Users\Depes Crystalline\Desktop\school\Active_Bike_Lighting_System\Radar_Core/Libraries/CMSIS/Include\core_cmSimd.h **** __attribute__( ( always_inline ) ) __STATIC_INLINE uint32_t __UHASX(uint32_t op1, uint32_t op2)
 370:C:\Users\Depes Crystalline\Desktop\school\Active_Bike_Lighting_System\Radar_Core/Libraries/CMSIS/Include\core_cmSimd.h **** {
 371:C:\Users\Depes Crystalline\Desktop\school\Active_Bike_Lighting_System\Radar_Core/Libraries/CMSIS/Include\core_cmSimd.h ****   uint32_t result;
 372:C:\Users\Depes Crystalline\Desktop\school\Active_Bike_Lighting_System\Radar_Core/Libraries/CMSIS/Include\core_cmSimd.h **** 
 373:C:\Users\Depes Crystalline\Desktop\school\Active_Bike_Lighting_System\Radar_Core/Libraries/CMSIS/Include\core_cmSimd.h ****   __ASM volatile ("uhasx %0, %1, %2" : "=r" (result) : "r" (op1), "r" (op2) );
 374:C:\Users\Depes Crystalline\Desktop\school\Active_Bike_Lighting_System\Radar_Core/Libraries/CMSIS/Include\core_cmSimd.h ****   return(result);
 375:C:\Users\Depes Crystalline\Desktop\school\Active_Bike_Lighting_System\Radar_Core/Libraries/CMSIS/Include\core_cmSimd.h **** }
 376:C:\Users\Depes Crystalline\Desktop\school\Active_Bike_Lighting_System\Radar_Core/Libraries/CMSIS/Include\core_cmSimd.h **** 
 377:C:\Users\Depes Crystalline\Desktop\school\Active_Bike_Lighting_System\Radar_Core/Libraries/CMSIS/Include\core_cmSimd.h **** __attribute__( ( always_inline ) ) __STATIC_INLINE uint32_t __SSAX(uint32_t op1, uint32_t op2)
 378:C:\Users\Depes Crystalline\Desktop\school\Active_Bike_Lighting_System\Radar_Core/Libraries/CMSIS/Include\core_cmSimd.h **** {
 379:C:\Users\Depes Crystalline\Desktop\school\Active_Bike_Lighting_System\Radar_Core/Libraries/CMSIS/Include\core_cmSimd.h ****   uint32_t result;
 380:C:\Users\Depes Crystalline\Desktop\school\Active_Bike_Lighting_System\Radar_Core/Libraries/CMSIS/Include\core_cmSimd.h **** 
 381:C:\Users\Depes Crystalline\Desktop\school\Active_Bike_Lighting_System\Radar_Core/Libraries/CMSIS/Include\core_cmSimd.h ****   __ASM volatile ("ssax %0, %1, %2" : "=r" (result) : "r" (op1), "r" (op2) );
 382:C:\Users\Depes Crystalline\Desktop\school\Active_Bike_Lighting_System\Radar_Core/Libraries/CMSIS/Include\core_cmSimd.h ****   return(result);
 383:C:\Users\Depes Crystalline\Desktop\school\Active_Bike_Lighting_System\Radar_Core/Libraries/CMSIS/Include\core_cmSimd.h **** }
 384:C:\Users\Depes Crystalline\Desktop\school\Active_Bike_Lighting_System\Radar_Core/Libraries/CMSIS/Include\core_cmSimd.h **** 
 385:C:\Users\Depes Crystalline\Desktop\school\Active_Bike_Lighting_System\Radar_Core/Libraries/CMSIS/Include\core_cmSimd.h **** __attribute__( ( always_inline ) ) __STATIC_INLINE uint32_t __QSAX(uint32_t op1, uint32_t op2)
 386:C:\Users\Depes Crystalline\Desktop\school\Active_Bike_Lighting_System\Radar_Core/Libraries/CMSIS/Include\core_cmSimd.h **** {
 387:C:\Users\Depes Crystalline\Desktop\school\Active_Bike_Lighting_System\Radar_Core/Libraries/CMSIS/Include\core_cmSimd.h ****   uint32_t result;
 388:C:\Users\Depes Crystalline\Desktop\school\Active_Bike_Lighting_System\Radar_Core/Libraries/CMSIS/Include\core_cmSimd.h **** 
 389:C:\Users\Depes Crystalline\Desktop\school\Active_Bike_Lighting_System\Radar_Core/Libraries/CMSIS/Include\core_cmSimd.h ****   __ASM volatile ("qsax %0, %1, %2" : "=r" (result) : "r" (op1), "r" (op2) );
 390:C:\Users\Depes Crystalline\Desktop\school\Active_Bike_Lighting_System\Radar_Core/Libraries/CMSIS/Include\core_cmSimd.h ****   return(result);
 391:C:\Users\Depes Crystalline\Desktop\school\Active_Bike_Lighting_System\Radar_Core/Libraries/CMSIS/Include\core_cmSimd.h **** }
 392:C:\Users\Depes Crystalline\Desktop\school\Active_Bike_Lighting_System\Radar_Core/Libraries/CMSIS/Include\core_cmSimd.h **** 
 393:C:\Users\Depes Crystalline\Desktop\school\Active_Bike_Lighting_System\Radar_Core/Libraries/CMSIS/Include\core_cmSimd.h **** __attribute__( ( always_inline ) ) __STATIC_INLINE uint32_t __SHSAX(uint32_t op1, uint32_t op2)
 394:C:\Users\Depes Crystalline\Desktop\school\Active_Bike_Lighting_System\Radar_Core/Libraries/CMSIS/Include\core_cmSimd.h **** {
 395:C:\Users\Depes Crystalline\Desktop\school\Active_Bike_Lighting_System\Radar_Core/Libraries/CMSIS/Include\core_cmSimd.h ****   uint32_t result;
 396:C:\Users\Depes Crystalline\Desktop\school\Active_Bike_Lighting_System\Radar_Core/Libraries/CMSIS/Include\core_cmSimd.h **** 
 397:C:\Users\Depes Crystalline\Desktop\school\Active_Bike_Lighting_System\Radar_Core/Libraries/CMSIS/Include\core_cmSimd.h ****   __ASM volatile ("shsax %0, %1, %2" : "=r" (result) : "r" (op1), "r" (op2) );
 398:C:\Users\Depes Crystalline\Desktop\school\Active_Bike_Lighting_System\Radar_Core/Libraries/CMSIS/Include\core_cmSimd.h ****   return(result);
 399:C:\Users\Depes Crystalline\Desktop\school\Active_Bike_Lighting_System\Radar_Core/Libraries/CMSIS/Include\core_cmSimd.h **** }
 400:C:\Users\Depes Crystalline\Desktop\school\Active_Bike_Lighting_System\Radar_Core/Libraries/CMSIS/Include\core_cmSimd.h **** 
 401:C:\Users\Depes Crystalline\Desktop\school\Active_Bike_Lighting_System\Radar_Core/Libraries/CMSIS/Include\core_cmSimd.h **** __attribute__( ( always_inline ) ) __STATIC_INLINE uint32_t __USAX(uint32_t op1, uint32_t op2)
 402:C:\Users\Depes Crystalline\Desktop\school\Active_Bike_Lighting_System\Radar_Core/Libraries/CMSIS/Include\core_cmSimd.h **** {
 403:C:\Users\Depes Crystalline\Desktop\school\Active_Bike_Lighting_System\Radar_Core/Libraries/CMSIS/Include\core_cmSimd.h ****   uint32_t result;
 404:C:\Users\Depes Crystalline\Desktop\school\Active_Bike_Lighting_System\Radar_Core/Libraries/CMSIS/Include\core_cmSimd.h **** 
 405:C:\Users\Depes Crystalline\Desktop\school\Active_Bike_Lighting_System\Radar_Core/Libraries/CMSIS/Include\core_cmSimd.h ****   __ASM volatile ("usax %0, %1, %2" : "=r" (result) : "r" (op1), "r" (op2) );
 406:C:\Users\Depes Crystalline\Desktop\school\Active_Bike_Lighting_System\Radar_Core/Libraries/CMSIS/Include\core_cmSimd.h ****   return(result);
 407:C:\Users\Depes Crystalline\Desktop\school\Active_Bike_Lighting_System\Radar_Core/Libraries/CMSIS/Include\core_cmSimd.h **** }
 408:C:\Users\Depes Crystalline\Desktop\school\Active_Bike_Lighting_System\Radar_Core/Libraries/CMSIS/Include\core_cmSimd.h **** 
 409:C:\Users\Depes Crystalline\Desktop\school\Active_Bike_Lighting_System\Radar_Core/Libraries/CMSIS/Include\core_cmSimd.h **** __attribute__( ( always_inline ) ) __STATIC_INLINE uint32_t __UQSAX(uint32_t op1, uint32_t op2)
 410:C:\Users\Depes Crystalline\Desktop\school\Active_Bike_Lighting_System\Radar_Core/Libraries/CMSIS/Include\core_cmSimd.h **** {
 411:C:\Users\Depes Crystalline\Desktop\school\Active_Bike_Lighting_System\Radar_Core/Libraries/CMSIS/Include\core_cmSimd.h ****   uint32_t result;
 412:C:\Users\Depes Crystalline\Desktop\school\Active_Bike_Lighting_System\Radar_Core/Libraries/CMSIS/Include\core_cmSimd.h **** 
 413:C:\Users\Depes Crystalline\Desktop\school\Active_Bike_Lighting_System\Radar_Core/Libraries/CMSIS/Include\core_cmSimd.h ****   __ASM volatile ("uqsax %0, %1, %2" : "=r" (result) : "r" (op1), "r" (op2) );
 414:C:\Users\Depes Crystalline\Desktop\school\Active_Bike_Lighting_System\Radar_Core/Libraries/CMSIS/Include\core_cmSimd.h ****   return(result);
 415:C:\Users\Depes Crystalline\Desktop\school\Active_Bike_Lighting_System\Radar_Core/Libraries/CMSIS/Include\core_cmSimd.h **** }
 416:C:\Users\Depes Crystalline\Desktop\school\Active_Bike_Lighting_System\Radar_Core/Libraries/CMSIS/Include\core_cmSimd.h **** 
 417:C:\Users\Depes Crystalline\Desktop\school\Active_Bike_Lighting_System\Radar_Core/Libraries/CMSIS/Include\core_cmSimd.h **** __attribute__( ( always_inline ) ) __STATIC_INLINE uint32_t __UHSAX(uint32_t op1, uint32_t op2)
 418:C:\Users\Depes Crystalline\Desktop\school\Active_Bike_Lighting_System\Radar_Core/Libraries/CMSIS/Include\core_cmSimd.h **** {
 419:C:\Users\Depes Crystalline\Desktop\school\Active_Bike_Lighting_System\Radar_Core/Libraries/CMSIS/Include\core_cmSimd.h ****   uint32_t result;
 420:C:\Users\Depes Crystalline\Desktop\school\Active_Bike_Lighting_System\Radar_Core/Libraries/CMSIS/Include\core_cmSimd.h **** 
 421:C:\Users\Depes Crystalline\Desktop\school\Active_Bike_Lighting_System\Radar_Core/Libraries/CMSIS/Include\core_cmSimd.h ****   __ASM volatile ("uhsax %0, %1, %2" : "=r" (result) : "r" (op1), "r" (op2) );
 422:C:\Users\Depes Crystalline\Desktop\school\Active_Bike_Lighting_System\Radar_Core/Libraries/CMSIS/Include\core_cmSimd.h ****   return(result);
 423:C:\Users\Depes Crystalline\Desktop\school\Active_Bike_Lighting_System\Radar_Core/Libraries/CMSIS/Include\core_cmSimd.h **** }
 424:C:\Users\Depes Crystalline\Desktop\school\Active_Bike_Lighting_System\Radar_Core/Libraries/CMSIS/Include\core_cmSimd.h **** 
 425:C:\Users\Depes Crystalline\Desktop\school\Active_Bike_Lighting_System\Radar_Core/Libraries/CMSIS/Include\core_cmSimd.h **** __attribute__( ( always_inline ) ) __STATIC_INLINE uint32_t __USAD8(uint32_t op1, uint32_t op2)
 426:C:\Users\Depes Crystalline\Desktop\school\Active_Bike_Lighting_System\Radar_Core/Libraries/CMSIS/Include\core_cmSimd.h **** {
 427:C:\Users\Depes Crystalline\Desktop\school\Active_Bike_Lighting_System\Radar_Core/Libraries/CMSIS/Include\core_cmSimd.h ****   uint32_t result;
 428:C:\Users\Depes Crystalline\Desktop\school\Active_Bike_Lighting_System\Radar_Core/Libraries/CMSIS/Include\core_cmSimd.h **** 
 429:C:\Users\Depes Crystalline\Desktop\school\Active_Bike_Lighting_System\Radar_Core/Libraries/CMSIS/Include\core_cmSimd.h ****   __ASM volatile ("usad8 %0, %1, %2" : "=r" (result) : "r" (op1), "r" (op2) );
 430:C:\Users\Depes Crystalline\Desktop\school\Active_Bike_Lighting_System\Radar_Core/Libraries/CMSIS/Include\core_cmSimd.h ****   return(result);
 431:C:\Users\Depes Crystalline\Desktop\school\Active_Bike_Lighting_System\Radar_Core/Libraries/CMSIS/Include\core_cmSimd.h **** }
 432:C:\Users\Depes Crystalline\Desktop\school\Active_Bike_Lighting_System\Radar_Core/Libraries/CMSIS/Include\core_cmSimd.h **** 
 433:C:\Users\Depes Crystalline\Desktop\school\Active_Bike_Lighting_System\Radar_Core/Libraries/CMSIS/Include\core_cmSimd.h **** __attribute__( ( always_inline ) ) __STATIC_INLINE uint32_t __USADA8(uint32_t op1, uint32_t op2, ui
 434:C:\Users\Depes Crystalline\Desktop\school\Active_Bike_Lighting_System\Radar_Core/Libraries/CMSIS/Include\core_cmSimd.h **** {
 435:C:\Users\Depes Crystalline\Desktop\school\Active_Bike_Lighting_System\Radar_Core/Libraries/CMSIS/Include\core_cmSimd.h ****   uint32_t result;
 436:C:\Users\Depes Crystalline\Desktop\school\Active_Bike_Lighting_System\Radar_Core/Libraries/CMSIS/Include\core_cmSimd.h **** 
 437:C:\Users\Depes Crystalline\Desktop\school\Active_Bike_Lighting_System\Radar_Core/Libraries/CMSIS/Include\core_cmSimd.h ****   __ASM volatile ("usada8 %0, %1, %2, %3" : "=r" (result) : "r" (op1), "r" (op2), "r" (op3) );
 438:C:\Users\Depes Crystalline\Desktop\school\Active_Bike_Lighting_System\Radar_Core/Libraries/CMSIS/Include\core_cmSimd.h ****   return(result);
 439:C:\Users\Depes Crystalline\Desktop\school\Active_Bike_Lighting_System\Radar_Core/Libraries/CMSIS/Include\core_cmSimd.h **** }
 440:C:\Users\Depes Crystalline\Desktop\school\Active_Bike_Lighting_System\Radar_Core/Libraries/CMSIS/Include\core_cmSimd.h **** 
 441:C:\Users\Depes Crystalline\Desktop\school\Active_Bike_Lighting_System\Radar_Core/Libraries/CMSIS/Include\core_cmSimd.h **** #define __SSAT16(ARG1,ARG2) \
 442:C:\Users\Depes Crystalline\Desktop\school\Active_Bike_Lighting_System\Radar_Core/Libraries/CMSIS/Include\core_cmSimd.h **** ({                          \
 443:C:\Users\Depes Crystalline\Desktop\school\Active_Bike_Lighting_System\Radar_Core/Libraries/CMSIS/Include\core_cmSimd.h ****   uint32_t __RES, __ARG1 = (ARG1); \
 444:C:\Users\Depes Crystalline\Desktop\school\Active_Bike_Lighting_System\Radar_Core/Libraries/CMSIS/Include\core_cmSimd.h ****   __ASM ("ssat16 %0, %1, %2" : "=r" (__RES) :  "I" (ARG2), "r" (__ARG1) ); \
 445:C:\Users\Depes Crystalline\Desktop\school\Active_Bike_Lighting_System\Radar_Core/Libraries/CMSIS/Include\core_cmSimd.h ****   __RES; \
 446:C:\Users\Depes Crystalline\Desktop\school\Active_Bike_Lighting_System\Radar_Core/Libraries/CMSIS/Include\core_cmSimd.h ****  })
 447:C:\Users\Depes Crystalline\Desktop\school\Active_Bike_Lighting_System\Radar_Core/Libraries/CMSIS/Include\core_cmSimd.h **** 
 448:C:\Users\Depes Crystalline\Desktop\school\Active_Bike_Lighting_System\Radar_Core/Libraries/CMSIS/Include\core_cmSimd.h **** #define __USAT16(ARG1,ARG2) \
 449:C:\Users\Depes Crystalline\Desktop\school\Active_Bike_Lighting_System\Radar_Core/Libraries/CMSIS/Include\core_cmSimd.h **** ({                          \
 450:C:\Users\Depes Crystalline\Desktop\school\Active_Bike_Lighting_System\Radar_Core/Libraries/CMSIS/Include\core_cmSimd.h ****   uint32_t __RES, __ARG1 = (ARG1); \
 451:C:\Users\Depes Crystalline\Desktop\school\Active_Bike_Lighting_System\Radar_Core/Libraries/CMSIS/Include\core_cmSimd.h ****   __ASM ("usat16 %0, %1, %2" : "=r" (__RES) :  "I" (ARG2), "r" (__ARG1) ); \
 452:C:\Users\Depes Crystalline\Desktop\school\Active_Bike_Lighting_System\Radar_Core/Libraries/CMSIS/Include\core_cmSimd.h ****   __RES; \
 453:C:\Users\Depes Crystalline\Desktop\school\Active_Bike_Lighting_System\Radar_Core/Libraries/CMSIS/Include\core_cmSimd.h ****  })
 454:C:\Users\Depes Crystalline\Desktop\school\Active_Bike_Lighting_System\Radar_Core/Libraries/CMSIS/Include\core_cmSimd.h **** 
 455:C:\Users\Depes Crystalline\Desktop\school\Active_Bike_Lighting_System\Radar_Core/Libraries/CMSIS/Include\core_cmSimd.h **** __attribute__( ( always_inline ) ) __STATIC_INLINE uint32_t __UXTB16(uint32_t op1)
 456:C:\Users\Depes Crystalline\Desktop\school\Active_Bike_Lighting_System\Radar_Core/Libraries/CMSIS/Include\core_cmSimd.h **** {
 457:C:\Users\Depes Crystalline\Desktop\school\Active_Bike_Lighting_System\Radar_Core/Libraries/CMSIS/Include\core_cmSimd.h ****   uint32_t result;
 458:C:\Users\Depes Crystalline\Desktop\school\Active_Bike_Lighting_System\Radar_Core/Libraries/CMSIS/Include\core_cmSimd.h **** 
 459:C:\Users\Depes Crystalline\Desktop\school\Active_Bike_Lighting_System\Radar_Core/Libraries/CMSIS/Include\core_cmSimd.h ****   __ASM volatile ("uxtb16 %0, %1" : "=r" (result) : "r" (op1));
 460:C:\Users\Depes Crystalline\Desktop\school\Active_Bike_Lighting_System\Radar_Core/Libraries/CMSIS/Include\core_cmSimd.h ****   return(result);
 461:C:\Users\Depes Crystalline\Desktop\school\Active_Bike_Lighting_System\Radar_Core/Libraries/CMSIS/Include\core_cmSimd.h **** }
 462:C:\Users\Depes Crystalline\Desktop\school\Active_Bike_Lighting_System\Radar_Core/Libraries/CMSIS/Include\core_cmSimd.h **** 
 463:C:\Users\Depes Crystalline\Desktop\school\Active_Bike_Lighting_System\Radar_Core/Libraries/CMSIS/Include\core_cmSimd.h **** __attribute__( ( always_inline ) ) __STATIC_INLINE uint32_t __UXTAB16(uint32_t op1, uint32_t op2)
 464:C:\Users\Depes Crystalline\Desktop\school\Active_Bike_Lighting_System\Radar_Core/Libraries/CMSIS/Include\core_cmSimd.h **** {
 465:C:\Users\Depes Crystalline\Desktop\school\Active_Bike_Lighting_System\Radar_Core/Libraries/CMSIS/Include\core_cmSimd.h ****   uint32_t result;
 466:C:\Users\Depes Crystalline\Desktop\school\Active_Bike_Lighting_System\Radar_Core/Libraries/CMSIS/Include\core_cmSimd.h **** 
 467:C:\Users\Depes Crystalline\Desktop\school\Active_Bike_Lighting_System\Radar_Core/Libraries/CMSIS/Include\core_cmSimd.h ****   __ASM volatile ("uxtab16 %0, %1, %2" : "=r" (result) : "r" (op1), "r" (op2) );
 468:C:\Users\Depes Crystalline\Desktop\school\Active_Bike_Lighting_System\Radar_Core/Libraries/CMSIS/Include\core_cmSimd.h ****   return(result);
 469:C:\Users\Depes Crystalline\Desktop\school\Active_Bike_Lighting_System\Radar_Core/Libraries/CMSIS/Include\core_cmSimd.h **** }
 470:C:\Users\Depes Crystalline\Desktop\school\Active_Bike_Lighting_System\Radar_Core/Libraries/CMSIS/Include\core_cmSimd.h **** 
 471:C:\Users\Depes Crystalline\Desktop\school\Active_Bike_Lighting_System\Radar_Core/Libraries/CMSIS/Include\core_cmSimd.h **** __attribute__( ( always_inline ) ) __STATIC_INLINE uint32_t __SXTB16(uint32_t op1)
 472:C:\Users\Depes Crystalline\Desktop\school\Active_Bike_Lighting_System\Radar_Core/Libraries/CMSIS/Include\core_cmSimd.h **** {
 473:C:\Users\Depes Crystalline\Desktop\school\Active_Bike_Lighting_System\Radar_Core/Libraries/CMSIS/Include\core_cmSimd.h ****   uint32_t result;
 474:C:\Users\Depes Crystalline\Desktop\school\Active_Bike_Lighting_System\Radar_Core/Libraries/CMSIS/Include\core_cmSimd.h **** 
 475:C:\Users\Depes Crystalline\Desktop\school\Active_Bike_Lighting_System\Radar_Core/Libraries/CMSIS/Include\core_cmSimd.h ****   __ASM volatile ("sxtb16 %0, %1" : "=r" (result) : "r" (op1));
 476:C:\Users\Depes Crystalline\Desktop\school\Active_Bike_Lighting_System\Radar_Core/Libraries/CMSIS/Include\core_cmSimd.h ****   return(result);
 477:C:\Users\Depes Crystalline\Desktop\school\Active_Bike_Lighting_System\Radar_Core/Libraries/CMSIS/Include\core_cmSimd.h **** }
 478:C:\Users\Depes Crystalline\Desktop\school\Active_Bike_Lighting_System\Radar_Core/Libraries/CMSIS/Include\core_cmSimd.h **** 
 479:C:\Users\Depes Crystalline\Desktop\school\Active_Bike_Lighting_System\Radar_Core/Libraries/CMSIS/Include\core_cmSimd.h **** __attribute__( ( always_inline ) ) __STATIC_INLINE uint32_t __SXTAB16(uint32_t op1, uint32_t op2)
 480:C:\Users\Depes Crystalline\Desktop\school\Active_Bike_Lighting_System\Radar_Core/Libraries/CMSIS/Include\core_cmSimd.h **** {
 481:C:\Users\Depes Crystalline\Desktop\school\Active_Bike_Lighting_System\Radar_Core/Libraries/CMSIS/Include\core_cmSimd.h ****   uint32_t result;
 482:C:\Users\Depes Crystalline\Desktop\school\Active_Bike_Lighting_System\Radar_Core/Libraries/CMSIS/Include\core_cmSimd.h **** 
 483:C:\Users\Depes Crystalline\Desktop\school\Active_Bike_Lighting_System\Radar_Core/Libraries/CMSIS/Include\core_cmSimd.h ****   __ASM volatile ("sxtab16 %0, %1, %2" : "=r" (result) : "r" (op1), "r" (op2) );
 484:C:\Users\Depes Crystalline\Desktop\school\Active_Bike_Lighting_System\Radar_Core/Libraries/CMSIS/Include\core_cmSimd.h ****   return(result);
 485:C:\Users\Depes Crystalline\Desktop\school\Active_Bike_Lighting_System\Radar_Core/Libraries/CMSIS/Include\core_cmSimd.h **** }
 486:C:\Users\Depes Crystalline\Desktop\school\Active_Bike_Lighting_System\Radar_Core/Libraries/CMSIS/Include\core_cmSimd.h **** 
 487:C:\Users\Depes Crystalline\Desktop\school\Active_Bike_Lighting_System\Radar_Core/Libraries/CMSIS/Include\core_cmSimd.h **** __attribute__( ( always_inline ) ) __STATIC_INLINE uint32_t __SMUAD  (uint32_t op1, uint32_t op2)
 488:C:\Users\Depes Crystalline\Desktop\school\Active_Bike_Lighting_System\Radar_Core/Libraries/CMSIS/Include\core_cmSimd.h **** {
 489:C:\Users\Depes Crystalline\Desktop\school\Active_Bike_Lighting_System\Radar_Core/Libraries/CMSIS/Include\core_cmSimd.h ****   uint32_t result;
 490:C:\Users\Depes Crystalline\Desktop\school\Active_Bike_Lighting_System\Radar_Core/Libraries/CMSIS/Include\core_cmSimd.h **** 
 491:C:\Users\Depes Crystalline\Desktop\school\Active_Bike_Lighting_System\Radar_Core/Libraries/CMSIS/Include\core_cmSimd.h ****   __ASM volatile ("smuad %0, %1, %2" : "=r" (result) : "r" (op1), "r" (op2) );
 492:C:\Users\Depes Crystalline\Desktop\school\Active_Bike_Lighting_System\Radar_Core/Libraries/CMSIS/Include\core_cmSimd.h ****   return(result);
 493:C:\Users\Depes Crystalline\Desktop\school\Active_Bike_Lighting_System\Radar_Core/Libraries/CMSIS/Include\core_cmSimd.h **** }
 494:C:\Users\Depes Crystalline\Desktop\school\Active_Bike_Lighting_System\Radar_Core/Libraries/CMSIS/Include\core_cmSimd.h **** 
 495:C:\Users\Depes Crystalline\Desktop\school\Active_Bike_Lighting_System\Radar_Core/Libraries/CMSIS/Include\core_cmSimd.h **** __attribute__( ( always_inline ) ) __STATIC_INLINE uint32_t __SMUADX (uint32_t op1, uint32_t op2)
 496:C:\Users\Depes Crystalline\Desktop\school\Active_Bike_Lighting_System\Radar_Core/Libraries/CMSIS/Include\core_cmSimd.h **** {
 497:C:\Users\Depes Crystalline\Desktop\school\Active_Bike_Lighting_System\Radar_Core/Libraries/CMSIS/Include\core_cmSimd.h ****   uint32_t result;
 498:C:\Users\Depes Crystalline\Desktop\school\Active_Bike_Lighting_System\Radar_Core/Libraries/CMSIS/Include\core_cmSimd.h **** 
 499:C:\Users\Depes Crystalline\Desktop\school\Active_Bike_Lighting_System\Radar_Core/Libraries/CMSIS/Include\core_cmSimd.h ****   __ASM volatile ("smuadx %0, %1, %2" : "=r" (result) : "r" (op1), "r" (op2) );
 500:C:\Users\Depes Crystalline\Desktop\school\Active_Bike_Lighting_System\Radar_Core/Libraries/CMSIS/Include\core_cmSimd.h ****   return(result);
 501:C:\Users\Depes Crystalline\Desktop\school\Active_Bike_Lighting_System\Radar_Core/Libraries/CMSIS/Include\core_cmSimd.h **** }
 502:C:\Users\Depes Crystalline\Desktop\school\Active_Bike_Lighting_System\Radar_Core/Libraries/CMSIS/Include\core_cmSimd.h **** 
 503:C:\Users\Depes Crystalline\Desktop\school\Active_Bike_Lighting_System\Radar_Core/Libraries/CMSIS/Include\core_cmSimd.h **** __attribute__( ( always_inline ) ) __STATIC_INLINE uint32_t __SMLAD (uint32_t op1, uint32_t op2, ui
 504:C:\Users\Depes Crystalline\Desktop\school\Active_Bike_Lighting_System\Radar_Core/Libraries/CMSIS/Include\core_cmSimd.h **** {
 505:C:\Users\Depes Crystalline\Desktop\school\Active_Bike_Lighting_System\Radar_Core/Libraries/CMSIS/Include\core_cmSimd.h ****   uint32_t result;
 506:C:\Users\Depes Crystalline\Desktop\school\Active_Bike_Lighting_System\Radar_Core/Libraries/CMSIS/Include\core_cmSimd.h **** 
 507:C:\Users\Depes Crystalline\Desktop\school\Active_Bike_Lighting_System\Radar_Core/Libraries/CMSIS/Include\core_cmSimd.h ****   __ASM volatile ("smlad %0, %1, %2, %3" : "=r" (result) : "r" (op1), "r" (op2), "r" (op3) );
 155              	 .loc 2 507 0
 156 00fa D7F81832 	 ldr r3,[r7,#536]
 157 00fe D7F81422 	 ldr r2,[r7,#532]
 158 0102 D7F81012 	 ldr r1,[r7,#528]
 159              	
 160 0106 23FB0213 	 smlad r3,r3,r2,r1
 161              	
 162              	 .thumb
 163 010a C7F80C32 	 str r3,[r7,#524]
 508:C:\Users\Depes Crystalline\Desktop\school\Active_Bike_Lighting_System\Radar_Core/Libraries/CMSIS/Include\core_cmSimd.h ****   return(result);
 164              	 .loc 2 508 0
 165 010e D7F80C32 	 ldr r3,[r7,#524]
 166              	.LBE69:
 167              	.LBE68:
 168              	 .loc 1 177 0
 169 0112 C7F87C32 	 str r3,[r7,#636]
 178:../Dave/Generated/CMSIS_DSP/FilteringFunctions/arm_conv_fast_q15.c **** 
 179:../Dave/Generated/CMSIS_DSP/FilteringFunctions/arm_conv_fast_q15.c ****       /* Decrement the loop counter */
 180:../Dave/Generated/CMSIS_DSP/FilteringFunctions/arm_conv_fast_q15.c ****       k--;
 170              	 .loc 1 180 0
 171 0116 D7F85032 	 ldr r3,[r7,#592]
 172 011a 013B     	 subs r3,r3,#1
 173 011c C7F85032 	 str r3,[r7,#592]
 174              	.L5:
 174:../Dave/Generated/CMSIS_DSP/FilteringFunctions/arm_conv_fast_q15.c ****     {
 175              	 .loc 1 174 0
 176 0120 D7F85032 	 ldr r3,[r7,#592]
 177 0124 002B     	 cmp r3,#0
 178 0126 CED1     	 bne .L7
 181:../Dave/Generated/CMSIS_DSP/FilteringFunctions/arm_conv_fast_q15.c ****     }
 182:../Dave/Generated/CMSIS_DSP/FilteringFunctions/arm_conv_fast_q15.c **** 
 183:../Dave/Generated/CMSIS_DSP/FilteringFunctions/arm_conv_fast_q15.c ****     /* Store the result in the accumulator in the destination buffer. */
 184:../Dave/Generated/CMSIS_DSP/FilteringFunctions/arm_conv_fast_q15.c ****     *pOut++ = (q15_t) (sum >> 15);
 179              	 .loc 1 184 0
 180 0128 07F11803 	 add r3,r7,#24
 181 012c 1B68     	 ldr r3,[r3]
 182 012e 991C     	 adds r1,r3,#2
 183 0130 07F11802 	 add r2,r7,#24
 184 0134 1160     	 str r1,[r2]
 185 0136 D7F87C22 	 ldr r2,[r7,#636]
 186 013a D213     	 asrs r2,r2,#15
 187 013c 92B2     	 uxth r2,r2
 188 013e 1A80     	 strh r2,[r3]
 185:../Dave/Generated/CMSIS_DSP/FilteringFunctions/arm_conv_fast_q15.c **** 
 186:../Dave/Generated/CMSIS_DSP/FilteringFunctions/arm_conv_fast_q15.c ****     /* Update the inputA and inputB pointers for next MAC calculation */
 187:../Dave/Generated/CMSIS_DSP/FilteringFunctions/arm_conv_fast_q15.c ****     py = pIn2 + count;
 189              	 .loc 1 187 0
 190 0140 D7F84C32 	 ldr r3,[r7,#588]
 191 0144 5B00     	 lsls r3,r3,#1
 192 0146 D7F88022 	 ldr r2,[r7,#640]
 193 014a 1A44     	 add r2,r2,r3
 194 014c 07F11003 	 add r3,r7,#16
 195 0150 1A60     	 str r2,[r3]
 188:../Dave/Generated/CMSIS_DSP/FilteringFunctions/arm_conv_fast_q15.c ****     px = pIn1;
 196              	 .loc 1 188 0
 197 0152 07F11403 	 add r3,r7,#20
 198 0156 D7F88422 	 ldr r2,[r7,#644]
 199 015a 1A60     	 str r2,[r3]
 189:../Dave/Generated/CMSIS_DSP/FilteringFunctions/arm_conv_fast_q15.c **** 
 190:../Dave/Generated/CMSIS_DSP/FilteringFunctions/arm_conv_fast_q15.c ****     /* Increment the MAC count */
 191:../Dave/Generated/CMSIS_DSP/FilteringFunctions/arm_conv_fast_q15.c ****     count++;
 200              	 .loc 1 191 0
 201 015c D7F84C32 	 ldr r3,[r7,#588]
 202 0160 0133     	 adds r3,r3,#1
 203 0162 C7F84C32 	 str r3,[r7,#588]
 192:../Dave/Generated/CMSIS_DSP/FilteringFunctions/arm_conv_fast_q15.c **** 
 193:../Dave/Generated/CMSIS_DSP/FilteringFunctions/arm_conv_fast_q15.c ****     /* Decrement the loop counter */
 194:../Dave/Generated/CMSIS_DSP/FilteringFunctions/arm_conv_fast_q15.c ****     blockSize1--;
 204              	 .loc 1 194 0
 205 0166 D7F85C32 	 ldr r3,[r7,#604]
 206 016a 013B     	 subs r3,r3,#1
 207 016c C7F85C32 	 str r3,[r7,#604]
 208              	.L4:
 165:../Dave/Generated/CMSIS_DSP/FilteringFunctions/arm_conv_fast_q15.c ****   {
 209              	 .loc 1 165 0
 210 0170 D7F84C32 	 ldr r3,[r7,#588]
 211 0174 032B     	 cmp r3,#3
 212 0176 03D8     	 bhi .L8
 165:../Dave/Generated/CMSIS_DSP/FilteringFunctions/arm_conv_fast_q15.c ****   {
 213              	 .loc 1 165 0 is_stmt 0 discriminator 1
 214 0178 D7F85C32 	 ldr r3,[r7,#604]
 215 017c 002B     	 cmp r3,#0
 216 017e 9AD1     	 bne .L9
 217              	.L8:
 195:../Dave/Generated/CMSIS_DSP/FilteringFunctions/arm_conv_fast_q15.c ****   }
 196:../Dave/Generated/CMSIS_DSP/FilteringFunctions/arm_conv_fast_q15.c **** 
 197:../Dave/Generated/CMSIS_DSP/FilteringFunctions/arm_conv_fast_q15.c ****   /* The second part of the stage starts here */
 198:../Dave/Generated/CMSIS_DSP/FilteringFunctions/arm_conv_fast_q15.c ****   /* The internal loop, over count, is unrolled by 4 */
 199:../Dave/Generated/CMSIS_DSP/FilteringFunctions/arm_conv_fast_q15.c ****   /* To, read the last two inputB samples using SIMD:   
 200:../Dave/Generated/CMSIS_DSP/FilteringFunctions/arm_conv_fast_q15.c ****    * y[srcBLen] and y[srcBLen-1] coefficients, py is decremented by 1 */
 201:../Dave/Generated/CMSIS_DSP/FilteringFunctions/arm_conv_fast_q15.c ****   py = py - 1;
 218              	 .loc 1 201 0 is_stmt 1
 219 0180 07F11003 	 add r3,r7,#16
 220 0184 1B68     	 ldr r3,[r3]
 221 0186 9A1E     	 subs r2,r3,#2
 222 0188 07F11003 	 add r3,r7,#16
 223 018c 1A60     	 str r2,[r3]
 202:../Dave/Generated/CMSIS_DSP/FilteringFunctions/arm_conv_fast_q15.c **** 
 203:../Dave/Generated/CMSIS_DSP/FilteringFunctions/arm_conv_fast_q15.c ****   while(blockSize1 > 0u)
 224              	 .loc 1 203 0
 225 018e BFE0     	 b .L10
 226              	.L18:
 204:../Dave/Generated/CMSIS_DSP/FilteringFunctions/arm_conv_fast_q15.c ****   {
 205:../Dave/Generated/CMSIS_DSP/FilteringFunctions/arm_conv_fast_q15.c ****     /* Accumulator is made zero for every iteration */
 206:../Dave/Generated/CMSIS_DSP/FilteringFunctions/arm_conv_fast_q15.c ****     sum = 0;
 227              	 .loc 1 206 0
 228 0190 0023     	 movs r3,#0
 229 0192 C7F87C32 	 str r3,[r7,#636]
 207:../Dave/Generated/CMSIS_DSP/FilteringFunctions/arm_conv_fast_q15.c **** 
 208:../Dave/Generated/CMSIS_DSP/FilteringFunctions/arm_conv_fast_q15.c ****     /* Apply loop unrolling and compute 4 MACs simultaneously. */
 209:../Dave/Generated/CMSIS_DSP/FilteringFunctions/arm_conv_fast_q15.c ****     k = count >> 2u;
 230              	 .loc 1 209 0
 231 0196 D7F84C32 	 ldr r3,[r7,#588]
 232 019a 9B08     	 lsrs r3,r3,#2
 233 019c C7F85032 	 str r3,[r7,#592]
 210:../Dave/Generated/CMSIS_DSP/FilteringFunctions/arm_conv_fast_q15.c **** 
 211:../Dave/Generated/CMSIS_DSP/FilteringFunctions/arm_conv_fast_q15.c ****     /* First part of the processing with loop unrolling.  Compute 4 MACs at a time.   
 212:../Dave/Generated/CMSIS_DSP/FilteringFunctions/arm_conv_fast_q15.c ****      ** a second loop below computes MACs for the remaining 1 to 3 samples. */
 213:../Dave/Generated/CMSIS_DSP/FilteringFunctions/arm_conv_fast_q15.c ****     while(k > 0u)
 234              	 .loc 1 213 0
 235 01a0 4CE0     	 b .L11
 236              	.L14:
 214:../Dave/Generated/CMSIS_DSP/FilteringFunctions/arm_conv_fast_q15.c ****     {
 215:../Dave/Generated/CMSIS_DSP/FilteringFunctions/arm_conv_fast_q15.c ****       /* Perform the multiply-accumulates */
 216:../Dave/Generated/CMSIS_DSP/FilteringFunctions/arm_conv_fast_q15.c ****       /* x[0], x[1] are multiplied with y[srcBLen - 1], y[srcBLen - 2] respectively */
 217:../Dave/Generated/CMSIS_DSP/FilteringFunctions/arm_conv_fast_q15.c ****       sum = __SMLADX(*__SIMD32(px)++, *__SIMD32(py)--, sum);
 237              	 .loc 1 217 0
 238 01a2 07F11402 	 add r2,r7,#20
 239 01a6 1368     	 ldr r3,[r2]
 240 01a8 191D     	 adds r1,r3,#4
 241 01aa 1160     	 str r1,[r2]
 242 01ac 1B68     	 ldr r3,[r3]
 243 01ae 1846     	 mov r0,r3
 244 01b0 07F11002 	 add r2,r7,#16
 245 01b4 1368     	 ldr r3,[r2]
 246 01b6 191F     	 subs r1,r3,#4
 247 01b8 1160     	 str r1,[r2]
 248 01ba 1B68     	 ldr r3,[r3]
 249 01bc 1A46     	 mov r2,r3
 250 01be D7F87C32 	 ldr r3,[r7,#636]
 251 01c2 C7F80802 	 str r0,[r7,#520]
 252 01c6 C7F80422 	 str r2,[r7,#516]
 253 01ca C7F80032 	 str r3,[r7,#512]
 254              	.LBB70:
 255              	.LBB71:
 509:C:\Users\Depes Crystalline\Desktop\school\Active_Bike_Lighting_System\Radar_Core/Libraries/CMSIS/Include\core_cmSimd.h **** }
 510:C:\Users\Depes Crystalline\Desktop\school\Active_Bike_Lighting_System\Radar_Core/Libraries/CMSIS/Include\core_cmSimd.h **** 
 511:C:\Users\Depes Crystalline\Desktop\school\Active_Bike_Lighting_System\Radar_Core/Libraries/CMSIS/Include\core_cmSimd.h **** __attribute__( ( always_inline ) ) __STATIC_INLINE uint32_t __SMLADX (uint32_t op1, uint32_t op2, u
 512:C:\Users\Depes Crystalline\Desktop\school\Active_Bike_Lighting_System\Radar_Core/Libraries/CMSIS/Include\core_cmSimd.h **** {
 513:C:\Users\Depes Crystalline\Desktop\school\Active_Bike_Lighting_System\Radar_Core/Libraries/CMSIS/Include\core_cmSimd.h ****   uint32_t result;
 514:C:\Users\Depes Crystalline\Desktop\school\Active_Bike_Lighting_System\Radar_Core/Libraries/CMSIS/Include\core_cmSimd.h **** 
 515:C:\Users\Depes Crystalline\Desktop\school\Active_Bike_Lighting_System\Radar_Core/Libraries/CMSIS/Include\core_cmSimd.h ****   __ASM volatile ("smladx %0, %1, %2, %3" : "=r" (result) : "r" (op1), "r" (op2), "r" (op3) );
 256              	 .loc 2 515 0
 257 01ce D7F80832 	 ldr r3,[r7,#520]
 258 01d2 D7F80422 	 ldr r2,[r7,#516]
 259 01d6 D7F80012 	 ldr r1,[r7,#512]
 260              	
 261 01da 23FB1213 	 smladx r3,r3,r2,r1
 262              	
 263              	 .thumb
 264 01de C7F8FC31 	 str r3,[r7,#508]
 516:C:\Users\Depes Crystalline\Desktop\school\Active_Bike_Lighting_System\Radar_Core/Libraries/CMSIS/Include\core_cmSimd.h ****   return(result);
 265              	 .loc 2 516 0
 266 01e2 D7F8FC31 	 ldr r3,[r7,#508]
 267              	.LBE71:
 268              	.LBE70:
 269              	 .loc 1 217 0
 270 01e6 C7F87C32 	 str r3,[r7,#636]
 218:../Dave/Generated/CMSIS_DSP/FilteringFunctions/arm_conv_fast_q15.c ****       /* x[2], x[3] are multiplied with y[srcBLen - 3], y[srcBLen - 4] respectively */
 219:../Dave/Generated/CMSIS_DSP/FilteringFunctions/arm_conv_fast_q15.c ****       sum = __SMLADX(*__SIMD32(px)++, *__SIMD32(py)--, sum);
 271              	 .loc 1 219 0
 272 01ea 07F11402 	 add r2,r7,#20
 273 01ee 1368     	 ldr r3,[r2]
 274 01f0 191D     	 adds r1,r3,#4
 275 01f2 1160     	 str r1,[r2]
 276 01f4 1B68     	 ldr r3,[r3]
 277 01f6 1846     	 mov r0,r3
 278 01f8 07F11002 	 add r2,r7,#16
 279 01fc 1368     	 ldr r3,[r2]
 280 01fe 191F     	 subs r1,r3,#4
 281 0200 1160     	 str r1,[r2]
 282 0202 1B68     	 ldr r3,[r3]
 283 0204 1A46     	 mov r2,r3
 284 0206 D7F87C32 	 ldr r3,[r7,#636]
 285 020a C7F8F801 	 str r0,[r7,#504]
 286 020e C7F8F421 	 str r2,[r7,#500]
 287 0212 C7F8F031 	 str r3,[r7,#496]
 288              	.LBB72:
 289              	.LBB73:
 515:C:\Users\Depes Crystalline\Desktop\school\Active_Bike_Lighting_System\Radar_Core/Libraries/CMSIS/Include\core_cmSimd.h ****   return(result);
 290              	 .loc 2 515 0
 291 0216 D7F8F831 	 ldr r3,[r7,#504]
 292 021a D7F8F421 	 ldr r2,[r7,#500]
 293 021e D7F8F011 	 ldr r1,[r7,#496]
 294              	
 295 0222 23FB1213 	 smladx r3,r3,r2,r1
 296              	
 297              	 .thumb
 298 0226 C7F8EC31 	 str r3,[r7,#492]
 299              	 .loc 2 516 0
 300 022a D7F8EC31 	 ldr r3,[r7,#492]
 301              	.LBE73:
 302              	.LBE72:
 303              	 .loc 1 219 0
 304 022e C7F87C32 	 str r3,[r7,#636]
 220:../Dave/Generated/CMSIS_DSP/FilteringFunctions/arm_conv_fast_q15.c **** 
 221:../Dave/Generated/CMSIS_DSP/FilteringFunctions/arm_conv_fast_q15.c ****       /* Decrement the loop counter */
 222:../Dave/Generated/CMSIS_DSP/FilteringFunctions/arm_conv_fast_q15.c ****       k--;
 305              	 .loc 1 222 0
 306 0232 D7F85032 	 ldr r3,[r7,#592]
 307 0236 013B     	 subs r3,r3,#1
 308 0238 C7F85032 	 str r3,[r7,#592]
 309              	.L11:
 213:../Dave/Generated/CMSIS_DSP/FilteringFunctions/arm_conv_fast_q15.c ****     {
 310              	 .loc 1 213 0
 311 023c D7F85032 	 ldr r3,[r7,#592]
 312 0240 002B     	 cmp r3,#0
 313 0242 AED1     	 bne .L14
 223:../Dave/Generated/CMSIS_DSP/FilteringFunctions/arm_conv_fast_q15.c ****     }
 224:../Dave/Generated/CMSIS_DSP/FilteringFunctions/arm_conv_fast_q15.c **** 
 225:../Dave/Generated/CMSIS_DSP/FilteringFunctions/arm_conv_fast_q15.c ****     /* For the next MAC operations, the pointer py is used without SIMD   
 226:../Dave/Generated/CMSIS_DSP/FilteringFunctions/arm_conv_fast_q15.c ****      * So, py is incremented by 1 */
 227:../Dave/Generated/CMSIS_DSP/FilteringFunctions/arm_conv_fast_q15.c ****     py = py + 1u;
 314              	 .loc 1 227 0
 315 0244 07F11003 	 add r3,r7,#16
 316 0248 1B68     	 ldr r3,[r3]
 317 024a 9A1C     	 adds r2,r3,#2
 318 024c 07F11003 	 add r3,r7,#16
 319 0250 1A60     	 str r2,[r3]
 228:../Dave/Generated/CMSIS_DSP/FilteringFunctions/arm_conv_fast_q15.c **** 
 229:../Dave/Generated/CMSIS_DSP/FilteringFunctions/arm_conv_fast_q15.c ****     /* If the count is not a multiple of 4, compute any remaining MACs here.   
 230:../Dave/Generated/CMSIS_DSP/FilteringFunctions/arm_conv_fast_q15.c ****      ** No loop unrolling is used. */
 231:../Dave/Generated/CMSIS_DSP/FilteringFunctions/arm_conv_fast_q15.c ****     k = count % 0x4u;
 320              	 .loc 1 231 0
 321 0252 D7F84C32 	 ldr r3,[r7,#588]
 322 0256 03F00303 	 and r3,r3,#3
 323 025a C7F85032 	 str r3,[r7,#592]
 232:../Dave/Generated/CMSIS_DSP/FilteringFunctions/arm_conv_fast_q15.c **** 
 233:../Dave/Generated/CMSIS_DSP/FilteringFunctions/arm_conv_fast_q15.c ****     while(k > 0u)
 324              	 .loc 1 233 0
 325 025e 2CE0     	 b .L15
 326              	.L17:
 234:../Dave/Generated/CMSIS_DSP/FilteringFunctions/arm_conv_fast_q15.c ****     {
 235:../Dave/Generated/CMSIS_DSP/FilteringFunctions/arm_conv_fast_q15.c ****       /* Perform the multiply-accumulates */
 236:../Dave/Generated/CMSIS_DSP/FilteringFunctions/arm_conv_fast_q15.c ****       sum = __SMLAD(*px++, *py--, sum);
 327              	 .loc 1 236 0
 328 0260 07F11403 	 add r3,r7,#20
 329 0264 1B68     	 ldr r3,[r3]
 330 0266 991C     	 adds r1,r3,#2
 331 0268 07F11402 	 add r2,r7,#20
 332 026c 1160     	 str r1,[r2]
 333 026e 1B88     	 ldrh r3,[r3]
 334 0270 19B2     	 sxth r1,r3
 335 0272 07F11003 	 add r3,r7,#16
 336 0276 1B68     	 ldr r3,[r3]
 337 0278 981E     	 subs r0,r3,#2
 338 027a 07F11002 	 add r2,r7,#16
 339 027e 1060     	 str r0,[r2]
 340 0280 1B88     	 ldrh r3,[r3]
 341 0282 1AB2     	 sxth r2,r3
 342 0284 D7F87C32 	 ldr r3,[r7,#636]
 343 0288 C7F8E811 	 str r1,[r7,#488]
 344 028c C7F8E421 	 str r2,[r7,#484]
 345 0290 C7F8E031 	 str r3,[r7,#480]
 346              	.LBB74:
 347              	.LBB75:
 507:C:\Users\Depes Crystalline\Desktop\school\Active_Bike_Lighting_System\Radar_Core/Libraries/CMSIS/Include\core_cmSimd.h ****   return(result);
 348              	 .loc 2 507 0
 349 0294 D7F8E831 	 ldr r3,[r7,#488]
 350 0298 D7F8E421 	 ldr r2,[r7,#484]
 351 029c D7F8E011 	 ldr r1,[r7,#480]
 352              	
 353 02a0 23FB0213 	 smlad r3,r3,r2,r1
 354              	
 355              	 .thumb
 356 02a4 C7F8DC31 	 str r3,[r7,#476]
 508:C:\Users\Depes Crystalline\Desktop\school\Active_Bike_Lighting_System\Radar_Core/Libraries/CMSIS/Include\core_cmSimd.h **** }
 357              	 .loc 2 508 0
 358 02a8 D7F8DC31 	 ldr r3,[r7,#476]
 359              	.LBE75:
 360              	.LBE74:
 361              	 .loc 1 236 0
 362 02ac C7F87C32 	 str r3,[r7,#636]
 237:../Dave/Generated/CMSIS_DSP/FilteringFunctions/arm_conv_fast_q15.c **** 
 238:../Dave/Generated/CMSIS_DSP/FilteringFunctions/arm_conv_fast_q15.c ****       /* Decrement the loop counter */
 239:../Dave/Generated/CMSIS_DSP/FilteringFunctions/arm_conv_fast_q15.c ****       k--;
 363              	 .loc 1 239 0
 364 02b0 D7F85032 	 ldr r3,[r7,#592]
 365 02b4 013B     	 subs r3,r3,#1
 366 02b6 C7F85032 	 str r3,[r7,#592]
 367              	.L15:
 233:../Dave/Generated/CMSIS_DSP/FilteringFunctions/arm_conv_fast_q15.c ****     {
 368              	 .loc 1 233 0
 369 02ba D7F85032 	 ldr r3,[r7,#592]
 370 02be 002B     	 cmp r3,#0
 371 02c0 CED1     	 bne .L17
 240:../Dave/Generated/CMSIS_DSP/FilteringFunctions/arm_conv_fast_q15.c ****     }
 241:../Dave/Generated/CMSIS_DSP/FilteringFunctions/arm_conv_fast_q15.c **** 
 242:../Dave/Generated/CMSIS_DSP/FilteringFunctions/arm_conv_fast_q15.c ****     /* Store the result in the accumulator in the destination buffer. */
 243:../Dave/Generated/CMSIS_DSP/FilteringFunctions/arm_conv_fast_q15.c ****     *pOut++ = (q15_t) (sum >> 15);
 372              	 .loc 1 243 0
 373 02c2 07F11803 	 add r3,r7,#24
 374 02c6 1B68     	 ldr r3,[r3]
 375 02c8 991C     	 adds r1,r3,#2
 376 02ca 07F11802 	 add r2,r7,#24
 377 02ce 1160     	 str r1,[r2]
 378 02d0 D7F87C22 	 ldr r2,[r7,#636]
 379 02d4 D213     	 asrs r2,r2,#15
 380 02d6 92B2     	 uxth r2,r2
 381 02d8 1A80     	 strh r2,[r3]
 244:../Dave/Generated/CMSIS_DSP/FilteringFunctions/arm_conv_fast_q15.c **** 
 245:../Dave/Generated/CMSIS_DSP/FilteringFunctions/arm_conv_fast_q15.c ****     /* Update the inputA and inputB pointers for next MAC calculation */
 246:../Dave/Generated/CMSIS_DSP/FilteringFunctions/arm_conv_fast_q15.c ****     py = pIn2 + (count - 1u);
 382              	 .loc 1 246 0
 383 02da D7F84C32 	 ldr r3,[r7,#588]
 384 02de 03F10043 	 add r3,r3,#-2147483648
 385 02e2 013B     	 subs r3,r3,#1
 386 02e4 5B00     	 lsls r3,r3,#1
 387 02e6 D7F88022 	 ldr r2,[r7,#640]
 388 02ea 1A44     	 add r2,r2,r3
 389 02ec 07F11003 	 add r3,r7,#16
 390 02f0 1A60     	 str r2,[r3]
 247:../Dave/Generated/CMSIS_DSP/FilteringFunctions/arm_conv_fast_q15.c ****     px = pIn1;
 391              	 .loc 1 247 0
 392 02f2 07F11403 	 add r3,r7,#20
 393 02f6 D7F88422 	 ldr r2,[r7,#644]
 394 02fa 1A60     	 str r2,[r3]
 248:../Dave/Generated/CMSIS_DSP/FilteringFunctions/arm_conv_fast_q15.c **** 
 249:../Dave/Generated/CMSIS_DSP/FilteringFunctions/arm_conv_fast_q15.c ****     /* Increment the MAC count */
 250:../Dave/Generated/CMSIS_DSP/FilteringFunctions/arm_conv_fast_q15.c ****     count++;
 395              	 .loc 1 250 0
 396 02fc D7F84C32 	 ldr r3,[r7,#588]
 397 0300 0133     	 adds r3,r3,#1
 398 0302 C7F84C32 	 str r3,[r7,#588]
 251:../Dave/Generated/CMSIS_DSP/FilteringFunctions/arm_conv_fast_q15.c **** 
 252:../Dave/Generated/CMSIS_DSP/FilteringFunctions/arm_conv_fast_q15.c ****     /* Decrement the loop counter */
 253:../Dave/Generated/CMSIS_DSP/FilteringFunctions/arm_conv_fast_q15.c ****     blockSize1--;
 399              	 .loc 1 253 0
 400 0306 D7F85C32 	 ldr r3,[r7,#604]
 401 030a 013B     	 subs r3,r3,#1
 402 030c C7F85C32 	 str r3,[r7,#604]
 403              	.L10:
 203:../Dave/Generated/CMSIS_DSP/FilteringFunctions/arm_conv_fast_q15.c ****   {
 404              	 .loc 1 203 0
 405 0310 D7F85C32 	 ldr r3,[r7,#604]
 406 0314 002B     	 cmp r3,#0
 407 0316 7FF43BAF 	 bne .L18
 254:../Dave/Generated/CMSIS_DSP/FilteringFunctions/arm_conv_fast_q15.c ****   }
 255:../Dave/Generated/CMSIS_DSP/FilteringFunctions/arm_conv_fast_q15.c **** 
 256:../Dave/Generated/CMSIS_DSP/FilteringFunctions/arm_conv_fast_q15.c ****   /* --------------------------   
 257:../Dave/Generated/CMSIS_DSP/FilteringFunctions/arm_conv_fast_q15.c ****    * Initializations of stage2   
 258:../Dave/Generated/CMSIS_DSP/FilteringFunctions/arm_conv_fast_q15.c ****    * ------------------------*/
 259:../Dave/Generated/CMSIS_DSP/FilteringFunctions/arm_conv_fast_q15.c **** 
 260:../Dave/Generated/CMSIS_DSP/FilteringFunctions/arm_conv_fast_q15.c ****   /* sum = x[0] * y[srcBLen-1] + x[1] * y[srcBLen-2] +...+ x[srcBLen-1] * y[0]   
 261:../Dave/Generated/CMSIS_DSP/FilteringFunctions/arm_conv_fast_q15.c ****    * sum = x[1] * y[srcBLen-1] + x[2] * y[srcBLen-2] +...+ x[srcBLen] * y[0]   
 262:../Dave/Generated/CMSIS_DSP/FilteringFunctions/arm_conv_fast_q15.c ****    * ....   
 263:../Dave/Generated/CMSIS_DSP/FilteringFunctions/arm_conv_fast_q15.c ****    * sum = x[srcALen-srcBLen-2] * y[srcBLen-1] + x[srcALen] * y[srcBLen-2] +...+ x[srcALen-1] * y[0
 264:../Dave/Generated/CMSIS_DSP/FilteringFunctions/arm_conv_fast_q15.c ****    */
 265:../Dave/Generated/CMSIS_DSP/FilteringFunctions/arm_conv_fast_q15.c **** 
 266:../Dave/Generated/CMSIS_DSP/FilteringFunctions/arm_conv_fast_q15.c ****   /* Working pointer of inputA */
 267:../Dave/Generated/CMSIS_DSP/FilteringFunctions/arm_conv_fast_q15.c ****   px = pIn1;
 408              	 .loc 1 267 0
 409 031a 07F11403 	 add r3,r7,#20
 410 031e D7F88422 	 ldr r2,[r7,#644]
 411 0322 1A60     	 str r2,[r3]
 268:../Dave/Generated/CMSIS_DSP/FilteringFunctions/arm_conv_fast_q15.c **** 
 269:../Dave/Generated/CMSIS_DSP/FilteringFunctions/arm_conv_fast_q15.c ****   /* Working pointer of inputB */
 270:../Dave/Generated/CMSIS_DSP/FilteringFunctions/arm_conv_fast_q15.c ****   pSrc2 = pIn2 + (srcBLen - 1u);
 412              	 .loc 1 270 0
 413 0324 3B46     	 mov r3,r7
 414 0326 1B68     	 ldr r3,[r3]
 415 0328 03F10043 	 add r3,r3,#-2147483648
 416 032c 013B     	 subs r3,r3,#1
 417 032e 5B00     	 lsls r3,r3,#1
 418 0330 D7F88022 	 ldr r2,[r7,#640]
 419 0334 1344     	 add r3,r3,r2
 420 0336 C7F84032 	 str r3,[r7,#576]
 271:../Dave/Generated/CMSIS_DSP/FilteringFunctions/arm_conv_fast_q15.c ****   py = pSrc2;
 421              	 .loc 1 271 0
 422 033a 07F11003 	 add r3,r7,#16
 423 033e D7F84022 	 ldr r2,[r7,#576]
 424 0342 1A60     	 str r2,[r3]
 272:../Dave/Generated/CMSIS_DSP/FilteringFunctions/arm_conv_fast_q15.c **** 
 273:../Dave/Generated/CMSIS_DSP/FilteringFunctions/arm_conv_fast_q15.c ****   /* count is the index by which the pointer pIn1 to be incremented */
 274:../Dave/Generated/CMSIS_DSP/FilteringFunctions/arm_conv_fast_q15.c ****   count = 0u;
 425              	 .loc 1 274 0
 426 0344 0023     	 movs r3,#0
 427 0346 C7F84C32 	 str r3,[r7,#588]
 275:../Dave/Generated/CMSIS_DSP/FilteringFunctions/arm_conv_fast_q15.c **** 
 276:../Dave/Generated/CMSIS_DSP/FilteringFunctions/arm_conv_fast_q15.c **** 
 277:../Dave/Generated/CMSIS_DSP/FilteringFunctions/arm_conv_fast_q15.c ****   /* --------------------   
 278:../Dave/Generated/CMSIS_DSP/FilteringFunctions/arm_conv_fast_q15.c ****    * Stage2 process   
 279:../Dave/Generated/CMSIS_DSP/FilteringFunctions/arm_conv_fast_q15.c ****    * -------------------*/
 280:../Dave/Generated/CMSIS_DSP/FilteringFunctions/arm_conv_fast_q15.c **** 
 281:../Dave/Generated/CMSIS_DSP/FilteringFunctions/arm_conv_fast_q15.c ****   /* Stage2 depends on srcBLen as in this stage srcBLen number of MACS are performed.   
 282:../Dave/Generated/CMSIS_DSP/FilteringFunctions/arm_conv_fast_q15.c ****    * So, to loop unroll over blockSize2,   
 283:../Dave/Generated/CMSIS_DSP/FilteringFunctions/arm_conv_fast_q15.c ****    * srcBLen should be greater than or equal to 4 */
 284:../Dave/Generated/CMSIS_DSP/FilteringFunctions/arm_conv_fast_q15.c ****   if(srcBLen >= 4u)
 428              	 .loc 1 284 0
 429 034a 3B46     	 mov r3,r7
 430 034c 1B68     	 ldr r3,[r3]
 431 034e 032B     	 cmp r3,#3
 432 0350 40F20E85 	 bls .L19
 285:../Dave/Generated/CMSIS_DSP/FilteringFunctions/arm_conv_fast_q15.c ****   {
 286:../Dave/Generated/CMSIS_DSP/FilteringFunctions/arm_conv_fast_q15.c ****     /* Loop unroll over blockSize2, by 4 */
 287:../Dave/Generated/CMSIS_DSP/FilteringFunctions/arm_conv_fast_q15.c ****     blkCnt = blockSize2 >> 2u;
 433              	 .loc 1 287 0
 434 0354 D7F84432 	 ldr r3,[r7,#580]
 435 0358 9B08     	 lsrs r3,r3,#2
 436 035a C7F84832 	 str r3,[r7,#584]
 288:../Dave/Generated/CMSIS_DSP/FilteringFunctions/arm_conv_fast_q15.c **** 
 289:../Dave/Generated/CMSIS_DSP/FilteringFunctions/arm_conv_fast_q15.c ****     while(blkCnt > 0u)
 437              	 .loc 1 289 0
 438 035e 00F032BC 	 b .L20
 439              	.L49:
 290:../Dave/Generated/CMSIS_DSP/FilteringFunctions/arm_conv_fast_q15.c ****     {
 291:../Dave/Generated/CMSIS_DSP/FilteringFunctions/arm_conv_fast_q15.c ****       py = py - 1u;
 440              	 .loc 1 291 0
 441 0362 07F11003 	 add r3,r7,#16
 442 0366 1B68     	 ldr r3,[r3]
 443 0368 9A1E     	 subs r2,r3,#2
 444 036a 07F11003 	 add r3,r7,#16
 445 036e 1A60     	 str r2,[r3]
 292:../Dave/Generated/CMSIS_DSP/FilteringFunctions/arm_conv_fast_q15.c **** 
 293:../Dave/Generated/CMSIS_DSP/FilteringFunctions/arm_conv_fast_q15.c ****       /* Set all accumulators to zero */
 294:../Dave/Generated/CMSIS_DSP/FilteringFunctions/arm_conv_fast_q15.c ****       acc0 = 0;
 446              	 .loc 1 294 0
 447 0370 0023     	 movs r3,#0
 448 0372 C7F87832 	 str r3,[r7,#632]
 295:../Dave/Generated/CMSIS_DSP/FilteringFunctions/arm_conv_fast_q15.c ****       acc1 = 0;
 449              	 .loc 1 295 0
 450 0376 0023     	 movs r3,#0
 451 0378 C7F87432 	 str r3,[r7,#628]
 296:../Dave/Generated/CMSIS_DSP/FilteringFunctions/arm_conv_fast_q15.c ****       acc2 = 0;
 452              	 .loc 1 296 0
 453 037c 0023     	 movs r3,#0
 454 037e C7F87032 	 str r3,[r7,#624]
 297:../Dave/Generated/CMSIS_DSP/FilteringFunctions/arm_conv_fast_q15.c ****       acc3 = 0;
 455              	 .loc 1 297 0
 456 0382 0023     	 movs r3,#0
 457 0384 C7F86C32 	 str r3,[r7,#620]
 298:../Dave/Generated/CMSIS_DSP/FilteringFunctions/arm_conv_fast_q15.c **** 
 299:../Dave/Generated/CMSIS_DSP/FilteringFunctions/arm_conv_fast_q15.c **** 
 300:../Dave/Generated/CMSIS_DSP/FilteringFunctions/arm_conv_fast_q15.c ****       /* read x[0], x[1] samples */
 301:../Dave/Generated/CMSIS_DSP/FilteringFunctions/arm_conv_fast_q15.c ****       x0 = *__SIMD32(px);
 458              	 .loc 1 301 0
 459 0388 07F11403 	 add r3,r7,#20
 460 038c 1B68     	 ldr r3,[r3]
 461 038e 1B68     	 ldr r3,[r3]
 462 0390 C7F86432 	 str r3,[r7,#612]
 302:../Dave/Generated/CMSIS_DSP/FilteringFunctions/arm_conv_fast_q15.c ****       /* read x[1], x[2] samples */
 303:../Dave/Generated/CMSIS_DSP/FilteringFunctions/arm_conv_fast_q15.c ****       x1 = _SIMD32_OFFSET(px+1);
 463              	 .loc 1 303 0
 464 0394 07F11403 	 add r3,r7,#20
 465 0398 1B68     	 ldr r3,[r3]
 466 039a D3F80230 	 ldr r3,[r3,#2]
 467 039e C7F86032 	 str r3,[r7,#608]
 304:../Dave/Generated/CMSIS_DSP/FilteringFunctions/arm_conv_fast_q15.c **** 	  px+= 2u;
 468              	 .loc 1 304 0
 469 03a2 07F11403 	 add r3,r7,#20
 470 03a6 1B68     	 ldr r3,[r3]
 471 03a8 1A1D     	 adds r2,r3,#4
 472 03aa 07F11403 	 add r3,r7,#20
 473 03ae 1A60     	 str r2,[r3]
 305:../Dave/Generated/CMSIS_DSP/FilteringFunctions/arm_conv_fast_q15.c **** 
 306:../Dave/Generated/CMSIS_DSP/FilteringFunctions/arm_conv_fast_q15.c **** 
 307:../Dave/Generated/CMSIS_DSP/FilteringFunctions/arm_conv_fast_q15.c ****       /* Apply loop unrolling and compute 4 MACs simultaneously. */
 308:../Dave/Generated/CMSIS_DSP/FilteringFunctions/arm_conv_fast_q15.c ****       k = srcBLen >> 2u;
 474              	 .loc 1 308 0
 475 03b0 3B46     	 mov r3,r7
 476 03b2 1B68     	 ldr r3,[r3]
 477 03b4 9B08     	 lsrs r3,r3,#2
 478 03b6 C7F85032 	 str r3,[r7,#592]
 479              	.L29:
 309:../Dave/Generated/CMSIS_DSP/FilteringFunctions/arm_conv_fast_q15.c **** 
 310:../Dave/Generated/CMSIS_DSP/FilteringFunctions/arm_conv_fast_q15.c ****       /* First part of the processing with loop unrolling.  Compute 4 MACs at a time.   
 311:../Dave/Generated/CMSIS_DSP/FilteringFunctions/arm_conv_fast_q15.c ****        ** a second loop below computes MACs for the remaining 1 to 3 samples. */
 312:../Dave/Generated/CMSIS_DSP/FilteringFunctions/arm_conv_fast_q15.c ****       do
 313:../Dave/Generated/CMSIS_DSP/FilteringFunctions/arm_conv_fast_q15.c ****       {
 314:../Dave/Generated/CMSIS_DSP/FilteringFunctions/arm_conv_fast_q15.c ****         /* Read the last two inputB samples using SIMD:   
 315:../Dave/Generated/CMSIS_DSP/FilteringFunctions/arm_conv_fast_q15.c ****          * y[srcBLen - 1] and y[srcBLen - 2] */
 316:../Dave/Generated/CMSIS_DSP/FilteringFunctions/arm_conv_fast_q15.c ****         c0 = *__SIMD32(py)--;
 480              	 .loc 1 316 0 discriminator 1
 481 03ba 07F11002 	 add r2,r7,#16
 482 03be 1368     	 ldr r3,[r2]
 483 03c0 191F     	 subs r1,r3,#4
 484 03c2 1160     	 str r1,[r2]
 485 03c4 1B68     	 ldr r3,[r3]
 486 03c6 C7F83C32 	 str r3,[r7,#572]
 317:../Dave/Generated/CMSIS_DSP/FilteringFunctions/arm_conv_fast_q15.c **** 
 318:../Dave/Generated/CMSIS_DSP/FilteringFunctions/arm_conv_fast_q15.c ****         /* acc0 +=  x[0] * y[srcBLen - 1] + x[1] * y[srcBLen - 2] */
 319:../Dave/Generated/CMSIS_DSP/FilteringFunctions/arm_conv_fast_q15.c ****         acc0 = __SMLADX(x0, c0, acc0);
 487              	 .loc 1 319 0 discriminator 1
 488 03ca D7F86412 	 ldr r1,[r7,#612]
 489 03ce D7F83C22 	 ldr r2,[r7,#572]
 490 03d2 D7F87832 	 ldr r3,[r7,#632]
 491 03d6 C7F8D811 	 str r1,[r7,#472]
 492 03da C7F8D421 	 str r2,[r7,#468]
 493 03de C7F8D031 	 str r3,[r7,#464]
 494              	.LBB76:
 495              	.LBB77:
 515:C:\Users\Depes Crystalline\Desktop\school\Active_Bike_Lighting_System\Radar_Core/Libraries/CMSIS/Include\core_cmSimd.h ****   return(result);
 496              	 .loc 2 515 0 discriminator 1
 497 03e2 D7F8D831 	 ldr r3,[r7,#472]
 498 03e6 D7F8D421 	 ldr r2,[r7,#468]
 499 03ea D7F8D011 	 ldr r1,[r7,#464]
 500              	
 501 03ee 23FB1213 	 smladx r3,r3,r2,r1
 502              	
 503              	 .thumb
 504 03f2 C7F8CC31 	 str r3,[r7,#460]
 505              	 .loc 2 516 0 discriminator 1
 506 03f6 D7F8CC31 	 ldr r3,[r7,#460]
 507              	.LBE77:
 508              	.LBE76:
 509              	 .loc 1 319 0 discriminator 1
 510 03fa C7F87832 	 str r3,[r7,#632]
 320:../Dave/Generated/CMSIS_DSP/FilteringFunctions/arm_conv_fast_q15.c **** 
 321:../Dave/Generated/CMSIS_DSP/FilteringFunctions/arm_conv_fast_q15.c ****         /* acc1 +=  x[1] * y[srcBLen - 1] + x[2] * y[srcBLen - 2] */
 322:../Dave/Generated/CMSIS_DSP/FilteringFunctions/arm_conv_fast_q15.c ****         acc1 = __SMLADX(x1, c0, acc1);
 511              	 .loc 1 322 0 discriminator 1
 512 03fe D7F86012 	 ldr r1,[r7,#608]
 513 0402 D7F83C22 	 ldr r2,[r7,#572]
 514 0406 D7F87432 	 ldr r3,[r7,#628]
 515 040a C7F8C811 	 str r1,[r7,#456]
 516 040e C7F8C421 	 str r2,[r7,#452]
 517 0412 C7F8C031 	 str r3,[r7,#448]
 518              	.LBB78:
 519              	.LBB79:
 515:C:\Users\Depes Crystalline\Desktop\school\Active_Bike_Lighting_System\Radar_Core/Libraries/CMSIS/Include\core_cmSimd.h ****   return(result);
 520              	 .loc 2 515 0 discriminator 1
 521 0416 D7F8C831 	 ldr r3,[r7,#456]
 522 041a D7F8C421 	 ldr r2,[r7,#452]
 523 041e D7F8C011 	 ldr r1,[r7,#448]
 524              	
 525 0422 23FB1213 	 smladx r3,r3,r2,r1
 526              	
 527              	 .thumb
 528 0426 C7F8BC31 	 str r3,[r7,#444]
 529              	 .loc 2 516 0 discriminator 1
 530 042a D7F8BC31 	 ldr r3,[r7,#444]
 531              	.LBE79:
 532              	.LBE78:
 533              	 .loc 1 322 0 discriminator 1
 534 042e C7F87432 	 str r3,[r7,#628]
 323:../Dave/Generated/CMSIS_DSP/FilteringFunctions/arm_conv_fast_q15.c **** 
 324:../Dave/Generated/CMSIS_DSP/FilteringFunctions/arm_conv_fast_q15.c ****         /* Read x[2], x[3] */
 325:../Dave/Generated/CMSIS_DSP/FilteringFunctions/arm_conv_fast_q15.c ****         x2 = *__SIMD32(px);
 535              	 .loc 1 325 0 discriminator 1
 536 0432 07F11403 	 add r3,r7,#20
 537 0436 1B68     	 ldr r3,[r3]
 538 0438 1B68     	 ldr r3,[r3]
 539 043a C7F83832 	 str r3,[r7,#568]
 326:../Dave/Generated/CMSIS_DSP/FilteringFunctions/arm_conv_fast_q15.c **** 
 327:../Dave/Generated/CMSIS_DSP/FilteringFunctions/arm_conv_fast_q15.c ****         /* Read x[3], x[4] */
 328:../Dave/Generated/CMSIS_DSP/FilteringFunctions/arm_conv_fast_q15.c ****         x3 = _SIMD32_OFFSET(px+1);
 540              	 .loc 1 328 0 discriminator 1
 541 043e 07F11403 	 add r3,r7,#20
 542 0442 1B68     	 ldr r3,[r3]
 543 0444 D3F80230 	 ldr r3,[r3,#2]
 544 0448 C7F83432 	 str r3,[r7,#564]
 329:../Dave/Generated/CMSIS_DSP/FilteringFunctions/arm_conv_fast_q15.c **** 
 330:../Dave/Generated/CMSIS_DSP/FilteringFunctions/arm_conv_fast_q15.c ****         /* acc2 +=  x[2] * y[srcBLen - 1] + x[3] * y[srcBLen - 2] */
 331:../Dave/Generated/CMSIS_DSP/FilteringFunctions/arm_conv_fast_q15.c ****         acc2 = __SMLADX(x2, c0, acc2);
 545              	 .loc 1 331 0 discriminator 1
 546 044c D7F83812 	 ldr r1,[r7,#568]
 547 0450 D7F83C22 	 ldr r2,[r7,#572]
 548 0454 D7F87032 	 ldr r3,[r7,#624]
 549 0458 C7F8B811 	 str r1,[r7,#440]
 550 045c C7F8B421 	 str r2,[r7,#436]
 551 0460 C7F8B031 	 str r3,[r7,#432]
 552              	.LBB80:
 553              	.LBB81:
 515:C:\Users\Depes Crystalline\Desktop\school\Active_Bike_Lighting_System\Radar_Core/Libraries/CMSIS/Include\core_cmSimd.h ****   return(result);
 554              	 .loc 2 515 0 discriminator 1
 555 0464 D7F8B831 	 ldr r3,[r7,#440]
 556 0468 D7F8B421 	 ldr r2,[r7,#436]
 557 046c D7F8B011 	 ldr r1,[r7,#432]
 558              	
 559 0470 23FB1213 	 smladx r3,r3,r2,r1
 560              	
 561              	 .thumb
 562 0474 C7F8AC31 	 str r3,[r7,#428]
 563              	 .loc 2 516 0 discriminator 1
 564 0478 D7F8AC31 	 ldr r3,[r7,#428]
 565              	.LBE81:
 566              	.LBE80:
 567              	 .loc 1 331 0 discriminator 1
 568 047c C7F87032 	 str r3,[r7,#624]
 332:../Dave/Generated/CMSIS_DSP/FilteringFunctions/arm_conv_fast_q15.c **** 
 333:../Dave/Generated/CMSIS_DSP/FilteringFunctions/arm_conv_fast_q15.c ****         /* acc3 +=  x[3] * y[srcBLen - 1] + x[4] * y[srcBLen - 2] */
 334:../Dave/Generated/CMSIS_DSP/FilteringFunctions/arm_conv_fast_q15.c ****         acc3 = __SMLADX(x3, c0, acc3);
 569              	 .loc 1 334 0 discriminator 1
 570 0480 D7F83412 	 ldr r1,[r7,#564]
 571 0484 D7F83C22 	 ldr r2,[r7,#572]
 572 0488 D7F86C32 	 ldr r3,[r7,#620]
 573 048c C7F8A811 	 str r1,[r7,#424]
 574 0490 C7F8A421 	 str r2,[r7,#420]
 575 0494 C7F8A031 	 str r3,[r7,#416]
 576              	.LBB82:
 577              	.LBB83:
 515:C:\Users\Depes Crystalline\Desktop\school\Active_Bike_Lighting_System\Radar_Core/Libraries/CMSIS/Include\core_cmSimd.h ****   return(result);
 578              	 .loc 2 515 0 discriminator 1
 579 0498 D7F8A831 	 ldr r3,[r7,#424]
 580 049c D7F8A421 	 ldr r2,[r7,#420]
 581 04a0 D7F8A011 	 ldr r1,[r7,#416]
 582              	
 583 04a4 23FB1213 	 smladx r3,r3,r2,r1
 584              	
 585              	 .thumb
 586 04a8 C7F89C31 	 str r3,[r7,#412]
 587              	 .loc 2 516 0 discriminator 1
 588 04ac D7F89C31 	 ldr r3,[r7,#412]
 589              	.LBE83:
 590              	.LBE82:
 591              	 .loc 1 334 0 discriminator 1
 592 04b0 C7F86C32 	 str r3,[r7,#620]
 335:../Dave/Generated/CMSIS_DSP/FilteringFunctions/arm_conv_fast_q15.c **** 
 336:../Dave/Generated/CMSIS_DSP/FilteringFunctions/arm_conv_fast_q15.c ****         /* Read y[srcBLen - 3] and y[srcBLen - 4] */
 337:../Dave/Generated/CMSIS_DSP/FilteringFunctions/arm_conv_fast_q15.c ****         c0 = *__SIMD32(py)--;
 593              	 .loc 1 337 0 discriminator 1
 594 04b4 07F11002 	 add r2,r7,#16
 595 04b8 1368     	 ldr r3,[r2]
 596 04ba 191F     	 subs r1,r3,#4
 597 04bc 1160     	 str r1,[r2]
 598 04be 1B68     	 ldr r3,[r3]
 599 04c0 C7F83C32 	 str r3,[r7,#572]
 338:../Dave/Generated/CMSIS_DSP/FilteringFunctions/arm_conv_fast_q15.c **** 
 339:../Dave/Generated/CMSIS_DSP/FilteringFunctions/arm_conv_fast_q15.c ****         /* acc0 +=  x[2] * y[srcBLen - 3] + x[3] * y[srcBLen - 4] */
 340:../Dave/Generated/CMSIS_DSP/FilteringFunctions/arm_conv_fast_q15.c ****         acc0 = __SMLADX(x2, c0, acc0);
 600              	 .loc 1 340 0 discriminator 1
 601 04c4 D7F83812 	 ldr r1,[r7,#568]
 602 04c8 D7F83C22 	 ldr r2,[r7,#572]
 603 04cc D7F87832 	 ldr r3,[r7,#632]
 604 04d0 C7F89811 	 str r1,[r7,#408]
 605 04d4 C7F89421 	 str r2,[r7,#404]
 606 04d8 C7F89031 	 str r3,[r7,#400]
 607              	.LBB84:
 608              	.LBB85:
 515:C:\Users\Depes Crystalline\Desktop\school\Active_Bike_Lighting_System\Radar_Core/Libraries/CMSIS/Include\core_cmSimd.h ****   return(result);
 609              	 .loc 2 515 0 discriminator 1
 610 04dc D7F89831 	 ldr r3,[r7,#408]
 611 04e0 D7F89421 	 ldr r2,[r7,#404]
 612 04e4 D7F89011 	 ldr r1,[r7,#400]
 613              	
 614 04e8 23FB1213 	 smladx r3,r3,r2,r1
 615              	
 616              	 .thumb
 617 04ec C7F88C31 	 str r3,[r7,#396]
 618              	 .loc 2 516 0 discriminator 1
 619 04f0 D7F88C31 	 ldr r3,[r7,#396]
 620              	.LBE85:
 621              	.LBE84:
 622              	 .loc 1 340 0 discriminator 1
 623 04f4 C7F87832 	 str r3,[r7,#632]
 341:../Dave/Generated/CMSIS_DSP/FilteringFunctions/arm_conv_fast_q15.c **** 
 342:../Dave/Generated/CMSIS_DSP/FilteringFunctions/arm_conv_fast_q15.c ****         /* acc1 +=  x[3] * y[srcBLen - 3] + x[4] * y[srcBLen - 4] */
 343:../Dave/Generated/CMSIS_DSP/FilteringFunctions/arm_conv_fast_q15.c ****         acc1 = __SMLADX(x3, c0, acc1);
 624              	 .loc 1 343 0 discriminator 1
 625 04f8 D7F83402 	 ldr r0,[r7,#564]
 626 04fc D7F83C12 	 ldr r1,[r7,#572]
 627 0500 D7F87422 	 ldr r2,[r7,#628]
 628 0504 07F5C473 	 add r3,r7,#392
 629 0508 1860     	 str r0,[r3]
 630 050a 07F5C273 	 add r3,r7,#388
 631 050e 1960     	 str r1,[r3]
 632 0510 07F5C073 	 add r3,r7,#384
 633 0514 1A60     	 str r2,[r3]
 634              	.LBB86:
 635              	.LBB87:
 515:C:\Users\Depes Crystalline\Desktop\school\Active_Bike_Lighting_System\Radar_Core/Libraries/CMSIS/Include\core_cmSimd.h ****   return(result);
 636              	 .loc 2 515 0 discriminator 1
 637 0516 07F5C473 	 add r3,r7,#392
 638 051a 1B68     	 ldr r3,[r3]
 639 051c 07F5C272 	 add r2,r7,#388
 640 0520 1268     	 ldr r2,[r2]
 641 0522 07F5C071 	 add r1,r7,#384
 642 0526 0968     	 ldr r1,[r1]
 643              	
 644 0528 23FB1212 	 smladx r2,r3,r2,r1
 645              	
 646              	 .thumb
 647 052c 07F5BE73 	 add r3,r7,#380
 648 0530 1A60     	 str r2,[r3]
 649              	 .loc 2 516 0 discriminator 1
 650 0532 07F5BE73 	 add r3,r7,#380
 651 0536 1B68     	 ldr r3,[r3]
 652              	.LBE87:
 653              	.LBE86:
 654              	 .loc 1 343 0 discriminator 1
 655 0538 C7F87432 	 str r3,[r7,#628]
 344:../Dave/Generated/CMSIS_DSP/FilteringFunctions/arm_conv_fast_q15.c **** 
 345:../Dave/Generated/CMSIS_DSP/FilteringFunctions/arm_conv_fast_q15.c ****         /* Read x[4], x[5] */
 346:../Dave/Generated/CMSIS_DSP/FilteringFunctions/arm_conv_fast_q15.c ****         x0 = _SIMD32_OFFSET(px+2);
 656              	 .loc 1 346 0 discriminator 1
 657 053c 07F11403 	 add r3,r7,#20
 658 0540 1B68     	 ldr r3,[r3]
 659 0542 5B68     	 ldr r3,[r3,#4]
 660 0544 C7F86432 	 str r3,[r7,#612]
 347:../Dave/Generated/CMSIS_DSP/FilteringFunctions/arm_conv_fast_q15.c **** 
 348:../Dave/Generated/CMSIS_DSP/FilteringFunctions/arm_conv_fast_q15.c ****         /* Read x[5], x[6] */
 349:../Dave/Generated/CMSIS_DSP/FilteringFunctions/arm_conv_fast_q15.c ****         x1 = _SIMD32_OFFSET(px+3);
 661              	 .loc 1 349 0 discriminator 1
 662 0548 07F11403 	 add r3,r7,#20
 663 054c 1B68     	 ldr r3,[r3]
 664 054e D3F80630 	 ldr r3,[r3,#6]
 665 0552 C7F86032 	 str r3,[r7,#608]
 350:../Dave/Generated/CMSIS_DSP/FilteringFunctions/arm_conv_fast_q15.c **** 		px += 4u;
 666              	 .loc 1 350 0 discriminator 1
 667 0556 07F11403 	 add r3,r7,#20
 668 055a 1B68     	 ldr r3,[r3]
 669 055c 03F10802 	 add r2,r3,#8
 670 0560 07F11403 	 add r3,r7,#20
 671 0564 1A60     	 str r2,[r3]
 351:../Dave/Generated/CMSIS_DSP/FilteringFunctions/arm_conv_fast_q15.c **** 
 352:../Dave/Generated/CMSIS_DSP/FilteringFunctions/arm_conv_fast_q15.c ****         /* acc2 +=  x[4] * y[srcBLen - 3] + x[5] * y[srcBLen - 4] */
 353:../Dave/Generated/CMSIS_DSP/FilteringFunctions/arm_conv_fast_q15.c ****         acc2 = __SMLADX(x0, c0, acc2);
 672              	 .loc 1 353 0 discriminator 1
 673 0566 D7F86402 	 ldr r0,[r7,#612]
 674 056a D7F83C12 	 ldr r1,[r7,#572]
 675 056e D7F87022 	 ldr r2,[r7,#624]
 676 0572 07F5BC73 	 add r3,r7,#376
 677 0576 1860     	 str r0,[r3]
 678 0578 07F5BA73 	 add r3,r7,#372
 679 057c 1960     	 str r1,[r3]
 680 057e 07F5B873 	 add r3,r7,#368
 681 0582 1A60     	 str r2,[r3]
 682              	.LBB88:
 683              	.LBB89:
 515:C:\Users\Depes Crystalline\Desktop\school\Active_Bike_Lighting_System\Radar_Core/Libraries/CMSIS/Include\core_cmSimd.h ****   return(result);
 684              	 .loc 2 515 0 discriminator 1
 685 0584 07F5BC73 	 add r3,r7,#376
 686 0588 1B68     	 ldr r3,[r3]
 687 058a 07F5BA72 	 add r2,r7,#372
 688 058e 1268     	 ldr r2,[r2]
 689 0590 07F5B871 	 add r1,r7,#368
 690 0594 0968     	 ldr r1,[r1]
 691              	
 692 0596 23FB1212 	 smladx r2,r3,r2,r1
 693              	
 694              	 .thumb
 695 059a 07F5B673 	 add r3,r7,#364
 696 059e 1A60     	 str r2,[r3]
 697              	 .loc 2 516 0 discriminator 1
 698 05a0 07F5B673 	 add r3,r7,#364
 699 05a4 1B68     	 ldr r3,[r3]
 700              	.LBE89:
 701              	.LBE88:
 702              	 .loc 1 353 0 discriminator 1
 703 05a6 C7F87032 	 str r3,[r7,#624]
 354:../Dave/Generated/CMSIS_DSP/FilteringFunctions/arm_conv_fast_q15.c **** 
 355:../Dave/Generated/CMSIS_DSP/FilteringFunctions/arm_conv_fast_q15.c ****         /* acc3 +=  x[5] * y[srcBLen - 3] + x[6] * y[srcBLen - 4] */
 356:../Dave/Generated/CMSIS_DSP/FilteringFunctions/arm_conv_fast_q15.c ****         acc3 = __SMLADX(x1, c0, acc3);
 704              	 .loc 1 356 0 discriminator 1
 705 05aa D7F86002 	 ldr r0,[r7,#608]
 706 05ae D7F83C12 	 ldr r1,[r7,#572]
 707 05b2 D7F86C22 	 ldr r2,[r7,#620]
 708 05b6 07F5B473 	 add r3,r7,#360
 709 05ba 1860     	 str r0,[r3]
 710 05bc 07F5B273 	 add r3,r7,#356
 711 05c0 1960     	 str r1,[r3]
 712 05c2 07F5B073 	 add r3,r7,#352
 713 05c6 1A60     	 str r2,[r3]
 714              	.LBB90:
 715              	.LBB91:
 515:C:\Users\Depes Crystalline\Desktop\school\Active_Bike_Lighting_System\Radar_Core/Libraries/CMSIS/Include\core_cmSimd.h ****   return(result);
 716              	 .loc 2 515 0 discriminator 1
 717 05c8 07F5B473 	 add r3,r7,#360
 718 05cc 1B68     	 ldr r3,[r3]
 719 05ce 07F5B272 	 add r2,r7,#356
 720 05d2 1268     	 ldr r2,[r2]
 721 05d4 07F5B071 	 add r1,r7,#352
 722 05d8 0968     	 ldr r1,[r1]
 723              	
 724 05da 23FB1212 	 smladx r2,r3,r2,r1
 725              	
 726              	 .thumb
 727 05de 07F5AE73 	 add r3,r7,#348
 728 05e2 1A60     	 str r2,[r3]
 729              	 .loc 2 516 0 discriminator 1
 730 05e4 07F5AE73 	 add r3,r7,#348
 731 05e8 1B68     	 ldr r3,[r3]
 732              	.LBE91:
 733              	.LBE90:
 734              	 .loc 1 356 0 discriminator 1
 735 05ea C7F86C32 	 str r3,[r7,#620]
 357:../Dave/Generated/CMSIS_DSP/FilteringFunctions/arm_conv_fast_q15.c **** 
 358:../Dave/Generated/CMSIS_DSP/FilteringFunctions/arm_conv_fast_q15.c ****       } while(--k);
 736              	 .loc 1 358 0 discriminator 1
 737 05ee D7F85032 	 ldr r3,[r7,#592]
 738 05f2 013B     	 subs r3,r3,#1
 739 05f4 C7F85032 	 str r3,[r7,#592]
 740 05f8 D7F85032 	 ldr r3,[r7,#592]
 741 05fc 002B     	 cmp r3,#0
 742 05fe 7FF4DCAE 	 bne .L29
 359:../Dave/Generated/CMSIS_DSP/FilteringFunctions/arm_conv_fast_q15.c **** 
 360:../Dave/Generated/CMSIS_DSP/FilteringFunctions/arm_conv_fast_q15.c ****       /* For the next MAC operations, SIMD is not used   
 361:../Dave/Generated/CMSIS_DSP/FilteringFunctions/arm_conv_fast_q15.c ****        * So, the 16 bit pointer if inputB, py is updated */
 362:../Dave/Generated/CMSIS_DSP/FilteringFunctions/arm_conv_fast_q15.c **** 
 363:../Dave/Generated/CMSIS_DSP/FilteringFunctions/arm_conv_fast_q15.c ****       /* If the srcBLen is not a multiple of 4, compute any remaining MACs here.   
 364:../Dave/Generated/CMSIS_DSP/FilteringFunctions/arm_conv_fast_q15.c ****        ** No loop unrolling is used. */
 365:../Dave/Generated/CMSIS_DSP/FilteringFunctions/arm_conv_fast_q15.c ****       k = srcBLen % 0x4u;
 743              	 .loc 1 365 0
 744 0602 3B46     	 mov r3,r7
 745 0604 1B68     	 ldr r3,[r3]
 746 0606 03F00303 	 and r3,r3,#3
 747 060a C7F85032 	 str r3,[r7,#592]
 366:../Dave/Generated/CMSIS_DSP/FilteringFunctions/arm_conv_fast_q15.c **** 
 367:../Dave/Generated/CMSIS_DSP/FilteringFunctions/arm_conv_fast_q15.c ****       if(k == 1u)
 748              	 .loc 1 367 0
 749 060e D7F85032 	 ldr r3,[r7,#592]
 750 0612 012B     	 cmp r3,#1
 751 0614 40F0A280 	 bne .L30
 368:../Dave/Generated/CMSIS_DSP/FilteringFunctions/arm_conv_fast_q15.c ****       {
 369:../Dave/Generated/CMSIS_DSP/FilteringFunctions/arm_conv_fast_q15.c ****         /* Read y[srcBLen - 5] */
 370:../Dave/Generated/CMSIS_DSP/FilteringFunctions/arm_conv_fast_q15.c ****         c0 = *(py+1);
 752              	 .loc 1 370 0
 753 0618 07F11003 	 add r3,r7,#16
 754 061c 1B68     	 ldr r3,[r3]
 755 061e 0233     	 adds r3,r3,#2
 756 0620 1B88     	 ldrh r3,[r3]
 757 0622 1BB2     	 sxth r3,r3
 758 0624 C7F83C32 	 str r3,[r7,#572]
 371:../Dave/Generated/CMSIS_DSP/FilteringFunctions/arm_conv_fast_q15.c **** 
 372:../Dave/Generated/CMSIS_DSP/FilteringFunctions/arm_conv_fast_q15.c **** #ifdef  ARM_MATH_BIG_ENDIAN
 373:../Dave/Generated/CMSIS_DSP/FilteringFunctions/arm_conv_fast_q15.c **** 
 374:../Dave/Generated/CMSIS_DSP/FilteringFunctions/arm_conv_fast_q15.c ****         c0 = c0 << 16u;
 375:../Dave/Generated/CMSIS_DSP/FilteringFunctions/arm_conv_fast_q15.c **** 
 376:../Dave/Generated/CMSIS_DSP/FilteringFunctions/arm_conv_fast_q15.c **** #else
 377:../Dave/Generated/CMSIS_DSP/FilteringFunctions/arm_conv_fast_q15.c **** 
 378:../Dave/Generated/CMSIS_DSP/FilteringFunctions/arm_conv_fast_q15.c ****         c0 = c0 & 0x0000FFFF;
 759              	 .loc 1 378 0
 760 0628 D7F83C32 	 ldr r3,[r7,#572]
 761 062c 9BB2     	 uxth r3,r3
 762 062e C7F83C32 	 str r3,[r7,#572]
 379:../Dave/Generated/CMSIS_DSP/FilteringFunctions/arm_conv_fast_q15.c **** 
 380:../Dave/Generated/CMSIS_DSP/FilteringFunctions/arm_conv_fast_q15.c **** #endif /*      #ifdef  ARM_MATH_BIG_ENDIAN     */
 381:../Dave/Generated/CMSIS_DSP/FilteringFunctions/arm_conv_fast_q15.c **** 
 382:../Dave/Generated/CMSIS_DSP/FilteringFunctions/arm_conv_fast_q15.c ****         /* Read x[7] */
 383:../Dave/Generated/CMSIS_DSP/FilteringFunctions/arm_conv_fast_q15.c ****         x3 = *__SIMD32(px);
 763              	 .loc 1 383 0
 764 0632 07F11403 	 add r3,r7,#20
 765 0636 1B68     	 ldr r3,[r3]
 766 0638 1B68     	 ldr r3,[r3]
 767 063a C7F83432 	 str r3,[r7,#564]
 384:../Dave/Generated/CMSIS_DSP/FilteringFunctions/arm_conv_fast_q15.c **** 		px++;
 768              	 .loc 1 384 0
 769 063e 07F11403 	 add r3,r7,#20
 770 0642 1B68     	 ldr r3,[r3]
 771 0644 9A1C     	 adds r2,r3,#2
 772 0646 07F11403 	 add r3,r7,#20
 773 064a 1A60     	 str r2,[r3]
 385:../Dave/Generated/CMSIS_DSP/FilteringFunctions/arm_conv_fast_q15.c **** 
 386:../Dave/Generated/CMSIS_DSP/FilteringFunctions/arm_conv_fast_q15.c ****         /* Perform the multiply-accumulates */
 387:../Dave/Generated/CMSIS_DSP/FilteringFunctions/arm_conv_fast_q15.c ****         acc0 = __SMLAD(x0, c0, acc0);
 774              	 .loc 1 387 0
 775 064c D7F86402 	 ldr r0,[r7,#612]
 776 0650 D7F83C12 	 ldr r1,[r7,#572]
 777 0654 D7F87822 	 ldr r2,[r7,#632]
 778 0658 07F5AC73 	 add r3,r7,#344
 779 065c 1860     	 str r0,[r3]
 780 065e 07F5AA73 	 add r3,r7,#340
 781 0662 1960     	 str r1,[r3]
 782 0664 07F5A873 	 add r3,r7,#336
 783 0668 1A60     	 str r2,[r3]
 784              	.LBB92:
 785              	.LBB93:
 507:C:\Users\Depes Crystalline\Desktop\school\Active_Bike_Lighting_System\Radar_Core/Libraries/CMSIS/Include\core_cmSimd.h ****   return(result);
 786              	 .loc 2 507 0
 787 066a 07F5AC73 	 add r3,r7,#344
 788 066e 1B68     	 ldr r3,[r3]
 789 0670 07F5AA72 	 add r2,r7,#340
 790 0674 1268     	 ldr r2,[r2]
 791 0676 07F5A871 	 add r1,r7,#336
 792 067a 0968     	 ldr r1,[r1]
 793              	
 794 067c 23FB0212 	 smlad r2,r3,r2,r1
 795              	
 796              	 .thumb
 797 0680 07F5A673 	 add r3,r7,#332
 798 0684 1A60     	 str r2,[r3]
 508:C:\Users\Depes Crystalline\Desktop\school\Active_Bike_Lighting_System\Radar_Core/Libraries/CMSIS/Include\core_cmSimd.h **** }
 799              	 .loc 2 508 0
 800 0686 07F5A673 	 add r3,r7,#332
 801 068a 1B68     	 ldr r3,[r3]
 802              	.LBE93:
 803              	.LBE92:
 804              	 .loc 1 387 0
 805 068c C7F87832 	 str r3,[r7,#632]
 388:../Dave/Generated/CMSIS_DSP/FilteringFunctions/arm_conv_fast_q15.c ****         acc1 = __SMLAD(x1, c0, acc1);
 806              	 .loc 1 388 0
 807 0690 D7F86002 	 ldr r0,[r7,#608]
 808 0694 D7F83C12 	 ldr r1,[r7,#572]
 809 0698 D7F87422 	 ldr r2,[r7,#628]
 810 069c 07F5A473 	 add r3,r7,#328
 811 06a0 1860     	 str r0,[r3]
 812 06a2 07F5A273 	 add r3,r7,#324
 813 06a6 1960     	 str r1,[r3]
 814 06a8 07F5A073 	 add r3,r7,#320
 815 06ac 1A60     	 str r2,[r3]
 816              	.LBB94:
 817              	.LBB95:
 507:C:\Users\Depes Crystalline\Desktop\school\Active_Bike_Lighting_System\Radar_Core/Libraries/CMSIS/Include\core_cmSimd.h ****   return(result);
 818              	 .loc 2 507 0
 819 06ae 07F5A473 	 add r3,r7,#328
 820 06b2 1B68     	 ldr r3,[r3]
 821 06b4 07F5A272 	 add r2,r7,#324
 822 06b8 1268     	 ldr r2,[r2]
 823 06ba 07F5A071 	 add r1,r7,#320
 824 06be 0968     	 ldr r1,[r1]
 825              	
 826 06c0 23FB0212 	 smlad r2,r3,r2,r1
 827              	
 828              	 .thumb
 829 06c4 07F59E73 	 add r3,r7,#316
 830 06c8 1A60     	 str r2,[r3]
 508:C:\Users\Depes Crystalline\Desktop\school\Active_Bike_Lighting_System\Radar_Core/Libraries/CMSIS/Include\core_cmSimd.h **** }
 831              	 .loc 2 508 0
 832 06ca 07F59E73 	 add r3,r7,#316
 833 06ce 1B68     	 ldr r3,[r3]
 834              	.LBE95:
 835              	.LBE94:
 836              	 .loc 1 388 0
 837 06d0 C7F87432 	 str r3,[r7,#628]
 389:../Dave/Generated/CMSIS_DSP/FilteringFunctions/arm_conv_fast_q15.c ****         acc2 = __SMLADX(x1, c0, acc2);
 838              	 .loc 1 389 0
 839 06d4 D7F86002 	 ldr r0,[r7,#608]
 840 06d8 D7F83C12 	 ldr r1,[r7,#572]
 841 06dc D7F87022 	 ldr r2,[r7,#624]
 842 06e0 07F59C73 	 add r3,r7,#312
 843 06e4 1860     	 str r0,[r3]
 844 06e6 07F59A73 	 add r3,r7,#308
 845 06ea 1960     	 str r1,[r3]
 846 06ec 07F59873 	 add r3,r7,#304
 847 06f0 1A60     	 str r2,[r3]
 848              	.LBB96:
 849              	.LBB97:
 515:C:\Users\Depes Crystalline\Desktop\school\Active_Bike_Lighting_System\Radar_Core/Libraries/CMSIS/Include\core_cmSimd.h ****   return(result);
 850              	 .loc 2 515 0
 851 06f2 07F59C73 	 add r3,r7,#312
 852 06f6 1B68     	 ldr r3,[r3]
 853 06f8 07F59A72 	 add r2,r7,#308
 854 06fc 1268     	 ldr r2,[r2]
 855 06fe 07F59871 	 add r1,r7,#304
 856 0702 0968     	 ldr r1,[r1]
 857              	
 858 0704 23FB1212 	 smladx r2,r3,r2,r1
 859              	
 860              	 .thumb
 861 0708 07F59673 	 add r3,r7,#300
 862 070c 1A60     	 str r2,[r3]
 863              	 .loc 2 516 0
 864 070e 07F59673 	 add r3,r7,#300
 865 0712 1B68     	 ldr r3,[r3]
 866              	.LBE97:
 867              	.LBE96:
 868              	 .loc 1 389 0
 869 0714 C7F87032 	 str r3,[r7,#624]
 390:../Dave/Generated/CMSIS_DSP/FilteringFunctions/arm_conv_fast_q15.c ****         acc3 = __SMLADX(x3, c0, acc3);
 870              	 .loc 1 390 0
 871 0718 D7F83402 	 ldr r0,[r7,#564]
 872 071c D7F83C12 	 ldr r1,[r7,#572]
 873 0720 D7F86C22 	 ldr r2,[r7,#620]
 874 0724 07F59473 	 add r3,r7,#296
 875 0728 1860     	 str r0,[r3]
 876 072a 07F59273 	 add r3,r7,#292
 877 072e 1960     	 str r1,[r3]
 878 0730 07F59073 	 add r3,r7,#288
 879 0734 1A60     	 str r2,[r3]
 880              	.LBB98:
 881              	.LBB99:
 515:C:\Users\Depes Crystalline\Desktop\school\Active_Bike_Lighting_System\Radar_Core/Libraries/CMSIS/Include\core_cmSimd.h ****   return(result);
 882              	 .loc 2 515 0
 883 0736 07F59473 	 add r3,r7,#296
 884 073a 1B68     	 ldr r3,[r3]
 885 073c 07F59272 	 add r2,r7,#292
 886 0740 1268     	 ldr r2,[r2]
 887 0742 07F59071 	 add r1,r7,#288
 888 0746 0968     	 ldr r1,[r1]
 889              	
 890 0748 23FB1212 	 smladx r2,r3,r2,r1
 891              	
 892              	 .thumb
 893 074c 07F58E73 	 add r3,r7,#284
 894 0750 1A60     	 str r2,[r3]
 895              	 .loc 2 516 0
 896 0752 07F58E73 	 add r3,r7,#284
 897 0756 1B68     	 ldr r3,[r3]
 898              	.LBE99:
 899              	.LBE98:
 900              	 .loc 1 390 0
 901 0758 C7F86C32 	 str r3,[r7,#620]
 902              	.L30:
 391:../Dave/Generated/CMSIS_DSP/FilteringFunctions/arm_conv_fast_q15.c ****       }
 392:../Dave/Generated/CMSIS_DSP/FilteringFunctions/arm_conv_fast_q15.c **** 
 393:../Dave/Generated/CMSIS_DSP/FilteringFunctions/arm_conv_fast_q15.c ****       if(k == 2u)
 903              	 .loc 1 393 0
 904 075c D7F85032 	 ldr r3,[r7,#592]
 905 0760 022B     	 cmp r3,#2
 906 0762 40F0A280 	 bne .L35
 394:../Dave/Generated/CMSIS_DSP/FilteringFunctions/arm_conv_fast_q15.c ****       {
 395:../Dave/Generated/CMSIS_DSP/FilteringFunctions/arm_conv_fast_q15.c ****         /* Read y[srcBLen - 5], y[srcBLen - 6] */
 396:../Dave/Generated/CMSIS_DSP/FilteringFunctions/arm_conv_fast_q15.c ****         c0 = _SIMD32_OFFSET(py);
 907              	 .loc 1 396 0
 908 0766 07F11003 	 add r3,r7,#16
 909 076a 1B68     	 ldr r3,[r3]
 910 076c 1B68     	 ldr r3,[r3]
 911 076e C7F83C32 	 str r3,[r7,#572]
 397:../Dave/Generated/CMSIS_DSP/FilteringFunctions/arm_conv_fast_q15.c **** 
 398:../Dave/Generated/CMSIS_DSP/FilteringFunctions/arm_conv_fast_q15.c ****         /* Read x[7], x[8] */
 399:../Dave/Generated/CMSIS_DSP/FilteringFunctions/arm_conv_fast_q15.c ****         x3 = *__SIMD32(px);
 912              	 .loc 1 399 0
 913 0772 07F11403 	 add r3,r7,#20
 914 0776 1B68     	 ldr r3,[r3]
 915 0778 1B68     	 ldr r3,[r3]
 916 077a C7F83432 	 str r3,[r7,#564]
 400:../Dave/Generated/CMSIS_DSP/FilteringFunctions/arm_conv_fast_q15.c **** 
 401:../Dave/Generated/CMSIS_DSP/FilteringFunctions/arm_conv_fast_q15.c ****         /* Read x[9] */
 402:../Dave/Generated/CMSIS_DSP/FilteringFunctions/arm_conv_fast_q15.c ****         x2 = _SIMD32_OFFSET(px+1);
 917              	 .loc 1 402 0
 918 077e 07F11403 	 add r3,r7,#20
 919 0782 1B68     	 ldr r3,[r3]
 920 0784 D3F80230 	 ldr r3,[r3,#2]
 921 0788 C7F83832 	 str r3,[r7,#568]
 403:../Dave/Generated/CMSIS_DSP/FilteringFunctions/arm_conv_fast_q15.c **** 		px += 2u;
 922              	 .loc 1 403 0
 923 078c 07F11403 	 add r3,r7,#20
 924 0790 1B68     	 ldr r3,[r3]
 925 0792 1A1D     	 adds r2,r3,#4
 926 0794 07F11403 	 add r3,r7,#20
 927 0798 1A60     	 str r2,[r3]
 404:../Dave/Generated/CMSIS_DSP/FilteringFunctions/arm_conv_fast_q15.c **** 
 405:../Dave/Generated/CMSIS_DSP/FilteringFunctions/arm_conv_fast_q15.c ****         /* Perform the multiply-accumulates */
 406:../Dave/Generated/CMSIS_DSP/FilteringFunctions/arm_conv_fast_q15.c ****         acc0 = __SMLADX(x0, c0, acc0);
 928              	 .loc 1 406 0
 929 079a D7F86402 	 ldr r0,[r7,#612]
 930 079e D7F83C12 	 ldr r1,[r7,#572]
 931 07a2 D7F87822 	 ldr r2,[r7,#632]
 932 07a6 07F58C73 	 add r3,r7,#280
 933 07aa 1860     	 str r0,[r3]
 934 07ac 07F58A73 	 add r3,r7,#276
 935 07b0 1960     	 str r1,[r3]
 936 07b2 07F58873 	 add r3,r7,#272
 937 07b6 1A60     	 str r2,[r3]
 938              	.LBB100:
 939              	.LBB101:
 515:C:\Users\Depes Crystalline\Desktop\school\Active_Bike_Lighting_System\Radar_Core/Libraries/CMSIS/Include\core_cmSimd.h ****   return(result);
 940              	 .loc 2 515 0
 941 07b8 07F58C73 	 add r3,r7,#280
 942 07bc 1B68     	 ldr r3,[r3]
 943 07be 07F58A72 	 add r2,r7,#276
 944 07c2 1268     	 ldr r2,[r2]
 945 07c4 07F58871 	 add r1,r7,#272
 946 07c8 0968     	 ldr r1,[r1]
 947              	
 948 07ca 23FB1212 	 smladx r2,r3,r2,r1
 949              	
 950              	 .thumb
 951 07ce 07F58673 	 add r3,r7,#268
 952 07d2 1A60     	 str r2,[r3]
 953              	 .loc 2 516 0
 954 07d4 07F58673 	 add r3,r7,#268
 955 07d8 1B68     	 ldr r3,[r3]
 956              	.LBE101:
 957              	.LBE100:
 958              	 .loc 1 406 0
 959 07da C7F87832 	 str r3,[r7,#632]
 407:../Dave/Generated/CMSIS_DSP/FilteringFunctions/arm_conv_fast_q15.c ****         acc1 = __SMLADX(x1, c0, acc1);
 960              	 .loc 1 407 0
 961 07de D7F86002 	 ldr r0,[r7,#608]
 962 07e2 D7F83C12 	 ldr r1,[r7,#572]
 963 07e6 D7F87422 	 ldr r2,[r7,#628]
 964 07ea 07F58473 	 add r3,r7,#264
 965 07ee 1860     	 str r0,[r3]
 966 07f0 07F58273 	 add r3,r7,#260
 967 07f4 1960     	 str r1,[r3]
 968 07f6 07F58073 	 add r3,r7,#256
 969 07fa 1A60     	 str r2,[r3]
 970              	.LBB102:
 971              	.LBB103:
 515:C:\Users\Depes Crystalline\Desktop\school\Active_Bike_Lighting_System\Radar_Core/Libraries/CMSIS/Include\core_cmSimd.h ****   return(result);
 972              	 .loc 2 515 0
 973 07fc 07F58473 	 add r3,r7,#264
 974 0800 1B68     	 ldr r3,[r3]
 975 0802 07F58272 	 add r2,r7,#260
 976 0806 1268     	 ldr r2,[r2]
 977 0808 07F58071 	 add r1,r7,#256
 978 080c 0968     	 ldr r1,[r1]
 979              	
 980 080e 23FB1212 	 smladx r2,r3,r2,r1
 981              	
 982              	 .thumb
 983 0812 07F1FC03 	 add r3,r7,#252
 984 0816 1A60     	 str r2,[r3]
 985              	 .loc 2 516 0
 986 0818 07F1FC03 	 add r3,r7,#252
 987 081c 1B68     	 ldr r3,[r3]
 988              	.LBE103:
 989              	.LBE102:
 990              	 .loc 1 407 0
 991 081e C7F87432 	 str r3,[r7,#628]
 408:../Dave/Generated/CMSIS_DSP/FilteringFunctions/arm_conv_fast_q15.c ****         acc2 = __SMLADX(x3, c0, acc2);
 992              	 .loc 1 408 0
 993 0822 D7F83402 	 ldr r0,[r7,#564]
 994 0826 D7F83C12 	 ldr r1,[r7,#572]
 995 082a D7F87022 	 ldr r2,[r7,#624]
 996 082e 07F1F803 	 add r3,r7,#248
 997 0832 1860     	 str r0,[r3]
 998 0834 07F1F403 	 add r3,r7,#244
 999 0838 1960     	 str r1,[r3]
 1000 083a 07F1F003 	 add r3,r7,#240
 1001 083e 1A60     	 str r2,[r3]
 1002              	.LBB104:
 1003              	.LBB105:
 515:C:\Users\Depes Crystalline\Desktop\school\Active_Bike_Lighting_System\Radar_Core/Libraries/CMSIS/Include\core_cmSimd.h ****   return(result);
 1004              	 .loc 2 515 0
 1005 0840 07F1F803 	 add r3,r7,#248
 1006 0844 1B68     	 ldr r3,[r3]
 1007 0846 07F1F402 	 add r2,r7,#244
 1008 084a 1268     	 ldr r2,[r2]
 1009 084c 07F1F001 	 add r1,r7,#240
 1010 0850 0968     	 ldr r1,[r1]
 1011              	
 1012 0852 23FB1212 	 smladx r2,r3,r2,r1
 1013              	
 1014              	 .thumb
 1015 0856 07F1EC03 	 add r3,r7,#236
 1016 085a 1A60     	 str r2,[r3]
 1017              	 .loc 2 516 0
 1018 085c 07F1EC03 	 add r3,r7,#236
 1019 0860 1B68     	 ldr r3,[r3]
 1020              	.LBE105:
 1021              	.LBE104:
 1022              	 .loc 1 408 0
 1023 0862 C7F87032 	 str r3,[r7,#624]
 409:../Dave/Generated/CMSIS_DSP/FilteringFunctions/arm_conv_fast_q15.c ****         acc3 = __SMLADX(x2, c0, acc3);
 1024              	 .loc 1 409 0
 1025 0866 D7F83802 	 ldr r0,[r7,#568]
 1026 086a D7F83C12 	 ldr r1,[r7,#572]
 1027 086e D7F86C22 	 ldr r2,[r7,#620]
 1028 0872 07F1E803 	 add r3,r7,#232
 1029 0876 1860     	 str r0,[r3]
 1030 0878 07F1E403 	 add r3,r7,#228
 1031 087c 1960     	 str r1,[r3]
 1032 087e 07F1E003 	 add r3,r7,#224
 1033 0882 1A60     	 str r2,[r3]
 1034              	.LBB106:
 1035              	.LBB107:
 515:C:\Users\Depes Crystalline\Desktop\school\Active_Bike_Lighting_System\Radar_Core/Libraries/CMSIS/Include\core_cmSimd.h ****   return(result);
 1036              	 .loc 2 515 0
 1037 0884 07F1E803 	 add r3,r7,#232
 1038 0888 1B68     	 ldr r3,[r3]
 1039 088a 07F1E402 	 add r2,r7,#228
 1040 088e 1268     	 ldr r2,[r2]
 1041 0890 07F1E001 	 add r1,r7,#224
 1042 0894 0968     	 ldr r1,[r1]
 1043              	
 1044 0896 23FB1212 	 smladx r2,r3,r2,r1
 1045              	
 1046              	 .thumb
 1047 089a 07F1DC03 	 add r3,r7,#220
 1048 089e 1A60     	 str r2,[r3]
 1049              	 .loc 2 516 0
 1050 08a0 07F1DC03 	 add r3,r7,#220
 1051 08a4 1B68     	 ldr r3,[r3]
 1052              	.LBE107:
 1053              	.LBE106:
 1054              	 .loc 1 409 0
 1055 08a6 C7F86C32 	 str r3,[r7,#620]
 1056              	.L35:
 410:../Dave/Generated/CMSIS_DSP/FilteringFunctions/arm_conv_fast_q15.c ****       }
 411:../Dave/Generated/CMSIS_DSP/FilteringFunctions/arm_conv_fast_q15.c **** 
 412:../Dave/Generated/CMSIS_DSP/FilteringFunctions/arm_conv_fast_q15.c ****       if(k == 3u)
 1057              	 .loc 1 412 0
 1058 08aa D7F85032 	 ldr r3,[r7,#592]
 1059 08ae 032B     	 cmp r3,#3
 1060 08b0 40F03D81 	 bne .L40
 413:../Dave/Generated/CMSIS_DSP/FilteringFunctions/arm_conv_fast_q15.c ****       {
 414:../Dave/Generated/CMSIS_DSP/FilteringFunctions/arm_conv_fast_q15.c ****         /* Read y[srcBLen - 5], y[srcBLen - 6] */
 415:../Dave/Generated/CMSIS_DSP/FilteringFunctions/arm_conv_fast_q15.c ****         c0 = _SIMD32_OFFSET(py);
 1061              	 .loc 1 415 0
 1062 08b4 07F11003 	 add r3,r7,#16
 1063 08b8 1B68     	 ldr r3,[r3]
 1064 08ba 1B68     	 ldr r3,[r3]
 1065 08bc C7F83C32 	 str r3,[r7,#572]
 416:../Dave/Generated/CMSIS_DSP/FilteringFunctions/arm_conv_fast_q15.c **** 
 417:../Dave/Generated/CMSIS_DSP/FilteringFunctions/arm_conv_fast_q15.c ****         /* Read x[7], x[8] */
 418:../Dave/Generated/CMSIS_DSP/FilteringFunctions/arm_conv_fast_q15.c ****         x3 = *__SIMD32(px);
 1066              	 .loc 1 418 0
 1067 08c0 07F11403 	 add r3,r7,#20
 1068 08c4 1B68     	 ldr r3,[r3]
 1069 08c6 1B68     	 ldr r3,[r3]
 1070 08c8 C7F83432 	 str r3,[r7,#564]
 419:../Dave/Generated/CMSIS_DSP/FilteringFunctions/arm_conv_fast_q15.c **** 
 420:../Dave/Generated/CMSIS_DSP/FilteringFunctions/arm_conv_fast_q15.c ****         /* Read x[9] */
 421:../Dave/Generated/CMSIS_DSP/FilteringFunctions/arm_conv_fast_q15.c ****         x2 = _SIMD32_OFFSET(px+1);
 1071              	 .loc 1 421 0
 1072 08cc 07F11403 	 add r3,r7,#20
 1073 08d0 1B68     	 ldr r3,[r3]
 1074 08d2 D3F80230 	 ldr r3,[r3,#2]
 1075 08d6 C7F83832 	 str r3,[r7,#568]
 422:../Dave/Generated/CMSIS_DSP/FilteringFunctions/arm_conv_fast_q15.c **** 
 423:../Dave/Generated/CMSIS_DSP/FilteringFunctions/arm_conv_fast_q15.c ****         /* Perform the multiply-accumulates */
 424:../Dave/Generated/CMSIS_DSP/FilteringFunctions/arm_conv_fast_q15.c ****         acc0 = __SMLADX(x0, c0, acc0);
 1076              	 .loc 1 424 0
 1077 08da D7F86402 	 ldr r0,[r7,#612]
 1078 08de D7F83C12 	 ldr r1,[r7,#572]
 1079 08e2 D7F87822 	 ldr r2,[r7,#632]
 1080 08e6 07F1D803 	 add r3,r7,#216
 1081 08ea 1860     	 str r0,[r3]
 1082 08ec 07F1D403 	 add r3,r7,#212
 1083 08f0 1960     	 str r1,[r3]
 1084 08f2 07F1D003 	 add r3,r7,#208
 1085 08f6 1A60     	 str r2,[r3]
 1086              	.LBB108:
 1087              	.LBB109:
 515:C:\Users\Depes Crystalline\Desktop\school\Active_Bike_Lighting_System\Radar_Core/Libraries/CMSIS/Include\core_cmSimd.h ****   return(result);
 1088              	 .loc 2 515 0
 1089 08f8 07F1D803 	 add r3,r7,#216
 1090 08fc 1B68     	 ldr r3,[r3]
 1091 08fe 07F1D402 	 add r2,r7,#212
 1092 0902 1268     	 ldr r2,[r2]
 1093 0904 07F1D001 	 add r1,r7,#208
 1094 0908 0968     	 ldr r1,[r1]
 1095              	
 1096 090a 23FB1212 	 smladx r2,r3,r2,r1
 1097              	
 1098              	 .thumb
 1099 090e 07F1CC03 	 add r3,r7,#204
 1100 0912 1A60     	 str r2,[r3]
 1101              	 .loc 2 516 0
 1102 0914 07F1CC03 	 add r3,r7,#204
 1103 0918 1B68     	 ldr r3,[r3]
 1104              	.LBE109:
 1105              	.LBE108:
 1106              	 .loc 1 424 0
 1107 091a C7F87832 	 str r3,[r7,#632]
 425:../Dave/Generated/CMSIS_DSP/FilteringFunctions/arm_conv_fast_q15.c ****         acc1 = __SMLADX(x1, c0, acc1);
 1108              	 .loc 1 425 0
 1109 091e D7F86002 	 ldr r0,[r7,#608]
 1110 0922 D7F83C12 	 ldr r1,[r7,#572]
 1111 0926 D7F87422 	 ldr r2,[r7,#628]
 1112 092a 07F1C803 	 add r3,r7,#200
 1113 092e 1860     	 str r0,[r3]
 1114 0930 07F1C403 	 add r3,r7,#196
 1115 0934 1960     	 str r1,[r3]
 1116 0936 07F1C003 	 add r3,r7,#192
 1117 093a 1A60     	 str r2,[r3]
 1118              	.LBB110:
 1119              	.LBB111:
 515:C:\Users\Depes Crystalline\Desktop\school\Active_Bike_Lighting_System\Radar_Core/Libraries/CMSIS/Include\core_cmSimd.h ****   return(result);
 1120              	 .loc 2 515 0
 1121 093c 07F1C803 	 add r3,r7,#200
 1122 0940 1B68     	 ldr r3,[r3]
 1123 0942 07F1C402 	 add r2,r7,#196
 1124 0946 1268     	 ldr r2,[r2]
 1125 0948 07F1C001 	 add r1,r7,#192
 1126 094c 0968     	 ldr r1,[r1]
 1127              	
 1128 094e 23FB1212 	 smladx r2,r3,r2,r1
 1129              	
 1130              	 .thumb
 1131 0952 07F1BC03 	 add r3,r7,#188
 1132 0956 1A60     	 str r2,[r3]
 1133              	 .loc 2 516 0
 1134 0958 07F1BC03 	 add r3,r7,#188
 1135 095c 1B68     	 ldr r3,[r3]
 1136              	.LBE111:
 1137              	.LBE110:
 1138              	 .loc 1 425 0
 1139 095e C7F87432 	 str r3,[r7,#628]
 426:../Dave/Generated/CMSIS_DSP/FilteringFunctions/arm_conv_fast_q15.c ****         acc2 = __SMLADX(x3, c0, acc2);
 1140              	 .loc 1 426 0
 1141 0962 D7F83402 	 ldr r0,[r7,#564]
 1142 0966 D7F83C12 	 ldr r1,[r7,#572]
 1143 096a D7F87022 	 ldr r2,[r7,#624]
 1144 096e 07F1B803 	 add r3,r7,#184
 1145 0972 1860     	 str r0,[r3]
 1146 0974 07F1B403 	 add r3,r7,#180
 1147 0978 1960     	 str r1,[r3]
 1148 097a 07F1B003 	 add r3,r7,#176
 1149 097e 1A60     	 str r2,[r3]
 1150              	.LBB112:
 1151              	.LBB113:
 515:C:\Users\Depes Crystalline\Desktop\school\Active_Bike_Lighting_System\Radar_Core/Libraries/CMSIS/Include\core_cmSimd.h ****   return(result);
 1152              	 .loc 2 515 0
 1153 0980 07F1B803 	 add r3,r7,#184
 1154 0984 1B68     	 ldr r3,[r3]
 1155 0986 07F1B402 	 add r2,r7,#180
 1156 098a 1268     	 ldr r2,[r2]
 1157 098c 07F1B001 	 add r1,r7,#176
 1158 0990 0968     	 ldr r1,[r1]
 1159              	
 1160 0992 23FB1212 	 smladx r2,r3,r2,r1
 1161              	
 1162              	 .thumb
 1163 0996 07F1AC03 	 add r3,r7,#172
 1164 099a 1A60     	 str r2,[r3]
 1165              	 .loc 2 516 0
 1166 099c 07F1AC03 	 add r3,r7,#172
 1167 09a0 1B68     	 ldr r3,[r3]
 1168              	.LBE113:
 1169              	.LBE112:
 1170              	 .loc 1 426 0
 1171 09a2 C7F87032 	 str r3,[r7,#624]
 427:../Dave/Generated/CMSIS_DSP/FilteringFunctions/arm_conv_fast_q15.c ****         acc3 = __SMLADX(x2, c0, acc3);
 1172              	 .loc 1 427 0
 1173 09a6 D7F83802 	 ldr r0,[r7,#568]
 1174 09aa D7F83C12 	 ldr r1,[r7,#572]
 1175 09ae D7F86C22 	 ldr r2,[r7,#620]
 1176 09b2 07F1A803 	 add r3,r7,#168
 1177 09b6 1860     	 str r0,[r3]
 1178 09b8 07F1A403 	 add r3,r7,#164
 1179 09bc 1960     	 str r1,[r3]
 1180 09be 07F1A003 	 add r3,r7,#160
 1181 09c2 1A60     	 str r2,[r3]
 1182              	.LBB114:
 1183              	.LBB115:
 515:C:\Users\Depes Crystalline\Desktop\school\Active_Bike_Lighting_System\Radar_Core/Libraries/CMSIS/Include\core_cmSimd.h ****   return(result);
 1184              	 .loc 2 515 0
 1185 09c4 07F1A803 	 add r3,r7,#168
 1186 09c8 1B68     	 ldr r3,[r3]
 1187 09ca 07F1A402 	 add r2,r7,#164
 1188 09ce 1268     	 ldr r2,[r2]
 1189 09d0 07F1A001 	 add r1,r7,#160
 1190 09d4 0968     	 ldr r1,[r1]
 1191              	
 1192 09d6 23FB1212 	 smladx r2,r3,r2,r1
 1193              	
 1194              	 .thumb
 1195 09da 07F19C03 	 add r3,r7,#156
 1196 09de 1A60     	 str r2,[r3]
 1197              	 .loc 2 516 0
 1198 09e0 07F19C03 	 add r3,r7,#156
 1199 09e4 1B68     	 ldr r3,[r3]
 1200              	.LBE115:
 1201              	.LBE114:
 1202              	 .loc 1 427 0
 1203 09e6 C7F86C32 	 str r3,[r7,#620]
 428:../Dave/Generated/CMSIS_DSP/FilteringFunctions/arm_conv_fast_q15.c **** 
 429:../Dave/Generated/CMSIS_DSP/FilteringFunctions/arm_conv_fast_q15.c ****         /* Read y[srcBLen - 7] */
 430:../Dave/Generated/CMSIS_DSP/FilteringFunctions/arm_conv_fast_q15.c **** 		c0 = *(py-1);
 1204              	 .loc 1 430 0
 1205 09ea 07F11003 	 add r3,r7,#16
 1206 09ee 1B68     	 ldr r3,[r3]
 1207 09f0 023B     	 subs r3,r3,#2
 1208 09f2 1B88     	 ldrh r3,[r3]
 1209 09f4 1BB2     	 sxth r3,r3
 1210 09f6 C7F83C32 	 str r3,[r7,#572]
 431:../Dave/Generated/CMSIS_DSP/FilteringFunctions/arm_conv_fast_q15.c **** #ifdef  ARM_MATH_BIG_ENDIAN
 432:../Dave/Generated/CMSIS_DSP/FilteringFunctions/arm_conv_fast_q15.c **** 
 433:../Dave/Generated/CMSIS_DSP/FilteringFunctions/arm_conv_fast_q15.c ****         c0 = c0 << 16u;
 434:../Dave/Generated/CMSIS_DSP/FilteringFunctions/arm_conv_fast_q15.c **** #else
 435:../Dave/Generated/CMSIS_DSP/FilteringFunctions/arm_conv_fast_q15.c **** 
 436:../Dave/Generated/CMSIS_DSP/FilteringFunctions/arm_conv_fast_q15.c ****         c0 = c0 & 0x0000FFFF;
 1211              	 .loc 1 436 0
 1212 09fa D7F83C32 	 ldr r3,[r7,#572]
 1213 09fe 9BB2     	 uxth r3,r3
 1214 0a00 C7F83C32 	 str r3,[r7,#572]
 437:../Dave/Generated/CMSIS_DSP/FilteringFunctions/arm_conv_fast_q15.c **** #endif /*      #ifdef  ARM_MATH_BIG_ENDIAN     */
 438:../Dave/Generated/CMSIS_DSP/FilteringFunctions/arm_conv_fast_q15.c **** 
 439:../Dave/Generated/CMSIS_DSP/FilteringFunctions/arm_conv_fast_q15.c ****         /* Read x[10] */
 440:../Dave/Generated/CMSIS_DSP/FilteringFunctions/arm_conv_fast_q15.c ****         x3 =  _SIMD32_OFFSET(px+2);
 1215              	 .loc 1 440 0
 1216 0a04 07F11403 	 add r3,r7,#20
 1217 0a08 1B68     	 ldr r3,[r3]
 1218 0a0a 5B68     	 ldr r3,[r3,#4]
 1219 0a0c C7F83432 	 str r3,[r7,#564]
 441:../Dave/Generated/CMSIS_DSP/FilteringFunctions/arm_conv_fast_q15.c **** 		px += 3u;
 1220              	 .loc 1 441 0
 1221 0a10 07F11403 	 add r3,r7,#20
 1222 0a14 1B68     	 ldr r3,[r3]
 1223 0a16 9A1D     	 adds r2,r3,#6
 1224 0a18 07F11403 	 add r3,r7,#20
 1225 0a1c 1A60     	 str r2,[r3]
 442:../Dave/Generated/CMSIS_DSP/FilteringFunctions/arm_conv_fast_q15.c **** 
 443:../Dave/Generated/CMSIS_DSP/FilteringFunctions/arm_conv_fast_q15.c ****         /* Perform the multiply-accumulates */
 444:../Dave/Generated/CMSIS_DSP/FilteringFunctions/arm_conv_fast_q15.c ****         acc0 = __SMLADX(x1, c0, acc0);
 1226              	 .loc 1 444 0
 1227 0a1e D7F86002 	 ldr r0,[r7,#608]
 1228 0a22 D7F83C12 	 ldr r1,[r7,#572]
 1229 0a26 D7F87822 	 ldr r2,[r7,#632]
 1230 0a2a 07F19803 	 add r3,r7,#152
 1231 0a2e 1860     	 str r0,[r3]
 1232 0a30 07F19403 	 add r3,r7,#148
 1233 0a34 1960     	 str r1,[r3]
 1234 0a36 07F19003 	 add r3,r7,#144
 1235 0a3a 1A60     	 str r2,[r3]
 1236              	.LBB116:
 1237              	.LBB117:
 515:C:\Users\Depes Crystalline\Desktop\school\Active_Bike_Lighting_System\Radar_Core/Libraries/CMSIS/Include\core_cmSimd.h ****   return(result);
 1238              	 .loc 2 515 0
 1239 0a3c 07F19803 	 add r3,r7,#152
 1240 0a40 1B68     	 ldr r3,[r3]
 1241 0a42 07F19402 	 add r2,r7,#148
 1242 0a46 1268     	 ldr r2,[r2]
 1243 0a48 07F19001 	 add r1,r7,#144
 1244 0a4c 0968     	 ldr r1,[r1]
 1245              	
 1246 0a4e 23FB1212 	 smladx r2,r3,r2,r1
 1247              	
 1248              	 .thumb
 1249 0a52 07F18C03 	 add r3,r7,#140
 1250 0a56 1A60     	 str r2,[r3]
 1251              	 .loc 2 516 0
 1252 0a58 07F18C03 	 add r3,r7,#140
 1253 0a5c 1B68     	 ldr r3,[r3]
 1254              	.LBE117:
 1255              	.LBE116:
 1256              	 .loc 1 444 0
 1257 0a5e C7F87832 	 str r3,[r7,#632]
 445:../Dave/Generated/CMSIS_DSP/FilteringFunctions/arm_conv_fast_q15.c ****         acc1 = __SMLAD(x2, c0, acc1);
 1258              	 .loc 1 445 0
 1259 0a62 D7F83802 	 ldr r0,[r7,#568]
 1260 0a66 D7F83C12 	 ldr r1,[r7,#572]
 1261 0a6a D7F87422 	 ldr r2,[r7,#628]
 1262 0a6e 07F18803 	 add r3,r7,#136
 1263 0a72 1860     	 str r0,[r3]
 1264 0a74 07F18403 	 add r3,r7,#132
 1265 0a78 1960     	 str r1,[r3]
 1266 0a7a 07F18003 	 add r3,r7,#128
 1267 0a7e 1A60     	 str r2,[r3]
 1268              	.LBB118:
 1269              	.LBB119:
 507:C:\Users\Depes Crystalline\Desktop\school\Active_Bike_Lighting_System\Radar_Core/Libraries/CMSIS/Include\core_cmSimd.h ****   return(result);
 1270              	 .loc 2 507 0
 1271 0a80 07F18803 	 add r3,r7,#136
 1272 0a84 1B68     	 ldr r3,[r3]
 1273 0a86 07F18402 	 add r2,r7,#132
 1274 0a8a 1268     	 ldr r2,[r2]
 1275 0a8c 07F18001 	 add r1,r7,#128
 1276 0a90 0968     	 ldr r1,[r1]
 1277              	
 1278 0a92 23FB0212 	 smlad r2,r3,r2,r1
 1279              	
 1280              	 .thumb
 1281 0a96 07F17C03 	 add r3,r7,#124
 1282 0a9a 1A60     	 str r2,[r3]
 508:C:\Users\Depes Crystalline\Desktop\school\Active_Bike_Lighting_System\Radar_Core/Libraries/CMSIS/Include\core_cmSimd.h **** }
 1283              	 .loc 2 508 0
 1284 0a9c 07F17C03 	 add r3,r7,#124
 1285 0aa0 1B68     	 ldr r3,[r3]
 1286              	.LBE119:
 1287              	.LBE118:
 1288              	 .loc 1 445 0
 1289 0aa2 C7F87432 	 str r3,[r7,#628]
 446:../Dave/Generated/CMSIS_DSP/FilteringFunctions/arm_conv_fast_q15.c ****         acc2 = __SMLADX(x2, c0, acc2);
 1290              	 .loc 1 446 0
 1291 0aa6 D7F83802 	 ldr r0,[r7,#568]
 1292 0aaa D7F83C12 	 ldr r1,[r7,#572]
 1293 0aae D7F87022 	 ldr r2,[r7,#624]
 1294 0ab2 07F17803 	 add r3,r7,#120
 1295 0ab6 1860     	 str r0,[r3]
 1296 0ab8 07F17403 	 add r3,r7,#116
 1297 0abc 1960     	 str r1,[r3]
 1298 0abe 07F17003 	 add r3,r7,#112
 1299 0ac2 1A60     	 str r2,[r3]
 1300              	.LBB120:
 1301              	.LBB121:
 515:C:\Users\Depes Crystalline\Desktop\school\Active_Bike_Lighting_System\Radar_Core/Libraries/CMSIS/Include\core_cmSimd.h ****   return(result);
 1302              	 .loc 2 515 0
 1303 0ac4 07F17803 	 add r3,r7,#120
 1304 0ac8 1B68     	 ldr r3,[r3]
 1305 0aca 07F17402 	 add r2,r7,#116
 1306 0ace 1268     	 ldr r2,[r2]
 1307 0ad0 07F17001 	 add r1,r7,#112
 1308 0ad4 0968     	 ldr r1,[r1]
 1309              	
 1310 0ad6 23FB1212 	 smladx r2,r3,r2,r1
 1311              	
 1312              	 .thumb
 1313 0ada 07F16C03 	 add r3,r7,#108
 1314 0ade 1A60     	 str r2,[r3]
 1315              	 .loc 2 516 0
 1316 0ae0 07F16C03 	 add r3,r7,#108
 1317 0ae4 1B68     	 ldr r3,[r3]
 1318              	.LBE121:
 1319              	.LBE120:
 1320              	 .loc 1 446 0
 1321 0ae6 C7F87032 	 str r3,[r7,#624]
 447:../Dave/Generated/CMSIS_DSP/FilteringFunctions/arm_conv_fast_q15.c ****         acc3 = __SMLADX(x3, c0, acc3);
 1322              	 .loc 1 447 0
 1323 0aea D7F83402 	 ldr r0,[r7,#564]
 1324 0aee D7F83C12 	 ldr r1,[r7,#572]
 1325 0af2 D7F86C22 	 ldr r2,[r7,#620]
 1326 0af6 07F16803 	 add r3,r7,#104
 1327 0afa 1860     	 str r0,[r3]
 1328 0afc 07F16403 	 add r3,r7,#100
 1329 0b00 1960     	 str r1,[r3]
 1330 0b02 07F16003 	 add r3,r7,#96
 1331 0b06 1A60     	 str r2,[r3]
 1332              	.LBB122:
 1333              	.LBB123:
 515:C:\Users\Depes Crystalline\Desktop\school\Active_Bike_Lighting_System\Radar_Core/Libraries/CMSIS/Include\core_cmSimd.h ****   return(result);
 1334              	 .loc 2 515 0
 1335 0b08 07F16803 	 add r3,r7,#104
 1336 0b0c 1B68     	 ldr r3,[r3]
 1337 0b0e 07F16402 	 add r2,r7,#100
 1338 0b12 1268     	 ldr r2,[r2]
 1339 0b14 07F16001 	 add r1,r7,#96
 1340 0b18 0968     	 ldr r1,[r1]
 1341              	
 1342 0b1a 23FB1212 	 smladx r2,r3,r2,r1
 1343              	
 1344              	 .thumb
 1345 0b1e 07F15C03 	 add r3,r7,#92
 1346 0b22 1A60     	 str r2,[r3]
 1347              	 .loc 2 516 0
 1348 0b24 07F15C03 	 add r3,r7,#92
 1349 0b28 1B68     	 ldr r3,[r3]
 1350              	.LBE123:
 1351              	.LBE122:
 1352              	 .loc 1 447 0
 1353 0b2a C7F86C32 	 str r3,[r7,#620]
 1354              	.L40:
 448:../Dave/Generated/CMSIS_DSP/FilteringFunctions/arm_conv_fast_q15.c ****       }
 449:../Dave/Generated/CMSIS_DSP/FilteringFunctions/arm_conv_fast_q15.c **** 
 450:../Dave/Generated/CMSIS_DSP/FilteringFunctions/arm_conv_fast_q15.c ****       /* Store the results in the accumulators in the destination buffer. */
 451:../Dave/Generated/CMSIS_DSP/FilteringFunctions/arm_conv_fast_q15.c **** #ifndef ARM_MATH_BIG_ENDIAN
 452:../Dave/Generated/CMSIS_DSP/FilteringFunctions/arm_conv_fast_q15.c **** 
 453:../Dave/Generated/CMSIS_DSP/FilteringFunctions/arm_conv_fast_q15.c ****       *__SIMD32(pOut)++ = __PKHBT((acc0 >> 15), (acc1 >> 15), 16);
 1355              	 .loc 1 453 0
 1356 0b2e 07F11802 	 add r2,r7,#24
 1357 0b32 1368     	 ldr r3,[r2]
 1358 0b34 191D     	 adds r1,r3,#4
 1359 0b36 1160     	 str r1,[r2]
 1360              	.LBB124:
 1361 0b38 D7F87822 	 ldr r2,[r7,#632]
 1362 0b3c D213     	 asrs r2,r2,#15
 1363 0b3e C7F83022 	 str r2,[r7,#560]
 1364 0b42 D7F87422 	 ldr r2,[r7,#628]
 1365 0b46 D213     	 asrs r2,r2,#15
 1366 0b48 C7F82C22 	 str r2,[r7,#556]
 1367 0b4c D7F83022 	 ldr r2,[r7,#560]
 1368 0b50 D7F82C12 	 ldr r1,[r7,#556]
 1369              	
 1370 0b54 C2EA0142 	 pkhbt r2,r2,r1,lsl#16
 1371              	
 1372              	 .thumb
 1373 0b58 C7F82822 	 str r2,[r7,#552]
 1374 0b5c D7F82822 	 ldr r2,[r7,#552]
 1375              	.LBE124:
 1376 0b60 1A60     	 str r2,[r3]
 454:../Dave/Generated/CMSIS_DSP/FilteringFunctions/arm_conv_fast_q15.c ****       *__SIMD32(pOut)++ = __PKHBT((acc2 >> 15), (acc3 >> 15), 16);
 1377              	 .loc 1 454 0
 1378 0b62 07F11802 	 add r2,r7,#24
 1379 0b66 1368     	 ldr r3,[r2]
 1380 0b68 191D     	 adds r1,r3,#4
 1381 0b6a 1160     	 str r1,[r2]
 1382              	.LBB125:
 1383 0b6c D7F87022 	 ldr r2,[r7,#624]
 1384 0b70 D213     	 asrs r2,r2,#15
 1385 0b72 C7F82422 	 str r2,[r7,#548]
 1386 0b76 D7F86C22 	 ldr r2,[r7,#620]
 1387 0b7a D213     	 asrs r2,r2,#15
 1388 0b7c C7F82022 	 str r2,[r7,#544]
 1389 0b80 D7F82422 	 ldr r2,[r7,#548]
 1390 0b84 D7F82012 	 ldr r1,[r7,#544]
 1391              	
 1392 0b88 C2EA0142 	 pkhbt r2,r2,r1,lsl#16
 1393              	
 1394              	 .thumb
 1395 0b8c C7F81C22 	 str r2,[r7,#540]
 1396 0b90 D7F81C22 	 ldr r2,[r7,#540]
 1397              	.LBE125:
 1398 0b94 1A60     	 str r2,[r3]
 455:../Dave/Generated/CMSIS_DSP/FilteringFunctions/arm_conv_fast_q15.c **** 
 456:../Dave/Generated/CMSIS_DSP/FilteringFunctions/arm_conv_fast_q15.c **** #else
 457:../Dave/Generated/CMSIS_DSP/FilteringFunctions/arm_conv_fast_q15.c **** 
 458:../Dave/Generated/CMSIS_DSP/FilteringFunctions/arm_conv_fast_q15.c ****       *__SIMD32(pOut)++ = __PKHBT((acc1 >> 15), (acc0 >> 15), 16);
 459:../Dave/Generated/CMSIS_DSP/FilteringFunctions/arm_conv_fast_q15.c ****       *__SIMD32(pOut)++ = __PKHBT((acc3 >> 15), (acc2 >> 15), 16);
 460:../Dave/Generated/CMSIS_DSP/FilteringFunctions/arm_conv_fast_q15.c **** 
 461:../Dave/Generated/CMSIS_DSP/FilteringFunctions/arm_conv_fast_q15.c **** #endif /*      #ifndef  ARM_MATH_BIG_ENDIAN    */
 462:../Dave/Generated/CMSIS_DSP/FilteringFunctions/arm_conv_fast_q15.c **** 
 463:../Dave/Generated/CMSIS_DSP/FilteringFunctions/arm_conv_fast_q15.c ****       /* Increment the pointer pIn1 index, count by 4 */
 464:../Dave/Generated/CMSIS_DSP/FilteringFunctions/arm_conv_fast_q15.c ****       count += 4u;
 1399              	 .loc 1 464 0
 1400 0b96 D7F84C32 	 ldr r3,[r7,#588]
 1401 0b9a 0433     	 adds r3,r3,#4
 1402 0b9c C7F84C32 	 str r3,[r7,#588]
 465:../Dave/Generated/CMSIS_DSP/FilteringFunctions/arm_conv_fast_q15.c **** 
 466:../Dave/Generated/CMSIS_DSP/FilteringFunctions/arm_conv_fast_q15.c ****       /* Update the inputA and inputB pointers for next MAC calculation */
 467:../Dave/Generated/CMSIS_DSP/FilteringFunctions/arm_conv_fast_q15.c ****       px = pIn1 + count;
 1403              	 .loc 1 467 0
 1404 0ba0 D7F84C32 	 ldr r3,[r7,#588]
 1405 0ba4 5B00     	 lsls r3,r3,#1
 1406 0ba6 D7F88422 	 ldr r2,[r7,#644]
 1407 0baa 1A44     	 add r2,r2,r3
 1408 0bac 07F11403 	 add r3,r7,#20
 1409 0bb0 1A60     	 str r2,[r3]
 468:../Dave/Generated/CMSIS_DSP/FilteringFunctions/arm_conv_fast_q15.c ****       py = pSrc2;
 1410              	 .loc 1 468 0
 1411 0bb2 07F11003 	 add r3,r7,#16
 1412 0bb6 D7F84022 	 ldr r2,[r7,#576]
 1413 0bba 1A60     	 str r2,[r3]
 469:../Dave/Generated/CMSIS_DSP/FilteringFunctions/arm_conv_fast_q15.c **** 
 470:../Dave/Generated/CMSIS_DSP/FilteringFunctions/arm_conv_fast_q15.c ****       /* Decrement the loop counter */
 471:../Dave/Generated/CMSIS_DSP/FilteringFunctions/arm_conv_fast_q15.c ****       blkCnt--;
 1414              	 .loc 1 471 0
 1415 0bbc D7F84832 	 ldr r3,[r7,#584]
 1416 0bc0 013B     	 subs r3,r3,#1
 1417 0bc2 C7F84832 	 str r3,[r7,#584]
 1418              	.L20:
 289:../Dave/Generated/CMSIS_DSP/FilteringFunctions/arm_conv_fast_q15.c ****     {
 1419              	 .loc 1 289 0
 1420 0bc6 D7F84832 	 ldr r3,[r7,#584]
 1421 0bca 002B     	 cmp r3,#0
 1422 0bcc 7FF4C9AB 	 bne .L49
 472:../Dave/Generated/CMSIS_DSP/FilteringFunctions/arm_conv_fast_q15.c ****     }
 473:../Dave/Generated/CMSIS_DSP/FilteringFunctions/arm_conv_fast_q15.c **** 
 474:../Dave/Generated/CMSIS_DSP/FilteringFunctions/arm_conv_fast_q15.c ****     /* If the blockSize2 is not a multiple of 4, compute any remaining output samples here.   
 475:../Dave/Generated/CMSIS_DSP/FilteringFunctions/arm_conv_fast_q15.c ****      ** No loop unrolling is used. */
 476:../Dave/Generated/CMSIS_DSP/FilteringFunctions/arm_conv_fast_q15.c ****     blkCnt = blockSize2 % 0x4u;
 1423              	 .loc 1 476 0
 1424 0bd0 D7F84432 	 ldr r3,[r7,#580]
 1425 0bd4 03F00303 	 and r3,r3,#3
 1426 0bd8 C7F84832 	 str r3,[r7,#584]
 477:../Dave/Generated/CMSIS_DSP/FilteringFunctions/arm_conv_fast_q15.c **** 
 478:../Dave/Generated/CMSIS_DSP/FilteringFunctions/arm_conv_fast_q15.c ****     while(blkCnt > 0u)
 1427              	 .loc 1 478 0
 1428 0bdc C2E0     	 b .L50
 1429              	.L55:
 479:../Dave/Generated/CMSIS_DSP/FilteringFunctions/arm_conv_fast_q15.c ****     {
 480:../Dave/Generated/CMSIS_DSP/FilteringFunctions/arm_conv_fast_q15.c ****       /* Accumulator is made zero for every iteration */
 481:../Dave/Generated/CMSIS_DSP/FilteringFunctions/arm_conv_fast_q15.c ****       sum = 0;
 1430              	 .loc 1 481 0
 1431 0bde 0023     	 movs r3,#0
 1432 0be0 C7F87C32 	 str r3,[r7,#636]
 482:../Dave/Generated/CMSIS_DSP/FilteringFunctions/arm_conv_fast_q15.c **** 
 483:../Dave/Generated/CMSIS_DSP/FilteringFunctions/arm_conv_fast_q15.c ****       /* Apply loop unrolling and compute 4 MACs simultaneously. */
 484:../Dave/Generated/CMSIS_DSP/FilteringFunctions/arm_conv_fast_q15.c ****       k = srcBLen >> 2u;
 1433              	 .loc 1 484 0
 1434 0be4 3B46     	 mov r3,r7
 1435 0be6 1B68     	 ldr r3,[r3]
 1436 0be8 9B08     	 lsrs r3,r3,#2
 1437 0bea C7F85032 	 str r3,[r7,#592]
 485:../Dave/Generated/CMSIS_DSP/FilteringFunctions/arm_conv_fast_q15.c **** 
 486:../Dave/Generated/CMSIS_DSP/FilteringFunctions/arm_conv_fast_q15.c ****       /* First part of the processing with loop unrolling.  Compute 4 MACs at a time.   
 487:../Dave/Generated/CMSIS_DSP/FilteringFunctions/arm_conv_fast_q15.c ****        ** a second loop below computes MACs for the remaining 1 to 3 samples. */
 488:../Dave/Generated/CMSIS_DSP/FilteringFunctions/arm_conv_fast_q15.c ****       while(k > 0u)
 1438              	 .loc 1 488 0
 1439 0bee 68E0     	 b .L51
 1440              	.L52:
 489:../Dave/Generated/CMSIS_DSP/FilteringFunctions/arm_conv_fast_q15.c ****       {
 490:../Dave/Generated/CMSIS_DSP/FilteringFunctions/arm_conv_fast_q15.c ****         /* Perform the multiply-accumulates */
 491:../Dave/Generated/CMSIS_DSP/FilteringFunctions/arm_conv_fast_q15.c ****         sum += ((q31_t) * px++ * *py--);
 1441              	 .loc 1 491 0
 1442 0bf0 07F11403 	 add r3,r7,#20
 1443 0bf4 1B68     	 ldr r3,[r3]
 1444 0bf6 991C     	 adds r1,r3,#2
 1445 0bf8 07F11402 	 add r2,r7,#20
 1446 0bfc 1160     	 str r1,[r2]
 1447 0bfe 1B88     	 ldrh r3,[r3]
 1448 0c00 1AB2     	 sxth r2,r3
 1449 0c02 07F11003 	 add r3,r7,#16
 1450 0c06 1B68     	 ldr r3,[r3]
 1451 0c08 981E     	 subs r0,r3,#2
 1452 0c0a 07F11001 	 add r1,r7,#16
 1453 0c0e 0860     	 str r0,[r1]
 1454 0c10 1B88     	 ldrh r3,[r3]
 1455 0c12 1BB2     	 sxth r3,r3
 1456 0c14 03FB02F3 	 mul r3,r3,r2
 1457 0c18 D7F87C22 	 ldr r2,[r7,#636]
 1458 0c1c 1344     	 add r3,r3,r2
 1459 0c1e C7F87C32 	 str r3,[r7,#636]
 492:../Dave/Generated/CMSIS_DSP/FilteringFunctions/arm_conv_fast_q15.c ****         sum += ((q31_t) * px++ * *py--);
 1460              	 .loc 1 492 0
 1461 0c22 07F11403 	 add r3,r7,#20
 1462 0c26 1B68     	 ldr r3,[r3]
 1463 0c28 991C     	 adds r1,r3,#2
 1464 0c2a 07F11402 	 add r2,r7,#20
 1465 0c2e 1160     	 str r1,[r2]
 1466 0c30 1B88     	 ldrh r3,[r3]
 1467 0c32 1AB2     	 sxth r2,r3
 1468 0c34 07F11003 	 add r3,r7,#16
 1469 0c38 1B68     	 ldr r3,[r3]
 1470 0c3a 981E     	 subs r0,r3,#2
 1471 0c3c 07F11001 	 add r1,r7,#16
 1472 0c40 0860     	 str r0,[r1]
 1473 0c42 1B88     	 ldrh r3,[r3]
 1474 0c44 1BB2     	 sxth r3,r3
 1475 0c46 03FB02F3 	 mul r3,r3,r2
 1476 0c4a D7F87C22 	 ldr r2,[r7,#636]
 1477 0c4e 1344     	 add r3,r3,r2
 1478 0c50 C7F87C32 	 str r3,[r7,#636]
 493:../Dave/Generated/CMSIS_DSP/FilteringFunctions/arm_conv_fast_q15.c ****         sum += ((q31_t) * px++ * *py--);
 1479              	 .loc 1 493 0
 1480 0c54 07F11403 	 add r3,r7,#20
 1481 0c58 1B68     	 ldr r3,[r3]
 1482 0c5a 991C     	 adds r1,r3,#2
 1483 0c5c 07F11402 	 add r2,r7,#20
 1484 0c60 1160     	 str r1,[r2]
 1485 0c62 1B88     	 ldrh r3,[r3]
 1486 0c64 1AB2     	 sxth r2,r3
 1487 0c66 07F11003 	 add r3,r7,#16
 1488 0c6a 1B68     	 ldr r3,[r3]
 1489 0c6c 981E     	 subs r0,r3,#2
 1490 0c6e 07F11001 	 add r1,r7,#16
 1491 0c72 0860     	 str r0,[r1]
 1492 0c74 1B88     	 ldrh r3,[r3]
 1493 0c76 1BB2     	 sxth r3,r3
 1494 0c78 03FB02F3 	 mul r3,r3,r2
 1495 0c7c D7F87C22 	 ldr r2,[r7,#636]
 1496 0c80 1344     	 add r3,r3,r2
 1497 0c82 C7F87C32 	 str r3,[r7,#636]
 494:../Dave/Generated/CMSIS_DSP/FilteringFunctions/arm_conv_fast_q15.c ****         sum += ((q31_t) * px++ * *py--);
 1498              	 .loc 1 494 0
 1499 0c86 07F11403 	 add r3,r7,#20
 1500 0c8a 1B68     	 ldr r3,[r3]
 1501 0c8c 991C     	 adds r1,r3,#2
 1502 0c8e 07F11402 	 add r2,r7,#20
 1503 0c92 1160     	 str r1,[r2]
 1504 0c94 1B88     	 ldrh r3,[r3]
 1505 0c96 1AB2     	 sxth r2,r3
 1506 0c98 07F11003 	 add r3,r7,#16
 1507 0c9c 1B68     	 ldr r3,[r3]
 1508 0c9e 981E     	 subs r0,r3,#2
 1509 0ca0 07F11001 	 add r1,r7,#16
 1510 0ca4 0860     	 str r0,[r1]
 1511 0ca6 1B88     	 ldrh r3,[r3]
 1512 0ca8 1BB2     	 sxth r3,r3
 1513 0caa 03FB02F3 	 mul r3,r3,r2
 1514 0cae D7F87C22 	 ldr r2,[r7,#636]
 1515 0cb2 1344     	 add r3,r3,r2
 1516 0cb4 C7F87C32 	 str r3,[r7,#636]
 495:../Dave/Generated/CMSIS_DSP/FilteringFunctions/arm_conv_fast_q15.c **** 
 496:../Dave/Generated/CMSIS_DSP/FilteringFunctions/arm_conv_fast_q15.c ****         /* Decrement the loop counter */
 497:../Dave/Generated/CMSIS_DSP/FilteringFunctions/arm_conv_fast_q15.c ****         k--;
 1517              	 .loc 1 497 0
 1518 0cb8 D7F85032 	 ldr r3,[r7,#592]
 1519 0cbc 013B     	 subs r3,r3,#1
 1520 0cbe C7F85032 	 str r3,[r7,#592]
 1521              	.L51:
 488:../Dave/Generated/CMSIS_DSP/FilteringFunctions/arm_conv_fast_q15.c ****       {
 1522              	 .loc 1 488 0
 1523 0cc2 D7F85032 	 ldr r3,[r7,#592]
 1524 0cc6 002B     	 cmp r3,#0
 1525 0cc8 92D1     	 bne .L52
 498:../Dave/Generated/CMSIS_DSP/FilteringFunctions/arm_conv_fast_q15.c ****       }
 499:../Dave/Generated/CMSIS_DSP/FilteringFunctions/arm_conv_fast_q15.c **** 
 500:../Dave/Generated/CMSIS_DSP/FilteringFunctions/arm_conv_fast_q15.c ****       /* If the srcBLen is not a multiple of 4, compute any remaining MACs here.   
 501:../Dave/Generated/CMSIS_DSP/FilteringFunctions/arm_conv_fast_q15.c ****        ** No loop unrolling is used. */
 502:../Dave/Generated/CMSIS_DSP/FilteringFunctions/arm_conv_fast_q15.c ****       k = srcBLen % 0x4u;
 1526              	 .loc 1 502 0
 1527 0cca 3B46     	 mov r3,r7
 1528 0ccc 1B68     	 ldr r3,[r3]
 1529 0cce 03F00303 	 and r3,r3,#3
 1530 0cd2 C7F85032 	 str r3,[r7,#592]
 503:../Dave/Generated/CMSIS_DSP/FilteringFunctions/arm_conv_fast_q15.c **** 
 504:../Dave/Generated/CMSIS_DSP/FilteringFunctions/arm_conv_fast_q15.c ****       while(k > 0u)
 1531              	 .loc 1 504 0
 1532 0cd6 1DE0     	 b .L53
 1533              	.L54:
 505:../Dave/Generated/CMSIS_DSP/FilteringFunctions/arm_conv_fast_q15.c ****       {
 506:../Dave/Generated/CMSIS_DSP/FilteringFunctions/arm_conv_fast_q15.c ****         /* Perform the multiply-accumulates */
 507:../Dave/Generated/CMSIS_DSP/FilteringFunctions/arm_conv_fast_q15.c ****         sum += ((q31_t) * px++ * *py--);
 1534              	 .loc 1 507 0
 1535 0cd8 07F11403 	 add r3,r7,#20
 1536 0cdc 1B68     	 ldr r3,[r3]
 1537 0cde 991C     	 adds r1,r3,#2
 1538 0ce0 07F11402 	 add r2,r7,#20
 1539 0ce4 1160     	 str r1,[r2]
 1540 0ce6 1B88     	 ldrh r3,[r3]
 1541 0ce8 1AB2     	 sxth r2,r3
 1542 0cea 07F11003 	 add r3,r7,#16
 1543 0cee 1B68     	 ldr r3,[r3]
 1544 0cf0 981E     	 subs r0,r3,#2
 1545 0cf2 07F11001 	 add r1,r7,#16
 1546 0cf6 0860     	 str r0,[r1]
 1547 0cf8 1B88     	 ldrh r3,[r3]
 1548 0cfa 1BB2     	 sxth r3,r3
 1549 0cfc 03FB02F3 	 mul r3,r3,r2
 1550 0d00 D7F87C22 	 ldr r2,[r7,#636]
 1551 0d04 1344     	 add r3,r3,r2
 1552 0d06 C7F87C32 	 str r3,[r7,#636]
 508:../Dave/Generated/CMSIS_DSP/FilteringFunctions/arm_conv_fast_q15.c **** 
 509:../Dave/Generated/CMSIS_DSP/FilteringFunctions/arm_conv_fast_q15.c ****         /* Decrement the loop counter */
 510:../Dave/Generated/CMSIS_DSP/FilteringFunctions/arm_conv_fast_q15.c ****         k--;
 1553              	 .loc 1 510 0
 1554 0d0a D7F85032 	 ldr r3,[r7,#592]
 1555 0d0e 013B     	 subs r3,r3,#1
 1556 0d10 C7F85032 	 str r3,[r7,#592]
 1557              	.L53:
 504:../Dave/Generated/CMSIS_DSP/FilteringFunctions/arm_conv_fast_q15.c ****       {
 1558              	 .loc 1 504 0
 1559 0d14 D7F85032 	 ldr r3,[r7,#592]
 1560 0d18 002B     	 cmp r3,#0
 1561 0d1a DDD1     	 bne .L54
 511:../Dave/Generated/CMSIS_DSP/FilteringFunctions/arm_conv_fast_q15.c ****       }
 512:../Dave/Generated/CMSIS_DSP/FilteringFunctions/arm_conv_fast_q15.c **** 
 513:../Dave/Generated/CMSIS_DSP/FilteringFunctions/arm_conv_fast_q15.c ****       /* Store the result in the accumulator in the destination buffer. */
 514:../Dave/Generated/CMSIS_DSP/FilteringFunctions/arm_conv_fast_q15.c ****       *pOut++ = (q15_t) (sum >> 15);
 1562              	 .loc 1 514 0
 1563 0d1c 07F11803 	 add r3,r7,#24
 1564 0d20 1B68     	 ldr r3,[r3]
 1565 0d22 991C     	 adds r1,r3,#2
 1566 0d24 07F11802 	 add r2,r7,#24
 1567 0d28 1160     	 str r1,[r2]
 1568 0d2a D7F87C22 	 ldr r2,[r7,#636]
 1569 0d2e D213     	 asrs r2,r2,#15
 1570 0d30 92B2     	 uxth r2,r2
 1571 0d32 1A80     	 strh r2,[r3]
 515:../Dave/Generated/CMSIS_DSP/FilteringFunctions/arm_conv_fast_q15.c **** 
 516:../Dave/Generated/CMSIS_DSP/FilteringFunctions/arm_conv_fast_q15.c ****       /* Increment the pointer pIn1 index, count by 1 */
 517:../Dave/Generated/CMSIS_DSP/FilteringFunctions/arm_conv_fast_q15.c ****       count++;
 1572              	 .loc 1 517 0
 1573 0d34 D7F84C32 	 ldr r3,[r7,#588]
 1574 0d38 0133     	 adds r3,r3,#1
 1575 0d3a C7F84C32 	 str r3,[r7,#588]
 518:../Dave/Generated/CMSIS_DSP/FilteringFunctions/arm_conv_fast_q15.c **** 
 519:../Dave/Generated/CMSIS_DSP/FilteringFunctions/arm_conv_fast_q15.c ****       /* Update the inputA and inputB pointers for next MAC calculation */
 520:../Dave/Generated/CMSIS_DSP/FilteringFunctions/arm_conv_fast_q15.c ****       px = pIn1 + count;
 1576              	 .loc 1 520 0
 1577 0d3e D7F84C32 	 ldr r3,[r7,#588]
 1578 0d42 5B00     	 lsls r3,r3,#1
 1579 0d44 D7F88422 	 ldr r2,[r7,#644]
 1580 0d48 1A44     	 add r2,r2,r3
 1581 0d4a 07F11403 	 add r3,r7,#20
 1582 0d4e 1A60     	 str r2,[r3]
 521:../Dave/Generated/CMSIS_DSP/FilteringFunctions/arm_conv_fast_q15.c ****       py = pSrc2;
 1583              	 .loc 1 521 0
 1584 0d50 07F11003 	 add r3,r7,#16
 1585 0d54 D7F84022 	 ldr r2,[r7,#576]
 1586 0d58 1A60     	 str r2,[r3]
 522:../Dave/Generated/CMSIS_DSP/FilteringFunctions/arm_conv_fast_q15.c **** 
 523:../Dave/Generated/CMSIS_DSP/FilteringFunctions/arm_conv_fast_q15.c ****       /* Decrement the loop counter */
 524:../Dave/Generated/CMSIS_DSP/FilteringFunctions/arm_conv_fast_q15.c ****       blkCnt--;
 1587              	 .loc 1 524 0
 1588 0d5a D7F84832 	 ldr r3,[r7,#584]
 1589 0d5e 013B     	 subs r3,r3,#1
 1590 0d60 C7F84832 	 str r3,[r7,#584]
 1591              	.L50:
 478:../Dave/Generated/CMSIS_DSP/FilteringFunctions/arm_conv_fast_q15.c ****     {
 1592              	 .loc 1 478 0
 1593 0d64 D7F84832 	 ldr r3,[r7,#584]
 1594 0d68 002B     	 cmp r3,#0
 1595 0d6a 7FF438AF 	 bne .L55
 1596 0d6e 56E0     	 b .L56
 1597              	.L19:
 525:../Dave/Generated/CMSIS_DSP/FilteringFunctions/arm_conv_fast_q15.c ****     }
 526:../Dave/Generated/CMSIS_DSP/FilteringFunctions/arm_conv_fast_q15.c ****   }
 527:../Dave/Generated/CMSIS_DSP/FilteringFunctions/arm_conv_fast_q15.c ****   else
 528:../Dave/Generated/CMSIS_DSP/FilteringFunctions/arm_conv_fast_q15.c ****   {
 529:../Dave/Generated/CMSIS_DSP/FilteringFunctions/arm_conv_fast_q15.c ****     /* If the srcBLen is not a multiple of 4,   
 530:../Dave/Generated/CMSIS_DSP/FilteringFunctions/arm_conv_fast_q15.c ****      * the blockSize2 loop cannot be unrolled by 4 */
 531:../Dave/Generated/CMSIS_DSP/FilteringFunctions/arm_conv_fast_q15.c ****     blkCnt = blockSize2;
 1598              	 .loc 1 531 0
 1599 0d70 D7F84432 	 ldr r3,[r7,#580]
 1600 0d74 C7F84832 	 str r3,[r7,#584]
 532:../Dave/Generated/CMSIS_DSP/FilteringFunctions/arm_conv_fast_q15.c **** 
 533:../Dave/Generated/CMSIS_DSP/FilteringFunctions/arm_conv_fast_q15.c ****     while(blkCnt > 0u)
 1601              	 .loc 1 533 0
 1602 0d78 4DE0     	 b .L57
 1603              	.L60:
 534:../Dave/Generated/CMSIS_DSP/FilteringFunctions/arm_conv_fast_q15.c ****     {
 535:../Dave/Generated/CMSIS_DSP/FilteringFunctions/arm_conv_fast_q15.c ****       /* Accumulator is made zero for every iteration */
 536:../Dave/Generated/CMSIS_DSP/FilteringFunctions/arm_conv_fast_q15.c ****       sum = 0;
 1604              	 .loc 1 536 0
 1605 0d7a 0023     	 movs r3,#0
 1606 0d7c C7F87C32 	 str r3,[r7,#636]
 537:../Dave/Generated/CMSIS_DSP/FilteringFunctions/arm_conv_fast_q15.c **** 
 538:../Dave/Generated/CMSIS_DSP/FilteringFunctions/arm_conv_fast_q15.c ****       /* srcBLen number of MACS should be performed */
 539:../Dave/Generated/CMSIS_DSP/FilteringFunctions/arm_conv_fast_q15.c ****       k = srcBLen;
 1607              	 .loc 1 539 0
 1608 0d80 3B46     	 mov r3,r7
 1609 0d82 1B68     	 ldr r3,[r3]
 1610 0d84 C7F85032 	 str r3,[r7,#592]
 540:../Dave/Generated/CMSIS_DSP/FilteringFunctions/arm_conv_fast_q15.c **** 
 541:../Dave/Generated/CMSIS_DSP/FilteringFunctions/arm_conv_fast_q15.c ****       while(k > 0u)
 1611              	 .loc 1 541 0
 1612 0d88 1DE0     	 b .L58
 1613              	.L59:
 542:../Dave/Generated/CMSIS_DSP/FilteringFunctions/arm_conv_fast_q15.c ****       {
 543:../Dave/Generated/CMSIS_DSP/FilteringFunctions/arm_conv_fast_q15.c ****         /* Perform the multiply-accumulate */
 544:../Dave/Generated/CMSIS_DSP/FilteringFunctions/arm_conv_fast_q15.c ****         sum += ((q31_t) * px++ * *py--);
 1614              	 .loc 1 544 0
 1615 0d8a 07F11403 	 add r3,r7,#20
 1616 0d8e 1B68     	 ldr r3,[r3]
 1617 0d90 991C     	 adds r1,r3,#2
 1618 0d92 07F11402 	 add r2,r7,#20
 1619 0d96 1160     	 str r1,[r2]
 1620 0d98 1B88     	 ldrh r3,[r3]
 1621 0d9a 1AB2     	 sxth r2,r3
 1622 0d9c 07F11003 	 add r3,r7,#16
 1623 0da0 1B68     	 ldr r3,[r3]
 1624 0da2 981E     	 subs r0,r3,#2
 1625 0da4 07F11001 	 add r1,r7,#16
 1626 0da8 0860     	 str r0,[r1]
 1627 0daa 1B88     	 ldrh r3,[r3]
 1628 0dac 1BB2     	 sxth r3,r3
 1629 0dae 03FB02F3 	 mul r3,r3,r2
 1630 0db2 D7F87C22 	 ldr r2,[r7,#636]
 1631 0db6 1344     	 add r3,r3,r2
 1632 0db8 C7F87C32 	 str r3,[r7,#636]
 545:../Dave/Generated/CMSIS_DSP/FilteringFunctions/arm_conv_fast_q15.c **** 
 546:../Dave/Generated/CMSIS_DSP/FilteringFunctions/arm_conv_fast_q15.c ****         /* Decrement the loop counter */
 547:../Dave/Generated/CMSIS_DSP/FilteringFunctions/arm_conv_fast_q15.c ****         k--;
 1633              	 .loc 1 547 0
 1634 0dbc D7F85032 	 ldr r3,[r7,#592]
 1635 0dc0 013B     	 subs r3,r3,#1
 1636 0dc2 C7F85032 	 str r3,[r7,#592]
 1637              	.L58:
 541:../Dave/Generated/CMSIS_DSP/FilteringFunctions/arm_conv_fast_q15.c ****       {
 1638              	 .loc 1 541 0
 1639 0dc6 D7F85032 	 ldr r3,[r7,#592]
 1640 0dca 002B     	 cmp r3,#0
 1641 0dcc DDD1     	 bne .L59
 548:../Dave/Generated/CMSIS_DSP/FilteringFunctions/arm_conv_fast_q15.c ****       }
 549:../Dave/Generated/CMSIS_DSP/FilteringFunctions/arm_conv_fast_q15.c **** 
 550:../Dave/Generated/CMSIS_DSP/FilteringFunctions/arm_conv_fast_q15.c ****       /* Store the result in the accumulator in the destination buffer. */
 551:../Dave/Generated/CMSIS_DSP/FilteringFunctions/arm_conv_fast_q15.c ****       *pOut++ = (q15_t) (sum >> 15);
 1642              	 .loc 1 551 0
 1643 0dce 07F11803 	 add r3,r7,#24
 1644 0dd2 1B68     	 ldr r3,[r3]
 1645 0dd4 991C     	 adds r1,r3,#2
 1646 0dd6 07F11802 	 add r2,r7,#24
 1647 0dda 1160     	 str r1,[r2]
 1648 0ddc D7F87C22 	 ldr r2,[r7,#636]
 1649 0de0 D213     	 asrs r2,r2,#15
 1650 0de2 92B2     	 uxth r2,r2
 1651 0de4 1A80     	 strh r2,[r3]
 552:../Dave/Generated/CMSIS_DSP/FilteringFunctions/arm_conv_fast_q15.c **** 
 553:../Dave/Generated/CMSIS_DSP/FilteringFunctions/arm_conv_fast_q15.c ****       /* Increment the MAC count */
 554:../Dave/Generated/CMSIS_DSP/FilteringFunctions/arm_conv_fast_q15.c ****       count++;
 1652              	 .loc 1 554 0
 1653 0de6 D7F84C32 	 ldr r3,[r7,#588]
 1654 0dea 0133     	 adds r3,r3,#1
 1655 0dec C7F84C32 	 str r3,[r7,#588]
 555:../Dave/Generated/CMSIS_DSP/FilteringFunctions/arm_conv_fast_q15.c **** 
 556:../Dave/Generated/CMSIS_DSP/FilteringFunctions/arm_conv_fast_q15.c ****       /* Update the inputA and inputB pointers for next MAC calculation */
 557:../Dave/Generated/CMSIS_DSP/FilteringFunctions/arm_conv_fast_q15.c ****       px = pIn1 + count;
 1656              	 .loc 1 557 0
 1657 0df0 D7F84C32 	 ldr r3,[r7,#588]
 1658 0df4 5B00     	 lsls r3,r3,#1
 1659 0df6 D7F88422 	 ldr r2,[r7,#644]
 1660 0dfa 1A44     	 add r2,r2,r3
 1661 0dfc 07F11403 	 add r3,r7,#20
 1662 0e00 1A60     	 str r2,[r3]
 558:../Dave/Generated/CMSIS_DSP/FilteringFunctions/arm_conv_fast_q15.c ****       py = pSrc2;
 1663              	 .loc 1 558 0
 1664 0e02 07F11003 	 add r3,r7,#16
 1665 0e06 D7F84022 	 ldr r2,[r7,#576]
 1666 0e0a 1A60     	 str r2,[r3]
 559:../Dave/Generated/CMSIS_DSP/FilteringFunctions/arm_conv_fast_q15.c **** 
 560:../Dave/Generated/CMSIS_DSP/FilteringFunctions/arm_conv_fast_q15.c ****       /* Decrement the loop counter */
 561:../Dave/Generated/CMSIS_DSP/FilteringFunctions/arm_conv_fast_q15.c ****       blkCnt--;
 1667              	 .loc 1 561 0
 1668 0e0c D7F84832 	 ldr r3,[r7,#584]
 1669 0e10 013B     	 subs r3,r3,#1
 1670 0e12 C7F84832 	 str r3,[r7,#584]
 1671              	.L57:
 533:../Dave/Generated/CMSIS_DSP/FilteringFunctions/arm_conv_fast_q15.c ****     {
 1672              	 .loc 1 533 0
 1673 0e16 D7F84832 	 ldr r3,[r7,#584]
 1674 0e1a 002B     	 cmp r3,#0
 1675 0e1c ADD1     	 bne .L60
 1676              	.L56:
 562:../Dave/Generated/CMSIS_DSP/FilteringFunctions/arm_conv_fast_q15.c ****     }
 563:../Dave/Generated/CMSIS_DSP/FilteringFunctions/arm_conv_fast_q15.c ****   }
 564:../Dave/Generated/CMSIS_DSP/FilteringFunctions/arm_conv_fast_q15.c **** 
 565:../Dave/Generated/CMSIS_DSP/FilteringFunctions/arm_conv_fast_q15.c **** 
 566:../Dave/Generated/CMSIS_DSP/FilteringFunctions/arm_conv_fast_q15.c ****   /* --------------------------   
 567:../Dave/Generated/CMSIS_DSP/FilteringFunctions/arm_conv_fast_q15.c ****    * Initializations of stage3   
 568:../Dave/Generated/CMSIS_DSP/FilteringFunctions/arm_conv_fast_q15.c ****    * -------------------------*/
 569:../Dave/Generated/CMSIS_DSP/FilteringFunctions/arm_conv_fast_q15.c **** 
 570:../Dave/Generated/CMSIS_DSP/FilteringFunctions/arm_conv_fast_q15.c ****   /* sum += x[srcALen-srcBLen+1] * y[srcBLen-1] + x[srcALen-srcBLen+2] * y[srcBLen-2] +...+ x[srcAL
 571:../Dave/Generated/CMSIS_DSP/FilteringFunctions/arm_conv_fast_q15.c ****    * sum += x[srcALen-srcBLen+2] * y[srcBLen-1] + x[srcALen-srcBLen+3] * y[srcBLen-2] +...+ x[srcAL
 572:../Dave/Generated/CMSIS_DSP/FilteringFunctions/arm_conv_fast_q15.c ****    * ....   
 573:../Dave/Generated/CMSIS_DSP/FilteringFunctions/arm_conv_fast_q15.c ****    * sum +=  x[srcALen-2] * y[srcBLen-1] + x[srcALen-1] * y[srcBLen-2]   
 574:../Dave/Generated/CMSIS_DSP/FilteringFunctions/arm_conv_fast_q15.c ****    * sum +=  x[srcALen-1] * y[srcBLen-1]   
 575:../Dave/Generated/CMSIS_DSP/FilteringFunctions/arm_conv_fast_q15.c ****    */
 576:../Dave/Generated/CMSIS_DSP/FilteringFunctions/arm_conv_fast_q15.c **** 
 577:../Dave/Generated/CMSIS_DSP/FilteringFunctions/arm_conv_fast_q15.c ****   /* In this stage the MAC operations are decreased by 1 for every iteration.   
 578:../Dave/Generated/CMSIS_DSP/FilteringFunctions/arm_conv_fast_q15.c ****      The blockSize3 variable holds the number of MAC operations performed */
 579:../Dave/Generated/CMSIS_DSP/FilteringFunctions/arm_conv_fast_q15.c **** 
 580:../Dave/Generated/CMSIS_DSP/FilteringFunctions/arm_conv_fast_q15.c ****   /* Working pointer of inputA */
 581:../Dave/Generated/CMSIS_DSP/FilteringFunctions/arm_conv_fast_q15.c ****   pSrc1 = (pIn1 + srcALen) - (srcBLen - 1u);
 1677              	 .loc 1 581 0
 1678 0e1e 07F10802 	 add r2,r7,#8
 1679 0e22 3B46     	 mov r3,r7
 1680 0e24 1268     	 ldr r2,[r2]
 1681 0e26 1B68     	 ldr r3,[r3]
 1682 0e28 D31A     	 subs r3,r2,r3
 1683 0e2a 0133     	 adds r3,r3,#1
 1684 0e2c 5B00     	 lsls r3,r3,#1
 1685 0e2e D7F88422 	 ldr r2,[r7,#644]
 1686 0e32 1344     	 add r3,r3,r2
 1687 0e34 C7F86832 	 str r3,[r7,#616]
 582:../Dave/Generated/CMSIS_DSP/FilteringFunctions/arm_conv_fast_q15.c ****   px = pSrc1;
 1688              	 .loc 1 582 0
 1689 0e38 07F11403 	 add r3,r7,#20
 1690 0e3c D7F86822 	 ldr r2,[r7,#616]
 1691 0e40 1A60     	 str r2,[r3]
 583:../Dave/Generated/CMSIS_DSP/FilteringFunctions/arm_conv_fast_q15.c **** 
 584:../Dave/Generated/CMSIS_DSP/FilteringFunctions/arm_conv_fast_q15.c ****   /* Working pointer of inputB */
 585:../Dave/Generated/CMSIS_DSP/FilteringFunctions/arm_conv_fast_q15.c ****   pSrc2 = pIn2 + (srcBLen - 1u);
 1692              	 .loc 1 585 0
 1693 0e42 3B46     	 mov r3,r7
 1694 0e44 1B68     	 ldr r3,[r3]
 1695 0e46 03F10043 	 add r3,r3,#-2147483648
 1696 0e4a 013B     	 subs r3,r3,#1
 1697 0e4c 5B00     	 lsls r3,r3,#1
 1698 0e4e D7F88022 	 ldr r2,[r7,#640]
 1699 0e52 1344     	 add r3,r3,r2
 1700 0e54 C7F84032 	 str r3,[r7,#576]
 586:../Dave/Generated/CMSIS_DSP/FilteringFunctions/arm_conv_fast_q15.c ****   pIn2 = pSrc2 - 1u;
 1701              	 .loc 1 586 0
 1702 0e58 D7F84032 	 ldr r3,[r7,#576]
 1703 0e5c 023B     	 subs r3,r3,#2
 1704 0e5e C7F88032 	 str r3,[r7,#640]
 587:../Dave/Generated/CMSIS_DSP/FilteringFunctions/arm_conv_fast_q15.c ****   py = pIn2;
 1705              	 .loc 1 587 0
 1706 0e62 07F11003 	 add r3,r7,#16
 1707 0e66 D7F88022 	 ldr r2,[r7,#640]
 1708 0e6a 1A60     	 str r2,[r3]
 588:../Dave/Generated/CMSIS_DSP/FilteringFunctions/arm_conv_fast_q15.c **** 
 589:../Dave/Generated/CMSIS_DSP/FilteringFunctions/arm_conv_fast_q15.c ****   /* -------------------   
 590:../Dave/Generated/CMSIS_DSP/FilteringFunctions/arm_conv_fast_q15.c ****    * Stage3 process   
 591:../Dave/Generated/CMSIS_DSP/FilteringFunctions/arm_conv_fast_q15.c ****    * ------------------*/
 592:../Dave/Generated/CMSIS_DSP/FilteringFunctions/arm_conv_fast_q15.c **** 
 593:../Dave/Generated/CMSIS_DSP/FilteringFunctions/arm_conv_fast_q15.c ****   /* For loop unrolling by 4, this stage is divided into two. */
 594:../Dave/Generated/CMSIS_DSP/FilteringFunctions/arm_conv_fast_q15.c ****   /* First part of this stage computes the MAC operations greater than 4 */
 595:../Dave/Generated/CMSIS_DSP/FilteringFunctions/arm_conv_fast_q15.c ****   /* Second part of this stage computes the MAC operations less than or equal to 4 */
 596:../Dave/Generated/CMSIS_DSP/FilteringFunctions/arm_conv_fast_q15.c **** 
 597:../Dave/Generated/CMSIS_DSP/FilteringFunctions/arm_conv_fast_q15.c ****   /* The first part of the stage starts here */
 598:../Dave/Generated/CMSIS_DSP/FilteringFunctions/arm_conv_fast_q15.c ****   j = blockSize3 >> 2u;
 1709              	 .loc 1 598 0
 1710 0e6c D7F85832 	 ldr r3,[r7,#600]
 1711 0e70 9B08     	 lsrs r3,r3,#2
 1712 0e72 C7F85432 	 str r3,[r7,#596]
 599:../Dave/Generated/CMSIS_DSP/FilteringFunctions/arm_conv_fast_q15.c **** 
 600:../Dave/Generated/CMSIS_DSP/FilteringFunctions/arm_conv_fast_q15.c ****   while((j > 0u) && (blockSize3 > 0u))
 1713              	 .loc 1 600 0
 1714 0e76 D5E0     	 b .L61
 1715              	.L70:
 601:../Dave/Generated/CMSIS_DSP/FilteringFunctions/arm_conv_fast_q15.c ****   {
 602:../Dave/Generated/CMSIS_DSP/FilteringFunctions/arm_conv_fast_q15.c ****     /* Accumulator is made zero for every iteration */
 603:../Dave/Generated/CMSIS_DSP/FilteringFunctions/arm_conv_fast_q15.c ****     sum = 0;
 1716              	 .loc 1 603 0
 1717 0e78 0023     	 movs r3,#0
 1718 0e7a C7F87C32 	 str r3,[r7,#636]
 604:../Dave/Generated/CMSIS_DSP/FilteringFunctions/arm_conv_fast_q15.c **** 
 605:../Dave/Generated/CMSIS_DSP/FilteringFunctions/arm_conv_fast_q15.c ****     /* Apply loop unrolling and compute 4 MACs simultaneously. */
 606:../Dave/Generated/CMSIS_DSP/FilteringFunctions/arm_conv_fast_q15.c ****     k = blockSize3 >> 2u;
 1719              	 .loc 1 606 0
 1720 0e7e D7F85832 	 ldr r3,[r7,#600]
 1721 0e82 9B08     	 lsrs r3,r3,#2
 1722 0e84 C7F85032 	 str r3,[r7,#592]
 607:../Dave/Generated/CMSIS_DSP/FilteringFunctions/arm_conv_fast_q15.c **** 
 608:../Dave/Generated/CMSIS_DSP/FilteringFunctions/arm_conv_fast_q15.c ****     /* First part of the processing with loop unrolling.  Compute 4 MACs at a time.   
 609:../Dave/Generated/CMSIS_DSP/FilteringFunctions/arm_conv_fast_q15.c ****      ** a second loop below computes MACs for the remaining 1 to 3 samples. */
 610:../Dave/Generated/CMSIS_DSP/FilteringFunctions/arm_conv_fast_q15.c ****     while(k > 0u)
 1723              	 .loc 1 610 0
 1724 0e88 5CE0     	 b .L62
 1725              	.L65:
 611:../Dave/Generated/CMSIS_DSP/FilteringFunctions/arm_conv_fast_q15.c ****     {
 612:../Dave/Generated/CMSIS_DSP/FilteringFunctions/arm_conv_fast_q15.c ****       /* x[srcALen - srcBLen + 1], x[srcALen - srcBLen + 2] are multiplied   
 613:../Dave/Generated/CMSIS_DSP/FilteringFunctions/arm_conv_fast_q15.c ****        * with y[srcBLen - 1], y[srcBLen - 2] respectively */
 614:../Dave/Generated/CMSIS_DSP/FilteringFunctions/arm_conv_fast_q15.c ****       sum = __SMLADX(*__SIMD32(px)++, *__SIMD32(py)--, sum);
 1726              	 .loc 1 614 0
 1727 0e8a 07F11402 	 add r2,r7,#20
 1728 0e8e 1368     	 ldr r3,[r2]
 1729 0e90 191D     	 adds r1,r3,#4
 1730 0e92 1160     	 str r1,[r2]
 1731 0e94 1B68     	 ldr r3,[r3]
 1732 0e96 1846     	 mov r0,r3
 1733 0e98 07F11002 	 add r2,r7,#16
 1734 0e9c 1368     	 ldr r3,[r2]
 1735 0e9e 191F     	 subs r1,r3,#4
 1736 0ea0 1160     	 str r1,[r2]
 1737 0ea2 1B68     	 ldr r3,[r3]
 1738 0ea4 1946     	 mov r1,r3
 1739 0ea6 D7F87C22 	 ldr r2,[r7,#636]
 1740 0eaa 07F15803 	 add r3,r7,#88
 1741 0eae 1860     	 str r0,[r3]
 1742 0eb0 07F15403 	 add r3,r7,#84
 1743 0eb4 1960     	 str r1,[r3]
 1744 0eb6 07F15003 	 add r3,r7,#80
 1745 0eba 1A60     	 str r2,[r3]
 1746              	.LBB126:
 1747              	.LBB127:
 515:C:\Users\Depes Crystalline\Desktop\school\Active_Bike_Lighting_System\Radar_Core/Libraries/CMSIS/Include\core_cmSimd.h ****   return(result);
 1748              	 .loc 2 515 0
 1749 0ebc 07F15803 	 add r3,r7,#88
 1750 0ec0 1B68     	 ldr r3,[r3]
 1751 0ec2 07F15402 	 add r2,r7,#84
 1752 0ec6 1268     	 ldr r2,[r2]
 1753 0ec8 07F15001 	 add r1,r7,#80
 1754 0ecc 0968     	 ldr r1,[r1]
 1755              	
 1756 0ece 23FB1212 	 smladx r2,r3,r2,r1
 1757              	
 1758              	 .thumb
 1759 0ed2 07F14C03 	 add r3,r7,#76
 1760 0ed6 1A60     	 str r2,[r3]
 1761              	 .loc 2 516 0
 1762 0ed8 07F14C03 	 add r3,r7,#76
 1763 0edc 1B68     	 ldr r3,[r3]
 1764              	.LBE127:
 1765              	.LBE126:
 1766              	 .loc 1 614 0
 1767 0ede C7F87C32 	 str r3,[r7,#636]
 615:../Dave/Generated/CMSIS_DSP/FilteringFunctions/arm_conv_fast_q15.c ****       /* x[srcALen - srcBLen + 3], x[srcALen - srcBLen + 4] are multiplied   
 616:../Dave/Generated/CMSIS_DSP/FilteringFunctions/arm_conv_fast_q15.c ****        * with y[srcBLen - 3], y[srcBLen - 4] respectively */
 617:../Dave/Generated/CMSIS_DSP/FilteringFunctions/arm_conv_fast_q15.c ****       sum = __SMLADX(*__SIMD32(px)++, *__SIMD32(py)--, sum);
 1768              	 .loc 1 617 0
 1769 0ee2 07F11402 	 add r2,r7,#20
 1770 0ee6 1368     	 ldr r3,[r2]
 1771 0ee8 191D     	 adds r1,r3,#4
 1772 0eea 1160     	 str r1,[r2]
 1773 0eec 1B68     	 ldr r3,[r3]
 1774 0eee 1846     	 mov r0,r3
 1775 0ef0 07F11002 	 add r2,r7,#16
 1776 0ef4 1368     	 ldr r3,[r2]
 1777 0ef6 191F     	 subs r1,r3,#4
 1778 0ef8 1160     	 str r1,[r2]
 1779 0efa 1B68     	 ldr r3,[r3]
 1780 0efc 1946     	 mov r1,r3
 1781 0efe D7F87C22 	 ldr r2,[r7,#636]
 1782 0f02 07F14803 	 add r3,r7,#72
 1783 0f06 1860     	 str r0,[r3]
 1784 0f08 07F14403 	 add r3,r7,#68
 1785 0f0c 1960     	 str r1,[r3]
 1786 0f0e 07F14003 	 add r3,r7,#64
 1787 0f12 1A60     	 str r2,[r3]
 1788              	.LBB128:
 1789              	.LBB129:
 515:C:\Users\Depes Crystalline\Desktop\school\Active_Bike_Lighting_System\Radar_Core/Libraries/CMSIS/Include\core_cmSimd.h ****   return(result);
 1790              	 .loc 2 515 0
 1791 0f14 07F14803 	 add r3,r7,#72
 1792 0f18 1B68     	 ldr r3,[r3]
 1793 0f1a 07F14402 	 add r2,r7,#68
 1794 0f1e 1268     	 ldr r2,[r2]
 1795 0f20 07F14001 	 add r1,r7,#64
 1796 0f24 0968     	 ldr r1,[r1]
 1797              	
 1798 0f26 23FB1212 	 smladx r2,r3,r2,r1
 1799              	
 1800              	 .thumb
 1801 0f2a 07F13C03 	 add r3,r7,#60
 1802 0f2e 1A60     	 str r2,[r3]
 1803              	 .loc 2 516 0
 1804 0f30 07F13C03 	 add r3,r7,#60
 1805 0f34 1B68     	 ldr r3,[r3]
 1806              	.LBE129:
 1807              	.LBE128:
 1808              	 .loc 1 617 0
 1809 0f36 C7F87C32 	 str r3,[r7,#636]
 618:../Dave/Generated/CMSIS_DSP/FilteringFunctions/arm_conv_fast_q15.c **** 
 619:../Dave/Generated/CMSIS_DSP/FilteringFunctions/arm_conv_fast_q15.c ****       /* Decrement the loop counter */
 620:../Dave/Generated/CMSIS_DSP/FilteringFunctions/arm_conv_fast_q15.c ****       k--;
 1810              	 .loc 1 620 0
 1811 0f3a D7F85032 	 ldr r3,[r7,#592]
 1812 0f3e 013B     	 subs r3,r3,#1
 1813 0f40 C7F85032 	 str r3,[r7,#592]
 1814              	.L62:
 610:../Dave/Generated/CMSIS_DSP/FilteringFunctions/arm_conv_fast_q15.c ****     {
 1815              	 .loc 1 610 0
 1816 0f44 D7F85032 	 ldr r3,[r7,#592]
 1817 0f48 002B     	 cmp r3,#0
 1818 0f4a 9ED1     	 bne .L65
 621:../Dave/Generated/CMSIS_DSP/FilteringFunctions/arm_conv_fast_q15.c ****     }
 622:../Dave/Generated/CMSIS_DSP/FilteringFunctions/arm_conv_fast_q15.c **** 
 623:../Dave/Generated/CMSIS_DSP/FilteringFunctions/arm_conv_fast_q15.c ****     /* For the next MAC operations, the pointer py is used without SIMD   
 624:../Dave/Generated/CMSIS_DSP/FilteringFunctions/arm_conv_fast_q15.c ****      * So, py is incremented by 1 */
 625:../Dave/Generated/CMSIS_DSP/FilteringFunctions/arm_conv_fast_q15.c ****     py = py + 1u;
 1819              	 .loc 1 625 0
 1820 0f4c 07F11003 	 add r3,r7,#16
 1821 0f50 1B68     	 ldr r3,[r3]
 1822 0f52 9A1C     	 adds r2,r3,#2
 1823 0f54 07F11003 	 add r3,r7,#16
 1824 0f58 1A60     	 str r2,[r3]
 626:../Dave/Generated/CMSIS_DSP/FilteringFunctions/arm_conv_fast_q15.c **** 
 627:../Dave/Generated/CMSIS_DSP/FilteringFunctions/arm_conv_fast_q15.c ****     /* If the blockSize3 is not a multiple of 4, compute any remaining MACs here.   
 628:../Dave/Generated/CMSIS_DSP/FilteringFunctions/arm_conv_fast_q15.c ****      ** No loop unrolling is used. */
 629:../Dave/Generated/CMSIS_DSP/FilteringFunctions/arm_conv_fast_q15.c ****     k = blockSize3 % 0x4u;
 1825              	 .loc 1 629 0
 1826 0f5a D7F85832 	 ldr r3,[r7,#600]
 1827 0f5e 03F00303 	 and r3,r3,#3
 1828 0f62 C7F85032 	 str r3,[r7,#592]
 630:../Dave/Generated/CMSIS_DSP/FilteringFunctions/arm_conv_fast_q15.c **** 
 631:../Dave/Generated/CMSIS_DSP/FilteringFunctions/arm_conv_fast_q15.c ****     while(k > 0u)
 1829              	 .loc 1 631 0
 1830 0f66 34E0     	 b .L66
 1831              	.L68:
 632:../Dave/Generated/CMSIS_DSP/FilteringFunctions/arm_conv_fast_q15.c ****     {
 633:../Dave/Generated/CMSIS_DSP/FilteringFunctions/arm_conv_fast_q15.c ****       /* sum += x[srcALen - srcBLen + 5] * y[srcBLen - 5] */
 634:../Dave/Generated/CMSIS_DSP/FilteringFunctions/arm_conv_fast_q15.c ****       sum = __SMLAD(*px++, *py--, sum);
 1832              	 .loc 1 634 0
 1833 0f68 07F11403 	 add r3,r7,#20
 1834 0f6c 1B68     	 ldr r3,[r3]
 1835 0f6e 991C     	 adds r1,r3,#2
 1836 0f70 07F11402 	 add r2,r7,#20
 1837 0f74 1160     	 str r1,[r2]
 1838 0f76 1B88     	 ldrh r3,[r3]
 1839 0f78 18B2     	 sxth r0,r3
 1840 0f7a 07F11003 	 add r3,r7,#16
 1841 0f7e 1B68     	 ldr r3,[r3]
 1842 0f80 991E     	 subs r1,r3,#2
 1843 0f82 07F11002 	 add r2,r7,#16
 1844 0f86 1160     	 str r1,[r2]
 1845 0f88 1B88     	 ldrh r3,[r3]
 1846 0f8a 19B2     	 sxth r1,r3
 1847 0f8c D7F87C22 	 ldr r2,[r7,#636]
 1848 0f90 07F13803 	 add r3,r7,#56
 1849 0f94 1860     	 str r0,[r3]
 1850 0f96 07F13403 	 add r3,r7,#52
 1851 0f9a 1960     	 str r1,[r3]
 1852 0f9c 07F13003 	 add r3,r7,#48
 1853 0fa0 1A60     	 str r2,[r3]
 1854              	.LBB130:
 1855              	.LBB131:
 507:C:\Users\Depes Crystalline\Desktop\school\Active_Bike_Lighting_System\Radar_Core/Libraries/CMSIS/Include\core_cmSimd.h ****   return(result);
 1856              	 .loc 2 507 0
 1857 0fa2 07F13803 	 add r3,r7,#56
 1858 0fa6 1B68     	 ldr r3,[r3]
 1859 0fa8 07F13402 	 add r2,r7,#52
 1860 0fac 1268     	 ldr r2,[r2]
 1861 0fae 07F13001 	 add r1,r7,#48
 1862 0fb2 0968     	 ldr r1,[r1]
 1863              	
 1864 0fb4 23FB0212 	 smlad r2,r3,r2,r1
 1865              	
 1866              	 .thumb
 1867 0fb8 07F12C03 	 add r3,r7,#44
 1868 0fbc 1A60     	 str r2,[r3]
 508:C:\Users\Depes Crystalline\Desktop\school\Active_Bike_Lighting_System\Radar_Core/Libraries/CMSIS/Include\core_cmSimd.h **** }
 1869              	 .loc 2 508 0
 1870 0fbe 07F12C03 	 add r3,r7,#44
 1871 0fc2 1B68     	 ldr r3,[r3]
 1872              	.LBE131:
 1873              	.LBE130:
 1874              	 .loc 1 634 0
 1875 0fc4 C7F87C32 	 str r3,[r7,#636]
 635:../Dave/Generated/CMSIS_DSP/FilteringFunctions/arm_conv_fast_q15.c **** 
 636:../Dave/Generated/CMSIS_DSP/FilteringFunctions/arm_conv_fast_q15.c ****       /* Decrement the loop counter */
 637:../Dave/Generated/CMSIS_DSP/FilteringFunctions/arm_conv_fast_q15.c ****       k--;
 1876              	 .loc 1 637 0
 1877 0fc8 D7F85032 	 ldr r3,[r7,#592]
 1878 0fcc 013B     	 subs r3,r3,#1
 1879 0fce C7F85032 	 str r3,[r7,#592]
 1880              	.L66:
 631:../Dave/Generated/CMSIS_DSP/FilteringFunctions/arm_conv_fast_q15.c ****     {
 1881              	 .loc 1 631 0
 1882 0fd2 D7F85032 	 ldr r3,[r7,#592]
 1883 0fd6 002B     	 cmp r3,#0
 1884 0fd8 C6D1     	 bne .L68
 638:../Dave/Generated/CMSIS_DSP/FilteringFunctions/arm_conv_fast_q15.c ****     }
 639:../Dave/Generated/CMSIS_DSP/FilteringFunctions/arm_conv_fast_q15.c **** 
 640:../Dave/Generated/CMSIS_DSP/FilteringFunctions/arm_conv_fast_q15.c ****     /* Store the result in the accumulator in the destination buffer. */
 641:../Dave/Generated/CMSIS_DSP/FilteringFunctions/arm_conv_fast_q15.c ****     *pOut++ = (q15_t) (sum >> 15);
 1885              	 .loc 1 641 0
 1886 0fda 07F11803 	 add r3,r7,#24
 1887 0fde 1B68     	 ldr r3,[r3]
 1888 0fe0 991C     	 adds r1,r3,#2
 1889 0fe2 07F11802 	 add r2,r7,#24
 1890 0fe6 1160     	 str r1,[r2]
 1891 0fe8 D7F87C22 	 ldr r2,[r7,#636]
 1892 0fec D213     	 asrs r2,r2,#15
 1893 0fee 92B2     	 uxth r2,r2
 1894 0ff0 1A80     	 strh r2,[r3]
 642:../Dave/Generated/CMSIS_DSP/FilteringFunctions/arm_conv_fast_q15.c **** 
 643:../Dave/Generated/CMSIS_DSP/FilteringFunctions/arm_conv_fast_q15.c ****     /* Update the inputA and inputB pointers for next MAC calculation */
 644:../Dave/Generated/CMSIS_DSP/FilteringFunctions/arm_conv_fast_q15.c ****     px = ++pSrc1;
 1895              	 .loc 1 644 0
 1896 0ff2 D7F86832 	 ldr r3,[r7,#616]
 1897 0ff6 0233     	 adds r3,r3,#2
 1898 0ff8 C7F86832 	 str r3,[r7,#616]
 1899 0ffc 07F11403 	 add r3,r7,#20
 1900 1000 D7F86822 	 ldr r2,[r7,#616]
 1901 1004 1A60     	 str r2,[r3]
 645:../Dave/Generated/CMSIS_DSP/FilteringFunctions/arm_conv_fast_q15.c ****     py = pIn2;
 1902              	 .loc 1 645 0
 1903 1006 07F11003 	 add r3,r7,#16
 1904 100a D7F88022 	 ldr r2,[r7,#640]
 1905 100e 1A60     	 str r2,[r3]
 646:../Dave/Generated/CMSIS_DSP/FilteringFunctions/arm_conv_fast_q15.c **** 
 647:../Dave/Generated/CMSIS_DSP/FilteringFunctions/arm_conv_fast_q15.c ****     /* Decrement the loop counter */
 648:../Dave/Generated/CMSIS_DSP/FilteringFunctions/arm_conv_fast_q15.c ****     blockSize3--;
 1906              	 .loc 1 648 0
 1907 1010 D7F85832 	 ldr r3,[r7,#600]
 1908 1014 013B     	 subs r3,r3,#1
 1909 1016 C7F85832 	 str r3,[r7,#600]
 649:../Dave/Generated/CMSIS_DSP/FilteringFunctions/arm_conv_fast_q15.c **** 
 650:../Dave/Generated/CMSIS_DSP/FilteringFunctions/arm_conv_fast_q15.c ****     j--;
 1910              	 .loc 1 650 0
 1911 101a D7F85432 	 ldr r3,[r7,#596]
 1912 101e 013B     	 subs r3,r3,#1
 1913 1020 C7F85432 	 str r3,[r7,#596]
 1914              	.L61:
 600:../Dave/Generated/CMSIS_DSP/FilteringFunctions/arm_conv_fast_q15.c ****   {
 1915              	 .loc 1 600 0
 1916 1024 D7F85432 	 ldr r3,[r7,#596]
 1917 1028 002B     	 cmp r3,#0
 1918 102a 04D0     	 beq .L69
 600:../Dave/Generated/CMSIS_DSP/FilteringFunctions/arm_conv_fast_q15.c ****   {
 1919              	 .loc 1 600 0 is_stmt 0 discriminator 1
 1920 102c D7F85832 	 ldr r3,[r7,#600]
 1921 1030 002B     	 cmp r3,#0
 1922 1032 7FF421AF 	 bne .L70
 1923              	.L69:
 651:../Dave/Generated/CMSIS_DSP/FilteringFunctions/arm_conv_fast_q15.c ****   }
 652:../Dave/Generated/CMSIS_DSP/FilteringFunctions/arm_conv_fast_q15.c **** 
 653:../Dave/Generated/CMSIS_DSP/FilteringFunctions/arm_conv_fast_q15.c ****   /* The second part of the stage starts here */
 654:../Dave/Generated/CMSIS_DSP/FilteringFunctions/arm_conv_fast_q15.c ****   /* SIMD is not used for the next MAC operations,   
 655:../Dave/Generated/CMSIS_DSP/FilteringFunctions/arm_conv_fast_q15.c ****    * so pointer py is updated to read only one sample at a time */
 656:../Dave/Generated/CMSIS_DSP/FilteringFunctions/arm_conv_fast_q15.c ****   py = py + 1u;
 1924              	 .loc 1 656 0 is_stmt 1
 1925 1036 07F11003 	 add r3,r7,#16
 1926 103a 1B68     	 ldr r3,[r3]
 1927 103c 9A1C     	 adds r2,r3,#2
 1928 103e 07F11003 	 add r3,r7,#16
 1929 1042 1A60     	 str r2,[r3]
 657:../Dave/Generated/CMSIS_DSP/FilteringFunctions/arm_conv_fast_q15.c **** 
 658:../Dave/Generated/CMSIS_DSP/FilteringFunctions/arm_conv_fast_q15.c ****   while(blockSize3 > 0u)
 1930              	 .loc 1 658 0
 1931 1044 60E0     	 b .L71
 1932              	.L75:
 659:../Dave/Generated/CMSIS_DSP/FilteringFunctions/arm_conv_fast_q15.c ****   {
 660:../Dave/Generated/CMSIS_DSP/FilteringFunctions/arm_conv_fast_q15.c ****     /* Accumulator is made zero for every iteration */
 661:../Dave/Generated/CMSIS_DSP/FilteringFunctions/arm_conv_fast_q15.c ****     sum = 0;
 1933              	 .loc 1 661 0
 1934 1046 0023     	 movs r3,#0
 1935 1048 C7F87C32 	 str r3,[r7,#636]
 662:../Dave/Generated/CMSIS_DSP/FilteringFunctions/arm_conv_fast_q15.c **** 
 663:../Dave/Generated/CMSIS_DSP/FilteringFunctions/arm_conv_fast_q15.c ****     /* Apply loop unrolling and compute 4 MACs simultaneously. */
 664:../Dave/Generated/CMSIS_DSP/FilteringFunctions/arm_conv_fast_q15.c ****     k = blockSize3;
 1936              	 .loc 1 664 0
 1937 104c D7F85832 	 ldr r3,[r7,#600]
 1938 1050 C7F85032 	 str r3,[r7,#592]
 665:../Dave/Generated/CMSIS_DSP/FilteringFunctions/arm_conv_fast_q15.c **** 
 666:../Dave/Generated/CMSIS_DSP/FilteringFunctions/arm_conv_fast_q15.c ****     while(k > 0u)
 1939              	 .loc 1 666 0
 1940 1054 34E0     	 b .L72
 1941              	.L74:
 667:../Dave/Generated/CMSIS_DSP/FilteringFunctions/arm_conv_fast_q15.c ****     {
 668:../Dave/Generated/CMSIS_DSP/FilteringFunctions/arm_conv_fast_q15.c ****       /* Perform the multiply-accumulates */
 669:../Dave/Generated/CMSIS_DSP/FilteringFunctions/arm_conv_fast_q15.c ****       /* sum +=  x[srcALen-1] * y[srcBLen-1] */
 670:../Dave/Generated/CMSIS_DSP/FilteringFunctions/arm_conv_fast_q15.c ****       sum = __SMLAD(*px++, *py--, sum);
 1942              	 .loc 1 670 0
 1943 1056 07F11403 	 add r3,r7,#20
 1944 105a 1B68     	 ldr r3,[r3]
 1945 105c 991C     	 adds r1,r3,#2
 1946 105e 07F11402 	 add r2,r7,#20
 1947 1062 1160     	 str r1,[r2]
 1948 1064 1B88     	 ldrh r3,[r3]
 1949 1066 18B2     	 sxth r0,r3
 1950 1068 07F11003 	 add r3,r7,#16
 1951 106c 1B68     	 ldr r3,[r3]
 1952 106e 991E     	 subs r1,r3,#2
 1953 1070 07F11002 	 add r2,r7,#16
 1954 1074 1160     	 str r1,[r2]
 1955 1076 1B88     	 ldrh r3,[r3]
 1956 1078 19B2     	 sxth r1,r3
 1957 107a D7F87C22 	 ldr r2,[r7,#636]
 1958 107e 07F12803 	 add r3,r7,#40
 1959 1082 1860     	 str r0,[r3]
 1960 1084 07F12403 	 add r3,r7,#36
 1961 1088 1960     	 str r1,[r3]
 1962 108a 07F12003 	 add r3,r7,#32
 1963 108e 1A60     	 str r2,[r3]
 1964              	.LBB132:
 1965              	.LBB133:
 507:C:\Users\Depes Crystalline\Desktop\school\Active_Bike_Lighting_System\Radar_Core/Libraries/CMSIS/Include\core_cmSimd.h ****   return(result);
 1966              	 .loc 2 507 0
 1967 1090 07F12803 	 add r3,r7,#40
 1968 1094 1B68     	 ldr r3,[r3]
 1969 1096 07F12402 	 add r2,r7,#36
 1970 109a 1268     	 ldr r2,[r2]
 1971 109c 07F12001 	 add r1,r7,#32
 1972 10a0 0968     	 ldr r1,[r1]
 1973              	
 1974 10a2 23FB0212 	 smlad r2,r3,r2,r1
 1975              	
 1976              	 .thumb
 1977 10a6 07F11C03 	 add r3,r7,#28
 1978 10aa 1A60     	 str r2,[r3]
 508:C:\Users\Depes Crystalline\Desktop\school\Active_Bike_Lighting_System\Radar_Core/Libraries/CMSIS/Include\core_cmSimd.h **** }
 1979              	 .loc 2 508 0
 1980 10ac 07F11C03 	 add r3,r7,#28
 1981 10b0 1B68     	 ldr r3,[r3]
 1982              	.LBE133:
 1983              	.LBE132:
 1984              	 .loc 1 670 0
 1985 10b2 C7F87C32 	 str r3,[r7,#636]
 671:../Dave/Generated/CMSIS_DSP/FilteringFunctions/arm_conv_fast_q15.c **** 
 672:../Dave/Generated/CMSIS_DSP/FilteringFunctions/arm_conv_fast_q15.c ****       /* Decrement the loop counter */
 673:../Dave/Generated/CMSIS_DSP/FilteringFunctions/arm_conv_fast_q15.c ****       k--;
 1986              	 .loc 1 673 0
 1987 10b6 D7F85032 	 ldr r3,[r7,#592]
 1988 10ba 013B     	 subs r3,r3,#1
 1989 10bc C7F85032 	 str r3,[r7,#592]
 1990              	.L72:
 666:../Dave/Generated/CMSIS_DSP/FilteringFunctions/arm_conv_fast_q15.c ****     {
 1991              	 .loc 1 666 0
 1992 10c0 D7F85032 	 ldr r3,[r7,#592]
 1993 10c4 002B     	 cmp r3,#0
 1994 10c6 C6D1     	 bne .L74
 674:../Dave/Generated/CMSIS_DSP/FilteringFunctions/arm_conv_fast_q15.c ****     }
 675:../Dave/Generated/CMSIS_DSP/FilteringFunctions/arm_conv_fast_q15.c **** 
 676:../Dave/Generated/CMSIS_DSP/FilteringFunctions/arm_conv_fast_q15.c ****     /* Store the result in the accumulator in the destination buffer. */
 677:../Dave/Generated/CMSIS_DSP/FilteringFunctions/arm_conv_fast_q15.c ****     *pOut++ = (q15_t) (sum >> 15);
 1995              	 .loc 1 677 0
 1996 10c8 07F11803 	 add r3,r7,#24
 1997 10cc 1B68     	 ldr r3,[r3]
 1998 10ce 991C     	 adds r1,r3,#2
 1999 10d0 07F11802 	 add r2,r7,#24
 2000 10d4 1160     	 str r1,[r2]
 2001 10d6 D7F87C22 	 ldr r2,[r7,#636]
 2002 10da D213     	 asrs r2,r2,#15
 2003 10dc 92B2     	 uxth r2,r2
 2004 10de 1A80     	 strh r2,[r3]
 678:../Dave/Generated/CMSIS_DSP/FilteringFunctions/arm_conv_fast_q15.c **** 
 679:../Dave/Generated/CMSIS_DSP/FilteringFunctions/arm_conv_fast_q15.c ****     /* Update the inputA and inputB pointers for next MAC calculation */
 680:../Dave/Generated/CMSIS_DSP/FilteringFunctions/arm_conv_fast_q15.c ****     px = ++pSrc1;
 2005              	 .loc 1 680 0
 2006 10e0 D7F86832 	 ldr r3,[r7,#616]
 2007 10e4 0233     	 adds r3,r3,#2
 2008 10e6 C7F86832 	 str r3,[r7,#616]
 2009 10ea 07F11403 	 add r3,r7,#20
 2010 10ee D7F86822 	 ldr r2,[r7,#616]
 2011 10f2 1A60     	 str r2,[r3]
 681:../Dave/Generated/CMSIS_DSP/FilteringFunctions/arm_conv_fast_q15.c ****     py = pSrc2;
 2012              	 .loc 1 681 0
 2013 10f4 07F11003 	 add r3,r7,#16
 2014 10f8 D7F84022 	 ldr r2,[r7,#576]
 2015 10fc 1A60     	 str r2,[r3]
 682:../Dave/Generated/CMSIS_DSP/FilteringFunctions/arm_conv_fast_q15.c **** 
 683:../Dave/Generated/CMSIS_DSP/FilteringFunctions/arm_conv_fast_q15.c ****     /* Decrement the loop counter */
 684:../Dave/Generated/CMSIS_DSP/FilteringFunctions/arm_conv_fast_q15.c ****     blockSize3--;
 2016              	 .loc 1 684 0
 2017 10fe D7F85832 	 ldr r3,[r7,#600]
 2018 1102 013B     	 subs r3,r3,#1
 2019 1104 C7F85832 	 str r3,[r7,#600]
 2020              	.L71:
 658:../Dave/Generated/CMSIS_DSP/FilteringFunctions/arm_conv_fast_q15.c ****   {
 2021              	 .loc 1 658 0
 2022 1108 D7F85832 	 ldr r3,[r7,#600]
 2023 110c 002B     	 cmp r3,#0
 2024 110e 9AD1     	 bne .L75
 685:../Dave/Generated/CMSIS_DSP/FilteringFunctions/arm_conv_fast_q15.c ****   }
 686:../Dave/Generated/CMSIS_DSP/FilteringFunctions/arm_conv_fast_q15.c **** 
 687:../Dave/Generated/CMSIS_DSP/FilteringFunctions/arm_conv_fast_q15.c **** #else
 688:../Dave/Generated/CMSIS_DSP/FilteringFunctions/arm_conv_fast_q15.c ****   q15_t *pIn1;                                   /* inputA pointer */
 689:../Dave/Generated/CMSIS_DSP/FilteringFunctions/arm_conv_fast_q15.c ****   q15_t *pIn2;                                   /* inputB pointer */
 690:../Dave/Generated/CMSIS_DSP/FilteringFunctions/arm_conv_fast_q15.c ****   q15_t *pOut = pDst;                            /* output pointer */
 691:../Dave/Generated/CMSIS_DSP/FilteringFunctions/arm_conv_fast_q15.c ****   q31_t sum, acc0, acc1, acc2, acc3;             /* Accumulator */
 692:../Dave/Generated/CMSIS_DSP/FilteringFunctions/arm_conv_fast_q15.c ****   q15_t *px;                                     /* Intermediate inputA pointer  */
 693:../Dave/Generated/CMSIS_DSP/FilteringFunctions/arm_conv_fast_q15.c ****   q15_t *py;                                     /* Intermediate inputB pointer  */
 694:../Dave/Generated/CMSIS_DSP/FilteringFunctions/arm_conv_fast_q15.c ****   q15_t *pSrc1, *pSrc2;                          /* Intermediate pointers */
 695:../Dave/Generated/CMSIS_DSP/FilteringFunctions/arm_conv_fast_q15.c ****   q31_t x0, x1, x2, x3, c0;                      /* Temporary variables to hold state and coefficie
 696:../Dave/Generated/CMSIS_DSP/FilteringFunctions/arm_conv_fast_q15.c ****   uint32_t blockSize1, blockSize2, blockSize3, j, k, count, blkCnt;     /* loop counter */
 697:../Dave/Generated/CMSIS_DSP/FilteringFunctions/arm_conv_fast_q15.c ****   q15_t a, b;
 698:../Dave/Generated/CMSIS_DSP/FilteringFunctions/arm_conv_fast_q15.c **** 
 699:../Dave/Generated/CMSIS_DSP/FilteringFunctions/arm_conv_fast_q15.c ****   /* The algorithm implementation is based on the lengths of the inputs. */
 700:../Dave/Generated/CMSIS_DSP/FilteringFunctions/arm_conv_fast_q15.c ****   /* srcB is always made to slide across srcA. */
 701:../Dave/Generated/CMSIS_DSP/FilteringFunctions/arm_conv_fast_q15.c ****   /* So srcBLen is always considered as shorter or equal to srcALen */
 702:../Dave/Generated/CMSIS_DSP/FilteringFunctions/arm_conv_fast_q15.c ****   if(srcALen >= srcBLen)
 703:../Dave/Generated/CMSIS_DSP/FilteringFunctions/arm_conv_fast_q15.c ****   {
 704:../Dave/Generated/CMSIS_DSP/FilteringFunctions/arm_conv_fast_q15.c ****     /* Initialization of inputA pointer */
 705:../Dave/Generated/CMSIS_DSP/FilteringFunctions/arm_conv_fast_q15.c ****     pIn1 = pSrcA;
 706:../Dave/Generated/CMSIS_DSP/FilteringFunctions/arm_conv_fast_q15.c **** 
 707:../Dave/Generated/CMSIS_DSP/FilteringFunctions/arm_conv_fast_q15.c ****     /* Initialization of inputB pointer */
 708:../Dave/Generated/CMSIS_DSP/FilteringFunctions/arm_conv_fast_q15.c ****     pIn2 = pSrcB;
 709:../Dave/Generated/CMSIS_DSP/FilteringFunctions/arm_conv_fast_q15.c ****   }
 710:../Dave/Generated/CMSIS_DSP/FilteringFunctions/arm_conv_fast_q15.c ****   else
 711:../Dave/Generated/CMSIS_DSP/FilteringFunctions/arm_conv_fast_q15.c ****   {
 712:../Dave/Generated/CMSIS_DSP/FilteringFunctions/arm_conv_fast_q15.c ****     /* Initialization of inputA pointer */
 713:../Dave/Generated/CMSIS_DSP/FilteringFunctions/arm_conv_fast_q15.c ****     pIn1 = pSrcB;
 714:../Dave/Generated/CMSIS_DSP/FilteringFunctions/arm_conv_fast_q15.c **** 
 715:../Dave/Generated/CMSIS_DSP/FilteringFunctions/arm_conv_fast_q15.c ****     /* Initialization of inputB pointer */
 716:../Dave/Generated/CMSIS_DSP/FilteringFunctions/arm_conv_fast_q15.c ****     pIn2 = pSrcA;
 717:../Dave/Generated/CMSIS_DSP/FilteringFunctions/arm_conv_fast_q15.c **** 
 718:../Dave/Generated/CMSIS_DSP/FilteringFunctions/arm_conv_fast_q15.c ****     /* srcBLen is always considered as shorter or equal to srcALen */
 719:../Dave/Generated/CMSIS_DSP/FilteringFunctions/arm_conv_fast_q15.c ****     j = srcBLen;
 720:../Dave/Generated/CMSIS_DSP/FilteringFunctions/arm_conv_fast_q15.c ****     srcBLen = srcALen;
 721:../Dave/Generated/CMSIS_DSP/FilteringFunctions/arm_conv_fast_q15.c ****     srcALen = j;
 722:../Dave/Generated/CMSIS_DSP/FilteringFunctions/arm_conv_fast_q15.c ****   }
 723:../Dave/Generated/CMSIS_DSP/FilteringFunctions/arm_conv_fast_q15.c **** 
 724:../Dave/Generated/CMSIS_DSP/FilteringFunctions/arm_conv_fast_q15.c ****   /* conv(x,y) at n = x[n] * y[0] + x[n-1] * y[1] + x[n-2] * y[2] + ...+ x[n-N+1] * y[N -1] */
 725:../Dave/Generated/CMSIS_DSP/FilteringFunctions/arm_conv_fast_q15.c ****   /* The function is internally   
 726:../Dave/Generated/CMSIS_DSP/FilteringFunctions/arm_conv_fast_q15.c ****    * divided into three stages according to the number of multiplications that has to be   
 727:../Dave/Generated/CMSIS_DSP/FilteringFunctions/arm_conv_fast_q15.c ****    * taken place between inputA samples and inputB samples. In the first stage of the   
 728:../Dave/Generated/CMSIS_DSP/FilteringFunctions/arm_conv_fast_q15.c ****    * algorithm, the multiplications increase by one for every iteration.   
 729:../Dave/Generated/CMSIS_DSP/FilteringFunctions/arm_conv_fast_q15.c ****    * In the second stage of the algorithm, srcBLen number of multiplications are done.   
 730:../Dave/Generated/CMSIS_DSP/FilteringFunctions/arm_conv_fast_q15.c ****    * In the third stage of the algorithm, the multiplications decrease by one   
 731:../Dave/Generated/CMSIS_DSP/FilteringFunctions/arm_conv_fast_q15.c ****    * for every iteration. */
 732:../Dave/Generated/CMSIS_DSP/FilteringFunctions/arm_conv_fast_q15.c **** 
 733:../Dave/Generated/CMSIS_DSP/FilteringFunctions/arm_conv_fast_q15.c ****   /* The algorithm is implemented in three stages.   
 734:../Dave/Generated/CMSIS_DSP/FilteringFunctions/arm_conv_fast_q15.c ****      The loop counters of each stage is initiated here. */
 735:../Dave/Generated/CMSIS_DSP/FilteringFunctions/arm_conv_fast_q15.c ****   blockSize1 = srcBLen - 1u;
 736:../Dave/Generated/CMSIS_DSP/FilteringFunctions/arm_conv_fast_q15.c ****   blockSize2 = srcALen - (srcBLen - 1u);
 737:../Dave/Generated/CMSIS_DSP/FilteringFunctions/arm_conv_fast_q15.c ****   blockSize3 = blockSize1;
 738:../Dave/Generated/CMSIS_DSP/FilteringFunctions/arm_conv_fast_q15.c **** 
 739:../Dave/Generated/CMSIS_DSP/FilteringFunctions/arm_conv_fast_q15.c ****   /* --------------------------   
 740:../Dave/Generated/CMSIS_DSP/FilteringFunctions/arm_conv_fast_q15.c ****    * Initializations of stage1   
 741:../Dave/Generated/CMSIS_DSP/FilteringFunctions/arm_conv_fast_q15.c ****    * -------------------------*/
 742:../Dave/Generated/CMSIS_DSP/FilteringFunctions/arm_conv_fast_q15.c **** 
 743:../Dave/Generated/CMSIS_DSP/FilteringFunctions/arm_conv_fast_q15.c ****   /* sum = x[0] * y[0]   
 744:../Dave/Generated/CMSIS_DSP/FilteringFunctions/arm_conv_fast_q15.c ****    * sum = x[0] * y[1] + x[1] * y[0]   
 745:../Dave/Generated/CMSIS_DSP/FilteringFunctions/arm_conv_fast_q15.c ****    * ....   
 746:../Dave/Generated/CMSIS_DSP/FilteringFunctions/arm_conv_fast_q15.c ****    * sum = x[0] * y[srcBlen - 1] + x[1] * y[srcBlen - 2] +...+ x[srcBLen - 1] * y[0]   
 747:../Dave/Generated/CMSIS_DSP/FilteringFunctions/arm_conv_fast_q15.c ****    */
 748:../Dave/Generated/CMSIS_DSP/FilteringFunctions/arm_conv_fast_q15.c **** 
 749:../Dave/Generated/CMSIS_DSP/FilteringFunctions/arm_conv_fast_q15.c ****   /* In this stage the MAC operations are increased by 1 for every iteration.   
 750:../Dave/Generated/CMSIS_DSP/FilteringFunctions/arm_conv_fast_q15.c ****      The count variable holds the number of MAC operations performed */
 751:../Dave/Generated/CMSIS_DSP/FilteringFunctions/arm_conv_fast_q15.c ****   count = 1u;
 752:../Dave/Generated/CMSIS_DSP/FilteringFunctions/arm_conv_fast_q15.c **** 
 753:../Dave/Generated/CMSIS_DSP/FilteringFunctions/arm_conv_fast_q15.c ****   /* Working pointer of inputA */
 754:../Dave/Generated/CMSIS_DSP/FilteringFunctions/arm_conv_fast_q15.c ****   px = pIn1;
 755:../Dave/Generated/CMSIS_DSP/FilteringFunctions/arm_conv_fast_q15.c **** 
 756:../Dave/Generated/CMSIS_DSP/FilteringFunctions/arm_conv_fast_q15.c ****   /* Working pointer of inputB */
 757:../Dave/Generated/CMSIS_DSP/FilteringFunctions/arm_conv_fast_q15.c ****   py = pIn2;
 758:../Dave/Generated/CMSIS_DSP/FilteringFunctions/arm_conv_fast_q15.c **** 
 759:../Dave/Generated/CMSIS_DSP/FilteringFunctions/arm_conv_fast_q15.c **** 
 760:../Dave/Generated/CMSIS_DSP/FilteringFunctions/arm_conv_fast_q15.c ****   /* ------------------------   
 761:../Dave/Generated/CMSIS_DSP/FilteringFunctions/arm_conv_fast_q15.c ****    * Stage1 process   
 762:../Dave/Generated/CMSIS_DSP/FilteringFunctions/arm_conv_fast_q15.c ****    * ----------------------*/
 763:../Dave/Generated/CMSIS_DSP/FilteringFunctions/arm_conv_fast_q15.c **** 
 764:../Dave/Generated/CMSIS_DSP/FilteringFunctions/arm_conv_fast_q15.c ****   /* For loop unrolling by 4, this stage is divided into two. */
 765:../Dave/Generated/CMSIS_DSP/FilteringFunctions/arm_conv_fast_q15.c ****   /* First part of this stage computes the MAC operations less than 4 */
 766:../Dave/Generated/CMSIS_DSP/FilteringFunctions/arm_conv_fast_q15.c ****   /* Second part of this stage computes the MAC operations greater than or equal to 4 */
 767:../Dave/Generated/CMSIS_DSP/FilteringFunctions/arm_conv_fast_q15.c **** 
 768:../Dave/Generated/CMSIS_DSP/FilteringFunctions/arm_conv_fast_q15.c ****   /* The first part of the stage starts here */
 769:../Dave/Generated/CMSIS_DSP/FilteringFunctions/arm_conv_fast_q15.c ****   while((count < 4u) && (blockSize1 > 0u))
 770:../Dave/Generated/CMSIS_DSP/FilteringFunctions/arm_conv_fast_q15.c ****   {
 771:../Dave/Generated/CMSIS_DSP/FilteringFunctions/arm_conv_fast_q15.c ****     /* Accumulator is made zero for every iteration */
 772:../Dave/Generated/CMSIS_DSP/FilteringFunctions/arm_conv_fast_q15.c ****     sum = 0;
 773:../Dave/Generated/CMSIS_DSP/FilteringFunctions/arm_conv_fast_q15.c **** 
 774:../Dave/Generated/CMSIS_DSP/FilteringFunctions/arm_conv_fast_q15.c ****     /* Loop over number of MAC operations between   
 775:../Dave/Generated/CMSIS_DSP/FilteringFunctions/arm_conv_fast_q15.c ****      * inputA samples and inputB samples */
 776:../Dave/Generated/CMSIS_DSP/FilteringFunctions/arm_conv_fast_q15.c ****     k = count;
 777:../Dave/Generated/CMSIS_DSP/FilteringFunctions/arm_conv_fast_q15.c **** 
 778:../Dave/Generated/CMSIS_DSP/FilteringFunctions/arm_conv_fast_q15.c ****     while(k > 0u)
 779:../Dave/Generated/CMSIS_DSP/FilteringFunctions/arm_conv_fast_q15.c ****     {
 780:../Dave/Generated/CMSIS_DSP/FilteringFunctions/arm_conv_fast_q15.c ****       /* Perform the multiply-accumulates */
 781:../Dave/Generated/CMSIS_DSP/FilteringFunctions/arm_conv_fast_q15.c ****       sum += ((q31_t) * px++ * *py--);
 782:../Dave/Generated/CMSIS_DSP/FilteringFunctions/arm_conv_fast_q15.c **** 
 783:../Dave/Generated/CMSIS_DSP/FilteringFunctions/arm_conv_fast_q15.c ****       /* Decrement the loop counter */
 784:../Dave/Generated/CMSIS_DSP/FilteringFunctions/arm_conv_fast_q15.c ****       k--;
 785:../Dave/Generated/CMSIS_DSP/FilteringFunctions/arm_conv_fast_q15.c ****     }
 786:../Dave/Generated/CMSIS_DSP/FilteringFunctions/arm_conv_fast_q15.c **** 
 787:../Dave/Generated/CMSIS_DSP/FilteringFunctions/arm_conv_fast_q15.c ****     /* Store the result in the accumulator in the destination buffer. */
 788:../Dave/Generated/CMSIS_DSP/FilteringFunctions/arm_conv_fast_q15.c ****     *pOut++ = (q15_t) (sum >> 15);
 789:../Dave/Generated/CMSIS_DSP/FilteringFunctions/arm_conv_fast_q15.c **** 
 790:../Dave/Generated/CMSIS_DSP/FilteringFunctions/arm_conv_fast_q15.c ****     /* Update the inputA and inputB pointers for next MAC calculation */
 791:../Dave/Generated/CMSIS_DSP/FilteringFunctions/arm_conv_fast_q15.c ****     py = pIn2 + count;
 792:../Dave/Generated/CMSIS_DSP/FilteringFunctions/arm_conv_fast_q15.c ****     px = pIn1;
 793:../Dave/Generated/CMSIS_DSP/FilteringFunctions/arm_conv_fast_q15.c **** 
 794:../Dave/Generated/CMSIS_DSP/FilteringFunctions/arm_conv_fast_q15.c ****     /* Increment the MAC count */
 795:../Dave/Generated/CMSIS_DSP/FilteringFunctions/arm_conv_fast_q15.c ****     count++;
 796:../Dave/Generated/CMSIS_DSP/FilteringFunctions/arm_conv_fast_q15.c **** 
 797:../Dave/Generated/CMSIS_DSP/FilteringFunctions/arm_conv_fast_q15.c ****     /* Decrement the loop counter */
 798:../Dave/Generated/CMSIS_DSP/FilteringFunctions/arm_conv_fast_q15.c ****     blockSize1--;
 799:../Dave/Generated/CMSIS_DSP/FilteringFunctions/arm_conv_fast_q15.c ****   }
 800:../Dave/Generated/CMSIS_DSP/FilteringFunctions/arm_conv_fast_q15.c **** 
 801:../Dave/Generated/CMSIS_DSP/FilteringFunctions/arm_conv_fast_q15.c ****   /* The second part of the stage starts here */
 802:../Dave/Generated/CMSIS_DSP/FilteringFunctions/arm_conv_fast_q15.c ****   /* The internal loop, over count, is unrolled by 4 */
 803:../Dave/Generated/CMSIS_DSP/FilteringFunctions/arm_conv_fast_q15.c ****   /* To, read the last two inputB samples using SIMD:   
 804:../Dave/Generated/CMSIS_DSP/FilteringFunctions/arm_conv_fast_q15.c ****    * y[srcBLen] and y[srcBLen-1] coefficients, py is decremented by 1 */
 805:../Dave/Generated/CMSIS_DSP/FilteringFunctions/arm_conv_fast_q15.c ****   py = py - 1;
 806:../Dave/Generated/CMSIS_DSP/FilteringFunctions/arm_conv_fast_q15.c **** 
 807:../Dave/Generated/CMSIS_DSP/FilteringFunctions/arm_conv_fast_q15.c ****   while(blockSize1 > 0u)
 808:../Dave/Generated/CMSIS_DSP/FilteringFunctions/arm_conv_fast_q15.c ****   {
 809:../Dave/Generated/CMSIS_DSP/FilteringFunctions/arm_conv_fast_q15.c ****     /* Accumulator is made zero for every iteration */
 810:../Dave/Generated/CMSIS_DSP/FilteringFunctions/arm_conv_fast_q15.c ****     sum = 0;
 811:../Dave/Generated/CMSIS_DSP/FilteringFunctions/arm_conv_fast_q15.c **** 
 812:../Dave/Generated/CMSIS_DSP/FilteringFunctions/arm_conv_fast_q15.c ****     /* Apply loop unrolling and compute 4 MACs simultaneously. */
 813:../Dave/Generated/CMSIS_DSP/FilteringFunctions/arm_conv_fast_q15.c ****     k = count >> 2u;
 814:../Dave/Generated/CMSIS_DSP/FilteringFunctions/arm_conv_fast_q15.c **** 
 815:../Dave/Generated/CMSIS_DSP/FilteringFunctions/arm_conv_fast_q15.c ****     /* First part of the processing with loop unrolling.  Compute 4 MACs at a time.   
 816:../Dave/Generated/CMSIS_DSP/FilteringFunctions/arm_conv_fast_q15.c ****      ** a second loop below computes MACs for the remaining 1 to 3 samples. */
 817:../Dave/Generated/CMSIS_DSP/FilteringFunctions/arm_conv_fast_q15.c **** 	py++;
 818:../Dave/Generated/CMSIS_DSP/FilteringFunctions/arm_conv_fast_q15.c **** 
 819:../Dave/Generated/CMSIS_DSP/FilteringFunctions/arm_conv_fast_q15.c ****     while(k > 0u)
 820:../Dave/Generated/CMSIS_DSP/FilteringFunctions/arm_conv_fast_q15.c ****     {
 821:../Dave/Generated/CMSIS_DSP/FilteringFunctions/arm_conv_fast_q15.c ****       /* Perform the multiply-accumulates */
 822:../Dave/Generated/CMSIS_DSP/FilteringFunctions/arm_conv_fast_q15.c ****         sum += ((q31_t) * px++ * *py--);
 823:../Dave/Generated/CMSIS_DSP/FilteringFunctions/arm_conv_fast_q15.c ****         sum += ((q31_t) * px++ * *py--);
 824:../Dave/Generated/CMSIS_DSP/FilteringFunctions/arm_conv_fast_q15.c ****         sum += ((q31_t) * px++ * *py--);
 825:../Dave/Generated/CMSIS_DSP/FilteringFunctions/arm_conv_fast_q15.c ****         sum += ((q31_t) * px++ * *py--);
 826:../Dave/Generated/CMSIS_DSP/FilteringFunctions/arm_conv_fast_q15.c **** 
 827:../Dave/Generated/CMSIS_DSP/FilteringFunctions/arm_conv_fast_q15.c ****       /* Decrement the loop counter */
 828:../Dave/Generated/CMSIS_DSP/FilteringFunctions/arm_conv_fast_q15.c ****       k--;
 829:../Dave/Generated/CMSIS_DSP/FilteringFunctions/arm_conv_fast_q15.c ****     }
 830:../Dave/Generated/CMSIS_DSP/FilteringFunctions/arm_conv_fast_q15.c **** 
 831:../Dave/Generated/CMSIS_DSP/FilteringFunctions/arm_conv_fast_q15.c ****     /* If the count is not a multiple of 4, compute any remaining MACs here.   
 832:../Dave/Generated/CMSIS_DSP/FilteringFunctions/arm_conv_fast_q15.c ****      ** No loop unrolling is used. */
 833:../Dave/Generated/CMSIS_DSP/FilteringFunctions/arm_conv_fast_q15.c ****     k = count % 0x4u;
 834:../Dave/Generated/CMSIS_DSP/FilteringFunctions/arm_conv_fast_q15.c **** 
 835:../Dave/Generated/CMSIS_DSP/FilteringFunctions/arm_conv_fast_q15.c ****     while(k > 0u)
 836:../Dave/Generated/CMSIS_DSP/FilteringFunctions/arm_conv_fast_q15.c ****     {
 837:../Dave/Generated/CMSIS_DSP/FilteringFunctions/arm_conv_fast_q15.c ****       /* Perform the multiply-accumulates */
