   1              	 .syntax unified
   2              	 .cpu cortex-m4
   3              	 .fpu softvfp
   4              	 .eabi_attribute 20,1
   5              	 .eabi_attribute 21,1
   6              	 .eabi_attribute 23,3
   7              	 .eabi_attribute 24,1
   8              	 .eabi_attribute 25,1
   9              	 .eabi_attribute 26,1
  10              	 .eabi_attribute 30,6
  11              	 .eabi_attribute 34,1
  12              	 .eabi_attribute 18,4
  13              	 .thumb
  14              	 .file "arm_conv_partial_fast_q15.c"
  15              	 .text
  16              	.Ltext0:
  17              	 .cfi_sections .debug_frame
  18              	 .section .text.arm_conv_partial_fast_q15,"ax",%progbits
  19              	 .align 2
  20              	 .global arm_conv_partial_fast_q15
  21              	 .thumb
  22              	 .thumb_func
  24              	arm_conv_partial_fast_q15:
  25              	.LFB139:
  26              	 .file 1 "../Dave/Generated/CMSIS_DSP/FilteringFunctions/arm_conv_partial_fast_q15.c"
   1:../Dave/Generated/CMSIS_DSP/FilteringFunctions/arm_conv_partial_fast_q15.c **** /* ----------------------------------------------------------------------   
   2:../Dave/Generated/CMSIS_DSP/FilteringFunctions/arm_conv_partial_fast_q15.c **** * Copyright (C) 2010-2014 ARM Limited. All rights reserved.   
   3:../Dave/Generated/CMSIS_DSP/FilteringFunctions/arm_conv_partial_fast_q15.c **** *   
   4:../Dave/Generated/CMSIS_DSP/FilteringFunctions/arm_conv_partial_fast_q15.c **** * $Date:        12. March 2014
   5:../Dave/Generated/CMSIS_DSP/FilteringFunctions/arm_conv_partial_fast_q15.c **** * $Revision: 	V1.4.4
   6:../Dave/Generated/CMSIS_DSP/FilteringFunctions/arm_conv_partial_fast_q15.c **** *   
   7:../Dave/Generated/CMSIS_DSP/FilteringFunctions/arm_conv_partial_fast_q15.c **** * Project: 	    CMSIS DSP Library   
   8:../Dave/Generated/CMSIS_DSP/FilteringFunctions/arm_conv_partial_fast_q15.c **** * Title:		arm_conv_partial_fast_q15.c   
   9:../Dave/Generated/CMSIS_DSP/FilteringFunctions/arm_conv_partial_fast_q15.c **** *   
  10:../Dave/Generated/CMSIS_DSP/FilteringFunctions/arm_conv_partial_fast_q15.c **** * Description:	Fast Q15 Partial convolution.   
  11:../Dave/Generated/CMSIS_DSP/FilteringFunctions/arm_conv_partial_fast_q15.c **** *   
  12:../Dave/Generated/CMSIS_DSP/FilteringFunctions/arm_conv_partial_fast_q15.c **** * Target Processor: Cortex-M4/Cortex-M3
  13:../Dave/Generated/CMSIS_DSP/FilteringFunctions/arm_conv_partial_fast_q15.c **** *  
  14:../Dave/Generated/CMSIS_DSP/FilteringFunctions/arm_conv_partial_fast_q15.c **** * Redistribution and use in source and binary forms, with or without 
  15:../Dave/Generated/CMSIS_DSP/FilteringFunctions/arm_conv_partial_fast_q15.c **** * modification, are permitted provided that the following conditions
  16:../Dave/Generated/CMSIS_DSP/FilteringFunctions/arm_conv_partial_fast_q15.c **** * are met:
  17:../Dave/Generated/CMSIS_DSP/FilteringFunctions/arm_conv_partial_fast_q15.c **** *   - Redistributions of source code must retain the above copyright
  18:../Dave/Generated/CMSIS_DSP/FilteringFunctions/arm_conv_partial_fast_q15.c **** *     notice, this list of conditions and the following disclaimer.
  19:../Dave/Generated/CMSIS_DSP/FilteringFunctions/arm_conv_partial_fast_q15.c **** *   - Redistributions in binary form must reproduce the above copyright
  20:../Dave/Generated/CMSIS_DSP/FilteringFunctions/arm_conv_partial_fast_q15.c **** *     notice, this list of conditions and the following disclaimer in
  21:../Dave/Generated/CMSIS_DSP/FilteringFunctions/arm_conv_partial_fast_q15.c **** *     the documentation and/or other materials provided with the 
  22:../Dave/Generated/CMSIS_DSP/FilteringFunctions/arm_conv_partial_fast_q15.c **** *     distribution.
  23:../Dave/Generated/CMSIS_DSP/FilteringFunctions/arm_conv_partial_fast_q15.c **** *   - Neither the name of ARM LIMITED nor the names of its contributors
  24:../Dave/Generated/CMSIS_DSP/FilteringFunctions/arm_conv_partial_fast_q15.c **** *     may be used to endorse or promote products derived from this
  25:../Dave/Generated/CMSIS_DSP/FilteringFunctions/arm_conv_partial_fast_q15.c **** *     software without specific prior written permission.
  26:../Dave/Generated/CMSIS_DSP/FilteringFunctions/arm_conv_partial_fast_q15.c **** *
  27:../Dave/Generated/CMSIS_DSP/FilteringFunctions/arm_conv_partial_fast_q15.c **** * THIS SOFTWARE IS PROVIDED BY THE COPYRIGHT HOLDERS AND CONTRIBUTORS
  28:../Dave/Generated/CMSIS_DSP/FilteringFunctions/arm_conv_partial_fast_q15.c **** * "AS IS" AND ANY EXPRESS OR IMPLIED WARRANTIES, INCLUDING, BUT NOT
  29:../Dave/Generated/CMSIS_DSP/FilteringFunctions/arm_conv_partial_fast_q15.c **** * LIMITED TO, THE IMPLIED WARRANTIES OF MERCHANTABILITY AND FITNESS
  30:../Dave/Generated/CMSIS_DSP/FilteringFunctions/arm_conv_partial_fast_q15.c **** * FOR A PARTICULAR PURPOSE ARE DISCLAIMED. IN NO EVENT SHALL THE 
  31:../Dave/Generated/CMSIS_DSP/FilteringFunctions/arm_conv_partial_fast_q15.c **** * COPYRIGHT OWNER OR CONTRIBUTORS BE LIABLE FOR ANY DIRECT, INDIRECT,
  32:../Dave/Generated/CMSIS_DSP/FilteringFunctions/arm_conv_partial_fast_q15.c **** * INCIDENTAL, SPECIAL, EXEMPLARY, OR CONSEQUENTIAL DAMAGES (INCLUDING,
  33:../Dave/Generated/CMSIS_DSP/FilteringFunctions/arm_conv_partial_fast_q15.c **** * BUT NOT LIMITED TO, PROCUREMENT OF SUBSTITUTE GOODS OR SERVICES;
  34:../Dave/Generated/CMSIS_DSP/FilteringFunctions/arm_conv_partial_fast_q15.c **** * LOSS OF USE, DATA, OR PROFITS; OR BUSINESS INTERRUPTION) HOWEVER
  35:../Dave/Generated/CMSIS_DSP/FilteringFunctions/arm_conv_partial_fast_q15.c **** * CAUSED AND ON ANY THEORY OF LIABILITY, WHETHER IN CONTRACT, STRICT
  36:../Dave/Generated/CMSIS_DSP/FilteringFunctions/arm_conv_partial_fast_q15.c **** * LIABILITY, OR TORT (INCLUDING NEGLIGENCE OR OTHERWISE) ARISING IN
  37:../Dave/Generated/CMSIS_DSP/FilteringFunctions/arm_conv_partial_fast_q15.c **** * ANY WAY OUT OF THE USE OF THIS SOFTWARE, EVEN IF ADVISED OF THE
  38:../Dave/Generated/CMSIS_DSP/FilteringFunctions/arm_conv_partial_fast_q15.c **** * POSSIBILITY OF SUCH DAMAGE.  
  39:../Dave/Generated/CMSIS_DSP/FilteringFunctions/arm_conv_partial_fast_q15.c **** * -------------------------------------------------------------------- */
  40:../Dave/Generated/CMSIS_DSP/FilteringFunctions/arm_conv_partial_fast_q15.c **** 
  41:../Dave/Generated/CMSIS_DSP/FilteringFunctions/arm_conv_partial_fast_q15.c **** #include "CMSIS_DSP/cmsis_dsp.h"
  42:../Dave/Generated/CMSIS_DSP/FilteringFunctions/arm_conv_partial_fast_q15.c **** 
  43:../Dave/Generated/CMSIS_DSP/FilteringFunctions/arm_conv_partial_fast_q15.c **** /**   
  44:../Dave/Generated/CMSIS_DSP/FilteringFunctions/arm_conv_partial_fast_q15.c ****  * @ingroup groupFilters   
  45:../Dave/Generated/CMSIS_DSP/FilteringFunctions/arm_conv_partial_fast_q15.c ****  */
  46:../Dave/Generated/CMSIS_DSP/FilteringFunctions/arm_conv_partial_fast_q15.c **** 
  47:../Dave/Generated/CMSIS_DSP/FilteringFunctions/arm_conv_partial_fast_q15.c **** /**   
  48:../Dave/Generated/CMSIS_DSP/FilteringFunctions/arm_conv_partial_fast_q15.c ****  * @addtogroup PartialConv   
  49:../Dave/Generated/CMSIS_DSP/FilteringFunctions/arm_conv_partial_fast_q15.c ****  * @{   
  50:../Dave/Generated/CMSIS_DSP/FilteringFunctions/arm_conv_partial_fast_q15.c ****  */
  51:../Dave/Generated/CMSIS_DSP/FilteringFunctions/arm_conv_partial_fast_q15.c **** 
  52:../Dave/Generated/CMSIS_DSP/FilteringFunctions/arm_conv_partial_fast_q15.c **** /**   
  53:../Dave/Generated/CMSIS_DSP/FilteringFunctions/arm_conv_partial_fast_q15.c ****  * @brief Partial convolution of Q15 sequences (fast version) for Cortex-M3 and Cortex-M4.   
  54:../Dave/Generated/CMSIS_DSP/FilteringFunctions/arm_conv_partial_fast_q15.c ****  * @param[in]       *pSrcA points to the first input sequence.   
  55:../Dave/Generated/CMSIS_DSP/FilteringFunctions/arm_conv_partial_fast_q15.c ****  * @param[in]       srcALen length of the first input sequence.   
  56:../Dave/Generated/CMSIS_DSP/FilteringFunctions/arm_conv_partial_fast_q15.c ****  * @param[in]       *pSrcB points to the second input sequence.   
  57:../Dave/Generated/CMSIS_DSP/FilteringFunctions/arm_conv_partial_fast_q15.c ****  * @param[in]       srcBLen length of the second input sequence.   
  58:../Dave/Generated/CMSIS_DSP/FilteringFunctions/arm_conv_partial_fast_q15.c ****  * @param[out]      *pDst points to the location where the output result is written.   
  59:../Dave/Generated/CMSIS_DSP/FilteringFunctions/arm_conv_partial_fast_q15.c ****  * @param[in]       firstIndex is the first output sample to start with.   
  60:../Dave/Generated/CMSIS_DSP/FilteringFunctions/arm_conv_partial_fast_q15.c ****  * @param[in]       numPoints is the number of output points to be computed.   
  61:../Dave/Generated/CMSIS_DSP/FilteringFunctions/arm_conv_partial_fast_q15.c ****  * @return Returns either ARM_MATH_SUCCESS if the function completed correctly or ARM_MATH_ARGUMENT
  62:../Dave/Generated/CMSIS_DSP/FilteringFunctions/arm_conv_partial_fast_q15.c ****  *   
  63:../Dave/Generated/CMSIS_DSP/FilteringFunctions/arm_conv_partial_fast_q15.c ****  * See <code>arm_conv_partial_q15()</code> for a slower implementation of this function which uses 
  64:../Dave/Generated/CMSIS_DSP/FilteringFunctions/arm_conv_partial_fast_q15.c ****  */
  65:../Dave/Generated/CMSIS_DSP/FilteringFunctions/arm_conv_partial_fast_q15.c **** 
  66:../Dave/Generated/CMSIS_DSP/FilteringFunctions/arm_conv_partial_fast_q15.c **** 
  67:../Dave/Generated/CMSIS_DSP/FilteringFunctions/arm_conv_partial_fast_q15.c **** arm_status arm_conv_partial_fast_q15(
  68:../Dave/Generated/CMSIS_DSP/FilteringFunctions/arm_conv_partial_fast_q15.c ****   q15_t * pSrcA,
  69:../Dave/Generated/CMSIS_DSP/FilteringFunctions/arm_conv_partial_fast_q15.c ****   uint32_t srcALen,
  70:../Dave/Generated/CMSIS_DSP/FilteringFunctions/arm_conv_partial_fast_q15.c ****   q15_t * pSrcB,
  71:../Dave/Generated/CMSIS_DSP/FilteringFunctions/arm_conv_partial_fast_q15.c ****   uint32_t srcBLen,
  72:../Dave/Generated/CMSIS_DSP/FilteringFunctions/arm_conv_partial_fast_q15.c ****   q15_t * pDst,
  73:../Dave/Generated/CMSIS_DSP/FilteringFunctions/arm_conv_partial_fast_q15.c ****   uint32_t firstIndex,
  74:../Dave/Generated/CMSIS_DSP/FilteringFunctions/arm_conv_partial_fast_q15.c ****   uint32_t numPoints)
  75:../Dave/Generated/CMSIS_DSP/FilteringFunctions/arm_conv_partial_fast_q15.c **** {
  27              	 .loc 1 75 0
  28              	 .cfi_startproc
  29              	 
  30              	 
  31              	 
  32 0000 90B4     	 push {r4,r7}
  33              	.LCFI0:
  34              	 .cfi_def_cfa_offset 8
  35              	 .cfi_offset 4,-8
  36              	 .cfi_offset 7,-4
  37 0002 ADF5247D 	 sub sp,sp,#656
  38              	.LCFI1:
  39              	 .cfi_def_cfa_offset 664
  40 0006 00AF     	 add r7,sp,#0
  41              	.LCFI2:
  42              	 .cfi_def_cfa_register 7
  43 0008 07F10C04 	 add r4,r7,#12
  44 000c 2060     	 str r0,[r4]
  45 000e 07F10800 	 add r0,r7,#8
  46 0012 0160     	 str r1,[r0]
  47 0014 391D     	 adds r1,r7,#4
  48 0016 0A60     	 str r2,[r1]
  49 0018 3A46     	 mov r2,r7
  50 001a 1360     	 str r3,[r2]
  76:../Dave/Generated/CMSIS_DSP/FilteringFunctions/arm_conv_partial_fast_q15.c **** #ifndef UNALIGNED_SUPPORT_DISABLE
  77:../Dave/Generated/CMSIS_DSP/FilteringFunctions/arm_conv_partial_fast_q15.c **** 
  78:../Dave/Generated/CMSIS_DSP/FilteringFunctions/arm_conv_partial_fast_q15.c ****   q15_t *pIn1;                                   /* inputA pointer               */
  79:../Dave/Generated/CMSIS_DSP/FilteringFunctions/arm_conv_partial_fast_q15.c ****   q15_t *pIn2;                                   /* inputB pointer               */
  80:../Dave/Generated/CMSIS_DSP/FilteringFunctions/arm_conv_partial_fast_q15.c ****   q15_t *pOut = pDst;                            /* output pointer               */
  51              	 .loc 1 80 0
  52 001c 07F11803 	 add r3,r7,#24
  53 0020 D7F89822 	 ldr r2,[r7,#664]
  54 0024 1A60     	 str r2,[r3]
  81:../Dave/Generated/CMSIS_DSP/FilteringFunctions/arm_conv_partial_fast_q15.c ****   q31_t sum, acc0, acc1, acc2, acc3;             /* Accumulator                  */
  82:../Dave/Generated/CMSIS_DSP/FilteringFunctions/arm_conv_partial_fast_q15.c ****   q15_t *px;                                     /* Intermediate inputA pointer  */
  83:../Dave/Generated/CMSIS_DSP/FilteringFunctions/arm_conv_partial_fast_q15.c ****   q15_t *py;                                     /* Intermediate inputB pointer  */
  84:../Dave/Generated/CMSIS_DSP/FilteringFunctions/arm_conv_partial_fast_q15.c ****   q15_t *pSrc1, *pSrc2;                          /* Intermediate pointers        */
  85:../Dave/Generated/CMSIS_DSP/FilteringFunctions/arm_conv_partial_fast_q15.c ****   q31_t x0, x1, x2, x3, c0;
  86:../Dave/Generated/CMSIS_DSP/FilteringFunctions/arm_conv_partial_fast_q15.c ****   uint32_t j, k, count, check, blkCnt;
  87:../Dave/Generated/CMSIS_DSP/FilteringFunctions/arm_conv_partial_fast_q15.c ****   int32_t blockSize1, blockSize2, blockSize3;    /* loop counters                 */
  88:../Dave/Generated/CMSIS_DSP/FilteringFunctions/arm_conv_partial_fast_q15.c ****   arm_status status;                             /* status of Partial convolution */
  89:../Dave/Generated/CMSIS_DSP/FilteringFunctions/arm_conv_partial_fast_q15.c **** 
  90:../Dave/Generated/CMSIS_DSP/FilteringFunctions/arm_conv_partial_fast_q15.c ****   /* Check for range of output samples to be calculated */
  91:../Dave/Generated/CMSIS_DSP/FilteringFunctions/arm_conv_partial_fast_q15.c ****   if((firstIndex + numPoints) > ((srcALen + (srcBLen - 1u))))
  55              	 .loc 1 91 0
  56 0026 D7F89C22 	 ldr r2,[r7,#668]
  57 002a D7F8A032 	 ldr r3,[r7,#672]
  58 002e 1A44     	 add r2,r2,r3
  59 0030 3946     	 mov r1,r7
  60 0032 07F10803 	 add r3,r7,#8
  61 0036 0968     	 ldr r1,[r1]
  62 0038 1B68     	 ldr r3,[r3]
  63 003a 0B44     	 add r3,r3,r1
  64 003c 013B     	 subs r3,r3,#1
  65 003e 9A42     	 cmp r2,r3
  66 0040 04D9     	 bls .L2
  92:../Dave/Generated/CMSIS_DSP/FilteringFunctions/arm_conv_partial_fast_q15.c ****   {
  93:../Dave/Generated/CMSIS_DSP/FilteringFunctions/arm_conv_partial_fast_q15.c ****     /* Set status as ARM_MATH_ARGUMENT_ERROR */
  94:../Dave/Generated/CMSIS_DSP/FilteringFunctions/arm_conv_partial_fast_q15.c ****     status = ARM_MATH_ARGUMENT_ERROR;
  67              	 .loc 1 94 0
  68 0042 FF23     	 movs r3,#255
  69 0044 87F84B32 	 strb r3,[r7,#587]
  70 0048 01F0FFB8 	 b .L3
  71              	.L2:
  95:../Dave/Generated/CMSIS_DSP/FilteringFunctions/arm_conv_partial_fast_q15.c ****   }
  96:../Dave/Generated/CMSIS_DSP/FilteringFunctions/arm_conv_partial_fast_q15.c ****   else
  97:../Dave/Generated/CMSIS_DSP/FilteringFunctions/arm_conv_partial_fast_q15.c ****   {
  98:../Dave/Generated/CMSIS_DSP/FilteringFunctions/arm_conv_partial_fast_q15.c **** 
  99:../Dave/Generated/CMSIS_DSP/FilteringFunctions/arm_conv_partial_fast_q15.c ****     /* The algorithm implementation is based on the lengths of the inputs. */
 100:../Dave/Generated/CMSIS_DSP/FilteringFunctions/arm_conv_partial_fast_q15.c ****     /* srcB is always made to slide across srcA. */
 101:../Dave/Generated/CMSIS_DSP/FilteringFunctions/arm_conv_partial_fast_q15.c ****     /* So srcBLen is always considered as shorter or equal to srcALen */
 102:../Dave/Generated/CMSIS_DSP/FilteringFunctions/arm_conv_partial_fast_q15.c ****     if(srcALen >=srcBLen)
  72              	 .loc 1 102 0
  73 004c 07F10802 	 add r2,r7,#8
  74 0050 3B46     	 mov r3,r7
  75 0052 1268     	 ldr r2,[r2]
  76 0054 1B68     	 ldr r3,[r3]
  77 0056 9A42     	 cmp r2,r3
  78 0058 09D3     	 bcc .L4
 103:../Dave/Generated/CMSIS_DSP/FilteringFunctions/arm_conv_partial_fast_q15.c ****     {
 104:../Dave/Generated/CMSIS_DSP/FilteringFunctions/arm_conv_partial_fast_q15.c ****       /* Initialization of inputA pointer */
 105:../Dave/Generated/CMSIS_DSP/FilteringFunctions/arm_conv_partial_fast_q15.c ****       pIn1 = pSrcA;
  79              	 .loc 1 105 0
  80 005a 07F10C03 	 add r3,r7,#12
  81 005e 1B68     	 ldr r3,[r3]
  82 0060 C7F88C32 	 str r3,[r7,#652]
 106:../Dave/Generated/CMSIS_DSP/FilteringFunctions/arm_conv_partial_fast_q15.c **** 
 107:../Dave/Generated/CMSIS_DSP/FilteringFunctions/arm_conv_partial_fast_q15.c ****       /* Initialization of inputB pointer */
 108:../Dave/Generated/CMSIS_DSP/FilteringFunctions/arm_conv_partial_fast_q15.c ****       pIn2 = pSrcB;
  83              	 .loc 1 108 0
  84 0064 3B1D     	 adds r3,r7,#4
  85 0066 1B68     	 ldr r3,[r3]
  86 0068 C7F88832 	 str r3,[r7,#648]
  87 006c 16E0     	 b .L5
  88              	.L4:
 109:../Dave/Generated/CMSIS_DSP/FilteringFunctions/arm_conv_partial_fast_q15.c ****     }
 110:../Dave/Generated/CMSIS_DSP/FilteringFunctions/arm_conv_partial_fast_q15.c ****     else
 111:../Dave/Generated/CMSIS_DSP/FilteringFunctions/arm_conv_partial_fast_q15.c ****     {
 112:../Dave/Generated/CMSIS_DSP/FilteringFunctions/arm_conv_partial_fast_q15.c ****       /* Initialization of inputA pointer */
 113:../Dave/Generated/CMSIS_DSP/FilteringFunctions/arm_conv_partial_fast_q15.c ****       pIn1 = pSrcB;
  89              	 .loc 1 113 0
  90 006e 3B1D     	 adds r3,r7,#4
  91 0070 1B68     	 ldr r3,[r3]
  92 0072 C7F88C32 	 str r3,[r7,#652]
 114:../Dave/Generated/CMSIS_DSP/FilteringFunctions/arm_conv_partial_fast_q15.c **** 
 115:../Dave/Generated/CMSIS_DSP/FilteringFunctions/arm_conv_partial_fast_q15.c ****       /* Initialization of inputB pointer */
 116:../Dave/Generated/CMSIS_DSP/FilteringFunctions/arm_conv_partial_fast_q15.c ****       pIn2 = pSrcA;
  93              	 .loc 1 116 0
  94 0076 07F10C03 	 add r3,r7,#12
  95 007a 1B68     	 ldr r3,[r3]
  96 007c C7F88832 	 str r3,[r7,#648]
 117:../Dave/Generated/CMSIS_DSP/FilteringFunctions/arm_conv_partial_fast_q15.c **** 
 118:../Dave/Generated/CMSIS_DSP/FilteringFunctions/arm_conv_partial_fast_q15.c ****       /* srcBLen is always considered as shorter or equal to srcALen */
 119:../Dave/Generated/CMSIS_DSP/FilteringFunctions/arm_conv_partial_fast_q15.c ****       j = srcBLen;
  97              	 .loc 1 119 0
  98 0080 3B46     	 mov r3,r7
  99 0082 1B68     	 ldr r3,[r3]
 100 0084 C7F86032 	 str r3,[r7,#608]
 120:../Dave/Generated/CMSIS_DSP/FilteringFunctions/arm_conv_partial_fast_q15.c ****       srcBLen = srcALen;
 101              	 .loc 1 120 0
 102 0088 3B46     	 mov r3,r7
 103 008a 07F10802 	 add r2,r7,#8
 104 008e 1268     	 ldr r2,[r2]
 105 0090 1A60     	 str r2,[r3]
 121:../Dave/Generated/CMSIS_DSP/FilteringFunctions/arm_conv_partial_fast_q15.c ****       srcALen = j;
 106              	 .loc 1 121 0
 107 0092 07F10803 	 add r3,r7,#8
 108 0096 D7F86022 	 ldr r2,[r7,#608]
 109 009a 1A60     	 str r2,[r3]
 110              	.L5:
 122:../Dave/Generated/CMSIS_DSP/FilteringFunctions/arm_conv_partial_fast_q15.c ****     }
 123:../Dave/Generated/CMSIS_DSP/FilteringFunctions/arm_conv_partial_fast_q15.c **** 
 124:../Dave/Generated/CMSIS_DSP/FilteringFunctions/arm_conv_partial_fast_q15.c ****     /* Conditions to check which loopCounter holds   
 125:../Dave/Generated/CMSIS_DSP/FilteringFunctions/arm_conv_partial_fast_q15.c ****      * the first and last indices of the output samples to be calculated. */
 126:../Dave/Generated/CMSIS_DSP/FilteringFunctions/arm_conv_partial_fast_q15.c ****     check = firstIndex + numPoints;
 111              	 .loc 1 126 0
 112 009c D7F89C22 	 ldr r2,[r7,#668]
 113 00a0 D7F8A032 	 ldr r3,[r7,#672]
 114 00a4 1344     	 add r3,r3,r2
 115 00a6 C7F84432 	 str r3,[r7,#580]
 127:../Dave/Generated/CMSIS_DSP/FilteringFunctions/arm_conv_partial_fast_q15.c ****     blockSize3 = ((int32_t)check > (int32_t)srcALen) ? (int32_t)check - (int32_t)srcALen : 0;
 116              	 .loc 1 127 0
 117 00aa D7F84422 	 ldr r2,[r7,#580]
 118 00ae 07F10803 	 add r3,r7,#8
 119 00b2 1B68     	 ldr r3,[r3]
 120 00b4 9A42     	 cmp r2,r3
 121 00b6 06DD     	 ble .L6
 122              	 .loc 1 127 0 is_stmt 0 discriminator 1
 123 00b8 D7F84422 	 ldr r2,[r7,#580]
 124 00bc 07F10803 	 add r3,r7,#8
 125 00c0 1B68     	 ldr r3,[r3]
 126 00c2 D31A     	 subs r3,r2,r3
 127 00c4 00E0     	 b .L7
 128              	.L6:
 129              	 .loc 1 127 0 discriminator 2
 130 00c6 0023     	 movs r3,#0
 131              	.L7:
 132              	 .loc 1 127 0 discriminator 4
 133 00c8 C7F84C32 	 str r3,[r7,#588]
 128:../Dave/Generated/CMSIS_DSP/FilteringFunctions/arm_conv_partial_fast_q15.c ****     blockSize3 = ((int32_t)firstIndex > (int32_t)srcALen - 1) ? blockSize3 - (int32_t)firstIndex + 
 134              	 .loc 1 128 0 is_stmt 1 discriminator 4
 135 00cc D7F89C22 	 ldr r2,[r7,#668]
 136 00d0 07F10803 	 add r3,r7,#8
 137 00d4 1B68     	 ldr r3,[r3]
 138 00d6 013B     	 subs r3,r3,#1
 139 00d8 9A42     	 cmp r2,r3
 140 00da 09DD     	 ble .L8
 141              	 .loc 1 128 0 is_stmt 0 discriminator 1
 142 00dc D7F89C32 	 ldr r3,[r7,#668]
 143 00e0 D7F84C22 	 ldr r2,[r7,#588]
 144 00e4 D21A     	 subs r2,r2,r3
 145 00e6 07F10803 	 add r3,r7,#8
 146 00ea 1B68     	 ldr r3,[r3]
 147 00ec 1344     	 add r3,r3,r2
 148 00ee 01E0     	 b .L9
 149              	.L8:
 150              	 .loc 1 128 0 discriminator 2
 151 00f0 D7F84C32 	 ldr r3,[r7,#588]
 152              	.L9:
 153              	 .loc 1 128 0 discriminator 4
 154 00f4 C7F84C32 	 str r3,[r7,#588]
 129:../Dave/Generated/CMSIS_DSP/FilteringFunctions/arm_conv_partial_fast_q15.c ****     blockSize1 = (((int32_t) srcBLen - 1) - (int32_t) firstIndex);
 155              	 .loc 1 129 0 is_stmt 1 discriminator 4
 156 00f8 3B46     	 mov r3,r7
 157 00fa 1A68     	 ldr r2,[r3]
 158 00fc D7F89C32 	 ldr r3,[r7,#668]
 159 0100 D31A     	 subs r3,r2,r3
 160 0102 013B     	 subs r3,r3,#1
 161 0104 C7F85032 	 str r3,[r7,#592]
 130:../Dave/Generated/CMSIS_DSP/FilteringFunctions/arm_conv_partial_fast_q15.c ****     blockSize1 = (blockSize1 > 0) ? ((check > (srcBLen - 1u)) ? blockSize1 :
 131:../Dave/Generated/CMSIS_DSP/FilteringFunctions/arm_conv_partial_fast_q15.c ****                                      (int32_t) numPoints) : 0;
 162              	 .loc 1 131 0 discriminator 4
 163 0108 D7F85032 	 ldr r3,[r7,#592]
 164 010c 002B     	 cmp r3,#0
 165 010e 0CDD     	 ble .L10
 130:../Dave/Generated/CMSIS_DSP/FilteringFunctions/arm_conv_partial_fast_q15.c ****     blockSize1 = (blockSize1 > 0) ? ((check > (srcBLen - 1u)) ? blockSize1 :
 166              	 .loc 1 130 0
 167 0110 3B46     	 mov r3,r7
 168 0112 1B68     	 ldr r3,[r3]
 169 0114 5A1E     	 subs r2,r3,#1
 170 0116 D7F84432 	 ldr r3,[r7,#580]
 171 011a 9A42     	 cmp r2,r3
 172 011c 02D3     	 bcc .L11
 130:../Dave/Generated/CMSIS_DSP/FilteringFunctions/arm_conv_partial_fast_q15.c ****     blockSize1 = (blockSize1 > 0) ? ((check > (srcBLen - 1u)) ? blockSize1 :
 173              	 .loc 1 130 0 is_stmt 0 discriminator 1
 174 011e D7F8A032 	 ldr r3,[r7,#672]
 175 0122 03E0     	 b .L13
 176              	.L11:
 130:../Dave/Generated/CMSIS_DSP/FilteringFunctions/arm_conv_partial_fast_q15.c ****     blockSize1 = (blockSize1 > 0) ? ((check > (srcBLen - 1u)) ? blockSize1 :
 177              	 .loc 1 130 0 discriminator 2
 178 0124 D7F85032 	 ldr r3,[r7,#592]
 179 0128 00E0     	 b .L13
 180              	.L10:
 181              	 .loc 1 131 0 is_stmt 1 discriminator 1
 182 012a 0023     	 movs r3,#0
 183              	.L13:
 130:../Dave/Generated/CMSIS_DSP/FilteringFunctions/arm_conv_partial_fast_q15.c ****     blockSize1 = (blockSize1 > 0) ? ((check > (srcBLen - 1u)) ? blockSize1 :
 184              	 .loc 1 130 0
 185 012c C7F85032 	 str r3,[r7,#592]
 132:../Dave/Generated/CMSIS_DSP/FilteringFunctions/arm_conv_partial_fast_q15.c ****     blockSize2 = (int32_t) check - ((blockSize3 + blockSize1) +
 186              	 .loc 1 132 0
 187 0130 D7F84422 	 ldr r2,[r7,#580]
 188 0134 D7F84C12 	 ldr r1,[r7,#588]
 189 0138 D7F85032 	 ldr r3,[r7,#592]
 190 013c 1944     	 add r1,r1,r3
 133:../Dave/Generated/CMSIS_DSP/FilteringFunctions/arm_conv_partial_fast_q15.c ****                                     (int32_t) firstIndex);
 191              	 .loc 1 133 0
 192 013e D7F89C32 	 ldr r3,[r7,#668]
 132:../Dave/Generated/CMSIS_DSP/FilteringFunctions/arm_conv_partial_fast_q15.c ****     blockSize2 = (int32_t) check - ((blockSize3 + blockSize1) +
 193              	 .loc 1 132 0
 194 0142 0B44     	 add r3,r3,r1
 195 0144 D31A     	 subs r3,r2,r3
 196 0146 C7F84032 	 str r3,[r7,#576]
 134:../Dave/Generated/CMSIS_DSP/FilteringFunctions/arm_conv_partial_fast_q15.c ****     blockSize2 = (blockSize2 > 0) ? blockSize2 : 0;
 197              	 .loc 1 134 0
 198 014a D7F84032 	 ldr r3,[r7,#576]
 199 014e 23EAE373 	 bic r3,r3,r3,asr#31
 200 0152 C7F84032 	 str r3,[r7,#576]
 135:../Dave/Generated/CMSIS_DSP/FilteringFunctions/arm_conv_partial_fast_q15.c **** 
 136:../Dave/Generated/CMSIS_DSP/FilteringFunctions/arm_conv_partial_fast_q15.c ****     /* conv(x,y) at n = x[n] * y[0] + x[n-1] * y[1] + x[n-2] * y[2] + ...+ x[n-N+1] * y[N -1] */
 137:../Dave/Generated/CMSIS_DSP/FilteringFunctions/arm_conv_partial_fast_q15.c ****     /* The function is internally   
 138:../Dave/Generated/CMSIS_DSP/FilteringFunctions/arm_conv_partial_fast_q15.c ****      * divided into three stages according to the number of multiplications that has to be   
 139:../Dave/Generated/CMSIS_DSP/FilteringFunctions/arm_conv_partial_fast_q15.c ****      * taken place between inputA samples and inputB samples. In the first stage of the   
 140:../Dave/Generated/CMSIS_DSP/FilteringFunctions/arm_conv_partial_fast_q15.c ****      * algorithm, the multiplications increase by one for every iteration.   
 141:../Dave/Generated/CMSIS_DSP/FilteringFunctions/arm_conv_partial_fast_q15.c ****      * In the second stage of the algorithm, srcBLen number of multiplications are done.   
 142:../Dave/Generated/CMSIS_DSP/FilteringFunctions/arm_conv_partial_fast_q15.c ****      * In the third stage of the algorithm, the multiplications decrease by one   
 143:../Dave/Generated/CMSIS_DSP/FilteringFunctions/arm_conv_partial_fast_q15.c ****      * for every iteration. */
 144:../Dave/Generated/CMSIS_DSP/FilteringFunctions/arm_conv_partial_fast_q15.c **** 
 145:../Dave/Generated/CMSIS_DSP/FilteringFunctions/arm_conv_partial_fast_q15.c ****     /* Set the output pointer to point to the firstIndex   
 146:../Dave/Generated/CMSIS_DSP/FilteringFunctions/arm_conv_partial_fast_q15.c ****      * of the output sample to be calculated. */
 147:../Dave/Generated/CMSIS_DSP/FilteringFunctions/arm_conv_partial_fast_q15.c ****     pOut = pDst + firstIndex;
 201              	 .loc 1 147 0
 202 0156 D7F89C32 	 ldr r3,[r7,#668]
 203 015a 5B00     	 lsls r3,r3,#1
 204 015c D7F89822 	 ldr r2,[r7,#664]
 205 0160 1A44     	 add r2,r2,r3
 206 0162 07F11803 	 add r3,r7,#24
 207 0166 1A60     	 str r2,[r3]
 148:../Dave/Generated/CMSIS_DSP/FilteringFunctions/arm_conv_partial_fast_q15.c **** 
 149:../Dave/Generated/CMSIS_DSP/FilteringFunctions/arm_conv_partial_fast_q15.c ****     /* --------------------------   
 150:../Dave/Generated/CMSIS_DSP/FilteringFunctions/arm_conv_partial_fast_q15.c ****      * Initializations of stage1   
 151:../Dave/Generated/CMSIS_DSP/FilteringFunctions/arm_conv_partial_fast_q15.c ****      * -------------------------*/
 152:../Dave/Generated/CMSIS_DSP/FilteringFunctions/arm_conv_partial_fast_q15.c **** 
 153:../Dave/Generated/CMSIS_DSP/FilteringFunctions/arm_conv_partial_fast_q15.c ****     /* sum = x[0] * y[0]   
 154:../Dave/Generated/CMSIS_DSP/FilteringFunctions/arm_conv_partial_fast_q15.c ****      * sum = x[0] * y[1] + x[1] * y[0]   
 155:../Dave/Generated/CMSIS_DSP/FilteringFunctions/arm_conv_partial_fast_q15.c ****      * ....   
 156:../Dave/Generated/CMSIS_DSP/FilteringFunctions/arm_conv_partial_fast_q15.c ****      * sum = x[0] * y[srcBlen - 1] + x[1] * y[srcBlen - 2] +...+ x[srcBLen - 1] * y[0]   
 157:../Dave/Generated/CMSIS_DSP/FilteringFunctions/arm_conv_partial_fast_q15.c ****      */
 158:../Dave/Generated/CMSIS_DSP/FilteringFunctions/arm_conv_partial_fast_q15.c **** 
 159:../Dave/Generated/CMSIS_DSP/FilteringFunctions/arm_conv_partial_fast_q15.c ****     /* In this stage the MAC operations are increased by 1 for every iteration.   
 160:../Dave/Generated/CMSIS_DSP/FilteringFunctions/arm_conv_partial_fast_q15.c ****        The count variable holds the number of MAC operations performed.   
 161:../Dave/Generated/CMSIS_DSP/FilteringFunctions/arm_conv_partial_fast_q15.c ****        Since the partial convolution starts from firstIndex   
 162:../Dave/Generated/CMSIS_DSP/FilteringFunctions/arm_conv_partial_fast_q15.c ****        Number of Macs to be performed is firstIndex + 1 */
 163:../Dave/Generated/CMSIS_DSP/FilteringFunctions/arm_conv_partial_fast_q15.c ****     count = 1u + firstIndex;
 208              	 .loc 1 163 0
 209 0168 D7F89C32 	 ldr r3,[r7,#668]
 210 016c 0133     	 adds r3,r3,#1
 211 016e C7F85832 	 str r3,[r7,#600]
 164:../Dave/Generated/CMSIS_DSP/FilteringFunctions/arm_conv_partial_fast_q15.c **** 
 165:../Dave/Generated/CMSIS_DSP/FilteringFunctions/arm_conv_partial_fast_q15.c ****     /* Working pointer of inputA */
 166:../Dave/Generated/CMSIS_DSP/FilteringFunctions/arm_conv_partial_fast_q15.c ****     px = pIn1;
 212              	 .loc 1 166 0
 213 0172 07F11403 	 add r3,r7,#20
 214 0176 D7F88C22 	 ldr r2,[r7,#652]
 215 017a 1A60     	 str r2,[r3]
 167:../Dave/Generated/CMSIS_DSP/FilteringFunctions/arm_conv_partial_fast_q15.c **** 
 168:../Dave/Generated/CMSIS_DSP/FilteringFunctions/arm_conv_partial_fast_q15.c ****     /* Working pointer of inputB */
 169:../Dave/Generated/CMSIS_DSP/FilteringFunctions/arm_conv_partial_fast_q15.c ****     pSrc2 = pIn2 + firstIndex;
 216              	 .loc 1 169 0
 217 017c D7F89C32 	 ldr r3,[r7,#668]
 218 0180 5B00     	 lsls r3,r3,#1
 219 0182 D7F88822 	 ldr r2,[r7,#648]
 220 0186 1344     	 add r3,r3,r2
 221 0188 C7F86C32 	 str r3,[r7,#620]
 170:../Dave/Generated/CMSIS_DSP/FilteringFunctions/arm_conv_partial_fast_q15.c ****     py = pSrc2;
 222              	 .loc 1 170 0
 223 018c 07F11003 	 add r3,r7,#16
 224 0190 D7F86C22 	 ldr r2,[r7,#620]
 225 0194 1A60     	 str r2,[r3]
 171:../Dave/Generated/CMSIS_DSP/FilteringFunctions/arm_conv_partial_fast_q15.c **** 
 172:../Dave/Generated/CMSIS_DSP/FilteringFunctions/arm_conv_partial_fast_q15.c ****     /* ------------------------   
 173:../Dave/Generated/CMSIS_DSP/FilteringFunctions/arm_conv_partial_fast_q15.c ****      * Stage1 process   
 174:../Dave/Generated/CMSIS_DSP/FilteringFunctions/arm_conv_partial_fast_q15.c ****      * ----------------------*/
 175:../Dave/Generated/CMSIS_DSP/FilteringFunctions/arm_conv_partial_fast_q15.c **** 
 176:../Dave/Generated/CMSIS_DSP/FilteringFunctions/arm_conv_partial_fast_q15.c ****     /* For loop unrolling by 4, this stage is divided into two. */
 177:../Dave/Generated/CMSIS_DSP/FilteringFunctions/arm_conv_partial_fast_q15.c ****     /* First part of this stage computes the MAC operations less than 4 */
 178:../Dave/Generated/CMSIS_DSP/FilteringFunctions/arm_conv_partial_fast_q15.c ****     /* Second part of this stage computes the MAC operations greater than or equal to 4 */
 179:../Dave/Generated/CMSIS_DSP/FilteringFunctions/arm_conv_partial_fast_q15.c **** 
 180:../Dave/Generated/CMSIS_DSP/FilteringFunctions/arm_conv_partial_fast_q15.c ****     /* The first part of the stage starts here */
 181:../Dave/Generated/CMSIS_DSP/FilteringFunctions/arm_conv_partial_fast_q15.c ****     while((count < 4u) && (blockSize1 > 0))
 226              	 .loc 1 181 0
 227 0196 5DE0     	 b .L14
 228              	.L19:
 182:../Dave/Generated/CMSIS_DSP/FilteringFunctions/arm_conv_partial_fast_q15.c ****     {
 183:../Dave/Generated/CMSIS_DSP/FilteringFunctions/arm_conv_partial_fast_q15.c ****       /* Accumulator is made zero for every iteration */
 184:../Dave/Generated/CMSIS_DSP/FilteringFunctions/arm_conv_partial_fast_q15.c ****       sum = 0;
 229              	 .loc 1 184 0
 230 0198 0023     	 movs r3,#0
 231 019a C7F88432 	 str r3,[r7,#644]
 185:../Dave/Generated/CMSIS_DSP/FilteringFunctions/arm_conv_partial_fast_q15.c **** 
 186:../Dave/Generated/CMSIS_DSP/FilteringFunctions/arm_conv_partial_fast_q15.c ****       /* Loop over number of MAC operations between   
 187:../Dave/Generated/CMSIS_DSP/FilteringFunctions/arm_conv_partial_fast_q15.c ****        * inputA samples and inputB samples */
 188:../Dave/Generated/CMSIS_DSP/FilteringFunctions/arm_conv_partial_fast_q15.c ****       k = count;
 232              	 .loc 1 188 0
 233 019e D7F85832 	 ldr r3,[r7,#600]
 234 01a2 C7F85C32 	 str r3,[r7,#604]
 189:../Dave/Generated/CMSIS_DSP/FilteringFunctions/arm_conv_partial_fast_q15.c **** 
 190:../Dave/Generated/CMSIS_DSP/FilteringFunctions/arm_conv_partial_fast_q15.c ****       while(k > 0u)
 235              	 .loc 1 190 0
 236 01a6 2CE0     	 b .L15
 237              	.L17:
 191:../Dave/Generated/CMSIS_DSP/FilteringFunctions/arm_conv_partial_fast_q15.c ****       {
 192:../Dave/Generated/CMSIS_DSP/FilteringFunctions/arm_conv_partial_fast_q15.c ****         /* Perform the multiply-accumulates */
 193:../Dave/Generated/CMSIS_DSP/FilteringFunctions/arm_conv_partial_fast_q15.c ****         sum = __SMLAD(*px++, *py--, sum);
 238              	 .loc 1 193 0
 239 01a8 07F11403 	 add r3,r7,#20
 240 01ac 1B68     	 ldr r3,[r3]
 241 01ae 991C     	 adds r1,r3,#2
 242 01b0 07F11402 	 add r2,r7,#20
 243 01b4 1160     	 str r1,[r2]
 244 01b6 1B88     	 ldrh r3,[r3]
 245 01b8 19B2     	 sxth r1,r3
 246 01ba 07F11003 	 add r3,r7,#16
 247 01be 1B68     	 ldr r3,[r3]
 248 01c0 981E     	 subs r0,r3,#2
 249 01c2 07F11002 	 add r2,r7,#16
 250 01c6 1060     	 str r0,[r2]
 251 01c8 1B88     	 ldrh r3,[r3]
 252 01ca 1AB2     	 sxth r2,r3
 253 01cc D7F88432 	 ldr r3,[r7,#644]
 254 01d0 C7F81812 	 str r1,[r7,#536]
 255 01d4 C7F81422 	 str r2,[r7,#532]
 256 01d8 C7F81032 	 str r3,[r7,#528]
 257              	.LBB68:
 258              	.LBB69:
 259              	 .file 2 "C:\\Users\\Depes Crystalline\\Desktop\\school\\Active_Bike_Lighting_System\\Radar_Core/Libraries/CMSIS/Include/core_cmSimd.h"
   1:C:\Users\Depes Crystalline\Desktop\school\Active_Bike_Lighting_System\Radar_Core/Libraries/CMSIS/Include\core_cmSimd.h **** /**************************************************************************//**
   2:C:\Users\Depes Crystalline\Desktop\school\Active_Bike_Lighting_System\Radar_Core/Libraries/CMSIS/Include\core_cmSimd.h ****  * @file     core_cmSimd.h
   3:C:\Users\Depes Crystalline\Desktop\school\Active_Bike_Lighting_System\Radar_Core/Libraries/CMSIS/Include\core_cmSimd.h ****  * @brief    CMSIS Cortex-M SIMD Header File
   4:C:\Users\Depes Crystalline\Desktop\school\Active_Bike_Lighting_System\Radar_Core/Libraries/CMSIS/Include\core_cmSimd.h ****  * @version  V4.00
   5:C:\Users\Depes Crystalline\Desktop\school\Active_Bike_Lighting_System\Radar_Core/Libraries/CMSIS/Include\core_cmSimd.h ****  * @date     22. August 2014
   6:C:\Users\Depes Crystalline\Desktop\school\Active_Bike_Lighting_System\Radar_Core/Libraries/CMSIS/Include\core_cmSimd.h ****  *
   7:C:\Users\Depes Crystalline\Desktop\school\Active_Bike_Lighting_System\Radar_Core/Libraries/CMSIS/Include\core_cmSimd.h ****  * @note
   8:C:\Users\Depes Crystalline\Desktop\school\Active_Bike_Lighting_System\Radar_Core/Libraries/CMSIS/Include\core_cmSimd.h ****  *
   9:C:\Users\Depes Crystalline\Desktop\school\Active_Bike_Lighting_System\Radar_Core/Libraries/CMSIS/Include\core_cmSimd.h ****  ******************************************************************************/
  10:C:\Users\Depes Crystalline\Desktop\school\Active_Bike_Lighting_System\Radar_Core/Libraries/CMSIS/Include\core_cmSimd.h **** /* Copyright (c) 2009 - 2014 ARM LIMITED
  11:C:\Users\Depes Crystalline\Desktop\school\Active_Bike_Lighting_System\Radar_Core/Libraries/CMSIS/Include\core_cmSimd.h **** 
  12:C:\Users\Depes Crystalline\Desktop\school\Active_Bike_Lighting_System\Radar_Core/Libraries/CMSIS/Include\core_cmSimd.h ****    All rights reserved.
  13:C:\Users\Depes Crystalline\Desktop\school\Active_Bike_Lighting_System\Radar_Core/Libraries/CMSIS/Include\core_cmSimd.h ****    Redistribution and use in source and binary forms, with or without
  14:C:\Users\Depes Crystalline\Desktop\school\Active_Bike_Lighting_System\Radar_Core/Libraries/CMSIS/Include\core_cmSimd.h ****    modification, are permitted provided that the following conditions are met:
  15:C:\Users\Depes Crystalline\Desktop\school\Active_Bike_Lighting_System\Radar_Core/Libraries/CMSIS/Include\core_cmSimd.h ****    - Redistributions of source code must retain the above copyright
  16:C:\Users\Depes Crystalline\Desktop\school\Active_Bike_Lighting_System\Radar_Core/Libraries/CMSIS/Include\core_cmSimd.h ****      notice, this list of conditions and the following disclaimer.
  17:C:\Users\Depes Crystalline\Desktop\school\Active_Bike_Lighting_System\Radar_Core/Libraries/CMSIS/Include\core_cmSimd.h ****    - Redistributions in binary form must reproduce the above copyright
  18:C:\Users\Depes Crystalline\Desktop\school\Active_Bike_Lighting_System\Radar_Core/Libraries/CMSIS/Include\core_cmSimd.h ****      notice, this list of conditions and the following disclaimer in the
  19:C:\Users\Depes Crystalline\Desktop\school\Active_Bike_Lighting_System\Radar_Core/Libraries/CMSIS/Include\core_cmSimd.h ****      documentation and/or other materials provided with the distribution.
  20:C:\Users\Depes Crystalline\Desktop\school\Active_Bike_Lighting_System\Radar_Core/Libraries/CMSIS/Include\core_cmSimd.h ****    - Neither the name of ARM nor the names of its contributors may be used
  21:C:\Users\Depes Crystalline\Desktop\school\Active_Bike_Lighting_System\Radar_Core/Libraries/CMSIS/Include\core_cmSimd.h ****      to endorse or promote products derived from this software without
  22:C:\Users\Depes Crystalline\Desktop\school\Active_Bike_Lighting_System\Radar_Core/Libraries/CMSIS/Include\core_cmSimd.h ****      specific prior written permission.
  23:C:\Users\Depes Crystalline\Desktop\school\Active_Bike_Lighting_System\Radar_Core/Libraries/CMSIS/Include\core_cmSimd.h ****    *
  24:C:\Users\Depes Crystalline\Desktop\school\Active_Bike_Lighting_System\Radar_Core/Libraries/CMSIS/Include\core_cmSimd.h ****    THIS SOFTWARE IS PROVIDED BY THE COPYRIGHT HOLDERS AND CONTRIBUTORS "AS IS"
  25:C:\Users\Depes Crystalline\Desktop\school\Active_Bike_Lighting_System\Radar_Core/Libraries/CMSIS/Include\core_cmSimd.h ****    AND ANY EXPRESS OR IMPLIED WARRANTIES, INCLUDING, BUT NOT LIMITED TO, THE
  26:C:\Users\Depes Crystalline\Desktop\school\Active_Bike_Lighting_System\Radar_Core/Libraries/CMSIS/Include\core_cmSimd.h ****    IMPLIED WARRANTIES OF MERCHANTABILITY AND FITNESS FOR A PARTICULAR PURPOSE
  27:C:\Users\Depes Crystalline\Desktop\school\Active_Bike_Lighting_System\Radar_Core/Libraries/CMSIS/Include\core_cmSimd.h ****    ARE DISCLAIMED. IN NO EVENT SHALL COPYRIGHT HOLDERS AND CONTRIBUTORS BE
  28:C:\Users\Depes Crystalline\Desktop\school\Active_Bike_Lighting_System\Radar_Core/Libraries/CMSIS/Include\core_cmSimd.h ****    LIABLE FOR ANY DIRECT, INDIRECT, INCIDENTAL, SPECIAL, EXEMPLARY, OR
  29:C:\Users\Depes Crystalline\Desktop\school\Active_Bike_Lighting_System\Radar_Core/Libraries/CMSIS/Include\core_cmSimd.h ****    CONSEQUENTIAL DAMAGES (INCLUDING, BUT NOT LIMITED TO, PROCUREMENT OF
  30:C:\Users\Depes Crystalline\Desktop\school\Active_Bike_Lighting_System\Radar_Core/Libraries/CMSIS/Include\core_cmSimd.h ****    SUBSTITUTE GOODS OR SERVICES; LOSS OF USE, DATA, OR PROFITS; OR BUSINESS
  31:C:\Users\Depes Crystalline\Desktop\school\Active_Bike_Lighting_System\Radar_Core/Libraries/CMSIS/Include\core_cmSimd.h ****    INTERRUPTION) HOWEVER CAUSED AND ON ANY THEORY OF LIABILITY, WHETHER IN
  32:C:\Users\Depes Crystalline\Desktop\school\Active_Bike_Lighting_System\Radar_Core/Libraries/CMSIS/Include\core_cmSimd.h ****    CONTRACT, STRICT LIABILITY, OR TORT (INCLUDING NEGLIGENCE OR OTHERWISE)
  33:C:\Users\Depes Crystalline\Desktop\school\Active_Bike_Lighting_System\Radar_Core/Libraries/CMSIS/Include\core_cmSimd.h ****    ARISING IN ANY WAY OUT OF THE USE OF THIS SOFTWARE, EVEN IF ADVISED OF THE
  34:C:\Users\Depes Crystalline\Desktop\school\Active_Bike_Lighting_System\Radar_Core/Libraries/CMSIS/Include\core_cmSimd.h ****    POSSIBILITY OF SUCH DAMAGE.
  35:C:\Users\Depes Crystalline\Desktop\school\Active_Bike_Lighting_System\Radar_Core/Libraries/CMSIS/Include\core_cmSimd.h ****    ---------------------------------------------------------------------------*/
  36:C:\Users\Depes Crystalline\Desktop\school\Active_Bike_Lighting_System\Radar_Core/Libraries/CMSIS/Include\core_cmSimd.h **** 
  37:C:\Users\Depes Crystalline\Desktop\school\Active_Bike_Lighting_System\Radar_Core/Libraries/CMSIS/Include\core_cmSimd.h **** 
  38:C:\Users\Depes Crystalline\Desktop\school\Active_Bike_Lighting_System\Radar_Core/Libraries/CMSIS/Include\core_cmSimd.h **** #if defined ( __ICCARM__ )
  39:C:\Users\Depes Crystalline\Desktop\school\Active_Bike_Lighting_System\Radar_Core/Libraries/CMSIS/Include\core_cmSimd.h ****  #pragma system_include  /* treat file as system include file for MISRA check */
  40:C:\Users\Depes Crystalline\Desktop\school\Active_Bike_Lighting_System\Radar_Core/Libraries/CMSIS/Include\core_cmSimd.h **** #endif
  41:C:\Users\Depes Crystalline\Desktop\school\Active_Bike_Lighting_System\Radar_Core/Libraries/CMSIS/Include\core_cmSimd.h **** 
  42:C:\Users\Depes Crystalline\Desktop\school\Active_Bike_Lighting_System\Radar_Core/Libraries/CMSIS/Include\core_cmSimd.h **** #ifndef __CORE_CMSIMD_H
  43:C:\Users\Depes Crystalline\Desktop\school\Active_Bike_Lighting_System\Radar_Core/Libraries/CMSIS/Include\core_cmSimd.h **** #define __CORE_CMSIMD_H
  44:C:\Users\Depes Crystalline\Desktop\school\Active_Bike_Lighting_System\Radar_Core/Libraries/CMSIS/Include\core_cmSimd.h **** 
  45:C:\Users\Depes Crystalline\Desktop\school\Active_Bike_Lighting_System\Radar_Core/Libraries/CMSIS/Include\core_cmSimd.h **** #ifdef __cplusplus
  46:C:\Users\Depes Crystalline\Desktop\school\Active_Bike_Lighting_System\Radar_Core/Libraries/CMSIS/Include\core_cmSimd.h ****  extern "C" {
  47:C:\Users\Depes Crystalline\Desktop\school\Active_Bike_Lighting_System\Radar_Core/Libraries/CMSIS/Include\core_cmSimd.h **** #endif
  48:C:\Users\Depes Crystalline\Desktop\school\Active_Bike_Lighting_System\Radar_Core/Libraries/CMSIS/Include\core_cmSimd.h **** 
  49:C:\Users\Depes Crystalline\Desktop\school\Active_Bike_Lighting_System\Radar_Core/Libraries/CMSIS/Include\core_cmSimd.h **** 
  50:C:\Users\Depes Crystalline\Desktop\school\Active_Bike_Lighting_System\Radar_Core/Libraries/CMSIS/Include\core_cmSimd.h **** /*******************************************************************************
  51:C:\Users\Depes Crystalline\Desktop\school\Active_Bike_Lighting_System\Radar_Core/Libraries/CMSIS/Include\core_cmSimd.h ****  *                Hardware Abstraction Layer
  52:C:\Users\Depes Crystalline\Desktop\school\Active_Bike_Lighting_System\Radar_Core/Libraries/CMSIS/Include\core_cmSimd.h ****  ******************************************************************************/
  53:C:\Users\Depes Crystalline\Desktop\school\Active_Bike_Lighting_System\Radar_Core/Libraries/CMSIS/Include\core_cmSimd.h **** 
  54:C:\Users\Depes Crystalline\Desktop\school\Active_Bike_Lighting_System\Radar_Core/Libraries/CMSIS/Include\core_cmSimd.h **** 
  55:C:\Users\Depes Crystalline\Desktop\school\Active_Bike_Lighting_System\Radar_Core/Libraries/CMSIS/Include\core_cmSimd.h **** /* ###################  Compiler specific Intrinsics  ########################### */
  56:C:\Users\Depes Crystalline\Desktop\school\Active_Bike_Lighting_System\Radar_Core/Libraries/CMSIS/Include\core_cmSimd.h **** /** \defgroup CMSIS_SIMD_intrinsics CMSIS SIMD Intrinsics
  57:C:\Users\Depes Crystalline\Desktop\school\Active_Bike_Lighting_System\Radar_Core/Libraries/CMSIS/Include\core_cmSimd.h ****   Access to dedicated SIMD instructions
  58:C:\Users\Depes Crystalline\Desktop\school\Active_Bike_Lighting_System\Radar_Core/Libraries/CMSIS/Include\core_cmSimd.h ****   @{
  59:C:\Users\Depes Crystalline\Desktop\school\Active_Bike_Lighting_System\Radar_Core/Libraries/CMSIS/Include\core_cmSimd.h **** */
  60:C:\Users\Depes Crystalline\Desktop\school\Active_Bike_Lighting_System\Radar_Core/Libraries/CMSIS/Include\core_cmSimd.h **** 
  61:C:\Users\Depes Crystalline\Desktop\school\Active_Bike_Lighting_System\Radar_Core/Libraries/CMSIS/Include\core_cmSimd.h **** #if   defined ( __CC_ARM ) /*------------------RealView Compiler -----------------*/
  62:C:\Users\Depes Crystalline\Desktop\school\Active_Bike_Lighting_System\Radar_Core/Libraries/CMSIS/Include\core_cmSimd.h **** /* ARM armcc specific functions */
  63:C:\Users\Depes Crystalline\Desktop\school\Active_Bike_Lighting_System\Radar_Core/Libraries/CMSIS/Include\core_cmSimd.h **** #define __SADD8                           __sadd8
  64:C:\Users\Depes Crystalline\Desktop\school\Active_Bike_Lighting_System\Radar_Core/Libraries/CMSIS/Include\core_cmSimd.h **** #define __QADD8                           __qadd8
  65:C:\Users\Depes Crystalline\Desktop\school\Active_Bike_Lighting_System\Radar_Core/Libraries/CMSIS/Include\core_cmSimd.h **** #define __SHADD8                          __shadd8
  66:C:\Users\Depes Crystalline\Desktop\school\Active_Bike_Lighting_System\Radar_Core/Libraries/CMSIS/Include\core_cmSimd.h **** #define __UADD8                           __uadd8
  67:C:\Users\Depes Crystalline\Desktop\school\Active_Bike_Lighting_System\Radar_Core/Libraries/CMSIS/Include\core_cmSimd.h **** #define __UQADD8                          __uqadd8
  68:C:\Users\Depes Crystalline\Desktop\school\Active_Bike_Lighting_System\Radar_Core/Libraries/CMSIS/Include\core_cmSimd.h **** #define __UHADD8                          __uhadd8
  69:C:\Users\Depes Crystalline\Desktop\school\Active_Bike_Lighting_System\Radar_Core/Libraries/CMSIS/Include\core_cmSimd.h **** #define __SSUB8                           __ssub8
  70:C:\Users\Depes Crystalline\Desktop\school\Active_Bike_Lighting_System\Radar_Core/Libraries/CMSIS/Include\core_cmSimd.h **** #define __QSUB8                           __qsub8
  71:C:\Users\Depes Crystalline\Desktop\school\Active_Bike_Lighting_System\Radar_Core/Libraries/CMSIS/Include\core_cmSimd.h **** #define __SHSUB8                          __shsub8
  72:C:\Users\Depes Crystalline\Desktop\school\Active_Bike_Lighting_System\Radar_Core/Libraries/CMSIS/Include\core_cmSimd.h **** #define __USUB8                           __usub8
  73:C:\Users\Depes Crystalline\Desktop\school\Active_Bike_Lighting_System\Radar_Core/Libraries/CMSIS/Include\core_cmSimd.h **** #define __UQSUB8                          __uqsub8
  74:C:\Users\Depes Crystalline\Desktop\school\Active_Bike_Lighting_System\Radar_Core/Libraries/CMSIS/Include\core_cmSimd.h **** #define __UHSUB8                          __uhsub8
  75:C:\Users\Depes Crystalline\Desktop\school\Active_Bike_Lighting_System\Radar_Core/Libraries/CMSIS/Include\core_cmSimd.h **** #define __SADD16                          __sadd16
  76:C:\Users\Depes Crystalline\Desktop\school\Active_Bike_Lighting_System\Radar_Core/Libraries/CMSIS/Include\core_cmSimd.h **** #define __QADD16                          __qadd16
  77:C:\Users\Depes Crystalline\Desktop\school\Active_Bike_Lighting_System\Radar_Core/Libraries/CMSIS/Include\core_cmSimd.h **** #define __SHADD16                         __shadd16
  78:C:\Users\Depes Crystalline\Desktop\school\Active_Bike_Lighting_System\Radar_Core/Libraries/CMSIS/Include\core_cmSimd.h **** #define __UADD16                          __uadd16
  79:C:\Users\Depes Crystalline\Desktop\school\Active_Bike_Lighting_System\Radar_Core/Libraries/CMSIS/Include\core_cmSimd.h **** #define __UQADD16                         __uqadd16
  80:C:\Users\Depes Crystalline\Desktop\school\Active_Bike_Lighting_System\Radar_Core/Libraries/CMSIS/Include\core_cmSimd.h **** #define __UHADD16                         __uhadd16
  81:C:\Users\Depes Crystalline\Desktop\school\Active_Bike_Lighting_System\Radar_Core/Libraries/CMSIS/Include\core_cmSimd.h **** #define __SSUB16                          __ssub16
  82:C:\Users\Depes Crystalline\Desktop\school\Active_Bike_Lighting_System\Radar_Core/Libraries/CMSIS/Include\core_cmSimd.h **** #define __QSUB16                          __qsub16
  83:C:\Users\Depes Crystalline\Desktop\school\Active_Bike_Lighting_System\Radar_Core/Libraries/CMSIS/Include\core_cmSimd.h **** #define __SHSUB16                         __shsub16
  84:C:\Users\Depes Crystalline\Desktop\school\Active_Bike_Lighting_System\Radar_Core/Libraries/CMSIS/Include\core_cmSimd.h **** #define __USUB16                          __usub16
  85:C:\Users\Depes Crystalline\Desktop\school\Active_Bike_Lighting_System\Radar_Core/Libraries/CMSIS/Include\core_cmSimd.h **** #define __UQSUB16                         __uqsub16
  86:C:\Users\Depes Crystalline\Desktop\school\Active_Bike_Lighting_System\Radar_Core/Libraries/CMSIS/Include\core_cmSimd.h **** #define __UHSUB16                         __uhsub16
  87:C:\Users\Depes Crystalline\Desktop\school\Active_Bike_Lighting_System\Radar_Core/Libraries/CMSIS/Include\core_cmSimd.h **** #define __SASX                            __sasx
  88:C:\Users\Depes Crystalline\Desktop\school\Active_Bike_Lighting_System\Radar_Core/Libraries/CMSIS/Include\core_cmSimd.h **** #define __QASX                            __qasx
  89:C:\Users\Depes Crystalline\Desktop\school\Active_Bike_Lighting_System\Radar_Core/Libraries/CMSIS/Include\core_cmSimd.h **** #define __SHASX                           __shasx
  90:C:\Users\Depes Crystalline\Desktop\school\Active_Bike_Lighting_System\Radar_Core/Libraries/CMSIS/Include\core_cmSimd.h **** #define __UASX                            __uasx
  91:C:\Users\Depes Crystalline\Desktop\school\Active_Bike_Lighting_System\Radar_Core/Libraries/CMSIS/Include\core_cmSimd.h **** #define __UQASX                           __uqasx
  92:C:\Users\Depes Crystalline\Desktop\school\Active_Bike_Lighting_System\Radar_Core/Libraries/CMSIS/Include\core_cmSimd.h **** #define __UHASX                           __uhasx
  93:C:\Users\Depes Crystalline\Desktop\school\Active_Bike_Lighting_System\Radar_Core/Libraries/CMSIS/Include\core_cmSimd.h **** #define __SSAX                            __ssax
  94:C:\Users\Depes Crystalline\Desktop\school\Active_Bike_Lighting_System\Radar_Core/Libraries/CMSIS/Include\core_cmSimd.h **** #define __QSAX                            __qsax
  95:C:\Users\Depes Crystalline\Desktop\school\Active_Bike_Lighting_System\Radar_Core/Libraries/CMSIS/Include\core_cmSimd.h **** #define __SHSAX                           __shsax
  96:C:\Users\Depes Crystalline\Desktop\school\Active_Bike_Lighting_System\Radar_Core/Libraries/CMSIS/Include\core_cmSimd.h **** #define __USAX                            __usax
  97:C:\Users\Depes Crystalline\Desktop\school\Active_Bike_Lighting_System\Radar_Core/Libraries/CMSIS/Include\core_cmSimd.h **** #define __UQSAX                           __uqsax
  98:C:\Users\Depes Crystalline\Desktop\school\Active_Bike_Lighting_System\Radar_Core/Libraries/CMSIS/Include\core_cmSimd.h **** #define __UHSAX                           __uhsax
  99:C:\Users\Depes Crystalline\Desktop\school\Active_Bike_Lighting_System\Radar_Core/Libraries/CMSIS/Include\core_cmSimd.h **** #define __USAD8                           __usad8
 100:C:\Users\Depes Crystalline\Desktop\school\Active_Bike_Lighting_System\Radar_Core/Libraries/CMSIS/Include\core_cmSimd.h **** #define __USADA8                          __usada8
 101:C:\Users\Depes Crystalline\Desktop\school\Active_Bike_Lighting_System\Radar_Core/Libraries/CMSIS/Include\core_cmSimd.h **** #define __SSAT16                          __ssat16
 102:C:\Users\Depes Crystalline\Desktop\school\Active_Bike_Lighting_System\Radar_Core/Libraries/CMSIS/Include\core_cmSimd.h **** #define __USAT16                          __usat16
 103:C:\Users\Depes Crystalline\Desktop\school\Active_Bike_Lighting_System\Radar_Core/Libraries/CMSIS/Include\core_cmSimd.h **** #define __UXTB16                          __uxtb16
 104:C:\Users\Depes Crystalline\Desktop\school\Active_Bike_Lighting_System\Radar_Core/Libraries/CMSIS/Include\core_cmSimd.h **** #define __UXTAB16                         __uxtab16
 105:C:\Users\Depes Crystalline\Desktop\school\Active_Bike_Lighting_System\Radar_Core/Libraries/CMSIS/Include\core_cmSimd.h **** #define __SXTB16                          __sxtb16
 106:C:\Users\Depes Crystalline\Desktop\school\Active_Bike_Lighting_System\Radar_Core/Libraries/CMSIS/Include\core_cmSimd.h **** #define __SXTAB16                         __sxtab16
 107:C:\Users\Depes Crystalline\Desktop\school\Active_Bike_Lighting_System\Radar_Core/Libraries/CMSIS/Include\core_cmSimd.h **** #define __SMUAD                           __smuad
 108:C:\Users\Depes Crystalline\Desktop\school\Active_Bike_Lighting_System\Radar_Core/Libraries/CMSIS/Include\core_cmSimd.h **** #define __SMUADX                          __smuadx
 109:C:\Users\Depes Crystalline\Desktop\school\Active_Bike_Lighting_System\Radar_Core/Libraries/CMSIS/Include\core_cmSimd.h **** #define __SMLAD                           __smlad
 110:C:\Users\Depes Crystalline\Desktop\school\Active_Bike_Lighting_System\Radar_Core/Libraries/CMSIS/Include\core_cmSimd.h **** #define __SMLADX                          __smladx
 111:C:\Users\Depes Crystalline\Desktop\school\Active_Bike_Lighting_System\Radar_Core/Libraries/CMSIS/Include\core_cmSimd.h **** #define __SMLALD                          __smlald
 112:C:\Users\Depes Crystalline\Desktop\school\Active_Bike_Lighting_System\Radar_Core/Libraries/CMSIS/Include\core_cmSimd.h **** #define __SMLALDX                         __smlaldx
 113:C:\Users\Depes Crystalline\Desktop\school\Active_Bike_Lighting_System\Radar_Core/Libraries/CMSIS/Include\core_cmSimd.h **** #define __SMUSD                           __smusd
 114:C:\Users\Depes Crystalline\Desktop\school\Active_Bike_Lighting_System\Radar_Core/Libraries/CMSIS/Include\core_cmSimd.h **** #define __SMUSDX                          __smusdx
 115:C:\Users\Depes Crystalline\Desktop\school\Active_Bike_Lighting_System\Radar_Core/Libraries/CMSIS/Include\core_cmSimd.h **** #define __SMLSD                           __smlsd
 116:C:\Users\Depes Crystalline\Desktop\school\Active_Bike_Lighting_System\Radar_Core/Libraries/CMSIS/Include\core_cmSimd.h **** #define __SMLSDX                          __smlsdx
 117:C:\Users\Depes Crystalline\Desktop\school\Active_Bike_Lighting_System\Radar_Core/Libraries/CMSIS/Include\core_cmSimd.h **** #define __SMLSLD                          __smlsld
 118:C:\Users\Depes Crystalline\Desktop\school\Active_Bike_Lighting_System\Radar_Core/Libraries/CMSIS/Include\core_cmSimd.h **** #define __SMLSLDX                         __smlsldx
 119:C:\Users\Depes Crystalline\Desktop\school\Active_Bike_Lighting_System\Radar_Core/Libraries/CMSIS/Include\core_cmSimd.h **** #define __SEL                             __sel
 120:C:\Users\Depes Crystalline\Desktop\school\Active_Bike_Lighting_System\Radar_Core/Libraries/CMSIS/Include\core_cmSimd.h **** #define __QADD                            __qadd
 121:C:\Users\Depes Crystalline\Desktop\school\Active_Bike_Lighting_System\Radar_Core/Libraries/CMSIS/Include\core_cmSimd.h **** #define __QSUB                            __qsub
 122:C:\Users\Depes Crystalline\Desktop\school\Active_Bike_Lighting_System\Radar_Core/Libraries/CMSIS/Include\core_cmSimd.h **** 
 123:C:\Users\Depes Crystalline\Desktop\school\Active_Bike_Lighting_System\Radar_Core/Libraries/CMSIS/Include\core_cmSimd.h **** #define __PKHBT(ARG1,ARG2,ARG3)          ( ((((uint32_t)(ARG1))          ) & 0x0000FFFFUL) |  \
 124:C:\Users\Depes Crystalline\Desktop\school\Active_Bike_Lighting_System\Radar_Core/Libraries/CMSIS/Include\core_cmSimd.h ****                                            ((((uint32_t)(ARG2)) << (ARG3)) & 0xFFFF0000UL)  )
 125:C:\Users\Depes Crystalline\Desktop\school\Active_Bike_Lighting_System\Radar_Core/Libraries/CMSIS/Include\core_cmSimd.h **** 
 126:C:\Users\Depes Crystalline\Desktop\school\Active_Bike_Lighting_System\Radar_Core/Libraries/CMSIS/Include\core_cmSimd.h **** #define __PKHTB(ARG1,ARG2,ARG3)          ( ((((uint32_t)(ARG1))          ) & 0xFFFF0000UL) |  \
 127:C:\Users\Depes Crystalline\Desktop\school\Active_Bike_Lighting_System\Radar_Core/Libraries/CMSIS/Include\core_cmSimd.h ****                                            ((((uint32_t)(ARG2)) >> (ARG3)) & 0x0000FFFFUL)  )
 128:C:\Users\Depes Crystalline\Desktop\school\Active_Bike_Lighting_System\Radar_Core/Libraries/CMSIS/Include\core_cmSimd.h **** 
 129:C:\Users\Depes Crystalline\Desktop\school\Active_Bike_Lighting_System\Radar_Core/Libraries/CMSIS/Include\core_cmSimd.h **** #define __SMMLA(ARG1,ARG2,ARG3)          ( (int32_t)((((int64_t)(ARG1) * (ARG2)) + \
 130:C:\Users\Depes Crystalline\Desktop\school\Active_Bike_Lighting_System\Radar_Core/Libraries/CMSIS/Include\core_cmSimd.h ****                                                       ((int64_t)(ARG3) << 32)      ) >> 32))
 131:C:\Users\Depes Crystalline\Desktop\school\Active_Bike_Lighting_System\Radar_Core/Libraries/CMSIS/Include\core_cmSimd.h **** 
 132:C:\Users\Depes Crystalline\Desktop\school\Active_Bike_Lighting_System\Radar_Core/Libraries/CMSIS/Include\core_cmSimd.h **** 
 133:C:\Users\Depes Crystalline\Desktop\school\Active_Bike_Lighting_System\Radar_Core/Libraries/CMSIS/Include\core_cmSimd.h **** #elif defined ( __GNUC__ ) /*------------------ GNU Compiler ---------------------*/
 134:C:\Users\Depes Crystalline\Desktop\school\Active_Bike_Lighting_System\Radar_Core/Libraries/CMSIS/Include\core_cmSimd.h **** /* GNU gcc specific functions */
 135:C:\Users\Depes Crystalline\Desktop\school\Active_Bike_Lighting_System\Radar_Core/Libraries/CMSIS/Include\core_cmSimd.h **** __attribute__( ( always_inline ) ) __STATIC_INLINE uint32_t __SADD8(uint32_t op1, uint32_t op2)
 136:C:\Users\Depes Crystalline\Desktop\school\Active_Bike_Lighting_System\Radar_Core/Libraries/CMSIS/Include\core_cmSimd.h **** {
 137:C:\Users\Depes Crystalline\Desktop\school\Active_Bike_Lighting_System\Radar_Core/Libraries/CMSIS/Include\core_cmSimd.h ****   uint32_t result;
 138:C:\Users\Depes Crystalline\Desktop\school\Active_Bike_Lighting_System\Radar_Core/Libraries/CMSIS/Include\core_cmSimd.h **** 
 139:C:\Users\Depes Crystalline\Desktop\school\Active_Bike_Lighting_System\Radar_Core/Libraries/CMSIS/Include\core_cmSimd.h ****   __ASM volatile ("sadd8 %0, %1, %2" : "=r" (result) : "r" (op1), "r" (op2) );
 140:C:\Users\Depes Crystalline\Desktop\school\Active_Bike_Lighting_System\Radar_Core/Libraries/CMSIS/Include\core_cmSimd.h ****   return(result);
 141:C:\Users\Depes Crystalline\Desktop\school\Active_Bike_Lighting_System\Radar_Core/Libraries/CMSIS/Include\core_cmSimd.h **** }
 142:C:\Users\Depes Crystalline\Desktop\school\Active_Bike_Lighting_System\Radar_Core/Libraries/CMSIS/Include\core_cmSimd.h **** 
 143:C:\Users\Depes Crystalline\Desktop\school\Active_Bike_Lighting_System\Radar_Core/Libraries/CMSIS/Include\core_cmSimd.h **** __attribute__( ( always_inline ) ) __STATIC_INLINE uint32_t __QADD8(uint32_t op1, uint32_t op2)
 144:C:\Users\Depes Crystalline\Desktop\school\Active_Bike_Lighting_System\Radar_Core/Libraries/CMSIS/Include\core_cmSimd.h **** {
 145:C:\Users\Depes Crystalline\Desktop\school\Active_Bike_Lighting_System\Radar_Core/Libraries/CMSIS/Include\core_cmSimd.h ****   uint32_t result;
 146:C:\Users\Depes Crystalline\Desktop\school\Active_Bike_Lighting_System\Radar_Core/Libraries/CMSIS/Include\core_cmSimd.h **** 
 147:C:\Users\Depes Crystalline\Desktop\school\Active_Bike_Lighting_System\Radar_Core/Libraries/CMSIS/Include\core_cmSimd.h ****   __ASM volatile ("qadd8 %0, %1, %2" : "=r" (result) : "r" (op1), "r" (op2) );
 148:C:\Users\Depes Crystalline\Desktop\school\Active_Bike_Lighting_System\Radar_Core/Libraries/CMSIS/Include\core_cmSimd.h ****   return(result);
 149:C:\Users\Depes Crystalline\Desktop\school\Active_Bike_Lighting_System\Radar_Core/Libraries/CMSIS/Include\core_cmSimd.h **** }
 150:C:\Users\Depes Crystalline\Desktop\school\Active_Bike_Lighting_System\Radar_Core/Libraries/CMSIS/Include\core_cmSimd.h **** 
 151:C:\Users\Depes Crystalline\Desktop\school\Active_Bike_Lighting_System\Radar_Core/Libraries/CMSIS/Include\core_cmSimd.h **** __attribute__( ( always_inline ) ) __STATIC_INLINE uint32_t __SHADD8(uint32_t op1, uint32_t op2)
 152:C:\Users\Depes Crystalline\Desktop\school\Active_Bike_Lighting_System\Radar_Core/Libraries/CMSIS/Include\core_cmSimd.h **** {
 153:C:\Users\Depes Crystalline\Desktop\school\Active_Bike_Lighting_System\Radar_Core/Libraries/CMSIS/Include\core_cmSimd.h ****   uint32_t result;
 154:C:\Users\Depes Crystalline\Desktop\school\Active_Bike_Lighting_System\Radar_Core/Libraries/CMSIS/Include\core_cmSimd.h **** 
 155:C:\Users\Depes Crystalline\Desktop\school\Active_Bike_Lighting_System\Radar_Core/Libraries/CMSIS/Include\core_cmSimd.h ****   __ASM volatile ("shadd8 %0, %1, %2" : "=r" (result) : "r" (op1), "r" (op2) );
 156:C:\Users\Depes Crystalline\Desktop\school\Active_Bike_Lighting_System\Radar_Core/Libraries/CMSIS/Include\core_cmSimd.h ****   return(result);
 157:C:\Users\Depes Crystalline\Desktop\school\Active_Bike_Lighting_System\Radar_Core/Libraries/CMSIS/Include\core_cmSimd.h **** }
 158:C:\Users\Depes Crystalline\Desktop\school\Active_Bike_Lighting_System\Radar_Core/Libraries/CMSIS/Include\core_cmSimd.h **** 
 159:C:\Users\Depes Crystalline\Desktop\school\Active_Bike_Lighting_System\Radar_Core/Libraries/CMSIS/Include\core_cmSimd.h **** __attribute__( ( always_inline ) ) __STATIC_INLINE uint32_t __UADD8(uint32_t op1, uint32_t op2)
 160:C:\Users\Depes Crystalline\Desktop\school\Active_Bike_Lighting_System\Radar_Core/Libraries/CMSIS/Include\core_cmSimd.h **** {
 161:C:\Users\Depes Crystalline\Desktop\school\Active_Bike_Lighting_System\Radar_Core/Libraries/CMSIS/Include\core_cmSimd.h ****   uint32_t result;
 162:C:\Users\Depes Crystalline\Desktop\school\Active_Bike_Lighting_System\Radar_Core/Libraries/CMSIS/Include\core_cmSimd.h **** 
 163:C:\Users\Depes Crystalline\Desktop\school\Active_Bike_Lighting_System\Radar_Core/Libraries/CMSIS/Include\core_cmSimd.h ****   __ASM volatile ("uadd8 %0, %1, %2" : "=r" (result) : "r" (op1), "r" (op2) );
 164:C:\Users\Depes Crystalline\Desktop\school\Active_Bike_Lighting_System\Radar_Core/Libraries/CMSIS/Include\core_cmSimd.h ****   return(result);
 165:C:\Users\Depes Crystalline\Desktop\school\Active_Bike_Lighting_System\Radar_Core/Libraries/CMSIS/Include\core_cmSimd.h **** }
 166:C:\Users\Depes Crystalline\Desktop\school\Active_Bike_Lighting_System\Radar_Core/Libraries/CMSIS/Include\core_cmSimd.h **** 
 167:C:\Users\Depes Crystalline\Desktop\school\Active_Bike_Lighting_System\Radar_Core/Libraries/CMSIS/Include\core_cmSimd.h **** __attribute__( ( always_inline ) ) __STATIC_INLINE uint32_t __UQADD8(uint32_t op1, uint32_t op2)
 168:C:\Users\Depes Crystalline\Desktop\school\Active_Bike_Lighting_System\Radar_Core/Libraries/CMSIS/Include\core_cmSimd.h **** {
 169:C:\Users\Depes Crystalline\Desktop\school\Active_Bike_Lighting_System\Radar_Core/Libraries/CMSIS/Include\core_cmSimd.h ****   uint32_t result;
 170:C:\Users\Depes Crystalline\Desktop\school\Active_Bike_Lighting_System\Radar_Core/Libraries/CMSIS/Include\core_cmSimd.h **** 
 171:C:\Users\Depes Crystalline\Desktop\school\Active_Bike_Lighting_System\Radar_Core/Libraries/CMSIS/Include\core_cmSimd.h ****   __ASM volatile ("uqadd8 %0, %1, %2" : "=r" (result) : "r" (op1), "r" (op2) );
 172:C:\Users\Depes Crystalline\Desktop\school\Active_Bike_Lighting_System\Radar_Core/Libraries/CMSIS/Include\core_cmSimd.h ****   return(result);
 173:C:\Users\Depes Crystalline\Desktop\school\Active_Bike_Lighting_System\Radar_Core/Libraries/CMSIS/Include\core_cmSimd.h **** }
 174:C:\Users\Depes Crystalline\Desktop\school\Active_Bike_Lighting_System\Radar_Core/Libraries/CMSIS/Include\core_cmSimd.h **** 
 175:C:\Users\Depes Crystalline\Desktop\school\Active_Bike_Lighting_System\Radar_Core/Libraries/CMSIS/Include\core_cmSimd.h **** __attribute__( ( always_inline ) ) __STATIC_INLINE uint32_t __UHADD8(uint32_t op1, uint32_t op2)
 176:C:\Users\Depes Crystalline\Desktop\school\Active_Bike_Lighting_System\Radar_Core/Libraries/CMSIS/Include\core_cmSimd.h **** {
 177:C:\Users\Depes Crystalline\Desktop\school\Active_Bike_Lighting_System\Radar_Core/Libraries/CMSIS/Include\core_cmSimd.h ****   uint32_t result;
 178:C:\Users\Depes Crystalline\Desktop\school\Active_Bike_Lighting_System\Radar_Core/Libraries/CMSIS/Include\core_cmSimd.h **** 
 179:C:\Users\Depes Crystalline\Desktop\school\Active_Bike_Lighting_System\Radar_Core/Libraries/CMSIS/Include\core_cmSimd.h ****   __ASM volatile ("uhadd8 %0, %1, %2" : "=r" (result) : "r" (op1), "r" (op2) );
 180:C:\Users\Depes Crystalline\Desktop\school\Active_Bike_Lighting_System\Radar_Core/Libraries/CMSIS/Include\core_cmSimd.h ****   return(result);
 181:C:\Users\Depes Crystalline\Desktop\school\Active_Bike_Lighting_System\Radar_Core/Libraries/CMSIS/Include\core_cmSimd.h **** }
 182:C:\Users\Depes Crystalline\Desktop\school\Active_Bike_Lighting_System\Radar_Core/Libraries/CMSIS/Include\core_cmSimd.h **** 
 183:C:\Users\Depes Crystalline\Desktop\school\Active_Bike_Lighting_System\Radar_Core/Libraries/CMSIS/Include\core_cmSimd.h **** 
 184:C:\Users\Depes Crystalline\Desktop\school\Active_Bike_Lighting_System\Radar_Core/Libraries/CMSIS/Include\core_cmSimd.h **** __attribute__( ( always_inline ) ) __STATIC_INLINE uint32_t __SSUB8(uint32_t op1, uint32_t op2)
 185:C:\Users\Depes Crystalline\Desktop\school\Active_Bike_Lighting_System\Radar_Core/Libraries/CMSIS/Include\core_cmSimd.h **** {
 186:C:\Users\Depes Crystalline\Desktop\school\Active_Bike_Lighting_System\Radar_Core/Libraries/CMSIS/Include\core_cmSimd.h ****   uint32_t result;
 187:C:\Users\Depes Crystalline\Desktop\school\Active_Bike_Lighting_System\Radar_Core/Libraries/CMSIS/Include\core_cmSimd.h **** 
 188:C:\Users\Depes Crystalline\Desktop\school\Active_Bike_Lighting_System\Radar_Core/Libraries/CMSIS/Include\core_cmSimd.h ****   __ASM volatile ("ssub8 %0, %1, %2" : "=r" (result) : "r" (op1), "r" (op2) );
 189:C:\Users\Depes Crystalline\Desktop\school\Active_Bike_Lighting_System\Radar_Core/Libraries/CMSIS/Include\core_cmSimd.h ****   return(result);
 190:C:\Users\Depes Crystalline\Desktop\school\Active_Bike_Lighting_System\Radar_Core/Libraries/CMSIS/Include\core_cmSimd.h **** }
 191:C:\Users\Depes Crystalline\Desktop\school\Active_Bike_Lighting_System\Radar_Core/Libraries/CMSIS/Include\core_cmSimd.h **** 
 192:C:\Users\Depes Crystalline\Desktop\school\Active_Bike_Lighting_System\Radar_Core/Libraries/CMSIS/Include\core_cmSimd.h **** __attribute__( ( always_inline ) ) __STATIC_INLINE uint32_t __QSUB8(uint32_t op1, uint32_t op2)
 193:C:\Users\Depes Crystalline\Desktop\school\Active_Bike_Lighting_System\Radar_Core/Libraries/CMSIS/Include\core_cmSimd.h **** {
 194:C:\Users\Depes Crystalline\Desktop\school\Active_Bike_Lighting_System\Radar_Core/Libraries/CMSIS/Include\core_cmSimd.h ****   uint32_t result;
 195:C:\Users\Depes Crystalline\Desktop\school\Active_Bike_Lighting_System\Radar_Core/Libraries/CMSIS/Include\core_cmSimd.h **** 
 196:C:\Users\Depes Crystalline\Desktop\school\Active_Bike_Lighting_System\Radar_Core/Libraries/CMSIS/Include\core_cmSimd.h ****   __ASM volatile ("qsub8 %0, %1, %2" : "=r" (result) : "r" (op1), "r" (op2) );
 197:C:\Users\Depes Crystalline\Desktop\school\Active_Bike_Lighting_System\Radar_Core/Libraries/CMSIS/Include\core_cmSimd.h ****   return(result);
 198:C:\Users\Depes Crystalline\Desktop\school\Active_Bike_Lighting_System\Radar_Core/Libraries/CMSIS/Include\core_cmSimd.h **** }
 199:C:\Users\Depes Crystalline\Desktop\school\Active_Bike_Lighting_System\Radar_Core/Libraries/CMSIS/Include\core_cmSimd.h **** 
 200:C:\Users\Depes Crystalline\Desktop\school\Active_Bike_Lighting_System\Radar_Core/Libraries/CMSIS/Include\core_cmSimd.h **** __attribute__( ( always_inline ) ) __STATIC_INLINE uint32_t __SHSUB8(uint32_t op1, uint32_t op2)
 201:C:\Users\Depes Crystalline\Desktop\school\Active_Bike_Lighting_System\Radar_Core/Libraries/CMSIS/Include\core_cmSimd.h **** {
 202:C:\Users\Depes Crystalline\Desktop\school\Active_Bike_Lighting_System\Radar_Core/Libraries/CMSIS/Include\core_cmSimd.h ****   uint32_t result;
 203:C:\Users\Depes Crystalline\Desktop\school\Active_Bike_Lighting_System\Radar_Core/Libraries/CMSIS/Include\core_cmSimd.h **** 
 204:C:\Users\Depes Crystalline\Desktop\school\Active_Bike_Lighting_System\Radar_Core/Libraries/CMSIS/Include\core_cmSimd.h ****   __ASM volatile ("shsub8 %0, %1, %2" : "=r" (result) : "r" (op1), "r" (op2) );
 205:C:\Users\Depes Crystalline\Desktop\school\Active_Bike_Lighting_System\Radar_Core/Libraries/CMSIS/Include\core_cmSimd.h ****   return(result);
 206:C:\Users\Depes Crystalline\Desktop\school\Active_Bike_Lighting_System\Radar_Core/Libraries/CMSIS/Include\core_cmSimd.h **** }
 207:C:\Users\Depes Crystalline\Desktop\school\Active_Bike_Lighting_System\Radar_Core/Libraries/CMSIS/Include\core_cmSimd.h **** 
 208:C:\Users\Depes Crystalline\Desktop\school\Active_Bike_Lighting_System\Radar_Core/Libraries/CMSIS/Include\core_cmSimd.h **** __attribute__( ( always_inline ) ) __STATIC_INLINE uint32_t __USUB8(uint32_t op1, uint32_t op2)
 209:C:\Users\Depes Crystalline\Desktop\school\Active_Bike_Lighting_System\Radar_Core/Libraries/CMSIS/Include\core_cmSimd.h **** {
 210:C:\Users\Depes Crystalline\Desktop\school\Active_Bike_Lighting_System\Radar_Core/Libraries/CMSIS/Include\core_cmSimd.h ****   uint32_t result;
 211:C:\Users\Depes Crystalline\Desktop\school\Active_Bike_Lighting_System\Radar_Core/Libraries/CMSIS/Include\core_cmSimd.h **** 
 212:C:\Users\Depes Crystalline\Desktop\school\Active_Bike_Lighting_System\Radar_Core/Libraries/CMSIS/Include\core_cmSimd.h ****   __ASM volatile ("usub8 %0, %1, %2" : "=r" (result) : "r" (op1), "r" (op2) );
 213:C:\Users\Depes Crystalline\Desktop\school\Active_Bike_Lighting_System\Radar_Core/Libraries/CMSIS/Include\core_cmSimd.h ****   return(result);
 214:C:\Users\Depes Crystalline\Desktop\school\Active_Bike_Lighting_System\Radar_Core/Libraries/CMSIS/Include\core_cmSimd.h **** }
 215:C:\Users\Depes Crystalline\Desktop\school\Active_Bike_Lighting_System\Radar_Core/Libraries/CMSIS/Include\core_cmSimd.h **** 
 216:C:\Users\Depes Crystalline\Desktop\school\Active_Bike_Lighting_System\Radar_Core/Libraries/CMSIS/Include\core_cmSimd.h **** __attribute__( ( always_inline ) ) __STATIC_INLINE uint32_t __UQSUB8(uint32_t op1, uint32_t op2)
 217:C:\Users\Depes Crystalline\Desktop\school\Active_Bike_Lighting_System\Radar_Core/Libraries/CMSIS/Include\core_cmSimd.h **** {
 218:C:\Users\Depes Crystalline\Desktop\school\Active_Bike_Lighting_System\Radar_Core/Libraries/CMSIS/Include\core_cmSimd.h ****   uint32_t result;
 219:C:\Users\Depes Crystalline\Desktop\school\Active_Bike_Lighting_System\Radar_Core/Libraries/CMSIS/Include\core_cmSimd.h **** 
 220:C:\Users\Depes Crystalline\Desktop\school\Active_Bike_Lighting_System\Radar_Core/Libraries/CMSIS/Include\core_cmSimd.h ****   __ASM volatile ("uqsub8 %0, %1, %2" : "=r" (result) : "r" (op1), "r" (op2) );
 221:C:\Users\Depes Crystalline\Desktop\school\Active_Bike_Lighting_System\Radar_Core/Libraries/CMSIS/Include\core_cmSimd.h ****   return(result);
 222:C:\Users\Depes Crystalline\Desktop\school\Active_Bike_Lighting_System\Radar_Core/Libraries/CMSIS/Include\core_cmSimd.h **** }
 223:C:\Users\Depes Crystalline\Desktop\school\Active_Bike_Lighting_System\Radar_Core/Libraries/CMSIS/Include\core_cmSimd.h **** 
 224:C:\Users\Depes Crystalline\Desktop\school\Active_Bike_Lighting_System\Radar_Core/Libraries/CMSIS/Include\core_cmSimd.h **** __attribute__( ( always_inline ) ) __STATIC_INLINE uint32_t __UHSUB8(uint32_t op1, uint32_t op2)
 225:C:\Users\Depes Crystalline\Desktop\school\Active_Bike_Lighting_System\Radar_Core/Libraries/CMSIS/Include\core_cmSimd.h **** {
 226:C:\Users\Depes Crystalline\Desktop\school\Active_Bike_Lighting_System\Radar_Core/Libraries/CMSIS/Include\core_cmSimd.h ****   uint32_t result;
 227:C:\Users\Depes Crystalline\Desktop\school\Active_Bike_Lighting_System\Radar_Core/Libraries/CMSIS/Include\core_cmSimd.h **** 
 228:C:\Users\Depes Crystalline\Desktop\school\Active_Bike_Lighting_System\Radar_Core/Libraries/CMSIS/Include\core_cmSimd.h ****   __ASM volatile ("uhsub8 %0, %1, %2" : "=r" (result) : "r" (op1), "r" (op2) );
 229:C:\Users\Depes Crystalline\Desktop\school\Active_Bike_Lighting_System\Radar_Core/Libraries/CMSIS/Include\core_cmSimd.h ****   return(result);
 230:C:\Users\Depes Crystalline\Desktop\school\Active_Bike_Lighting_System\Radar_Core/Libraries/CMSIS/Include\core_cmSimd.h **** }
 231:C:\Users\Depes Crystalline\Desktop\school\Active_Bike_Lighting_System\Radar_Core/Libraries/CMSIS/Include\core_cmSimd.h **** 
 232:C:\Users\Depes Crystalline\Desktop\school\Active_Bike_Lighting_System\Radar_Core/Libraries/CMSIS/Include\core_cmSimd.h **** 
 233:C:\Users\Depes Crystalline\Desktop\school\Active_Bike_Lighting_System\Radar_Core/Libraries/CMSIS/Include\core_cmSimd.h **** __attribute__( ( always_inline ) ) __STATIC_INLINE uint32_t __SADD16(uint32_t op1, uint32_t op2)
 234:C:\Users\Depes Crystalline\Desktop\school\Active_Bike_Lighting_System\Radar_Core/Libraries/CMSIS/Include\core_cmSimd.h **** {
 235:C:\Users\Depes Crystalline\Desktop\school\Active_Bike_Lighting_System\Radar_Core/Libraries/CMSIS/Include\core_cmSimd.h ****   uint32_t result;
 236:C:\Users\Depes Crystalline\Desktop\school\Active_Bike_Lighting_System\Radar_Core/Libraries/CMSIS/Include\core_cmSimd.h **** 
 237:C:\Users\Depes Crystalline\Desktop\school\Active_Bike_Lighting_System\Radar_Core/Libraries/CMSIS/Include\core_cmSimd.h ****   __ASM volatile ("sadd16 %0, %1, %2" : "=r" (result) : "r" (op1), "r" (op2) );
 238:C:\Users\Depes Crystalline\Desktop\school\Active_Bike_Lighting_System\Radar_Core/Libraries/CMSIS/Include\core_cmSimd.h ****   return(result);
 239:C:\Users\Depes Crystalline\Desktop\school\Active_Bike_Lighting_System\Radar_Core/Libraries/CMSIS/Include\core_cmSimd.h **** }
 240:C:\Users\Depes Crystalline\Desktop\school\Active_Bike_Lighting_System\Radar_Core/Libraries/CMSIS/Include\core_cmSimd.h **** 
 241:C:\Users\Depes Crystalline\Desktop\school\Active_Bike_Lighting_System\Radar_Core/Libraries/CMSIS/Include\core_cmSimd.h **** __attribute__( ( always_inline ) ) __STATIC_INLINE uint32_t __QADD16(uint32_t op1, uint32_t op2)
 242:C:\Users\Depes Crystalline\Desktop\school\Active_Bike_Lighting_System\Radar_Core/Libraries/CMSIS/Include\core_cmSimd.h **** {
 243:C:\Users\Depes Crystalline\Desktop\school\Active_Bike_Lighting_System\Radar_Core/Libraries/CMSIS/Include\core_cmSimd.h ****   uint32_t result;
 244:C:\Users\Depes Crystalline\Desktop\school\Active_Bike_Lighting_System\Radar_Core/Libraries/CMSIS/Include\core_cmSimd.h **** 
 245:C:\Users\Depes Crystalline\Desktop\school\Active_Bike_Lighting_System\Radar_Core/Libraries/CMSIS/Include\core_cmSimd.h ****   __ASM volatile ("qadd16 %0, %1, %2" : "=r" (result) : "r" (op1), "r" (op2) );
 246:C:\Users\Depes Crystalline\Desktop\school\Active_Bike_Lighting_System\Radar_Core/Libraries/CMSIS/Include\core_cmSimd.h ****   return(result);
 247:C:\Users\Depes Crystalline\Desktop\school\Active_Bike_Lighting_System\Radar_Core/Libraries/CMSIS/Include\core_cmSimd.h **** }
 248:C:\Users\Depes Crystalline\Desktop\school\Active_Bike_Lighting_System\Radar_Core/Libraries/CMSIS/Include\core_cmSimd.h **** 
 249:C:\Users\Depes Crystalline\Desktop\school\Active_Bike_Lighting_System\Radar_Core/Libraries/CMSIS/Include\core_cmSimd.h **** __attribute__( ( always_inline ) ) __STATIC_INLINE uint32_t __SHADD16(uint32_t op1, uint32_t op2)
 250:C:\Users\Depes Crystalline\Desktop\school\Active_Bike_Lighting_System\Radar_Core/Libraries/CMSIS/Include\core_cmSimd.h **** {
 251:C:\Users\Depes Crystalline\Desktop\school\Active_Bike_Lighting_System\Radar_Core/Libraries/CMSIS/Include\core_cmSimd.h ****   uint32_t result;
 252:C:\Users\Depes Crystalline\Desktop\school\Active_Bike_Lighting_System\Radar_Core/Libraries/CMSIS/Include\core_cmSimd.h **** 
 253:C:\Users\Depes Crystalline\Desktop\school\Active_Bike_Lighting_System\Radar_Core/Libraries/CMSIS/Include\core_cmSimd.h ****   __ASM volatile ("shadd16 %0, %1, %2" : "=r" (result) : "r" (op1), "r" (op2) );
 254:C:\Users\Depes Crystalline\Desktop\school\Active_Bike_Lighting_System\Radar_Core/Libraries/CMSIS/Include\core_cmSimd.h ****   return(result);
 255:C:\Users\Depes Crystalline\Desktop\school\Active_Bike_Lighting_System\Radar_Core/Libraries/CMSIS/Include\core_cmSimd.h **** }
 256:C:\Users\Depes Crystalline\Desktop\school\Active_Bike_Lighting_System\Radar_Core/Libraries/CMSIS/Include\core_cmSimd.h **** 
 257:C:\Users\Depes Crystalline\Desktop\school\Active_Bike_Lighting_System\Radar_Core/Libraries/CMSIS/Include\core_cmSimd.h **** __attribute__( ( always_inline ) ) __STATIC_INLINE uint32_t __UADD16(uint32_t op1, uint32_t op2)
 258:C:\Users\Depes Crystalline\Desktop\school\Active_Bike_Lighting_System\Radar_Core/Libraries/CMSIS/Include\core_cmSimd.h **** {
 259:C:\Users\Depes Crystalline\Desktop\school\Active_Bike_Lighting_System\Radar_Core/Libraries/CMSIS/Include\core_cmSimd.h ****   uint32_t result;
 260:C:\Users\Depes Crystalline\Desktop\school\Active_Bike_Lighting_System\Radar_Core/Libraries/CMSIS/Include\core_cmSimd.h **** 
 261:C:\Users\Depes Crystalline\Desktop\school\Active_Bike_Lighting_System\Radar_Core/Libraries/CMSIS/Include\core_cmSimd.h ****   __ASM volatile ("uadd16 %0, %1, %2" : "=r" (result) : "r" (op1), "r" (op2) );
 262:C:\Users\Depes Crystalline\Desktop\school\Active_Bike_Lighting_System\Radar_Core/Libraries/CMSIS/Include\core_cmSimd.h ****   return(result);
 263:C:\Users\Depes Crystalline\Desktop\school\Active_Bike_Lighting_System\Radar_Core/Libraries/CMSIS/Include\core_cmSimd.h **** }
 264:C:\Users\Depes Crystalline\Desktop\school\Active_Bike_Lighting_System\Radar_Core/Libraries/CMSIS/Include\core_cmSimd.h **** 
 265:C:\Users\Depes Crystalline\Desktop\school\Active_Bike_Lighting_System\Radar_Core/Libraries/CMSIS/Include\core_cmSimd.h **** __attribute__( ( always_inline ) ) __STATIC_INLINE uint32_t __UQADD16(uint32_t op1, uint32_t op2)
 266:C:\Users\Depes Crystalline\Desktop\school\Active_Bike_Lighting_System\Radar_Core/Libraries/CMSIS/Include\core_cmSimd.h **** {
 267:C:\Users\Depes Crystalline\Desktop\school\Active_Bike_Lighting_System\Radar_Core/Libraries/CMSIS/Include\core_cmSimd.h ****   uint32_t result;
 268:C:\Users\Depes Crystalline\Desktop\school\Active_Bike_Lighting_System\Radar_Core/Libraries/CMSIS/Include\core_cmSimd.h **** 
 269:C:\Users\Depes Crystalline\Desktop\school\Active_Bike_Lighting_System\Radar_Core/Libraries/CMSIS/Include\core_cmSimd.h ****   __ASM volatile ("uqadd16 %0, %1, %2" : "=r" (result) : "r" (op1), "r" (op2) );
 270:C:\Users\Depes Crystalline\Desktop\school\Active_Bike_Lighting_System\Radar_Core/Libraries/CMSIS/Include\core_cmSimd.h ****   return(result);
 271:C:\Users\Depes Crystalline\Desktop\school\Active_Bike_Lighting_System\Radar_Core/Libraries/CMSIS/Include\core_cmSimd.h **** }
 272:C:\Users\Depes Crystalline\Desktop\school\Active_Bike_Lighting_System\Radar_Core/Libraries/CMSIS/Include\core_cmSimd.h **** 
 273:C:\Users\Depes Crystalline\Desktop\school\Active_Bike_Lighting_System\Radar_Core/Libraries/CMSIS/Include\core_cmSimd.h **** __attribute__( ( always_inline ) ) __STATIC_INLINE uint32_t __UHADD16(uint32_t op1, uint32_t op2)
 274:C:\Users\Depes Crystalline\Desktop\school\Active_Bike_Lighting_System\Radar_Core/Libraries/CMSIS/Include\core_cmSimd.h **** {
 275:C:\Users\Depes Crystalline\Desktop\school\Active_Bike_Lighting_System\Radar_Core/Libraries/CMSIS/Include\core_cmSimd.h ****   uint32_t result;
 276:C:\Users\Depes Crystalline\Desktop\school\Active_Bike_Lighting_System\Radar_Core/Libraries/CMSIS/Include\core_cmSimd.h **** 
 277:C:\Users\Depes Crystalline\Desktop\school\Active_Bike_Lighting_System\Radar_Core/Libraries/CMSIS/Include\core_cmSimd.h ****   __ASM volatile ("uhadd16 %0, %1, %2" : "=r" (result) : "r" (op1), "r" (op2) );
 278:C:\Users\Depes Crystalline\Desktop\school\Active_Bike_Lighting_System\Radar_Core/Libraries/CMSIS/Include\core_cmSimd.h ****   return(result);
 279:C:\Users\Depes Crystalline\Desktop\school\Active_Bike_Lighting_System\Radar_Core/Libraries/CMSIS/Include\core_cmSimd.h **** }
 280:C:\Users\Depes Crystalline\Desktop\school\Active_Bike_Lighting_System\Radar_Core/Libraries/CMSIS/Include\core_cmSimd.h **** 
 281:C:\Users\Depes Crystalline\Desktop\school\Active_Bike_Lighting_System\Radar_Core/Libraries/CMSIS/Include\core_cmSimd.h **** __attribute__( ( always_inline ) ) __STATIC_INLINE uint32_t __SSUB16(uint32_t op1, uint32_t op2)
 282:C:\Users\Depes Crystalline\Desktop\school\Active_Bike_Lighting_System\Radar_Core/Libraries/CMSIS/Include\core_cmSimd.h **** {
 283:C:\Users\Depes Crystalline\Desktop\school\Active_Bike_Lighting_System\Radar_Core/Libraries/CMSIS/Include\core_cmSimd.h ****   uint32_t result;
 284:C:\Users\Depes Crystalline\Desktop\school\Active_Bike_Lighting_System\Radar_Core/Libraries/CMSIS/Include\core_cmSimd.h **** 
 285:C:\Users\Depes Crystalline\Desktop\school\Active_Bike_Lighting_System\Radar_Core/Libraries/CMSIS/Include\core_cmSimd.h ****   __ASM volatile ("ssub16 %0, %1, %2" : "=r" (result) : "r" (op1), "r" (op2) );
 286:C:\Users\Depes Crystalline\Desktop\school\Active_Bike_Lighting_System\Radar_Core/Libraries/CMSIS/Include\core_cmSimd.h ****   return(result);
 287:C:\Users\Depes Crystalline\Desktop\school\Active_Bike_Lighting_System\Radar_Core/Libraries/CMSIS/Include\core_cmSimd.h **** }
 288:C:\Users\Depes Crystalline\Desktop\school\Active_Bike_Lighting_System\Radar_Core/Libraries/CMSIS/Include\core_cmSimd.h **** 
 289:C:\Users\Depes Crystalline\Desktop\school\Active_Bike_Lighting_System\Radar_Core/Libraries/CMSIS/Include\core_cmSimd.h **** __attribute__( ( always_inline ) ) __STATIC_INLINE uint32_t __QSUB16(uint32_t op1, uint32_t op2)
 290:C:\Users\Depes Crystalline\Desktop\school\Active_Bike_Lighting_System\Radar_Core/Libraries/CMSIS/Include\core_cmSimd.h **** {
 291:C:\Users\Depes Crystalline\Desktop\school\Active_Bike_Lighting_System\Radar_Core/Libraries/CMSIS/Include\core_cmSimd.h ****   uint32_t result;
 292:C:\Users\Depes Crystalline\Desktop\school\Active_Bike_Lighting_System\Radar_Core/Libraries/CMSIS/Include\core_cmSimd.h **** 
 293:C:\Users\Depes Crystalline\Desktop\school\Active_Bike_Lighting_System\Radar_Core/Libraries/CMSIS/Include\core_cmSimd.h ****   __ASM volatile ("qsub16 %0, %1, %2" : "=r" (result) : "r" (op1), "r" (op2) );
 294:C:\Users\Depes Crystalline\Desktop\school\Active_Bike_Lighting_System\Radar_Core/Libraries/CMSIS/Include\core_cmSimd.h ****   return(result);
 295:C:\Users\Depes Crystalline\Desktop\school\Active_Bike_Lighting_System\Radar_Core/Libraries/CMSIS/Include\core_cmSimd.h **** }
 296:C:\Users\Depes Crystalline\Desktop\school\Active_Bike_Lighting_System\Radar_Core/Libraries/CMSIS/Include\core_cmSimd.h **** 
 297:C:\Users\Depes Crystalline\Desktop\school\Active_Bike_Lighting_System\Radar_Core/Libraries/CMSIS/Include\core_cmSimd.h **** __attribute__( ( always_inline ) ) __STATIC_INLINE uint32_t __SHSUB16(uint32_t op1, uint32_t op2)
 298:C:\Users\Depes Crystalline\Desktop\school\Active_Bike_Lighting_System\Radar_Core/Libraries/CMSIS/Include\core_cmSimd.h **** {
 299:C:\Users\Depes Crystalline\Desktop\school\Active_Bike_Lighting_System\Radar_Core/Libraries/CMSIS/Include\core_cmSimd.h ****   uint32_t result;
 300:C:\Users\Depes Crystalline\Desktop\school\Active_Bike_Lighting_System\Radar_Core/Libraries/CMSIS/Include\core_cmSimd.h **** 
 301:C:\Users\Depes Crystalline\Desktop\school\Active_Bike_Lighting_System\Radar_Core/Libraries/CMSIS/Include\core_cmSimd.h ****   __ASM volatile ("shsub16 %0, %1, %2" : "=r" (result) : "r" (op1), "r" (op2) );
 302:C:\Users\Depes Crystalline\Desktop\school\Active_Bike_Lighting_System\Radar_Core/Libraries/CMSIS/Include\core_cmSimd.h ****   return(result);
 303:C:\Users\Depes Crystalline\Desktop\school\Active_Bike_Lighting_System\Radar_Core/Libraries/CMSIS/Include\core_cmSimd.h **** }
 304:C:\Users\Depes Crystalline\Desktop\school\Active_Bike_Lighting_System\Radar_Core/Libraries/CMSIS/Include\core_cmSimd.h **** 
 305:C:\Users\Depes Crystalline\Desktop\school\Active_Bike_Lighting_System\Radar_Core/Libraries/CMSIS/Include\core_cmSimd.h **** __attribute__( ( always_inline ) ) __STATIC_INLINE uint32_t __USUB16(uint32_t op1, uint32_t op2)
 306:C:\Users\Depes Crystalline\Desktop\school\Active_Bike_Lighting_System\Radar_Core/Libraries/CMSIS/Include\core_cmSimd.h **** {
 307:C:\Users\Depes Crystalline\Desktop\school\Active_Bike_Lighting_System\Radar_Core/Libraries/CMSIS/Include\core_cmSimd.h ****   uint32_t result;
 308:C:\Users\Depes Crystalline\Desktop\school\Active_Bike_Lighting_System\Radar_Core/Libraries/CMSIS/Include\core_cmSimd.h **** 
 309:C:\Users\Depes Crystalline\Desktop\school\Active_Bike_Lighting_System\Radar_Core/Libraries/CMSIS/Include\core_cmSimd.h ****   __ASM volatile ("usub16 %0, %1, %2" : "=r" (result) : "r" (op1), "r" (op2) );
 310:C:\Users\Depes Crystalline\Desktop\school\Active_Bike_Lighting_System\Radar_Core/Libraries/CMSIS/Include\core_cmSimd.h ****   return(result);
 311:C:\Users\Depes Crystalline\Desktop\school\Active_Bike_Lighting_System\Radar_Core/Libraries/CMSIS/Include\core_cmSimd.h **** }
 312:C:\Users\Depes Crystalline\Desktop\school\Active_Bike_Lighting_System\Radar_Core/Libraries/CMSIS/Include\core_cmSimd.h **** 
 313:C:\Users\Depes Crystalline\Desktop\school\Active_Bike_Lighting_System\Radar_Core/Libraries/CMSIS/Include\core_cmSimd.h **** __attribute__( ( always_inline ) ) __STATIC_INLINE uint32_t __UQSUB16(uint32_t op1, uint32_t op2)
 314:C:\Users\Depes Crystalline\Desktop\school\Active_Bike_Lighting_System\Radar_Core/Libraries/CMSIS/Include\core_cmSimd.h **** {
 315:C:\Users\Depes Crystalline\Desktop\school\Active_Bike_Lighting_System\Radar_Core/Libraries/CMSIS/Include\core_cmSimd.h ****   uint32_t result;
 316:C:\Users\Depes Crystalline\Desktop\school\Active_Bike_Lighting_System\Radar_Core/Libraries/CMSIS/Include\core_cmSimd.h **** 
 317:C:\Users\Depes Crystalline\Desktop\school\Active_Bike_Lighting_System\Radar_Core/Libraries/CMSIS/Include\core_cmSimd.h ****   __ASM volatile ("uqsub16 %0, %1, %2" : "=r" (result) : "r" (op1), "r" (op2) );
 318:C:\Users\Depes Crystalline\Desktop\school\Active_Bike_Lighting_System\Radar_Core/Libraries/CMSIS/Include\core_cmSimd.h ****   return(result);
 319:C:\Users\Depes Crystalline\Desktop\school\Active_Bike_Lighting_System\Radar_Core/Libraries/CMSIS/Include\core_cmSimd.h **** }
 320:C:\Users\Depes Crystalline\Desktop\school\Active_Bike_Lighting_System\Radar_Core/Libraries/CMSIS/Include\core_cmSimd.h **** 
 321:C:\Users\Depes Crystalline\Desktop\school\Active_Bike_Lighting_System\Radar_Core/Libraries/CMSIS/Include\core_cmSimd.h **** __attribute__( ( always_inline ) ) __STATIC_INLINE uint32_t __UHSUB16(uint32_t op1, uint32_t op2)
 322:C:\Users\Depes Crystalline\Desktop\school\Active_Bike_Lighting_System\Radar_Core/Libraries/CMSIS/Include\core_cmSimd.h **** {
 323:C:\Users\Depes Crystalline\Desktop\school\Active_Bike_Lighting_System\Radar_Core/Libraries/CMSIS/Include\core_cmSimd.h ****   uint32_t result;
 324:C:\Users\Depes Crystalline\Desktop\school\Active_Bike_Lighting_System\Radar_Core/Libraries/CMSIS/Include\core_cmSimd.h **** 
 325:C:\Users\Depes Crystalline\Desktop\school\Active_Bike_Lighting_System\Radar_Core/Libraries/CMSIS/Include\core_cmSimd.h ****   __ASM volatile ("uhsub16 %0, %1, %2" : "=r" (result) : "r" (op1), "r" (op2) );
 326:C:\Users\Depes Crystalline\Desktop\school\Active_Bike_Lighting_System\Radar_Core/Libraries/CMSIS/Include\core_cmSimd.h ****   return(result);
 327:C:\Users\Depes Crystalline\Desktop\school\Active_Bike_Lighting_System\Radar_Core/Libraries/CMSIS/Include\core_cmSimd.h **** }
 328:C:\Users\Depes Crystalline\Desktop\school\Active_Bike_Lighting_System\Radar_Core/Libraries/CMSIS/Include\core_cmSimd.h **** 
 329:C:\Users\Depes Crystalline\Desktop\school\Active_Bike_Lighting_System\Radar_Core/Libraries/CMSIS/Include\core_cmSimd.h **** __attribute__( ( always_inline ) ) __STATIC_INLINE uint32_t __SASX(uint32_t op1, uint32_t op2)
 330:C:\Users\Depes Crystalline\Desktop\school\Active_Bike_Lighting_System\Radar_Core/Libraries/CMSIS/Include\core_cmSimd.h **** {
 331:C:\Users\Depes Crystalline\Desktop\school\Active_Bike_Lighting_System\Radar_Core/Libraries/CMSIS/Include\core_cmSimd.h ****   uint32_t result;
 332:C:\Users\Depes Crystalline\Desktop\school\Active_Bike_Lighting_System\Radar_Core/Libraries/CMSIS/Include\core_cmSimd.h **** 
 333:C:\Users\Depes Crystalline\Desktop\school\Active_Bike_Lighting_System\Radar_Core/Libraries/CMSIS/Include\core_cmSimd.h ****   __ASM volatile ("sasx %0, %1, %2" : "=r" (result) : "r" (op1), "r" (op2) );
 334:C:\Users\Depes Crystalline\Desktop\school\Active_Bike_Lighting_System\Radar_Core/Libraries/CMSIS/Include\core_cmSimd.h ****   return(result);
 335:C:\Users\Depes Crystalline\Desktop\school\Active_Bike_Lighting_System\Radar_Core/Libraries/CMSIS/Include\core_cmSimd.h **** }
 336:C:\Users\Depes Crystalline\Desktop\school\Active_Bike_Lighting_System\Radar_Core/Libraries/CMSIS/Include\core_cmSimd.h **** 
 337:C:\Users\Depes Crystalline\Desktop\school\Active_Bike_Lighting_System\Radar_Core/Libraries/CMSIS/Include\core_cmSimd.h **** __attribute__( ( always_inline ) ) __STATIC_INLINE uint32_t __QASX(uint32_t op1, uint32_t op2)
 338:C:\Users\Depes Crystalline\Desktop\school\Active_Bike_Lighting_System\Radar_Core/Libraries/CMSIS/Include\core_cmSimd.h **** {
 339:C:\Users\Depes Crystalline\Desktop\school\Active_Bike_Lighting_System\Radar_Core/Libraries/CMSIS/Include\core_cmSimd.h ****   uint32_t result;
 340:C:\Users\Depes Crystalline\Desktop\school\Active_Bike_Lighting_System\Radar_Core/Libraries/CMSIS/Include\core_cmSimd.h **** 
 341:C:\Users\Depes Crystalline\Desktop\school\Active_Bike_Lighting_System\Radar_Core/Libraries/CMSIS/Include\core_cmSimd.h ****   __ASM volatile ("qasx %0, %1, %2" : "=r" (result) : "r" (op1), "r" (op2) );
 342:C:\Users\Depes Crystalline\Desktop\school\Active_Bike_Lighting_System\Radar_Core/Libraries/CMSIS/Include\core_cmSimd.h ****   return(result);
 343:C:\Users\Depes Crystalline\Desktop\school\Active_Bike_Lighting_System\Radar_Core/Libraries/CMSIS/Include\core_cmSimd.h **** }
 344:C:\Users\Depes Crystalline\Desktop\school\Active_Bike_Lighting_System\Radar_Core/Libraries/CMSIS/Include\core_cmSimd.h **** 
 345:C:\Users\Depes Crystalline\Desktop\school\Active_Bike_Lighting_System\Radar_Core/Libraries/CMSIS/Include\core_cmSimd.h **** __attribute__( ( always_inline ) ) __STATIC_INLINE uint32_t __SHASX(uint32_t op1, uint32_t op2)
 346:C:\Users\Depes Crystalline\Desktop\school\Active_Bike_Lighting_System\Radar_Core/Libraries/CMSIS/Include\core_cmSimd.h **** {
 347:C:\Users\Depes Crystalline\Desktop\school\Active_Bike_Lighting_System\Radar_Core/Libraries/CMSIS/Include\core_cmSimd.h ****   uint32_t result;
 348:C:\Users\Depes Crystalline\Desktop\school\Active_Bike_Lighting_System\Radar_Core/Libraries/CMSIS/Include\core_cmSimd.h **** 
 349:C:\Users\Depes Crystalline\Desktop\school\Active_Bike_Lighting_System\Radar_Core/Libraries/CMSIS/Include\core_cmSimd.h ****   __ASM volatile ("shasx %0, %1, %2" : "=r" (result) : "r" (op1), "r" (op2) );
 350:C:\Users\Depes Crystalline\Desktop\school\Active_Bike_Lighting_System\Radar_Core/Libraries/CMSIS/Include\core_cmSimd.h ****   return(result);
 351:C:\Users\Depes Crystalline\Desktop\school\Active_Bike_Lighting_System\Radar_Core/Libraries/CMSIS/Include\core_cmSimd.h **** }
 352:C:\Users\Depes Crystalline\Desktop\school\Active_Bike_Lighting_System\Radar_Core/Libraries/CMSIS/Include\core_cmSimd.h **** 
 353:C:\Users\Depes Crystalline\Desktop\school\Active_Bike_Lighting_System\Radar_Core/Libraries/CMSIS/Include\core_cmSimd.h **** __attribute__( ( always_inline ) ) __STATIC_INLINE uint32_t __UASX(uint32_t op1, uint32_t op2)
 354:C:\Users\Depes Crystalline\Desktop\school\Active_Bike_Lighting_System\Radar_Core/Libraries/CMSIS/Include\core_cmSimd.h **** {
 355:C:\Users\Depes Crystalline\Desktop\school\Active_Bike_Lighting_System\Radar_Core/Libraries/CMSIS/Include\core_cmSimd.h ****   uint32_t result;
 356:C:\Users\Depes Crystalline\Desktop\school\Active_Bike_Lighting_System\Radar_Core/Libraries/CMSIS/Include\core_cmSimd.h **** 
 357:C:\Users\Depes Crystalline\Desktop\school\Active_Bike_Lighting_System\Radar_Core/Libraries/CMSIS/Include\core_cmSimd.h ****   __ASM volatile ("uasx %0, %1, %2" : "=r" (result) : "r" (op1), "r" (op2) );
 358:C:\Users\Depes Crystalline\Desktop\school\Active_Bike_Lighting_System\Radar_Core/Libraries/CMSIS/Include\core_cmSimd.h ****   return(result);
 359:C:\Users\Depes Crystalline\Desktop\school\Active_Bike_Lighting_System\Radar_Core/Libraries/CMSIS/Include\core_cmSimd.h **** }
 360:C:\Users\Depes Crystalline\Desktop\school\Active_Bike_Lighting_System\Radar_Core/Libraries/CMSIS/Include\core_cmSimd.h **** 
 361:C:\Users\Depes Crystalline\Desktop\school\Active_Bike_Lighting_System\Radar_Core/Libraries/CMSIS/Include\core_cmSimd.h **** __attribute__( ( always_inline ) ) __STATIC_INLINE uint32_t __UQASX(uint32_t op1, uint32_t op2)
 362:C:\Users\Depes Crystalline\Desktop\school\Active_Bike_Lighting_System\Radar_Core/Libraries/CMSIS/Include\core_cmSimd.h **** {
 363:C:\Users\Depes Crystalline\Desktop\school\Active_Bike_Lighting_System\Radar_Core/Libraries/CMSIS/Include\core_cmSimd.h ****   uint32_t result;
 364:C:\Users\Depes Crystalline\Desktop\school\Active_Bike_Lighting_System\Radar_Core/Libraries/CMSIS/Include\core_cmSimd.h **** 
 365:C:\Users\Depes Crystalline\Desktop\school\Active_Bike_Lighting_System\Radar_Core/Libraries/CMSIS/Include\core_cmSimd.h ****   __ASM volatile ("uqasx %0, %1, %2" : "=r" (result) : "r" (op1), "r" (op2) );
 366:C:\Users\Depes Crystalline\Desktop\school\Active_Bike_Lighting_System\Radar_Core/Libraries/CMSIS/Include\core_cmSimd.h ****   return(result);
 367:C:\Users\Depes Crystalline\Desktop\school\Active_Bike_Lighting_System\Radar_Core/Libraries/CMSIS/Include\core_cmSimd.h **** }
 368:C:\Users\Depes Crystalline\Desktop\school\Active_Bike_Lighting_System\Radar_Core/Libraries/CMSIS/Include\core_cmSimd.h **** 
 369:C:\Users\Depes Crystalline\Desktop\school\Active_Bike_Lighting_System\Radar_Core/Libraries/CMSIS/Include\core_cmSimd.h **** __attribute__( ( always_inline ) ) __STATIC_INLINE uint32_t __UHASX(uint32_t op1, uint32_t op2)
 370:C:\Users\Depes Crystalline\Desktop\school\Active_Bike_Lighting_System\Radar_Core/Libraries/CMSIS/Include\core_cmSimd.h **** {
 371:C:\Users\Depes Crystalline\Desktop\school\Active_Bike_Lighting_System\Radar_Core/Libraries/CMSIS/Include\core_cmSimd.h ****   uint32_t result;
 372:C:\Users\Depes Crystalline\Desktop\school\Active_Bike_Lighting_System\Radar_Core/Libraries/CMSIS/Include\core_cmSimd.h **** 
 373:C:\Users\Depes Crystalline\Desktop\school\Active_Bike_Lighting_System\Radar_Core/Libraries/CMSIS/Include\core_cmSimd.h ****   __ASM volatile ("uhasx %0, %1, %2" : "=r" (result) : "r" (op1), "r" (op2) );
 374:C:\Users\Depes Crystalline\Desktop\school\Active_Bike_Lighting_System\Radar_Core/Libraries/CMSIS/Include\core_cmSimd.h ****   return(result);
 375:C:\Users\Depes Crystalline\Desktop\school\Active_Bike_Lighting_System\Radar_Core/Libraries/CMSIS/Include\core_cmSimd.h **** }
 376:C:\Users\Depes Crystalline\Desktop\school\Active_Bike_Lighting_System\Radar_Core/Libraries/CMSIS/Include\core_cmSimd.h **** 
 377:C:\Users\Depes Crystalline\Desktop\school\Active_Bike_Lighting_System\Radar_Core/Libraries/CMSIS/Include\core_cmSimd.h **** __attribute__( ( always_inline ) ) __STATIC_INLINE uint32_t __SSAX(uint32_t op1, uint32_t op2)
 378:C:\Users\Depes Crystalline\Desktop\school\Active_Bike_Lighting_System\Radar_Core/Libraries/CMSIS/Include\core_cmSimd.h **** {
 379:C:\Users\Depes Crystalline\Desktop\school\Active_Bike_Lighting_System\Radar_Core/Libraries/CMSIS/Include\core_cmSimd.h ****   uint32_t result;
 380:C:\Users\Depes Crystalline\Desktop\school\Active_Bike_Lighting_System\Radar_Core/Libraries/CMSIS/Include\core_cmSimd.h **** 
 381:C:\Users\Depes Crystalline\Desktop\school\Active_Bike_Lighting_System\Radar_Core/Libraries/CMSIS/Include\core_cmSimd.h ****   __ASM volatile ("ssax %0, %1, %2" : "=r" (result) : "r" (op1), "r" (op2) );
 382:C:\Users\Depes Crystalline\Desktop\school\Active_Bike_Lighting_System\Radar_Core/Libraries/CMSIS/Include\core_cmSimd.h ****   return(result);
 383:C:\Users\Depes Crystalline\Desktop\school\Active_Bike_Lighting_System\Radar_Core/Libraries/CMSIS/Include\core_cmSimd.h **** }
 384:C:\Users\Depes Crystalline\Desktop\school\Active_Bike_Lighting_System\Radar_Core/Libraries/CMSIS/Include\core_cmSimd.h **** 
 385:C:\Users\Depes Crystalline\Desktop\school\Active_Bike_Lighting_System\Radar_Core/Libraries/CMSIS/Include\core_cmSimd.h **** __attribute__( ( always_inline ) ) __STATIC_INLINE uint32_t __QSAX(uint32_t op1, uint32_t op2)
 386:C:\Users\Depes Crystalline\Desktop\school\Active_Bike_Lighting_System\Radar_Core/Libraries/CMSIS/Include\core_cmSimd.h **** {
 387:C:\Users\Depes Crystalline\Desktop\school\Active_Bike_Lighting_System\Radar_Core/Libraries/CMSIS/Include\core_cmSimd.h ****   uint32_t result;
 388:C:\Users\Depes Crystalline\Desktop\school\Active_Bike_Lighting_System\Radar_Core/Libraries/CMSIS/Include\core_cmSimd.h **** 
 389:C:\Users\Depes Crystalline\Desktop\school\Active_Bike_Lighting_System\Radar_Core/Libraries/CMSIS/Include\core_cmSimd.h ****   __ASM volatile ("qsax %0, %1, %2" : "=r" (result) : "r" (op1), "r" (op2) );
 390:C:\Users\Depes Crystalline\Desktop\school\Active_Bike_Lighting_System\Radar_Core/Libraries/CMSIS/Include\core_cmSimd.h ****   return(result);
 391:C:\Users\Depes Crystalline\Desktop\school\Active_Bike_Lighting_System\Radar_Core/Libraries/CMSIS/Include\core_cmSimd.h **** }
 392:C:\Users\Depes Crystalline\Desktop\school\Active_Bike_Lighting_System\Radar_Core/Libraries/CMSIS/Include\core_cmSimd.h **** 
 393:C:\Users\Depes Crystalline\Desktop\school\Active_Bike_Lighting_System\Radar_Core/Libraries/CMSIS/Include\core_cmSimd.h **** __attribute__( ( always_inline ) ) __STATIC_INLINE uint32_t __SHSAX(uint32_t op1, uint32_t op2)
 394:C:\Users\Depes Crystalline\Desktop\school\Active_Bike_Lighting_System\Radar_Core/Libraries/CMSIS/Include\core_cmSimd.h **** {
 395:C:\Users\Depes Crystalline\Desktop\school\Active_Bike_Lighting_System\Radar_Core/Libraries/CMSIS/Include\core_cmSimd.h ****   uint32_t result;
 396:C:\Users\Depes Crystalline\Desktop\school\Active_Bike_Lighting_System\Radar_Core/Libraries/CMSIS/Include\core_cmSimd.h **** 
 397:C:\Users\Depes Crystalline\Desktop\school\Active_Bike_Lighting_System\Radar_Core/Libraries/CMSIS/Include\core_cmSimd.h ****   __ASM volatile ("shsax %0, %1, %2" : "=r" (result) : "r" (op1), "r" (op2) );
 398:C:\Users\Depes Crystalline\Desktop\school\Active_Bike_Lighting_System\Radar_Core/Libraries/CMSIS/Include\core_cmSimd.h ****   return(result);
 399:C:\Users\Depes Crystalline\Desktop\school\Active_Bike_Lighting_System\Radar_Core/Libraries/CMSIS/Include\core_cmSimd.h **** }
 400:C:\Users\Depes Crystalline\Desktop\school\Active_Bike_Lighting_System\Radar_Core/Libraries/CMSIS/Include\core_cmSimd.h **** 
 401:C:\Users\Depes Crystalline\Desktop\school\Active_Bike_Lighting_System\Radar_Core/Libraries/CMSIS/Include\core_cmSimd.h **** __attribute__( ( always_inline ) ) __STATIC_INLINE uint32_t __USAX(uint32_t op1, uint32_t op2)
 402:C:\Users\Depes Crystalline\Desktop\school\Active_Bike_Lighting_System\Radar_Core/Libraries/CMSIS/Include\core_cmSimd.h **** {
 403:C:\Users\Depes Crystalline\Desktop\school\Active_Bike_Lighting_System\Radar_Core/Libraries/CMSIS/Include\core_cmSimd.h ****   uint32_t result;
 404:C:\Users\Depes Crystalline\Desktop\school\Active_Bike_Lighting_System\Radar_Core/Libraries/CMSIS/Include\core_cmSimd.h **** 
 405:C:\Users\Depes Crystalline\Desktop\school\Active_Bike_Lighting_System\Radar_Core/Libraries/CMSIS/Include\core_cmSimd.h ****   __ASM volatile ("usax %0, %1, %2" : "=r" (result) : "r" (op1), "r" (op2) );
 406:C:\Users\Depes Crystalline\Desktop\school\Active_Bike_Lighting_System\Radar_Core/Libraries/CMSIS/Include\core_cmSimd.h ****   return(result);
 407:C:\Users\Depes Crystalline\Desktop\school\Active_Bike_Lighting_System\Radar_Core/Libraries/CMSIS/Include\core_cmSimd.h **** }
 408:C:\Users\Depes Crystalline\Desktop\school\Active_Bike_Lighting_System\Radar_Core/Libraries/CMSIS/Include\core_cmSimd.h **** 
 409:C:\Users\Depes Crystalline\Desktop\school\Active_Bike_Lighting_System\Radar_Core/Libraries/CMSIS/Include\core_cmSimd.h **** __attribute__( ( always_inline ) ) __STATIC_INLINE uint32_t __UQSAX(uint32_t op1, uint32_t op2)
 410:C:\Users\Depes Crystalline\Desktop\school\Active_Bike_Lighting_System\Radar_Core/Libraries/CMSIS/Include\core_cmSimd.h **** {
 411:C:\Users\Depes Crystalline\Desktop\school\Active_Bike_Lighting_System\Radar_Core/Libraries/CMSIS/Include\core_cmSimd.h ****   uint32_t result;
 412:C:\Users\Depes Crystalline\Desktop\school\Active_Bike_Lighting_System\Radar_Core/Libraries/CMSIS/Include\core_cmSimd.h **** 
 413:C:\Users\Depes Crystalline\Desktop\school\Active_Bike_Lighting_System\Radar_Core/Libraries/CMSIS/Include\core_cmSimd.h ****   __ASM volatile ("uqsax %0, %1, %2" : "=r" (result) : "r" (op1), "r" (op2) );
 414:C:\Users\Depes Crystalline\Desktop\school\Active_Bike_Lighting_System\Radar_Core/Libraries/CMSIS/Include\core_cmSimd.h ****   return(result);
 415:C:\Users\Depes Crystalline\Desktop\school\Active_Bike_Lighting_System\Radar_Core/Libraries/CMSIS/Include\core_cmSimd.h **** }
 416:C:\Users\Depes Crystalline\Desktop\school\Active_Bike_Lighting_System\Radar_Core/Libraries/CMSIS/Include\core_cmSimd.h **** 
 417:C:\Users\Depes Crystalline\Desktop\school\Active_Bike_Lighting_System\Radar_Core/Libraries/CMSIS/Include\core_cmSimd.h **** __attribute__( ( always_inline ) ) __STATIC_INLINE uint32_t __UHSAX(uint32_t op1, uint32_t op2)
 418:C:\Users\Depes Crystalline\Desktop\school\Active_Bike_Lighting_System\Radar_Core/Libraries/CMSIS/Include\core_cmSimd.h **** {
 419:C:\Users\Depes Crystalline\Desktop\school\Active_Bike_Lighting_System\Radar_Core/Libraries/CMSIS/Include\core_cmSimd.h ****   uint32_t result;
 420:C:\Users\Depes Crystalline\Desktop\school\Active_Bike_Lighting_System\Radar_Core/Libraries/CMSIS/Include\core_cmSimd.h **** 
 421:C:\Users\Depes Crystalline\Desktop\school\Active_Bike_Lighting_System\Radar_Core/Libraries/CMSIS/Include\core_cmSimd.h ****   __ASM volatile ("uhsax %0, %1, %2" : "=r" (result) : "r" (op1), "r" (op2) );
 422:C:\Users\Depes Crystalline\Desktop\school\Active_Bike_Lighting_System\Radar_Core/Libraries/CMSIS/Include\core_cmSimd.h ****   return(result);
 423:C:\Users\Depes Crystalline\Desktop\school\Active_Bike_Lighting_System\Radar_Core/Libraries/CMSIS/Include\core_cmSimd.h **** }
 424:C:\Users\Depes Crystalline\Desktop\school\Active_Bike_Lighting_System\Radar_Core/Libraries/CMSIS/Include\core_cmSimd.h **** 
 425:C:\Users\Depes Crystalline\Desktop\school\Active_Bike_Lighting_System\Radar_Core/Libraries/CMSIS/Include\core_cmSimd.h **** __attribute__( ( always_inline ) ) __STATIC_INLINE uint32_t __USAD8(uint32_t op1, uint32_t op2)
 426:C:\Users\Depes Crystalline\Desktop\school\Active_Bike_Lighting_System\Radar_Core/Libraries/CMSIS/Include\core_cmSimd.h **** {
 427:C:\Users\Depes Crystalline\Desktop\school\Active_Bike_Lighting_System\Radar_Core/Libraries/CMSIS/Include\core_cmSimd.h ****   uint32_t result;
 428:C:\Users\Depes Crystalline\Desktop\school\Active_Bike_Lighting_System\Radar_Core/Libraries/CMSIS/Include\core_cmSimd.h **** 
 429:C:\Users\Depes Crystalline\Desktop\school\Active_Bike_Lighting_System\Radar_Core/Libraries/CMSIS/Include\core_cmSimd.h ****   __ASM volatile ("usad8 %0, %1, %2" : "=r" (result) : "r" (op1), "r" (op2) );
 430:C:\Users\Depes Crystalline\Desktop\school\Active_Bike_Lighting_System\Radar_Core/Libraries/CMSIS/Include\core_cmSimd.h ****   return(result);
 431:C:\Users\Depes Crystalline\Desktop\school\Active_Bike_Lighting_System\Radar_Core/Libraries/CMSIS/Include\core_cmSimd.h **** }
 432:C:\Users\Depes Crystalline\Desktop\school\Active_Bike_Lighting_System\Radar_Core/Libraries/CMSIS/Include\core_cmSimd.h **** 
 433:C:\Users\Depes Crystalline\Desktop\school\Active_Bike_Lighting_System\Radar_Core/Libraries/CMSIS/Include\core_cmSimd.h **** __attribute__( ( always_inline ) ) __STATIC_INLINE uint32_t __USADA8(uint32_t op1, uint32_t op2, ui
 434:C:\Users\Depes Crystalline\Desktop\school\Active_Bike_Lighting_System\Radar_Core/Libraries/CMSIS/Include\core_cmSimd.h **** {
 435:C:\Users\Depes Crystalline\Desktop\school\Active_Bike_Lighting_System\Radar_Core/Libraries/CMSIS/Include\core_cmSimd.h ****   uint32_t result;
 436:C:\Users\Depes Crystalline\Desktop\school\Active_Bike_Lighting_System\Radar_Core/Libraries/CMSIS/Include\core_cmSimd.h **** 
 437:C:\Users\Depes Crystalline\Desktop\school\Active_Bike_Lighting_System\Radar_Core/Libraries/CMSIS/Include\core_cmSimd.h ****   __ASM volatile ("usada8 %0, %1, %2, %3" : "=r" (result) : "r" (op1), "r" (op2), "r" (op3) );
 438:C:\Users\Depes Crystalline\Desktop\school\Active_Bike_Lighting_System\Radar_Core/Libraries/CMSIS/Include\core_cmSimd.h ****   return(result);
 439:C:\Users\Depes Crystalline\Desktop\school\Active_Bike_Lighting_System\Radar_Core/Libraries/CMSIS/Include\core_cmSimd.h **** }
 440:C:\Users\Depes Crystalline\Desktop\school\Active_Bike_Lighting_System\Radar_Core/Libraries/CMSIS/Include\core_cmSimd.h **** 
 441:C:\Users\Depes Crystalline\Desktop\school\Active_Bike_Lighting_System\Radar_Core/Libraries/CMSIS/Include\core_cmSimd.h **** #define __SSAT16(ARG1,ARG2) \
 442:C:\Users\Depes Crystalline\Desktop\school\Active_Bike_Lighting_System\Radar_Core/Libraries/CMSIS/Include\core_cmSimd.h **** ({                          \
 443:C:\Users\Depes Crystalline\Desktop\school\Active_Bike_Lighting_System\Radar_Core/Libraries/CMSIS/Include\core_cmSimd.h ****   uint32_t __RES, __ARG1 = (ARG1); \
 444:C:\Users\Depes Crystalline\Desktop\school\Active_Bike_Lighting_System\Radar_Core/Libraries/CMSIS/Include\core_cmSimd.h ****   __ASM ("ssat16 %0, %1, %2" : "=r" (__RES) :  "I" (ARG2), "r" (__ARG1) ); \
 445:C:\Users\Depes Crystalline\Desktop\school\Active_Bike_Lighting_System\Radar_Core/Libraries/CMSIS/Include\core_cmSimd.h ****   __RES; \
 446:C:\Users\Depes Crystalline\Desktop\school\Active_Bike_Lighting_System\Radar_Core/Libraries/CMSIS/Include\core_cmSimd.h ****  })
 447:C:\Users\Depes Crystalline\Desktop\school\Active_Bike_Lighting_System\Radar_Core/Libraries/CMSIS/Include\core_cmSimd.h **** 
 448:C:\Users\Depes Crystalline\Desktop\school\Active_Bike_Lighting_System\Radar_Core/Libraries/CMSIS/Include\core_cmSimd.h **** #define __USAT16(ARG1,ARG2) \
 449:C:\Users\Depes Crystalline\Desktop\school\Active_Bike_Lighting_System\Radar_Core/Libraries/CMSIS/Include\core_cmSimd.h **** ({                          \
 450:C:\Users\Depes Crystalline\Desktop\school\Active_Bike_Lighting_System\Radar_Core/Libraries/CMSIS/Include\core_cmSimd.h ****   uint32_t __RES, __ARG1 = (ARG1); \
 451:C:\Users\Depes Crystalline\Desktop\school\Active_Bike_Lighting_System\Radar_Core/Libraries/CMSIS/Include\core_cmSimd.h ****   __ASM ("usat16 %0, %1, %2" : "=r" (__RES) :  "I" (ARG2), "r" (__ARG1) ); \
 452:C:\Users\Depes Crystalline\Desktop\school\Active_Bike_Lighting_System\Radar_Core/Libraries/CMSIS/Include\core_cmSimd.h ****   __RES; \
 453:C:\Users\Depes Crystalline\Desktop\school\Active_Bike_Lighting_System\Radar_Core/Libraries/CMSIS/Include\core_cmSimd.h ****  })
 454:C:\Users\Depes Crystalline\Desktop\school\Active_Bike_Lighting_System\Radar_Core/Libraries/CMSIS/Include\core_cmSimd.h **** 
 455:C:\Users\Depes Crystalline\Desktop\school\Active_Bike_Lighting_System\Radar_Core/Libraries/CMSIS/Include\core_cmSimd.h **** __attribute__( ( always_inline ) ) __STATIC_INLINE uint32_t __UXTB16(uint32_t op1)
 456:C:\Users\Depes Crystalline\Desktop\school\Active_Bike_Lighting_System\Radar_Core/Libraries/CMSIS/Include\core_cmSimd.h **** {
 457:C:\Users\Depes Crystalline\Desktop\school\Active_Bike_Lighting_System\Radar_Core/Libraries/CMSIS/Include\core_cmSimd.h ****   uint32_t result;
 458:C:\Users\Depes Crystalline\Desktop\school\Active_Bike_Lighting_System\Radar_Core/Libraries/CMSIS/Include\core_cmSimd.h **** 
 459:C:\Users\Depes Crystalline\Desktop\school\Active_Bike_Lighting_System\Radar_Core/Libraries/CMSIS/Include\core_cmSimd.h ****   __ASM volatile ("uxtb16 %0, %1" : "=r" (result) : "r" (op1));
 460:C:\Users\Depes Crystalline\Desktop\school\Active_Bike_Lighting_System\Radar_Core/Libraries/CMSIS/Include\core_cmSimd.h ****   return(result);
 461:C:\Users\Depes Crystalline\Desktop\school\Active_Bike_Lighting_System\Radar_Core/Libraries/CMSIS/Include\core_cmSimd.h **** }
 462:C:\Users\Depes Crystalline\Desktop\school\Active_Bike_Lighting_System\Radar_Core/Libraries/CMSIS/Include\core_cmSimd.h **** 
 463:C:\Users\Depes Crystalline\Desktop\school\Active_Bike_Lighting_System\Radar_Core/Libraries/CMSIS/Include\core_cmSimd.h **** __attribute__( ( always_inline ) ) __STATIC_INLINE uint32_t __UXTAB16(uint32_t op1, uint32_t op2)
 464:C:\Users\Depes Crystalline\Desktop\school\Active_Bike_Lighting_System\Radar_Core/Libraries/CMSIS/Include\core_cmSimd.h **** {
 465:C:\Users\Depes Crystalline\Desktop\school\Active_Bike_Lighting_System\Radar_Core/Libraries/CMSIS/Include\core_cmSimd.h ****   uint32_t result;
 466:C:\Users\Depes Crystalline\Desktop\school\Active_Bike_Lighting_System\Radar_Core/Libraries/CMSIS/Include\core_cmSimd.h **** 
 467:C:\Users\Depes Crystalline\Desktop\school\Active_Bike_Lighting_System\Radar_Core/Libraries/CMSIS/Include\core_cmSimd.h ****   __ASM volatile ("uxtab16 %0, %1, %2" : "=r" (result) : "r" (op1), "r" (op2) );
 468:C:\Users\Depes Crystalline\Desktop\school\Active_Bike_Lighting_System\Radar_Core/Libraries/CMSIS/Include\core_cmSimd.h ****   return(result);
 469:C:\Users\Depes Crystalline\Desktop\school\Active_Bike_Lighting_System\Radar_Core/Libraries/CMSIS/Include\core_cmSimd.h **** }
 470:C:\Users\Depes Crystalline\Desktop\school\Active_Bike_Lighting_System\Radar_Core/Libraries/CMSIS/Include\core_cmSimd.h **** 
 471:C:\Users\Depes Crystalline\Desktop\school\Active_Bike_Lighting_System\Radar_Core/Libraries/CMSIS/Include\core_cmSimd.h **** __attribute__( ( always_inline ) ) __STATIC_INLINE uint32_t __SXTB16(uint32_t op1)
 472:C:\Users\Depes Crystalline\Desktop\school\Active_Bike_Lighting_System\Radar_Core/Libraries/CMSIS/Include\core_cmSimd.h **** {
 473:C:\Users\Depes Crystalline\Desktop\school\Active_Bike_Lighting_System\Radar_Core/Libraries/CMSIS/Include\core_cmSimd.h ****   uint32_t result;
 474:C:\Users\Depes Crystalline\Desktop\school\Active_Bike_Lighting_System\Radar_Core/Libraries/CMSIS/Include\core_cmSimd.h **** 
 475:C:\Users\Depes Crystalline\Desktop\school\Active_Bike_Lighting_System\Radar_Core/Libraries/CMSIS/Include\core_cmSimd.h ****   __ASM volatile ("sxtb16 %0, %1" : "=r" (result) : "r" (op1));
 476:C:\Users\Depes Crystalline\Desktop\school\Active_Bike_Lighting_System\Radar_Core/Libraries/CMSIS/Include\core_cmSimd.h ****   return(result);
 477:C:\Users\Depes Crystalline\Desktop\school\Active_Bike_Lighting_System\Radar_Core/Libraries/CMSIS/Include\core_cmSimd.h **** }
 478:C:\Users\Depes Crystalline\Desktop\school\Active_Bike_Lighting_System\Radar_Core/Libraries/CMSIS/Include\core_cmSimd.h **** 
 479:C:\Users\Depes Crystalline\Desktop\school\Active_Bike_Lighting_System\Radar_Core/Libraries/CMSIS/Include\core_cmSimd.h **** __attribute__( ( always_inline ) ) __STATIC_INLINE uint32_t __SXTAB16(uint32_t op1, uint32_t op2)
 480:C:\Users\Depes Crystalline\Desktop\school\Active_Bike_Lighting_System\Radar_Core/Libraries/CMSIS/Include\core_cmSimd.h **** {
 481:C:\Users\Depes Crystalline\Desktop\school\Active_Bike_Lighting_System\Radar_Core/Libraries/CMSIS/Include\core_cmSimd.h ****   uint32_t result;
 482:C:\Users\Depes Crystalline\Desktop\school\Active_Bike_Lighting_System\Radar_Core/Libraries/CMSIS/Include\core_cmSimd.h **** 
 483:C:\Users\Depes Crystalline\Desktop\school\Active_Bike_Lighting_System\Radar_Core/Libraries/CMSIS/Include\core_cmSimd.h ****   __ASM volatile ("sxtab16 %0, %1, %2" : "=r" (result) : "r" (op1), "r" (op2) );
 484:C:\Users\Depes Crystalline\Desktop\school\Active_Bike_Lighting_System\Radar_Core/Libraries/CMSIS/Include\core_cmSimd.h ****   return(result);
 485:C:\Users\Depes Crystalline\Desktop\school\Active_Bike_Lighting_System\Radar_Core/Libraries/CMSIS/Include\core_cmSimd.h **** }
 486:C:\Users\Depes Crystalline\Desktop\school\Active_Bike_Lighting_System\Radar_Core/Libraries/CMSIS/Include\core_cmSimd.h **** 
 487:C:\Users\Depes Crystalline\Desktop\school\Active_Bike_Lighting_System\Radar_Core/Libraries/CMSIS/Include\core_cmSimd.h **** __attribute__( ( always_inline ) ) __STATIC_INLINE uint32_t __SMUAD  (uint32_t op1, uint32_t op2)
 488:C:\Users\Depes Crystalline\Desktop\school\Active_Bike_Lighting_System\Radar_Core/Libraries/CMSIS/Include\core_cmSimd.h **** {
 489:C:\Users\Depes Crystalline\Desktop\school\Active_Bike_Lighting_System\Radar_Core/Libraries/CMSIS/Include\core_cmSimd.h ****   uint32_t result;
 490:C:\Users\Depes Crystalline\Desktop\school\Active_Bike_Lighting_System\Radar_Core/Libraries/CMSIS/Include\core_cmSimd.h **** 
 491:C:\Users\Depes Crystalline\Desktop\school\Active_Bike_Lighting_System\Radar_Core/Libraries/CMSIS/Include\core_cmSimd.h ****   __ASM volatile ("smuad %0, %1, %2" : "=r" (result) : "r" (op1), "r" (op2) );
 492:C:\Users\Depes Crystalline\Desktop\school\Active_Bike_Lighting_System\Radar_Core/Libraries/CMSIS/Include\core_cmSimd.h ****   return(result);
 493:C:\Users\Depes Crystalline\Desktop\school\Active_Bike_Lighting_System\Radar_Core/Libraries/CMSIS/Include\core_cmSimd.h **** }
 494:C:\Users\Depes Crystalline\Desktop\school\Active_Bike_Lighting_System\Radar_Core/Libraries/CMSIS/Include\core_cmSimd.h **** 
 495:C:\Users\Depes Crystalline\Desktop\school\Active_Bike_Lighting_System\Radar_Core/Libraries/CMSIS/Include\core_cmSimd.h **** __attribute__( ( always_inline ) ) __STATIC_INLINE uint32_t __SMUADX (uint32_t op1, uint32_t op2)
 496:C:\Users\Depes Crystalline\Desktop\school\Active_Bike_Lighting_System\Radar_Core/Libraries/CMSIS/Include\core_cmSimd.h **** {
 497:C:\Users\Depes Crystalline\Desktop\school\Active_Bike_Lighting_System\Radar_Core/Libraries/CMSIS/Include\core_cmSimd.h ****   uint32_t result;
 498:C:\Users\Depes Crystalline\Desktop\school\Active_Bike_Lighting_System\Radar_Core/Libraries/CMSIS/Include\core_cmSimd.h **** 
 499:C:\Users\Depes Crystalline\Desktop\school\Active_Bike_Lighting_System\Radar_Core/Libraries/CMSIS/Include\core_cmSimd.h ****   __ASM volatile ("smuadx %0, %1, %2" : "=r" (result) : "r" (op1), "r" (op2) );
 500:C:\Users\Depes Crystalline\Desktop\school\Active_Bike_Lighting_System\Radar_Core/Libraries/CMSIS/Include\core_cmSimd.h ****   return(result);
 501:C:\Users\Depes Crystalline\Desktop\school\Active_Bike_Lighting_System\Radar_Core/Libraries/CMSIS/Include\core_cmSimd.h **** }
 502:C:\Users\Depes Crystalline\Desktop\school\Active_Bike_Lighting_System\Radar_Core/Libraries/CMSIS/Include\core_cmSimd.h **** 
 503:C:\Users\Depes Crystalline\Desktop\school\Active_Bike_Lighting_System\Radar_Core/Libraries/CMSIS/Include\core_cmSimd.h **** __attribute__( ( always_inline ) ) __STATIC_INLINE uint32_t __SMLAD (uint32_t op1, uint32_t op2, ui
 504:C:\Users\Depes Crystalline\Desktop\school\Active_Bike_Lighting_System\Radar_Core/Libraries/CMSIS/Include\core_cmSimd.h **** {
 505:C:\Users\Depes Crystalline\Desktop\school\Active_Bike_Lighting_System\Radar_Core/Libraries/CMSIS/Include\core_cmSimd.h ****   uint32_t result;
 506:C:\Users\Depes Crystalline\Desktop\school\Active_Bike_Lighting_System\Radar_Core/Libraries/CMSIS/Include\core_cmSimd.h **** 
 507:C:\Users\Depes Crystalline\Desktop\school\Active_Bike_Lighting_System\Radar_Core/Libraries/CMSIS/Include\core_cmSimd.h ****   __ASM volatile ("smlad %0, %1, %2, %3" : "=r" (result) : "r" (op1), "r" (op2), "r" (op3) );
 260              	 .loc 2 507 0
 261 01dc D7F81832 	 ldr r3,[r7,#536]
 262 01e0 D7F81422 	 ldr r2,[r7,#532]
 263 01e4 D7F81012 	 ldr r1,[r7,#528]
 264              	
 265 01e8 23FB0213 	 smlad r3,r3,r2,r1
 266              	
 267              	 .thumb
 268 01ec C7F80C32 	 str r3,[r7,#524]
 508:C:\Users\Depes Crystalline\Desktop\school\Active_Bike_Lighting_System\Radar_Core/Libraries/CMSIS/Include\core_cmSimd.h ****   return(result);
 269              	 .loc 2 508 0
 270 01f0 D7F80C32 	 ldr r3,[r7,#524]
 271              	.LBE69:
 272              	.LBE68:
 273              	 .loc 1 193 0
 274 01f4 C7F88432 	 str r3,[r7,#644]
 194:../Dave/Generated/CMSIS_DSP/FilteringFunctions/arm_conv_partial_fast_q15.c **** 
 195:../Dave/Generated/CMSIS_DSP/FilteringFunctions/arm_conv_partial_fast_q15.c ****         /* Decrement the loop counter */
 196:../Dave/Generated/CMSIS_DSP/FilteringFunctions/arm_conv_partial_fast_q15.c ****         k--;
 275              	 .loc 1 196 0
 276 01f8 D7F85C32 	 ldr r3,[r7,#604]
 277 01fc 013B     	 subs r3,r3,#1
 278 01fe C7F85C32 	 str r3,[r7,#604]
 279              	.L15:
 190:../Dave/Generated/CMSIS_DSP/FilteringFunctions/arm_conv_partial_fast_q15.c ****       {
 280              	 .loc 1 190 0
 281 0202 D7F85C32 	 ldr r3,[r7,#604]
 282 0206 002B     	 cmp r3,#0
 283 0208 CED1     	 bne .L17
 197:../Dave/Generated/CMSIS_DSP/FilteringFunctions/arm_conv_partial_fast_q15.c ****       }
 198:../Dave/Generated/CMSIS_DSP/FilteringFunctions/arm_conv_partial_fast_q15.c **** 
 199:../Dave/Generated/CMSIS_DSP/FilteringFunctions/arm_conv_partial_fast_q15.c ****       /* Store the result in the accumulator in the destination buffer. */
 200:../Dave/Generated/CMSIS_DSP/FilteringFunctions/arm_conv_partial_fast_q15.c ****       *pOut++ = (q15_t) (sum >> 15);
 284              	 .loc 1 200 0
 285 020a 07F11803 	 add r3,r7,#24
 286 020e 1B68     	 ldr r3,[r3]
 287 0210 991C     	 adds r1,r3,#2
 288 0212 07F11802 	 add r2,r7,#24
 289 0216 1160     	 str r1,[r2]
 290 0218 D7F88422 	 ldr r2,[r7,#644]
 291 021c D213     	 asrs r2,r2,#15
 292 021e 92B2     	 uxth r2,r2
 293 0220 1A80     	 strh r2,[r3]
 201:../Dave/Generated/CMSIS_DSP/FilteringFunctions/arm_conv_partial_fast_q15.c **** 
 202:../Dave/Generated/CMSIS_DSP/FilteringFunctions/arm_conv_partial_fast_q15.c ****       /* Update the inputA and inputB pointers for next MAC calculation */
 203:../Dave/Generated/CMSIS_DSP/FilteringFunctions/arm_conv_partial_fast_q15.c ****       py = ++pSrc2;
 294              	 .loc 1 203 0
 295 0222 D7F86C32 	 ldr r3,[r7,#620]
 296 0226 0233     	 adds r3,r3,#2
 297 0228 C7F86C32 	 str r3,[r7,#620]
 298 022c 07F11003 	 add r3,r7,#16
 299 0230 D7F86C22 	 ldr r2,[r7,#620]
 300 0234 1A60     	 str r2,[r3]
 204:../Dave/Generated/CMSIS_DSP/FilteringFunctions/arm_conv_partial_fast_q15.c ****       px = pIn1;
 301              	 .loc 1 204 0
 302 0236 07F11403 	 add r3,r7,#20
 303 023a D7F88C22 	 ldr r2,[r7,#652]
 304 023e 1A60     	 str r2,[r3]
 205:../Dave/Generated/CMSIS_DSP/FilteringFunctions/arm_conv_partial_fast_q15.c **** 
 206:../Dave/Generated/CMSIS_DSP/FilteringFunctions/arm_conv_partial_fast_q15.c ****       /* Increment the MAC count */
 207:../Dave/Generated/CMSIS_DSP/FilteringFunctions/arm_conv_partial_fast_q15.c ****       count++;
 305              	 .loc 1 207 0
 306 0240 D7F85832 	 ldr r3,[r7,#600]
 307 0244 0133     	 adds r3,r3,#1
 308 0246 C7F85832 	 str r3,[r7,#600]
 208:../Dave/Generated/CMSIS_DSP/FilteringFunctions/arm_conv_partial_fast_q15.c **** 
 209:../Dave/Generated/CMSIS_DSP/FilteringFunctions/arm_conv_partial_fast_q15.c ****       /* Decrement the loop counter */
 210:../Dave/Generated/CMSIS_DSP/FilteringFunctions/arm_conv_partial_fast_q15.c ****       blockSize1--;
 309              	 .loc 1 210 0
 310 024a D7F85032 	 ldr r3,[r7,#592]
 311 024e 013B     	 subs r3,r3,#1
 312 0250 C7F85032 	 str r3,[r7,#592]
 313              	.L14:
 181:../Dave/Generated/CMSIS_DSP/FilteringFunctions/arm_conv_partial_fast_q15.c ****     {
 314              	 .loc 1 181 0
 315 0254 D7F85832 	 ldr r3,[r7,#600]
 316 0258 032B     	 cmp r3,#3
 317 025a 03D8     	 bhi .L18
 181:../Dave/Generated/CMSIS_DSP/FilteringFunctions/arm_conv_partial_fast_q15.c ****     {
 318              	 .loc 1 181 0 is_stmt 0 discriminator 1
 319 025c D7F85032 	 ldr r3,[r7,#592]
 320 0260 002B     	 cmp r3,#0
 321 0262 99DC     	 bgt .L19
 322              	.L18:
 211:../Dave/Generated/CMSIS_DSP/FilteringFunctions/arm_conv_partial_fast_q15.c ****     }
 212:../Dave/Generated/CMSIS_DSP/FilteringFunctions/arm_conv_partial_fast_q15.c **** 
 213:../Dave/Generated/CMSIS_DSP/FilteringFunctions/arm_conv_partial_fast_q15.c ****     /* The second part of the stage starts here */
 214:../Dave/Generated/CMSIS_DSP/FilteringFunctions/arm_conv_partial_fast_q15.c ****     /* The internal loop, over count, is unrolled by 4 */
 215:../Dave/Generated/CMSIS_DSP/FilteringFunctions/arm_conv_partial_fast_q15.c ****     /* To, read the last two inputB samples using SIMD:   
 216:../Dave/Generated/CMSIS_DSP/FilteringFunctions/arm_conv_partial_fast_q15.c ****      * y[srcBLen] and y[srcBLen-1] coefficients, py is decremented by 1 */
 217:../Dave/Generated/CMSIS_DSP/FilteringFunctions/arm_conv_partial_fast_q15.c ****     py = py - 1;
 323              	 .loc 1 217 0 is_stmt 1
 324 0264 07F11003 	 add r3,r7,#16
 325 0268 1B68     	 ldr r3,[r3]
 326 026a 9A1E     	 subs r2,r3,#2
 327 026c 07F11003 	 add r3,r7,#16
 328 0270 1A60     	 str r2,[r3]
 218:../Dave/Generated/CMSIS_DSP/FilteringFunctions/arm_conv_partial_fast_q15.c **** 
 219:../Dave/Generated/CMSIS_DSP/FilteringFunctions/arm_conv_partial_fast_q15.c ****     while(blockSize1 > 0)
 329              	 .loc 1 219 0
 330 0272 BEE0     	 b .L20
 331              	.L28:
 220:../Dave/Generated/CMSIS_DSP/FilteringFunctions/arm_conv_partial_fast_q15.c ****     {
 221:../Dave/Generated/CMSIS_DSP/FilteringFunctions/arm_conv_partial_fast_q15.c ****       /* Accumulator is made zero for every iteration */
 222:../Dave/Generated/CMSIS_DSP/FilteringFunctions/arm_conv_partial_fast_q15.c ****       sum = 0;
 332              	 .loc 1 222 0
 333 0274 0023     	 movs r3,#0
 334 0276 C7F88432 	 str r3,[r7,#644]
 223:../Dave/Generated/CMSIS_DSP/FilteringFunctions/arm_conv_partial_fast_q15.c **** 
 224:../Dave/Generated/CMSIS_DSP/FilteringFunctions/arm_conv_partial_fast_q15.c ****       /* Apply loop unrolling and compute 4 MACs simultaneously. */
 225:../Dave/Generated/CMSIS_DSP/FilteringFunctions/arm_conv_partial_fast_q15.c ****       k = count >> 2u;
 335              	 .loc 1 225 0
 336 027a D7F85832 	 ldr r3,[r7,#600]
 337 027e 9B08     	 lsrs r3,r3,#2
 338 0280 C7F85C32 	 str r3,[r7,#604]
 226:../Dave/Generated/CMSIS_DSP/FilteringFunctions/arm_conv_partial_fast_q15.c **** 
 227:../Dave/Generated/CMSIS_DSP/FilteringFunctions/arm_conv_partial_fast_q15.c ****       /* First part of the processing with loop unrolling.  Compute 4 MACs at a time.   
 228:../Dave/Generated/CMSIS_DSP/FilteringFunctions/arm_conv_partial_fast_q15.c ****        ** a second loop below computes MACs for the remaining 1 to 3 samples. */
 229:../Dave/Generated/CMSIS_DSP/FilteringFunctions/arm_conv_partial_fast_q15.c ****       while(k > 0u)
 339              	 .loc 1 229 0
 340 0284 4CE0     	 b .L21
 341              	.L24:
 230:../Dave/Generated/CMSIS_DSP/FilteringFunctions/arm_conv_partial_fast_q15.c ****       {
 231:../Dave/Generated/CMSIS_DSP/FilteringFunctions/arm_conv_partial_fast_q15.c ****         /* Perform the multiply-accumulates */
 232:../Dave/Generated/CMSIS_DSP/FilteringFunctions/arm_conv_partial_fast_q15.c ****         /* x[0], x[1] are multiplied with y[srcBLen - 1], y[srcBLen - 2] respectively */
 233:../Dave/Generated/CMSIS_DSP/FilteringFunctions/arm_conv_partial_fast_q15.c ****         sum = __SMLADX(*__SIMD32(px)++, *__SIMD32(py)--, sum);
 342              	 .loc 1 233 0
 343 0286 07F11402 	 add r2,r7,#20
 344 028a 1368     	 ldr r3,[r2]
 345 028c 191D     	 adds r1,r3,#4
 346 028e 1160     	 str r1,[r2]
 347 0290 1B68     	 ldr r3,[r3]
 348 0292 1846     	 mov r0,r3
 349 0294 07F11002 	 add r2,r7,#16
 350 0298 1368     	 ldr r3,[r2]
 351 029a 191F     	 subs r1,r3,#4
 352 029c 1160     	 str r1,[r2]
 353 029e 1B68     	 ldr r3,[r3]
 354 02a0 1A46     	 mov r2,r3
 355 02a2 D7F88432 	 ldr r3,[r7,#644]
 356 02a6 C7F80802 	 str r0,[r7,#520]
 357 02aa C7F80422 	 str r2,[r7,#516]
 358 02ae C7F80032 	 str r3,[r7,#512]
 359              	.LBB70:
 360              	.LBB71:
 509:C:\Users\Depes Crystalline\Desktop\school\Active_Bike_Lighting_System\Radar_Core/Libraries/CMSIS/Include\core_cmSimd.h **** }
 510:C:\Users\Depes Crystalline\Desktop\school\Active_Bike_Lighting_System\Radar_Core/Libraries/CMSIS/Include\core_cmSimd.h **** 
 511:C:\Users\Depes Crystalline\Desktop\school\Active_Bike_Lighting_System\Radar_Core/Libraries/CMSIS/Include\core_cmSimd.h **** __attribute__( ( always_inline ) ) __STATIC_INLINE uint32_t __SMLADX (uint32_t op1, uint32_t op2, u
 512:C:\Users\Depes Crystalline\Desktop\school\Active_Bike_Lighting_System\Radar_Core/Libraries/CMSIS/Include\core_cmSimd.h **** {
 513:C:\Users\Depes Crystalline\Desktop\school\Active_Bike_Lighting_System\Radar_Core/Libraries/CMSIS/Include\core_cmSimd.h ****   uint32_t result;
 514:C:\Users\Depes Crystalline\Desktop\school\Active_Bike_Lighting_System\Radar_Core/Libraries/CMSIS/Include\core_cmSimd.h **** 
 515:C:\Users\Depes Crystalline\Desktop\school\Active_Bike_Lighting_System\Radar_Core/Libraries/CMSIS/Include\core_cmSimd.h ****   __ASM volatile ("smladx %0, %1, %2, %3" : "=r" (result) : "r" (op1), "r" (op2), "r" (op3) );
 361              	 .loc 2 515 0
 362 02b2 D7F80832 	 ldr r3,[r7,#520]
 363 02b6 D7F80422 	 ldr r2,[r7,#516]
 364 02ba D7F80012 	 ldr r1,[r7,#512]
 365              	
 366 02be 23FB1213 	 smladx r3,r3,r2,r1
 367              	
 368              	 .thumb
 369 02c2 C7F8FC31 	 str r3,[r7,#508]
 516:C:\Users\Depes Crystalline\Desktop\school\Active_Bike_Lighting_System\Radar_Core/Libraries/CMSIS/Include\core_cmSimd.h ****   return(result);
 370              	 .loc 2 516 0
 371 02c6 D7F8FC31 	 ldr r3,[r7,#508]
 372              	.LBE71:
 373              	.LBE70:
 374              	 .loc 1 233 0
 375 02ca C7F88432 	 str r3,[r7,#644]
 234:../Dave/Generated/CMSIS_DSP/FilteringFunctions/arm_conv_partial_fast_q15.c ****         /* x[2], x[3] are multiplied with y[srcBLen - 3], y[srcBLen - 4] respectively */
 235:../Dave/Generated/CMSIS_DSP/FilteringFunctions/arm_conv_partial_fast_q15.c ****         sum = __SMLADX(*__SIMD32(px)++, *__SIMD32(py)--, sum);
 376              	 .loc 1 235 0
 377 02ce 07F11402 	 add r2,r7,#20
 378 02d2 1368     	 ldr r3,[r2]
 379 02d4 191D     	 adds r1,r3,#4
 380 02d6 1160     	 str r1,[r2]
 381 02d8 1B68     	 ldr r3,[r3]
 382 02da 1846     	 mov r0,r3
 383 02dc 07F11002 	 add r2,r7,#16
 384 02e0 1368     	 ldr r3,[r2]
 385 02e2 191F     	 subs r1,r3,#4
 386 02e4 1160     	 str r1,[r2]
 387 02e6 1B68     	 ldr r3,[r3]
 388 02e8 1A46     	 mov r2,r3
 389 02ea D7F88432 	 ldr r3,[r7,#644]
 390 02ee C7F8F801 	 str r0,[r7,#504]
 391 02f2 C7F8F421 	 str r2,[r7,#500]
 392 02f6 C7F8F031 	 str r3,[r7,#496]
 393              	.LBB72:
 394              	.LBB73:
 515:C:\Users\Depes Crystalline\Desktop\school\Active_Bike_Lighting_System\Radar_Core/Libraries/CMSIS/Include\core_cmSimd.h ****   return(result);
 395              	 .loc 2 515 0
 396 02fa D7F8F831 	 ldr r3,[r7,#504]
 397 02fe D7F8F421 	 ldr r2,[r7,#500]
 398 0302 D7F8F011 	 ldr r1,[r7,#496]
 399              	
 400 0306 23FB1213 	 smladx r3,r3,r2,r1
 401              	
 402              	 .thumb
 403 030a C7F8EC31 	 str r3,[r7,#492]
 404              	 .loc 2 516 0
 405 030e D7F8EC31 	 ldr r3,[r7,#492]
 406              	.LBE73:
 407              	.LBE72:
 408              	 .loc 1 235 0
 409 0312 C7F88432 	 str r3,[r7,#644]
 236:../Dave/Generated/CMSIS_DSP/FilteringFunctions/arm_conv_partial_fast_q15.c **** 
 237:../Dave/Generated/CMSIS_DSP/FilteringFunctions/arm_conv_partial_fast_q15.c ****         /* Decrement the loop counter */
 238:../Dave/Generated/CMSIS_DSP/FilteringFunctions/arm_conv_partial_fast_q15.c ****         k--;
 410              	 .loc 1 238 0
 411 0316 D7F85C32 	 ldr r3,[r7,#604]
 412 031a 013B     	 subs r3,r3,#1
 413 031c C7F85C32 	 str r3,[r7,#604]
 414              	.L21:
 229:../Dave/Generated/CMSIS_DSP/FilteringFunctions/arm_conv_partial_fast_q15.c ****       {
 415              	 .loc 1 229 0
 416 0320 D7F85C32 	 ldr r3,[r7,#604]
 417 0324 002B     	 cmp r3,#0
 418 0326 AED1     	 bne .L24
 239:../Dave/Generated/CMSIS_DSP/FilteringFunctions/arm_conv_partial_fast_q15.c ****       }
 240:../Dave/Generated/CMSIS_DSP/FilteringFunctions/arm_conv_partial_fast_q15.c **** 
 241:../Dave/Generated/CMSIS_DSP/FilteringFunctions/arm_conv_partial_fast_q15.c ****       /* For the next MAC operations, the pointer py is used without SIMD   
 242:../Dave/Generated/CMSIS_DSP/FilteringFunctions/arm_conv_partial_fast_q15.c ****        * So, py is incremented by 1 */
 243:../Dave/Generated/CMSIS_DSP/FilteringFunctions/arm_conv_partial_fast_q15.c ****       py = py + 1u;
 419              	 .loc 1 243 0
 420 0328 07F11003 	 add r3,r7,#16
 421 032c 1B68     	 ldr r3,[r3]
 422 032e 9A1C     	 adds r2,r3,#2
 423 0330 07F11003 	 add r3,r7,#16
 424 0334 1A60     	 str r2,[r3]
 244:../Dave/Generated/CMSIS_DSP/FilteringFunctions/arm_conv_partial_fast_q15.c **** 
 245:../Dave/Generated/CMSIS_DSP/FilteringFunctions/arm_conv_partial_fast_q15.c ****       /* If the count is not a multiple of 4, compute any remaining MACs here.   
 246:../Dave/Generated/CMSIS_DSP/FilteringFunctions/arm_conv_partial_fast_q15.c ****        ** No loop unrolling is used. */
 247:../Dave/Generated/CMSIS_DSP/FilteringFunctions/arm_conv_partial_fast_q15.c ****       k = count % 0x4u;
 425              	 .loc 1 247 0
 426 0336 D7F85832 	 ldr r3,[r7,#600]
 427 033a 03F00303 	 and r3,r3,#3
 428 033e C7F85C32 	 str r3,[r7,#604]
 248:../Dave/Generated/CMSIS_DSP/FilteringFunctions/arm_conv_partial_fast_q15.c **** 
 249:../Dave/Generated/CMSIS_DSP/FilteringFunctions/arm_conv_partial_fast_q15.c ****       while(k > 0u)
 429              	 .loc 1 249 0
 430 0342 2CE0     	 b .L25
 431              	.L27:
 250:../Dave/Generated/CMSIS_DSP/FilteringFunctions/arm_conv_partial_fast_q15.c ****       {
 251:../Dave/Generated/CMSIS_DSP/FilteringFunctions/arm_conv_partial_fast_q15.c ****         /* Perform the multiply-accumulates */
 252:../Dave/Generated/CMSIS_DSP/FilteringFunctions/arm_conv_partial_fast_q15.c ****         sum = __SMLAD(*px++, *py--, sum);
 432              	 .loc 1 252 0
 433 0344 07F11403 	 add r3,r7,#20
 434 0348 1B68     	 ldr r3,[r3]
 435 034a 991C     	 adds r1,r3,#2
 436 034c 07F11402 	 add r2,r7,#20
 437 0350 1160     	 str r1,[r2]
 438 0352 1B88     	 ldrh r3,[r3]
 439 0354 19B2     	 sxth r1,r3
 440 0356 07F11003 	 add r3,r7,#16
 441 035a 1B68     	 ldr r3,[r3]
 442 035c 981E     	 subs r0,r3,#2
 443 035e 07F11002 	 add r2,r7,#16
 444 0362 1060     	 str r0,[r2]
 445 0364 1B88     	 ldrh r3,[r3]
 446 0366 1AB2     	 sxth r2,r3
 447 0368 D7F88432 	 ldr r3,[r7,#644]
 448 036c C7F8E811 	 str r1,[r7,#488]
 449 0370 C7F8E421 	 str r2,[r7,#484]
 450 0374 C7F8E031 	 str r3,[r7,#480]
 451              	.LBB74:
 452              	.LBB75:
 507:C:\Users\Depes Crystalline\Desktop\school\Active_Bike_Lighting_System\Radar_Core/Libraries/CMSIS/Include\core_cmSimd.h ****   return(result);
 453              	 .loc 2 507 0
 454 0378 D7F8E831 	 ldr r3,[r7,#488]
 455 037c D7F8E421 	 ldr r2,[r7,#484]
 456 0380 D7F8E011 	 ldr r1,[r7,#480]
 457              	
 458 0384 23FB0213 	 smlad r3,r3,r2,r1
 459              	
 460              	 .thumb
 461 0388 C7F8DC31 	 str r3,[r7,#476]
 508:C:\Users\Depes Crystalline\Desktop\school\Active_Bike_Lighting_System\Radar_Core/Libraries/CMSIS/Include\core_cmSimd.h **** }
 462              	 .loc 2 508 0
 463 038c D7F8DC31 	 ldr r3,[r7,#476]
 464              	.LBE75:
 465              	.LBE74:
 466              	 .loc 1 252 0
 467 0390 C7F88432 	 str r3,[r7,#644]
 253:../Dave/Generated/CMSIS_DSP/FilteringFunctions/arm_conv_partial_fast_q15.c **** 
 254:../Dave/Generated/CMSIS_DSP/FilteringFunctions/arm_conv_partial_fast_q15.c ****         /* Decrement the loop counter */
 255:../Dave/Generated/CMSIS_DSP/FilteringFunctions/arm_conv_partial_fast_q15.c ****         k--;
 468              	 .loc 1 255 0
 469 0394 D7F85C32 	 ldr r3,[r7,#604]
 470 0398 013B     	 subs r3,r3,#1
 471 039a C7F85C32 	 str r3,[r7,#604]
 472              	.L25:
 249:../Dave/Generated/CMSIS_DSP/FilteringFunctions/arm_conv_partial_fast_q15.c ****       {
 473              	 .loc 1 249 0
 474 039e D7F85C32 	 ldr r3,[r7,#604]
 475 03a2 002B     	 cmp r3,#0
 476 03a4 CED1     	 bne .L27
 256:../Dave/Generated/CMSIS_DSP/FilteringFunctions/arm_conv_partial_fast_q15.c ****       }
 257:../Dave/Generated/CMSIS_DSP/FilteringFunctions/arm_conv_partial_fast_q15.c **** 
 258:../Dave/Generated/CMSIS_DSP/FilteringFunctions/arm_conv_partial_fast_q15.c ****       /* Store the result in the accumulator in the destination buffer. */
 259:../Dave/Generated/CMSIS_DSP/FilteringFunctions/arm_conv_partial_fast_q15.c ****       *pOut++ = (q15_t) (sum >> 15);
 477              	 .loc 1 259 0
 478 03a6 07F11803 	 add r3,r7,#24
 479 03aa 1B68     	 ldr r3,[r3]
 480 03ac 991C     	 adds r1,r3,#2
 481 03ae 07F11802 	 add r2,r7,#24
 482 03b2 1160     	 str r1,[r2]
 483 03b4 D7F88422 	 ldr r2,[r7,#644]
 484 03b8 D213     	 asrs r2,r2,#15
 485 03ba 92B2     	 uxth r2,r2
 486 03bc 1A80     	 strh r2,[r3]
 260:../Dave/Generated/CMSIS_DSP/FilteringFunctions/arm_conv_partial_fast_q15.c **** 
 261:../Dave/Generated/CMSIS_DSP/FilteringFunctions/arm_conv_partial_fast_q15.c ****       /* Update the inputA and inputB pointers for next MAC calculation */
 262:../Dave/Generated/CMSIS_DSP/FilteringFunctions/arm_conv_partial_fast_q15.c ****       py = ++pSrc2 - 1u;
 487              	 .loc 1 262 0
 488 03be D7F86C32 	 ldr r3,[r7,#620]
 489 03c2 0233     	 adds r3,r3,#2
 490 03c4 C7F86C32 	 str r3,[r7,#620]
 491 03c8 D7F86C32 	 ldr r3,[r7,#620]
 492 03cc 9A1E     	 subs r2,r3,#2
 493 03ce 07F11003 	 add r3,r7,#16
 494 03d2 1A60     	 str r2,[r3]
 263:../Dave/Generated/CMSIS_DSP/FilteringFunctions/arm_conv_partial_fast_q15.c ****       px = pIn1;
 495              	 .loc 1 263 0
 496 03d4 07F11403 	 add r3,r7,#20
 497 03d8 D7F88C22 	 ldr r2,[r7,#652]
 498 03dc 1A60     	 str r2,[r3]
 264:../Dave/Generated/CMSIS_DSP/FilteringFunctions/arm_conv_partial_fast_q15.c **** 
 265:../Dave/Generated/CMSIS_DSP/FilteringFunctions/arm_conv_partial_fast_q15.c ****       /* Increment the MAC count */
 266:../Dave/Generated/CMSIS_DSP/FilteringFunctions/arm_conv_partial_fast_q15.c ****       count++;
 499              	 .loc 1 266 0
 500 03de D7F85832 	 ldr r3,[r7,#600]
 501 03e2 0133     	 adds r3,r3,#1
 502 03e4 C7F85832 	 str r3,[r7,#600]
 267:../Dave/Generated/CMSIS_DSP/FilteringFunctions/arm_conv_partial_fast_q15.c **** 
 268:../Dave/Generated/CMSIS_DSP/FilteringFunctions/arm_conv_partial_fast_q15.c ****       /* Decrement the loop counter */
 269:../Dave/Generated/CMSIS_DSP/FilteringFunctions/arm_conv_partial_fast_q15.c ****       blockSize1--;
 503              	 .loc 1 269 0
 504 03e8 D7F85032 	 ldr r3,[r7,#592]
 505 03ec 013B     	 subs r3,r3,#1
 506 03ee C7F85032 	 str r3,[r7,#592]
 507              	.L20:
 219:../Dave/Generated/CMSIS_DSP/FilteringFunctions/arm_conv_partial_fast_q15.c ****     {
 508              	 .loc 1 219 0
 509 03f2 D7F85032 	 ldr r3,[r7,#592]
 510 03f6 002B     	 cmp r3,#0
 511 03f8 3FF73CAF 	 bgt .L28
 270:../Dave/Generated/CMSIS_DSP/FilteringFunctions/arm_conv_partial_fast_q15.c ****     }
 271:../Dave/Generated/CMSIS_DSP/FilteringFunctions/arm_conv_partial_fast_q15.c **** 
 272:../Dave/Generated/CMSIS_DSP/FilteringFunctions/arm_conv_partial_fast_q15.c ****     /* --------------------------   
 273:../Dave/Generated/CMSIS_DSP/FilteringFunctions/arm_conv_partial_fast_q15.c ****      * Initializations of stage2   
 274:../Dave/Generated/CMSIS_DSP/FilteringFunctions/arm_conv_partial_fast_q15.c ****      * ------------------------*/
 275:../Dave/Generated/CMSIS_DSP/FilteringFunctions/arm_conv_partial_fast_q15.c **** 
 276:../Dave/Generated/CMSIS_DSP/FilteringFunctions/arm_conv_partial_fast_q15.c ****     /* sum = x[0] * y[srcBLen-1] + x[1] * y[srcBLen-2] +...+ x[srcBLen-1] * y[0]   
 277:../Dave/Generated/CMSIS_DSP/FilteringFunctions/arm_conv_partial_fast_q15.c ****      * sum = x[1] * y[srcBLen-1] + x[2] * y[srcBLen-2] +...+ x[srcBLen] * y[0]   
 278:../Dave/Generated/CMSIS_DSP/FilteringFunctions/arm_conv_partial_fast_q15.c ****      * ....   
 279:../Dave/Generated/CMSIS_DSP/FilteringFunctions/arm_conv_partial_fast_q15.c ****      * sum = x[srcALen-srcBLen-2] * y[srcBLen-1] + x[srcALen] * y[srcBLen-2] +...+ x[srcALen-1] * y
 280:../Dave/Generated/CMSIS_DSP/FilteringFunctions/arm_conv_partial_fast_q15.c ****      */
 281:../Dave/Generated/CMSIS_DSP/FilteringFunctions/arm_conv_partial_fast_q15.c **** 
 282:../Dave/Generated/CMSIS_DSP/FilteringFunctions/arm_conv_partial_fast_q15.c ****     /* Working pointer of inputA */
 283:../Dave/Generated/CMSIS_DSP/FilteringFunctions/arm_conv_partial_fast_q15.c ****     if((int32_t)firstIndex - (int32_t)srcBLen + 1 > 0)
 512              	 .loc 1 283 0
 513 03fc D7F89C22 	 ldr r2,[r7,#668]
 514 0400 3B46     	 mov r3,r7
 515 0402 1B68     	 ldr r3,[r3]
 516 0404 D31A     	 subs r3,r2,r3
 517 0406 0133     	 adds r3,r3,#1
 518 0408 002B     	 cmp r3,#0
 519 040a 0DDD     	 ble .L29
 284:../Dave/Generated/CMSIS_DSP/FilteringFunctions/arm_conv_partial_fast_q15.c ****     {
 285:../Dave/Generated/CMSIS_DSP/FilteringFunctions/arm_conv_partial_fast_q15.c ****       px = pIn1 + firstIndex - srcBLen + 1;
 520              	 .loc 1 285 0
 521 040c 3B46     	 mov r3,r7
 522 040e D7F89C22 	 ldr r2,[r7,#668]
 523 0412 1B68     	 ldr r3,[r3]
 524 0414 D31A     	 subs r3,r2,r3
 525 0416 0133     	 adds r3,r3,#1
 526 0418 5B00     	 lsls r3,r3,#1
 527 041a D7F88C22 	 ldr r2,[r7,#652]
 528 041e 1A44     	 add r2,r2,r3
 529 0420 07F11403 	 add r3,r7,#20
 530 0424 1A60     	 str r2,[r3]
 531 0426 04E0     	 b .L30
 532              	.L29:
 286:../Dave/Generated/CMSIS_DSP/FilteringFunctions/arm_conv_partial_fast_q15.c ****     }
 287:../Dave/Generated/CMSIS_DSP/FilteringFunctions/arm_conv_partial_fast_q15.c ****     else
 288:../Dave/Generated/CMSIS_DSP/FilteringFunctions/arm_conv_partial_fast_q15.c ****     {
 289:../Dave/Generated/CMSIS_DSP/FilteringFunctions/arm_conv_partial_fast_q15.c ****       px = pIn1;
 533              	 .loc 1 289 0
 534 0428 07F11403 	 add r3,r7,#20
 535 042c D7F88C22 	 ldr r2,[r7,#652]
 536 0430 1A60     	 str r2,[r3]
 537              	.L30:
 290:../Dave/Generated/CMSIS_DSP/FilteringFunctions/arm_conv_partial_fast_q15.c ****     }
 291:../Dave/Generated/CMSIS_DSP/FilteringFunctions/arm_conv_partial_fast_q15.c **** 
 292:../Dave/Generated/CMSIS_DSP/FilteringFunctions/arm_conv_partial_fast_q15.c ****     /* Working pointer of inputB */
 293:../Dave/Generated/CMSIS_DSP/FilteringFunctions/arm_conv_partial_fast_q15.c ****     pSrc2 = pIn2 + (srcBLen - 1u);
 538              	 .loc 1 293 0
 539 0432 3B46     	 mov r3,r7
 540 0434 1B68     	 ldr r3,[r3]
 541 0436 03F10043 	 add r3,r3,#-2147483648
 542 043a 013B     	 subs r3,r3,#1
 543 043c 5B00     	 lsls r3,r3,#1
 544 043e D7F88822 	 ldr r2,[r7,#648]
 545 0442 1344     	 add r3,r3,r2
 546 0444 C7F86C32 	 str r3,[r7,#620]
 294:../Dave/Generated/CMSIS_DSP/FilteringFunctions/arm_conv_partial_fast_q15.c ****     py = pSrc2;
 547              	 .loc 1 294 0
 548 0448 07F11003 	 add r3,r7,#16
 549 044c D7F86C22 	 ldr r2,[r7,#620]
 550 0450 1A60     	 str r2,[r3]
 295:../Dave/Generated/CMSIS_DSP/FilteringFunctions/arm_conv_partial_fast_q15.c **** 
 296:../Dave/Generated/CMSIS_DSP/FilteringFunctions/arm_conv_partial_fast_q15.c ****     /* count is the index by which the pointer pIn1 to be incremented */
 297:../Dave/Generated/CMSIS_DSP/FilteringFunctions/arm_conv_partial_fast_q15.c ****     count = 0u;
 551              	 .loc 1 297 0
 552 0452 0023     	 movs r3,#0
 553 0454 C7F85832 	 str r3,[r7,#600]
 298:../Dave/Generated/CMSIS_DSP/FilteringFunctions/arm_conv_partial_fast_q15.c **** 
 299:../Dave/Generated/CMSIS_DSP/FilteringFunctions/arm_conv_partial_fast_q15.c **** 
 300:../Dave/Generated/CMSIS_DSP/FilteringFunctions/arm_conv_partial_fast_q15.c ****     /* --------------------   
 301:../Dave/Generated/CMSIS_DSP/FilteringFunctions/arm_conv_partial_fast_q15.c ****      * Stage2 process   
 302:../Dave/Generated/CMSIS_DSP/FilteringFunctions/arm_conv_partial_fast_q15.c ****      * -------------------*/
 303:../Dave/Generated/CMSIS_DSP/FilteringFunctions/arm_conv_partial_fast_q15.c **** 
 304:../Dave/Generated/CMSIS_DSP/FilteringFunctions/arm_conv_partial_fast_q15.c ****     /* Stage2 depends on srcBLen as in this stage srcBLen number of MACS are performed.   
 305:../Dave/Generated/CMSIS_DSP/FilteringFunctions/arm_conv_partial_fast_q15.c ****      * So, to loop unroll over blockSize2,   
 306:../Dave/Generated/CMSIS_DSP/FilteringFunctions/arm_conv_partial_fast_q15.c ****      * srcBLen should be greater than or equal to 4 */
 307:../Dave/Generated/CMSIS_DSP/FilteringFunctions/arm_conv_partial_fast_q15.c ****     if(srcBLen >= 4u)
 554              	 .loc 1 307 0
 555 0458 3B46     	 mov r3,r7
 556 045a 1B68     	 ldr r3,[r3]
 557 045c 032B     	 cmp r3,#3
 558 045e 40F21285 	 bls .L31
 308:../Dave/Generated/CMSIS_DSP/FilteringFunctions/arm_conv_partial_fast_q15.c ****     {
 309:../Dave/Generated/CMSIS_DSP/FilteringFunctions/arm_conv_partial_fast_q15.c ****       /* Loop unroll over blockSize2, by 4 */
 310:../Dave/Generated/CMSIS_DSP/FilteringFunctions/arm_conv_partial_fast_q15.c ****       blkCnt = ((uint32_t) blockSize2 >> 2u);
 559              	 .loc 1 310 0
 560 0462 D7F84032 	 ldr r3,[r7,#576]
 561 0466 9B08     	 lsrs r3,r3,#2
 562 0468 C7F85432 	 str r3,[r7,#596]
 311:../Dave/Generated/CMSIS_DSP/FilteringFunctions/arm_conv_partial_fast_q15.c **** 
 312:../Dave/Generated/CMSIS_DSP/FilteringFunctions/arm_conv_partial_fast_q15.c ****       while(blkCnt > 0u)
 563              	 .loc 1 312 0
 564 046c 00F036BC 	 b .L32
 565              	.L61:
 313:../Dave/Generated/CMSIS_DSP/FilteringFunctions/arm_conv_partial_fast_q15.c ****       {
 314:../Dave/Generated/CMSIS_DSP/FilteringFunctions/arm_conv_partial_fast_q15.c ****       py = py - 1u;
 566              	 .loc 1 314 0
 567 0470 07F11003 	 add r3,r7,#16
 568 0474 1B68     	 ldr r3,[r3]
 569 0476 9A1E     	 subs r2,r3,#2
 570 0478 07F11003 	 add r3,r7,#16
 571 047c 1A60     	 str r2,[r3]
 315:../Dave/Generated/CMSIS_DSP/FilteringFunctions/arm_conv_partial_fast_q15.c **** 
 316:../Dave/Generated/CMSIS_DSP/FilteringFunctions/arm_conv_partial_fast_q15.c ****         /* Set all accumulators to zero */
 317:../Dave/Generated/CMSIS_DSP/FilteringFunctions/arm_conv_partial_fast_q15.c ****         acc0 = 0;
 572              	 .loc 1 317 0
 573 047e 0023     	 movs r3,#0
 574 0480 C7F88032 	 str r3,[r7,#640]
 318:../Dave/Generated/CMSIS_DSP/FilteringFunctions/arm_conv_partial_fast_q15.c ****         acc1 = 0;
 575              	 .loc 1 318 0
 576 0484 0023     	 movs r3,#0
 577 0486 C7F87C32 	 str r3,[r7,#636]
 319:../Dave/Generated/CMSIS_DSP/FilteringFunctions/arm_conv_partial_fast_q15.c ****         acc2 = 0;
 578              	 .loc 1 319 0
 579 048a 0023     	 movs r3,#0
 580 048c C7F87832 	 str r3,[r7,#632]
 320:../Dave/Generated/CMSIS_DSP/FilteringFunctions/arm_conv_partial_fast_q15.c ****         acc3 = 0;
 581              	 .loc 1 320 0
 582 0490 0023     	 movs r3,#0
 583 0492 C7F87432 	 str r3,[r7,#628]
 321:../Dave/Generated/CMSIS_DSP/FilteringFunctions/arm_conv_partial_fast_q15.c **** 
 322:../Dave/Generated/CMSIS_DSP/FilteringFunctions/arm_conv_partial_fast_q15.c **** 
 323:../Dave/Generated/CMSIS_DSP/FilteringFunctions/arm_conv_partial_fast_q15.c ****         /* read x[0], x[1] samples */
 324:../Dave/Generated/CMSIS_DSP/FilteringFunctions/arm_conv_partial_fast_q15.c ****       x0 = *__SIMD32(px);
 584              	 .loc 1 324 0
 585 0496 07F11403 	 add r3,r7,#20
 586 049a 1B68     	 ldr r3,[r3]
 587 049c 1B68     	 ldr r3,[r3]
 588 049e C7F86832 	 str r3,[r7,#616]
 325:../Dave/Generated/CMSIS_DSP/FilteringFunctions/arm_conv_partial_fast_q15.c ****         /* read x[1], x[2] samples */
 326:../Dave/Generated/CMSIS_DSP/FilteringFunctions/arm_conv_partial_fast_q15.c ****       x1 = _SIMD32_OFFSET(px+1);
 589              	 .loc 1 326 0
 590 04a2 07F11403 	 add r3,r7,#20
 591 04a6 1B68     	 ldr r3,[r3]
 592 04a8 D3F80230 	 ldr r3,[r3,#2]
 593 04ac C7F86432 	 str r3,[r7,#612]
 327:../Dave/Generated/CMSIS_DSP/FilteringFunctions/arm_conv_partial_fast_q15.c **** 	  px+= 2u;
 594              	 .loc 1 327 0
 595 04b0 07F11403 	 add r3,r7,#20
 596 04b4 1B68     	 ldr r3,[r3]
 597 04b6 1A1D     	 adds r2,r3,#4
 598 04b8 07F11403 	 add r3,r7,#20
 599 04bc 1A60     	 str r2,[r3]
 328:../Dave/Generated/CMSIS_DSP/FilteringFunctions/arm_conv_partial_fast_q15.c **** 
 329:../Dave/Generated/CMSIS_DSP/FilteringFunctions/arm_conv_partial_fast_q15.c **** 
 330:../Dave/Generated/CMSIS_DSP/FilteringFunctions/arm_conv_partial_fast_q15.c ****         /* Apply loop unrolling and compute 4 MACs simultaneously. */
 331:../Dave/Generated/CMSIS_DSP/FilteringFunctions/arm_conv_partial_fast_q15.c ****         k = srcBLen >> 2u;
 600              	 .loc 1 331 0
 601 04be 3B46     	 mov r3,r7
 602 04c0 1B68     	 ldr r3,[r3]
 603 04c2 9B08     	 lsrs r3,r3,#2
 604 04c4 C7F85C32 	 str r3,[r7,#604]
 605              	.L41:
 332:../Dave/Generated/CMSIS_DSP/FilteringFunctions/arm_conv_partial_fast_q15.c **** 
 333:../Dave/Generated/CMSIS_DSP/FilteringFunctions/arm_conv_partial_fast_q15.c ****         /* First part of the processing with loop unrolling.  Compute 4 MACs at a time.   
 334:../Dave/Generated/CMSIS_DSP/FilteringFunctions/arm_conv_partial_fast_q15.c ****          ** a second loop below computes MACs for the remaining 1 to 3 samples. */
 335:../Dave/Generated/CMSIS_DSP/FilteringFunctions/arm_conv_partial_fast_q15.c ****         do
 336:../Dave/Generated/CMSIS_DSP/FilteringFunctions/arm_conv_partial_fast_q15.c ****         {
 337:../Dave/Generated/CMSIS_DSP/FilteringFunctions/arm_conv_partial_fast_q15.c ****           /* Read the last two inputB samples using SIMD:   
 338:../Dave/Generated/CMSIS_DSP/FilteringFunctions/arm_conv_partial_fast_q15.c ****            * y[srcBLen - 1] and y[srcBLen - 2] */
 339:../Dave/Generated/CMSIS_DSP/FilteringFunctions/arm_conv_partial_fast_q15.c ****         c0 = *__SIMD32(py)--;
 606              	 .loc 1 339 0 discriminator 1
 607 04c8 07F11002 	 add r2,r7,#16
 608 04cc 1368     	 ldr r3,[r2]
 609 04ce 191F     	 subs r1,r3,#4
 610 04d0 1160     	 str r1,[r2]
 611 04d2 1B68     	 ldr r3,[r3]
 612 04d4 C7F83C32 	 str r3,[r7,#572]
 340:../Dave/Generated/CMSIS_DSP/FilteringFunctions/arm_conv_partial_fast_q15.c **** 
 341:../Dave/Generated/CMSIS_DSP/FilteringFunctions/arm_conv_partial_fast_q15.c ****           /* acc0 +=  x[0] * y[srcBLen - 1] + x[1] * y[srcBLen - 2] */
 342:../Dave/Generated/CMSIS_DSP/FilteringFunctions/arm_conv_partial_fast_q15.c ****           acc0 = __SMLADX(x0, c0, acc0);
 613              	 .loc 1 342 0 discriminator 1
 614 04d8 D7F86812 	 ldr r1,[r7,#616]
 615 04dc D7F83C22 	 ldr r2,[r7,#572]
 616 04e0 D7F88032 	 ldr r3,[r7,#640]
 617 04e4 C7F8D811 	 str r1,[r7,#472]
 618 04e8 C7F8D421 	 str r2,[r7,#468]
 619 04ec C7F8D031 	 str r3,[r7,#464]
 620              	.LBB76:
 621              	.LBB77:
 515:C:\Users\Depes Crystalline\Desktop\school\Active_Bike_Lighting_System\Radar_Core/Libraries/CMSIS/Include\core_cmSimd.h ****   return(result);
 622              	 .loc 2 515 0 discriminator 1
 623 04f0 D7F8D831 	 ldr r3,[r7,#472]
 624 04f4 D7F8D421 	 ldr r2,[r7,#468]
 625 04f8 D7F8D011 	 ldr r1,[r7,#464]
 626              	
 627 04fc 23FB1213 	 smladx r3,r3,r2,r1
 628              	
 629              	 .thumb
 630 0500 C7F8CC31 	 str r3,[r7,#460]
 631              	 .loc 2 516 0 discriminator 1
 632 0504 D7F8CC31 	 ldr r3,[r7,#460]
 633              	.LBE77:
 634              	.LBE76:
 635              	 .loc 1 342 0 discriminator 1
 636 0508 C7F88032 	 str r3,[r7,#640]
 343:../Dave/Generated/CMSIS_DSP/FilteringFunctions/arm_conv_partial_fast_q15.c **** 
 344:../Dave/Generated/CMSIS_DSP/FilteringFunctions/arm_conv_partial_fast_q15.c ****           /* acc1 +=  x[1] * y[srcBLen - 1] + x[2] * y[srcBLen - 2] */
 345:../Dave/Generated/CMSIS_DSP/FilteringFunctions/arm_conv_partial_fast_q15.c ****           acc1 = __SMLADX(x1, c0, acc1);
 637              	 .loc 1 345 0 discriminator 1
 638 050c D7F86412 	 ldr r1,[r7,#612]
 639 0510 D7F83C22 	 ldr r2,[r7,#572]
 640 0514 D7F87C32 	 ldr r3,[r7,#636]
 641 0518 C7F8C811 	 str r1,[r7,#456]
 642 051c C7F8C421 	 str r2,[r7,#452]
 643 0520 C7F8C031 	 str r3,[r7,#448]
 644              	.LBB78:
 645              	.LBB79:
 515:C:\Users\Depes Crystalline\Desktop\school\Active_Bike_Lighting_System\Radar_Core/Libraries/CMSIS/Include\core_cmSimd.h ****   return(result);
 646              	 .loc 2 515 0 discriminator 1
 647 0524 D7F8C831 	 ldr r3,[r7,#456]
 648 0528 D7F8C421 	 ldr r2,[r7,#452]
 649 052c D7F8C011 	 ldr r1,[r7,#448]
 650              	
 651 0530 23FB1213 	 smladx r3,r3,r2,r1
 652              	
 653              	 .thumb
 654 0534 C7F8BC31 	 str r3,[r7,#444]
 655              	 .loc 2 516 0 discriminator 1
 656 0538 D7F8BC31 	 ldr r3,[r7,#444]
 657              	.LBE79:
 658              	.LBE78:
 659              	 .loc 1 345 0 discriminator 1
 660 053c C7F87C32 	 str r3,[r7,#636]
 346:../Dave/Generated/CMSIS_DSP/FilteringFunctions/arm_conv_partial_fast_q15.c **** 
 347:../Dave/Generated/CMSIS_DSP/FilteringFunctions/arm_conv_partial_fast_q15.c ****           /* Read x[2], x[3] */
 348:../Dave/Generated/CMSIS_DSP/FilteringFunctions/arm_conv_partial_fast_q15.c ****         x2 = *__SIMD32(px);
 661              	 .loc 1 348 0 discriminator 1
 662 0540 07F11403 	 add r3,r7,#20
 663 0544 1B68     	 ldr r3,[r3]
 664 0546 1B68     	 ldr r3,[r3]
 665 0548 C7F83832 	 str r3,[r7,#568]
 349:../Dave/Generated/CMSIS_DSP/FilteringFunctions/arm_conv_partial_fast_q15.c **** 
 350:../Dave/Generated/CMSIS_DSP/FilteringFunctions/arm_conv_partial_fast_q15.c ****           /* Read x[3], x[4] */
 351:../Dave/Generated/CMSIS_DSP/FilteringFunctions/arm_conv_partial_fast_q15.c ****         x3 = _SIMD32_OFFSET(px+1);
 666              	 .loc 1 351 0 discriminator 1
 667 054c 07F11403 	 add r3,r7,#20
 668 0550 1B68     	 ldr r3,[r3]
 669 0552 D3F80230 	 ldr r3,[r3,#2]
 670 0556 C7F83432 	 str r3,[r7,#564]
 352:../Dave/Generated/CMSIS_DSP/FilteringFunctions/arm_conv_partial_fast_q15.c **** 
 353:../Dave/Generated/CMSIS_DSP/FilteringFunctions/arm_conv_partial_fast_q15.c ****           /* acc2 +=  x[2] * y[srcBLen - 1] + x[3] * y[srcBLen - 2] */
 354:../Dave/Generated/CMSIS_DSP/FilteringFunctions/arm_conv_partial_fast_q15.c ****           acc2 = __SMLADX(x2, c0, acc2);
 671              	 .loc 1 354 0 discriminator 1
 672 055a D7F83812 	 ldr r1,[r7,#568]
 673 055e D7F83C22 	 ldr r2,[r7,#572]
 674 0562 D7F87832 	 ldr r3,[r7,#632]
 675 0566 C7F8B811 	 str r1,[r7,#440]
 676 056a C7F8B421 	 str r2,[r7,#436]
 677 056e C7F8B031 	 str r3,[r7,#432]
 678              	.LBB80:
 679              	.LBB81:
 515:C:\Users\Depes Crystalline\Desktop\school\Active_Bike_Lighting_System\Radar_Core/Libraries/CMSIS/Include\core_cmSimd.h ****   return(result);
 680              	 .loc 2 515 0 discriminator 1
 681 0572 D7F8B831 	 ldr r3,[r7,#440]
 682 0576 D7F8B421 	 ldr r2,[r7,#436]
 683 057a D7F8B011 	 ldr r1,[r7,#432]
 684              	
 685 057e 23FB1213 	 smladx r3,r3,r2,r1
 686              	
 687              	 .thumb
 688 0582 C7F8AC31 	 str r3,[r7,#428]
 689              	 .loc 2 516 0 discriminator 1
 690 0586 D7F8AC31 	 ldr r3,[r7,#428]
 691              	.LBE81:
 692              	.LBE80:
 693              	 .loc 1 354 0 discriminator 1
 694 058a C7F87832 	 str r3,[r7,#632]
 355:../Dave/Generated/CMSIS_DSP/FilteringFunctions/arm_conv_partial_fast_q15.c **** 
 356:../Dave/Generated/CMSIS_DSP/FilteringFunctions/arm_conv_partial_fast_q15.c ****           /* acc3 +=  x[3] * y[srcBLen - 1] + x[4] * y[srcBLen - 2] */
 357:../Dave/Generated/CMSIS_DSP/FilteringFunctions/arm_conv_partial_fast_q15.c ****           acc3 = __SMLADX(x3, c0, acc3);
 695              	 .loc 1 357 0 discriminator 1
 696 058e D7F83412 	 ldr r1,[r7,#564]
 697 0592 D7F83C22 	 ldr r2,[r7,#572]
 698 0596 D7F87432 	 ldr r3,[r7,#628]
 699 059a C7F8A811 	 str r1,[r7,#424]
 700 059e C7F8A421 	 str r2,[r7,#420]
 701 05a2 C7F8A031 	 str r3,[r7,#416]
 702              	.LBB82:
 703              	.LBB83:
 515:C:\Users\Depes Crystalline\Desktop\school\Active_Bike_Lighting_System\Radar_Core/Libraries/CMSIS/Include\core_cmSimd.h ****   return(result);
 704              	 .loc 2 515 0 discriminator 1
 705 05a6 D7F8A831 	 ldr r3,[r7,#424]
 706 05aa D7F8A421 	 ldr r2,[r7,#420]
 707 05ae D7F8A011 	 ldr r1,[r7,#416]
 708              	
 709 05b2 23FB1213 	 smladx r3,r3,r2,r1
 710              	
 711              	 .thumb
 712 05b6 C7F89C31 	 str r3,[r7,#412]
 713              	 .loc 2 516 0 discriminator 1
 714 05ba D7F89C31 	 ldr r3,[r7,#412]
 715              	.LBE83:
 716              	.LBE82:
 717              	 .loc 1 357 0 discriminator 1
 718 05be C7F87432 	 str r3,[r7,#628]
 358:../Dave/Generated/CMSIS_DSP/FilteringFunctions/arm_conv_partial_fast_q15.c **** 
 359:../Dave/Generated/CMSIS_DSP/FilteringFunctions/arm_conv_partial_fast_q15.c ****           /* Read y[srcBLen - 3] and y[srcBLen - 4] */
 360:../Dave/Generated/CMSIS_DSP/FilteringFunctions/arm_conv_partial_fast_q15.c ****         c0 = *__SIMD32(py)--;
 719              	 .loc 1 360 0 discriminator 1
 720 05c2 07F11002 	 add r2,r7,#16
 721 05c6 1368     	 ldr r3,[r2]
 722 05c8 191F     	 subs r1,r3,#4
 723 05ca 1160     	 str r1,[r2]
 724 05cc 1B68     	 ldr r3,[r3]
 725 05ce C7F83C32 	 str r3,[r7,#572]
 361:../Dave/Generated/CMSIS_DSP/FilteringFunctions/arm_conv_partial_fast_q15.c **** 
 362:../Dave/Generated/CMSIS_DSP/FilteringFunctions/arm_conv_partial_fast_q15.c ****           /* acc0 +=  x[2] * y[srcBLen - 3] + x[3] * y[srcBLen - 4] */
 363:../Dave/Generated/CMSIS_DSP/FilteringFunctions/arm_conv_partial_fast_q15.c ****           acc0 = __SMLADX(x2, c0, acc0);
 726              	 .loc 1 363 0 discriminator 1
 727 05d2 D7F83812 	 ldr r1,[r7,#568]
 728 05d6 D7F83C32 	 ldr r3,[r7,#572]
 729 05da D7F88022 	 ldr r2,[r7,#640]
 730 05de C7F89811 	 str r1,[r7,#408]
 731 05e2 C7F89431 	 str r3,[r7,#404]
 732 05e6 07F5C873 	 add r3,r7,#400
 733 05ea 1A60     	 str r2,[r3]
 734              	.LBB84:
 735              	.LBB85:
 515:C:\Users\Depes Crystalline\Desktop\school\Active_Bike_Lighting_System\Radar_Core/Libraries/CMSIS/Include\core_cmSimd.h ****   return(result);
 736              	 .loc 2 515 0 discriminator 1
 737 05ec D7F89831 	 ldr r3,[r7,#408]
 738 05f0 D7F89421 	 ldr r2,[r7,#404]
 739 05f4 07F5C871 	 add r1,r7,#400
 740 05f8 0968     	 ldr r1,[r1]
 741              	
 742 05fa 23FB1212 	 smladx r2,r3,r2,r1
 743              	
 744              	 .thumb
 745 05fe 07F5C673 	 add r3,r7,#396
 746 0602 1A60     	 str r2,[r3]
 747              	 .loc 2 516 0 discriminator 1
 748 0604 07F5C673 	 add r3,r7,#396
 749 0608 1B68     	 ldr r3,[r3]
 750              	.LBE85:
 751              	.LBE84:
 752              	 .loc 1 363 0 discriminator 1
 753 060a C7F88032 	 str r3,[r7,#640]
 364:../Dave/Generated/CMSIS_DSP/FilteringFunctions/arm_conv_partial_fast_q15.c **** 
 365:../Dave/Generated/CMSIS_DSP/FilteringFunctions/arm_conv_partial_fast_q15.c ****           /* acc1 +=  x[3] * y[srcBLen - 3] + x[4] * y[srcBLen - 4] */
 366:../Dave/Generated/CMSIS_DSP/FilteringFunctions/arm_conv_partial_fast_q15.c ****           acc1 = __SMLADX(x3, c0, acc1);
 754              	 .loc 1 366 0 discriminator 1
 755 060e D7F83402 	 ldr r0,[r7,#564]
 756 0612 D7F83C12 	 ldr r1,[r7,#572]
 757 0616 D7F87C22 	 ldr r2,[r7,#636]
 758 061a 07F5C473 	 add r3,r7,#392
 759 061e 1860     	 str r0,[r3]
 760 0620 07F5C273 	 add r3,r7,#388
 761 0624 1960     	 str r1,[r3]
 762 0626 07F5C073 	 add r3,r7,#384
 763 062a 1A60     	 str r2,[r3]
 764              	.LBB86:
 765              	.LBB87:
 515:C:\Users\Depes Crystalline\Desktop\school\Active_Bike_Lighting_System\Radar_Core/Libraries/CMSIS/Include\core_cmSimd.h ****   return(result);
 766              	 .loc 2 515 0 discriminator 1
 767 062c 07F5C473 	 add r3,r7,#392
 768 0630 1B68     	 ldr r3,[r3]
 769 0632 07F5C272 	 add r2,r7,#388
 770 0636 1268     	 ldr r2,[r2]
 771 0638 07F5C071 	 add r1,r7,#384
 772 063c 0968     	 ldr r1,[r1]
 773              	
 774 063e 23FB1212 	 smladx r2,r3,r2,r1
 775              	
 776              	 .thumb
 777 0642 07F5BE73 	 add r3,r7,#380
 778 0646 1A60     	 str r2,[r3]
 779              	 .loc 2 516 0 discriminator 1
 780 0648 07F5BE73 	 add r3,r7,#380
 781 064c 1B68     	 ldr r3,[r3]
 782              	.LBE87:
 783              	.LBE86:
 784              	 .loc 1 366 0 discriminator 1
 785 064e C7F87C32 	 str r3,[r7,#636]
 367:../Dave/Generated/CMSIS_DSP/FilteringFunctions/arm_conv_partial_fast_q15.c **** 
 368:../Dave/Generated/CMSIS_DSP/FilteringFunctions/arm_conv_partial_fast_q15.c ****           /* Read x[4], x[5] */
 369:../Dave/Generated/CMSIS_DSP/FilteringFunctions/arm_conv_partial_fast_q15.c ****         x0 = _SIMD32_OFFSET(px+2);
 786              	 .loc 1 369 0 discriminator 1
 787 0652 07F11403 	 add r3,r7,#20
 788 0656 1B68     	 ldr r3,[r3]
 789 0658 5B68     	 ldr r3,[r3,#4]
 790 065a C7F86832 	 str r3,[r7,#616]
 370:../Dave/Generated/CMSIS_DSP/FilteringFunctions/arm_conv_partial_fast_q15.c **** 
 371:../Dave/Generated/CMSIS_DSP/FilteringFunctions/arm_conv_partial_fast_q15.c ****           /* Read x[5], x[6] */
 372:../Dave/Generated/CMSIS_DSP/FilteringFunctions/arm_conv_partial_fast_q15.c ****         x1 = _SIMD32_OFFSET(px+3);
 791              	 .loc 1 372 0 discriminator 1
 792 065e 07F11403 	 add r3,r7,#20
 793 0662 1B68     	 ldr r3,[r3]
 794 0664 D3F80630 	 ldr r3,[r3,#6]
 795 0668 C7F86432 	 str r3,[r7,#612]
 373:../Dave/Generated/CMSIS_DSP/FilteringFunctions/arm_conv_partial_fast_q15.c **** 		px += 4u;
 796              	 .loc 1 373 0 discriminator 1
 797 066c 07F11403 	 add r3,r7,#20
 798 0670 1B68     	 ldr r3,[r3]
 799 0672 03F10802 	 add r2,r3,#8
 800 0676 07F11403 	 add r3,r7,#20
 801 067a 1A60     	 str r2,[r3]
 374:../Dave/Generated/CMSIS_DSP/FilteringFunctions/arm_conv_partial_fast_q15.c **** 
 375:../Dave/Generated/CMSIS_DSP/FilteringFunctions/arm_conv_partial_fast_q15.c ****           /* acc2 +=  x[4] * y[srcBLen - 3] + x[5] * y[srcBLen - 4] */
 376:../Dave/Generated/CMSIS_DSP/FilteringFunctions/arm_conv_partial_fast_q15.c ****           acc2 = __SMLADX(x0, c0, acc2);
 802              	 .loc 1 376 0 discriminator 1
 803 067c D7F86802 	 ldr r0,[r7,#616]
 804 0680 D7F83C12 	 ldr r1,[r7,#572]
 805 0684 D7F87822 	 ldr r2,[r7,#632]
 806 0688 07F5BC73 	 add r3,r7,#376
 807 068c 1860     	 str r0,[r3]
 808 068e 07F5BA73 	 add r3,r7,#372
 809 0692 1960     	 str r1,[r3]
 810 0694 07F5B873 	 add r3,r7,#368
 811 0698 1A60     	 str r2,[r3]
 812              	.LBB88:
 813              	.LBB89:
 515:C:\Users\Depes Crystalline\Desktop\school\Active_Bike_Lighting_System\Radar_Core/Libraries/CMSIS/Include\core_cmSimd.h ****   return(result);
 814              	 .loc 2 515 0 discriminator 1
 815 069a 07F5BC73 	 add r3,r7,#376
 816 069e 1B68     	 ldr r3,[r3]
 817 06a0 07F5BA72 	 add r2,r7,#372
 818 06a4 1268     	 ldr r2,[r2]
 819 06a6 07F5B871 	 add r1,r7,#368
 820 06aa 0968     	 ldr r1,[r1]
 821              	
 822 06ac 23FB1212 	 smladx r2,r3,r2,r1
 823              	
 824              	 .thumb
 825 06b0 07F5B673 	 add r3,r7,#364
 826 06b4 1A60     	 str r2,[r3]
 827              	 .loc 2 516 0 discriminator 1
 828 06b6 07F5B673 	 add r3,r7,#364
 829 06ba 1B68     	 ldr r3,[r3]
 830              	.LBE89:
 831              	.LBE88:
 832              	 .loc 1 376 0 discriminator 1
 833 06bc C7F87832 	 str r3,[r7,#632]
 377:../Dave/Generated/CMSIS_DSP/FilteringFunctions/arm_conv_partial_fast_q15.c **** 
 378:../Dave/Generated/CMSIS_DSP/FilteringFunctions/arm_conv_partial_fast_q15.c ****           /* acc3 +=  x[5] * y[srcBLen - 3] + x[6] * y[srcBLen - 4] */
 379:../Dave/Generated/CMSIS_DSP/FilteringFunctions/arm_conv_partial_fast_q15.c ****           acc3 = __SMLADX(x1, c0, acc3);
 834              	 .loc 1 379 0 discriminator 1
 835 06c0 D7F86402 	 ldr r0,[r7,#612]
 836 06c4 D7F83C12 	 ldr r1,[r7,#572]
 837 06c8 D7F87422 	 ldr r2,[r7,#628]
 838 06cc 07F5B473 	 add r3,r7,#360
 839 06d0 1860     	 str r0,[r3]
 840 06d2 07F5B273 	 add r3,r7,#356
 841 06d6 1960     	 str r1,[r3]
 842 06d8 07F5B073 	 add r3,r7,#352
 843 06dc 1A60     	 str r2,[r3]
 844              	.LBB90:
 845              	.LBB91:
 515:C:\Users\Depes Crystalline\Desktop\school\Active_Bike_Lighting_System\Radar_Core/Libraries/CMSIS/Include\core_cmSimd.h ****   return(result);
 846              	 .loc 2 515 0 discriminator 1
 847 06de 07F5B473 	 add r3,r7,#360
 848 06e2 1B68     	 ldr r3,[r3]
 849 06e4 07F5B272 	 add r2,r7,#356
 850 06e8 1268     	 ldr r2,[r2]
 851 06ea 07F5B071 	 add r1,r7,#352
 852 06ee 0968     	 ldr r1,[r1]
 853              	
 854 06f0 23FB1212 	 smladx r2,r3,r2,r1
 855              	
 856              	 .thumb
 857 06f4 07F5AE73 	 add r3,r7,#348
 858 06f8 1A60     	 str r2,[r3]
 859              	 .loc 2 516 0 discriminator 1
 860 06fa 07F5AE73 	 add r3,r7,#348
 861 06fe 1B68     	 ldr r3,[r3]
 862              	.LBE91:
 863              	.LBE90:
 864              	 .loc 1 379 0 discriminator 1
 865 0700 C7F87432 	 str r3,[r7,#628]
 380:../Dave/Generated/CMSIS_DSP/FilteringFunctions/arm_conv_partial_fast_q15.c **** 
 381:../Dave/Generated/CMSIS_DSP/FilteringFunctions/arm_conv_partial_fast_q15.c ****         } while(--k);
 866              	 .loc 1 381 0 discriminator 1
 867 0704 D7F85C32 	 ldr r3,[r7,#604]
 868 0708 013B     	 subs r3,r3,#1
 869 070a C7F85C32 	 str r3,[r7,#604]
 870 070e D7F85C32 	 ldr r3,[r7,#604]
 871 0712 002B     	 cmp r3,#0
 872 0714 7FF4D8AE 	 bne .L41
 382:../Dave/Generated/CMSIS_DSP/FilteringFunctions/arm_conv_partial_fast_q15.c **** 
 383:../Dave/Generated/CMSIS_DSP/FilteringFunctions/arm_conv_partial_fast_q15.c ****         /* For the next MAC operations, SIMD is not used   
 384:../Dave/Generated/CMSIS_DSP/FilteringFunctions/arm_conv_partial_fast_q15.c ****          * So, the 16 bit pointer if inputB, py is updated */
 385:../Dave/Generated/CMSIS_DSP/FilteringFunctions/arm_conv_partial_fast_q15.c **** 
 386:../Dave/Generated/CMSIS_DSP/FilteringFunctions/arm_conv_partial_fast_q15.c ****         /* If the srcBLen is not a multiple of 4, compute any remaining MACs here.   
 387:../Dave/Generated/CMSIS_DSP/FilteringFunctions/arm_conv_partial_fast_q15.c ****          ** No loop unrolling is used. */
 388:../Dave/Generated/CMSIS_DSP/FilteringFunctions/arm_conv_partial_fast_q15.c ****         k = srcBLen % 0x4u;
 873              	 .loc 1 388 0
 874 0718 3B46     	 mov r3,r7
 875 071a 1B68     	 ldr r3,[r3]
 876 071c 03F00303 	 and r3,r3,#3
 877 0720 C7F85C32 	 str r3,[r7,#604]
 389:../Dave/Generated/CMSIS_DSP/FilteringFunctions/arm_conv_partial_fast_q15.c **** 
 390:../Dave/Generated/CMSIS_DSP/FilteringFunctions/arm_conv_partial_fast_q15.c ****         if(k == 1u)
 878              	 .loc 1 390 0
 879 0724 D7F85C32 	 ldr r3,[r7,#604]
 880 0728 012B     	 cmp r3,#1
 881 072a 40F0A280 	 bne .L42
 391:../Dave/Generated/CMSIS_DSP/FilteringFunctions/arm_conv_partial_fast_q15.c ****         {
 392:../Dave/Generated/CMSIS_DSP/FilteringFunctions/arm_conv_partial_fast_q15.c ****           /* Read y[srcBLen - 5] */
 393:../Dave/Generated/CMSIS_DSP/FilteringFunctions/arm_conv_partial_fast_q15.c ****         c0 = *(py+1);
 882              	 .loc 1 393 0
 883 072e 07F11003 	 add r3,r7,#16
 884 0732 1B68     	 ldr r3,[r3]
 885 0734 0233     	 adds r3,r3,#2
 886 0736 1B88     	 ldrh r3,[r3]
 887 0738 1BB2     	 sxth r3,r3
 888 073a C7F83C32 	 str r3,[r7,#572]
 394:../Dave/Generated/CMSIS_DSP/FilteringFunctions/arm_conv_partial_fast_q15.c **** #ifdef  ARM_MATH_BIG_ENDIAN
 395:../Dave/Generated/CMSIS_DSP/FilteringFunctions/arm_conv_partial_fast_q15.c **** 
 396:../Dave/Generated/CMSIS_DSP/FilteringFunctions/arm_conv_partial_fast_q15.c ****         c0 = c0 << 16u;
 397:../Dave/Generated/CMSIS_DSP/FilteringFunctions/arm_conv_partial_fast_q15.c **** 
 398:../Dave/Generated/CMSIS_DSP/FilteringFunctions/arm_conv_partial_fast_q15.c **** #else
 399:../Dave/Generated/CMSIS_DSP/FilteringFunctions/arm_conv_partial_fast_q15.c **** 
 400:../Dave/Generated/CMSIS_DSP/FilteringFunctions/arm_conv_partial_fast_q15.c ****         c0 = c0 & 0x0000FFFF;
 889              	 .loc 1 400 0
 890 073e D7F83C32 	 ldr r3,[r7,#572]
 891 0742 9BB2     	 uxth r3,r3
 892 0744 C7F83C32 	 str r3,[r7,#572]
 401:../Dave/Generated/CMSIS_DSP/FilteringFunctions/arm_conv_partial_fast_q15.c **** 
 402:../Dave/Generated/CMSIS_DSP/FilteringFunctions/arm_conv_partial_fast_q15.c **** #endif /*      #ifdef  ARM_MATH_BIG_ENDIAN     */
 403:../Dave/Generated/CMSIS_DSP/FilteringFunctions/arm_conv_partial_fast_q15.c **** 
 404:../Dave/Generated/CMSIS_DSP/FilteringFunctions/arm_conv_partial_fast_q15.c ****           /* Read x[7] */
 405:../Dave/Generated/CMSIS_DSP/FilteringFunctions/arm_conv_partial_fast_q15.c ****         x3 = *__SIMD32(px);
 893              	 .loc 1 405 0
 894 0748 07F11403 	 add r3,r7,#20
 895 074c 1B68     	 ldr r3,[r3]
 896 074e 1B68     	 ldr r3,[r3]
 897 0750 C7F83432 	 str r3,[r7,#564]
 406:../Dave/Generated/CMSIS_DSP/FilteringFunctions/arm_conv_partial_fast_q15.c **** 		px++;
 898              	 .loc 1 406 0
 899 0754 07F11403 	 add r3,r7,#20
 900 0758 1B68     	 ldr r3,[r3]
 901 075a 9A1C     	 adds r2,r3,#2
 902 075c 07F11403 	 add r3,r7,#20
 903 0760 1A60     	 str r2,[r3]
 407:../Dave/Generated/CMSIS_DSP/FilteringFunctions/arm_conv_partial_fast_q15.c **** 
 408:../Dave/Generated/CMSIS_DSP/FilteringFunctions/arm_conv_partial_fast_q15.c ****           /* Perform the multiply-accumulates */
 409:../Dave/Generated/CMSIS_DSP/FilteringFunctions/arm_conv_partial_fast_q15.c ****           acc0 = __SMLAD(x0, c0, acc0);
 904              	 .loc 1 409 0
 905 0762 D7F86802 	 ldr r0,[r7,#616]
 906 0766 D7F83C12 	 ldr r1,[r7,#572]
 907 076a D7F88022 	 ldr r2,[r7,#640]
 908 076e 07F5AC73 	 add r3,r7,#344
 909 0772 1860     	 str r0,[r3]
 910 0774 07F5AA73 	 add r3,r7,#340
 911 0778 1960     	 str r1,[r3]
 912 077a 07F5A873 	 add r3,r7,#336
 913 077e 1A60     	 str r2,[r3]
 914              	.LBB92:
 915              	.LBB93:
 507:C:\Users\Depes Crystalline\Desktop\school\Active_Bike_Lighting_System\Radar_Core/Libraries/CMSIS/Include\core_cmSimd.h ****   return(result);
 916              	 .loc 2 507 0
 917 0780 07F5AC73 	 add r3,r7,#344
 918 0784 1B68     	 ldr r3,[r3]
 919 0786 07F5AA72 	 add r2,r7,#340
 920 078a 1268     	 ldr r2,[r2]
 921 078c 07F5A871 	 add r1,r7,#336
 922 0790 0968     	 ldr r1,[r1]
 923              	
 924 0792 23FB0212 	 smlad r2,r3,r2,r1
 925              	
 926              	 .thumb
 927 0796 07F5A673 	 add r3,r7,#332
 928 079a 1A60     	 str r2,[r3]
 508:C:\Users\Depes Crystalline\Desktop\school\Active_Bike_Lighting_System\Radar_Core/Libraries/CMSIS/Include\core_cmSimd.h **** }
 929              	 .loc 2 508 0
 930 079c 07F5A673 	 add r3,r7,#332
 931 07a0 1B68     	 ldr r3,[r3]
 932              	.LBE93:
 933              	.LBE92:
 934              	 .loc 1 409 0
 935 07a2 C7F88032 	 str r3,[r7,#640]
 410:../Dave/Generated/CMSIS_DSP/FilteringFunctions/arm_conv_partial_fast_q15.c ****           acc1 = __SMLAD(x1, c0, acc1);
 936              	 .loc 1 410 0
 937 07a6 D7F86402 	 ldr r0,[r7,#612]
 938 07aa D7F83C12 	 ldr r1,[r7,#572]
 939 07ae D7F87C22 	 ldr r2,[r7,#636]
 940 07b2 07F5A473 	 add r3,r7,#328
 941 07b6 1860     	 str r0,[r3]
 942 07b8 07F5A273 	 add r3,r7,#324
 943 07bc 1960     	 str r1,[r3]
 944 07be 07F5A073 	 add r3,r7,#320
 945 07c2 1A60     	 str r2,[r3]
 946              	.LBB94:
 947              	.LBB95:
 507:C:\Users\Depes Crystalline\Desktop\school\Active_Bike_Lighting_System\Radar_Core/Libraries/CMSIS/Include\core_cmSimd.h ****   return(result);
 948              	 .loc 2 507 0
 949 07c4 07F5A473 	 add r3,r7,#328
 950 07c8 1B68     	 ldr r3,[r3]
 951 07ca 07F5A272 	 add r2,r7,#324
 952 07ce 1268     	 ldr r2,[r2]
 953 07d0 07F5A071 	 add r1,r7,#320
 954 07d4 0968     	 ldr r1,[r1]
 955              	
 956 07d6 23FB0212 	 smlad r2,r3,r2,r1
 957              	
 958              	 .thumb
 959 07da 07F59E73 	 add r3,r7,#316
 960 07de 1A60     	 str r2,[r3]
 508:C:\Users\Depes Crystalline\Desktop\school\Active_Bike_Lighting_System\Radar_Core/Libraries/CMSIS/Include\core_cmSimd.h **** }
 961              	 .loc 2 508 0
 962 07e0 07F59E73 	 add r3,r7,#316
 963 07e4 1B68     	 ldr r3,[r3]
 964              	.LBE95:
 965              	.LBE94:
 966              	 .loc 1 410 0
 967 07e6 C7F87C32 	 str r3,[r7,#636]
 411:../Dave/Generated/CMSIS_DSP/FilteringFunctions/arm_conv_partial_fast_q15.c ****           acc2 = __SMLADX(x1, c0, acc2);
 968              	 .loc 1 411 0
 969 07ea D7F86402 	 ldr r0,[r7,#612]
 970 07ee D7F83C12 	 ldr r1,[r7,#572]
 971 07f2 D7F87822 	 ldr r2,[r7,#632]
 972 07f6 07F59C73 	 add r3,r7,#312
 973 07fa 1860     	 str r0,[r3]
 974 07fc 07F59A73 	 add r3,r7,#308
 975 0800 1960     	 str r1,[r3]
 976 0802 07F59873 	 add r3,r7,#304
 977 0806 1A60     	 str r2,[r3]
 978              	.LBB96:
 979              	.LBB97:
 515:C:\Users\Depes Crystalline\Desktop\school\Active_Bike_Lighting_System\Radar_Core/Libraries/CMSIS/Include\core_cmSimd.h ****   return(result);
 980              	 .loc 2 515 0
 981 0808 07F59C73 	 add r3,r7,#312
 982 080c 1B68     	 ldr r3,[r3]
 983 080e 07F59A72 	 add r2,r7,#308
 984 0812 1268     	 ldr r2,[r2]
 985 0814 07F59871 	 add r1,r7,#304
 986 0818 0968     	 ldr r1,[r1]
 987              	
 988 081a 23FB1212 	 smladx r2,r3,r2,r1
 989              	
 990              	 .thumb
 991 081e 07F59673 	 add r3,r7,#300
 992 0822 1A60     	 str r2,[r3]
 993              	 .loc 2 516 0
 994 0824 07F59673 	 add r3,r7,#300
 995 0828 1B68     	 ldr r3,[r3]
 996              	.LBE97:
 997              	.LBE96:
 998              	 .loc 1 411 0
 999 082a C7F87832 	 str r3,[r7,#632]
 412:../Dave/Generated/CMSIS_DSP/FilteringFunctions/arm_conv_partial_fast_q15.c ****           acc3 = __SMLADX(x3, c0, acc3);
 1000              	 .loc 1 412 0
 1001 082e D7F83402 	 ldr r0,[r7,#564]
 1002 0832 D7F83C12 	 ldr r1,[r7,#572]
 1003 0836 D7F87422 	 ldr r2,[r7,#628]
 1004 083a 07F59473 	 add r3,r7,#296
 1005 083e 1860     	 str r0,[r3]
 1006 0840 07F59273 	 add r3,r7,#292
 1007 0844 1960     	 str r1,[r3]
 1008 0846 07F59073 	 add r3,r7,#288
 1009 084a 1A60     	 str r2,[r3]
 1010              	.LBB98:
 1011              	.LBB99:
 515:C:\Users\Depes Crystalline\Desktop\school\Active_Bike_Lighting_System\Radar_Core/Libraries/CMSIS/Include\core_cmSimd.h ****   return(result);
 1012              	 .loc 2 515 0
 1013 084c 07F59473 	 add r3,r7,#296
 1014 0850 1B68     	 ldr r3,[r3]
 1015 0852 07F59272 	 add r2,r7,#292
 1016 0856 1268     	 ldr r2,[r2]
 1017 0858 07F59071 	 add r1,r7,#288
 1018 085c 0968     	 ldr r1,[r1]
 1019              	
 1020 085e 23FB1212 	 smladx r2,r3,r2,r1
 1021              	
 1022              	 .thumb
 1023 0862 07F58E73 	 add r3,r7,#284
 1024 0866 1A60     	 str r2,[r3]
 1025              	 .loc 2 516 0
 1026 0868 07F58E73 	 add r3,r7,#284
 1027 086c 1B68     	 ldr r3,[r3]
 1028              	.LBE99:
 1029              	.LBE98:
 1030              	 .loc 1 412 0
 1031 086e C7F87432 	 str r3,[r7,#628]
 1032              	.L42:
 413:../Dave/Generated/CMSIS_DSP/FilteringFunctions/arm_conv_partial_fast_q15.c ****         }
 414:../Dave/Generated/CMSIS_DSP/FilteringFunctions/arm_conv_partial_fast_q15.c **** 
 415:../Dave/Generated/CMSIS_DSP/FilteringFunctions/arm_conv_partial_fast_q15.c ****         if(k == 2u)
 1033              	 .loc 1 415 0
 1034 0872 D7F85C32 	 ldr r3,[r7,#604]
 1035 0876 022B     	 cmp r3,#2
 1036 0878 40F0A280 	 bne .L47
 416:../Dave/Generated/CMSIS_DSP/FilteringFunctions/arm_conv_partial_fast_q15.c ****         {
 417:../Dave/Generated/CMSIS_DSP/FilteringFunctions/arm_conv_partial_fast_q15.c ****           /* Read y[srcBLen - 5], y[srcBLen - 6] */
 418:../Dave/Generated/CMSIS_DSP/FilteringFunctions/arm_conv_partial_fast_q15.c ****         c0 = _SIMD32_OFFSET(py);
 1037              	 .loc 1 418 0
 1038 087c 07F11003 	 add r3,r7,#16
 1039 0880 1B68     	 ldr r3,[r3]
 1040 0882 1B68     	 ldr r3,[r3]
 1041 0884 C7F83C32 	 str r3,[r7,#572]
 419:../Dave/Generated/CMSIS_DSP/FilteringFunctions/arm_conv_partial_fast_q15.c **** 
 420:../Dave/Generated/CMSIS_DSP/FilteringFunctions/arm_conv_partial_fast_q15.c ****           /* Read x[7], x[8] */
 421:../Dave/Generated/CMSIS_DSP/FilteringFunctions/arm_conv_partial_fast_q15.c ****         x3 = *__SIMD32(px);
 1042              	 .loc 1 421 0
 1043 0888 07F11403 	 add r3,r7,#20
 1044 088c 1B68     	 ldr r3,[r3]
 1045 088e 1B68     	 ldr r3,[r3]
 1046 0890 C7F83432 	 str r3,[r7,#564]
 422:../Dave/Generated/CMSIS_DSP/FilteringFunctions/arm_conv_partial_fast_q15.c **** 
 423:../Dave/Generated/CMSIS_DSP/FilteringFunctions/arm_conv_partial_fast_q15.c ****         /* Read x[9] */
 424:../Dave/Generated/CMSIS_DSP/FilteringFunctions/arm_conv_partial_fast_q15.c ****         x2 = _SIMD32_OFFSET(px+1);
 1047              	 .loc 1 424 0
 1048 0894 07F11403 	 add r3,r7,#20
 1049 0898 1B68     	 ldr r3,[r3]
 1050 089a D3F80230 	 ldr r3,[r3,#2]
 1051 089e C7F83832 	 str r3,[r7,#568]
 425:../Dave/Generated/CMSIS_DSP/FilteringFunctions/arm_conv_partial_fast_q15.c **** 		px += 2u;
 1052              	 .loc 1 425 0
 1053 08a2 07F11403 	 add r3,r7,#20
 1054 08a6 1B68     	 ldr r3,[r3]
 1055 08a8 1A1D     	 adds r2,r3,#4
 1056 08aa 07F11403 	 add r3,r7,#20
 1057 08ae 1A60     	 str r2,[r3]
 426:../Dave/Generated/CMSIS_DSP/FilteringFunctions/arm_conv_partial_fast_q15.c **** 
 427:../Dave/Generated/CMSIS_DSP/FilteringFunctions/arm_conv_partial_fast_q15.c ****           /* Perform the multiply-accumulates */
 428:../Dave/Generated/CMSIS_DSP/FilteringFunctions/arm_conv_partial_fast_q15.c ****           acc0 = __SMLADX(x0, c0, acc0);
 1058              	 .loc 1 428 0
 1059 08b0 D7F86802 	 ldr r0,[r7,#616]
 1060 08b4 D7F83C12 	 ldr r1,[r7,#572]
 1061 08b8 D7F88022 	 ldr r2,[r7,#640]
 1062 08bc 07F58C73 	 add r3,r7,#280
 1063 08c0 1860     	 str r0,[r3]
 1064 08c2 07F58A73 	 add r3,r7,#276
 1065 08c6 1960     	 str r1,[r3]
 1066 08c8 07F58873 	 add r3,r7,#272
 1067 08cc 1A60     	 str r2,[r3]
 1068              	.LBB100:
 1069              	.LBB101:
 515:C:\Users\Depes Crystalline\Desktop\school\Active_Bike_Lighting_System\Radar_Core/Libraries/CMSIS/Include\core_cmSimd.h ****   return(result);
 1070              	 .loc 2 515 0
 1071 08ce 07F58C73 	 add r3,r7,#280
 1072 08d2 1B68     	 ldr r3,[r3]
 1073 08d4 07F58A72 	 add r2,r7,#276
 1074 08d8 1268     	 ldr r2,[r2]
 1075 08da 07F58871 	 add r1,r7,#272
 1076 08de 0968     	 ldr r1,[r1]
 1077              	
 1078 08e0 23FB1212 	 smladx r2,r3,r2,r1
 1079              	
 1080              	 .thumb
 1081 08e4 07F58673 	 add r3,r7,#268
 1082 08e8 1A60     	 str r2,[r3]
 1083              	 .loc 2 516 0
 1084 08ea 07F58673 	 add r3,r7,#268
 1085 08ee 1B68     	 ldr r3,[r3]
 1086              	.LBE101:
 1087              	.LBE100:
 1088              	 .loc 1 428 0
 1089 08f0 C7F88032 	 str r3,[r7,#640]
 429:../Dave/Generated/CMSIS_DSP/FilteringFunctions/arm_conv_partial_fast_q15.c ****           acc1 = __SMLADX(x1, c0, acc1);
 1090              	 .loc 1 429 0
 1091 08f4 D7F86402 	 ldr r0,[r7,#612]
 1092 08f8 D7F83C12 	 ldr r1,[r7,#572]
 1093 08fc D7F87C22 	 ldr r2,[r7,#636]
 1094 0900 07F58473 	 add r3,r7,#264
 1095 0904 1860     	 str r0,[r3]
 1096 0906 07F58273 	 add r3,r7,#260
 1097 090a 1960     	 str r1,[r3]
 1098 090c 07F58073 	 add r3,r7,#256
 1099 0910 1A60     	 str r2,[r3]
 1100              	.LBB102:
 1101              	.LBB103:
 515:C:\Users\Depes Crystalline\Desktop\school\Active_Bike_Lighting_System\Radar_Core/Libraries/CMSIS/Include\core_cmSimd.h ****   return(result);
 1102              	 .loc 2 515 0
 1103 0912 07F58473 	 add r3,r7,#264
 1104 0916 1B68     	 ldr r3,[r3]
 1105 0918 07F58272 	 add r2,r7,#260
 1106 091c 1268     	 ldr r2,[r2]
 1107 091e 07F58071 	 add r1,r7,#256
 1108 0922 0968     	 ldr r1,[r1]
 1109              	
 1110 0924 23FB1212 	 smladx r2,r3,r2,r1
 1111              	
 1112              	 .thumb
 1113 0928 07F1FC03 	 add r3,r7,#252
 1114 092c 1A60     	 str r2,[r3]
 1115              	 .loc 2 516 0
 1116 092e 07F1FC03 	 add r3,r7,#252
 1117 0932 1B68     	 ldr r3,[r3]
 1118              	.LBE103:
 1119              	.LBE102:
 1120              	 .loc 1 429 0
 1121 0934 C7F87C32 	 str r3,[r7,#636]
 430:../Dave/Generated/CMSIS_DSP/FilteringFunctions/arm_conv_partial_fast_q15.c ****           acc2 = __SMLADX(x3, c0, acc2);
 1122              	 .loc 1 430 0
 1123 0938 D7F83402 	 ldr r0,[r7,#564]
 1124 093c D7F83C12 	 ldr r1,[r7,#572]
 1125 0940 D7F87822 	 ldr r2,[r7,#632]
 1126 0944 07F1F803 	 add r3,r7,#248
 1127 0948 1860     	 str r0,[r3]
 1128 094a 07F1F403 	 add r3,r7,#244
 1129 094e 1960     	 str r1,[r3]
 1130 0950 07F1F003 	 add r3,r7,#240
 1131 0954 1A60     	 str r2,[r3]
 1132              	.LBB104:
 1133              	.LBB105:
 515:C:\Users\Depes Crystalline\Desktop\school\Active_Bike_Lighting_System\Radar_Core/Libraries/CMSIS/Include\core_cmSimd.h ****   return(result);
 1134              	 .loc 2 515 0
 1135 0956 07F1F803 	 add r3,r7,#248
 1136 095a 1B68     	 ldr r3,[r3]
 1137 095c 07F1F402 	 add r2,r7,#244
 1138 0960 1268     	 ldr r2,[r2]
 1139 0962 07F1F001 	 add r1,r7,#240
 1140 0966 0968     	 ldr r1,[r1]
 1141              	
 1142 0968 23FB1212 	 smladx r2,r3,r2,r1
 1143              	
 1144              	 .thumb
 1145 096c 07F1EC03 	 add r3,r7,#236
 1146 0970 1A60     	 str r2,[r3]
 1147              	 .loc 2 516 0
 1148 0972 07F1EC03 	 add r3,r7,#236
 1149 0976 1B68     	 ldr r3,[r3]
 1150              	.LBE105:
 1151              	.LBE104:
 1152              	 .loc 1 430 0
 1153 0978 C7F87832 	 str r3,[r7,#632]
 431:../Dave/Generated/CMSIS_DSP/FilteringFunctions/arm_conv_partial_fast_q15.c ****           acc3 = __SMLADX(x2, c0, acc3);
 1154              	 .loc 1 431 0
 1155 097c D7F83802 	 ldr r0,[r7,#568]
 1156 0980 D7F83C12 	 ldr r1,[r7,#572]
 1157 0984 D7F87422 	 ldr r2,[r7,#628]
 1158 0988 07F1E803 	 add r3,r7,#232
 1159 098c 1860     	 str r0,[r3]
 1160 098e 07F1E403 	 add r3,r7,#228
 1161 0992 1960     	 str r1,[r3]
 1162 0994 07F1E003 	 add r3,r7,#224
 1163 0998 1A60     	 str r2,[r3]
 1164              	.LBB106:
 1165              	.LBB107:
 515:C:\Users\Depes Crystalline\Desktop\school\Active_Bike_Lighting_System\Radar_Core/Libraries/CMSIS/Include\core_cmSimd.h ****   return(result);
 1166              	 .loc 2 515 0
 1167 099a 07F1E803 	 add r3,r7,#232
 1168 099e 1B68     	 ldr r3,[r3]
 1169 09a0 07F1E402 	 add r2,r7,#228
 1170 09a4 1268     	 ldr r2,[r2]
 1171 09a6 07F1E001 	 add r1,r7,#224
 1172 09aa 0968     	 ldr r1,[r1]
 1173              	
 1174 09ac 23FB1212 	 smladx r2,r3,r2,r1
 1175              	
 1176              	 .thumb
 1177 09b0 07F1DC03 	 add r3,r7,#220
 1178 09b4 1A60     	 str r2,[r3]
 1179              	 .loc 2 516 0
 1180 09b6 07F1DC03 	 add r3,r7,#220
 1181 09ba 1B68     	 ldr r3,[r3]
 1182              	.LBE107:
 1183              	.LBE106:
 1184              	 .loc 1 431 0
 1185 09bc C7F87432 	 str r3,[r7,#628]
 1186              	.L47:
 432:../Dave/Generated/CMSIS_DSP/FilteringFunctions/arm_conv_partial_fast_q15.c ****         }
 433:../Dave/Generated/CMSIS_DSP/FilteringFunctions/arm_conv_partial_fast_q15.c **** 
 434:../Dave/Generated/CMSIS_DSP/FilteringFunctions/arm_conv_partial_fast_q15.c ****         if(k == 3u)
 1187              	 .loc 1 434 0
 1188 09c0 D7F85C32 	 ldr r3,[r7,#604]
 1189 09c4 032B     	 cmp r3,#3
 1190 09c6 40F03D81 	 bne .L52
 435:../Dave/Generated/CMSIS_DSP/FilteringFunctions/arm_conv_partial_fast_q15.c ****         {
 436:../Dave/Generated/CMSIS_DSP/FilteringFunctions/arm_conv_partial_fast_q15.c ****           /* Read y[srcBLen - 5], y[srcBLen - 6] */
 437:../Dave/Generated/CMSIS_DSP/FilteringFunctions/arm_conv_partial_fast_q15.c ****         c0 = _SIMD32_OFFSET(py);
 1191              	 .loc 1 437 0
 1192 09ca 07F11003 	 add r3,r7,#16
 1193 09ce 1B68     	 ldr r3,[r3]
 1194 09d0 1B68     	 ldr r3,[r3]
 1195 09d2 C7F83C32 	 str r3,[r7,#572]
 438:../Dave/Generated/CMSIS_DSP/FilteringFunctions/arm_conv_partial_fast_q15.c **** 
 439:../Dave/Generated/CMSIS_DSP/FilteringFunctions/arm_conv_partial_fast_q15.c ****           /* Read x[7], x[8] */
 440:../Dave/Generated/CMSIS_DSP/FilteringFunctions/arm_conv_partial_fast_q15.c ****         x3 = *__SIMD32(px);
 1196              	 .loc 1 440 0
 1197 09d6 07F11403 	 add r3,r7,#20
 1198 09da 1B68     	 ldr r3,[r3]
 1199 09dc 1B68     	 ldr r3,[r3]
 1200 09de C7F83432 	 str r3,[r7,#564]
 441:../Dave/Generated/CMSIS_DSP/FilteringFunctions/arm_conv_partial_fast_q15.c **** 
 442:../Dave/Generated/CMSIS_DSP/FilteringFunctions/arm_conv_partial_fast_q15.c ****           /* Read x[9] */
 443:../Dave/Generated/CMSIS_DSP/FilteringFunctions/arm_conv_partial_fast_q15.c ****         x2 = _SIMD32_OFFSET(px+1);
 1201              	 .loc 1 443 0
 1202 09e2 07F11403 	 add r3,r7,#20
 1203 09e6 1B68     	 ldr r3,[r3]
 1204 09e8 D3F80230 	 ldr r3,[r3,#2]
 1205 09ec C7F83832 	 str r3,[r7,#568]
 444:../Dave/Generated/CMSIS_DSP/FilteringFunctions/arm_conv_partial_fast_q15.c **** 
 445:../Dave/Generated/CMSIS_DSP/FilteringFunctions/arm_conv_partial_fast_q15.c ****           /* Perform the multiply-accumulates */
 446:../Dave/Generated/CMSIS_DSP/FilteringFunctions/arm_conv_partial_fast_q15.c ****           acc0 = __SMLADX(x0, c0, acc0);
 1206              	 .loc 1 446 0
 1207 09f0 D7F86802 	 ldr r0,[r7,#616]
 1208 09f4 D7F83C12 	 ldr r1,[r7,#572]
 1209 09f8 D7F88022 	 ldr r2,[r7,#640]
 1210 09fc 07F1D803 	 add r3,r7,#216
 1211 0a00 1860     	 str r0,[r3]
 1212 0a02 07F1D403 	 add r3,r7,#212
 1213 0a06 1960     	 str r1,[r3]
 1214 0a08 07F1D003 	 add r3,r7,#208
 1215 0a0c 1A60     	 str r2,[r3]
 1216              	.LBB108:
 1217              	.LBB109:
 515:C:\Users\Depes Crystalline\Desktop\school\Active_Bike_Lighting_System\Radar_Core/Libraries/CMSIS/Include\core_cmSimd.h ****   return(result);
 1218              	 .loc 2 515 0
 1219 0a0e 07F1D803 	 add r3,r7,#216
 1220 0a12 1B68     	 ldr r3,[r3]
 1221 0a14 07F1D402 	 add r2,r7,#212
 1222 0a18 1268     	 ldr r2,[r2]
 1223 0a1a 07F1D001 	 add r1,r7,#208
 1224 0a1e 0968     	 ldr r1,[r1]
 1225              	
 1226 0a20 23FB1212 	 smladx r2,r3,r2,r1
 1227              	
 1228              	 .thumb
 1229 0a24 07F1CC03 	 add r3,r7,#204
 1230 0a28 1A60     	 str r2,[r3]
 1231              	 .loc 2 516 0
 1232 0a2a 07F1CC03 	 add r3,r7,#204
 1233 0a2e 1B68     	 ldr r3,[r3]
 1234              	.LBE109:
 1235              	.LBE108:
 1236              	 .loc 1 446 0
 1237 0a30 C7F88032 	 str r3,[r7,#640]
 447:../Dave/Generated/CMSIS_DSP/FilteringFunctions/arm_conv_partial_fast_q15.c ****           acc1 = __SMLADX(x1, c0, acc1);
 1238              	 .loc 1 447 0
 1239 0a34 D7F86402 	 ldr r0,[r7,#612]
 1240 0a38 D7F83C12 	 ldr r1,[r7,#572]
 1241 0a3c D7F87C22 	 ldr r2,[r7,#636]
 1242 0a40 07F1C803 	 add r3,r7,#200
 1243 0a44 1860     	 str r0,[r3]
 1244 0a46 07F1C403 	 add r3,r7,#196
 1245 0a4a 1960     	 str r1,[r3]
 1246 0a4c 07F1C003 	 add r3,r7,#192
 1247 0a50 1A60     	 str r2,[r3]
 1248              	.LBB110:
 1249              	.LBB111:
 515:C:\Users\Depes Crystalline\Desktop\school\Active_Bike_Lighting_System\Radar_Core/Libraries/CMSIS/Include\core_cmSimd.h ****   return(result);
 1250              	 .loc 2 515 0
 1251 0a52 07F1C803 	 add r3,r7,#200
 1252 0a56 1B68     	 ldr r3,[r3]
 1253 0a58 07F1C402 	 add r2,r7,#196
 1254 0a5c 1268     	 ldr r2,[r2]
 1255 0a5e 07F1C001 	 add r1,r7,#192
 1256 0a62 0968     	 ldr r1,[r1]
 1257              	
 1258 0a64 23FB1212 	 smladx r2,r3,r2,r1
 1259              	
 1260              	 .thumb
 1261 0a68 07F1BC03 	 add r3,r7,#188
 1262 0a6c 1A60     	 str r2,[r3]
 1263              	 .loc 2 516 0
 1264 0a6e 07F1BC03 	 add r3,r7,#188
 1265 0a72 1B68     	 ldr r3,[r3]
 1266              	.LBE111:
 1267              	.LBE110:
 1268              	 .loc 1 447 0
 1269 0a74 C7F87C32 	 str r3,[r7,#636]
 448:../Dave/Generated/CMSIS_DSP/FilteringFunctions/arm_conv_partial_fast_q15.c ****           acc2 = __SMLADX(x3, c0, acc2);
 1270              	 .loc 1 448 0
 1271 0a78 D7F83402 	 ldr r0,[r7,#564]
 1272 0a7c D7F83C12 	 ldr r1,[r7,#572]
 1273 0a80 D7F87822 	 ldr r2,[r7,#632]
 1274 0a84 07F1B803 	 add r3,r7,#184
 1275 0a88 1860     	 str r0,[r3]
 1276 0a8a 07F1B403 	 add r3,r7,#180
 1277 0a8e 1960     	 str r1,[r3]
 1278 0a90 07F1B003 	 add r3,r7,#176
 1279 0a94 1A60     	 str r2,[r3]
 1280              	.LBB112:
 1281              	.LBB113:
 515:C:\Users\Depes Crystalline\Desktop\school\Active_Bike_Lighting_System\Radar_Core/Libraries/CMSIS/Include\core_cmSimd.h ****   return(result);
 1282              	 .loc 2 515 0
 1283 0a96 07F1B803 	 add r3,r7,#184
 1284 0a9a 1B68     	 ldr r3,[r3]
 1285 0a9c 07F1B402 	 add r2,r7,#180
 1286 0aa0 1268     	 ldr r2,[r2]
 1287 0aa2 07F1B001 	 add r1,r7,#176
 1288 0aa6 0968     	 ldr r1,[r1]
 1289              	
 1290 0aa8 23FB1212 	 smladx r2,r3,r2,r1
 1291              	
 1292              	 .thumb
 1293 0aac 07F1AC03 	 add r3,r7,#172
 1294 0ab0 1A60     	 str r2,[r3]
 1295              	 .loc 2 516 0
 1296 0ab2 07F1AC03 	 add r3,r7,#172
 1297 0ab6 1B68     	 ldr r3,[r3]
 1298              	.LBE113:
 1299              	.LBE112:
 1300              	 .loc 1 448 0
 1301 0ab8 C7F87832 	 str r3,[r7,#632]
 449:../Dave/Generated/CMSIS_DSP/FilteringFunctions/arm_conv_partial_fast_q15.c ****           acc3 = __SMLADX(x2, c0, acc3);
 1302              	 .loc 1 449 0
 1303 0abc D7F83802 	 ldr r0,[r7,#568]
 1304 0ac0 D7F83C12 	 ldr r1,[r7,#572]
 1305 0ac4 D7F87422 	 ldr r2,[r7,#628]
 1306 0ac8 07F1A803 	 add r3,r7,#168
 1307 0acc 1860     	 str r0,[r3]
 1308 0ace 07F1A403 	 add r3,r7,#164
 1309 0ad2 1960     	 str r1,[r3]
 1310 0ad4 07F1A003 	 add r3,r7,#160
 1311 0ad8 1A60     	 str r2,[r3]
 1312              	.LBB114:
 1313              	.LBB115:
 515:C:\Users\Depes Crystalline\Desktop\school\Active_Bike_Lighting_System\Radar_Core/Libraries/CMSIS/Include\core_cmSimd.h ****   return(result);
 1314              	 .loc 2 515 0
 1315 0ada 07F1A803 	 add r3,r7,#168
 1316 0ade 1B68     	 ldr r3,[r3]
 1317 0ae0 07F1A402 	 add r2,r7,#164
 1318 0ae4 1268     	 ldr r2,[r2]
 1319 0ae6 07F1A001 	 add r1,r7,#160
 1320 0aea 0968     	 ldr r1,[r1]
 1321              	
 1322 0aec 23FB1212 	 smladx r2,r3,r2,r1
 1323              	
 1324              	 .thumb
 1325 0af0 07F19C03 	 add r3,r7,#156
 1326 0af4 1A60     	 str r2,[r3]
 1327              	 .loc 2 516 0
 1328 0af6 07F19C03 	 add r3,r7,#156
 1329 0afa 1B68     	 ldr r3,[r3]
 1330              	.LBE115:
 1331              	.LBE114:
 1332              	 .loc 1 449 0
 1333 0afc C7F87432 	 str r3,[r7,#628]
 450:../Dave/Generated/CMSIS_DSP/FilteringFunctions/arm_conv_partial_fast_q15.c **** 
 451:../Dave/Generated/CMSIS_DSP/FilteringFunctions/arm_conv_partial_fast_q15.c **** 		c0 = *(py-1);
 1334              	 .loc 1 451 0
 1335 0b00 07F11003 	 add r3,r7,#16
 1336 0b04 1B68     	 ldr r3,[r3]
 1337 0b06 023B     	 subs r3,r3,#2
 1338 0b08 1B88     	 ldrh r3,[r3]
 1339 0b0a 1BB2     	 sxth r3,r3
 1340 0b0c C7F83C32 	 str r3,[r7,#572]
 452:../Dave/Generated/CMSIS_DSP/FilteringFunctions/arm_conv_partial_fast_q15.c **** #ifdef  ARM_MATH_BIG_ENDIAN
 453:../Dave/Generated/CMSIS_DSP/FilteringFunctions/arm_conv_partial_fast_q15.c **** 
 454:../Dave/Generated/CMSIS_DSP/FilteringFunctions/arm_conv_partial_fast_q15.c ****         c0 = c0 << 16u;
 455:../Dave/Generated/CMSIS_DSP/FilteringFunctions/arm_conv_partial_fast_q15.c **** #else
 456:../Dave/Generated/CMSIS_DSP/FilteringFunctions/arm_conv_partial_fast_q15.c **** 
 457:../Dave/Generated/CMSIS_DSP/FilteringFunctions/arm_conv_partial_fast_q15.c ****         c0 = c0 & 0x0000FFFF;
 1341              	 .loc 1 457 0
 1342 0b10 D7F83C32 	 ldr r3,[r7,#572]
 1343 0b14 9BB2     	 uxth r3,r3
 1344 0b16 C7F83C32 	 str r3,[r7,#572]
 458:../Dave/Generated/CMSIS_DSP/FilteringFunctions/arm_conv_partial_fast_q15.c **** #endif /*      #ifdef  ARM_MATH_BIG_ENDIAN     */
 459:../Dave/Generated/CMSIS_DSP/FilteringFunctions/arm_conv_partial_fast_q15.c **** 
 460:../Dave/Generated/CMSIS_DSP/FilteringFunctions/arm_conv_partial_fast_q15.c ****           /* Read x[10] */
 461:../Dave/Generated/CMSIS_DSP/FilteringFunctions/arm_conv_partial_fast_q15.c ****         x3 =  _SIMD32_OFFSET(px+2);
 1345              	 .loc 1 461 0
 1346 0b1a 07F11403 	 add r3,r7,#20
 1347 0b1e 1B68     	 ldr r3,[r3]
 1348 0b20 5B68     	 ldr r3,[r3,#4]
 1349 0b22 C7F83432 	 str r3,[r7,#564]
 462:../Dave/Generated/CMSIS_DSP/FilteringFunctions/arm_conv_partial_fast_q15.c **** 		px += 3u;
 1350              	 .loc 1 462 0
 1351 0b26 07F11403 	 add r3,r7,#20
 1352 0b2a 1B68     	 ldr r3,[r3]
 1353 0b2c 9A1D     	 adds r2,r3,#6
 1354 0b2e 07F11403 	 add r3,r7,#20
 1355 0b32 1A60     	 str r2,[r3]
 463:../Dave/Generated/CMSIS_DSP/FilteringFunctions/arm_conv_partial_fast_q15.c **** 
 464:../Dave/Generated/CMSIS_DSP/FilteringFunctions/arm_conv_partial_fast_q15.c ****           /* Perform the multiply-accumulates */
 465:../Dave/Generated/CMSIS_DSP/FilteringFunctions/arm_conv_partial_fast_q15.c ****           acc0 = __SMLADX(x1, c0, acc0);
 1356              	 .loc 1 465 0
 1357 0b34 D7F86402 	 ldr r0,[r7,#612]
 1358 0b38 D7F83C12 	 ldr r1,[r7,#572]
 1359 0b3c D7F88022 	 ldr r2,[r7,#640]
 1360 0b40 07F19803 	 add r3,r7,#152
 1361 0b44 1860     	 str r0,[r3]
 1362 0b46 07F19403 	 add r3,r7,#148
 1363 0b4a 1960     	 str r1,[r3]
 1364 0b4c 07F19003 	 add r3,r7,#144
 1365 0b50 1A60     	 str r2,[r3]
 1366              	.LBB116:
 1367              	.LBB117:
 515:C:\Users\Depes Crystalline\Desktop\school\Active_Bike_Lighting_System\Radar_Core/Libraries/CMSIS/Include\core_cmSimd.h ****   return(result);
 1368              	 .loc 2 515 0
 1369 0b52 07F19803 	 add r3,r7,#152
 1370 0b56 1B68     	 ldr r3,[r3]
 1371 0b58 07F19402 	 add r2,r7,#148
 1372 0b5c 1268     	 ldr r2,[r2]
 1373 0b5e 07F19001 	 add r1,r7,#144
 1374 0b62 0968     	 ldr r1,[r1]
 1375              	
 1376 0b64 23FB1212 	 smladx r2,r3,r2,r1
 1377              	
 1378              	 .thumb
 1379 0b68 07F18C03 	 add r3,r7,#140
 1380 0b6c 1A60     	 str r2,[r3]
 1381              	 .loc 2 516 0
 1382 0b6e 07F18C03 	 add r3,r7,#140
 1383 0b72 1B68     	 ldr r3,[r3]
 1384              	.LBE117:
 1385              	.LBE116:
 1386              	 .loc 1 465 0
 1387 0b74 C7F88032 	 str r3,[r7,#640]
 466:../Dave/Generated/CMSIS_DSP/FilteringFunctions/arm_conv_partial_fast_q15.c ****           acc1 = __SMLAD(x2, c0, acc1);
 1388              	 .loc 1 466 0
 1389 0b78 D7F83802 	 ldr r0,[r7,#568]
 1390 0b7c D7F83C12 	 ldr r1,[r7,#572]
 1391 0b80 D7F87C22 	 ldr r2,[r7,#636]
 1392 0b84 07F18803 	 add r3,r7,#136
 1393 0b88 1860     	 str r0,[r3]
 1394 0b8a 07F18403 	 add r3,r7,#132
 1395 0b8e 1960     	 str r1,[r3]
 1396 0b90 07F18003 	 add r3,r7,#128
 1397 0b94 1A60     	 str r2,[r3]
 1398              	.LBB118:
 1399              	.LBB119:
 507:C:\Users\Depes Crystalline\Desktop\school\Active_Bike_Lighting_System\Radar_Core/Libraries/CMSIS/Include\core_cmSimd.h ****   return(result);
 1400              	 .loc 2 507 0
 1401 0b96 07F18803 	 add r3,r7,#136
 1402 0b9a 1B68     	 ldr r3,[r3]
 1403 0b9c 07F18402 	 add r2,r7,#132
 1404 0ba0 1268     	 ldr r2,[r2]
 1405 0ba2 07F18001 	 add r1,r7,#128
 1406 0ba6 0968     	 ldr r1,[r1]
 1407              	
 1408 0ba8 23FB0212 	 smlad r2,r3,r2,r1
 1409              	
 1410              	 .thumb
 1411 0bac 07F17C03 	 add r3,r7,#124
 1412 0bb0 1A60     	 str r2,[r3]
 508:C:\Users\Depes Crystalline\Desktop\school\Active_Bike_Lighting_System\Radar_Core/Libraries/CMSIS/Include\core_cmSimd.h **** }
 1413              	 .loc 2 508 0
 1414 0bb2 07F17C03 	 add r3,r7,#124
 1415 0bb6 1B68     	 ldr r3,[r3]
 1416              	.LBE119:
 1417              	.LBE118:
 1418              	 .loc 1 466 0
 1419 0bb8 C7F87C32 	 str r3,[r7,#636]
 467:../Dave/Generated/CMSIS_DSP/FilteringFunctions/arm_conv_partial_fast_q15.c ****           acc2 = __SMLADX(x2, c0, acc2);
 1420              	 .loc 1 467 0
 1421 0bbc D7F83802 	 ldr r0,[r7,#568]
 1422 0bc0 D7F83C12 	 ldr r1,[r7,#572]
 1423 0bc4 D7F87822 	 ldr r2,[r7,#632]
 1424 0bc8 07F17803 	 add r3,r7,#120
 1425 0bcc 1860     	 str r0,[r3]
 1426 0bce 07F17403 	 add r3,r7,#116
 1427 0bd2 1960     	 str r1,[r3]
 1428 0bd4 07F17003 	 add r3,r7,#112
 1429 0bd8 1A60     	 str r2,[r3]
 1430              	.LBB120:
 1431              	.LBB121:
 515:C:\Users\Depes Crystalline\Desktop\school\Active_Bike_Lighting_System\Radar_Core/Libraries/CMSIS/Include\core_cmSimd.h ****   return(result);
 1432              	 .loc 2 515 0
 1433 0bda 07F17803 	 add r3,r7,#120
 1434 0bde 1B68     	 ldr r3,[r3]
 1435 0be0 07F17402 	 add r2,r7,#116
 1436 0be4 1268     	 ldr r2,[r2]
 1437 0be6 07F17001 	 add r1,r7,#112
 1438 0bea 0968     	 ldr r1,[r1]
 1439              	
 1440 0bec 23FB1212 	 smladx r2,r3,r2,r1
 1441              	
 1442              	 .thumb
 1443 0bf0 07F16C03 	 add r3,r7,#108
 1444 0bf4 1A60     	 str r2,[r3]
 1445              	 .loc 2 516 0
 1446 0bf6 07F16C03 	 add r3,r7,#108
 1447 0bfa 1B68     	 ldr r3,[r3]
 1448              	.LBE121:
 1449              	.LBE120:
 1450              	 .loc 1 467 0
 1451 0bfc C7F87832 	 str r3,[r7,#632]
 468:../Dave/Generated/CMSIS_DSP/FilteringFunctions/arm_conv_partial_fast_q15.c ****           acc3 = __SMLADX(x3, c0, acc3);
 1452              	 .loc 1 468 0
 1453 0c00 D7F83402 	 ldr r0,[r7,#564]
 1454 0c04 D7F83C12 	 ldr r1,[r7,#572]
 1455 0c08 D7F87422 	 ldr r2,[r7,#628]
 1456 0c0c 07F16803 	 add r3,r7,#104
 1457 0c10 1860     	 str r0,[r3]
 1458 0c12 07F16403 	 add r3,r7,#100
 1459 0c16 1960     	 str r1,[r3]
 1460 0c18 07F16003 	 add r3,r7,#96
 1461 0c1c 1A60     	 str r2,[r3]
 1462              	.LBB122:
 1463              	.LBB123:
 515:C:\Users\Depes Crystalline\Desktop\school\Active_Bike_Lighting_System\Radar_Core/Libraries/CMSIS/Include\core_cmSimd.h ****   return(result);
 1464              	 .loc 2 515 0
 1465 0c1e 07F16803 	 add r3,r7,#104
 1466 0c22 1B68     	 ldr r3,[r3]
 1467 0c24 07F16402 	 add r2,r7,#100
 1468 0c28 1268     	 ldr r2,[r2]
 1469 0c2a 07F16001 	 add r1,r7,#96
 1470 0c2e 0968     	 ldr r1,[r1]
 1471              	
 1472 0c30 23FB1212 	 smladx r2,r3,r2,r1
 1473              	
 1474              	 .thumb
 1475 0c34 07F15C03 	 add r3,r7,#92
 1476 0c38 1A60     	 str r2,[r3]
 1477              	 .loc 2 516 0
 1478 0c3a 07F15C03 	 add r3,r7,#92
 1479 0c3e 1B68     	 ldr r3,[r3]
 1480              	.LBE123:
 1481              	.LBE122:
 1482              	 .loc 1 468 0
 1483 0c40 C7F87432 	 str r3,[r7,#628]
 1484              	.L52:
 469:../Dave/Generated/CMSIS_DSP/FilteringFunctions/arm_conv_partial_fast_q15.c ****         }
 470:../Dave/Generated/CMSIS_DSP/FilteringFunctions/arm_conv_partial_fast_q15.c **** 
 471:../Dave/Generated/CMSIS_DSP/FilteringFunctions/arm_conv_partial_fast_q15.c ****         /* Store the results in the accumulators in the destination buffer. */
 472:../Dave/Generated/CMSIS_DSP/FilteringFunctions/arm_conv_partial_fast_q15.c **** #ifndef ARM_MATH_BIG_ENDIAN
 473:../Dave/Generated/CMSIS_DSP/FilteringFunctions/arm_conv_partial_fast_q15.c **** 
 474:../Dave/Generated/CMSIS_DSP/FilteringFunctions/arm_conv_partial_fast_q15.c ****         *__SIMD32(pOut)++ = __PKHBT(acc0 >> 15, acc1 >> 15, 16);
 1485              	 .loc 1 474 0
 1486 0c44 07F11802 	 add r2,r7,#24
 1487 0c48 1368     	 ldr r3,[r2]
 1488 0c4a 191D     	 adds r1,r3,#4
 1489 0c4c 1160     	 str r1,[r2]
 1490              	.LBB124:
 1491 0c4e D7F88022 	 ldr r2,[r7,#640]
 1492 0c52 D213     	 asrs r2,r2,#15
 1493 0c54 C7F83022 	 str r2,[r7,#560]
 1494 0c58 D7F87C22 	 ldr r2,[r7,#636]
 1495 0c5c D213     	 asrs r2,r2,#15
 1496 0c5e C7F82C22 	 str r2,[r7,#556]
 1497 0c62 D7F83022 	 ldr r2,[r7,#560]
 1498 0c66 D7F82C12 	 ldr r1,[r7,#556]
 1499              	
 1500 0c6a C2EA0142 	 pkhbt r2,r2,r1,lsl#16
 1501              	
 1502              	 .thumb
 1503 0c6e C7F82822 	 str r2,[r7,#552]
 1504 0c72 D7F82822 	 ldr r2,[r7,#552]
 1505              	.LBE124:
 1506 0c76 1A60     	 str r2,[r3]
 475:../Dave/Generated/CMSIS_DSP/FilteringFunctions/arm_conv_partial_fast_q15.c ****         *__SIMD32(pOut)++ = __PKHBT(acc2 >> 15, acc3 >> 15, 16);
 1507              	 .loc 1 475 0
 1508 0c78 07F11802 	 add r2,r7,#24
 1509 0c7c 1368     	 ldr r3,[r2]
 1510 0c7e 191D     	 adds r1,r3,#4
 1511 0c80 1160     	 str r1,[r2]
 1512              	.LBB125:
 1513 0c82 D7F87822 	 ldr r2,[r7,#632]
 1514 0c86 D213     	 asrs r2,r2,#15
 1515 0c88 C7F82422 	 str r2,[r7,#548]
 1516 0c8c D7F87422 	 ldr r2,[r7,#628]
 1517 0c90 D213     	 asrs r2,r2,#15
 1518 0c92 C7F82022 	 str r2,[r7,#544]
 1519 0c96 D7F82422 	 ldr r2,[r7,#548]
 1520 0c9a D7F82012 	 ldr r1,[r7,#544]
 1521              	
 1522 0c9e C2EA0142 	 pkhbt r2,r2,r1,lsl#16
 1523              	
 1524              	 .thumb
 1525 0ca2 C7F81C22 	 str r2,[r7,#540]
 1526 0ca6 D7F81C22 	 ldr r2,[r7,#540]
 1527              	.LBE125:
 1528 0caa 1A60     	 str r2,[r3]
 476:../Dave/Generated/CMSIS_DSP/FilteringFunctions/arm_conv_partial_fast_q15.c **** 
 477:../Dave/Generated/CMSIS_DSP/FilteringFunctions/arm_conv_partial_fast_q15.c **** #else
 478:../Dave/Generated/CMSIS_DSP/FilteringFunctions/arm_conv_partial_fast_q15.c **** 
 479:../Dave/Generated/CMSIS_DSP/FilteringFunctions/arm_conv_partial_fast_q15.c ****         *__SIMD32(pOut)++ = __PKHBT(acc1 >> 15, acc0 >> 15, 16);
 480:../Dave/Generated/CMSIS_DSP/FilteringFunctions/arm_conv_partial_fast_q15.c ****         *__SIMD32(pOut)++ = __PKHBT(acc3 >> 15, acc2 >> 15, 16);
 481:../Dave/Generated/CMSIS_DSP/FilteringFunctions/arm_conv_partial_fast_q15.c **** 
 482:../Dave/Generated/CMSIS_DSP/FilteringFunctions/arm_conv_partial_fast_q15.c **** #endif /*      #ifndef  ARM_MATH_BIG_ENDIAN    */
 483:../Dave/Generated/CMSIS_DSP/FilteringFunctions/arm_conv_partial_fast_q15.c **** 
 484:../Dave/Generated/CMSIS_DSP/FilteringFunctions/arm_conv_partial_fast_q15.c ****         /* Increment the pointer pIn1 index, count by 4 */
 485:../Dave/Generated/CMSIS_DSP/FilteringFunctions/arm_conv_partial_fast_q15.c ****         count += 4u;
 1529              	 .loc 1 485 0
 1530 0cac D7F85832 	 ldr r3,[r7,#600]
 1531 0cb0 0433     	 adds r3,r3,#4
 1532 0cb2 C7F85832 	 str r3,[r7,#600]
 486:../Dave/Generated/CMSIS_DSP/FilteringFunctions/arm_conv_partial_fast_q15.c **** 
 487:../Dave/Generated/CMSIS_DSP/FilteringFunctions/arm_conv_partial_fast_q15.c ****         /* Update the inputA and inputB pointers for next MAC calculation */
 488:../Dave/Generated/CMSIS_DSP/FilteringFunctions/arm_conv_partial_fast_q15.c ****         px = pIn1 + count;
 1533              	 .loc 1 488 0
 1534 0cb6 D7F85832 	 ldr r3,[r7,#600]
 1535 0cba 5B00     	 lsls r3,r3,#1
 1536 0cbc D7F88C22 	 ldr r2,[r7,#652]
 1537 0cc0 1A44     	 add r2,r2,r3
 1538 0cc2 07F11403 	 add r3,r7,#20
 1539 0cc6 1A60     	 str r2,[r3]
 489:../Dave/Generated/CMSIS_DSP/FilteringFunctions/arm_conv_partial_fast_q15.c ****         py = pSrc2;
 1540              	 .loc 1 489 0
 1541 0cc8 07F11003 	 add r3,r7,#16
 1542 0ccc D7F86C22 	 ldr r2,[r7,#620]
 1543 0cd0 1A60     	 str r2,[r3]
 490:../Dave/Generated/CMSIS_DSP/FilteringFunctions/arm_conv_partial_fast_q15.c **** 
 491:../Dave/Generated/CMSIS_DSP/FilteringFunctions/arm_conv_partial_fast_q15.c ****         /* Decrement the loop counter */
 492:../Dave/Generated/CMSIS_DSP/FilteringFunctions/arm_conv_partial_fast_q15.c ****         blkCnt--;
 1544              	 .loc 1 492 0
 1545 0cd2 D7F85432 	 ldr r3,[r7,#596]
 1546 0cd6 013B     	 subs r3,r3,#1
 1547 0cd8 C7F85432 	 str r3,[r7,#596]
 1548              	.L32:
 312:../Dave/Generated/CMSIS_DSP/FilteringFunctions/arm_conv_partial_fast_q15.c ****       {
 1549              	 .loc 1 312 0
 1550 0cdc D7F85432 	 ldr r3,[r7,#596]
 1551 0ce0 002B     	 cmp r3,#0
 1552 0ce2 7FF4C5AB 	 bne .L61
 493:../Dave/Generated/CMSIS_DSP/FilteringFunctions/arm_conv_partial_fast_q15.c ****       }
 494:../Dave/Generated/CMSIS_DSP/FilteringFunctions/arm_conv_partial_fast_q15.c **** 
 495:../Dave/Generated/CMSIS_DSP/FilteringFunctions/arm_conv_partial_fast_q15.c ****       /* If the blockSize2 is not a multiple of 4, compute any remaining output samples here.   
 496:../Dave/Generated/CMSIS_DSP/FilteringFunctions/arm_conv_partial_fast_q15.c ****        ** No loop unrolling is used. */
 497:../Dave/Generated/CMSIS_DSP/FilteringFunctions/arm_conv_partial_fast_q15.c ****       blkCnt = (uint32_t) blockSize2 % 0x4u;
 1553              	 .loc 1 497 0
 1554 0ce6 D7F84032 	 ldr r3,[r7,#576]
 1555 0cea 03F00303 	 and r3,r3,#3
 1556 0cee C7F85432 	 str r3,[r7,#596]
 498:../Dave/Generated/CMSIS_DSP/FilteringFunctions/arm_conv_partial_fast_q15.c **** 
 499:../Dave/Generated/CMSIS_DSP/FilteringFunctions/arm_conv_partial_fast_q15.c ****       while(blkCnt > 0u)
 1557              	 .loc 1 499 0
 1558 0cf2 C2E0     	 b .L62
 1559              	.L67:
 500:../Dave/Generated/CMSIS_DSP/FilteringFunctions/arm_conv_partial_fast_q15.c ****       {
 501:../Dave/Generated/CMSIS_DSP/FilteringFunctions/arm_conv_partial_fast_q15.c ****         /* Accumulator is made zero for every iteration */
 502:../Dave/Generated/CMSIS_DSP/FilteringFunctions/arm_conv_partial_fast_q15.c ****         sum = 0;
 1560              	 .loc 1 502 0
 1561 0cf4 0023     	 movs r3,#0
 1562 0cf6 C7F88432 	 str r3,[r7,#644]
 503:../Dave/Generated/CMSIS_DSP/FilteringFunctions/arm_conv_partial_fast_q15.c **** 
 504:../Dave/Generated/CMSIS_DSP/FilteringFunctions/arm_conv_partial_fast_q15.c ****         /* Apply loop unrolling and compute 4 MACs simultaneously. */
 505:../Dave/Generated/CMSIS_DSP/FilteringFunctions/arm_conv_partial_fast_q15.c ****         k = srcBLen >> 2u;
 1563              	 .loc 1 505 0
 1564 0cfa 3B46     	 mov r3,r7
 1565 0cfc 1B68     	 ldr r3,[r3]
 1566 0cfe 9B08     	 lsrs r3,r3,#2
 1567 0d00 C7F85C32 	 str r3,[r7,#604]
 506:../Dave/Generated/CMSIS_DSP/FilteringFunctions/arm_conv_partial_fast_q15.c **** 
 507:../Dave/Generated/CMSIS_DSP/FilteringFunctions/arm_conv_partial_fast_q15.c ****         /* First part of the processing with loop unrolling.  Compute 4 MACs at a time.   
 508:../Dave/Generated/CMSIS_DSP/FilteringFunctions/arm_conv_partial_fast_q15.c ****          ** a second loop below computes MACs for the remaining 1 to 3 samples. */
 509:../Dave/Generated/CMSIS_DSP/FilteringFunctions/arm_conv_partial_fast_q15.c ****         while(k > 0u)
 1568              	 .loc 1 509 0
 1569 0d04 68E0     	 b .L63
 1570              	.L64:
 510:../Dave/Generated/CMSIS_DSP/FilteringFunctions/arm_conv_partial_fast_q15.c ****         {
 511:../Dave/Generated/CMSIS_DSP/FilteringFunctions/arm_conv_partial_fast_q15.c ****           /* Perform the multiply-accumulates */
 512:../Dave/Generated/CMSIS_DSP/FilteringFunctions/arm_conv_partial_fast_q15.c ****           sum += ((q31_t) * px++ * *py--);
 1571              	 .loc 1 512 0
 1572 0d06 07F11403 	 add r3,r7,#20
 1573 0d0a 1B68     	 ldr r3,[r3]
 1574 0d0c 991C     	 adds r1,r3,#2
 1575 0d0e 07F11402 	 add r2,r7,#20
 1576 0d12 1160     	 str r1,[r2]
 1577 0d14 1B88     	 ldrh r3,[r3]
 1578 0d16 1AB2     	 sxth r2,r3
 1579 0d18 07F11003 	 add r3,r7,#16
 1580 0d1c 1B68     	 ldr r3,[r3]
 1581 0d1e 981E     	 subs r0,r3,#2
 1582 0d20 07F11001 	 add r1,r7,#16
 1583 0d24 0860     	 str r0,[r1]
 1584 0d26 1B88     	 ldrh r3,[r3]
 1585 0d28 1BB2     	 sxth r3,r3
 1586 0d2a 03FB02F3 	 mul r3,r3,r2
 1587 0d2e D7F88422 	 ldr r2,[r7,#644]
 1588 0d32 1344     	 add r3,r3,r2
 1589 0d34 C7F88432 	 str r3,[r7,#644]
 513:../Dave/Generated/CMSIS_DSP/FilteringFunctions/arm_conv_partial_fast_q15.c ****           sum += ((q31_t) * px++ * *py--);
 1590              	 .loc 1 513 0
 1591 0d38 07F11403 	 add r3,r7,#20
 1592 0d3c 1B68     	 ldr r3,[r3]
 1593 0d3e 991C     	 adds r1,r3,#2
 1594 0d40 07F11402 	 add r2,r7,#20
 1595 0d44 1160     	 str r1,[r2]
 1596 0d46 1B88     	 ldrh r3,[r3]
 1597 0d48 1AB2     	 sxth r2,r3
 1598 0d4a 07F11003 	 add r3,r7,#16
 1599 0d4e 1B68     	 ldr r3,[r3]
 1600 0d50 981E     	 subs r0,r3,#2
 1601 0d52 07F11001 	 add r1,r7,#16
 1602 0d56 0860     	 str r0,[r1]
 1603 0d58 1B88     	 ldrh r3,[r3]
 1604 0d5a 1BB2     	 sxth r3,r3
 1605 0d5c 03FB02F3 	 mul r3,r3,r2
 1606 0d60 D7F88422 	 ldr r2,[r7,#644]
 1607 0d64 1344     	 add r3,r3,r2
 1608 0d66 C7F88432 	 str r3,[r7,#644]
 514:../Dave/Generated/CMSIS_DSP/FilteringFunctions/arm_conv_partial_fast_q15.c ****           sum += ((q31_t) * px++ * *py--);
 1609              	 .loc 1 514 0
 1610 0d6a 07F11403 	 add r3,r7,#20
 1611 0d6e 1B68     	 ldr r3,[r3]
 1612 0d70 991C     	 adds r1,r3,#2
 1613 0d72 07F11402 	 add r2,r7,#20
 1614 0d76 1160     	 str r1,[r2]
 1615 0d78 1B88     	 ldrh r3,[r3]
 1616 0d7a 1AB2     	 sxth r2,r3
 1617 0d7c 07F11003 	 add r3,r7,#16
 1618 0d80 1B68     	 ldr r3,[r3]
 1619 0d82 981E     	 subs r0,r3,#2
 1620 0d84 07F11001 	 add r1,r7,#16
 1621 0d88 0860     	 str r0,[r1]
 1622 0d8a 1B88     	 ldrh r3,[r3]
 1623 0d8c 1BB2     	 sxth r3,r3
 1624 0d8e 03FB02F3 	 mul r3,r3,r2
 1625 0d92 D7F88422 	 ldr r2,[r7,#644]
 1626 0d96 1344     	 add r3,r3,r2
 1627 0d98 C7F88432 	 str r3,[r7,#644]
 515:../Dave/Generated/CMSIS_DSP/FilteringFunctions/arm_conv_partial_fast_q15.c ****           sum += ((q31_t) * px++ * *py--);
 1628              	 .loc 1 515 0
 1629 0d9c 07F11403 	 add r3,r7,#20
 1630 0da0 1B68     	 ldr r3,[r3]
 1631 0da2 991C     	 adds r1,r3,#2
 1632 0da4 07F11402 	 add r2,r7,#20
 1633 0da8 1160     	 str r1,[r2]
 1634 0daa 1B88     	 ldrh r3,[r3]
 1635 0dac 1AB2     	 sxth r2,r3
 1636 0dae 07F11003 	 add r3,r7,#16
 1637 0db2 1B68     	 ldr r3,[r3]
 1638 0db4 981E     	 subs r0,r3,#2
 1639 0db6 07F11001 	 add r1,r7,#16
 1640 0dba 0860     	 str r0,[r1]
 1641 0dbc 1B88     	 ldrh r3,[r3]
 1642 0dbe 1BB2     	 sxth r3,r3
 1643 0dc0 03FB02F3 	 mul r3,r3,r2
 1644 0dc4 D7F88422 	 ldr r2,[r7,#644]
 1645 0dc8 1344     	 add r3,r3,r2
 1646 0dca C7F88432 	 str r3,[r7,#644]
 516:../Dave/Generated/CMSIS_DSP/FilteringFunctions/arm_conv_partial_fast_q15.c **** 
 517:../Dave/Generated/CMSIS_DSP/FilteringFunctions/arm_conv_partial_fast_q15.c ****           /* Decrement the loop counter */
 518:../Dave/Generated/CMSIS_DSP/FilteringFunctions/arm_conv_partial_fast_q15.c ****           k--;
 1647              	 .loc 1 518 0
 1648 0dce D7F85C32 	 ldr r3,[r7,#604]
 1649 0dd2 013B     	 subs r3,r3,#1
 1650 0dd4 C7F85C32 	 str r3,[r7,#604]
 1651              	.L63:
 509:../Dave/Generated/CMSIS_DSP/FilteringFunctions/arm_conv_partial_fast_q15.c ****         {
 1652              	 .loc 1 509 0
 1653 0dd8 D7F85C32 	 ldr r3,[r7,#604]
 1654 0ddc 002B     	 cmp r3,#0
 1655 0dde 92D1     	 bne .L64
 519:../Dave/Generated/CMSIS_DSP/FilteringFunctions/arm_conv_partial_fast_q15.c ****         }
 520:../Dave/Generated/CMSIS_DSP/FilteringFunctions/arm_conv_partial_fast_q15.c **** 
 521:../Dave/Generated/CMSIS_DSP/FilteringFunctions/arm_conv_partial_fast_q15.c ****         /* If the srcBLen is not a multiple of 4, compute any remaining MACs here.   
 522:../Dave/Generated/CMSIS_DSP/FilteringFunctions/arm_conv_partial_fast_q15.c ****          ** No loop unrolling is used. */
 523:../Dave/Generated/CMSIS_DSP/FilteringFunctions/arm_conv_partial_fast_q15.c ****         k = srcBLen % 0x4u;
 1656              	 .loc 1 523 0
 1657 0de0 3B46     	 mov r3,r7
 1658 0de2 1B68     	 ldr r3,[r3]
 1659 0de4 03F00303 	 and r3,r3,#3
 1660 0de8 C7F85C32 	 str r3,[r7,#604]
 524:../Dave/Generated/CMSIS_DSP/FilteringFunctions/arm_conv_partial_fast_q15.c **** 
 525:../Dave/Generated/CMSIS_DSP/FilteringFunctions/arm_conv_partial_fast_q15.c ****         while(k > 0u)
 1661              	 .loc 1 525 0
 1662 0dec 1DE0     	 b .L65
 1663              	.L66:
 526:../Dave/Generated/CMSIS_DSP/FilteringFunctions/arm_conv_partial_fast_q15.c ****         {
 527:../Dave/Generated/CMSIS_DSP/FilteringFunctions/arm_conv_partial_fast_q15.c ****           /* Perform the multiply-accumulates */
 528:../Dave/Generated/CMSIS_DSP/FilteringFunctions/arm_conv_partial_fast_q15.c ****           sum += ((q31_t) * px++ * *py--);
 1664              	 .loc 1 528 0
 1665 0dee 07F11403 	 add r3,r7,#20
 1666 0df2 1B68     	 ldr r3,[r3]
 1667 0df4 991C     	 adds r1,r3,#2
 1668 0df6 07F11402 	 add r2,r7,#20
 1669 0dfa 1160     	 str r1,[r2]
 1670 0dfc 1B88     	 ldrh r3,[r3]
 1671 0dfe 1AB2     	 sxth r2,r3
 1672 0e00 07F11003 	 add r3,r7,#16
 1673 0e04 1B68     	 ldr r3,[r3]
 1674 0e06 981E     	 subs r0,r3,#2
 1675 0e08 07F11001 	 add r1,r7,#16
 1676 0e0c 0860     	 str r0,[r1]
 1677 0e0e 1B88     	 ldrh r3,[r3]
 1678 0e10 1BB2     	 sxth r3,r3
 1679 0e12 03FB02F3 	 mul r3,r3,r2
 1680 0e16 D7F88422 	 ldr r2,[r7,#644]
 1681 0e1a 1344     	 add r3,r3,r2
 1682 0e1c C7F88432 	 str r3,[r7,#644]
 529:../Dave/Generated/CMSIS_DSP/FilteringFunctions/arm_conv_partial_fast_q15.c **** 
 530:../Dave/Generated/CMSIS_DSP/FilteringFunctions/arm_conv_partial_fast_q15.c ****           /* Decrement the loop counter */
 531:../Dave/Generated/CMSIS_DSP/FilteringFunctions/arm_conv_partial_fast_q15.c ****           k--;
 1683              	 .loc 1 531 0
 1684 0e20 D7F85C32 	 ldr r3,[r7,#604]
 1685 0e24 013B     	 subs r3,r3,#1
 1686 0e26 C7F85C32 	 str r3,[r7,#604]
 1687              	.L65:
 525:../Dave/Generated/CMSIS_DSP/FilteringFunctions/arm_conv_partial_fast_q15.c ****         {
 1688              	 .loc 1 525 0
 1689 0e2a D7F85C32 	 ldr r3,[r7,#604]
 1690 0e2e 002B     	 cmp r3,#0
 1691 0e30 DDD1     	 bne .L66
 532:../Dave/Generated/CMSIS_DSP/FilteringFunctions/arm_conv_partial_fast_q15.c ****         }
 533:../Dave/Generated/CMSIS_DSP/FilteringFunctions/arm_conv_partial_fast_q15.c **** 
 534:../Dave/Generated/CMSIS_DSP/FilteringFunctions/arm_conv_partial_fast_q15.c ****         /* Store the result in the accumulator in the destination buffer. */
 535:../Dave/Generated/CMSIS_DSP/FilteringFunctions/arm_conv_partial_fast_q15.c ****         *pOut++ = (q15_t) (sum >> 15);
 1692              	 .loc 1 535 0
 1693 0e32 07F11803 	 add r3,r7,#24
 1694 0e36 1B68     	 ldr r3,[r3]
 1695 0e38 991C     	 adds r1,r3,#2
 1696 0e3a 07F11802 	 add r2,r7,#24
 1697 0e3e 1160     	 str r1,[r2]
 1698 0e40 D7F88422 	 ldr r2,[r7,#644]
 1699 0e44 D213     	 asrs r2,r2,#15
 1700 0e46 92B2     	 uxth r2,r2
 1701 0e48 1A80     	 strh r2,[r3]
 536:../Dave/Generated/CMSIS_DSP/FilteringFunctions/arm_conv_partial_fast_q15.c **** 
 537:../Dave/Generated/CMSIS_DSP/FilteringFunctions/arm_conv_partial_fast_q15.c ****         /* Increment the pointer pIn1 index, count by 1 */
 538:../Dave/Generated/CMSIS_DSP/FilteringFunctions/arm_conv_partial_fast_q15.c ****         count++;
 1702              	 .loc 1 538 0
 1703 0e4a D7F85832 	 ldr r3,[r7,#600]
 1704 0e4e 0133     	 adds r3,r3,#1
 1705 0e50 C7F85832 	 str r3,[r7,#600]
 539:../Dave/Generated/CMSIS_DSP/FilteringFunctions/arm_conv_partial_fast_q15.c **** 
 540:../Dave/Generated/CMSIS_DSP/FilteringFunctions/arm_conv_partial_fast_q15.c ****         /* Update the inputA and inputB pointers for next MAC calculation */
 541:../Dave/Generated/CMSIS_DSP/FilteringFunctions/arm_conv_partial_fast_q15.c ****         px = pIn1 + count;
 1706              	 .loc 1 541 0
 1707 0e54 D7F85832 	 ldr r3,[r7,#600]
 1708 0e58 5B00     	 lsls r3,r3,#1
 1709 0e5a D7F88C22 	 ldr r2,[r7,#652]
 1710 0e5e 1A44     	 add r2,r2,r3
 1711 0e60 07F11403 	 add r3,r7,#20
 1712 0e64 1A60     	 str r2,[r3]
 542:../Dave/Generated/CMSIS_DSP/FilteringFunctions/arm_conv_partial_fast_q15.c ****         py = pSrc2;
 1713              	 .loc 1 542 0
 1714 0e66 07F11003 	 add r3,r7,#16
 1715 0e6a D7F86C22 	 ldr r2,[r7,#620]
 1716 0e6e 1A60     	 str r2,[r3]
 543:../Dave/Generated/CMSIS_DSP/FilteringFunctions/arm_conv_partial_fast_q15.c **** 
 544:../Dave/Generated/CMSIS_DSP/FilteringFunctions/arm_conv_partial_fast_q15.c ****         /* Decrement the loop counter */
 545:../Dave/Generated/CMSIS_DSP/FilteringFunctions/arm_conv_partial_fast_q15.c ****         blkCnt--;
 1717              	 .loc 1 545 0
 1718 0e70 D7F85432 	 ldr r3,[r7,#596]
 1719 0e74 013B     	 subs r3,r3,#1
 1720 0e76 C7F85432 	 str r3,[r7,#596]
 1721              	.L62:
 499:../Dave/Generated/CMSIS_DSP/FilteringFunctions/arm_conv_partial_fast_q15.c ****       {
 1722              	 .loc 1 499 0
 1723 0e7a D7F85432 	 ldr r3,[r7,#596]
 1724 0e7e 002B     	 cmp r3,#0
 1725 0e80 7FF438AF 	 bne .L67
 1726 0e84 56E0     	 b .L68
 1727              	.L31:
 546:../Dave/Generated/CMSIS_DSP/FilteringFunctions/arm_conv_partial_fast_q15.c ****       }
 547:../Dave/Generated/CMSIS_DSP/FilteringFunctions/arm_conv_partial_fast_q15.c ****     }
 548:../Dave/Generated/CMSIS_DSP/FilteringFunctions/arm_conv_partial_fast_q15.c ****     else
 549:../Dave/Generated/CMSIS_DSP/FilteringFunctions/arm_conv_partial_fast_q15.c ****     {
 550:../Dave/Generated/CMSIS_DSP/FilteringFunctions/arm_conv_partial_fast_q15.c ****       /* If the srcBLen is not a multiple of 4,   
 551:../Dave/Generated/CMSIS_DSP/FilteringFunctions/arm_conv_partial_fast_q15.c ****        * the blockSize2 loop cannot be unrolled by 4 */
 552:../Dave/Generated/CMSIS_DSP/FilteringFunctions/arm_conv_partial_fast_q15.c ****       blkCnt = (uint32_t) blockSize2;
 1728              	 .loc 1 552 0
 1729 0e86 D7F84032 	 ldr r3,[r7,#576]
 1730 0e8a C7F85432 	 str r3,[r7,#596]
 553:../Dave/Generated/CMSIS_DSP/FilteringFunctions/arm_conv_partial_fast_q15.c **** 
 554:../Dave/Generated/CMSIS_DSP/FilteringFunctions/arm_conv_partial_fast_q15.c ****       while(blkCnt > 0u)
 1731              	 .loc 1 554 0
 1732 0e8e 4DE0     	 b .L69
 1733              	.L72:
 555:../Dave/Generated/CMSIS_DSP/FilteringFunctions/arm_conv_partial_fast_q15.c ****       {
 556:../Dave/Generated/CMSIS_DSP/FilteringFunctions/arm_conv_partial_fast_q15.c ****         /* Accumulator is made zero for every iteration */
 557:../Dave/Generated/CMSIS_DSP/FilteringFunctions/arm_conv_partial_fast_q15.c ****         sum = 0;
 1734              	 .loc 1 557 0
 1735 0e90 0023     	 movs r3,#0
 1736 0e92 C7F88432 	 str r3,[r7,#644]
 558:../Dave/Generated/CMSIS_DSP/FilteringFunctions/arm_conv_partial_fast_q15.c **** 
 559:../Dave/Generated/CMSIS_DSP/FilteringFunctions/arm_conv_partial_fast_q15.c ****         /* srcBLen number of MACS should be performed */
 560:../Dave/Generated/CMSIS_DSP/FilteringFunctions/arm_conv_partial_fast_q15.c ****         k = srcBLen;
 1737              	 .loc 1 560 0
 1738 0e96 3B46     	 mov r3,r7
 1739 0e98 1B68     	 ldr r3,[r3]
 1740 0e9a C7F85C32 	 str r3,[r7,#604]
 561:../Dave/Generated/CMSIS_DSP/FilteringFunctions/arm_conv_partial_fast_q15.c **** 
 562:../Dave/Generated/CMSIS_DSP/FilteringFunctions/arm_conv_partial_fast_q15.c ****         while(k > 0u)
 1741              	 .loc 1 562 0
 1742 0e9e 1DE0     	 b .L70
 1743              	.L71:
 563:../Dave/Generated/CMSIS_DSP/FilteringFunctions/arm_conv_partial_fast_q15.c ****         {
 564:../Dave/Generated/CMSIS_DSP/FilteringFunctions/arm_conv_partial_fast_q15.c ****           /* Perform the multiply-accumulate */
 565:../Dave/Generated/CMSIS_DSP/FilteringFunctions/arm_conv_partial_fast_q15.c ****           sum += ((q31_t) * px++ * *py--);
 1744              	 .loc 1 565 0
 1745 0ea0 07F11403 	 add r3,r7,#20
 1746 0ea4 1B68     	 ldr r3,[r3]
 1747 0ea6 991C     	 adds r1,r3,#2
 1748 0ea8 07F11402 	 add r2,r7,#20
 1749 0eac 1160     	 str r1,[r2]
 1750 0eae 1B88     	 ldrh r3,[r3]
 1751 0eb0 1AB2     	 sxth r2,r3
 1752 0eb2 07F11003 	 add r3,r7,#16
 1753 0eb6 1B68     	 ldr r3,[r3]
 1754 0eb8 981E     	 subs r0,r3,#2
 1755 0eba 07F11001 	 add r1,r7,#16
 1756 0ebe 0860     	 str r0,[r1]
 1757 0ec0 1B88     	 ldrh r3,[r3]
 1758 0ec2 1BB2     	 sxth r3,r3
 1759 0ec4 03FB02F3 	 mul r3,r3,r2
 1760 0ec8 D7F88422 	 ldr r2,[r7,#644]
 1761 0ecc 1344     	 add r3,r3,r2
 1762 0ece C7F88432 	 str r3,[r7,#644]
 566:../Dave/Generated/CMSIS_DSP/FilteringFunctions/arm_conv_partial_fast_q15.c **** 
 567:../Dave/Generated/CMSIS_DSP/FilteringFunctions/arm_conv_partial_fast_q15.c ****           /* Decrement the loop counter */
 568:../Dave/Generated/CMSIS_DSP/FilteringFunctions/arm_conv_partial_fast_q15.c ****           k--;
 1763              	 .loc 1 568 0
 1764 0ed2 D7F85C32 	 ldr r3,[r7,#604]
 1765 0ed6 013B     	 subs r3,r3,#1
 1766 0ed8 C7F85C32 	 str r3,[r7,#604]
 1767              	.L70:
 562:../Dave/Generated/CMSIS_DSP/FilteringFunctions/arm_conv_partial_fast_q15.c ****         {
 1768              	 .loc 1 562 0
 1769 0edc D7F85C32 	 ldr r3,[r7,#604]
 1770 0ee0 002B     	 cmp r3,#0
 1771 0ee2 DDD1     	 bne .L71
 569:../Dave/Generated/CMSIS_DSP/FilteringFunctions/arm_conv_partial_fast_q15.c ****         }
 570:../Dave/Generated/CMSIS_DSP/FilteringFunctions/arm_conv_partial_fast_q15.c **** 
 571:../Dave/Generated/CMSIS_DSP/FilteringFunctions/arm_conv_partial_fast_q15.c ****         /* Store the result in the accumulator in the destination buffer. */
 572:../Dave/Generated/CMSIS_DSP/FilteringFunctions/arm_conv_partial_fast_q15.c ****         *pOut++ = (q15_t) (sum >> 15);
 1772              	 .loc 1 572 0
 1773 0ee4 07F11803 	 add r3,r7,#24
 1774 0ee8 1B68     	 ldr r3,[r3]
 1775 0eea 991C     	 adds r1,r3,#2
 1776 0eec 07F11802 	 add r2,r7,#24
 1777 0ef0 1160     	 str r1,[r2]
 1778 0ef2 D7F88422 	 ldr r2,[r7,#644]
 1779 0ef6 D213     	 asrs r2,r2,#15
 1780 0ef8 92B2     	 uxth r2,r2
 1781 0efa 1A80     	 strh r2,[r3]
 573:../Dave/Generated/CMSIS_DSP/FilteringFunctions/arm_conv_partial_fast_q15.c **** 
 574:../Dave/Generated/CMSIS_DSP/FilteringFunctions/arm_conv_partial_fast_q15.c ****         /* Increment the MAC count */
 575:../Dave/Generated/CMSIS_DSP/FilteringFunctions/arm_conv_partial_fast_q15.c ****         count++;
 1782              	 .loc 1 575 0
 1783 0efc D7F85832 	 ldr r3,[r7,#600]
 1784 0f00 0133     	 adds r3,r3,#1
 1785 0f02 C7F85832 	 str r3,[r7,#600]
 576:../Dave/Generated/CMSIS_DSP/FilteringFunctions/arm_conv_partial_fast_q15.c **** 
 577:../Dave/Generated/CMSIS_DSP/FilteringFunctions/arm_conv_partial_fast_q15.c ****         /* Update the inputA and inputB pointers for next MAC calculation */
 578:../Dave/Generated/CMSIS_DSP/FilteringFunctions/arm_conv_partial_fast_q15.c ****         px = pIn1 + count;
 1786              	 .loc 1 578 0
 1787 0f06 D7F85832 	 ldr r3,[r7,#600]
 1788 0f0a 5B00     	 lsls r3,r3,#1
 1789 0f0c D7F88C22 	 ldr r2,[r7,#652]
 1790 0f10 1A44     	 add r2,r2,r3
 1791 0f12 07F11403 	 add r3,r7,#20
 1792 0f16 1A60     	 str r2,[r3]
 579:../Dave/Generated/CMSIS_DSP/FilteringFunctions/arm_conv_partial_fast_q15.c ****         py = pSrc2;
 1793              	 .loc 1 579 0
 1794 0f18 07F11003 	 add r3,r7,#16
 1795 0f1c D7F86C22 	 ldr r2,[r7,#620]
 1796 0f20 1A60     	 str r2,[r3]
 580:../Dave/Generated/CMSIS_DSP/FilteringFunctions/arm_conv_partial_fast_q15.c **** 
 581:../Dave/Generated/CMSIS_DSP/FilteringFunctions/arm_conv_partial_fast_q15.c ****         /* Decrement the loop counter */
 582:../Dave/Generated/CMSIS_DSP/FilteringFunctions/arm_conv_partial_fast_q15.c ****         blkCnt--;
 1797              	 .loc 1 582 0
 1798 0f22 D7F85432 	 ldr r3,[r7,#596]
 1799 0f26 013B     	 subs r3,r3,#1
 1800 0f28 C7F85432 	 str r3,[r7,#596]
 1801              	.L69:
 554:../Dave/Generated/CMSIS_DSP/FilteringFunctions/arm_conv_partial_fast_q15.c ****       {
 1802              	 .loc 1 554 0
 1803 0f2c D7F85432 	 ldr r3,[r7,#596]
 1804 0f30 002B     	 cmp r3,#0
 1805 0f32 ADD1     	 bne .L72
 1806              	.L68:
 583:../Dave/Generated/CMSIS_DSP/FilteringFunctions/arm_conv_partial_fast_q15.c ****       }
 584:../Dave/Generated/CMSIS_DSP/FilteringFunctions/arm_conv_partial_fast_q15.c ****     }
 585:../Dave/Generated/CMSIS_DSP/FilteringFunctions/arm_conv_partial_fast_q15.c **** 
 586:../Dave/Generated/CMSIS_DSP/FilteringFunctions/arm_conv_partial_fast_q15.c **** 
 587:../Dave/Generated/CMSIS_DSP/FilteringFunctions/arm_conv_partial_fast_q15.c ****     /* --------------------------   
 588:../Dave/Generated/CMSIS_DSP/FilteringFunctions/arm_conv_partial_fast_q15.c ****      * Initializations of stage3   
 589:../Dave/Generated/CMSIS_DSP/FilteringFunctions/arm_conv_partial_fast_q15.c ****      * -------------------------*/
 590:../Dave/Generated/CMSIS_DSP/FilteringFunctions/arm_conv_partial_fast_q15.c **** 
 591:../Dave/Generated/CMSIS_DSP/FilteringFunctions/arm_conv_partial_fast_q15.c ****     /* sum += x[srcALen-srcBLen+1] * y[srcBLen-1] + x[srcALen-srcBLen+2] * y[srcBLen-2] +...+ x[src
 592:../Dave/Generated/CMSIS_DSP/FilteringFunctions/arm_conv_partial_fast_q15.c ****      * sum += x[srcALen-srcBLen+2] * y[srcBLen-1] + x[srcALen-srcBLen+3] * y[srcBLen-2] +...+ x[src
 593:../Dave/Generated/CMSIS_DSP/FilteringFunctions/arm_conv_partial_fast_q15.c ****      * ....   
 594:../Dave/Generated/CMSIS_DSP/FilteringFunctions/arm_conv_partial_fast_q15.c ****      * sum +=  x[srcALen-2] * y[srcBLen-1] + x[srcALen-1] * y[srcBLen-2]   
 595:../Dave/Generated/CMSIS_DSP/FilteringFunctions/arm_conv_partial_fast_q15.c ****      * sum +=  x[srcALen-1] * y[srcBLen-1]   
 596:../Dave/Generated/CMSIS_DSP/FilteringFunctions/arm_conv_partial_fast_q15.c ****      */
 597:../Dave/Generated/CMSIS_DSP/FilteringFunctions/arm_conv_partial_fast_q15.c **** 
 598:../Dave/Generated/CMSIS_DSP/FilteringFunctions/arm_conv_partial_fast_q15.c ****     /* In this stage the MAC operations are decreased by 1 for every iteration.   
 599:../Dave/Generated/CMSIS_DSP/FilteringFunctions/arm_conv_partial_fast_q15.c ****        The count variable holds the number of MAC operations performed */
 600:../Dave/Generated/CMSIS_DSP/FilteringFunctions/arm_conv_partial_fast_q15.c ****     count = srcBLen - 1u;
 1807              	 .loc 1 600 0
 1808 0f34 3B46     	 mov r3,r7
 1809 0f36 1B68     	 ldr r3,[r3]
 1810 0f38 013B     	 subs r3,r3,#1
 1811 0f3a C7F85832 	 str r3,[r7,#600]
 601:../Dave/Generated/CMSIS_DSP/FilteringFunctions/arm_conv_partial_fast_q15.c **** 
 602:../Dave/Generated/CMSIS_DSP/FilteringFunctions/arm_conv_partial_fast_q15.c ****     /* Working pointer of inputA */
 603:../Dave/Generated/CMSIS_DSP/FilteringFunctions/arm_conv_partial_fast_q15.c ****     pSrc1 = (pIn1 + srcALen) - (srcBLen - 1u);
 1812              	 .loc 1 603 0
 1813 0f3e 07F10802 	 add r2,r7,#8
 1814 0f42 3B46     	 mov r3,r7
 1815 0f44 1268     	 ldr r2,[r2]
 1816 0f46 1B68     	 ldr r3,[r3]
 1817 0f48 D31A     	 subs r3,r2,r3
 1818 0f4a 0133     	 adds r3,r3,#1
 1819 0f4c 5B00     	 lsls r3,r3,#1
 1820 0f4e D7F88C22 	 ldr r2,[r7,#652]
 1821 0f52 1344     	 add r3,r3,r2
 1822 0f54 C7F87032 	 str r3,[r7,#624]
 604:../Dave/Generated/CMSIS_DSP/FilteringFunctions/arm_conv_partial_fast_q15.c ****     px = pSrc1;
 1823              	 .loc 1 604 0
 1824 0f58 07F11403 	 add r3,r7,#20
 1825 0f5c D7F87022 	 ldr r2,[r7,#624]
 1826 0f60 1A60     	 str r2,[r3]
 605:../Dave/Generated/CMSIS_DSP/FilteringFunctions/arm_conv_partial_fast_q15.c **** 
 606:../Dave/Generated/CMSIS_DSP/FilteringFunctions/arm_conv_partial_fast_q15.c ****     /* Working pointer of inputB */
 607:../Dave/Generated/CMSIS_DSP/FilteringFunctions/arm_conv_partial_fast_q15.c ****     pSrc2 = pIn2 + (srcBLen - 1u);
 1827              	 .loc 1 607 0
 1828 0f62 3B46     	 mov r3,r7
 1829 0f64 1B68     	 ldr r3,[r3]
 1830 0f66 03F10043 	 add r3,r3,#-2147483648
 1831 0f6a 013B     	 subs r3,r3,#1
 1832 0f6c 5B00     	 lsls r3,r3,#1
 1833 0f6e D7F88822 	 ldr r2,[r7,#648]
 1834 0f72 1344     	 add r3,r3,r2
 1835 0f74 C7F86C32 	 str r3,[r7,#620]
 608:../Dave/Generated/CMSIS_DSP/FilteringFunctions/arm_conv_partial_fast_q15.c ****     pIn2 = pSrc2 - 1u;
 1836              	 .loc 1 608 0
 1837 0f78 D7F86C32 	 ldr r3,[r7,#620]
 1838 0f7c 023B     	 subs r3,r3,#2
 1839 0f7e C7F88832 	 str r3,[r7,#648]
 609:../Dave/Generated/CMSIS_DSP/FilteringFunctions/arm_conv_partial_fast_q15.c ****     py = pIn2;
 1840              	 .loc 1 609 0
 1841 0f82 07F11003 	 add r3,r7,#16
 1842 0f86 D7F88822 	 ldr r2,[r7,#648]
 1843 0f8a 1A60     	 str r2,[r3]
 610:../Dave/Generated/CMSIS_DSP/FilteringFunctions/arm_conv_partial_fast_q15.c **** 
 611:../Dave/Generated/CMSIS_DSP/FilteringFunctions/arm_conv_partial_fast_q15.c ****     /* -------------------   
 612:../Dave/Generated/CMSIS_DSP/FilteringFunctions/arm_conv_partial_fast_q15.c ****      * Stage3 process   
 613:../Dave/Generated/CMSIS_DSP/FilteringFunctions/arm_conv_partial_fast_q15.c ****      * ------------------*/
 614:../Dave/Generated/CMSIS_DSP/FilteringFunctions/arm_conv_partial_fast_q15.c **** 
 615:../Dave/Generated/CMSIS_DSP/FilteringFunctions/arm_conv_partial_fast_q15.c ****     /* For loop unrolling by 4, this stage is divided into two. */
 616:../Dave/Generated/CMSIS_DSP/FilteringFunctions/arm_conv_partial_fast_q15.c ****     /* First part of this stage computes the MAC operations greater than 4 */
 617:../Dave/Generated/CMSIS_DSP/FilteringFunctions/arm_conv_partial_fast_q15.c ****     /* Second part of this stage computes the MAC operations less than or equal to 4 */
 618:../Dave/Generated/CMSIS_DSP/FilteringFunctions/arm_conv_partial_fast_q15.c **** 
 619:../Dave/Generated/CMSIS_DSP/FilteringFunctions/arm_conv_partial_fast_q15.c ****     /* The first part of the stage starts here */
 620:../Dave/Generated/CMSIS_DSP/FilteringFunctions/arm_conv_partial_fast_q15.c ****     j = count >> 2u;
 1844              	 .loc 1 620 0
 1845 0f8c D7F85832 	 ldr r3,[r7,#600]
 1846 0f90 9B08     	 lsrs r3,r3,#2
 1847 0f92 C7F86032 	 str r3,[r7,#608]
 621:../Dave/Generated/CMSIS_DSP/FilteringFunctions/arm_conv_partial_fast_q15.c **** 
 622:../Dave/Generated/CMSIS_DSP/FilteringFunctions/arm_conv_partial_fast_q15.c ****     while((j > 0u) && (blockSize3 > 0))
 1848              	 .loc 1 622 0
 1849 0f96 DAE0     	 b .L73
 1850              	.L82:
 623:../Dave/Generated/CMSIS_DSP/FilteringFunctions/arm_conv_partial_fast_q15.c ****     {
 624:../Dave/Generated/CMSIS_DSP/FilteringFunctions/arm_conv_partial_fast_q15.c ****       /* Accumulator is made zero for every iteration */
 625:../Dave/Generated/CMSIS_DSP/FilteringFunctions/arm_conv_partial_fast_q15.c ****       sum = 0;
 1851              	 .loc 1 625 0
 1852 0f98 0023     	 movs r3,#0
 1853 0f9a C7F88432 	 str r3,[r7,#644]
 626:../Dave/Generated/CMSIS_DSP/FilteringFunctions/arm_conv_partial_fast_q15.c **** 
 627:../Dave/Generated/CMSIS_DSP/FilteringFunctions/arm_conv_partial_fast_q15.c ****       /* Apply loop unrolling and compute 4 MACs simultaneously. */
 628:../Dave/Generated/CMSIS_DSP/FilteringFunctions/arm_conv_partial_fast_q15.c ****       k = count >> 2u;
 1854              	 .loc 1 628 0
 1855 0f9e D7F85832 	 ldr r3,[r7,#600]
 1856 0fa2 9B08     	 lsrs r3,r3,#2
 1857 0fa4 C7F85C32 	 str r3,[r7,#604]
 629:../Dave/Generated/CMSIS_DSP/FilteringFunctions/arm_conv_partial_fast_q15.c **** 
 630:../Dave/Generated/CMSIS_DSP/FilteringFunctions/arm_conv_partial_fast_q15.c ****       /* First part of the processing with loop unrolling.  Compute 4 MACs at a time.   
 631:../Dave/Generated/CMSIS_DSP/FilteringFunctions/arm_conv_partial_fast_q15.c ****        ** a second loop below computes MACs for the remaining 1 to 3 samples. */
 632:../Dave/Generated/CMSIS_DSP/FilteringFunctions/arm_conv_partial_fast_q15.c ****       while(k > 0u)
 1858              	 .loc 1 632 0
 1859 0fa8 5CE0     	 b .L74
 1860              	.L77:
 633:../Dave/Generated/CMSIS_DSP/FilteringFunctions/arm_conv_partial_fast_q15.c ****       {
 634:../Dave/Generated/CMSIS_DSP/FilteringFunctions/arm_conv_partial_fast_q15.c ****         /* x[srcALen - srcBLen + 1], x[srcALen - srcBLen + 2] are multiplied   
 635:../Dave/Generated/CMSIS_DSP/FilteringFunctions/arm_conv_partial_fast_q15.c ****          * with y[srcBLen - 1], y[srcBLen - 2] respectively */
 636:../Dave/Generated/CMSIS_DSP/FilteringFunctions/arm_conv_partial_fast_q15.c ****         sum = __SMLADX(*__SIMD32(px)++, *__SIMD32(py)--, sum);
 1861              	 .loc 1 636 0
 1862 0faa 07F11402 	 add r2,r7,#20
 1863 0fae 1368     	 ldr r3,[r2]
 1864 0fb0 191D     	 adds r1,r3,#4
 1865 0fb2 1160     	 str r1,[r2]
 1866 0fb4 1B68     	 ldr r3,[r3]
 1867 0fb6 1846     	 mov r0,r3
 1868 0fb8 07F11002 	 add r2,r7,#16
 1869 0fbc 1368     	 ldr r3,[r2]
 1870 0fbe 191F     	 subs r1,r3,#4
 1871 0fc0 1160     	 str r1,[r2]
 1872 0fc2 1B68     	 ldr r3,[r3]
 1873 0fc4 1946     	 mov r1,r3
 1874 0fc6 D7F88422 	 ldr r2,[r7,#644]
 1875 0fca 07F15803 	 add r3,r7,#88
 1876 0fce 1860     	 str r0,[r3]
 1877 0fd0 07F15403 	 add r3,r7,#84
 1878 0fd4 1960     	 str r1,[r3]
 1879 0fd6 07F15003 	 add r3,r7,#80
 1880 0fda 1A60     	 str r2,[r3]
 1881              	.LBB126:
 1882              	.LBB127:
 515:C:\Users\Depes Crystalline\Desktop\school\Active_Bike_Lighting_System\Radar_Core/Libraries/CMSIS/Include\core_cmSimd.h ****   return(result);
 1883              	 .loc 2 515 0
 1884 0fdc 07F15803 	 add r3,r7,#88
 1885 0fe0 1B68     	 ldr r3,[r3]
 1886 0fe2 07F15402 	 add r2,r7,#84
 1887 0fe6 1268     	 ldr r2,[r2]
 1888 0fe8 07F15001 	 add r1,r7,#80
 1889 0fec 0968     	 ldr r1,[r1]
 1890              	
 1891 0fee 23FB1212 	 smladx r2,r3,r2,r1
 1892              	
 1893              	 .thumb
 1894 0ff2 07F14C03 	 add r3,r7,#76
 1895 0ff6 1A60     	 str r2,[r3]
 1896              	 .loc 2 516 0
 1897 0ff8 07F14C03 	 add r3,r7,#76
 1898 0ffc 1B68     	 ldr r3,[r3]
 1899              	.LBE127:
 1900              	.LBE126:
 1901              	 .loc 1 636 0
 1902 0ffe C7F88432 	 str r3,[r7,#644]
 637:../Dave/Generated/CMSIS_DSP/FilteringFunctions/arm_conv_partial_fast_q15.c ****         /* x[srcALen - srcBLen + 3], x[srcALen - srcBLen + 4] are multiplied   
 638:../Dave/Generated/CMSIS_DSP/FilteringFunctions/arm_conv_partial_fast_q15.c ****          * with y[srcBLen - 3], y[srcBLen - 4] respectively */
 639:../Dave/Generated/CMSIS_DSP/FilteringFunctions/arm_conv_partial_fast_q15.c ****         sum = __SMLADX(*__SIMD32(px)++, *__SIMD32(py)--, sum);
 1903              	 .loc 1 639 0
 1904 1002 07F11402 	 add r2,r7,#20
 1905 1006 1368     	 ldr r3,[r2]
 1906 1008 191D     	 adds r1,r3,#4
 1907 100a 1160     	 str r1,[r2]
 1908 100c 1B68     	 ldr r3,[r3]
 1909 100e 1846     	 mov r0,r3
 1910 1010 07F11002 	 add r2,r7,#16
 1911 1014 1368     	 ldr r3,[r2]
 1912 1016 191F     	 subs r1,r3,#4
 1913 1018 1160     	 str r1,[r2]
 1914 101a 1B68     	 ldr r3,[r3]
 1915 101c 1946     	 mov r1,r3
 1916 101e D7F88422 	 ldr r2,[r7,#644]
 1917 1022 07F14803 	 add r3,r7,#72
 1918 1026 1860     	 str r0,[r3]
 1919 1028 07F14403 	 add r3,r7,#68
 1920 102c 1960     	 str r1,[r3]
 1921 102e 07F14003 	 add r3,r7,#64
 1922 1032 1A60     	 str r2,[r3]
 1923              	.LBB128:
 1924              	.LBB129:
 515:C:\Users\Depes Crystalline\Desktop\school\Active_Bike_Lighting_System\Radar_Core/Libraries/CMSIS/Include\core_cmSimd.h ****   return(result);
 1925              	 .loc 2 515 0
 1926 1034 07F14803 	 add r3,r7,#72
 1927 1038 1B68     	 ldr r3,[r3]
 1928 103a 07F14402 	 add r2,r7,#68
 1929 103e 1268     	 ldr r2,[r2]
 1930 1040 07F14001 	 add r1,r7,#64
 1931 1044 0968     	 ldr r1,[r1]
 1932              	
 1933 1046 23FB1212 	 smladx r2,r3,r2,r1
 1934              	
 1935              	 .thumb
 1936 104a 07F13C03 	 add r3,r7,#60
 1937 104e 1A60     	 str r2,[r3]
 1938              	 .loc 2 516 0
 1939 1050 07F13C03 	 add r3,r7,#60
 1940 1054 1B68     	 ldr r3,[r3]
 1941              	.LBE129:
 1942              	.LBE128:
 1943              	 .loc 1 639 0
 1944 1056 C7F88432 	 str r3,[r7,#644]
 640:../Dave/Generated/CMSIS_DSP/FilteringFunctions/arm_conv_partial_fast_q15.c **** 
 641:../Dave/Generated/CMSIS_DSP/FilteringFunctions/arm_conv_partial_fast_q15.c ****         /* Decrement the loop counter */
 642:../Dave/Generated/CMSIS_DSP/FilteringFunctions/arm_conv_partial_fast_q15.c ****         k--;
 1945              	 .loc 1 642 0
 1946 105a D7F85C32 	 ldr r3,[r7,#604]
 1947 105e 013B     	 subs r3,r3,#1
 1948 1060 C7F85C32 	 str r3,[r7,#604]
 1949              	.L74:
 632:../Dave/Generated/CMSIS_DSP/FilteringFunctions/arm_conv_partial_fast_q15.c ****       {
 1950              	 .loc 1 632 0
 1951 1064 D7F85C32 	 ldr r3,[r7,#604]
 1952 1068 002B     	 cmp r3,#0
 1953 106a 9ED1     	 bne .L77
 643:../Dave/Generated/CMSIS_DSP/FilteringFunctions/arm_conv_partial_fast_q15.c ****       }
 644:../Dave/Generated/CMSIS_DSP/FilteringFunctions/arm_conv_partial_fast_q15.c **** 
 645:../Dave/Generated/CMSIS_DSP/FilteringFunctions/arm_conv_partial_fast_q15.c ****       /* For the next MAC operations, the pointer py is used without SIMD   
 646:../Dave/Generated/CMSIS_DSP/FilteringFunctions/arm_conv_partial_fast_q15.c ****        * So, py is incremented by 1 */
 647:../Dave/Generated/CMSIS_DSP/FilteringFunctions/arm_conv_partial_fast_q15.c ****       py = py + 1u;
 1954              	 .loc 1 647 0
 1955 106c 07F11003 	 add r3,r7,#16
 1956 1070 1B68     	 ldr r3,[r3]
 1957 1072 9A1C     	 adds r2,r3,#2
 1958 1074 07F11003 	 add r3,r7,#16
 1959 1078 1A60     	 str r2,[r3]
 648:../Dave/Generated/CMSIS_DSP/FilteringFunctions/arm_conv_partial_fast_q15.c **** 
 649:../Dave/Generated/CMSIS_DSP/FilteringFunctions/arm_conv_partial_fast_q15.c ****       /* If the count is not a multiple of 4, compute any remaining MACs here.   
 650:../Dave/Generated/CMSIS_DSP/FilteringFunctions/arm_conv_partial_fast_q15.c ****        ** No loop unrolling is used. */
 651:../Dave/Generated/CMSIS_DSP/FilteringFunctions/arm_conv_partial_fast_q15.c ****       k = count % 0x4u;
 1960              	 .loc 1 651 0
 1961 107a D7F85832 	 ldr r3,[r7,#600]
 1962 107e 03F00303 	 and r3,r3,#3
 1963 1082 C7F85C32 	 str r3,[r7,#604]
 652:../Dave/Generated/CMSIS_DSP/FilteringFunctions/arm_conv_partial_fast_q15.c **** 
 653:../Dave/Generated/CMSIS_DSP/FilteringFunctions/arm_conv_partial_fast_q15.c ****       while(k > 0u)
 1964              	 .loc 1 653 0
 1965 1086 34E0     	 b .L78
 1966              	.L80:
 654:../Dave/Generated/CMSIS_DSP/FilteringFunctions/arm_conv_partial_fast_q15.c ****       {
 655:../Dave/Generated/CMSIS_DSP/FilteringFunctions/arm_conv_partial_fast_q15.c ****         /* sum += x[srcALen - srcBLen + 5] * y[srcBLen - 5] */
 656:../Dave/Generated/CMSIS_DSP/FilteringFunctions/arm_conv_partial_fast_q15.c ****         sum = __SMLAD(*px++, *py--, sum);
 1967              	 .loc 1 656 0
 1968 1088 07F11403 	 add r3,r7,#20
 1969 108c 1B68     	 ldr r3,[r3]
 1970 108e 991C     	 adds r1,r3,#2
 1971 1090 07F11402 	 add r2,r7,#20
 1972 1094 1160     	 str r1,[r2]
 1973 1096 1B88     	 ldrh r3,[r3]
 1974 1098 18B2     	 sxth r0,r3
 1975 109a 07F11003 	 add r3,r7,#16
 1976 109e 1B68     	 ldr r3,[r3]
 1977 10a0 991E     	 subs r1,r3,#2
 1978 10a2 07F11002 	 add r2,r7,#16
 1979 10a6 1160     	 str r1,[r2]
 1980 10a8 1B88     	 ldrh r3,[r3]
 1981 10aa 19B2     	 sxth r1,r3
 1982 10ac D7F88422 	 ldr r2,[r7,#644]
 1983 10b0 07F13803 	 add r3,r7,#56
 1984 10b4 1860     	 str r0,[r3]
 1985 10b6 07F13403 	 add r3,r7,#52
 1986 10ba 1960     	 str r1,[r3]
 1987 10bc 07F13003 	 add r3,r7,#48
 1988 10c0 1A60     	 str r2,[r3]
 1989              	.LBB130:
 1990              	.LBB131:
 507:C:\Users\Depes Crystalline\Desktop\school\Active_Bike_Lighting_System\Radar_Core/Libraries/CMSIS/Include\core_cmSimd.h ****   return(result);
 1991              	 .loc 2 507 0
 1992 10c2 07F13803 	 add r3,r7,#56
 1993 10c6 1B68     	 ldr r3,[r3]
 1994 10c8 07F13402 	 add r2,r7,#52
 1995 10cc 1268     	 ldr r2,[r2]
 1996 10ce 07F13001 	 add r1,r7,#48
 1997 10d2 0968     	 ldr r1,[r1]
 1998              	
 1999 10d4 23FB0212 	 smlad r2,r3,r2,r1
 2000              	
 2001              	 .thumb
 2002 10d8 07F12C03 	 add r3,r7,#44
 2003 10dc 1A60     	 str r2,[r3]
 508:C:\Users\Depes Crystalline\Desktop\school\Active_Bike_Lighting_System\Radar_Core/Libraries/CMSIS/Include\core_cmSimd.h **** }
 2004              	 .loc 2 508 0
 2005 10de 07F12C03 	 add r3,r7,#44
 2006 10e2 1B68     	 ldr r3,[r3]
 2007              	.LBE131:
 2008              	.LBE130:
 2009              	 .loc 1 656 0
 2010 10e4 C7F88432 	 str r3,[r7,#644]
 657:../Dave/Generated/CMSIS_DSP/FilteringFunctions/arm_conv_partial_fast_q15.c **** 
 658:../Dave/Generated/CMSIS_DSP/FilteringFunctions/arm_conv_partial_fast_q15.c ****         /* Decrement the loop counter */
 659:../Dave/Generated/CMSIS_DSP/FilteringFunctions/arm_conv_partial_fast_q15.c ****         k--;
 2011              	 .loc 1 659 0
 2012 10e8 D7F85C32 	 ldr r3,[r7,#604]
 2013 10ec 013B     	 subs r3,r3,#1
 2014 10ee C7F85C32 	 str r3,[r7,#604]
 2015              	.L78:
 653:../Dave/Generated/CMSIS_DSP/FilteringFunctions/arm_conv_partial_fast_q15.c ****       {
 2016              	 .loc 1 653 0
 2017 10f2 D7F85C32 	 ldr r3,[r7,#604]
 2018 10f6 002B     	 cmp r3,#0
 2019 10f8 C6D1     	 bne .L80
 660:../Dave/Generated/CMSIS_DSP/FilteringFunctions/arm_conv_partial_fast_q15.c ****       }
 661:../Dave/Generated/CMSIS_DSP/FilteringFunctions/arm_conv_partial_fast_q15.c **** 
 662:../Dave/Generated/CMSIS_DSP/FilteringFunctions/arm_conv_partial_fast_q15.c ****       /* Store the result in the accumulator in the destination buffer. */
 663:../Dave/Generated/CMSIS_DSP/FilteringFunctions/arm_conv_partial_fast_q15.c ****       *pOut++ = (q15_t) (sum >> 15);
 2020              	 .loc 1 663 0
 2021 10fa 07F11803 	 add r3,r7,#24
 2022 10fe 1B68     	 ldr r3,[r3]
 2023 1100 991C     	 adds r1,r3,#2
 2024 1102 07F11802 	 add r2,r7,#24
 2025 1106 1160     	 str r1,[r2]
 2026 1108 D7F88422 	 ldr r2,[r7,#644]
 2027 110c D213     	 asrs r2,r2,#15
 2028 110e 92B2     	 uxth r2,r2
 2029 1110 1A80     	 strh r2,[r3]
 664:../Dave/Generated/CMSIS_DSP/FilteringFunctions/arm_conv_partial_fast_q15.c **** 
 665:../Dave/Generated/CMSIS_DSP/FilteringFunctions/arm_conv_partial_fast_q15.c ****       /* Update the inputA and inputB pointers for next MAC calculation */
 666:../Dave/Generated/CMSIS_DSP/FilteringFunctions/arm_conv_partial_fast_q15.c ****       px = ++pSrc1;
 2030              	 .loc 1 666 0
 2031 1112 D7F87032 	 ldr r3,[r7,#624]
 2032 1116 0233     	 adds r3,r3,#2
 2033 1118 C7F87032 	 str r3,[r7,#624]
 2034 111c 07F11403 	 add r3,r7,#20
 2035 1120 D7F87022 	 ldr r2,[r7,#624]
 2036 1124 1A60     	 str r2,[r3]
 667:../Dave/Generated/CMSIS_DSP/FilteringFunctions/arm_conv_partial_fast_q15.c ****       py = pIn2;
 2037              	 .loc 1 667 0
 2038 1126 07F11003 	 add r3,r7,#16
 2039 112a D7F88822 	 ldr r2,[r7,#648]
 2040 112e 1A60     	 str r2,[r3]
 668:../Dave/Generated/CMSIS_DSP/FilteringFunctions/arm_conv_partial_fast_q15.c **** 
 669:../Dave/Generated/CMSIS_DSP/FilteringFunctions/arm_conv_partial_fast_q15.c ****       /* Decrement the MAC count */
 670:../Dave/Generated/CMSIS_DSP/FilteringFunctions/arm_conv_partial_fast_q15.c ****       count--;
 2041              	 .loc 1 670 0
 2042 1130 D7F85832 	 ldr r3,[r7,#600]
 2043 1134 013B     	 subs r3,r3,#1
 2044 1136 C7F85832 	 str r3,[r7,#600]
 671:../Dave/Generated/CMSIS_DSP/FilteringFunctions/arm_conv_partial_fast_q15.c **** 
 672:../Dave/Generated/CMSIS_DSP/FilteringFunctions/arm_conv_partial_fast_q15.c ****       /* Decrement the loop counter */
 673:../Dave/Generated/CMSIS_DSP/FilteringFunctions/arm_conv_partial_fast_q15.c ****       blockSize3--;
 2045              	 .loc 1 673 0
 2046 113a D7F84C32 	 ldr r3,[r7,#588]
 2047 113e 013B     	 subs r3,r3,#1
 2048 1140 C7F84C32 	 str r3,[r7,#588]
 674:../Dave/Generated/CMSIS_DSP/FilteringFunctions/arm_conv_partial_fast_q15.c **** 
 675:../Dave/Generated/CMSIS_DSP/FilteringFunctions/arm_conv_partial_fast_q15.c ****       j--;
 2049              	 .loc 1 675 0
 2050 1144 D7F86032 	 ldr r3,[r7,#608]
 2051 1148 013B     	 subs r3,r3,#1
 2052 114a C7F86032 	 str r3,[r7,#608]
 2053              	.L73:
 622:../Dave/Generated/CMSIS_DSP/FilteringFunctions/arm_conv_partial_fast_q15.c ****     {
 2054              	 .loc 1 622 0
 2055 114e D7F86032 	 ldr r3,[r7,#608]
 2056 1152 002B     	 cmp r3,#0
 2057 1154 04D0     	 beq .L81
 622:../Dave/Generated/CMSIS_DSP/FilteringFunctions/arm_conv_partial_fast_q15.c ****     {
 2058              	 .loc 1 622 0 is_stmt 0 discriminator 1
 2059 1156 D7F84C32 	 ldr r3,[r7,#588]
 2060 115a 002B     	 cmp r3,#0
 2061 115c 3FF71CAF 	 bgt .L82
 2062              	.L81:
 676:../Dave/Generated/CMSIS_DSP/FilteringFunctions/arm_conv_partial_fast_q15.c ****     }
 677:../Dave/Generated/CMSIS_DSP/FilteringFunctions/arm_conv_partial_fast_q15.c **** 
 678:../Dave/Generated/CMSIS_DSP/FilteringFunctions/arm_conv_partial_fast_q15.c ****     /* The second part of the stage starts here */
 679:../Dave/Generated/CMSIS_DSP/FilteringFunctions/arm_conv_partial_fast_q15.c ****     /* SIMD is not used for the next MAC operations,   
 680:../Dave/Generated/CMSIS_DSP/FilteringFunctions/arm_conv_partial_fast_q15.c ****      * so pointer py is updated to read only one sample at a time */
 681:../Dave/Generated/CMSIS_DSP/FilteringFunctions/arm_conv_partial_fast_q15.c ****     py = py + 1u;
 2063              	 .loc 1 681 0 is_stmt 1
 2064 1160 07F11003 	 add r3,r7,#16
 2065 1164 1B68     	 ldr r3,[r3]
 2066 1166 9A1C     	 adds r2,r3,#2
 2067 1168 07F11003 	 add r3,r7,#16
 2068 116c 1A60     	 str r2,[r3]
 682:../Dave/Generated/CMSIS_DSP/FilteringFunctions/arm_conv_partial_fast_q15.c **** 
 683:../Dave/Generated/CMSIS_DSP/FilteringFunctions/arm_conv_partial_fast_q15.c ****     while(blockSize3 > 0)
 2069              	 .loc 1 683 0
 2070 116e 65E0     	 b .L83
 2071              	.L87:
 684:../Dave/Generated/CMSIS_DSP/FilteringFunctions/arm_conv_partial_fast_q15.c ****     {
 685:../Dave/Generated/CMSIS_DSP/FilteringFunctions/arm_conv_partial_fast_q15.c ****       /* Accumulator is made zero for every iteration */
 686:../Dave/Generated/CMSIS_DSP/FilteringFunctions/arm_conv_partial_fast_q15.c ****       sum = 0;
 2072              	 .loc 1 686 0
 2073 1170 0023     	 movs r3,#0
 2074 1172 C7F88432 	 str r3,[r7,#644]
 687:../Dave/Generated/CMSIS_DSP/FilteringFunctions/arm_conv_partial_fast_q15.c **** 
 688:../Dave/Generated/CMSIS_DSP/FilteringFunctions/arm_conv_partial_fast_q15.c ****       /* Apply loop unrolling and compute 4 MACs simultaneously. */
 689:../Dave/Generated/CMSIS_DSP/FilteringFunctions/arm_conv_partial_fast_q15.c ****       k = count;
 2075              	 .loc 1 689 0
 2076 1176 D7F85832 	 ldr r3,[r7,#600]
 2077 117a C7F85C32 	 str r3,[r7,#604]
 690:../Dave/Generated/CMSIS_DSP/FilteringFunctions/arm_conv_partial_fast_q15.c **** 
 691:../Dave/Generated/CMSIS_DSP/FilteringFunctions/arm_conv_partial_fast_q15.c ****       while(k > 0u)
 2078              	 .loc 1 691 0
 2079 117e 34E0     	 b .L84
 2080              	.L86:
 692:../Dave/Generated/CMSIS_DSP/FilteringFunctions/arm_conv_partial_fast_q15.c ****       {
 693:../Dave/Generated/CMSIS_DSP/FilteringFunctions/arm_conv_partial_fast_q15.c ****         /* Perform the multiply-accumulates */
 694:../Dave/Generated/CMSIS_DSP/FilteringFunctions/arm_conv_partial_fast_q15.c ****         /* sum +=  x[srcALen-1] * y[srcBLen-1] */
 695:../Dave/Generated/CMSIS_DSP/FilteringFunctions/arm_conv_partial_fast_q15.c ****         sum = __SMLAD(*px++, *py--, sum);
 2081              	 .loc 1 695 0
 2082 1180 07F11403 	 add r3,r7,#20
 2083 1184 1B68     	 ldr r3,[r3]
 2084 1186 991C     	 adds r1,r3,#2
 2085 1188 07F11402 	 add r2,r7,#20
 2086 118c 1160     	 str r1,[r2]
 2087 118e 1B88     	 ldrh r3,[r3]
 2088 1190 18B2     	 sxth r0,r3
 2089 1192 07F11003 	 add r3,r7,#16
 2090 1196 1B68     	 ldr r3,[r3]
 2091 1198 991E     	 subs r1,r3,#2
 2092 119a 07F11002 	 add r2,r7,#16
 2093 119e 1160     	 str r1,[r2]
 2094 11a0 1B88     	 ldrh r3,[r3]
 2095 11a2 19B2     	 sxth r1,r3
 2096 11a4 D7F88422 	 ldr r2,[r7,#644]
 2097 11a8 07F12803 	 add r3,r7,#40
 2098 11ac 1860     	 str r0,[r3]
 2099 11ae 07F12403 	 add r3,r7,#36
 2100 11b2 1960     	 str r1,[r3]
 2101 11b4 07F12003 	 add r3,r7,#32
 2102 11b8 1A60     	 str r2,[r3]
 2103              	.LBB132:
 2104              	.LBB133:
 507:C:\Users\Depes Crystalline\Desktop\school\Active_Bike_Lighting_System\Radar_Core/Libraries/CMSIS/Include\core_cmSimd.h ****   return(result);
 2105              	 .loc 2 507 0
 2106 11ba 07F12803 	 add r3,r7,#40
 2107 11be 1B68     	 ldr r3,[r3]
 2108 11c0 07F12402 	 add r2,r7,#36
 2109 11c4 1268     	 ldr r2,[r2]
 2110 11c6 07F12001 	 add r1,r7,#32
 2111 11ca 0968     	 ldr r1,[r1]
 2112              	
 2113 11cc 23FB0212 	 smlad r2,r3,r2,r1
 2114              	
 2115              	 .thumb
 2116 11d0 07F11C03 	 add r3,r7,#28
 2117 11d4 1A60     	 str r2,[r3]
 508:C:\Users\Depes Crystalline\Desktop\school\Active_Bike_Lighting_System\Radar_Core/Libraries/CMSIS/Include\core_cmSimd.h **** }
 2118              	 .loc 2 508 0
 2119 11d6 07F11C03 	 add r3,r7,#28
 2120 11da 1B68     	 ldr r3,[r3]
 2121              	.LBE133:
 2122              	.LBE132:
 2123              	 .loc 1 695 0
 2124 11dc C7F88432 	 str r3,[r7,#644]
 696:../Dave/Generated/CMSIS_DSP/FilteringFunctions/arm_conv_partial_fast_q15.c **** 
 697:../Dave/Generated/CMSIS_DSP/FilteringFunctions/arm_conv_partial_fast_q15.c ****         /* Decrement the loop counter */
 698:../Dave/Generated/CMSIS_DSP/FilteringFunctions/arm_conv_partial_fast_q15.c ****         k--;
 2125              	 .loc 1 698 0
 2126 11e0 D7F85C32 	 ldr r3,[r7,#604]
 2127 11e4 013B     	 subs r3,r3,#1
 2128 11e6 C7F85C32 	 str r3,[r7,#604]
 2129              	.L84:
 691:../Dave/Generated/CMSIS_DSP/FilteringFunctions/arm_conv_partial_fast_q15.c ****       {
 2130              	 .loc 1 691 0
 2131 11ea D7F85C32 	 ldr r3,[r7,#604]
 2132 11ee 002B     	 cmp r3,#0
 2133 11f0 C6D1     	 bne .L86
 699:../Dave/Generated/CMSIS_DSP/FilteringFunctions/arm_conv_partial_fast_q15.c ****       }
 700:../Dave/Generated/CMSIS_DSP/FilteringFunctions/arm_conv_partial_fast_q15.c **** 
 701:../Dave/Generated/CMSIS_DSP/FilteringFunctions/arm_conv_partial_fast_q15.c ****       /* Store the result in the accumulator in the destination buffer. */
 702:../Dave/Generated/CMSIS_DSP/FilteringFunctions/arm_conv_partial_fast_q15.c ****       *pOut++ = (q15_t) (sum >> 15);
 2134              	 .loc 1 702 0
 2135 11f2 07F11803 	 add r3,r7,#24
 2136 11f6 1B68     	 ldr r3,[r3]
 2137 11f8 991C     	 adds r1,r3,#2
 2138 11fa 07F11802 	 add r2,r7,#24
 2139 11fe 1160     	 str r1,[r2]
 2140 1200 D7F88422 	 ldr r2,[r7,#644]
 2141 1204 D213     	 asrs r2,r2,#15
 2142 1206 92B2     	 uxth r2,r2
 2143 1208 1A80     	 strh r2,[r3]
 703:../Dave/Generated/CMSIS_DSP/FilteringFunctions/arm_conv_partial_fast_q15.c **** 
 704:../Dave/Generated/CMSIS_DSP/FilteringFunctions/arm_conv_partial_fast_q15.c ****       /* Update the inputA and inputB pointers for next MAC calculation */
 705:../Dave/Generated/CMSIS_DSP/FilteringFunctions/arm_conv_partial_fast_q15.c ****       px = ++pSrc1;
 2144              	 .loc 1 705 0
 2145 120a D7F87032 	 ldr r3,[r7,#624]
 2146 120e 0233     	 adds r3,r3,#2
 2147 1210 C7F87032 	 str r3,[r7,#624]
 2148 1214 07F11403 	 add r3,r7,#20
 2149 1218 D7F87022 	 ldr r2,[r7,#624]
 2150 121c 1A60     	 str r2,[r3]
 706:../Dave/Generated/CMSIS_DSP/FilteringFunctions/arm_conv_partial_fast_q15.c ****       py = pSrc2;
 2151              	 .loc 1 706 0
 2152 121e 07F11003 	 add r3,r7,#16
 2153 1222 D7F86C22 	 ldr r2,[r7,#620]
 2154 1226 1A60     	 str r2,[r3]
 707:../Dave/Generated/CMSIS_DSP/FilteringFunctions/arm_conv_partial_fast_q15.c **** 
 708:../Dave/Generated/CMSIS_DSP/FilteringFunctions/arm_conv_partial_fast_q15.c ****       /* Decrement the MAC count */
 709:../Dave/Generated/CMSIS_DSP/FilteringFunctions/arm_conv_partial_fast_q15.c ****       count--;
 2155              	 .loc 1 709 0
 2156 1228 D7F85832 	 ldr r3,[r7,#600]
 2157 122c 013B     	 subs r3,r3,#1
 2158 122e C7F85832 	 str r3,[r7,#600]
 710:../Dave/Generated/CMSIS_DSP/FilteringFunctions/arm_conv_partial_fast_q15.c **** 
 711:../Dave/Generated/CMSIS_DSP/FilteringFunctions/arm_conv_partial_fast_q15.c ****       /* Decrement the loop counter */
 712:../Dave/Generated/CMSIS_DSP/FilteringFunctions/arm_conv_partial_fast_q15.c ****       blockSize3--;
 2159              	 .loc 1 712 0
 2160 1232 D7F84C32 	 ldr r3,[r7,#588]
 2161 1236 013B     	 subs r3,r3,#1
 2162 1238 C7F84C32 	 str r3,[r7,#588]
 2163              	.L83:
 683:../Dave/Generated/CMSIS_DSP/FilteringFunctions/arm_conv_partial_fast_q15.c ****     {
 2164              	 .loc 1 683 0
 2165 123c D7F84C32 	 ldr r3,[r7,#588]
 2166 1240 002B     	 cmp r3,#0
 2167 1242 95DC     	 bgt .L87
 713:../Dave/Generated/CMSIS_DSP/FilteringFunctions/arm_conv_partial_fast_q15.c ****     }
 714:../Dave/Generated/CMSIS_DSP/FilteringFunctions/arm_conv_partial_fast_q15.c **** 
 715:../Dave/Generated/CMSIS_DSP/FilteringFunctions/arm_conv_partial_fast_q15.c ****     /* set status as ARM_MATH_SUCCESS */
 716:../Dave/Generated/CMSIS_DSP/FilteringFunctions/arm_conv_partial_fast_q15.c ****     status = ARM_MATH_SUCCESS;
 2168              	 .loc 1 716 0
 2169 1244 0023     	 movs r3,#0
 2170 1246 87F84B32 	 strb r3,[r7,#587]
 2171              	.L3:
 717:../Dave/Generated/CMSIS_DSP/FilteringFunctions/arm_conv_partial_fast_q15.c ****   }
 718:../Dave/Generated/CMSIS_DSP/FilteringFunctions/arm_conv_partial_fast_q15.c **** 
 719:../Dave/Generated/CMSIS_DSP/FilteringFunctions/arm_conv_partial_fast_q15.c ****   /* Return to application */
 720:../Dave/Generated/CMSIS_DSP/FilteringFunctions/arm_conv_partial_fast_q15.c ****   return (status);
