   1              	 .syntax unified
   2              	 .cpu cortex-m4
   3              	 .fpu softvfp
   4              	 .eabi_attribute 20,1
   5              	 .eabi_attribute 21,1
   6              	 .eabi_attribute 23,3
   7              	 .eabi_attribute 24,1
   8              	 .eabi_attribute 25,1
   9              	 .eabi_attribute 26,1
  10              	 .eabi_attribute 30,6
  11              	 .eabi_attribute 34,1
  12              	 .eabi_attribute 18,4
  13              	 .thumb
  14              	 .file "arm_conv_q7.c"
  15              	 .text
  16              	.Ltext0:
  17              	 .cfi_sections .debug_frame
  18              	 .section .text.arm_conv_q7,"ax",%progbits
  19              	 .align 2
  20              	 .global arm_conv_q7
  21              	 .thumb
  22              	 .thumb_func
  24              	arm_conv_q7:
  25              	.LFB139:
  26              	 .file 1 "../Dave/Generated/CMSIS_DSP/FilteringFunctions/arm_conv_q7.c"
   1:../Dave/Generated/CMSIS_DSP/FilteringFunctions/arm_conv_q7.c **** /* ----------------------------------------------------------------------   
   2:../Dave/Generated/CMSIS_DSP/FilteringFunctions/arm_conv_q7.c **** * Copyright (C) 2010-2014 ARM Limited. All rights reserved.   
   3:../Dave/Generated/CMSIS_DSP/FilteringFunctions/arm_conv_q7.c **** *   
   4:../Dave/Generated/CMSIS_DSP/FilteringFunctions/arm_conv_q7.c **** * $Date:        12. March 2014
   5:../Dave/Generated/CMSIS_DSP/FilteringFunctions/arm_conv_q7.c **** * $Revision: 	V1.4.4
   6:../Dave/Generated/CMSIS_DSP/FilteringFunctions/arm_conv_q7.c **** *   
   7:../Dave/Generated/CMSIS_DSP/FilteringFunctions/arm_conv_q7.c **** * Project: 	    CMSIS DSP Library   
   8:../Dave/Generated/CMSIS_DSP/FilteringFunctions/arm_conv_q7.c **** * Title:		arm_conv_q7.c   
   9:../Dave/Generated/CMSIS_DSP/FilteringFunctions/arm_conv_q7.c **** *   
  10:../Dave/Generated/CMSIS_DSP/FilteringFunctions/arm_conv_q7.c **** * Description:	Convolution of Q7 sequences. 
  11:../Dave/Generated/CMSIS_DSP/FilteringFunctions/arm_conv_q7.c **** *   
  12:../Dave/Generated/CMSIS_DSP/FilteringFunctions/arm_conv_q7.c **** * Target Processor: Cortex-M4/Cortex-M3/Cortex-M0
  13:../Dave/Generated/CMSIS_DSP/FilteringFunctions/arm_conv_q7.c **** *  
  14:../Dave/Generated/CMSIS_DSP/FilteringFunctions/arm_conv_q7.c **** * Redistribution and use in source and binary forms, with or without 
  15:../Dave/Generated/CMSIS_DSP/FilteringFunctions/arm_conv_q7.c **** * modification, are permitted provided that the following conditions
  16:../Dave/Generated/CMSIS_DSP/FilteringFunctions/arm_conv_q7.c **** * are met:
  17:../Dave/Generated/CMSIS_DSP/FilteringFunctions/arm_conv_q7.c **** *   - Redistributions of source code must retain the above copyright
  18:../Dave/Generated/CMSIS_DSP/FilteringFunctions/arm_conv_q7.c **** *     notice, this list of conditions and the following disclaimer.
  19:../Dave/Generated/CMSIS_DSP/FilteringFunctions/arm_conv_q7.c **** *   - Redistributions in binary form must reproduce the above copyright
  20:../Dave/Generated/CMSIS_DSP/FilteringFunctions/arm_conv_q7.c **** *     notice, this list of conditions and the following disclaimer in
  21:../Dave/Generated/CMSIS_DSP/FilteringFunctions/arm_conv_q7.c **** *     the documentation and/or other materials provided with the 
  22:../Dave/Generated/CMSIS_DSP/FilteringFunctions/arm_conv_q7.c **** *     distribution.
  23:../Dave/Generated/CMSIS_DSP/FilteringFunctions/arm_conv_q7.c **** *   - Neither the name of ARM LIMITED nor the names of its contributors
  24:../Dave/Generated/CMSIS_DSP/FilteringFunctions/arm_conv_q7.c **** *     may be used to endorse or promote products derived from this
  25:../Dave/Generated/CMSIS_DSP/FilteringFunctions/arm_conv_q7.c **** *     software without specific prior written permission.
  26:../Dave/Generated/CMSIS_DSP/FilteringFunctions/arm_conv_q7.c **** *
  27:../Dave/Generated/CMSIS_DSP/FilteringFunctions/arm_conv_q7.c **** * THIS SOFTWARE IS PROVIDED BY THE COPYRIGHT HOLDERS AND CONTRIBUTORS
  28:../Dave/Generated/CMSIS_DSP/FilteringFunctions/arm_conv_q7.c **** * "AS IS" AND ANY EXPRESS OR IMPLIED WARRANTIES, INCLUDING, BUT NOT
  29:../Dave/Generated/CMSIS_DSP/FilteringFunctions/arm_conv_q7.c **** * LIMITED TO, THE IMPLIED WARRANTIES OF MERCHANTABILITY AND FITNESS
  30:../Dave/Generated/CMSIS_DSP/FilteringFunctions/arm_conv_q7.c **** * FOR A PARTICULAR PURPOSE ARE DISCLAIMED. IN NO EVENT SHALL THE 
  31:../Dave/Generated/CMSIS_DSP/FilteringFunctions/arm_conv_q7.c **** * COPYRIGHT OWNER OR CONTRIBUTORS BE LIABLE FOR ANY DIRECT, INDIRECT,
  32:../Dave/Generated/CMSIS_DSP/FilteringFunctions/arm_conv_q7.c **** * INCIDENTAL, SPECIAL, EXEMPLARY, OR CONSEQUENTIAL DAMAGES (INCLUDING,
  33:../Dave/Generated/CMSIS_DSP/FilteringFunctions/arm_conv_q7.c **** * BUT NOT LIMITED TO, PROCUREMENT OF SUBSTITUTE GOODS OR SERVICES;
  34:../Dave/Generated/CMSIS_DSP/FilteringFunctions/arm_conv_q7.c **** * LOSS OF USE, DATA, OR PROFITS; OR BUSINESS INTERRUPTION) HOWEVER
  35:../Dave/Generated/CMSIS_DSP/FilteringFunctions/arm_conv_q7.c **** * CAUSED AND ON ANY THEORY OF LIABILITY, WHETHER IN CONTRACT, STRICT
  36:../Dave/Generated/CMSIS_DSP/FilteringFunctions/arm_conv_q7.c **** * LIABILITY, OR TORT (INCLUDING NEGLIGENCE OR OTHERWISE) ARISING IN
  37:../Dave/Generated/CMSIS_DSP/FilteringFunctions/arm_conv_q7.c **** * ANY WAY OUT OF THE USE OF THIS SOFTWARE, EVEN IF ADVISED OF THE
  38:../Dave/Generated/CMSIS_DSP/FilteringFunctions/arm_conv_q7.c **** * POSSIBILITY OF SUCH DAMAGE.    
  39:../Dave/Generated/CMSIS_DSP/FilteringFunctions/arm_conv_q7.c **** * -------------------------------------------------------------------- */
  40:../Dave/Generated/CMSIS_DSP/FilteringFunctions/arm_conv_q7.c **** 
  41:../Dave/Generated/CMSIS_DSP/FilteringFunctions/arm_conv_q7.c **** #include "CMSIS_DSP/cmsis_dsp.h"
  42:../Dave/Generated/CMSIS_DSP/FilteringFunctions/arm_conv_q7.c **** 
  43:../Dave/Generated/CMSIS_DSP/FilteringFunctions/arm_conv_q7.c **** /**   
  44:../Dave/Generated/CMSIS_DSP/FilteringFunctions/arm_conv_q7.c ****  * @ingroup groupFilters   
  45:../Dave/Generated/CMSIS_DSP/FilteringFunctions/arm_conv_q7.c ****  */
  46:../Dave/Generated/CMSIS_DSP/FilteringFunctions/arm_conv_q7.c **** 
  47:../Dave/Generated/CMSIS_DSP/FilteringFunctions/arm_conv_q7.c **** /**   
  48:../Dave/Generated/CMSIS_DSP/FilteringFunctions/arm_conv_q7.c ****  * @addtogroup Conv   
  49:../Dave/Generated/CMSIS_DSP/FilteringFunctions/arm_conv_q7.c ****  * @{   
  50:../Dave/Generated/CMSIS_DSP/FilteringFunctions/arm_conv_q7.c ****  */
  51:../Dave/Generated/CMSIS_DSP/FilteringFunctions/arm_conv_q7.c **** 
  52:../Dave/Generated/CMSIS_DSP/FilteringFunctions/arm_conv_q7.c **** /**   
  53:../Dave/Generated/CMSIS_DSP/FilteringFunctions/arm_conv_q7.c ****  * @brief Convolution of Q7 sequences.   
  54:../Dave/Generated/CMSIS_DSP/FilteringFunctions/arm_conv_q7.c ****  * @param[in] *pSrcA points to the first input sequence.   
  55:../Dave/Generated/CMSIS_DSP/FilteringFunctions/arm_conv_q7.c ****  * @param[in] srcALen length of the first input sequence.   
  56:../Dave/Generated/CMSIS_DSP/FilteringFunctions/arm_conv_q7.c ****  * @param[in] *pSrcB points to the second input sequence.   
  57:../Dave/Generated/CMSIS_DSP/FilteringFunctions/arm_conv_q7.c ****  * @param[in] srcBLen length of the second input sequence.   
  58:../Dave/Generated/CMSIS_DSP/FilteringFunctions/arm_conv_q7.c ****  * @param[out] *pDst points to the location where the output result is written.  Length srcALen+src
  59:../Dave/Generated/CMSIS_DSP/FilteringFunctions/arm_conv_q7.c ****  * @return none.   
  60:../Dave/Generated/CMSIS_DSP/FilteringFunctions/arm_conv_q7.c ****  *   
  61:../Dave/Generated/CMSIS_DSP/FilteringFunctions/arm_conv_q7.c ****  * @details   
  62:../Dave/Generated/CMSIS_DSP/FilteringFunctions/arm_conv_q7.c ****  * <b>Scaling and Overflow Behavior:</b>   
  63:../Dave/Generated/CMSIS_DSP/FilteringFunctions/arm_conv_q7.c ****  *   
  64:../Dave/Generated/CMSIS_DSP/FilteringFunctions/arm_conv_q7.c ****  * \par   
  65:../Dave/Generated/CMSIS_DSP/FilteringFunctions/arm_conv_q7.c ****  * The function is implemented using a 32-bit internal accumulator.   
  66:../Dave/Generated/CMSIS_DSP/FilteringFunctions/arm_conv_q7.c ****  * Both the inputs are represented in 1.7 format and multiplications yield a 2.14 result.   
  67:../Dave/Generated/CMSIS_DSP/FilteringFunctions/arm_conv_q7.c ****  * The 2.14 intermediate results are accumulated in a 32-bit accumulator in 18.14 format.   
  68:../Dave/Generated/CMSIS_DSP/FilteringFunctions/arm_conv_q7.c ****  * This approach provides 17 guard bits and there is no risk of overflow as long as <code>max(srcAL
  69:../Dave/Generated/CMSIS_DSP/FilteringFunctions/arm_conv_q7.c ****  * The 18.14 result is then truncated to 18.7 format by discarding the low 7 bits and then saturate
  70:../Dave/Generated/CMSIS_DSP/FilteringFunctions/arm_conv_q7.c ****  *
  71:../Dave/Generated/CMSIS_DSP/FilteringFunctions/arm_conv_q7.c ****  * \par    
  72:../Dave/Generated/CMSIS_DSP/FilteringFunctions/arm_conv_q7.c ****  * Refer the function <code>arm_conv_opt_q7()</code> for a faster implementation of this function.
  73:../Dave/Generated/CMSIS_DSP/FilteringFunctions/arm_conv_q7.c ****  * 
  74:../Dave/Generated/CMSIS_DSP/FilteringFunctions/arm_conv_q7.c ****  */
  75:../Dave/Generated/CMSIS_DSP/FilteringFunctions/arm_conv_q7.c **** 
  76:../Dave/Generated/CMSIS_DSP/FilteringFunctions/arm_conv_q7.c **** void arm_conv_q7(
  77:../Dave/Generated/CMSIS_DSP/FilteringFunctions/arm_conv_q7.c ****   q7_t * pSrcA,
  78:../Dave/Generated/CMSIS_DSP/FilteringFunctions/arm_conv_q7.c ****   uint32_t srcALen,
  79:../Dave/Generated/CMSIS_DSP/FilteringFunctions/arm_conv_q7.c ****   q7_t * pSrcB,
  80:../Dave/Generated/CMSIS_DSP/FilteringFunctions/arm_conv_q7.c ****   uint32_t srcBLen,
  81:../Dave/Generated/CMSIS_DSP/FilteringFunctions/arm_conv_q7.c ****   q7_t * pDst)
  82:../Dave/Generated/CMSIS_DSP/FilteringFunctions/arm_conv_q7.c **** {
  27              	 .loc 1 82 0
  28              	 .cfi_startproc
  29              	 
  30              	 
  31              	 
  32 0000 90B4     	 push {r4,r7}
  33              	.LCFI0:
  34              	 .cfi_def_cfa_offset 8
  35              	 .cfi_offset 4,-8
  36              	 .cfi_offset 7,-4
  37 0002 E4B0     	 sub sp,sp,#400
  38              	.LCFI1:
  39              	 .cfi_def_cfa_offset 408
  40 0004 00AF     	 add r7,sp,#0
  41              	.LCFI2:
  42              	 .cfi_def_cfa_register 7
  43 0006 07F10C04 	 add r4,r7,#12
  44 000a 2060     	 str r0,[r4]
  45 000c 07F10800 	 add r0,r7,#8
  46 0010 0160     	 str r1,[r0]
  47 0012 391D     	 adds r1,r7,#4
  48 0014 0A60     	 str r2,[r1]
  49 0016 3A46     	 mov r2,r7
  50 0018 1360     	 str r3,[r2]
  83:../Dave/Generated/CMSIS_DSP/FilteringFunctions/arm_conv_q7.c **** 
  84:../Dave/Generated/CMSIS_DSP/FilteringFunctions/arm_conv_q7.c **** 
  85:../Dave/Generated/CMSIS_DSP/FilteringFunctions/arm_conv_q7.c **** #ifndef ARM_MATH_CM0_FAMILY
  86:../Dave/Generated/CMSIS_DSP/FilteringFunctions/arm_conv_q7.c **** 
  87:../Dave/Generated/CMSIS_DSP/FilteringFunctions/arm_conv_q7.c ****   /* Run the below code for Cortex-M4 and Cortex-M3 */
  88:../Dave/Generated/CMSIS_DSP/FilteringFunctions/arm_conv_q7.c **** 
  89:../Dave/Generated/CMSIS_DSP/FilteringFunctions/arm_conv_q7.c ****   q7_t *pIn1;                                    /* inputA pointer */
  90:../Dave/Generated/CMSIS_DSP/FilteringFunctions/arm_conv_q7.c ****   q7_t *pIn2;                                    /* inputB pointer */
  91:../Dave/Generated/CMSIS_DSP/FilteringFunctions/arm_conv_q7.c ****   q7_t *pOut = pDst;                             /* output pointer */
  51              	 .loc 1 91 0
  52 001a D7F89831 	 ldr r3,[r7,#408]
  53 001e C7F88431 	 str r3,[r7,#388]
  92:../Dave/Generated/CMSIS_DSP/FilteringFunctions/arm_conv_q7.c ****   q7_t *px;                                      /* Intermediate inputA pointer */
  93:../Dave/Generated/CMSIS_DSP/FilteringFunctions/arm_conv_q7.c ****   q7_t *py;                                      /* Intermediate inputB pointer */
  94:../Dave/Generated/CMSIS_DSP/FilteringFunctions/arm_conv_q7.c ****   q7_t *pSrc1, *pSrc2;                           /* Intermediate pointers */
  95:../Dave/Generated/CMSIS_DSP/FilteringFunctions/arm_conv_q7.c ****   q7_t x0, x1, x2, x3, c0, c1;                   /* Temporary variables to hold state and coefficie
  96:../Dave/Generated/CMSIS_DSP/FilteringFunctions/arm_conv_q7.c ****   q31_t sum, acc0, acc1, acc2, acc3;             /* Accumulator */
  97:../Dave/Generated/CMSIS_DSP/FilteringFunctions/arm_conv_q7.c ****   q31_t input1, input2;                          /* Temporary input variables */
  98:../Dave/Generated/CMSIS_DSP/FilteringFunctions/arm_conv_q7.c ****   q15_t in1, in2;                                /* Temporary input variables */
  99:../Dave/Generated/CMSIS_DSP/FilteringFunctions/arm_conv_q7.c ****   uint32_t j, k, count, blkCnt, blockSize1, blockSize2, blockSize3;     /* loop counter */
 100:../Dave/Generated/CMSIS_DSP/FilteringFunctions/arm_conv_q7.c **** 
 101:../Dave/Generated/CMSIS_DSP/FilteringFunctions/arm_conv_q7.c ****   /* The algorithm implementation is based on the lengths of the inputs. */
 102:../Dave/Generated/CMSIS_DSP/FilteringFunctions/arm_conv_q7.c ****   /* srcB is always made to slide across srcA. */
 103:../Dave/Generated/CMSIS_DSP/FilteringFunctions/arm_conv_q7.c ****   /* So srcBLen is always considered as shorter or equal to srcALen */
 104:../Dave/Generated/CMSIS_DSP/FilteringFunctions/arm_conv_q7.c ****   if(srcALen >= srcBLen)
  54              	 .loc 1 104 0
  55 0022 07F10802 	 add r2,r7,#8
  56 0026 3B46     	 mov r3,r7
  57 0028 1268     	 ldr r2,[r2]
  58 002a 1B68     	 ldr r3,[r3]
  59 002c 9A42     	 cmp r2,r3
  60 002e 09D3     	 bcc .L2
 105:../Dave/Generated/CMSIS_DSP/FilteringFunctions/arm_conv_q7.c ****   {
 106:../Dave/Generated/CMSIS_DSP/FilteringFunctions/arm_conv_q7.c ****     /* Initialization of inputA pointer */
 107:../Dave/Generated/CMSIS_DSP/FilteringFunctions/arm_conv_q7.c ****     pIn1 = pSrcA;
  61              	 .loc 1 107 0
  62 0030 07F10C03 	 add r3,r7,#12
  63 0034 1B68     	 ldr r3,[r3]
  64 0036 C7F88C31 	 str r3,[r7,#396]
 108:../Dave/Generated/CMSIS_DSP/FilteringFunctions/arm_conv_q7.c **** 
 109:../Dave/Generated/CMSIS_DSP/FilteringFunctions/arm_conv_q7.c ****     /* Initialization of inputB pointer */
 110:../Dave/Generated/CMSIS_DSP/FilteringFunctions/arm_conv_q7.c ****     pIn2 = pSrcB;
  65              	 .loc 1 110 0
  66 003a 3B1D     	 adds r3,r7,#4
  67 003c 1B68     	 ldr r3,[r3]
  68 003e C7F88831 	 str r3,[r7,#392]
  69 0042 16E0     	 b .L3
  70              	.L2:
 111:../Dave/Generated/CMSIS_DSP/FilteringFunctions/arm_conv_q7.c ****   }
 112:../Dave/Generated/CMSIS_DSP/FilteringFunctions/arm_conv_q7.c ****   else
 113:../Dave/Generated/CMSIS_DSP/FilteringFunctions/arm_conv_q7.c ****   {
 114:../Dave/Generated/CMSIS_DSP/FilteringFunctions/arm_conv_q7.c ****     /* Initialization of inputA pointer */
 115:../Dave/Generated/CMSIS_DSP/FilteringFunctions/arm_conv_q7.c ****     pIn1 = pSrcB;
  71              	 .loc 1 115 0
  72 0044 3B1D     	 adds r3,r7,#4
  73 0046 1B68     	 ldr r3,[r3]
  74 0048 C7F88C31 	 str r3,[r7,#396]
 116:../Dave/Generated/CMSIS_DSP/FilteringFunctions/arm_conv_q7.c **** 
 117:../Dave/Generated/CMSIS_DSP/FilteringFunctions/arm_conv_q7.c ****     /* Initialization of inputB pointer */
 118:../Dave/Generated/CMSIS_DSP/FilteringFunctions/arm_conv_q7.c ****     pIn2 = pSrcA;
  75              	 .loc 1 118 0
  76 004c 07F10C03 	 add r3,r7,#12
  77 0050 1B68     	 ldr r3,[r3]
  78 0052 C7F88831 	 str r3,[r7,#392]
 119:../Dave/Generated/CMSIS_DSP/FilteringFunctions/arm_conv_q7.c **** 
 120:../Dave/Generated/CMSIS_DSP/FilteringFunctions/arm_conv_q7.c ****     /* srcBLen is always considered as shorter or equal to srcALen */
 121:../Dave/Generated/CMSIS_DSP/FilteringFunctions/arm_conv_q7.c ****     j = srcBLen;
  79              	 .loc 1 121 0
  80 0056 3B46     	 mov r3,r7
  81 0058 1B68     	 ldr r3,[r3]
  82 005a C7F84831 	 str r3,[r7,#328]
 122:../Dave/Generated/CMSIS_DSP/FilteringFunctions/arm_conv_q7.c ****     srcBLen = srcALen;
  83              	 .loc 1 122 0
  84 005e 3B46     	 mov r3,r7
  85 0060 07F10802 	 add r2,r7,#8
  86 0064 1268     	 ldr r2,[r2]
  87 0066 1A60     	 str r2,[r3]
 123:../Dave/Generated/CMSIS_DSP/FilteringFunctions/arm_conv_q7.c ****     srcALen = j;
  88              	 .loc 1 123 0
  89 0068 07F10803 	 add r3,r7,#8
  90 006c D7F84821 	 ldr r2,[r7,#328]
  91 0070 1A60     	 str r2,[r3]
  92              	.L3:
 124:../Dave/Generated/CMSIS_DSP/FilteringFunctions/arm_conv_q7.c ****   }
 125:../Dave/Generated/CMSIS_DSP/FilteringFunctions/arm_conv_q7.c **** 
 126:../Dave/Generated/CMSIS_DSP/FilteringFunctions/arm_conv_q7.c ****   /* conv(x,y) at n = x[n] * y[0] + x[n-1] * y[1] + x[n-2] * y[2] + ...+ x[n-N+1] * y[N -1] */
 127:../Dave/Generated/CMSIS_DSP/FilteringFunctions/arm_conv_q7.c ****   /* The function is internally   
 128:../Dave/Generated/CMSIS_DSP/FilteringFunctions/arm_conv_q7.c ****    * divided into three stages according to the number of multiplications that has to be   
 129:../Dave/Generated/CMSIS_DSP/FilteringFunctions/arm_conv_q7.c ****    * taken place between inputA samples and inputB samples. In the first stage of the   
 130:../Dave/Generated/CMSIS_DSP/FilteringFunctions/arm_conv_q7.c ****    * algorithm, the multiplications increase by one for every iteration.   
 131:../Dave/Generated/CMSIS_DSP/FilteringFunctions/arm_conv_q7.c ****    * In the second stage of the algorithm, srcBLen number of multiplications are done.   
 132:../Dave/Generated/CMSIS_DSP/FilteringFunctions/arm_conv_q7.c ****    * In the third stage of the algorithm, the multiplications decrease by one   
 133:../Dave/Generated/CMSIS_DSP/FilteringFunctions/arm_conv_q7.c ****    * for every iteration. */
 134:../Dave/Generated/CMSIS_DSP/FilteringFunctions/arm_conv_q7.c **** 
 135:../Dave/Generated/CMSIS_DSP/FilteringFunctions/arm_conv_q7.c ****   /* The algorithm is implemented in three stages.   
 136:../Dave/Generated/CMSIS_DSP/FilteringFunctions/arm_conv_q7.c ****      The loop counters of each stage is initiated here. */
 137:../Dave/Generated/CMSIS_DSP/FilteringFunctions/arm_conv_q7.c ****   blockSize1 = srcBLen - 1u;
  93              	 .loc 1 137 0
  94 0072 3B46     	 mov r3,r7
  95 0074 1B68     	 ldr r3,[r3]
  96 0076 013B     	 subs r3,r3,#1
  97 0078 C7F85031 	 str r3,[r7,#336]
 138:../Dave/Generated/CMSIS_DSP/FilteringFunctions/arm_conv_q7.c ****   blockSize2 = (srcALen - srcBLen) + 1u;
  98              	 .loc 1 138 0
  99 007c 07F10802 	 add r2,r7,#8
 100 0080 3B46     	 mov r3,r7
 101 0082 1268     	 ldr r2,[r2]
 102 0084 1B68     	 ldr r3,[r3]
 103 0086 D31A     	 subs r3,r2,r3
 104 0088 0133     	 adds r3,r3,#1
 105 008a C7F84431 	 str r3,[r7,#324]
 139:../Dave/Generated/CMSIS_DSP/FilteringFunctions/arm_conv_q7.c ****   blockSize3 = blockSize1;
 106              	 .loc 1 139 0
 107 008e D7F85031 	 ldr r3,[r7,#336]
 108 0092 C7F84C31 	 str r3,[r7,#332]
 140:../Dave/Generated/CMSIS_DSP/FilteringFunctions/arm_conv_q7.c **** 
 141:../Dave/Generated/CMSIS_DSP/FilteringFunctions/arm_conv_q7.c ****   /* --------------------------   
 142:../Dave/Generated/CMSIS_DSP/FilteringFunctions/arm_conv_q7.c ****    * Initializations of stage1   
 143:../Dave/Generated/CMSIS_DSP/FilteringFunctions/arm_conv_q7.c ****    * -------------------------*/
 144:../Dave/Generated/CMSIS_DSP/FilteringFunctions/arm_conv_q7.c **** 
 145:../Dave/Generated/CMSIS_DSP/FilteringFunctions/arm_conv_q7.c ****   /* sum = x[0] * y[0]   
 146:../Dave/Generated/CMSIS_DSP/FilteringFunctions/arm_conv_q7.c ****    * sum = x[0] * y[1] + x[1] * y[0]   
 147:../Dave/Generated/CMSIS_DSP/FilteringFunctions/arm_conv_q7.c ****    * ....   
 148:../Dave/Generated/CMSIS_DSP/FilteringFunctions/arm_conv_q7.c ****    * sum = x[0] * y[srcBlen - 1] + x[1] * y[srcBlen - 2] +...+ x[srcBLen - 1] * y[0]   
 149:../Dave/Generated/CMSIS_DSP/FilteringFunctions/arm_conv_q7.c ****    */
 150:../Dave/Generated/CMSIS_DSP/FilteringFunctions/arm_conv_q7.c **** 
 151:../Dave/Generated/CMSIS_DSP/FilteringFunctions/arm_conv_q7.c ****   /* In this stage the MAC operations are increased by 1 for every iteration.   
 152:../Dave/Generated/CMSIS_DSP/FilteringFunctions/arm_conv_q7.c ****      The count variable holds the number of MAC operations performed */
 153:../Dave/Generated/CMSIS_DSP/FilteringFunctions/arm_conv_q7.c ****   count = 1u;
 109              	 .loc 1 153 0
 110 0096 0123     	 movs r3,#1
 111 0098 C7F85831 	 str r3,[r7,#344]
 154:../Dave/Generated/CMSIS_DSP/FilteringFunctions/arm_conv_q7.c **** 
 155:../Dave/Generated/CMSIS_DSP/FilteringFunctions/arm_conv_q7.c ****   /* Working pointer of inputA */
 156:../Dave/Generated/CMSIS_DSP/FilteringFunctions/arm_conv_q7.c ****   px = pIn1;
 112              	 .loc 1 156 0
 113 009c D7F88C31 	 ldr r3,[r7,#396]
 114 00a0 C7F88031 	 str r3,[r7,#384]
 157:../Dave/Generated/CMSIS_DSP/FilteringFunctions/arm_conv_q7.c **** 
 158:../Dave/Generated/CMSIS_DSP/FilteringFunctions/arm_conv_q7.c ****   /* Working pointer of inputB */
 159:../Dave/Generated/CMSIS_DSP/FilteringFunctions/arm_conv_q7.c ****   py = pIn2;
 115              	 .loc 1 159 0
 116 00a4 D7F88831 	 ldr r3,[r7,#392]
 117 00a8 C7F87C31 	 str r3,[r7,#380]
 160:../Dave/Generated/CMSIS_DSP/FilteringFunctions/arm_conv_q7.c **** 
 161:../Dave/Generated/CMSIS_DSP/FilteringFunctions/arm_conv_q7.c **** 
 162:../Dave/Generated/CMSIS_DSP/FilteringFunctions/arm_conv_q7.c ****   /* ------------------------   
 163:../Dave/Generated/CMSIS_DSP/FilteringFunctions/arm_conv_q7.c ****    * Stage1 process   
 164:../Dave/Generated/CMSIS_DSP/FilteringFunctions/arm_conv_q7.c ****    * ----------------------*/
 165:../Dave/Generated/CMSIS_DSP/FilteringFunctions/arm_conv_q7.c **** 
 166:../Dave/Generated/CMSIS_DSP/FilteringFunctions/arm_conv_q7.c ****   /* The first stage starts here */
 167:../Dave/Generated/CMSIS_DSP/FilteringFunctions/arm_conv_q7.c ****   while(blockSize1 > 0u)
 118              	 .loc 1 167 0
 119 00ac 00E1     	 b .L4
 120              	.L11:
 168:../Dave/Generated/CMSIS_DSP/FilteringFunctions/arm_conv_q7.c ****   {
 169:../Dave/Generated/CMSIS_DSP/FilteringFunctions/arm_conv_q7.c ****     /* Accumulator is made zero for every iteration */
 170:../Dave/Generated/CMSIS_DSP/FilteringFunctions/arm_conv_q7.c ****     sum = 0;
 121              	 .loc 1 170 0
 122 00ae 0023     	 movs r3,#0
 123 00b0 C7F87031 	 str r3,[r7,#368]
 171:../Dave/Generated/CMSIS_DSP/FilteringFunctions/arm_conv_q7.c **** 
 172:../Dave/Generated/CMSIS_DSP/FilteringFunctions/arm_conv_q7.c ****     /* Apply loop unrolling and compute 4 MACs simultaneously. */
 173:../Dave/Generated/CMSIS_DSP/FilteringFunctions/arm_conv_q7.c ****     k = count >> 2u;
 124              	 .loc 1 173 0
 125 00b4 D7F85831 	 ldr r3,[r7,#344]
 126 00b8 9B08     	 lsrs r3,r3,#2
 127 00ba C7F85C31 	 str r3,[r7,#348]
 174:../Dave/Generated/CMSIS_DSP/FilteringFunctions/arm_conv_q7.c **** 
 175:../Dave/Generated/CMSIS_DSP/FilteringFunctions/arm_conv_q7.c ****     /* First part of the processing with loop unrolling.  Compute 4 MACs at a time.   
 176:../Dave/Generated/CMSIS_DSP/FilteringFunctions/arm_conv_q7.c ****      ** a second loop below computes MACs for the remaining 1 to 3 samples. */
 177:../Dave/Generated/CMSIS_DSP/FilteringFunctions/arm_conv_q7.c ****     while(k > 0u)
 128              	 .loc 1 177 0
 129 00be A4E0     	 b .L5
 130              	.L8:
 178:../Dave/Generated/CMSIS_DSP/FilteringFunctions/arm_conv_q7.c ****     {
 179:../Dave/Generated/CMSIS_DSP/FilteringFunctions/arm_conv_q7.c ****       /* x[0] , x[1] */
 180:../Dave/Generated/CMSIS_DSP/FilteringFunctions/arm_conv_q7.c ****       in1 = (q15_t) * px++;
 131              	 .loc 1 180 0
 132 00c0 D7F88031 	 ldr r3,[r7,#384]
 133 00c4 5A1C     	 adds r2,r3,#1
 134 00c6 C7F88021 	 str r2,[r7,#384]
 135 00ca 1B78     	 ldrb r3,[r3]
 136 00cc 5BB2     	 sxtb r3,r3
 137 00ce A7F84231 	 strh r3,[r7,#322]
 181:../Dave/Generated/CMSIS_DSP/FilteringFunctions/arm_conv_q7.c ****       in2 = (q15_t) * px++;
 138              	 .loc 1 181 0
 139 00d2 D7F88031 	 ldr r3,[r7,#384]
 140 00d6 5A1C     	 adds r2,r3,#1
 141 00d8 C7F88021 	 str r2,[r7,#384]
 142 00dc 1B78     	 ldrb r3,[r3]
 143 00de 5BB2     	 sxtb r3,r3
 144 00e0 A7F84031 	 strh r3,[r7,#320]
 182:../Dave/Generated/CMSIS_DSP/FilteringFunctions/arm_conv_q7.c ****       input1 = ((q31_t) in1 & 0x0000FFFF) | ((q31_t) in2 << 16u);
 145              	 .loc 1 182 0
 146 00e4 B7F94231 	 ldrsh r3,[r7,#322]
 147 00e8 9AB2     	 uxth r2,r3
 148 00ea B7F94031 	 ldrsh r3,[r7,#320]
 149 00ee 1B04     	 lsls r3,r3,#16
 150 00f0 1343     	 orrs r3,r3,r2
 151 00f2 C7F83C31 	 str r3,[r7,#316]
 183:../Dave/Generated/CMSIS_DSP/FilteringFunctions/arm_conv_q7.c **** 
 184:../Dave/Generated/CMSIS_DSP/FilteringFunctions/arm_conv_q7.c ****       /* y[srcBLen - 1] , y[srcBLen - 2] */
 185:../Dave/Generated/CMSIS_DSP/FilteringFunctions/arm_conv_q7.c ****       in1 = (q15_t) * py--;
 152              	 .loc 1 185 0
 153 00f6 D7F87C31 	 ldr r3,[r7,#380]
 154 00fa 5A1E     	 subs r2,r3,#1
 155 00fc C7F87C21 	 str r2,[r7,#380]
 156 0100 1B78     	 ldrb r3,[r3]
 157 0102 5BB2     	 sxtb r3,r3
 158 0104 A7F84231 	 strh r3,[r7,#322]
 186:../Dave/Generated/CMSIS_DSP/FilteringFunctions/arm_conv_q7.c ****       in2 = (q15_t) * py--;
 159              	 .loc 1 186 0
 160 0108 D7F87C31 	 ldr r3,[r7,#380]
 161 010c 5A1E     	 subs r2,r3,#1
 162 010e C7F87C21 	 str r2,[r7,#380]
 163 0112 1B78     	 ldrb r3,[r3]
 164 0114 5BB2     	 sxtb r3,r3
 165 0116 A7F84031 	 strh r3,[r7,#320]
 187:../Dave/Generated/CMSIS_DSP/FilteringFunctions/arm_conv_q7.c ****       input2 = ((q31_t) in1 & 0x0000FFFF) | ((q31_t) in2 << 16u);
 166              	 .loc 1 187 0
 167 011a B7F94231 	 ldrsh r3,[r7,#322]
 168 011e 9AB2     	 uxth r2,r3
 169 0120 B7F94031 	 ldrsh r3,[r7,#320]
 170 0124 1B04     	 lsls r3,r3,#16
 171 0126 1343     	 orrs r3,r3,r2
 172 0128 C7F83831 	 str r3,[r7,#312]
 188:../Dave/Generated/CMSIS_DSP/FilteringFunctions/arm_conv_q7.c **** 
 189:../Dave/Generated/CMSIS_DSP/FilteringFunctions/arm_conv_q7.c ****       /* x[0] * y[srcBLen - 1] */
 190:../Dave/Generated/CMSIS_DSP/FilteringFunctions/arm_conv_q7.c ****       /* x[1] * y[srcBLen - 2] */
 191:../Dave/Generated/CMSIS_DSP/FilteringFunctions/arm_conv_q7.c ****       sum = __SMLAD(input1, input2, sum);
 173              	 .loc 1 191 0
 174 012c D7F83C11 	 ldr r1,[r7,#316]
 175 0130 D7F83821 	 ldr r2,[r7,#312]
 176 0134 D7F87031 	 ldr r3,[r7,#368]
 177 0138 C7F8EC10 	 str r1,[r7,#236]
 178 013c C7F8E820 	 str r2,[r7,#232]
 179 0140 C7F8E430 	 str r3,[r7,#228]
 180              	.LBB38:
 181              	.LBB39:
 182              	 .file 2 "C:\\Users\\Depes Crystalline\\Desktop\\school\\Active_Bike_Lighting_System\\Radar_Core/Libraries/CMSIS/Include/core_cmSimd.h"
   1:C:\Users\Depes Crystalline\Desktop\school\Active_Bike_Lighting_System\Radar_Core/Libraries/CMSIS/Include\core_cmSimd.h **** /**************************************************************************//**
   2:C:\Users\Depes Crystalline\Desktop\school\Active_Bike_Lighting_System\Radar_Core/Libraries/CMSIS/Include\core_cmSimd.h ****  * @file     core_cmSimd.h
   3:C:\Users\Depes Crystalline\Desktop\school\Active_Bike_Lighting_System\Radar_Core/Libraries/CMSIS/Include\core_cmSimd.h ****  * @brief    CMSIS Cortex-M SIMD Header File
   4:C:\Users\Depes Crystalline\Desktop\school\Active_Bike_Lighting_System\Radar_Core/Libraries/CMSIS/Include\core_cmSimd.h ****  * @version  V4.00
   5:C:\Users\Depes Crystalline\Desktop\school\Active_Bike_Lighting_System\Radar_Core/Libraries/CMSIS/Include\core_cmSimd.h ****  * @date     22. August 2014
   6:C:\Users\Depes Crystalline\Desktop\school\Active_Bike_Lighting_System\Radar_Core/Libraries/CMSIS/Include\core_cmSimd.h ****  *
   7:C:\Users\Depes Crystalline\Desktop\school\Active_Bike_Lighting_System\Radar_Core/Libraries/CMSIS/Include\core_cmSimd.h ****  * @note
   8:C:\Users\Depes Crystalline\Desktop\school\Active_Bike_Lighting_System\Radar_Core/Libraries/CMSIS/Include\core_cmSimd.h ****  *
   9:C:\Users\Depes Crystalline\Desktop\school\Active_Bike_Lighting_System\Radar_Core/Libraries/CMSIS/Include\core_cmSimd.h ****  ******************************************************************************/
  10:C:\Users\Depes Crystalline\Desktop\school\Active_Bike_Lighting_System\Radar_Core/Libraries/CMSIS/Include\core_cmSimd.h **** /* Copyright (c) 2009 - 2014 ARM LIMITED
  11:C:\Users\Depes Crystalline\Desktop\school\Active_Bike_Lighting_System\Radar_Core/Libraries/CMSIS/Include\core_cmSimd.h **** 
  12:C:\Users\Depes Crystalline\Desktop\school\Active_Bike_Lighting_System\Radar_Core/Libraries/CMSIS/Include\core_cmSimd.h ****    All rights reserved.
  13:C:\Users\Depes Crystalline\Desktop\school\Active_Bike_Lighting_System\Radar_Core/Libraries/CMSIS/Include\core_cmSimd.h ****    Redistribution and use in source and binary forms, with or without
  14:C:\Users\Depes Crystalline\Desktop\school\Active_Bike_Lighting_System\Radar_Core/Libraries/CMSIS/Include\core_cmSimd.h ****    modification, are permitted provided that the following conditions are met:
  15:C:\Users\Depes Crystalline\Desktop\school\Active_Bike_Lighting_System\Radar_Core/Libraries/CMSIS/Include\core_cmSimd.h ****    - Redistributions of source code must retain the above copyright
  16:C:\Users\Depes Crystalline\Desktop\school\Active_Bike_Lighting_System\Radar_Core/Libraries/CMSIS/Include\core_cmSimd.h ****      notice, this list of conditions and the following disclaimer.
  17:C:\Users\Depes Crystalline\Desktop\school\Active_Bike_Lighting_System\Radar_Core/Libraries/CMSIS/Include\core_cmSimd.h ****    - Redistributions in binary form must reproduce the above copyright
  18:C:\Users\Depes Crystalline\Desktop\school\Active_Bike_Lighting_System\Radar_Core/Libraries/CMSIS/Include\core_cmSimd.h ****      notice, this list of conditions and the following disclaimer in the
  19:C:\Users\Depes Crystalline\Desktop\school\Active_Bike_Lighting_System\Radar_Core/Libraries/CMSIS/Include\core_cmSimd.h ****      documentation and/or other materials provided with the distribution.
  20:C:\Users\Depes Crystalline\Desktop\school\Active_Bike_Lighting_System\Radar_Core/Libraries/CMSIS/Include\core_cmSimd.h ****    - Neither the name of ARM nor the names of its contributors may be used
  21:C:\Users\Depes Crystalline\Desktop\school\Active_Bike_Lighting_System\Radar_Core/Libraries/CMSIS/Include\core_cmSimd.h ****      to endorse or promote products derived from this software without
  22:C:\Users\Depes Crystalline\Desktop\school\Active_Bike_Lighting_System\Radar_Core/Libraries/CMSIS/Include\core_cmSimd.h ****      specific prior written permission.
  23:C:\Users\Depes Crystalline\Desktop\school\Active_Bike_Lighting_System\Radar_Core/Libraries/CMSIS/Include\core_cmSimd.h ****    *
  24:C:\Users\Depes Crystalline\Desktop\school\Active_Bike_Lighting_System\Radar_Core/Libraries/CMSIS/Include\core_cmSimd.h ****    THIS SOFTWARE IS PROVIDED BY THE COPYRIGHT HOLDERS AND CONTRIBUTORS "AS IS"
  25:C:\Users\Depes Crystalline\Desktop\school\Active_Bike_Lighting_System\Radar_Core/Libraries/CMSIS/Include\core_cmSimd.h ****    AND ANY EXPRESS OR IMPLIED WARRANTIES, INCLUDING, BUT NOT LIMITED TO, THE
  26:C:\Users\Depes Crystalline\Desktop\school\Active_Bike_Lighting_System\Radar_Core/Libraries/CMSIS/Include\core_cmSimd.h ****    IMPLIED WARRANTIES OF MERCHANTABILITY AND FITNESS FOR A PARTICULAR PURPOSE
  27:C:\Users\Depes Crystalline\Desktop\school\Active_Bike_Lighting_System\Radar_Core/Libraries/CMSIS/Include\core_cmSimd.h ****    ARE DISCLAIMED. IN NO EVENT SHALL COPYRIGHT HOLDERS AND CONTRIBUTORS BE
  28:C:\Users\Depes Crystalline\Desktop\school\Active_Bike_Lighting_System\Radar_Core/Libraries/CMSIS/Include\core_cmSimd.h ****    LIABLE FOR ANY DIRECT, INDIRECT, INCIDENTAL, SPECIAL, EXEMPLARY, OR
  29:C:\Users\Depes Crystalline\Desktop\school\Active_Bike_Lighting_System\Radar_Core/Libraries/CMSIS/Include\core_cmSimd.h ****    CONSEQUENTIAL DAMAGES (INCLUDING, BUT NOT LIMITED TO, PROCUREMENT OF
  30:C:\Users\Depes Crystalline\Desktop\school\Active_Bike_Lighting_System\Radar_Core/Libraries/CMSIS/Include\core_cmSimd.h ****    SUBSTITUTE GOODS OR SERVICES; LOSS OF USE, DATA, OR PROFITS; OR BUSINESS
  31:C:\Users\Depes Crystalline\Desktop\school\Active_Bike_Lighting_System\Radar_Core/Libraries/CMSIS/Include\core_cmSimd.h ****    INTERRUPTION) HOWEVER CAUSED AND ON ANY THEORY OF LIABILITY, WHETHER IN
  32:C:\Users\Depes Crystalline\Desktop\school\Active_Bike_Lighting_System\Radar_Core/Libraries/CMSIS/Include\core_cmSimd.h ****    CONTRACT, STRICT LIABILITY, OR TORT (INCLUDING NEGLIGENCE OR OTHERWISE)
  33:C:\Users\Depes Crystalline\Desktop\school\Active_Bike_Lighting_System\Radar_Core/Libraries/CMSIS/Include\core_cmSimd.h ****    ARISING IN ANY WAY OUT OF THE USE OF THIS SOFTWARE, EVEN IF ADVISED OF THE
  34:C:\Users\Depes Crystalline\Desktop\school\Active_Bike_Lighting_System\Radar_Core/Libraries/CMSIS/Include\core_cmSimd.h ****    POSSIBILITY OF SUCH DAMAGE.
  35:C:\Users\Depes Crystalline\Desktop\school\Active_Bike_Lighting_System\Radar_Core/Libraries/CMSIS/Include\core_cmSimd.h ****    ---------------------------------------------------------------------------*/
  36:C:\Users\Depes Crystalline\Desktop\school\Active_Bike_Lighting_System\Radar_Core/Libraries/CMSIS/Include\core_cmSimd.h **** 
  37:C:\Users\Depes Crystalline\Desktop\school\Active_Bike_Lighting_System\Radar_Core/Libraries/CMSIS/Include\core_cmSimd.h **** 
  38:C:\Users\Depes Crystalline\Desktop\school\Active_Bike_Lighting_System\Radar_Core/Libraries/CMSIS/Include\core_cmSimd.h **** #if defined ( __ICCARM__ )
  39:C:\Users\Depes Crystalline\Desktop\school\Active_Bike_Lighting_System\Radar_Core/Libraries/CMSIS/Include\core_cmSimd.h ****  #pragma system_include  /* treat file as system include file for MISRA check */
  40:C:\Users\Depes Crystalline\Desktop\school\Active_Bike_Lighting_System\Radar_Core/Libraries/CMSIS/Include\core_cmSimd.h **** #endif
  41:C:\Users\Depes Crystalline\Desktop\school\Active_Bike_Lighting_System\Radar_Core/Libraries/CMSIS/Include\core_cmSimd.h **** 
  42:C:\Users\Depes Crystalline\Desktop\school\Active_Bike_Lighting_System\Radar_Core/Libraries/CMSIS/Include\core_cmSimd.h **** #ifndef __CORE_CMSIMD_H
  43:C:\Users\Depes Crystalline\Desktop\school\Active_Bike_Lighting_System\Radar_Core/Libraries/CMSIS/Include\core_cmSimd.h **** #define __CORE_CMSIMD_H
  44:C:\Users\Depes Crystalline\Desktop\school\Active_Bike_Lighting_System\Radar_Core/Libraries/CMSIS/Include\core_cmSimd.h **** 
  45:C:\Users\Depes Crystalline\Desktop\school\Active_Bike_Lighting_System\Radar_Core/Libraries/CMSIS/Include\core_cmSimd.h **** #ifdef __cplusplus
  46:C:\Users\Depes Crystalline\Desktop\school\Active_Bike_Lighting_System\Radar_Core/Libraries/CMSIS/Include\core_cmSimd.h ****  extern "C" {
  47:C:\Users\Depes Crystalline\Desktop\school\Active_Bike_Lighting_System\Radar_Core/Libraries/CMSIS/Include\core_cmSimd.h **** #endif
  48:C:\Users\Depes Crystalline\Desktop\school\Active_Bike_Lighting_System\Radar_Core/Libraries/CMSIS/Include\core_cmSimd.h **** 
  49:C:\Users\Depes Crystalline\Desktop\school\Active_Bike_Lighting_System\Radar_Core/Libraries/CMSIS/Include\core_cmSimd.h **** 
  50:C:\Users\Depes Crystalline\Desktop\school\Active_Bike_Lighting_System\Radar_Core/Libraries/CMSIS/Include\core_cmSimd.h **** /*******************************************************************************
  51:C:\Users\Depes Crystalline\Desktop\school\Active_Bike_Lighting_System\Radar_Core/Libraries/CMSIS/Include\core_cmSimd.h ****  *                Hardware Abstraction Layer
  52:C:\Users\Depes Crystalline\Desktop\school\Active_Bike_Lighting_System\Radar_Core/Libraries/CMSIS/Include\core_cmSimd.h ****  ******************************************************************************/
  53:C:\Users\Depes Crystalline\Desktop\school\Active_Bike_Lighting_System\Radar_Core/Libraries/CMSIS/Include\core_cmSimd.h **** 
  54:C:\Users\Depes Crystalline\Desktop\school\Active_Bike_Lighting_System\Radar_Core/Libraries/CMSIS/Include\core_cmSimd.h **** 
  55:C:\Users\Depes Crystalline\Desktop\school\Active_Bike_Lighting_System\Radar_Core/Libraries/CMSIS/Include\core_cmSimd.h **** /* ###################  Compiler specific Intrinsics  ########################### */
  56:C:\Users\Depes Crystalline\Desktop\school\Active_Bike_Lighting_System\Radar_Core/Libraries/CMSIS/Include\core_cmSimd.h **** /** \defgroup CMSIS_SIMD_intrinsics CMSIS SIMD Intrinsics
  57:C:\Users\Depes Crystalline\Desktop\school\Active_Bike_Lighting_System\Radar_Core/Libraries/CMSIS/Include\core_cmSimd.h ****   Access to dedicated SIMD instructions
  58:C:\Users\Depes Crystalline\Desktop\school\Active_Bike_Lighting_System\Radar_Core/Libraries/CMSIS/Include\core_cmSimd.h ****   @{
  59:C:\Users\Depes Crystalline\Desktop\school\Active_Bike_Lighting_System\Radar_Core/Libraries/CMSIS/Include\core_cmSimd.h **** */
  60:C:\Users\Depes Crystalline\Desktop\school\Active_Bike_Lighting_System\Radar_Core/Libraries/CMSIS/Include\core_cmSimd.h **** 
  61:C:\Users\Depes Crystalline\Desktop\school\Active_Bike_Lighting_System\Radar_Core/Libraries/CMSIS/Include\core_cmSimd.h **** #if   defined ( __CC_ARM ) /*------------------RealView Compiler -----------------*/
  62:C:\Users\Depes Crystalline\Desktop\school\Active_Bike_Lighting_System\Radar_Core/Libraries/CMSIS/Include\core_cmSimd.h **** /* ARM armcc specific functions */
  63:C:\Users\Depes Crystalline\Desktop\school\Active_Bike_Lighting_System\Radar_Core/Libraries/CMSIS/Include\core_cmSimd.h **** #define __SADD8                           __sadd8
  64:C:\Users\Depes Crystalline\Desktop\school\Active_Bike_Lighting_System\Radar_Core/Libraries/CMSIS/Include\core_cmSimd.h **** #define __QADD8                           __qadd8
  65:C:\Users\Depes Crystalline\Desktop\school\Active_Bike_Lighting_System\Radar_Core/Libraries/CMSIS/Include\core_cmSimd.h **** #define __SHADD8                          __shadd8
  66:C:\Users\Depes Crystalline\Desktop\school\Active_Bike_Lighting_System\Radar_Core/Libraries/CMSIS/Include\core_cmSimd.h **** #define __UADD8                           __uadd8
  67:C:\Users\Depes Crystalline\Desktop\school\Active_Bike_Lighting_System\Radar_Core/Libraries/CMSIS/Include\core_cmSimd.h **** #define __UQADD8                          __uqadd8
  68:C:\Users\Depes Crystalline\Desktop\school\Active_Bike_Lighting_System\Radar_Core/Libraries/CMSIS/Include\core_cmSimd.h **** #define __UHADD8                          __uhadd8
  69:C:\Users\Depes Crystalline\Desktop\school\Active_Bike_Lighting_System\Radar_Core/Libraries/CMSIS/Include\core_cmSimd.h **** #define __SSUB8                           __ssub8
  70:C:\Users\Depes Crystalline\Desktop\school\Active_Bike_Lighting_System\Radar_Core/Libraries/CMSIS/Include\core_cmSimd.h **** #define __QSUB8                           __qsub8
  71:C:\Users\Depes Crystalline\Desktop\school\Active_Bike_Lighting_System\Radar_Core/Libraries/CMSIS/Include\core_cmSimd.h **** #define __SHSUB8                          __shsub8
  72:C:\Users\Depes Crystalline\Desktop\school\Active_Bike_Lighting_System\Radar_Core/Libraries/CMSIS/Include\core_cmSimd.h **** #define __USUB8                           __usub8
  73:C:\Users\Depes Crystalline\Desktop\school\Active_Bike_Lighting_System\Radar_Core/Libraries/CMSIS/Include\core_cmSimd.h **** #define __UQSUB8                          __uqsub8
  74:C:\Users\Depes Crystalline\Desktop\school\Active_Bike_Lighting_System\Radar_Core/Libraries/CMSIS/Include\core_cmSimd.h **** #define __UHSUB8                          __uhsub8
  75:C:\Users\Depes Crystalline\Desktop\school\Active_Bike_Lighting_System\Radar_Core/Libraries/CMSIS/Include\core_cmSimd.h **** #define __SADD16                          __sadd16
  76:C:\Users\Depes Crystalline\Desktop\school\Active_Bike_Lighting_System\Radar_Core/Libraries/CMSIS/Include\core_cmSimd.h **** #define __QADD16                          __qadd16
  77:C:\Users\Depes Crystalline\Desktop\school\Active_Bike_Lighting_System\Radar_Core/Libraries/CMSIS/Include\core_cmSimd.h **** #define __SHADD16                         __shadd16
  78:C:\Users\Depes Crystalline\Desktop\school\Active_Bike_Lighting_System\Radar_Core/Libraries/CMSIS/Include\core_cmSimd.h **** #define __UADD16                          __uadd16
  79:C:\Users\Depes Crystalline\Desktop\school\Active_Bike_Lighting_System\Radar_Core/Libraries/CMSIS/Include\core_cmSimd.h **** #define __UQADD16                         __uqadd16
  80:C:\Users\Depes Crystalline\Desktop\school\Active_Bike_Lighting_System\Radar_Core/Libraries/CMSIS/Include\core_cmSimd.h **** #define __UHADD16                         __uhadd16
  81:C:\Users\Depes Crystalline\Desktop\school\Active_Bike_Lighting_System\Radar_Core/Libraries/CMSIS/Include\core_cmSimd.h **** #define __SSUB16                          __ssub16
  82:C:\Users\Depes Crystalline\Desktop\school\Active_Bike_Lighting_System\Radar_Core/Libraries/CMSIS/Include\core_cmSimd.h **** #define __QSUB16                          __qsub16
  83:C:\Users\Depes Crystalline\Desktop\school\Active_Bike_Lighting_System\Radar_Core/Libraries/CMSIS/Include\core_cmSimd.h **** #define __SHSUB16                         __shsub16
  84:C:\Users\Depes Crystalline\Desktop\school\Active_Bike_Lighting_System\Radar_Core/Libraries/CMSIS/Include\core_cmSimd.h **** #define __USUB16                          __usub16
  85:C:\Users\Depes Crystalline\Desktop\school\Active_Bike_Lighting_System\Radar_Core/Libraries/CMSIS/Include\core_cmSimd.h **** #define __UQSUB16                         __uqsub16
  86:C:\Users\Depes Crystalline\Desktop\school\Active_Bike_Lighting_System\Radar_Core/Libraries/CMSIS/Include\core_cmSimd.h **** #define __UHSUB16                         __uhsub16
  87:C:\Users\Depes Crystalline\Desktop\school\Active_Bike_Lighting_System\Radar_Core/Libraries/CMSIS/Include\core_cmSimd.h **** #define __SASX                            __sasx
  88:C:\Users\Depes Crystalline\Desktop\school\Active_Bike_Lighting_System\Radar_Core/Libraries/CMSIS/Include\core_cmSimd.h **** #define __QASX                            __qasx
  89:C:\Users\Depes Crystalline\Desktop\school\Active_Bike_Lighting_System\Radar_Core/Libraries/CMSIS/Include\core_cmSimd.h **** #define __SHASX                           __shasx
  90:C:\Users\Depes Crystalline\Desktop\school\Active_Bike_Lighting_System\Radar_Core/Libraries/CMSIS/Include\core_cmSimd.h **** #define __UASX                            __uasx
  91:C:\Users\Depes Crystalline\Desktop\school\Active_Bike_Lighting_System\Radar_Core/Libraries/CMSIS/Include\core_cmSimd.h **** #define __UQASX                           __uqasx
  92:C:\Users\Depes Crystalline\Desktop\school\Active_Bike_Lighting_System\Radar_Core/Libraries/CMSIS/Include\core_cmSimd.h **** #define __UHASX                           __uhasx
  93:C:\Users\Depes Crystalline\Desktop\school\Active_Bike_Lighting_System\Radar_Core/Libraries/CMSIS/Include\core_cmSimd.h **** #define __SSAX                            __ssax
  94:C:\Users\Depes Crystalline\Desktop\school\Active_Bike_Lighting_System\Radar_Core/Libraries/CMSIS/Include\core_cmSimd.h **** #define __QSAX                            __qsax
  95:C:\Users\Depes Crystalline\Desktop\school\Active_Bike_Lighting_System\Radar_Core/Libraries/CMSIS/Include\core_cmSimd.h **** #define __SHSAX                           __shsax
  96:C:\Users\Depes Crystalline\Desktop\school\Active_Bike_Lighting_System\Radar_Core/Libraries/CMSIS/Include\core_cmSimd.h **** #define __USAX                            __usax
  97:C:\Users\Depes Crystalline\Desktop\school\Active_Bike_Lighting_System\Radar_Core/Libraries/CMSIS/Include\core_cmSimd.h **** #define __UQSAX                           __uqsax
  98:C:\Users\Depes Crystalline\Desktop\school\Active_Bike_Lighting_System\Radar_Core/Libraries/CMSIS/Include\core_cmSimd.h **** #define __UHSAX                           __uhsax
  99:C:\Users\Depes Crystalline\Desktop\school\Active_Bike_Lighting_System\Radar_Core/Libraries/CMSIS/Include\core_cmSimd.h **** #define __USAD8                           __usad8
 100:C:\Users\Depes Crystalline\Desktop\school\Active_Bike_Lighting_System\Radar_Core/Libraries/CMSIS/Include\core_cmSimd.h **** #define __USADA8                          __usada8
 101:C:\Users\Depes Crystalline\Desktop\school\Active_Bike_Lighting_System\Radar_Core/Libraries/CMSIS/Include\core_cmSimd.h **** #define __SSAT16                          __ssat16
 102:C:\Users\Depes Crystalline\Desktop\school\Active_Bike_Lighting_System\Radar_Core/Libraries/CMSIS/Include\core_cmSimd.h **** #define __USAT16                          __usat16
 103:C:\Users\Depes Crystalline\Desktop\school\Active_Bike_Lighting_System\Radar_Core/Libraries/CMSIS/Include\core_cmSimd.h **** #define __UXTB16                          __uxtb16
 104:C:\Users\Depes Crystalline\Desktop\school\Active_Bike_Lighting_System\Radar_Core/Libraries/CMSIS/Include\core_cmSimd.h **** #define __UXTAB16                         __uxtab16
 105:C:\Users\Depes Crystalline\Desktop\school\Active_Bike_Lighting_System\Radar_Core/Libraries/CMSIS/Include\core_cmSimd.h **** #define __SXTB16                          __sxtb16
 106:C:\Users\Depes Crystalline\Desktop\school\Active_Bike_Lighting_System\Radar_Core/Libraries/CMSIS/Include\core_cmSimd.h **** #define __SXTAB16                         __sxtab16
 107:C:\Users\Depes Crystalline\Desktop\school\Active_Bike_Lighting_System\Radar_Core/Libraries/CMSIS/Include\core_cmSimd.h **** #define __SMUAD                           __smuad
 108:C:\Users\Depes Crystalline\Desktop\school\Active_Bike_Lighting_System\Radar_Core/Libraries/CMSIS/Include\core_cmSimd.h **** #define __SMUADX                          __smuadx
 109:C:\Users\Depes Crystalline\Desktop\school\Active_Bike_Lighting_System\Radar_Core/Libraries/CMSIS/Include\core_cmSimd.h **** #define __SMLAD                           __smlad
 110:C:\Users\Depes Crystalline\Desktop\school\Active_Bike_Lighting_System\Radar_Core/Libraries/CMSIS/Include\core_cmSimd.h **** #define __SMLADX                          __smladx
 111:C:\Users\Depes Crystalline\Desktop\school\Active_Bike_Lighting_System\Radar_Core/Libraries/CMSIS/Include\core_cmSimd.h **** #define __SMLALD                          __smlald
 112:C:\Users\Depes Crystalline\Desktop\school\Active_Bike_Lighting_System\Radar_Core/Libraries/CMSIS/Include\core_cmSimd.h **** #define __SMLALDX                         __smlaldx
 113:C:\Users\Depes Crystalline\Desktop\school\Active_Bike_Lighting_System\Radar_Core/Libraries/CMSIS/Include\core_cmSimd.h **** #define __SMUSD                           __smusd
 114:C:\Users\Depes Crystalline\Desktop\school\Active_Bike_Lighting_System\Radar_Core/Libraries/CMSIS/Include\core_cmSimd.h **** #define __SMUSDX                          __smusdx
 115:C:\Users\Depes Crystalline\Desktop\school\Active_Bike_Lighting_System\Radar_Core/Libraries/CMSIS/Include\core_cmSimd.h **** #define __SMLSD                           __smlsd
 116:C:\Users\Depes Crystalline\Desktop\school\Active_Bike_Lighting_System\Radar_Core/Libraries/CMSIS/Include\core_cmSimd.h **** #define __SMLSDX                          __smlsdx
 117:C:\Users\Depes Crystalline\Desktop\school\Active_Bike_Lighting_System\Radar_Core/Libraries/CMSIS/Include\core_cmSimd.h **** #define __SMLSLD                          __smlsld
 118:C:\Users\Depes Crystalline\Desktop\school\Active_Bike_Lighting_System\Radar_Core/Libraries/CMSIS/Include\core_cmSimd.h **** #define __SMLSLDX                         __smlsldx
 119:C:\Users\Depes Crystalline\Desktop\school\Active_Bike_Lighting_System\Radar_Core/Libraries/CMSIS/Include\core_cmSimd.h **** #define __SEL                             __sel
 120:C:\Users\Depes Crystalline\Desktop\school\Active_Bike_Lighting_System\Radar_Core/Libraries/CMSIS/Include\core_cmSimd.h **** #define __QADD                            __qadd
 121:C:\Users\Depes Crystalline\Desktop\school\Active_Bike_Lighting_System\Radar_Core/Libraries/CMSIS/Include\core_cmSimd.h **** #define __QSUB                            __qsub
 122:C:\Users\Depes Crystalline\Desktop\school\Active_Bike_Lighting_System\Radar_Core/Libraries/CMSIS/Include\core_cmSimd.h **** 
 123:C:\Users\Depes Crystalline\Desktop\school\Active_Bike_Lighting_System\Radar_Core/Libraries/CMSIS/Include\core_cmSimd.h **** #define __PKHBT(ARG1,ARG2,ARG3)          ( ((((uint32_t)(ARG1))          ) & 0x0000FFFFUL) |  \
 124:C:\Users\Depes Crystalline\Desktop\school\Active_Bike_Lighting_System\Radar_Core/Libraries/CMSIS/Include\core_cmSimd.h ****                                            ((((uint32_t)(ARG2)) << (ARG3)) & 0xFFFF0000UL)  )
 125:C:\Users\Depes Crystalline\Desktop\school\Active_Bike_Lighting_System\Radar_Core/Libraries/CMSIS/Include\core_cmSimd.h **** 
 126:C:\Users\Depes Crystalline\Desktop\school\Active_Bike_Lighting_System\Radar_Core/Libraries/CMSIS/Include\core_cmSimd.h **** #define __PKHTB(ARG1,ARG2,ARG3)          ( ((((uint32_t)(ARG1))          ) & 0xFFFF0000UL) |  \
 127:C:\Users\Depes Crystalline\Desktop\school\Active_Bike_Lighting_System\Radar_Core/Libraries/CMSIS/Include\core_cmSimd.h ****                                            ((((uint32_t)(ARG2)) >> (ARG3)) & 0x0000FFFFUL)  )
 128:C:\Users\Depes Crystalline\Desktop\school\Active_Bike_Lighting_System\Radar_Core/Libraries/CMSIS/Include\core_cmSimd.h **** 
 129:C:\Users\Depes Crystalline\Desktop\school\Active_Bike_Lighting_System\Radar_Core/Libraries/CMSIS/Include\core_cmSimd.h **** #define __SMMLA(ARG1,ARG2,ARG3)          ( (int32_t)((((int64_t)(ARG1) * (ARG2)) + \
 130:C:\Users\Depes Crystalline\Desktop\school\Active_Bike_Lighting_System\Radar_Core/Libraries/CMSIS/Include\core_cmSimd.h ****                                                       ((int64_t)(ARG3) << 32)      ) >> 32))
 131:C:\Users\Depes Crystalline\Desktop\school\Active_Bike_Lighting_System\Radar_Core/Libraries/CMSIS/Include\core_cmSimd.h **** 
 132:C:\Users\Depes Crystalline\Desktop\school\Active_Bike_Lighting_System\Radar_Core/Libraries/CMSIS/Include\core_cmSimd.h **** 
 133:C:\Users\Depes Crystalline\Desktop\school\Active_Bike_Lighting_System\Radar_Core/Libraries/CMSIS/Include\core_cmSimd.h **** #elif defined ( __GNUC__ ) /*------------------ GNU Compiler ---------------------*/
 134:C:\Users\Depes Crystalline\Desktop\school\Active_Bike_Lighting_System\Radar_Core/Libraries/CMSIS/Include\core_cmSimd.h **** /* GNU gcc specific functions */
 135:C:\Users\Depes Crystalline\Desktop\school\Active_Bike_Lighting_System\Radar_Core/Libraries/CMSIS/Include\core_cmSimd.h **** __attribute__( ( always_inline ) ) __STATIC_INLINE uint32_t __SADD8(uint32_t op1, uint32_t op2)
 136:C:\Users\Depes Crystalline\Desktop\school\Active_Bike_Lighting_System\Radar_Core/Libraries/CMSIS/Include\core_cmSimd.h **** {
 137:C:\Users\Depes Crystalline\Desktop\school\Active_Bike_Lighting_System\Radar_Core/Libraries/CMSIS/Include\core_cmSimd.h ****   uint32_t result;
 138:C:\Users\Depes Crystalline\Desktop\school\Active_Bike_Lighting_System\Radar_Core/Libraries/CMSIS/Include\core_cmSimd.h **** 
 139:C:\Users\Depes Crystalline\Desktop\school\Active_Bike_Lighting_System\Radar_Core/Libraries/CMSIS/Include\core_cmSimd.h ****   __ASM volatile ("sadd8 %0, %1, %2" : "=r" (result) : "r" (op1), "r" (op2) );
 140:C:\Users\Depes Crystalline\Desktop\school\Active_Bike_Lighting_System\Radar_Core/Libraries/CMSIS/Include\core_cmSimd.h ****   return(result);
 141:C:\Users\Depes Crystalline\Desktop\school\Active_Bike_Lighting_System\Radar_Core/Libraries/CMSIS/Include\core_cmSimd.h **** }
 142:C:\Users\Depes Crystalline\Desktop\school\Active_Bike_Lighting_System\Radar_Core/Libraries/CMSIS/Include\core_cmSimd.h **** 
 143:C:\Users\Depes Crystalline\Desktop\school\Active_Bike_Lighting_System\Radar_Core/Libraries/CMSIS/Include\core_cmSimd.h **** __attribute__( ( always_inline ) ) __STATIC_INLINE uint32_t __QADD8(uint32_t op1, uint32_t op2)
 144:C:\Users\Depes Crystalline\Desktop\school\Active_Bike_Lighting_System\Radar_Core/Libraries/CMSIS/Include\core_cmSimd.h **** {
 145:C:\Users\Depes Crystalline\Desktop\school\Active_Bike_Lighting_System\Radar_Core/Libraries/CMSIS/Include\core_cmSimd.h ****   uint32_t result;
 146:C:\Users\Depes Crystalline\Desktop\school\Active_Bike_Lighting_System\Radar_Core/Libraries/CMSIS/Include\core_cmSimd.h **** 
 147:C:\Users\Depes Crystalline\Desktop\school\Active_Bike_Lighting_System\Radar_Core/Libraries/CMSIS/Include\core_cmSimd.h ****   __ASM volatile ("qadd8 %0, %1, %2" : "=r" (result) : "r" (op1), "r" (op2) );
 148:C:\Users\Depes Crystalline\Desktop\school\Active_Bike_Lighting_System\Radar_Core/Libraries/CMSIS/Include\core_cmSimd.h ****   return(result);
 149:C:\Users\Depes Crystalline\Desktop\school\Active_Bike_Lighting_System\Radar_Core/Libraries/CMSIS/Include\core_cmSimd.h **** }
 150:C:\Users\Depes Crystalline\Desktop\school\Active_Bike_Lighting_System\Radar_Core/Libraries/CMSIS/Include\core_cmSimd.h **** 
 151:C:\Users\Depes Crystalline\Desktop\school\Active_Bike_Lighting_System\Radar_Core/Libraries/CMSIS/Include\core_cmSimd.h **** __attribute__( ( always_inline ) ) __STATIC_INLINE uint32_t __SHADD8(uint32_t op1, uint32_t op2)
 152:C:\Users\Depes Crystalline\Desktop\school\Active_Bike_Lighting_System\Radar_Core/Libraries/CMSIS/Include\core_cmSimd.h **** {
 153:C:\Users\Depes Crystalline\Desktop\school\Active_Bike_Lighting_System\Radar_Core/Libraries/CMSIS/Include\core_cmSimd.h ****   uint32_t result;
 154:C:\Users\Depes Crystalline\Desktop\school\Active_Bike_Lighting_System\Radar_Core/Libraries/CMSIS/Include\core_cmSimd.h **** 
 155:C:\Users\Depes Crystalline\Desktop\school\Active_Bike_Lighting_System\Radar_Core/Libraries/CMSIS/Include\core_cmSimd.h ****   __ASM volatile ("shadd8 %0, %1, %2" : "=r" (result) : "r" (op1), "r" (op2) );
 156:C:\Users\Depes Crystalline\Desktop\school\Active_Bike_Lighting_System\Radar_Core/Libraries/CMSIS/Include\core_cmSimd.h ****   return(result);
 157:C:\Users\Depes Crystalline\Desktop\school\Active_Bike_Lighting_System\Radar_Core/Libraries/CMSIS/Include\core_cmSimd.h **** }
 158:C:\Users\Depes Crystalline\Desktop\school\Active_Bike_Lighting_System\Radar_Core/Libraries/CMSIS/Include\core_cmSimd.h **** 
 159:C:\Users\Depes Crystalline\Desktop\school\Active_Bike_Lighting_System\Radar_Core/Libraries/CMSIS/Include\core_cmSimd.h **** __attribute__( ( always_inline ) ) __STATIC_INLINE uint32_t __UADD8(uint32_t op1, uint32_t op2)
 160:C:\Users\Depes Crystalline\Desktop\school\Active_Bike_Lighting_System\Radar_Core/Libraries/CMSIS/Include\core_cmSimd.h **** {
 161:C:\Users\Depes Crystalline\Desktop\school\Active_Bike_Lighting_System\Radar_Core/Libraries/CMSIS/Include\core_cmSimd.h ****   uint32_t result;
 162:C:\Users\Depes Crystalline\Desktop\school\Active_Bike_Lighting_System\Radar_Core/Libraries/CMSIS/Include\core_cmSimd.h **** 
 163:C:\Users\Depes Crystalline\Desktop\school\Active_Bike_Lighting_System\Radar_Core/Libraries/CMSIS/Include\core_cmSimd.h ****   __ASM volatile ("uadd8 %0, %1, %2" : "=r" (result) : "r" (op1), "r" (op2) );
 164:C:\Users\Depes Crystalline\Desktop\school\Active_Bike_Lighting_System\Radar_Core/Libraries/CMSIS/Include\core_cmSimd.h ****   return(result);
 165:C:\Users\Depes Crystalline\Desktop\school\Active_Bike_Lighting_System\Radar_Core/Libraries/CMSIS/Include\core_cmSimd.h **** }
 166:C:\Users\Depes Crystalline\Desktop\school\Active_Bike_Lighting_System\Radar_Core/Libraries/CMSIS/Include\core_cmSimd.h **** 
 167:C:\Users\Depes Crystalline\Desktop\school\Active_Bike_Lighting_System\Radar_Core/Libraries/CMSIS/Include\core_cmSimd.h **** __attribute__( ( always_inline ) ) __STATIC_INLINE uint32_t __UQADD8(uint32_t op1, uint32_t op2)
 168:C:\Users\Depes Crystalline\Desktop\school\Active_Bike_Lighting_System\Radar_Core/Libraries/CMSIS/Include\core_cmSimd.h **** {
 169:C:\Users\Depes Crystalline\Desktop\school\Active_Bike_Lighting_System\Radar_Core/Libraries/CMSIS/Include\core_cmSimd.h ****   uint32_t result;
 170:C:\Users\Depes Crystalline\Desktop\school\Active_Bike_Lighting_System\Radar_Core/Libraries/CMSIS/Include\core_cmSimd.h **** 
 171:C:\Users\Depes Crystalline\Desktop\school\Active_Bike_Lighting_System\Radar_Core/Libraries/CMSIS/Include\core_cmSimd.h ****   __ASM volatile ("uqadd8 %0, %1, %2" : "=r" (result) : "r" (op1), "r" (op2) );
 172:C:\Users\Depes Crystalline\Desktop\school\Active_Bike_Lighting_System\Radar_Core/Libraries/CMSIS/Include\core_cmSimd.h ****   return(result);
 173:C:\Users\Depes Crystalline\Desktop\school\Active_Bike_Lighting_System\Radar_Core/Libraries/CMSIS/Include\core_cmSimd.h **** }
 174:C:\Users\Depes Crystalline\Desktop\school\Active_Bike_Lighting_System\Radar_Core/Libraries/CMSIS/Include\core_cmSimd.h **** 
 175:C:\Users\Depes Crystalline\Desktop\school\Active_Bike_Lighting_System\Radar_Core/Libraries/CMSIS/Include\core_cmSimd.h **** __attribute__( ( always_inline ) ) __STATIC_INLINE uint32_t __UHADD8(uint32_t op1, uint32_t op2)
 176:C:\Users\Depes Crystalline\Desktop\school\Active_Bike_Lighting_System\Radar_Core/Libraries/CMSIS/Include\core_cmSimd.h **** {
 177:C:\Users\Depes Crystalline\Desktop\school\Active_Bike_Lighting_System\Radar_Core/Libraries/CMSIS/Include\core_cmSimd.h ****   uint32_t result;
 178:C:\Users\Depes Crystalline\Desktop\school\Active_Bike_Lighting_System\Radar_Core/Libraries/CMSIS/Include\core_cmSimd.h **** 
 179:C:\Users\Depes Crystalline\Desktop\school\Active_Bike_Lighting_System\Radar_Core/Libraries/CMSIS/Include\core_cmSimd.h ****   __ASM volatile ("uhadd8 %0, %1, %2" : "=r" (result) : "r" (op1), "r" (op2) );
 180:C:\Users\Depes Crystalline\Desktop\school\Active_Bike_Lighting_System\Radar_Core/Libraries/CMSIS/Include\core_cmSimd.h ****   return(result);
 181:C:\Users\Depes Crystalline\Desktop\school\Active_Bike_Lighting_System\Radar_Core/Libraries/CMSIS/Include\core_cmSimd.h **** }
 182:C:\Users\Depes Crystalline\Desktop\school\Active_Bike_Lighting_System\Radar_Core/Libraries/CMSIS/Include\core_cmSimd.h **** 
 183:C:\Users\Depes Crystalline\Desktop\school\Active_Bike_Lighting_System\Radar_Core/Libraries/CMSIS/Include\core_cmSimd.h **** 
 184:C:\Users\Depes Crystalline\Desktop\school\Active_Bike_Lighting_System\Radar_Core/Libraries/CMSIS/Include\core_cmSimd.h **** __attribute__( ( always_inline ) ) __STATIC_INLINE uint32_t __SSUB8(uint32_t op1, uint32_t op2)
 185:C:\Users\Depes Crystalline\Desktop\school\Active_Bike_Lighting_System\Radar_Core/Libraries/CMSIS/Include\core_cmSimd.h **** {
 186:C:\Users\Depes Crystalline\Desktop\school\Active_Bike_Lighting_System\Radar_Core/Libraries/CMSIS/Include\core_cmSimd.h ****   uint32_t result;
 187:C:\Users\Depes Crystalline\Desktop\school\Active_Bike_Lighting_System\Radar_Core/Libraries/CMSIS/Include\core_cmSimd.h **** 
 188:C:\Users\Depes Crystalline\Desktop\school\Active_Bike_Lighting_System\Radar_Core/Libraries/CMSIS/Include\core_cmSimd.h ****   __ASM volatile ("ssub8 %0, %1, %2" : "=r" (result) : "r" (op1), "r" (op2) );
 189:C:\Users\Depes Crystalline\Desktop\school\Active_Bike_Lighting_System\Radar_Core/Libraries/CMSIS/Include\core_cmSimd.h ****   return(result);
 190:C:\Users\Depes Crystalline\Desktop\school\Active_Bike_Lighting_System\Radar_Core/Libraries/CMSIS/Include\core_cmSimd.h **** }
 191:C:\Users\Depes Crystalline\Desktop\school\Active_Bike_Lighting_System\Radar_Core/Libraries/CMSIS/Include\core_cmSimd.h **** 
 192:C:\Users\Depes Crystalline\Desktop\school\Active_Bike_Lighting_System\Radar_Core/Libraries/CMSIS/Include\core_cmSimd.h **** __attribute__( ( always_inline ) ) __STATIC_INLINE uint32_t __QSUB8(uint32_t op1, uint32_t op2)
 193:C:\Users\Depes Crystalline\Desktop\school\Active_Bike_Lighting_System\Radar_Core/Libraries/CMSIS/Include\core_cmSimd.h **** {
 194:C:\Users\Depes Crystalline\Desktop\school\Active_Bike_Lighting_System\Radar_Core/Libraries/CMSIS/Include\core_cmSimd.h ****   uint32_t result;
 195:C:\Users\Depes Crystalline\Desktop\school\Active_Bike_Lighting_System\Radar_Core/Libraries/CMSIS/Include\core_cmSimd.h **** 
 196:C:\Users\Depes Crystalline\Desktop\school\Active_Bike_Lighting_System\Radar_Core/Libraries/CMSIS/Include\core_cmSimd.h ****   __ASM volatile ("qsub8 %0, %1, %2" : "=r" (result) : "r" (op1), "r" (op2) );
 197:C:\Users\Depes Crystalline\Desktop\school\Active_Bike_Lighting_System\Radar_Core/Libraries/CMSIS/Include\core_cmSimd.h ****   return(result);
 198:C:\Users\Depes Crystalline\Desktop\school\Active_Bike_Lighting_System\Radar_Core/Libraries/CMSIS/Include\core_cmSimd.h **** }
 199:C:\Users\Depes Crystalline\Desktop\school\Active_Bike_Lighting_System\Radar_Core/Libraries/CMSIS/Include\core_cmSimd.h **** 
 200:C:\Users\Depes Crystalline\Desktop\school\Active_Bike_Lighting_System\Radar_Core/Libraries/CMSIS/Include\core_cmSimd.h **** __attribute__( ( always_inline ) ) __STATIC_INLINE uint32_t __SHSUB8(uint32_t op1, uint32_t op2)
 201:C:\Users\Depes Crystalline\Desktop\school\Active_Bike_Lighting_System\Radar_Core/Libraries/CMSIS/Include\core_cmSimd.h **** {
 202:C:\Users\Depes Crystalline\Desktop\school\Active_Bike_Lighting_System\Radar_Core/Libraries/CMSIS/Include\core_cmSimd.h ****   uint32_t result;
 203:C:\Users\Depes Crystalline\Desktop\school\Active_Bike_Lighting_System\Radar_Core/Libraries/CMSIS/Include\core_cmSimd.h **** 
 204:C:\Users\Depes Crystalline\Desktop\school\Active_Bike_Lighting_System\Radar_Core/Libraries/CMSIS/Include\core_cmSimd.h ****   __ASM volatile ("shsub8 %0, %1, %2" : "=r" (result) : "r" (op1), "r" (op2) );
 205:C:\Users\Depes Crystalline\Desktop\school\Active_Bike_Lighting_System\Radar_Core/Libraries/CMSIS/Include\core_cmSimd.h ****   return(result);
 206:C:\Users\Depes Crystalline\Desktop\school\Active_Bike_Lighting_System\Radar_Core/Libraries/CMSIS/Include\core_cmSimd.h **** }
 207:C:\Users\Depes Crystalline\Desktop\school\Active_Bike_Lighting_System\Radar_Core/Libraries/CMSIS/Include\core_cmSimd.h **** 
 208:C:\Users\Depes Crystalline\Desktop\school\Active_Bike_Lighting_System\Radar_Core/Libraries/CMSIS/Include\core_cmSimd.h **** __attribute__( ( always_inline ) ) __STATIC_INLINE uint32_t __USUB8(uint32_t op1, uint32_t op2)
 209:C:\Users\Depes Crystalline\Desktop\school\Active_Bike_Lighting_System\Radar_Core/Libraries/CMSIS/Include\core_cmSimd.h **** {
 210:C:\Users\Depes Crystalline\Desktop\school\Active_Bike_Lighting_System\Radar_Core/Libraries/CMSIS/Include\core_cmSimd.h ****   uint32_t result;
 211:C:\Users\Depes Crystalline\Desktop\school\Active_Bike_Lighting_System\Radar_Core/Libraries/CMSIS/Include\core_cmSimd.h **** 
 212:C:\Users\Depes Crystalline\Desktop\school\Active_Bike_Lighting_System\Radar_Core/Libraries/CMSIS/Include\core_cmSimd.h ****   __ASM volatile ("usub8 %0, %1, %2" : "=r" (result) : "r" (op1), "r" (op2) );
 213:C:\Users\Depes Crystalline\Desktop\school\Active_Bike_Lighting_System\Radar_Core/Libraries/CMSIS/Include\core_cmSimd.h ****   return(result);
 214:C:\Users\Depes Crystalline\Desktop\school\Active_Bike_Lighting_System\Radar_Core/Libraries/CMSIS/Include\core_cmSimd.h **** }
 215:C:\Users\Depes Crystalline\Desktop\school\Active_Bike_Lighting_System\Radar_Core/Libraries/CMSIS/Include\core_cmSimd.h **** 
 216:C:\Users\Depes Crystalline\Desktop\school\Active_Bike_Lighting_System\Radar_Core/Libraries/CMSIS/Include\core_cmSimd.h **** __attribute__( ( always_inline ) ) __STATIC_INLINE uint32_t __UQSUB8(uint32_t op1, uint32_t op2)
 217:C:\Users\Depes Crystalline\Desktop\school\Active_Bike_Lighting_System\Radar_Core/Libraries/CMSIS/Include\core_cmSimd.h **** {
 218:C:\Users\Depes Crystalline\Desktop\school\Active_Bike_Lighting_System\Radar_Core/Libraries/CMSIS/Include\core_cmSimd.h ****   uint32_t result;
 219:C:\Users\Depes Crystalline\Desktop\school\Active_Bike_Lighting_System\Radar_Core/Libraries/CMSIS/Include\core_cmSimd.h **** 
 220:C:\Users\Depes Crystalline\Desktop\school\Active_Bike_Lighting_System\Radar_Core/Libraries/CMSIS/Include\core_cmSimd.h ****   __ASM volatile ("uqsub8 %0, %1, %2" : "=r" (result) : "r" (op1), "r" (op2) );
 221:C:\Users\Depes Crystalline\Desktop\school\Active_Bike_Lighting_System\Radar_Core/Libraries/CMSIS/Include\core_cmSimd.h ****   return(result);
 222:C:\Users\Depes Crystalline\Desktop\school\Active_Bike_Lighting_System\Radar_Core/Libraries/CMSIS/Include\core_cmSimd.h **** }
 223:C:\Users\Depes Crystalline\Desktop\school\Active_Bike_Lighting_System\Radar_Core/Libraries/CMSIS/Include\core_cmSimd.h **** 
 224:C:\Users\Depes Crystalline\Desktop\school\Active_Bike_Lighting_System\Radar_Core/Libraries/CMSIS/Include\core_cmSimd.h **** __attribute__( ( always_inline ) ) __STATIC_INLINE uint32_t __UHSUB8(uint32_t op1, uint32_t op2)
 225:C:\Users\Depes Crystalline\Desktop\school\Active_Bike_Lighting_System\Radar_Core/Libraries/CMSIS/Include\core_cmSimd.h **** {
 226:C:\Users\Depes Crystalline\Desktop\school\Active_Bike_Lighting_System\Radar_Core/Libraries/CMSIS/Include\core_cmSimd.h ****   uint32_t result;
 227:C:\Users\Depes Crystalline\Desktop\school\Active_Bike_Lighting_System\Radar_Core/Libraries/CMSIS/Include\core_cmSimd.h **** 
 228:C:\Users\Depes Crystalline\Desktop\school\Active_Bike_Lighting_System\Radar_Core/Libraries/CMSIS/Include\core_cmSimd.h ****   __ASM volatile ("uhsub8 %0, %1, %2" : "=r" (result) : "r" (op1), "r" (op2) );
 229:C:\Users\Depes Crystalline\Desktop\school\Active_Bike_Lighting_System\Radar_Core/Libraries/CMSIS/Include\core_cmSimd.h ****   return(result);
 230:C:\Users\Depes Crystalline\Desktop\school\Active_Bike_Lighting_System\Radar_Core/Libraries/CMSIS/Include\core_cmSimd.h **** }
 231:C:\Users\Depes Crystalline\Desktop\school\Active_Bike_Lighting_System\Radar_Core/Libraries/CMSIS/Include\core_cmSimd.h **** 
 232:C:\Users\Depes Crystalline\Desktop\school\Active_Bike_Lighting_System\Radar_Core/Libraries/CMSIS/Include\core_cmSimd.h **** 
 233:C:\Users\Depes Crystalline\Desktop\school\Active_Bike_Lighting_System\Radar_Core/Libraries/CMSIS/Include\core_cmSimd.h **** __attribute__( ( always_inline ) ) __STATIC_INLINE uint32_t __SADD16(uint32_t op1, uint32_t op2)
 234:C:\Users\Depes Crystalline\Desktop\school\Active_Bike_Lighting_System\Radar_Core/Libraries/CMSIS/Include\core_cmSimd.h **** {
 235:C:\Users\Depes Crystalline\Desktop\school\Active_Bike_Lighting_System\Radar_Core/Libraries/CMSIS/Include\core_cmSimd.h ****   uint32_t result;
 236:C:\Users\Depes Crystalline\Desktop\school\Active_Bike_Lighting_System\Radar_Core/Libraries/CMSIS/Include\core_cmSimd.h **** 
 237:C:\Users\Depes Crystalline\Desktop\school\Active_Bike_Lighting_System\Radar_Core/Libraries/CMSIS/Include\core_cmSimd.h ****   __ASM volatile ("sadd16 %0, %1, %2" : "=r" (result) : "r" (op1), "r" (op2) );
 238:C:\Users\Depes Crystalline\Desktop\school\Active_Bike_Lighting_System\Radar_Core/Libraries/CMSIS/Include\core_cmSimd.h ****   return(result);
 239:C:\Users\Depes Crystalline\Desktop\school\Active_Bike_Lighting_System\Radar_Core/Libraries/CMSIS/Include\core_cmSimd.h **** }
 240:C:\Users\Depes Crystalline\Desktop\school\Active_Bike_Lighting_System\Radar_Core/Libraries/CMSIS/Include\core_cmSimd.h **** 
 241:C:\Users\Depes Crystalline\Desktop\school\Active_Bike_Lighting_System\Radar_Core/Libraries/CMSIS/Include\core_cmSimd.h **** __attribute__( ( always_inline ) ) __STATIC_INLINE uint32_t __QADD16(uint32_t op1, uint32_t op2)
 242:C:\Users\Depes Crystalline\Desktop\school\Active_Bike_Lighting_System\Radar_Core/Libraries/CMSIS/Include\core_cmSimd.h **** {
 243:C:\Users\Depes Crystalline\Desktop\school\Active_Bike_Lighting_System\Radar_Core/Libraries/CMSIS/Include\core_cmSimd.h ****   uint32_t result;
 244:C:\Users\Depes Crystalline\Desktop\school\Active_Bike_Lighting_System\Radar_Core/Libraries/CMSIS/Include\core_cmSimd.h **** 
 245:C:\Users\Depes Crystalline\Desktop\school\Active_Bike_Lighting_System\Radar_Core/Libraries/CMSIS/Include\core_cmSimd.h ****   __ASM volatile ("qadd16 %0, %1, %2" : "=r" (result) : "r" (op1), "r" (op2) );
 246:C:\Users\Depes Crystalline\Desktop\school\Active_Bike_Lighting_System\Radar_Core/Libraries/CMSIS/Include\core_cmSimd.h ****   return(result);
 247:C:\Users\Depes Crystalline\Desktop\school\Active_Bike_Lighting_System\Radar_Core/Libraries/CMSIS/Include\core_cmSimd.h **** }
 248:C:\Users\Depes Crystalline\Desktop\school\Active_Bike_Lighting_System\Radar_Core/Libraries/CMSIS/Include\core_cmSimd.h **** 
 249:C:\Users\Depes Crystalline\Desktop\school\Active_Bike_Lighting_System\Radar_Core/Libraries/CMSIS/Include\core_cmSimd.h **** __attribute__( ( always_inline ) ) __STATIC_INLINE uint32_t __SHADD16(uint32_t op1, uint32_t op2)
 250:C:\Users\Depes Crystalline\Desktop\school\Active_Bike_Lighting_System\Radar_Core/Libraries/CMSIS/Include\core_cmSimd.h **** {
 251:C:\Users\Depes Crystalline\Desktop\school\Active_Bike_Lighting_System\Radar_Core/Libraries/CMSIS/Include\core_cmSimd.h ****   uint32_t result;
 252:C:\Users\Depes Crystalline\Desktop\school\Active_Bike_Lighting_System\Radar_Core/Libraries/CMSIS/Include\core_cmSimd.h **** 
 253:C:\Users\Depes Crystalline\Desktop\school\Active_Bike_Lighting_System\Radar_Core/Libraries/CMSIS/Include\core_cmSimd.h ****   __ASM volatile ("shadd16 %0, %1, %2" : "=r" (result) : "r" (op1), "r" (op2) );
 254:C:\Users\Depes Crystalline\Desktop\school\Active_Bike_Lighting_System\Radar_Core/Libraries/CMSIS/Include\core_cmSimd.h ****   return(result);
 255:C:\Users\Depes Crystalline\Desktop\school\Active_Bike_Lighting_System\Radar_Core/Libraries/CMSIS/Include\core_cmSimd.h **** }
 256:C:\Users\Depes Crystalline\Desktop\school\Active_Bike_Lighting_System\Radar_Core/Libraries/CMSIS/Include\core_cmSimd.h **** 
 257:C:\Users\Depes Crystalline\Desktop\school\Active_Bike_Lighting_System\Radar_Core/Libraries/CMSIS/Include\core_cmSimd.h **** __attribute__( ( always_inline ) ) __STATIC_INLINE uint32_t __UADD16(uint32_t op1, uint32_t op2)
 258:C:\Users\Depes Crystalline\Desktop\school\Active_Bike_Lighting_System\Radar_Core/Libraries/CMSIS/Include\core_cmSimd.h **** {
 259:C:\Users\Depes Crystalline\Desktop\school\Active_Bike_Lighting_System\Radar_Core/Libraries/CMSIS/Include\core_cmSimd.h ****   uint32_t result;
 260:C:\Users\Depes Crystalline\Desktop\school\Active_Bike_Lighting_System\Radar_Core/Libraries/CMSIS/Include\core_cmSimd.h **** 
 261:C:\Users\Depes Crystalline\Desktop\school\Active_Bike_Lighting_System\Radar_Core/Libraries/CMSIS/Include\core_cmSimd.h ****   __ASM volatile ("uadd16 %0, %1, %2" : "=r" (result) : "r" (op1), "r" (op2) );
 262:C:\Users\Depes Crystalline\Desktop\school\Active_Bike_Lighting_System\Radar_Core/Libraries/CMSIS/Include\core_cmSimd.h ****   return(result);
 263:C:\Users\Depes Crystalline\Desktop\school\Active_Bike_Lighting_System\Radar_Core/Libraries/CMSIS/Include\core_cmSimd.h **** }
 264:C:\Users\Depes Crystalline\Desktop\school\Active_Bike_Lighting_System\Radar_Core/Libraries/CMSIS/Include\core_cmSimd.h **** 
 265:C:\Users\Depes Crystalline\Desktop\school\Active_Bike_Lighting_System\Radar_Core/Libraries/CMSIS/Include\core_cmSimd.h **** __attribute__( ( always_inline ) ) __STATIC_INLINE uint32_t __UQADD16(uint32_t op1, uint32_t op2)
 266:C:\Users\Depes Crystalline\Desktop\school\Active_Bike_Lighting_System\Radar_Core/Libraries/CMSIS/Include\core_cmSimd.h **** {
 267:C:\Users\Depes Crystalline\Desktop\school\Active_Bike_Lighting_System\Radar_Core/Libraries/CMSIS/Include\core_cmSimd.h ****   uint32_t result;
 268:C:\Users\Depes Crystalline\Desktop\school\Active_Bike_Lighting_System\Radar_Core/Libraries/CMSIS/Include\core_cmSimd.h **** 
 269:C:\Users\Depes Crystalline\Desktop\school\Active_Bike_Lighting_System\Radar_Core/Libraries/CMSIS/Include\core_cmSimd.h ****   __ASM volatile ("uqadd16 %0, %1, %2" : "=r" (result) : "r" (op1), "r" (op2) );
 270:C:\Users\Depes Crystalline\Desktop\school\Active_Bike_Lighting_System\Radar_Core/Libraries/CMSIS/Include\core_cmSimd.h ****   return(result);
 271:C:\Users\Depes Crystalline\Desktop\school\Active_Bike_Lighting_System\Radar_Core/Libraries/CMSIS/Include\core_cmSimd.h **** }
 272:C:\Users\Depes Crystalline\Desktop\school\Active_Bike_Lighting_System\Radar_Core/Libraries/CMSIS/Include\core_cmSimd.h **** 
 273:C:\Users\Depes Crystalline\Desktop\school\Active_Bike_Lighting_System\Radar_Core/Libraries/CMSIS/Include\core_cmSimd.h **** __attribute__( ( always_inline ) ) __STATIC_INLINE uint32_t __UHADD16(uint32_t op1, uint32_t op2)
 274:C:\Users\Depes Crystalline\Desktop\school\Active_Bike_Lighting_System\Radar_Core/Libraries/CMSIS/Include\core_cmSimd.h **** {
 275:C:\Users\Depes Crystalline\Desktop\school\Active_Bike_Lighting_System\Radar_Core/Libraries/CMSIS/Include\core_cmSimd.h ****   uint32_t result;
 276:C:\Users\Depes Crystalline\Desktop\school\Active_Bike_Lighting_System\Radar_Core/Libraries/CMSIS/Include\core_cmSimd.h **** 
 277:C:\Users\Depes Crystalline\Desktop\school\Active_Bike_Lighting_System\Radar_Core/Libraries/CMSIS/Include\core_cmSimd.h ****   __ASM volatile ("uhadd16 %0, %1, %2" : "=r" (result) : "r" (op1), "r" (op2) );
 278:C:\Users\Depes Crystalline\Desktop\school\Active_Bike_Lighting_System\Radar_Core/Libraries/CMSIS/Include\core_cmSimd.h ****   return(result);
 279:C:\Users\Depes Crystalline\Desktop\school\Active_Bike_Lighting_System\Radar_Core/Libraries/CMSIS/Include\core_cmSimd.h **** }
 280:C:\Users\Depes Crystalline\Desktop\school\Active_Bike_Lighting_System\Radar_Core/Libraries/CMSIS/Include\core_cmSimd.h **** 
 281:C:\Users\Depes Crystalline\Desktop\school\Active_Bike_Lighting_System\Radar_Core/Libraries/CMSIS/Include\core_cmSimd.h **** __attribute__( ( always_inline ) ) __STATIC_INLINE uint32_t __SSUB16(uint32_t op1, uint32_t op2)
 282:C:\Users\Depes Crystalline\Desktop\school\Active_Bike_Lighting_System\Radar_Core/Libraries/CMSIS/Include\core_cmSimd.h **** {
 283:C:\Users\Depes Crystalline\Desktop\school\Active_Bike_Lighting_System\Radar_Core/Libraries/CMSIS/Include\core_cmSimd.h ****   uint32_t result;
 284:C:\Users\Depes Crystalline\Desktop\school\Active_Bike_Lighting_System\Radar_Core/Libraries/CMSIS/Include\core_cmSimd.h **** 
 285:C:\Users\Depes Crystalline\Desktop\school\Active_Bike_Lighting_System\Radar_Core/Libraries/CMSIS/Include\core_cmSimd.h ****   __ASM volatile ("ssub16 %0, %1, %2" : "=r" (result) : "r" (op1), "r" (op2) );
 286:C:\Users\Depes Crystalline\Desktop\school\Active_Bike_Lighting_System\Radar_Core/Libraries/CMSIS/Include\core_cmSimd.h ****   return(result);
 287:C:\Users\Depes Crystalline\Desktop\school\Active_Bike_Lighting_System\Radar_Core/Libraries/CMSIS/Include\core_cmSimd.h **** }
 288:C:\Users\Depes Crystalline\Desktop\school\Active_Bike_Lighting_System\Radar_Core/Libraries/CMSIS/Include\core_cmSimd.h **** 
 289:C:\Users\Depes Crystalline\Desktop\school\Active_Bike_Lighting_System\Radar_Core/Libraries/CMSIS/Include\core_cmSimd.h **** __attribute__( ( always_inline ) ) __STATIC_INLINE uint32_t __QSUB16(uint32_t op1, uint32_t op2)
 290:C:\Users\Depes Crystalline\Desktop\school\Active_Bike_Lighting_System\Radar_Core/Libraries/CMSIS/Include\core_cmSimd.h **** {
 291:C:\Users\Depes Crystalline\Desktop\school\Active_Bike_Lighting_System\Radar_Core/Libraries/CMSIS/Include\core_cmSimd.h ****   uint32_t result;
 292:C:\Users\Depes Crystalline\Desktop\school\Active_Bike_Lighting_System\Radar_Core/Libraries/CMSIS/Include\core_cmSimd.h **** 
 293:C:\Users\Depes Crystalline\Desktop\school\Active_Bike_Lighting_System\Radar_Core/Libraries/CMSIS/Include\core_cmSimd.h ****   __ASM volatile ("qsub16 %0, %1, %2" : "=r" (result) : "r" (op1), "r" (op2) );
 294:C:\Users\Depes Crystalline\Desktop\school\Active_Bike_Lighting_System\Radar_Core/Libraries/CMSIS/Include\core_cmSimd.h ****   return(result);
 295:C:\Users\Depes Crystalline\Desktop\school\Active_Bike_Lighting_System\Radar_Core/Libraries/CMSIS/Include\core_cmSimd.h **** }
 296:C:\Users\Depes Crystalline\Desktop\school\Active_Bike_Lighting_System\Radar_Core/Libraries/CMSIS/Include\core_cmSimd.h **** 
 297:C:\Users\Depes Crystalline\Desktop\school\Active_Bike_Lighting_System\Radar_Core/Libraries/CMSIS/Include\core_cmSimd.h **** __attribute__( ( always_inline ) ) __STATIC_INLINE uint32_t __SHSUB16(uint32_t op1, uint32_t op2)
 298:C:\Users\Depes Crystalline\Desktop\school\Active_Bike_Lighting_System\Radar_Core/Libraries/CMSIS/Include\core_cmSimd.h **** {
 299:C:\Users\Depes Crystalline\Desktop\school\Active_Bike_Lighting_System\Radar_Core/Libraries/CMSIS/Include\core_cmSimd.h ****   uint32_t result;
 300:C:\Users\Depes Crystalline\Desktop\school\Active_Bike_Lighting_System\Radar_Core/Libraries/CMSIS/Include\core_cmSimd.h **** 
 301:C:\Users\Depes Crystalline\Desktop\school\Active_Bike_Lighting_System\Radar_Core/Libraries/CMSIS/Include\core_cmSimd.h ****   __ASM volatile ("shsub16 %0, %1, %2" : "=r" (result) : "r" (op1), "r" (op2) );
 302:C:\Users\Depes Crystalline\Desktop\school\Active_Bike_Lighting_System\Radar_Core/Libraries/CMSIS/Include\core_cmSimd.h ****   return(result);
 303:C:\Users\Depes Crystalline\Desktop\school\Active_Bike_Lighting_System\Radar_Core/Libraries/CMSIS/Include\core_cmSimd.h **** }
 304:C:\Users\Depes Crystalline\Desktop\school\Active_Bike_Lighting_System\Radar_Core/Libraries/CMSIS/Include\core_cmSimd.h **** 
 305:C:\Users\Depes Crystalline\Desktop\school\Active_Bike_Lighting_System\Radar_Core/Libraries/CMSIS/Include\core_cmSimd.h **** __attribute__( ( always_inline ) ) __STATIC_INLINE uint32_t __USUB16(uint32_t op1, uint32_t op2)
 306:C:\Users\Depes Crystalline\Desktop\school\Active_Bike_Lighting_System\Radar_Core/Libraries/CMSIS/Include\core_cmSimd.h **** {
 307:C:\Users\Depes Crystalline\Desktop\school\Active_Bike_Lighting_System\Radar_Core/Libraries/CMSIS/Include\core_cmSimd.h ****   uint32_t result;
 308:C:\Users\Depes Crystalline\Desktop\school\Active_Bike_Lighting_System\Radar_Core/Libraries/CMSIS/Include\core_cmSimd.h **** 
 309:C:\Users\Depes Crystalline\Desktop\school\Active_Bike_Lighting_System\Radar_Core/Libraries/CMSIS/Include\core_cmSimd.h ****   __ASM volatile ("usub16 %0, %1, %2" : "=r" (result) : "r" (op1), "r" (op2) );
 310:C:\Users\Depes Crystalline\Desktop\school\Active_Bike_Lighting_System\Radar_Core/Libraries/CMSIS/Include\core_cmSimd.h ****   return(result);
 311:C:\Users\Depes Crystalline\Desktop\school\Active_Bike_Lighting_System\Radar_Core/Libraries/CMSIS/Include\core_cmSimd.h **** }
 312:C:\Users\Depes Crystalline\Desktop\school\Active_Bike_Lighting_System\Radar_Core/Libraries/CMSIS/Include\core_cmSimd.h **** 
 313:C:\Users\Depes Crystalline\Desktop\school\Active_Bike_Lighting_System\Radar_Core/Libraries/CMSIS/Include\core_cmSimd.h **** __attribute__( ( always_inline ) ) __STATIC_INLINE uint32_t __UQSUB16(uint32_t op1, uint32_t op2)
 314:C:\Users\Depes Crystalline\Desktop\school\Active_Bike_Lighting_System\Radar_Core/Libraries/CMSIS/Include\core_cmSimd.h **** {
 315:C:\Users\Depes Crystalline\Desktop\school\Active_Bike_Lighting_System\Radar_Core/Libraries/CMSIS/Include\core_cmSimd.h ****   uint32_t result;
 316:C:\Users\Depes Crystalline\Desktop\school\Active_Bike_Lighting_System\Radar_Core/Libraries/CMSIS/Include\core_cmSimd.h **** 
 317:C:\Users\Depes Crystalline\Desktop\school\Active_Bike_Lighting_System\Radar_Core/Libraries/CMSIS/Include\core_cmSimd.h ****   __ASM volatile ("uqsub16 %0, %1, %2" : "=r" (result) : "r" (op1), "r" (op2) );
 318:C:\Users\Depes Crystalline\Desktop\school\Active_Bike_Lighting_System\Radar_Core/Libraries/CMSIS/Include\core_cmSimd.h ****   return(result);
 319:C:\Users\Depes Crystalline\Desktop\school\Active_Bike_Lighting_System\Radar_Core/Libraries/CMSIS/Include\core_cmSimd.h **** }
 320:C:\Users\Depes Crystalline\Desktop\school\Active_Bike_Lighting_System\Radar_Core/Libraries/CMSIS/Include\core_cmSimd.h **** 
 321:C:\Users\Depes Crystalline\Desktop\school\Active_Bike_Lighting_System\Radar_Core/Libraries/CMSIS/Include\core_cmSimd.h **** __attribute__( ( always_inline ) ) __STATIC_INLINE uint32_t __UHSUB16(uint32_t op1, uint32_t op2)
 322:C:\Users\Depes Crystalline\Desktop\school\Active_Bike_Lighting_System\Radar_Core/Libraries/CMSIS/Include\core_cmSimd.h **** {
 323:C:\Users\Depes Crystalline\Desktop\school\Active_Bike_Lighting_System\Radar_Core/Libraries/CMSIS/Include\core_cmSimd.h ****   uint32_t result;
 324:C:\Users\Depes Crystalline\Desktop\school\Active_Bike_Lighting_System\Radar_Core/Libraries/CMSIS/Include\core_cmSimd.h **** 
 325:C:\Users\Depes Crystalline\Desktop\school\Active_Bike_Lighting_System\Radar_Core/Libraries/CMSIS/Include\core_cmSimd.h ****   __ASM volatile ("uhsub16 %0, %1, %2" : "=r" (result) : "r" (op1), "r" (op2) );
 326:C:\Users\Depes Crystalline\Desktop\school\Active_Bike_Lighting_System\Radar_Core/Libraries/CMSIS/Include\core_cmSimd.h ****   return(result);
 327:C:\Users\Depes Crystalline\Desktop\school\Active_Bike_Lighting_System\Radar_Core/Libraries/CMSIS/Include\core_cmSimd.h **** }
 328:C:\Users\Depes Crystalline\Desktop\school\Active_Bike_Lighting_System\Radar_Core/Libraries/CMSIS/Include\core_cmSimd.h **** 
 329:C:\Users\Depes Crystalline\Desktop\school\Active_Bike_Lighting_System\Radar_Core/Libraries/CMSIS/Include\core_cmSimd.h **** __attribute__( ( always_inline ) ) __STATIC_INLINE uint32_t __SASX(uint32_t op1, uint32_t op2)
 330:C:\Users\Depes Crystalline\Desktop\school\Active_Bike_Lighting_System\Radar_Core/Libraries/CMSIS/Include\core_cmSimd.h **** {
 331:C:\Users\Depes Crystalline\Desktop\school\Active_Bike_Lighting_System\Radar_Core/Libraries/CMSIS/Include\core_cmSimd.h ****   uint32_t result;
 332:C:\Users\Depes Crystalline\Desktop\school\Active_Bike_Lighting_System\Radar_Core/Libraries/CMSIS/Include\core_cmSimd.h **** 
 333:C:\Users\Depes Crystalline\Desktop\school\Active_Bike_Lighting_System\Radar_Core/Libraries/CMSIS/Include\core_cmSimd.h ****   __ASM volatile ("sasx %0, %1, %2" : "=r" (result) : "r" (op1), "r" (op2) );
 334:C:\Users\Depes Crystalline\Desktop\school\Active_Bike_Lighting_System\Radar_Core/Libraries/CMSIS/Include\core_cmSimd.h ****   return(result);
 335:C:\Users\Depes Crystalline\Desktop\school\Active_Bike_Lighting_System\Radar_Core/Libraries/CMSIS/Include\core_cmSimd.h **** }
 336:C:\Users\Depes Crystalline\Desktop\school\Active_Bike_Lighting_System\Radar_Core/Libraries/CMSIS/Include\core_cmSimd.h **** 
 337:C:\Users\Depes Crystalline\Desktop\school\Active_Bike_Lighting_System\Radar_Core/Libraries/CMSIS/Include\core_cmSimd.h **** __attribute__( ( always_inline ) ) __STATIC_INLINE uint32_t __QASX(uint32_t op1, uint32_t op2)
 338:C:\Users\Depes Crystalline\Desktop\school\Active_Bike_Lighting_System\Radar_Core/Libraries/CMSIS/Include\core_cmSimd.h **** {
 339:C:\Users\Depes Crystalline\Desktop\school\Active_Bike_Lighting_System\Radar_Core/Libraries/CMSIS/Include\core_cmSimd.h ****   uint32_t result;
 340:C:\Users\Depes Crystalline\Desktop\school\Active_Bike_Lighting_System\Radar_Core/Libraries/CMSIS/Include\core_cmSimd.h **** 
 341:C:\Users\Depes Crystalline\Desktop\school\Active_Bike_Lighting_System\Radar_Core/Libraries/CMSIS/Include\core_cmSimd.h ****   __ASM volatile ("qasx %0, %1, %2" : "=r" (result) : "r" (op1), "r" (op2) );
 342:C:\Users\Depes Crystalline\Desktop\school\Active_Bike_Lighting_System\Radar_Core/Libraries/CMSIS/Include\core_cmSimd.h ****   return(result);
 343:C:\Users\Depes Crystalline\Desktop\school\Active_Bike_Lighting_System\Radar_Core/Libraries/CMSIS/Include\core_cmSimd.h **** }
 344:C:\Users\Depes Crystalline\Desktop\school\Active_Bike_Lighting_System\Radar_Core/Libraries/CMSIS/Include\core_cmSimd.h **** 
 345:C:\Users\Depes Crystalline\Desktop\school\Active_Bike_Lighting_System\Radar_Core/Libraries/CMSIS/Include\core_cmSimd.h **** __attribute__( ( always_inline ) ) __STATIC_INLINE uint32_t __SHASX(uint32_t op1, uint32_t op2)
 346:C:\Users\Depes Crystalline\Desktop\school\Active_Bike_Lighting_System\Radar_Core/Libraries/CMSIS/Include\core_cmSimd.h **** {
 347:C:\Users\Depes Crystalline\Desktop\school\Active_Bike_Lighting_System\Radar_Core/Libraries/CMSIS/Include\core_cmSimd.h ****   uint32_t result;
 348:C:\Users\Depes Crystalline\Desktop\school\Active_Bike_Lighting_System\Radar_Core/Libraries/CMSIS/Include\core_cmSimd.h **** 
 349:C:\Users\Depes Crystalline\Desktop\school\Active_Bike_Lighting_System\Radar_Core/Libraries/CMSIS/Include\core_cmSimd.h ****   __ASM volatile ("shasx %0, %1, %2" : "=r" (result) : "r" (op1), "r" (op2) );
 350:C:\Users\Depes Crystalline\Desktop\school\Active_Bike_Lighting_System\Radar_Core/Libraries/CMSIS/Include\core_cmSimd.h ****   return(result);
 351:C:\Users\Depes Crystalline\Desktop\school\Active_Bike_Lighting_System\Radar_Core/Libraries/CMSIS/Include\core_cmSimd.h **** }
 352:C:\Users\Depes Crystalline\Desktop\school\Active_Bike_Lighting_System\Radar_Core/Libraries/CMSIS/Include\core_cmSimd.h **** 
 353:C:\Users\Depes Crystalline\Desktop\school\Active_Bike_Lighting_System\Radar_Core/Libraries/CMSIS/Include\core_cmSimd.h **** __attribute__( ( always_inline ) ) __STATIC_INLINE uint32_t __UASX(uint32_t op1, uint32_t op2)
 354:C:\Users\Depes Crystalline\Desktop\school\Active_Bike_Lighting_System\Radar_Core/Libraries/CMSIS/Include\core_cmSimd.h **** {
 355:C:\Users\Depes Crystalline\Desktop\school\Active_Bike_Lighting_System\Radar_Core/Libraries/CMSIS/Include\core_cmSimd.h ****   uint32_t result;
 356:C:\Users\Depes Crystalline\Desktop\school\Active_Bike_Lighting_System\Radar_Core/Libraries/CMSIS/Include\core_cmSimd.h **** 
 357:C:\Users\Depes Crystalline\Desktop\school\Active_Bike_Lighting_System\Radar_Core/Libraries/CMSIS/Include\core_cmSimd.h ****   __ASM volatile ("uasx %0, %1, %2" : "=r" (result) : "r" (op1), "r" (op2) );
 358:C:\Users\Depes Crystalline\Desktop\school\Active_Bike_Lighting_System\Radar_Core/Libraries/CMSIS/Include\core_cmSimd.h ****   return(result);
 359:C:\Users\Depes Crystalline\Desktop\school\Active_Bike_Lighting_System\Radar_Core/Libraries/CMSIS/Include\core_cmSimd.h **** }
 360:C:\Users\Depes Crystalline\Desktop\school\Active_Bike_Lighting_System\Radar_Core/Libraries/CMSIS/Include\core_cmSimd.h **** 
 361:C:\Users\Depes Crystalline\Desktop\school\Active_Bike_Lighting_System\Radar_Core/Libraries/CMSIS/Include\core_cmSimd.h **** __attribute__( ( always_inline ) ) __STATIC_INLINE uint32_t __UQASX(uint32_t op1, uint32_t op2)
 362:C:\Users\Depes Crystalline\Desktop\school\Active_Bike_Lighting_System\Radar_Core/Libraries/CMSIS/Include\core_cmSimd.h **** {
 363:C:\Users\Depes Crystalline\Desktop\school\Active_Bike_Lighting_System\Radar_Core/Libraries/CMSIS/Include\core_cmSimd.h ****   uint32_t result;
 364:C:\Users\Depes Crystalline\Desktop\school\Active_Bike_Lighting_System\Radar_Core/Libraries/CMSIS/Include\core_cmSimd.h **** 
 365:C:\Users\Depes Crystalline\Desktop\school\Active_Bike_Lighting_System\Radar_Core/Libraries/CMSIS/Include\core_cmSimd.h ****   __ASM volatile ("uqasx %0, %1, %2" : "=r" (result) : "r" (op1), "r" (op2) );
 366:C:\Users\Depes Crystalline\Desktop\school\Active_Bike_Lighting_System\Radar_Core/Libraries/CMSIS/Include\core_cmSimd.h ****   return(result);
 367:C:\Users\Depes Crystalline\Desktop\school\Active_Bike_Lighting_System\Radar_Core/Libraries/CMSIS/Include\core_cmSimd.h **** }
 368:C:\Users\Depes Crystalline\Desktop\school\Active_Bike_Lighting_System\Radar_Core/Libraries/CMSIS/Include\core_cmSimd.h **** 
 369:C:\Users\Depes Crystalline\Desktop\school\Active_Bike_Lighting_System\Radar_Core/Libraries/CMSIS/Include\core_cmSimd.h **** __attribute__( ( always_inline ) ) __STATIC_INLINE uint32_t __UHASX(uint32_t op1, uint32_t op2)
 370:C:\Users\Depes Crystalline\Desktop\school\Active_Bike_Lighting_System\Radar_Core/Libraries/CMSIS/Include\core_cmSimd.h **** {
 371:C:\Users\Depes Crystalline\Desktop\school\Active_Bike_Lighting_System\Radar_Core/Libraries/CMSIS/Include\core_cmSimd.h ****   uint32_t result;
 372:C:\Users\Depes Crystalline\Desktop\school\Active_Bike_Lighting_System\Radar_Core/Libraries/CMSIS/Include\core_cmSimd.h **** 
 373:C:\Users\Depes Crystalline\Desktop\school\Active_Bike_Lighting_System\Radar_Core/Libraries/CMSIS/Include\core_cmSimd.h ****   __ASM volatile ("uhasx %0, %1, %2" : "=r" (result) : "r" (op1), "r" (op2) );
 374:C:\Users\Depes Crystalline\Desktop\school\Active_Bike_Lighting_System\Radar_Core/Libraries/CMSIS/Include\core_cmSimd.h ****   return(result);
 375:C:\Users\Depes Crystalline\Desktop\school\Active_Bike_Lighting_System\Radar_Core/Libraries/CMSIS/Include\core_cmSimd.h **** }
 376:C:\Users\Depes Crystalline\Desktop\school\Active_Bike_Lighting_System\Radar_Core/Libraries/CMSIS/Include\core_cmSimd.h **** 
 377:C:\Users\Depes Crystalline\Desktop\school\Active_Bike_Lighting_System\Radar_Core/Libraries/CMSIS/Include\core_cmSimd.h **** __attribute__( ( always_inline ) ) __STATIC_INLINE uint32_t __SSAX(uint32_t op1, uint32_t op2)
 378:C:\Users\Depes Crystalline\Desktop\school\Active_Bike_Lighting_System\Radar_Core/Libraries/CMSIS/Include\core_cmSimd.h **** {
 379:C:\Users\Depes Crystalline\Desktop\school\Active_Bike_Lighting_System\Radar_Core/Libraries/CMSIS/Include\core_cmSimd.h ****   uint32_t result;
 380:C:\Users\Depes Crystalline\Desktop\school\Active_Bike_Lighting_System\Radar_Core/Libraries/CMSIS/Include\core_cmSimd.h **** 
 381:C:\Users\Depes Crystalline\Desktop\school\Active_Bike_Lighting_System\Radar_Core/Libraries/CMSIS/Include\core_cmSimd.h ****   __ASM volatile ("ssax %0, %1, %2" : "=r" (result) : "r" (op1), "r" (op2) );
 382:C:\Users\Depes Crystalline\Desktop\school\Active_Bike_Lighting_System\Radar_Core/Libraries/CMSIS/Include\core_cmSimd.h ****   return(result);
 383:C:\Users\Depes Crystalline\Desktop\school\Active_Bike_Lighting_System\Radar_Core/Libraries/CMSIS/Include\core_cmSimd.h **** }
 384:C:\Users\Depes Crystalline\Desktop\school\Active_Bike_Lighting_System\Radar_Core/Libraries/CMSIS/Include\core_cmSimd.h **** 
 385:C:\Users\Depes Crystalline\Desktop\school\Active_Bike_Lighting_System\Radar_Core/Libraries/CMSIS/Include\core_cmSimd.h **** __attribute__( ( always_inline ) ) __STATIC_INLINE uint32_t __QSAX(uint32_t op1, uint32_t op2)
 386:C:\Users\Depes Crystalline\Desktop\school\Active_Bike_Lighting_System\Radar_Core/Libraries/CMSIS/Include\core_cmSimd.h **** {
 387:C:\Users\Depes Crystalline\Desktop\school\Active_Bike_Lighting_System\Radar_Core/Libraries/CMSIS/Include\core_cmSimd.h ****   uint32_t result;
 388:C:\Users\Depes Crystalline\Desktop\school\Active_Bike_Lighting_System\Radar_Core/Libraries/CMSIS/Include\core_cmSimd.h **** 
 389:C:\Users\Depes Crystalline\Desktop\school\Active_Bike_Lighting_System\Radar_Core/Libraries/CMSIS/Include\core_cmSimd.h ****   __ASM volatile ("qsax %0, %1, %2" : "=r" (result) : "r" (op1), "r" (op2) );
 390:C:\Users\Depes Crystalline\Desktop\school\Active_Bike_Lighting_System\Radar_Core/Libraries/CMSIS/Include\core_cmSimd.h ****   return(result);
 391:C:\Users\Depes Crystalline\Desktop\school\Active_Bike_Lighting_System\Radar_Core/Libraries/CMSIS/Include\core_cmSimd.h **** }
 392:C:\Users\Depes Crystalline\Desktop\school\Active_Bike_Lighting_System\Radar_Core/Libraries/CMSIS/Include\core_cmSimd.h **** 
 393:C:\Users\Depes Crystalline\Desktop\school\Active_Bike_Lighting_System\Radar_Core/Libraries/CMSIS/Include\core_cmSimd.h **** __attribute__( ( always_inline ) ) __STATIC_INLINE uint32_t __SHSAX(uint32_t op1, uint32_t op2)
 394:C:\Users\Depes Crystalline\Desktop\school\Active_Bike_Lighting_System\Radar_Core/Libraries/CMSIS/Include\core_cmSimd.h **** {
 395:C:\Users\Depes Crystalline\Desktop\school\Active_Bike_Lighting_System\Radar_Core/Libraries/CMSIS/Include\core_cmSimd.h ****   uint32_t result;
 396:C:\Users\Depes Crystalline\Desktop\school\Active_Bike_Lighting_System\Radar_Core/Libraries/CMSIS/Include\core_cmSimd.h **** 
 397:C:\Users\Depes Crystalline\Desktop\school\Active_Bike_Lighting_System\Radar_Core/Libraries/CMSIS/Include\core_cmSimd.h ****   __ASM volatile ("shsax %0, %1, %2" : "=r" (result) : "r" (op1), "r" (op2) );
 398:C:\Users\Depes Crystalline\Desktop\school\Active_Bike_Lighting_System\Radar_Core/Libraries/CMSIS/Include\core_cmSimd.h ****   return(result);
 399:C:\Users\Depes Crystalline\Desktop\school\Active_Bike_Lighting_System\Radar_Core/Libraries/CMSIS/Include\core_cmSimd.h **** }
 400:C:\Users\Depes Crystalline\Desktop\school\Active_Bike_Lighting_System\Radar_Core/Libraries/CMSIS/Include\core_cmSimd.h **** 
 401:C:\Users\Depes Crystalline\Desktop\school\Active_Bike_Lighting_System\Radar_Core/Libraries/CMSIS/Include\core_cmSimd.h **** __attribute__( ( always_inline ) ) __STATIC_INLINE uint32_t __USAX(uint32_t op1, uint32_t op2)
 402:C:\Users\Depes Crystalline\Desktop\school\Active_Bike_Lighting_System\Radar_Core/Libraries/CMSIS/Include\core_cmSimd.h **** {
 403:C:\Users\Depes Crystalline\Desktop\school\Active_Bike_Lighting_System\Radar_Core/Libraries/CMSIS/Include\core_cmSimd.h ****   uint32_t result;
 404:C:\Users\Depes Crystalline\Desktop\school\Active_Bike_Lighting_System\Radar_Core/Libraries/CMSIS/Include\core_cmSimd.h **** 
 405:C:\Users\Depes Crystalline\Desktop\school\Active_Bike_Lighting_System\Radar_Core/Libraries/CMSIS/Include\core_cmSimd.h ****   __ASM volatile ("usax %0, %1, %2" : "=r" (result) : "r" (op1), "r" (op2) );
 406:C:\Users\Depes Crystalline\Desktop\school\Active_Bike_Lighting_System\Radar_Core/Libraries/CMSIS/Include\core_cmSimd.h ****   return(result);
 407:C:\Users\Depes Crystalline\Desktop\school\Active_Bike_Lighting_System\Radar_Core/Libraries/CMSIS/Include\core_cmSimd.h **** }
 408:C:\Users\Depes Crystalline\Desktop\school\Active_Bike_Lighting_System\Radar_Core/Libraries/CMSIS/Include\core_cmSimd.h **** 
 409:C:\Users\Depes Crystalline\Desktop\school\Active_Bike_Lighting_System\Radar_Core/Libraries/CMSIS/Include\core_cmSimd.h **** __attribute__( ( always_inline ) ) __STATIC_INLINE uint32_t __UQSAX(uint32_t op1, uint32_t op2)
 410:C:\Users\Depes Crystalline\Desktop\school\Active_Bike_Lighting_System\Radar_Core/Libraries/CMSIS/Include\core_cmSimd.h **** {
 411:C:\Users\Depes Crystalline\Desktop\school\Active_Bike_Lighting_System\Radar_Core/Libraries/CMSIS/Include\core_cmSimd.h ****   uint32_t result;
 412:C:\Users\Depes Crystalline\Desktop\school\Active_Bike_Lighting_System\Radar_Core/Libraries/CMSIS/Include\core_cmSimd.h **** 
 413:C:\Users\Depes Crystalline\Desktop\school\Active_Bike_Lighting_System\Radar_Core/Libraries/CMSIS/Include\core_cmSimd.h ****   __ASM volatile ("uqsax %0, %1, %2" : "=r" (result) : "r" (op1), "r" (op2) );
 414:C:\Users\Depes Crystalline\Desktop\school\Active_Bike_Lighting_System\Radar_Core/Libraries/CMSIS/Include\core_cmSimd.h ****   return(result);
 415:C:\Users\Depes Crystalline\Desktop\school\Active_Bike_Lighting_System\Radar_Core/Libraries/CMSIS/Include\core_cmSimd.h **** }
 416:C:\Users\Depes Crystalline\Desktop\school\Active_Bike_Lighting_System\Radar_Core/Libraries/CMSIS/Include\core_cmSimd.h **** 
 417:C:\Users\Depes Crystalline\Desktop\school\Active_Bike_Lighting_System\Radar_Core/Libraries/CMSIS/Include\core_cmSimd.h **** __attribute__( ( always_inline ) ) __STATIC_INLINE uint32_t __UHSAX(uint32_t op1, uint32_t op2)
 418:C:\Users\Depes Crystalline\Desktop\school\Active_Bike_Lighting_System\Radar_Core/Libraries/CMSIS/Include\core_cmSimd.h **** {
 419:C:\Users\Depes Crystalline\Desktop\school\Active_Bike_Lighting_System\Radar_Core/Libraries/CMSIS/Include\core_cmSimd.h ****   uint32_t result;
 420:C:\Users\Depes Crystalline\Desktop\school\Active_Bike_Lighting_System\Radar_Core/Libraries/CMSIS/Include\core_cmSimd.h **** 
 421:C:\Users\Depes Crystalline\Desktop\school\Active_Bike_Lighting_System\Radar_Core/Libraries/CMSIS/Include\core_cmSimd.h ****   __ASM volatile ("uhsax %0, %1, %2" : "=r" (result) : "r" (op1), "r" (op2) );
 422:C:\Users\Depes Crystalline\Desktop\school\Active_Bike_Lighting_System\Radar_Core/Libraries/CMSIS/Include\core_cmSimd.h ****   return(result);
 423:C:\Users\Depes Crystalline\Desktop\school\Active_Bike_Lighting_System\Radar_Core/Libraries/CMSIS/Include\core_cmSimd.h **** }
 424:C:\Users\Depes Crystalline\Desktop\school\Active_Bike_Lighting_System\Radar_Core/Libraries/CMSIS/Include\core_cmSimd.h **** 
 425:C:\Users\Depes Crystalline\Desktop\school\Active_Bike_Lighting_System\Radar_Core/Libraries/CMSIS/Include\core_cmSimd.h **** __attribute__( ( always_inline ) ) __STATIC_INLINE uint32_t __USAD8(uint32_t op1, uint32_t op2)
 426:C:\Users\Depes Crystalline\Desktop\school\Active_Bike_Lighting_System\Radar_Core/Libraries/CMSIS/Include\core_cmSimd.h **** {
 427:C:\Users\Depes Crystalline\Desktop\school\Active_Bike_Lighting_System\Radar_Core/Libraries/CMSIS/Include\core_cmSimd.h ****   uint32_t result;
 428:C:\Users\Depes Crystalline\Desktop\school\Active_Bike_Lighting_System\Radar_Core/Libraries/CMSIS/Include\core_cmSimd.h **** 
 429:C:\Users\Depes Crystalline\Desktop\school\Active_Bike_Lighting_System\Radar_Core/Libraries/CMSIS/Include\core_cmSimd.h ****   __ASM volatile ("usad8 %0, %1, %2" : "=r" (result) : "r" (op1), "r" (op2) );
 430:C:\Users\Depes Crystalline\Desktop\school\Active_Bike_Lighting_System\Radar_Core/Libraries/CMSIS/Include\core_cmSimd.h ****   return(result);
 431:C:\Users\Depes Crystalline\Desktop\school\Active_Bike_Lighting_System\Radar_Core/Libraries/CMSIS/Include\core_cmSimd.h **** }
 432:C:\Users\Depes Crystalline\Desktop\school\Active_Bike_Lighting_System\Radar_Core/Libraries/CMSIS/Include\core_cmSimd.h **** 
 433:C:\Users\Depes Crystalline\Desktop\school\Active_Bike_Lighting_System\Radar_Core/Libraries/CMSIS/Include\core_cmSimd.h **** __attribute__( ( always_inline ) ) __STATIC_INLINE uint32_t __USADA8(uint32_t op1, uint32_t op2, ui
 434:C:\Users\Depes Crystalline\Desktop\school\Active_Bike_Lighting_System\Radar_Core/Libraries/CMSIS/Include\core_cmSimd.h **** {
 435:C:\Users\Depes Crystalline\Desktop\school\Active_Bike_Lighting_System\Radar_Core/Libraries/CMSIS/Include\core_cmSimd.h ****   uint32_t result;
 436:C:\Users\Depes Crystalline\Desktop\school\Active_Bike_Lighting_System\Radar_Core/Libraries/CMSIS/Include\core_cmSimd.h **** 
 437:C:\Users\Depes Crystalline\Desktop\school\Active_Bike_Lighting_System\Radar_Core/Libraries/CMSIS/Include\core_cmSimd.h ****   __ASM volatile ("usada8 %0, %1, %2, %3" : "=r" (result) : "r" (op1), "r" (op2), "r" (op3) );
 438:C:\Users\Depes Crystalline\Desktop\school\Active_Bike_Lighting_System\Radar_Core/Libraries/CMSIS/Include\core_cmSimd.h ****   return(result);
 439:C:\Users\Depes Crystalline\Desktop\school\Active_Bike_Lighting_System\Radar_Core/Libraries/CMSIS/Include\core_cmSimd.h **** }
 440:C:\Users\Depes Crystalline\Desktop\school\Active_Bike_Lighting_System\Radar_Core/Libraries/CMSIS/Include\core_cmSimd.h **** 
 441:C:\Users\Depes Crystalline\Desktop\school\Active_Bike_Lighting_System\Radar_Core/Libraries/CMSIS/Include\core_cmSimd.h **** #define __SSAT16(ARG1,ARG2) \
 442:C:\Users\Depes Crystalline\Desktop\school\Active_Bike_Lighting_System\Radar_Core/Libraries/CMSIS/Include\core_cmSimd.h **** ({                          \
 443:C:\Users\Depes Crystalline\Desktop\school\Active_Bike_Lighting_System\Radar_Core/Libraries/CMSIS/Include\core_cmSimd.h ****   uint32_t __RES, __ARG1 = (ARG1); \
 444:C:\Users\Depes Crystalline\Desktop\school\Active_Bike_Lighting_System\Radar_Core/Libraries/CMSIS/Include\core_cmSimd.h ****   __ASM ("ssat16 %0, %1, %2" : "=r" (__RES) :  "I" (ARG2), "r" (__ARG1) ); \
 445:C:\Users\Depes Crystalline\Desktop\school\Active_Bike_Lighting_System\Radar_Core/Libraries/CMSIS/Include\core_cmSimd.h ****   __RES; \
 446:C:\Users\Depes Crystalline\Desktop\school\Active_Bike_Lighting_System\Radar_Core/Libraries/CMSIS/Include\core_cmSimd.h ****  })
 447:C:\Users\Depes Crystalline\Desktop\school\Active_Bike_Lighting_System\Radar_Core/Libraries/CMSIS/Include\core_cmSimd.h **** 
 448:C:\Users\Depes Crystalline\Desktop\school\Active_Bike_Lighting_System\Radar_Core/Libraries/CMSIS/Include\core_cmSimd.h **** #define __USAT16(ARG1,ARG2) \
 449:C:\Users\Depes Crystalline\Desktop\school\Active_Bike_Lighting_System\Radar_Core/Libraries/CMSIS/Include\core_cmSimd.h **** ({                          \
 450:C:\Users\Depes Crystalline\Desktop\school\Active_Bike_Lighting_System\Radar_Core/Libraries/CMSIS/Include\core_cmSimd.h ****   uint32_t __RES, __ARG1 = (ARG1); \
 451:C:\Users\Depes Crystalline\Desktop\school\Active_Bike_Lighting_System\Radar_Core/Libraries/CMSIS/Include\core_cmSimd.h ****   __ASM ("usat16 %0, %1, %2" : "=r" (__RES) :  "I" (ARG2), "r" (__ARG1) ); \
 452:C:\Users\Depes Crystalline\Desktop\school\Active_Bike_Lighting_System\Radar_Core/Libraries/CMSIS/Include\core_cmSimd.h ****   __RES; \
 453:C:\Users\Depes Crystalline\Desktop\school\Active_Bike_Lighting_System\Radar_Core/Libraries/CMSIS/Include\core_cmSimd.h ****  })
 454:C:\Users\Depes Crystalline\Desktop\school\Active_Bike_Lighting_System\Radar_Core/Libraries/CMSIS/Include\core_cmSimd.h **** 
 455:C:\Users\Depes Crystalline\Desktop\school\Active_Bike_Lighting_System\Radar_Core/Libraries/CMSIS/Include\core_cmSimd.h **** __attribute__( ( always_inline ) ) __STATIC_INLINE uint32_t __UXTB16(uint32_t op1)
 456:C:\Users\Depes Crystalline\Desktop\school\Active_Bike_Lighting_System\Radar_Core/Libraries/CMSIS/Include\core_cmSimd.h **** {
 457:C:\Users\Depes Crystalline\Desktop\school\Active_Bike_Lighting_System\Radar_Core/Libraries/CMSIS/Include\core_cmSimd.h ****   uint32_t result;
 458:C:\Users\Depes Crystalline\Desktop\school\Active_Bike_Lighting_System\Radar_Core/Libraries/CMSIS/Include\core_cmSimd.h **** 
 459:C:\Users\Depes Crystalline\Desktop\school\Active_Bike_Lighting_System\Radar_Core/Libraries/CMSIS/Include\core_cmSimd.h ****   __ASM volatile ("uxtb16 %0, %1" : "=r" (result) : "r" (op1));
 460:C:\Users\Depes Crystalline\Desktop\school\Active_Bike_Lighting_System\Radar_Core/Libraries/CMSIS/Include\core_cmSimd.h ****   return(result);
 461:C:\Users\Depes Crystalline\Desktop\school\Active_Bike_Lighting_System\Radar_Core/Libraries/CMSIS/Include\core_cmSimd.h **** }
 462:C:\Users\Depes Crystalline\Desktop\school\Active_Bike_Lighting_System\Radar_Core/Libraries/CMSIS/Include\core_cmSimd.h **** 
 463:C:\Users\Depes Crystalline\Desktop\school\Active_Bike_Lighting_System\Radar_Core/Libraries/CMSIS/Include\core_cmSimd.h **** __attribute__( ( always_inline ) ) __STATIC_INLINE uint32_t __UXTAB16(uint32_t op1, uint32_t op2)
 464:C:\Users\Depes Crystalline\Desktop\school\Active_Bike_Lighting_System\Radar_Core/Libraries/CMSIS/Include\core_cmSimd.h **** {
 465:C:\Users\Depes Crystalline\Desktop\school\Active_Bike_Lighting_System\Radar_Core/Libraries/CMSIS/Include\core_cmSimd.h ****   uint32_t result;
 466:C:\Users\Depes Crystalline\Desktop\school\Active_Bike_Lighting_System\Radar_Core/Libraries/CMSIS/Include\core_cmSimd.h **** 
 467:C:\Users\Depes Crystalline\Desktop\school\Active_Bike_Lighting_System\Radar_Core/Libraries/CMSIS/Include\core_cmSimd.h ****   __ASM volatile ("uxtab16 %0, %1, %2" : "=r" (result) : "r" (op1), "r" (op2) );
 468:C:\Users\Depes Crystalline\Desktop\school\Active_Bike_Lighting_System\Radar_Core/Libraries/CMSIS/Include\core_cmSimd.h ****   return(result);
 469:C:\Users\Depes Crystalline\Desktop\school\Active_Bike_Lighting_System\Radar_Core/Libraries/CMSIS/Include\core_cmSimd.h **** }
 470:C:\Users\Depes Crystalline\Desktop\school\Active_Bike_Lighting_System\Radar_Core/Libraries/CMSIS/Include\core_cmSimd.h **** 
 471:C:\Users\Depes Crystalline\Desktop\school\Active_Bike_Lighting_System\Radar_Core/Libraries/CMSIS/Include\core_cmSimd.h **** __attribute__( ( always_inline ) ) __STATIC_INLINE uint32_t __SXTB16(uint32_t op1)
 472:C:\Users\Depes Crystalline\Desktop\school\Active_Bike_Lighting_System\Radar_Core/Libraries/CMSIS/Include\core_cmSimd.h **** {
 473:C:\Users\Depes Crystalline\Desktop\school\Active_Bike_Lighting_System\Radar_Core/Libraries/CMSIS/Include\core_cmSimd.h ****   uint32_t result;
 474:C:\Users\Depes Crystalline\Desktop\school\Active_Bike_Lighting_System\Radar_Core/Libraries/CMSIS/Include\core_cmSimd.h **** 
 475:C:\Users\Depes Crystalline\Desktop\school\Active_Bike_Lighting_System\Radar_Core/Libraries/CMSIS/Include\core_cmSimd.h ****   __ASM volatile ("sxtb16 %0, %1" : "=r" (result) : "r" (op1));
 476:C:\Users\Depes Crystalline\Desktop\school\Active_Bike_Lighting_System\Radar_Core/Libraries/CMSIS/Include\core_cmSimd.h ****   return(result);
 477:C:\Users\Depes Crystalline\Desktop\school\Active_Bike_Lighting_System\Radar_Core/Libraries/CMSIS/Include\core_cmSimd.h **** }
 478:C:\Users\Depes Crystalline\Desktop\school\Active_Bike_Lighting_System\Radar_Core/Libraries/CMSIS/Include\core_cmSimd.h **** 
 479:C:\Users\Depes Crystalline\Desktop\school\Active_Bike_Lighting_System\Radar_Core/Libraries/CMSIS/Include\core_cmSimd.h **** __attribute__( ( always_inline ) ) __STATIC_INLINE uint32_t __SXTAB16(uint32_t op1, uint32_t op2)
 480:C:\Users\Depes Crystalline\Desktop\school\Active_Bike_Lighting_System\Radar_Core/Libraries/CMSIS/Include\core_cmSimd.h **** {
 481:C:\Users\Depes Crystalline\Desktop\school\Active_Bike_Lighting_System\Radar_Core/Libraries/CMSIS/Include\core_cmSimd.h ****   uint32_t result;
 482:C:\Users\Depes Crystalline\Desktop\school\Active_Bike_Lighting_System\Radar_Core/Libraries/CMSIS/Include\core_cmSimd.h **** 
 483:C:\Users\Depes Crystalline\Desktop\school\Active_Bike_Lighting_System\Radar_Core/Libraries/CMSIS/Include\core_cmSimd.h ****   __ASM volatile ("sxtab16 %0, %1, %2" : "=r" (result) : "r" (op1), "r" (op2) );
 484:C:\Users\Depes Crystalline\Desktop\school\Active_Bike_Lighting_System\Radar_Core/Libraries/CMSIS/Include\core_cmSimd.h ****   return(result);
 485:C:\Users\Depes Crystalline\Desktop\school\Active_Bike_Lighting_System\Radar_Core/Libraries/CMSIS/Include\core_cmSimd.h **** }
 486:C:\Users\Depes Crystalline\Desktop\school\Active_Bike_Lighting_System\Radar_Core/Libraries/CMSIS/Include\core_cmSimd.h **** 
 487:C:\Users\Depes Crystalline\Desktop\school\Active_Bike_Lighting_System\Radar_Core/Libraries/CMSIS/Include\core_cmSimd.h **** __attribute__( ( always_inline ) ) __STATIC_INLINE uint32_t __SMUAD  (uint32_t op1, uint32_t op2)
 488:C:\Users\Depes Crystalline\Desktop\school\Active_Bike_Lighting_System\Radar_Core/Libraries/CMSIS/Include\core_cmSimd.h **** {
 489:C:\Users\Depes Crystalline\Desktop\school\Active_Bike_Lighting_System\Radar_Core/Libraries/CMSIS/Include\core_cmSimd.h ****   uint32_t result;
 490:C:\Users\Depes Crystalline\Desktop\school\Active_Bike_Lighting_System\Radar_Core/Libraries/CMSIS/Include\core_cmSimd.h **** 
 491:C:\Users\Depes Crystalline\Desktop\school\Active_Bike_Lighting_System\Radar_Core/Libraries/CMSIS/Include\core_cmSimd.h ****   __ASM volatile ("smuad %0, %1, %2" : "=r" (result) : "r" (op1), "r" (op2) );
 492:C:\Users\Depes Crystalline\Desktop\school\Active_Bike_Lighting_System\Radar_Core/Libraries/CMSIS/Include\core_cmSimd.h ****   return(result);
 493:C:\Users\Depes Crystalline\Desktop\school\Active_Bike_Lighting_System\Radar_Core/Libraries/CMSIS/Include\core_cmSimd.h **** }
 494:C:\Users\Depes Crystalline\Desktop\school\Active_Bike_Lighting_System\Radar_Core/Libraries/CMSIS/Include\core_cmSimd.h **** 
 495:C:\Users\Depes Crystalline\Desktop\school\Active_Bike_Lighting_System\Radar_Core/Libraries/CMSIS/Include\core_cmSimd.h **** __attribute__( ( always_inline ) ) __STATIC_INLINE uint32_t __SMUADX (uint32_t op1, uint32_t op2)
 496:C:\Users\Depes Crystalline\Desktop\school\Active_Bike_Lighting_System\Radar_Core/Libraries/CMSIS/Include\core_cmSimd.h **** {
 497:C:\Users\Depes Crystalline\Desktop\school\Active_Bike_Lighting_System\Radar_Core/Libraries/CMSIS/Include\core_cmSimd.h ****   uint32_t result;
 498:C:\Users\Depes Crystalline\Desktop\school\Active_Bike_Lighting_System\Radar_Core/Libraries/CMSIS/Include\core_cmSimd.h **** 
 499:C:\Users\Depes Crystalline\Desktop\school\Active_Bike_Lighting_System\Radar_Core/Libraries/CMSIS/Include\core_cmSimd.h ****   __ASM volatile ("smuadx %0, %1, %2" : "=r" (result) : "r" (op1), "r" (op2) );
 500:C:\Users\Depes Crystalline\Desktop\school\Active_Bike_Lighting_System\Radar_Core/Libraries/CMSIS/Include\core_cmSimd.h ****   return(result);
 501:C:\Users\Depes Crystalline\Desktop\school\Active_Bike_Lighting_System\Radar_Core/Libraries/CMSIS/Include\core_cmSimd.h **** }
 502:C:\Users\Depes Crystalline\Desktop\school\Active_Bike_Lighting_System\Radar_Core/Libraries/CMSIS/Include\core_cmSimd.h **** 
 503:C:\Users\Depes Crystalline\Desktop\school\Active_Bike_Lighting_System\Radar_Core/Libraries/CMSIS/Include\core_cmSimd.h **** __attribute__( ( always_inline ) ) __STATIC_INLINE uint32_t __SMLAD (uint32_t op1, uint32_t op2, ui
 504:C:\Users\Depes Crystalline\Desktop\school\Active_Bike_Lighting_System\Radar_Core/Libraries/CMSIS/Include\core_cmSimd.h **** {
 505:C:\Users\Depes Crystalline\Desktop\school\Active_Bike_Lighting_System\Radar_Core/Libraries/CMSIS/Include\core_cmSimd.h ****   uint32_t result;
 506:C:\Users\Depes Crystalline\Desktop\school\Active_Bike_Lighting_System\Radar_Core/Libraries/CMSIS/Include\core_cmSimd.h **** 
 507:C:\Users\Depes Crystalline\Desktop\school\Active_Bike_Lighting_System\Radar_Core/Libraries/CMSIS/Include\core_cmSimd.h ****   __ASM volatile ("smlad %0, %1, %2, %3" : "=r" (result) : "r" (op1), "r" (op2), "r" (op3) );
 183              	 .loc 2 507 0
 184 0144 D7F8EC30 	 ldr r3,[r7,#236]
 185 0148 D7F8E820 	 ldr r2,[r7,#232]
 186 014c D7F8E410 	 ldr r1,[r7,#228]
 187              	
 188 0150 23FB0213 	 smlad r3,r3,r2,r1
 189              	
 190              	 .thumb
 191 0154 C7F8E030 	 str r3,[r7,#224]
 508:C:\Users\Depes Crystalline\Desktop\school\Active_Bike_Lighting_System\Radar_Core/Libraries/CMSIS/Include\core_cmSimd.h ****   return(result);
 192              	 .loc 2 508 0
 193 0158 D7F8E030 	 ldr r3,[r7,#224]
 194              	.LBE39:
 195              	.LBE38:
 196              	 .loc 1 191 0
 197 015c C7F87031 	 str r3,[r7,#368]
 192:../Dave/Generated/CMSIS_DSP/FilteringFunctions/arm_conv_q7.c **** 
 193:../Dave/Generated/CMSIS_DSP/FilteringFunctions/arm_conv_q7.c ****       /* x[2] , x[3] */
 194:../Dave/Generated/CMSIS_DSP/FilteringFunctions/arm_conv_q7.c ****       in1 = (q15_t) * px++;
 198              	 .loc 1 194 0
 199 0160 D7F88031 	 ldr r3,[r7,#384]
 200 0164 5A1C     	 adds r2,r3,#1
 201 0166 C7F88021 	 str r2,[r7,#384]
 202 016a 1B78     	 ldrb r3,[r3]
 203 016c 5BB2     	 sxtb r3,r3
 204 016e A7F84231 	 strh r3,[r7,#322]
 195:../Dave/Generated/CMSIS_DSP/FilteringFunctions/arm_conv_q7.c ****       in2 = (q15_t) * px++;
 205              	 .loc 1 195 0
 206 0172 D7F88031 	 ldr r3,[r7,#384]
 207 0176 5A1C     	 adds r2,r3,#1
 208 0178 C7F88021 	 str r2,[r7,#384]
 209 017c 1B78     	 ldrb r3,[r3]
 210 017e 5BB2     	 sxtb r3,r3
 211 0180 A7F84031 	 strh r3,[r7,#320]
 196:../Dave/Generated/CMSIS_DSP/FilteringFunctions/arm_conv_q7.c ****       input1 = ((q31_t) in1 & 0x0000FFFF) | ((q31_t) in2 << 16u);
 212              	 .loc 1 196 0
 213 0184 B7F94231 	 ldrsh r3,[r7,#322]
 214 0188 9AB2     	 uxth r2,r3
 215 018a B7F94031 	 ldrsh r3,[r7,#320]
 216 018e 1B04     	 lsls r3,r3,#16
 217 0190 1343     	 orrs r3,r3,r2
 218 0192 C7F83C31 	 str r3,[r7,#316]
 197:../Dave/Generated/CMSIS_DSP/FilteringFunctions/arm_conv_q7.c **** 
 198:../Dave/Generated/CMSIS_DSP/FilteringFunctions/arm_conv_q7.c ****       /* y[srcBLen - 3] , y[srcBLen - 4] */
 199:../Dave/Generated/CMSIS_DSP/FilteringFunctions/arm_conv_q7.c ****       in1 = (q15_t) * py--;
 219              	 .loc 1 199 0
 220 0196 D7F87C31 	 ldr r3,[r7,#380]
 221 019a 5A1E     	 subs r2,r3,#1
 222 019c C7F87C21 	 str r2,[r7,#380]
 223 01a0 1B78     	 ldrb r3,[r3]
 224 01a2 5BB2     	 sxtb r3,r3
 225 01a4 A7F84231 	 strh r3,[r7,#322]
 200:../Dave/Generated/CMSIS_DSP/FilteringFunctions/arm_conv_q7.c ****       in2 = (q15_t) * py--;
 226              	 .loc 1 200 0
 227 01a8 D7F87C31 	 ldr r3,[r7,#380]
 228 01ac 5A1E     	 subs r2,r3,#1
 229 01ae C7F87C21 	 str r2,[r7,#380]
 230 01b2 1B78     	 ldrb r3,[r3]
 231 01b4 5BB2     	 sxtb r3,r3
 232 01b6 A7F84031 	 strh r3,[r7,#320]
 201:../Dave/Generated/CMSIS_DSP/FilteringFunctions/arm_conv_q7.c ****       input2 = ((q31_t) in1 & 0x0000FFFF) | ((q31_t) in2 << 16u);
 233              	 .loc 1 201 0
 234 01ba B7F94231 	 ldrsh r3,[r7,#322]
 235 01be 9AB2     	 uxth r2,r3
 236 01c0 B7F94031 	 ldrsh r3,[r7,#320]
 237 01c4 1B04     	 lsls r3,r3,#16
 238 01c6 1343     	 orrs r3,r3,r2
 239 01c8 C7F83831 	 str r3,[r7,#312]
 202:../Dave/Generated/CMSIS_DSP/FilteringFunctions/arm_conv_q7.c **** 
 203:../Dave/Generated/CMSIS_DSP/FilteringFunctions/arm_conv_q7.c ****       /* x[2] * y[srcBLen - 3] */
 204:../Dave/Generated/CMSIS_DSP/FilteringFunctions/arm_conv_q7.c ****       /* x[3] * y[srcBLen - 4] */
 205:../Dave/Generated/CMSIS_DSP/FilteringFunctions/arm_conv_q7.c ****       sum = __SMLAD(input1, input2, sum);
 240              	 .loc 1 205 0
 241 01cc D7F83C11 	 ldr r1,[r7,#316]
 242 01d0 D7F83821 	 ldr r2,[r7,#312]
 243 01d4 D7F87031 	 ldr r3,[r7,#368]
 244 01d8 C7F8DC10 	 str r1,[r7,#220]
 245 01dc C7F8D820 	 str r2,[r7,#216]
 246 01e0 C7F8D430 	 str r3,[r7,#212]
 247              	.LBB40:
 248              	.LBB41:
 507:C:\Users\Depes Crystalline\Desktop\school\Active_Bike_Lighting_System\Radar_Core/Libraries/CMSIS/Include\core_cmSimd.h ****   return(result);
 249              	 .loc 2 507 0
 250 01e4 D7F8DC30 	 ldr r3,[r7,#220]
 251 01e8 D7F8D820 	 ldr r2,[r7,#216]
 252 01ec D7F8D410 	 ldr r1,[r7,#212]
 253              	
 254 01f0 23FB0213 	 smlad r3,r3,r2,r1
 255              	
 256              	 .thumb
 257 01f4 C7F8D030 	 str r3,[r7,#208]
 258              	 .loc 2 508 0
 259 01f8 D7F8D030 	 ldr r3,[r7,#208]
 260              	.LBE41:
 261              	.LBE40:
 262              	 .loc 1 205 0
 263 01fc C7F87031 	 str r3,[r7,#368]
 206:../Dave/Generated/CMSIS_DSP/FilteringFunctions/arm_conv_q7.c **** 
 207:../Dave/Generated/CMSIS_DSP/FilteringFunctions/arm_conv_q7.c ****       /* Decrement the loop counter */
 208:../Dave/Generated/CMSIS_DSP/FilteringFunctions/arm_conv_q7.c ****       k--;
 264              	 .loc 1 208 0
 265 0200 D7F85C31 	 ldr r3,[r7,#348]
 266 0204 013B     	 subs r3,r3,#1
 267 0206 C7F85C31 	 str r3,[r7,#348]
 268              	.L5:
 177:../Dave/Generated/CMSIS_DSP/FilteringFunctions/arm_conv_q7.c ****     {
 269              	 .loc 1 177 0
 270 020a D7F85C31 	 ldr r3,[r7,#348]
 271 020e 002B     	 cmp r3,#0
 272 0210 7FF456AF 	 bne .L8
 209:../Dave/Generated/CMSIS_DSP/FilteringFunctions/arm_conv_q7.c ****     }
 210:../Dave/Generated/CMSIS_DSP/FilteringFunctions/arm_conv_q7.c **** 
 211:../Dave/Generated/CMSIS_DSP/FilteringFunctions/arm_conv_q7.c ****     /* If the count is not a multiple of 4, compute any remaining MACs here.   
 212:../Dave/Generated/CMSIS_DSP/FilteringFunctions/arm_conv_q7.c ****      ** No loop unrolling is used. */
 213:../Dave/Generated/CMSIS_DSP/FilteringFunctions/arm_conv_q7.c ****     k = count % 0x4u;
 273              	 .loc 1 213 0
 274 0214 D7F85831 	 ldr r3,[r7,#344]
 275 0218 03F00303 	 and r3,r3,#3
 276 021c C7F85C31 	 str r3,[r7,#348]
 214:../Dave/Generated/CMSIS_DSP/FilteringFunctions/arm_conv_q7.c **** 
 215:../Dave/Generated/CMSIS_DSP/FilteringFunctions/arm_conv_q7.c ****     while(k > 0u)
 277              	 .loc 1 215 0
 278 0220 19E0     	 b .L9
 279              	.L10:
 216:../Dave/Generated/CMSIS_DSP/FilteringFunctions/arm_conv_q7.c ****     {
 217:../Dave/Generated/CMSIS_DSP/FilteringFunctions/arm_conv_q7.c ****       /* Perform the multiply-accumulates */
 218:../Dave/Generated/CMSIS_DSP/FilteringFunctions/arm_conv_q7.c ****       sum += ((q15_t) * px++ * *py--);
 280              	 .loc 1 218 0
 281 0222 D7F88031 	 ldr r3,[r7,#384]
 282 0226 5A1C     	 adds r2,r3,#1
 283 0228 C7F88021 	 str r2,[r7,#384]
 284 022c 1B78     	 ldrb r3,[r3]
 285 022e 5AB2     	 sxtb r2,r3
 286 0230 D7F87C31 	 ldr r3,[r7,#380]
 287 0234 591E     	 subs r1,r3,#1
 288 0236 C7F87C11 	 str r1,[r7,#380]
 289 023a 1B78     	 ldrb r3,[r3]
 290 023c 5BB2     	 sxtb r3,r3
 291 023e 03FB02F3 	 mul r3,r3,r2
 292 0242 D7F87021 	 ldr r2,[r7,#368]
 293 0246 1344     	 add r3,r3,r2
 294 0248 C7F87031 	 str r3,[r7,#368]
 219:../Dave/Generated/CMSIS_DSP/FilteringFunctions/arm_conv_q7.c **** 
 220:../Dave/Generated/CMSIS_DSP/FilteringFunctions/arm_conv_q7.c ****       /* Decrement the loop counter */
 221:../Dave/Generated/CMSIS_DSP/FilteringFunctions/arm_conv_q7.c ****       k--;
 295              	 .loc 1 221 0
 296 024c D7F85C31 	 ldr r3,[r7,#348]
 297 0250 013B     	 subs r3,r3,#1
 298 0252 C7F85C31 	 str r3,[r7,#348]
 299              	.L9:
 215:../Dave/Generated/CMSIS_DSP/FilteringFunctions/arm_conv_q7.c ****     {
 300              	 .loc 1 215 0
 301 0256 D7F85C31 	 ldr r3,[r7,#348]
 302 025a 002B     	 cmp r3,#0
 303 025c E1D1     	 bne .L10
 222:../Dave/Generated/CMSIS_DSP/FilteringFunctions/arm_conv_q7.c ****     }
 223:../Dave/Generated/CMSIS_DSP/FilteringFunctions/arm_conv_q7.c **** 
 224:../Dave/Generated/CMSIS_DSP/FilteringFunctions/arm_conv_q7.c ****     /* Store the result in the accumulator in the destination buffer. */
 225:../Dave/Generated/CMSIS_DSP/FilteringFunctions/arm_conv_q7.c ****     *pOut++ = (q7_t) (__SSAT(sum >> 7u, 8));
 304              	 .loc 1 225 0
 305 025e D7F88431 	 ldr r3,[r7,#388]
 306 0262 5A1C     	 adds r2,r3,#1
 307 0264 C7F88421 	 str r2,[r7,#388]
 308              	.LBB42:
 309 0268 D7F87021 	 ldr r2,[r7,#368]
 310 026c D211     	 asrs r2,r2,#7
 311 026e C7F83421 	 str r2,[r7,#308]
 312 0272 D7F83421 	 ldr r2,[r7,#308]
 313              	
 314 0276 02F30702 	 ssat r2,#8,r2
 315              	
 316              	 .thumb
 317 027a C7F83021 	 str r2,[r7,#304]
 318 027e D7F83021 	 ldr r2,[r7,#304]
 319              	.LBE42:
 320 0282 D2B2     	 uxtb r2,r2
 321 0284 1A70     	 strb r2,[r3]
 226:../Dave/Generated/CMSIS_DSP/FilteringFunctions/arm_conv_q7.c **** 
 227:../Dave/Generated/CMSIS_DSP/FilteringFunctions/arm_conv_q7.c ****     /* Update the inputA and inputB pointers for next MAC calculation */
 228:../Dave/Generated/CMSIS_DSP/FilteringFunctions/arm_conv_q7.c ****     py = pIn2 + count;
 322              	 .loc 1 228 0
 323 0286 D7F88821 	 ldr r2,[r7,#392]
 324 028a D7F85831 	 ldr r3,[r7,#344]
 325 028e 1344     	 add r3,r3,r2
 326 0290 C7F87C31 	 str r3,[r7,#380]
 229:../Dave/Generated/CMSIS_DSP/FilteringFunctions/arm_conv_q7.c ****     px = pIn1;
 327              	 .loc 1 229 0
 328 0294 D7F88C31 	 ldr r3,[r7,#396]
 329 0298 C7F88031 	 str r3,[r7,#384]
 230:../Dave/Generated/CMSIS_DSP/FilteringFunctions/arm_conv_q7.c **** 
 231:../Dave/Generated/CMSIS_DSP/FilteringFunctions/arm_conv_q7.c ****     /* Increment the MAC count */
 232:../Dave/Generated/CMSIS_DSP/FilteringFunctions/arm_conv_q7.c ****     count++;
 330              	 .loc 1 232 0
 331 029c D7F85831 	 ldr r3,[r7,#344]
 332 02a0 0133     	 adds r3,r3,#1
 333 02a2 C7F85831 	 str r3,[r7,#344]
 233:../Dave/Generated/CMSIS_DSP/FilteringFunctions/arm_conv_q7.c **** 
 234:../Dave/Generated/CMSIS_DSP/FilteringFunctions/arm_conv_q7.c ****     /* Decrement the loop counter */
 235:../Dave/Generated/CMSIS_DSP/FilteringFunctions/arm_conv_q7.c ****     blockSize1--;
 334              	 .loc 1 235 0
 335 02a6 D7F85031 	 ldr r3,[r7,#336]
 336 02aa 013B     	 subs r3,r3,#1
 337 02ac C7F85031 	 str r3,[r7,#336]
 338              	.L4:
 167:../Dave/Generated/CMSIS_DSP/FilteringFunctions/arm_conv_q7.c ****   {
 339              	 .loc 1 167 0
 340 02b0 D7F85031 	 ldr r3,[r7,#336]
 341 02b4 002B     	 cmp r3,#0
 342 02b6 7FF4FAAE 	 bne .L11
 236:../Dave/Generated/CMSIS_DSP/FilteringFunctions/arm_conv_q7.c ****   }
 237:../Dave/Generated/CMSIS_DSP/FilteringFunctions/arm_conv_q7.c **** 
 238:../Dave/Generated/CMSIS_DSP/FilteringFunctions/arm_conv_q7.c ****   /* --------------------------   
 239:../Dave/Generated/CMSIS_DSP/FilteringFunctions/arm_conv_q7.c ****    * Initializations of stage2   
 240:../Dave/Generated/CMSIS_DSP/FilteringFunctions/arm_conv_q7.c ****    * ------------------------*/
 241:../Dave/Generated/CMSIS_DSP/FilteringFunctions/arm_conv_q7.c **** 
 242:../Dave/Generated/CMSIS_DSP/FilteringFunctions/arm_conv_q7.c ****   /* sum = x[0] * y[srcBLen-1] + x[1] * y[srcBLen-2] +...+ x[srcBLen-1] * y[0]   
 243:../Dave/Generated/CMSIS_DSP/FilteringFunctions/arm_conv_q7.c ****    * sum = x[1] * y[srcBLen-1] + x[2] * y[srcBLen-2] +...+ x[srcBLen] * y[0]   
 244:../Dave/Generated/CMSIS_DSP/FilteringFunctions/arm_conv_q7.c ****    * ....   
 245:../Dave/Generated/CMSIS_DSP/FilteringFunctions/arm_conv_q7.c ****    * sum = x[srcALen-srcBLen-2] * y[srcBLen-1] + x[srcALen] * y[srcBLen-2] +...+ x[srcALen-1] * y[0
 246:../Dave/Generated/CMSIS_DSP/FilteringFunctions/arm_conv_q7.c ****    */
 247:../Dave/Generated/CMSIS_DSP/FilteringFunctions/arm_conv_q7.c **** 
 248:../Dave/Generated/CMSIS_DSP/FilteringFunctions/arm_conv_q7.c ****   /* Working pointer of inputA */
 249:../Dave/Generated/CMSIS_DSP/FilteringFunctions/arm_conv_q7.c ****   px = pIn1;
 343              	 .loc 1 249 0
 344 02ba D7F88C31 	 ldr r3,[r7,#396]
 345 02be C7F88031 	 str r3,[r7,#384]
 250:../Dave/Generated/CMSIS_DSP/FilteringFunctions/arm_conv_q7.c **** 
 251:../Dave/Generated/CMSIS_DSP/FilteringFunctions/arm_conv_q7.c ****   /* Working pointer of inputB */
 252:../Dave/Generated/CMSIS_DSP/FilteringFunctions/arm_conv_q7.c ****   pSrc2 = pIn2 + (srcBLen - 1u);
 346              	 .loc 1 252 0
 347 02c2 3B46     	 mov r3,r7
 348 02c4 1B68     	 ldr r3,[r3]
 349 02c6 013B     	 subs r3,r3,#1
 350 02c8 D7F88821 	 ldr r2,[r7,#392]
 351 02cc 1344     	 add r3,r3,r2
 352 02ce C7F82C31 	 str r3,[r7,#300]
 253:../Dave/Generated/CMSIS_DSP/FilteringFunctions/arm_conv_q7.c ****   py = pSrc2;
 353              	 .loc 1 253 0
 354 02d2 D7F82C31 	 ldr r3,[r7,#300]
 355 02d6 C7F87C31 	 str r3,[r7,#380]
 254:../Dave/Generated/CMSIS_DSP/FilteringFunctions/arm_conv_q7.c **** 
 255:../Dave/Generated/CMSIS_DSP/FilteringFunctions/arm_conv_q7.c ****   /* count is index by which the pointer pIn1 to be incremented */
 256:../Dave/Generated/CMSIS_DSP/FilteringFunctions/arm_conv_q7.c ****   count = 0u;
 356              	 .loc 1 256 0
 357 02da 0023     	 movs r3,#0
 358 02dc C7F85831 	 str r3,[r7,#344]
 257:../Dave/Generated/CMSIS_DSP/FilteringFunctions/arm_conv_q7.c **** 
 258:../Dave/Generated/CMSIS_DSP/FilteringFunctions/arm_conv_q7.c ****   /* -------------------   
 259:../Dave/Generated/CMSIS_DSP/FilteringFunctions/arm_conv_q7.c ****    * Stage2 process   
 260:../Dave/Generated/CMSIS_DSP/FilteringFunctions/arm_conv_q7.c ****    * ------------------*/
 261:../Dave/Generated/CMSIS_DSP/FilteringFunctions/arm_conv_q7.c **** 
 262:../Dave/Generated/CMSIS_DSP/FilteringFunctions/arm_conv_q7.c ****   /* Stage2 depends on srcBLen as in this stage srcBLen number of MACS are performed.   
 263:../Dave/Generated/CMSIS_DSP/FilteringFunctions/arm_conv_q7.c ****    * So, to loop unroll over blockSize2,   
 264:../Dave/Generated/CMSIS_DSP/FilteringFunctions/arm_conv_q7.c ****    * srcBLen should be greater than or equal to 4 */
 265:../Dave/Generated/CMSIS_DSP/FilteringFunctions/arm_conv_q7.c ****   if(srcBLen >= 4u)
 359              	 .loc 1 265 0
 360 02e0 3B46     	 mov r3,r7
 361 02e2 1B68     	 ldr r3,[r3]
 362 02e4 032B     	 cmp r3,#3
 363 02e6 40F2F583 	 bls .L12
 266:../Dave/Generated/CMSIS_DSP/FilteringFunctions/arm_conv_q7.c ****   {
 267:../Dave/Generated/CMSIS_DSP/FilteringFunctions/arm_conv_q7.c ****     /* Loop unroll over blockSize2, by 4 */
 268:../Dave/Generated/CMSIS_DSP/FilteringFunctions/arm_conv_q7.c ****     blkCnt = blockSize2 >> 2u;
 364              	 .loc 1 268 0
 365 02ea D7F84431 	 ldr r3,[r7,#324]
 366 02ee 9B08     	 lsrs r3,r3,#2
 367 02f0 C7F85431 	 str r3,[r7,#340]
 269:../Dave/Generated/CMSIS_DSP/FilteringFunctions/arm_conv_q7.c **** 
 270:../Dave/Generated/CMSIS_DSP/FilteringFunctions/arm_conv_q7.c ****     while(blkCnt > 0u)
 368              	 .loc 1 270 0
 369 02f4 CBE2     	 b .L13
 370              	.L25:
 271:../Dave/Generated/CMSIS_DSP/FilteringFunctions/arm_conv_q7.c ****     {
 272:../Dave/Generated/CMSIS_DSP/FilteringFunctions/arm_conv_q7.c ****       /* Set all accumulators to zero */
 273:../Dave/Generated/CMSIS_DSP/FilteringFunctions/arm_conv_q7.c ****       acc0 = 0;
 371              	 .loc 1 273 0
 372 02f6 0023     	 movs r3,#0
 373 02f8 C7F86C31 	 str r3,[r7,#364]
 274:../Dave/Generated/CMSIS_DSP/FilteringFunctions/arm_conv_q7.c ****       acc1 = 0;
 374              	 .loc 1 274 0
 375 02fc 0023     	 movs r3,#0
 376 02fe C7F86831 	 str r3,[r7,#360]
 275:../Dave/Generated/CMSIS_DSP/FilteringFunctions/arm_conv_q7.c ****       acc2 = 0;
 377              	 .loc 1 275 0
 378 0302 0023     	 movs r3,#0
 379 0304 C7F86431 	 str r3,[r7,#356]
 276:../Dave/Generated/CMSIS_DSP/FilteringFunctions/arm_conv_q7.c ****       acc3 = 0;
 380              	 .loc 1 276 0
 381 0308 0023     	 movs r3,#0
 382 030a C7F86031 	 str r3,[r7,#352]
 277:../Dave/Generated/CMSIS_DSP/FilteringFunctions/arm_conv_q7.c **** 
 278:../Dave/Generated/CMSIS_DSP/FilteringFunctions/arm_conv_q7.c ****       /* read x[0], x[1], x[2] samples */
 279:../Dave/Generated/CMSIS_DSP/FilteringFunctions/arm_conv_q7.c ****       x0 = *(px++);
 383              	 .loc 1 279 0
 384 030e D7F88031 	 ldr r3,[r7,#384]
 385 0312 5A1C     	 adds r2,r3,#1
 386 0314 C7F88021 	 str r2,[r7,#384]
 387 0318 1B78     	 ldrb r3,[r3]
 388 031a 87F87731 	 strb r3,[r7,#375]
 280:../Dave/Generated/CMSIS_DSP/FilteringFunctions/arm_conv_q7.c ****       x1 = *(px++);
 389              	 .loc 1 280 0
 390 031e D7F88031 	 ldr r3,[r7,#384]
 391 0322 5A1C     	 adds r2,r3,#1
 392 0324 C7F88021 	 str r2,[r7,#384]
 393 0328 1B78     	 ldrb r3,[r3]
 394 032a 87F87631 	 strb r3,[r7,#374]
 281:../Dave/Generated/CMSIS_DSP/FilteringFunctions/arm_conv_q7.c ****       x2 = *(px++);
 395              	 .loc 1 281 0
 396 032e D7F88031 	 ldr r3,[r7,#384]
 397 0332 5A1C     	 adds r2,r3,#1
 398 0334 C7F88021 	 str r2,[r7,#384]
 399 0338 1B78     	 ldrb r3,[r3]
 400 033a 87F87531 	 strb r3,[r7,#373]
 282:../Dave/Generated/CMSIS_DSP/FilteringFunctions/arm_conv_q7.c **** 
 283:../Dave/Generated/CMSIS_DSP/FilteringFunctions/arm_conv_q7.c ****       /* Apply loop unrolling and compute 4 MACs simultaneously. */
 284:../Dave/Generated/CMSIS_DSP/FilteringFunctions/arm_conv_q7.c ****       k = srcBLen >> 2u;
 401              	 .loc 1 284 0
 402 033e 3B46     	 mov r3,r7
 403 0340 1B68     	 ldr r3,[r3]
 404 0342 9B08     	 lsrs r3,r3,#2
 405 0344 C7F85C31 	 str r3,[r7,#348]
 406              	.L22:
 285:../Dave/Generated/CMSIS_DSP/FilteringFunctions/arm_conv_q7.c **** 
 286:../Dave/Generated/CMSIS_DSP/FilteringFunctions/arm_conv_q7.c ****       /* First part of the processing with loop unrolling.  Compute 4 MACs at a time.   
 287:../Dave/Generated/CMSIS_DSP/FilteringFunctions/arm_conv_q7.c ****        ** a second loop below computes MACs for the remaining 1 to 3 samples. */
 288:../Dave/Generated/CMSIS_DSP/FilteringFunctions/arm_conv_q7.c ****       do
 289:../Dave/Generated/CMSIS_DSP/FilteringFunctions/arm_conv_q7.c ****       {
 290:../Dave/Generated/CMSIS_DSP/FilteringFunctions/arm_conv_q7.c ****         /* Read y[srcBLen - 1] sample */
 291:../Dave/Generated/CMSIS_DSP/FilteringFunctions/arm_conv_q7.c ****         c0 = *(py--);
 407              	 .loc 1 291 0 discriminator 1
 408 0348 D7F87C31 	 ldr r3,[r7,#380]
 409 034c 5A1E     	 subs r2,r3,#1
 410 034e C7F87C21 	 str r2,[r7,#380]
 411 0352 1B78     	 ldrb r3,[r3]
 412 0354 87F82B31 	 strb r3,[r7,#299]
 292:../Dave/Generated/CMSIS_DSP/FilteringFunctions/arm_conv_q7.c ****         /* Read y[srcBLen - 2] sample */
 293:../Dave/Generated/CMSIS_DSP/FilteringFunctions/arm_conv_q7.c ****         c1 = *(py--);
 413              	 .loc 1 293 0 discriminator 1
 414 0358 D7F87C31 	 ldr r3,[r7,#380]
 415 035c 5A1E     	 subs r2,r3,#1
 416 035e C7F87C21 	 str r2,[r7,#380]
 417 0362 1B78     	 ldrb r3,[r3]
 418 0364 87F82A31 	 strb r3,[r7,#298]
 294:../Dave/Generated/CMSIS_DSP/FilteringFunctions/arm_conv_q7.c **** 
 295:../Dave/Generated/CMSIS_DSP/FilteringFunctions/arm_conv_q7.c ****         /* Read x[3] sample */
 296:../Dave/Generated/CMSIS_DSP/FilteringFunctions/arm_conv_q7.c ****         x3 = *(px++);
 419              	 .loc 1 296 0 discriminator 1
 420 0368 D7F88031 	 ldr r3,[r7,#384]
 421 036c 5A1C     	 adds r2,r3,#1
 422 036e C7F88021 	 str r2,[r7,#384]
 423 0372 1B78     	 ldrb r3,[r3]
 424 0374 87F82931 	 strb r3,[r7,#297]
 297:../Dave/Generated/CMSIS_DSP/FilteringFunctions/arm_conv_q7.c **** 
 298:../Dave/Generated/CMSIS_DSP/FilteringFunctions/arm_conv_q7.c ****         /* x[0] and x[1] are packed */
 299:../Dave/Generated/CMSIS_DSP/FilteringFunctions/arm_conv_q7.c ****         in1 = (q15_t) x0;
 425              	 .loc 1 299 0 discriminator 1
 426 0378 97F97731 	 ldrsb r3,[r7,#375]
 427 037c A7F84231 	 strh r3,[r7,#322]
 300:../Dave/Generated/CMSIS_DSP/FilteringFunctions/arm_conv_q7.c ****         in2 = (q15_t) x1;
 428              	 .loc 1 300 0 discriminator 1
 429 0380 97F97631 	 ldrsb r3,[r7,#374]
 430 0384 A7F84031 	 strh r3,[r7,#320]
 301:../Dave/Generated/CMSIS_DSP/FilteringFunctions/arm_conv_q7.c **** 
 302:../Dave/Generated/CMSIS_DSP/FilteringFunctions/arm_conv_q7.c ****         input1 = ((q31_t) in1 & 0x0000FFFF) | ((q31_t) in2 << 16u);
 431              	 .loc 1 302 0 discriminator 1
 432 0388 B7F94231 	 ldrsh r3,[r7,#322]
 433 038c 9AB2     	 uxth r2,r3
 434 038e B7F94031 	 ldrsh r3,[r7,#320]
 435 0392 1B04     	 lsls r3,r3,#16
 436 0394 1343     	 orrs r3,r3,r2
 437 0396 C7F83C31 	 str r3,[r7,#316]
 303:../Dave/Generated/CMSIS_DSP/FilteringFunctions/arm_conv_q7.c **** 
 304:../Dave/Generated/CMSIS_DSP/FilteringFunctions/arm_conv_q7.c ****         /* y[srcBLen - 1]   and y[srcBLen - 2] are packed */
 305:../Dave/Generated/CMSIS_DSP/FilteringFunctions/arm_conv_q7.c ****         in1 = (q15_t) c0;
 438              	 .loc 1 305 0 discriminator 1
 439 039a 97F92B31 	 ldrsb r3,[r7,#299]
 440 039e A7F84231 	 strh r3,[r7,#322]
 306:../Dave/Generated/CMSIS_DSP/FilteringFunctions/arm_conv_q7.c ****         in2 = (q15_t) c1;
 441              	 .loc 1 306 0 discriminator 1
 442 03a2 97F92A31 	 ldrsb r3,[r7,#298]
 443 03a6 A7F84031 	 strh r3,[r7,#320]
 307:../Dave/Generated/CMSIS_DSP/FilteringFunctions/arm_conv_q7.c **** 
 308:../Dave/Generated/CMSIS_DSP/FilteringFunctions/arm_conv_q7.c ****         input2 = ((q31_t) in1 & 0x0000FFFF) | ((q31_t) in2 << 16u);
 444              	 .loc 1 308 0 discriminator 1
 445 03aa B7F94231 	 ldrsh r3,[r7,#322]
 446 03ae 9AB2     	 uxth r2,r3
 447 03b0 B7F94031 	 ldrsh r3,[r7,#320]
 448 03b4 1B04     	 lsls r3,r3,#16
 449 03b6 1343     	 orrs r3,r3,r2
 450 03b8 C7F83831 	 str r3,[r7,#312]
 309:../Dave/Generated/CMSIS_DSP/FilteringFunctions/arm_conv_q7.c **** 
 310:../Dave/Generated/CMSIS_DSP/FilteringFunctions/arm_conv_q7.c ****         /* acc0 += x[0] * y[srcBLen - 1] + x[1] * y[srcBLen - 2]  */
 311:../Dave/Generated/CMSIS_DSP/FilteringFunctions/arm_conv_q7.c ****         acc0 = __SMLAD(input1, input2, acc0);
 451              	 .loc 1 311 0 discriminator 1
 452 03bc D7F83C11 	 ldr r1,[r7,#316]
 453 03c0 D7F83821 	 ldr r2,[r7,#312]
 454 03c4 D7F86C31 	 ldr r3,[r7,#364]
 455 03c8 C7F8CC10 	 str r1,[r7,#204]
 456 03cc C7F8C820 	 str r2,[r7,#200]
 457 03d0 C7F8C430 	 str r3,[r7,#196]
 458              	.LBB43:
 459              	.LBB44:
 507:C:\Users\Depes Crystalline\Desktop\school\Active_Bike_Lighting_System\Radar_Core/Libraries/CMSIS/Include\core_cmSimd.h ****   return(result);
 460              	 .loc 2 507 0 discriminator 1
 461 03d4 D7F8CC30 	 ldr r3,[r7,#204]
 462 03d8 D7F8C820 	 ldr r2,[r7,#200]
 463 03dc D7F8C410 	 ldr r1,[r7,#196]
 464              	
 465 03e0 23FB0213 	 smlad r3,r3,r2,r1
 466              	
 467              	 .thumb
 468 03e4 C7F8C030 	 str r3,[r7,#192]
 469              	 .loc 2 508 0 discriminator 1
 470 03e8 D7F8C030 	 ldr r3,[r7,#192]
 471              	.LBE44:
 472              	.LBE43:
 473              	 .loc 1 311 0 discriminator 1
 474 03ec C7F86C31 	 str r3,[r7,#364]
 312:../Dave/Generated/CMSIS_DSP/FilteringFunctions/arm_conv_q7.c **** 
 313:../Dave/Generated/CMSIS_DSP/FilteringFunctions/arm_conv_q7.c ****         /* x[1] and x[2] are packed */
 314:../Dave/Generated/CMSIS_DSP/FilteringFunctions/arm_conv_q7.c ****         in1 = (q15_t) x1;
 475              	 .loc 1 314 0 discriminator 1
 476 03f0 97F97631 	 ldrsb r3,[r7,#374]
 477 03f4 A7F84231 	 strh r3,[r7,#322]
 315:../Dave/Generated/CMSIS_DSP/FilteringFunctions/arm_conv_q7.c ****         in2 = (q15_t) x2;
 478              	 .loc 1 315 0 discriminator 1
 479 03f8 97F97531 	 ldrsb r3,[r7,#373]
 480 03fc A7F84031 	 strh r3,[r7,#320]
 316:../Dave/Generated/CMSIS_DSP/FilteringFunctions/arm_conv_q7.c **** 
 317:../Dave/Generated/CMSIS_DSP/FilteringFunctions/arm_conv_q7.c ****         input1 = ((q31_t) in1 & 0x0000FFFF) | ((q31_t) in2 << 16u);
 481              	 .loc 1 317 0 discriminator 1
 482 0400 B7F94231 	 ldrsh r3,[r7,#322]
 483 0404 9AB2     	 uxth r2,r3
 484 0406 B7F94031 	 ldrsh r3,[r7,#320]
 485 040a 1B04     	 lsls r3,r3,#16
 486 040c 1343     	 orrs r3,r3,r2
 487 040e C7F83C31 	 str r3,[r7,#316]
 318:../Dave/Generated/CMSIS_DSP/FilteringFunctions/arm_conv_q7.c **** 
 319:../Dave/Generated/CMSIS_DSP/FilteringFunctions/arm_conv_q7.c ****         /* acc1 += x[1] * y[srcBLen - 1] + x[2] * y[srcBLen - 2]  */
 320:../Dave/Generated/CMSIS_DSP/FilteringFunctions/arm_conv_q7.c ****         acc1 = __SMLAD(input1, input2, acc1);
 488              	 .loc 1 320 0 discriminator 1
 489 0412 D7F83C11 	 ldr r1,[r7,#316]
 490 0416 D7F83821 	 ldr r2,[r7,#312]
 491 041a D7F86831 	 ldr r3,[r7,#360]
 492 041e C7F8BC10 	 str r1,[r7,#188]
 493 0422 C7F8B820 	 str r2,[r7,#184]
 494 0426 C7F8B430 	 str r3,[r7,#180]
 495              	.LBB45:
 496              	.LBB46:
 507:C:\Users\Depes Crystalline\Desktop\school\Active_Bike_Lighting_System\Radar_Core/Libraries/CMSIS/Include\core_cmSimd.h ****   return(result);
 497              	 .loc 2 507 0 discriminator 1
 498 042a D7F8BC30 	 ldr r3,[r7,#188]
 499 042e D7F8B820 	 ldr r2,[r7,#184]
 500 0432 D7F8B410 	 ldr r1,[r7,#180]
 501              	
 502 0436 23FB0213 	 smlad r3,r3,r2,r1
 503              	
 504              	 .thumb
 505 043a C7F8B030 	 str r3,[r7,#176]
 506              	 .loc 2 508 0 discriminator 1
 507 043e D7F8B030 	 ldr r3,[r7,#176]
 508              	.LBE46:
 509              	.LBE45:
 510              	 .loc 1 320 0 discriminator 1
 511 0442 C7F86831 	 str r3,[r7,#360]
 321:../Dave/Generated/CMSIS_DSP/FilteringFunctions/arm_conv_q7.c **** 
 322:../Dave/Generated/CMSIS_DSP/FilteringFunctions/arm_conv_q7.c ****         /* x[2] and x[3] are packed */
 323:../Dave/Generated/CMSIS_DSP/FilteringFunctions/arm_conv_q7.c ****         in1 = (q15_t) x2;
 512              	 .loc 1 323 0 discriminator 1
 513 0446 97F97531 	 ldrsb r3,[r7,#373]
 514 044a A7F84231 	 strh r3,[r7,#322]
 324:../Dave/Generated/CMSIS_DSP/FilteringFunctions/arm_conv_q7.c ****         in2 = (q15_t) x3;
 515              	 .loc 1 324 0 discriminator 1
 516 044e 97F92931 	 ldrsb r3,[r7,#297]
 517 0452 A7F84031 	 strh r3,[r7,#320]
 325:../Dave/Generated/CMSIS_DSP/FilteringFunctions/arm_conv_q7.c **** 
 326:../Dave/Generated/CMSIS_DSP/FilteringFunctions/arm_conv_q7.c ****         input1 = ((q31_t) in1 & 0x0000FFFF) | ((q31_t) in2 << 16u);
 518              	 .loc 1 326 0 discriminator 1
 519 0456 B7F94231 	 ldrsh r3,[r7,#322]
 520 045a 9AB2     	 uxth r2,r3
 521 045c B7F94031 	 ldrsh r3,[r7,#320]
 522 0460 1B04     	 lsls r3,r3,#16
 523 0462 1343     	 orrs r3,r3,r2
 524 0464 C7F83C31 	 str r3,[r7,#316]
 327:../Dave/Generated/CMSIS_DSP/FilteringFunctions/arm_conv_q7.c **** 
 328:../Dave/Generated/CMSIS_DSP/FilteringFunctions/arm_conv_q7.c ****         /* acc2 += x[2] * y[srcBLen - 1] + x[3] * y[srcBLen - 2]  */
 329:../Dave/Generated/CMSIS_DSP/FilteringFunctions/arm_conv_q7.c ****         acc2 = __SMLAD(input1, input2, acc2);
 525              	 .loc 1 329 0 discriminator 1
 526 0468 D7F83C11 	 ldr r1,[r7,#316]
 527 046c D7F83821 	 ldr r2,[r7,#312]
 528 0470 D7F86431 	 ldr r3,[r7,#356]
 529 0474 C7F8AC10 	 str r1,[r7,#172]
 530 0478 C7F8A820 	 str r2,[r7,#168]
 531 047c C7F8A430 	 str r3,[r7,#164]
 532              	.LBB47:
 533              	.LBB48:
 507:C:\Users\Depes Crystalline\Desktop\school\Active_Bike_Lighting_System\Radar_Core/Libraries/CMSIS/Include\core_cmSimd.h ****   return(result);
 534              	 .loc 2 507 0 discriminator 1
 535 0480 D7F8AC30 	 ldr r3,[r7,#172]
 536 0484 D7F8A820 	 ldr r2,[r7,#168]
 537 0488 D7F8A410 	 ldr r1,[r7,#164]
 538              	
 539 048c 23FB0213 	 smlad r3,r3,r2,r1
 540              	
 541              	 .thumb
 542 0490 C7F8A030 	 str r3,[r7,#160]
 543              	 .loc 2 508 0 discriminator 1
 544 0494 D7F8A030 	 ldr r3,[r7,#160]
 545              	.LBE48:
 546              	.LBE47:
 547              	 .loc 1 329 0 discriminator 1
 548 0498 C7F86431 	 str r3,[r7,#356]
 330:../Dave/Generated/CMSIS_DSP/FilteringFunctions/arm_conv_q7.c **** 
 331:../Dave/Generated/CMSIS_DSP/FilteringFunctions/arm_conv_q7.c ****         /* Read x[4] sample */
 332:../Dave/Generated/CMSIS_DSP/FilteringFunctions/arm_conv_q7.c ****         x0 = *(px++);
 549              	 .loc 1 332 0 discriminator 1
 550 049c D7F88031 	 ldr r3,[r7,#384]
 551 04a0 5A1C     	 adds r2,r3,#1
 552 04a2 C7F88021 	 str r2,[r7,#384]
 553 04a6 1B78     	 ldrb r3,[r3]
 554 04a8 87F87731 	 strb r3,[r7,#375]
 333:../Dave/Generated/CMSIS_DSP/FilteringFunctions/arm_conv_q7.c **** 
 334:../Dave/Generated/CMSIS_DSP/FilteringFunctions/arm_conv_q7.c ****         /* x[3] and x[4] are packed */
 335:../Dave/Generated/CMSIS_DSP/FilteringFunctions/arm_conv_q7.c ****         in1 = (q15_t) x3;
 555              	 .loc 1 335 0 discriminator 1
 556 04ac 97F92931 	 ldrsb r3,[r7,#297]
 557 04b0 A7F84231 	 strh r3,[r7,#322]
 336:../Dave/Generated/CMSIS_DSP/FilteringFunctions/arm_conv_q7.c ****         in2 = (q15_t) x0;
 558              	 .loc 1 336 0 discriminator 1
 559 04b4 97F97731 	 ldrsb r3,[r7,#375]
 560 04b8 A7F84031 	 strh r3,[r7,#320]
 337:../Dave/Generated/CMSIS_DSP/FilteringFunctions/arm_conv_q7.c **** 
 338:../Dave/Generated/CMSIS_DSP/FilteringFunctions/arm_conv_q7.c ****         input1 = ((q31_t) in1 & 0x0000FFFF) | ((q31_t) in2 << 16u);
 561              	 .loc 1 338 0 discriminator 1
 562 04bc B7F94231 	 ldrsh r3,[r7,#322]
 563 04c0 9AB2     	 uxth r2,r3
 564 04c2 B7F94031 	 ldrsh r3,[r7,#320]
 565 04c6 1B04     	 lsls r3,r3,#16
 566 04c8 1343     	 orrs r3,r3,r2
 567 04ca C7F83C31 	 str r3,[r7,#316]
 339:../Dave/Generated/CMSIS_DSP/FilteringFunctions/arm_conv_q7.c **** 
 340:../Dave/Generated/CMSIS_DSP/FilteringFunctions/arm_conv_q7.c ****         /* acc3 += x[3] * y[srcBLen - 1] + x[4] * y[srcBLen - 2]  */
 341:../Dave/Generated/CMSIS_DSP/FilteringFunctions/arm_conv_q7.c ****         acc3 = __SMLAD(input1, input2, acc3);
 568              	 .loc 1 341 0 discriminator 1
 569 04ce D7F83C11 	 ldr r1,[r7,#316]
 570 04d2 D7F83821 	 ldr r2,[r7,#312]
 571 04d6 D7F86031 	 ldr r3,[r7,#352]
 572 04da C7F89C10 	 str r1,[r7,#156]
 573 04de C7F89820 	 str r2,[r7,#152]
 574 04e2 C7F89430 	 str r3,[r7,#148]
 575              	.LBB49:
 576              	.LBB50:
 507:C:\Users\Depes Crystalline\Desktop\school\Active_Bike_Lighting_System\Radar_Core/Libraries/CMSIS/Include\core_cmSimd.h ****   return(result);
 577              	 .loc 2 507 0 discriminator 1
 578 04e6 D7F89C30 	 ldr r3,[r7,#156]
 579 04ea D7F89820 	 ldr r2,[r7,#152]
 580 04ee D7F89410 	 ldr r1,[r7,#148]
 581              	
 582 04f2 23FB0212 	 smlad r2,r3,r2,r1
 583              	
 584              	 .thumb
 585 04f6 07F19003 	 add r3,r7,#144
 586 04fa 1A60     	 str r2,[r3]
 587              	 .loc 2 508 0 discriminator 1
 588 04fc 07F19003 	 add r3,r7,#144
 589 0500 1B68     	 ldr r3,[r3]
 590              	.LBE50:
 591              	.LBE49:
 592              	 .loc 1 341 0 discriminator 1
 593 0502 C7F86031 	 str r3,[r7,#352]
 342:../Dave/Generated/CMSIS_DSP/FilteringFunctions/arm_conv_q7.c **** 
 343:../Dave/Generated/CMSIS_DSP/FilteringFunctions/arm_conv_q7.c ****         /* Read y[srcBLen - 3] sample */
 344:../Dave/Generated/CMSIS_DSP/FilteringFunctions/arm_conv_q7.c ****         c0 = *(py--);
 594              	 .loc 1 344 0 discriminator 1
 595 0506 D7F87C31 	 ldr r3,[r7,#380]
 596 050a 5A1E     	 subs r2,r3,#1
 597 050c C7F87C21 	 str r2,[r7,#380]
 598 0510 1B78     	 ldrb r3,[r3]
 599 0512 87F82B31 	 strb r3,[r7,#299]
 345:../Dave/Generated/CMSIS_DSP/FilteringFunctions/arm_conv_q7.c ****         /* Read y[srcBLen - 4] sample */
 346:../Dave/Generated/CMSIS_DSP/FilteringFunctions/arm_conv_q7.c ****         c1 = *(py--);
 600              	 .loc 1 346 0 discriminator 1
 601 0516 D7F87C31 	 ldr r3,[r7,#380]
 602 051a 5A1E     	 subs r2,r3,#1
 603 051c C7F87C21 	 str r2,[r7,#380]
 604 0520 1B78     	 ldrb r3,[r3]
 605 0522 87F82A31 	 strb r3,[r7,#298]
 347:../Dave/Generated/CMSIS_DSP/FilteringFunctions/arm_conv_q7.c **** 
 348:../Dave/Generated/CMSIS_DSP/FilteringFunctions/arm_conv_q7.c ****         /* Read x[5] sample */
 349:../Dave/Generated/CMSIS_DSP/FilteringFunctions/arm_conv_q7.c ****         x1 = *(px++);
 606              	 .loc 1 349 0 discriminator 1
 607 0526 D7F88031 	 ldr r3,[r7,#384]
 608 052a 5A1C     	 adds r2,r3,#1
 609 052c C7F88021 	 str r2,[r7,#384]
 610 0530 1B78     	 ldrb r3,[r3]
 611 0532 87F87631 	 strb r3,[r7,#374]
 350:../Dave/Generated/CMSIS_DSP/FilteringFunctions/arm_conv_q7.c **** 
 351:../Dave/Generated/CMSIS_DSP/FilteringFunctions/arm_conv_q7.c ****         /* x[2] and x[3] are packed */
 352:../Dave/Generated/CMSIS_DSP/FilteringFunctions/arm_conv_q7.c ****         in1 = (q15_t) x2;
 612              	 .loc 1 352 0 discriminator 1
 613 0536 97F97531 	 ldrsb r3,[r7,#373]
 614 053a A7F84231 	 strh r3,[r7,#322]
 353:../Dave/Generated/CMSIS_DSP/FilteringFunctions/arm_conv_q7.c ****         in2 = (q15_t) x3;
 615              	 .loc 1 353 0 discriminator 1
 616 053e 97F92931 	 ldrsb r3,[r7,#297]
 617 0542 A7F84031 	 strh r3,[r7,#320]
 354:../Dave/Generated/CMSIS_DSP/FilteringFunctions/arm_conv_q7.c **** 
 355:../Dave/Generated/CMSIS_DSP/FilteringFunctions/arm_conv_q7.c ****         input1 = ((q31_t) in1 & 0x0000FFFF) | ((q31_t) in2 << 16u);
 618              	 .loc 1 355 0 discriminator 1
 619 0546 B7F94231 	 ldrsh r3,[r7,#322]
 620 054a 9AB2     	 uxth r2,r3
 621 054c B7F94031 	 ldrsh r3,[r7,#320]
 622 0550 1B04     	 lsls r3,r3,#16
 623 0552 1343     	 orrs r3,r3,r2
 624 0554 C7F83C31 	 str r3,[r7,#316]
 356:../Dave/Generated/CMSIS_DSP/FilteringFunctions/arm_conv_q7.c **** 
 357:../Dave/Generated/CMSIS_DSP/FilteringFunctions/arm_conv_q7.c ****         /* y[srcBLen - 3] and y[srcBLen - 4] are packed */
 358:../Dave/Generated/CMSIS_DSP/FilteringFunctions/arm_conv_q7.c ****         in1 = (q15_t) c0;
 625              	 .loc 1 358 0 discriminator 1
 626 0558 97F92B31 	 ldrsb r3,[r7,#299]
 627 055c A7F84231 	 strh r3,[r7,#322]
 359:../Dave/Generated/CMSIS_DSP/FilteringFunctions/arm_conv_q7.c ****         in2 = (q15_t) c1;
 628              	 .loc 1 359 0 discriminator 1
 629 0560 97F92A31 	 ldrsb r3,[r7,#298]
 630 0564 A7F84031 	 strh r3,[r7,#320]
 360:../Dave/Generated/CMSIS_DSP/FilteringFunctions/arm_conv_q7.c **** 
 361:../Dave/Generated/CMSIS_DSP/FilteringFunctions/arm_conv_q7.c ****         input2 = ((q31_t) in1 & 0x0000FFFF) | ((q31_t) in2 << 16u);
 631              	 .loc 1 361 0 discriminator 1
 632 0568 B7F94231 	 ldrsh r3,[r7,#322]
 633 056c 9AB2     	 uxth r2,r3
 634 056e B7F94031 	 ldrsh r3,[r7,#320]
 635 0572 1B04     	 lsls r3,r3,#16
 636 0574 1343     	 orrs r3,r3,r2
 637 0576 C7F83831 	 str r3,[r7,#312]
 362:../Dave/Generated/CMSIS_DSP/FilteringFunctions/arm_conv_q7.c **** 
 363:../Dave/Generated/CMSIS_DSP/FilteringFunctions/arm_conv_q7.c ****         /* acc0 += x[2] * y[srcBLen - 3] + x[3] * y[srcBLen - 4]  */
 364:../Dave/Generated/CMSIS_DSP/FilteringFunctions/arm_conv_q7.c ****         acc0 = __SMLAD(input1, input2, acc0);
 638              	 .loc 1 364 0 discriminator 1
 639 057a D7F83C01 	 ldr r0,[r7,#316]
 640 057e D7F83811 	 ldr r1,[r7,#312]
 641 0582 D7F86C21 	 ldr r2,[r7,#364]
 642 0586 07F18C03 	 add r3,r7,#140
 643 058a 1860     	 str r0,[r3]
 644 058c 07F18803 	 add r3,r7,#136
 645 0590 1960     	 str r1,[r3]
 646 0592 07F18403 	 add r3,r7,#132
 647 0596 1A60     	 str r2,[r3]
 648              	.LBB51:
 649              	.LBB52:
 507:C:\Users\Depes Crystalline\Desktop\school\Active_Bike_Lighting_System\Radar_Core/Libraries/CMSIS/Include\core_cmSimd.h ****   return(result);
 650              	 .loc 2 507 0 discriminator 1
 651 0598 07F18C03 	 add r3,r7,#140
 652 059c 1B68     	 ldr r3,[r3]
 653 059e 07F18802 	 add r2,r7,#136
 654 05a2 1268     	 ldr r2,[r2]
 655 05a4 07F18401 	 add r1,r7,#132
 656 05a8 0968     	 ldr r1,[r1]
 657              	
 658 05aa 23FB0212 	 smlad r2,r3,r2,r1
 659              	
 660              	 .thumb
 661 05ae 07F18003 	 add r3,r7,#128
 662 05b2 1A60     	 str r2,[r3]
 663              	 .loc 2 508 0 discriminator 1
 664 05b4 07F18003 	 add r3,r7,#128
 665 05b8 1B68     	 ldr r3,[r3]
 666              	.LBE52:
 667              	.LBE51:
 668              	 .loc 1 364 0 discriminator 1
 669 05ba C7F86C31 	 str r3,[r7,#364]
 365:../Dave/Generated/CMSIS_DSP/FilteringFunctions/arm_conv_q7.c **** 
 366:../Dave/Generated/CMSIS_DSP/FilteringFunctions/arm_conv_q7.c ****         /* x[3] and x[4] are packed */
 367:../Dave/Generated/CMSIS_DSP/FilteringFunctions/arm_conv_q7.c ****         in1 = (q15_t) x3;
 670              	 .loc 1 367 0 discriminator 1
 671 05be 97F92931 	 ldrsb r3,[r7,#297]
 672 05c2 A7F84231 	 strh r3,[r7,#322]
 368:../Dave/Generated/CMSIS_DSP/FilteringFunctions/arm_conv_q7.c ****         in2 = (q15_t) x0;
 673              	 .loc 1 368 0 discriminator 1
 674 05c6 97F97731 	 ldrsb r3,[r7,#375]
 675 05ca A7F84031 	 strh r3,[r7,#320]
 369:../Dave/Generated/CMSIS_DSP/FilteringFunctions/arm_conv_q7.c **** 
 370:../Dave/Generated/CMSIS_DSP/FilteringFunctions/arm_conv_q7.c ****         input1 = ((q31_t) in1 & 0x0000FFFF) | ((q31_t) in2 << 16u);
 676              	 .loc 1 370 0 discriminator 1
 677 05ce B7F94231 	 ldrsh r3,[r7,#322]
 678 05d2 9AB2     	 uxth r2,r3
 679 05d4 B7F94031 	 ldrsh r3,[r7,#320]
 680 05d8 1B04     	 lsls r3,r3,#16
 681 05da 1343     	 orrs r3,r3,r2
 682 05dc C7F83C31 	 str r3,[r7,#316]
 371:../Dave/Generated/CMSIS_DSP/FilteringFunctions/arm_conv_q7.c **** 
 372:../Dave/Generated/CMSIS_DSP/FilteringFunctions/arm_conv_q7.c ****         /* acc1 += x[3] * y[srcBLen - 3] + x[4] * y[srcBLen - 4]  */
 373:../Dave/Generated/CMSIS_DSP/FilteringFunctions/arm_conv_q7.c ****         acc1 = __SMLAD(input1, input2, acc1);
 683              	 .loc 1 373 0 discriminator 1
 684 05e0 D7F83C01 	 ldr r0,[r7,#316]
 685 05e4 D7F83811 	 ldr r1,[r7,#312]
 686 05e8 D7F86821 	 ldr r2,[r7,#360]
 687 05ec 07F17C03 	 add r3,r7,#124
 688 05f0 1860     	 str r0,[r3]
 689 05f2 07F17803 	 add r3,r7,#120
 690 05f6 1960     	 str r1,[r3]
 691 05f8 07F17403 	 add r3,r7,#116
 692 05fc 1A60     	 str r2,[r3]
 693              	.LBB53:
 694              	.LBB54:
 507:C:\Users\Depes Crystalline\Desktop\school\Active_Bike_Lighting_System\Radar_Core/Libraries/CMSIS/Include\core_cmSimd.h ****   return(result);
 695              	 .loc 2 507 0 discriminator 1
 696 05fe 07F17C03 	 add r3,r7,#124
 697 0602 1B68     	 ldr r3,[r3]
 698 0604 07F17802 	 add r2,r7,#120
 699 0608 1268     	 ldr r2,[r2]
 700 060a 07F17401 	 add r1,r7,#116
 701 060e 0968     	 ldr r1,[r1]
 702              	
 703 0610 23FB0212 	 smlad r2,r3,r2,r1
 704              	
 705              	 .thumb
 706 0614 07F17003 	 add r3,r7,#112
 707 0618 1A60     	 str r2,[r3]
 708              	 .loc 2 508 0 discriminator 1
 709 061a 07F17003 	 add r3,r7,#112
 710 061e 1B68     	 ldr r3,[r3]
 711              	.LBE54:
 712              	.LBE53:
 713              	 .loc 1 373 0 discriminator 1
 714 0620 C7F86831 	 str r3,[r7,#360]
 374:../Dave/Generated/CMSIS_DSP/FilteringFunctions/arm_conv_q7.c **** 
 375:../Dave/Generated/CMSIS_DSP/FilteringFunctions/arm_conv_q7.c ****         /* x[4] and x[5] are packed */
 376:../Dave/Generated/CMSIS_DSP/FilteringFunctions/arm_conv_q7.c ****         in1 = (q15_t) x0;
 715              	 .loc 1 376 0 discriminator 1
 716 0624 97F97731 	 ldrsb r3,[r7,#375]
 717 0628 A7F84231 	 strh r3,[r7,#322]
 377:../Dave/Generated/CMSIS_DSP/FilteringFunctions/arm_conv_q7.c ****         in2 = (q15_t) x1;
 718              	 .loc 1 377 0 discriminator 1
 719 062c 97F97631 	 ldrsb r3,[r7,#374]
 720 0630 A7F84031 	 strh r3,[r7,#320]
 378:../Dave/Generated/CMSIS_DSP/FilteringFunctions/arm_conv_q7.c **** 
 379:../Dave/Generated/CMSIS_DSP/FilteringFunctions/arm_conv_q7.c ****         input1 = ((q31_t) in1 & 0x0000FFFF) | ((q31_t) in2 << 16u);
 721              	 .loc 1 379 0 discriminator 1
 722 0634 B7F94231 	 ldrsh r3,[r7,#322]
 723 0638 9AB2     	 uxth r2,r3
 724 063a B7F94031 	 ldrsh r3,[r7,#320]
 725 063e 1B04     	 lsls r3,r3,#16
 726 0640 1343     	 orrs r3,r3,r2
 727 0642 C7F83C31 	 str r3,[r7,#316]
 380:../Dave/Generated/CMSIS_DSP/FilteringFunctions/arm_conv_q7.c **** 
 381:../Dave/Generated/CMSIS_DSP/FilteringFunctions/arm_conv_q7.c ****         /* acc2 += x[4] * y[srcBLen - 3] + x[5] * y[srcBLen - 4]  */
 382:../Dave/Generated/CMSIS_DSP/FilteringFunctions/arm_conv_q7.c ****         acc2 = __SMLAD(input1, input2, acc2);
 728              	 .loc 1 382 0 discriminator 1
 729 0646 D7F83C01 	 ldr r0,[r7,#316]
 730 064a D7F83811 	 ldr r1,[r7,#312]
 731 064e D7F86421 	 ldr r2,[r7,#356]
 732 0652 07F16C03 	 add r3,r7,#108
 733 0656 1860     	 str r0,[r3]
 734 0658 07F16803 	 add r3,r7,#104
 735 065c 1960     	 str r1,[r3]
 736 065e 07F16403 	 add r3,r7,#100
 737 0662 1A60     	 str r2,[r3]
 738              	.LBB55:
 739              	.LBB56:
 507:C:\Users\Depes Crystalline\Desktop\school\Active_Bike_Lighting_System\Radar_Core/Libraries/CMSIS/Include\core_cmSimd.h ****   return(result);
 740              	 .loc 2 507 0 discriminator 1
 741 0664 07F16C03 	 add r3,r7,#108
 742 0668 1B68     	 ldr r3,[r3]
 743 066a 07F16802 	 add r2,r7,#104
 744 066e 1268     	 ldr r2,[r2]
 745 0670 07F16401 	 add r1,r7,#100
 746 0674 0968     	 ldr r1,[r1]
 747              	
 748 0676 23FB0212 	 smlad r2,r3,r2,r1
 749              	
 750              	 .thumb
 751 067a 07F16003 	 add r3,r7,#96
 752 067e 1A60     	 str r2,[r3]
 753              	 .loc 2 508 0 discriminator 1
 754 0680 07F16003 	 add r3,r7,#96
 755 0684 1B68     	 ldr r3,[r3]
 756              	.LBE56:
 757              	.LBE55:
 758              	 .loc 1 382 0 discriminator 1
 759 0686 C7F86431 	 str r3,[r7,#356]
 383:../Dave/Generated/CMSIS_DSP/FilteringFunctions/arm_conv_q7.c **** 
 384:../Dave/Generated/CMSIS_DSP/FilteringFunctions/arm_conv_q7.c ****         /* Read x[6] sample */
 385:../Dave/Generated/CMSIS_DSP/FilteringFunctions/arm_conv_q7.c ****         x2 = *(px++);
 760              	 .loc 1 385 0 discriminator 1
 761 068a D7F88031 	 ldr r3,[r7,#384]
 762 068e 5A1C     	 adds r2,r3,#1
 763 0690 C7F88021 	 str r2,[r7,#384]
 764 0694 1B78     	 ldrb r3,[r3]
 765 0696 87F87531 	 strb r3,[r7,#373]
 386:../Dave/Generated/CMSIS_DSP/FilteringFunctions/arm_conv_q7.c **** 
 387:../Dave/Generated/CMSIS_DSP/FilteringFunctions/arm_conv_q7.c ****         /* x[5] and x[6] are packed */
 388:../Dave/Generated/CMSIS_DSP/FilteringFunctions/arm_conv_q7.c ****         in1 = (q15_t) x1;
 766              	 .loc 1 388 0 discriminator 1
 767 069a 97F97631 	 ldrsb r3,[r7,#374]
 768 069e A7F84231 	 strh r3,[r7,#322]
 389:../Dave/Generated/CMSIS_DSP/FilteringFunctions/arm_conv_q7.c ****         in2 = (q15_t) x2;
 769              	 .loc 1 389 0 discriminator 1
 770 06a2 97F97531 	 ldrsb r3,[r7,#373]
 771 06a6 A7F84031 	 strh r3,[r7,#320]
 390:../Dave/Generated/CMSIS_DSP/FilteringFunctions/arm_conv_q7.c **** 
 391:../Dave/Generated/CMSIS_DSP/FilteringFunctions/arm_conv_q7.c ****         input1 = ((q31_t) in1 & 0x0000FFFF) | ((q31_t) in2 << 16u);
 772              	 .loc 1 391 0 discriminator 1
 773 06aa B7F94231 	 ldrsh r3,[r7,#322]
 774 06ae 9AB2     	 uxth r2,r3
 775 06b0 B7F94031 	 ldrsh r3,[r7,#320]
 776 06b4 1B04     	 lsls r3,r3,#16
 777 06b6 1343     	 orrs r3,r3,r2
 778 06b8 C7F83C31 	 str r3,[r7,#316]
 392:../Dave/Generated/CMSIS_DSP/FilteringFunctions/arm_conv_q7.c **** 
 393:../Dave/Generated/CMSIS_DSP/FilteringFunctions/arm_conv_q7.c ****         /* acc3 += x[5] * y[srcBLen - 3] + x[6] * y[srcBLen - 4]  */
 394:../Dave/Generated/CMSIS_DSP/FilteringFunctions/arm_conv_q7.c ****         acc3 = __SMLAD(input1, input2, acc3);
 779              	 .loc 1 394 0 discriminator 1
 780 06bc D7F83C01 	 ldr r0,[r7,#316]
 781 06c0 D7F83811 	 ldr r1,[r7,#312]
 782 06c4 D7F86021 	 ldr r2,[r7,#352]
 783 06c8 07F15C03 	 add r3,r7,#92
 784 06cc 1860     	 str r0,[r3]
 785 06ce 07F15803 	 add r3,r7,#88
 786 06d2 1960     	 str r1,[r3]
 787 06d4 07F15403 	 add r3,r7,#84
 788 06d8 1A60     	 str r2,[r3]
 789              	.LBB57:
 790              	.LBB58:
 507:C:\Users\Depes Crystalline\Desktop\school\Active_Bike_Lighting_System\Radar_Core/Libraries/CMSIS/Include\core_cmSimd.h ****   return(result);
 791              	 .loc 2 507 0 discriminator 1
 792 06da 07F15C03 	 add r3,r7,#92
 793 06de 1B68     	 ldr r3,[r3]
 794 06e0 07F15802 	 add r2,r7,#88
 795 06e4 1268     	 ldr r2,[r2]
 796 06e6 07F15401 	 add r1,r7,#84
 797 06ea 0968     	 ldr r1,[r1]
 798              	
 799 06ec 23FB0212 	 smlad r2,r3,r2,r1
 800              	
 801              	 .thumb
 802 06f0 07F15003 	 add r3,r7,#80
 803 06f4 1A60     	 str r2,[r3]
 804              	 .loc 2 508 0 discriminator 1
 805 06f6 07F15003 	 add r3,r7,#80
 806 06fa 1B68     	 ldr r3,[r3]
 807              	.LBE58:
 808              	.LBE57:
 809              	 .loc 1 394 0 discriminator 1
 810 06fc C7F86031 	 str r3,[r7,#352]
 395:../Dave/Generated/CMSIS_DSP/FilteringFunctions/arm_conv_q7.c **** 
 396:../Dave/Generated/CMSIS_DSP/FilteringFunctions/arm_conv_q7.c ****       } while(--k);
 811              	 .loc 1 396 0 discriminator 1
 812 0700 D7F85C31 	 ldr r3,[r7,#348]
 813 0704 013B     	 subs r3,r3,#1
 814 0706 C7F85C31 	 str r3,[r7,#348]
 815 070a D7F85C31 	 ldr r3,[r7,#348]
 816 070e 002B     	 cmp r3,#0
 817 0710 7FF41AAE 	 bne .L22
 397:../Dave/Generated/CMSIS_DSP/FilteringFunctions/arm_conv_q7.c **** 
 398:../Dave/Generated/CMSIS_DSP/FilteringFunctions/arm_conv_q7.c ****       /* If the srcBLen is not a multiple of 4, compute any remaining MACs here.   
 399:../Dave/Generated/CMSIS_DSP/FilteringFunctions/arm_conv_q7.c ****        ** No loop unrolling is used. */
 400:../Dave/Generated/CMSIS_DSP/FilteringFunctions/arm_conv_q7.c ****       k = srcBLen % 0x4u;
 818              	 .loc 1 400 0
 819 0714 3B46     	 mov r3,r7
 820 0716 1B68     	 ldr r3,[r3]
 821 0718 03F00303 	 and r3,r3,#3
 822 071c C7F85C31 	 str r3,[r7,#348]
 401:../Dave/Generated/CMSIS_DSP/FilteringFunctions/arm_conv_q7.c **** 
 402:../Dave/Generated/CMSIS_DSP/FilteringFunctions/arm_conv_q7.c ****       while(k > 0u)
 823              	 .loc 1 402 0
 824 0720 4CE0     	 b .L23
 825              	.L24:
 403:../Dave/Generated/CMSIS_DSP/FilteringFunctions/arm_conv_q7.c ****       {
 404:../Dave/Generated/CMSIS_DSP/FilteringFunctions/arm_conv_q7.c ****         /* Read y[srcBLen - 5] sample */
 405:../Dave/Generated/CMSIS_DSP/FilteringFunctions/arm_conv_q7.c ****         c0 = *(py--);
 826              	 .loc 1 405 0
 827 0722 D7F87C31 	 ldr r3,[r7,#380]
 828 0726 5A1E     	 subs r2,r3,#1
 829 0728 C7F87C21 	 str r2,[r7,#380]
 830 072c 1B78     	 ldrb r3,[r3]
 831 072e 87F82B31 	 strb r3,[r7,#299]
 406:../Dave/Generated/CMSIS_DSP/FilteringFunctions/arm_conv_q7.c **** 
 407:../Dave/Generated/CMSIS_DSP/FilteringFunctions/arm_conv_q7.c ****         /* Read x[7] sample */
 408:../Dave/Generated/CMSIS_DSP/FilteringFunctions/arm_conv_q7.c ****         x3 = *(px++);
 832              	 .loc 1 408 0
 833 0732 D7F88031 	 ldr r3,[r7,#384]
 834 0736 5A1C     	 adds r2,r3,#1
 835 0738 C7F88021 	 str r2,[r7,#384]
 836 073c 1B78     	 ldrb r3,[r3]
 837 073e 87F82931 	 strb r3,[r7,#297]
 409:../Dave/Generated/CMSIS_DSP/FilteringFunctions/arm_conv_q7.c **** 
 410:../Dave/Generated/CMSIS_DSP/FilteringFunctions/arm_conv_q7.c ****         /* Perform the multiply-accumulates */
 411:../Dave/Generated/CMSIS_DSP/FilteringFunctions/arm_conv_q7.c ****         /* acc0 +=  x[4] * y[srcBLen - 5] */
 412:../Dave/Generated/CMSIS_DSP/FilteringFunctions/arm_conv_q7.c ****         acc0 += ((q15_t) x0 * c0);
 838              	 .loc 1 412 0
 839 0742 97F97731 	 ldrsb r3,[r7,#375]
 840 0746 97F92B21 	 ldrsb r2,[r7,#299]
 841 074a 02FB03F3 	 mul r3,r2,r3
 842 074e D7F86C21 	 ldr r2,[r7,#364]
 843 0752 1344     	 add r3,r3,r2
 844 0754 C7F86C31 	 str r3,[r7,#364]
 413:../Dave/Generated/CMSIS_DSP/FilteringFunctions/arm_conv_q7.c ****         /* acc1 +=  x[5] * y[srcBLen - 5] */
 414:../Dave/Generated/CMSIS_DSP/FilteringFunctions/arm_conv_q7.c ****         acc1 += ((q15_t) x1 * c0);
 845              	 .loc 1 414 0
 846 0758 97F97631 	 ldrsb r3,[r7,#374]
 847 075c 97F92B21 	 ldrsb r2,[r7,#299]
 848 0760 02FB03F3 	 mul r3,r2,r3
 849 0764 D7F86821 	 ldr r2,[r7,#360]
 850 0768 1344     	 add r3,r3,r2
 851 076a C7F86831 	 str r3,[r7,#360]
 415:../Dave/Generated/CMSIS_DSP/FilteringFunctions/arm_conv_q7.c ****         /* acc2 +=  x[6] * y[srcBLen - 5] */
 416:../Dave/Generated/CMSIS_DSP/FilteringFunctions/arm_conv_q7.c ****         acc2 += ((q15_t) x2 * c0);
 852              	 .loc 1 416 0
 853 076e 97F97531 	 ldrsb r3,[r7,#373]
 854 0772 97F92B21 	 ldrsb r2,[r7,#299]
 855 0776 02FB03F3 	 mul r3,r2,r3
 856 077a D7F86421 	 ldr r2,[r7,#356]
 857 077e 1344     	 add r3,r3,r2
 858 0780 C7F86431 	 str r3,[r7,#356]
 417:../Dave/Generated/CMSIS_DSP/FilteringFunctions/arm_conv_q7.c ****         /* acc3 +=  x[7] * y[srcBLen - 5] */
 418:../Dave/Generated/CMSIS_DSP/FilteringFunctions/arm_conv_q7.c ****         acc3 += ((q15_t) x3 * c0);
 859              	 .loc 1 418 0
 860 0784 97F92931 	 ldrsb r3,[r7,#297]
 861 0788 97F92B21 	 ldrsb r2,[r7,#299]
 862 078c 02FB03F3 	 mul r3,r2,r3
 863 0790 D7F86021 	 ldr r2,[r7,#352]
 864 0794 1344     	 add r3,r3,r2
 865 0796 C7F86031 	 str r3,[r7,#352]
 419:../Dave/Generated/CMSIS_DSP/FilteringFunctions/arm_conv_q7.c **** 
 420:../Dave/Generated/CMSIS_DSP/FilteringFunctions/arm_conv_q7.c ****         /* Reuse the present samples for the next MAC */
 421:../Dave/Generated/CMSIS_DSP/FilteringFunctions/arm_conv_q7.c ****         x0 = x1;
 866              	 .loc 1 421 0
 867 079a 97F87631 	 ldrb r3,[r7,#374]
 868 079e 87F87731 	 strb r3,[r7,#375]
 422:../Dave/Generated/CMSIS_DSP/FilteringFunctions/arm_conv_q7.c ****         x1 = x2;
 869              	 .loc 1 422 0
 870 07a2 97F87531 	 ldrb r3,[r7,#373]
 871 07a6 87F87631 	 strb r3,[r7,#374]
 423:../Dave/Generated/CMSIS_DSP/FilteringFunctions/arm_conv_q7.c ****         x2 = x3;
 872              	 .loc 1 423 0
 873 07aa 97F82931 	 ldrb r3,[r7,#297]
 874 07ae 87F87531 	 strb r3,[r7,#373]
 424:../Dave/Generated/CMSIS_DSP/FilteringFunctions/arm_conv_q7.c **** 
 425:../Dave/Generated/CMSIS_DSP/FilteringFunctions/arm_conv_q7.c ****         /* Decrement the loop counter */
 426:../Dave/Generated/CMSIS_DSP/FilteringFunctions/arm_conv_q7.c ****         k--;
 875              	 .loc 1 426 0
 876 07b2 D7F85C31 	 ldr r3,[r7,#348]
 877 07b6 013B     	 subs r3,r3,#1
 878 07b8 C7F85C31 	 str r3,[r7,#348]
 879              	.L23:
 402:../Dave/Generated/CMSIS_DSP/FilteringFunctions/arm_conv_q7.c ****       {
 880              	 .loc 1 402 0
 881 07bc D7F85C31 	 ldr r3,[r7,#348]
 882 07c0 002B     	 cmp r3,#0
 883 07c2 AED1     	 bne .L24
 427:../Dave/Generated/CMSIS_DSP/FilteringFunctions/arm_conv_q7.c ****       }
 428:../Dave/Generated/CMSIS_DSP/FilteringFunctions/arm_conv_q7.c **** 
 429:../Dave/Generated/CMSIS_DSP/FilteringFunctions/arm_conv_q7.c **** 
 430:../Dave/Generated/CMSIS_DSP/FilteringFunctions/arm_conv_q7.c ****       /* Store the result in the accumulator in the destination buffer. */
 431:../Dave/Generated/CMSIS_DSP/FilteringFunctions/arm_conv_q7.c ****       *pOut++ = (q7_t) (__SSAT(acc0 >> 7u, 8));
 884              	 .loc 1 431 0
 885 07c4 D7F88431 	 ldr r3,[r7,#388]
 886 07c8 5A1C     	 adds r2,r3,#1
 887 07ca C7F88421 	 str r2,[r7,#388]
 888              	.LBB59:
 889 07ce D7F86C21 	 ldr r2,[r7,#364]
 890 07d2 D211     	 asrs r2,r2,#7
 891 07d4 C7F82421 	 str r2,[r7,#292]
 892 07d8 D7F82421 	 ldr r2,[r7,#292]
 893              	
 894 07dc 02F30702 	 ssat r2,#8,r2
 895              	
 896              	 .thumb
 897 07e0 C7F82021 	 str r2,[r7,#288]
 898 07e4 D7F82021 	 ldr r2,[r7,#288]
 899              	.LBE59:
 900 07e8 D2B2     	 uxtb r2,r2
 901 07ea 1A70     	 strb r2,[r3]
 432:../Dave/Generated/CMSIS_DSP/FilteringFunctions/arm_conv_q7.c ****       *pOut++ = (q7_t) (__SSAT(acc1 >> 7u, 8));
 902              	 .loc 1 432 0
 903 07ec D7F88431 	 ldr r3,[r7,#388]
 904 07f0 5A1C     	 adds r2,r3,#1
 905 07f2 C7F88421 	 str r2,[r7,#388]
 906              	.LBB60:
 907 07f6 D7F86821 	 ldr r2,[r7,#360]
 908 07fa D211     	 asrs r2,r2,#7
 909 07fc C7F81C21 	 str r2,[r7,#284]
 910 0800 D7F81C21 	 ldr r2,[r7,#284]
 911              	
 912 0804 02F30702 	 ssat r2,#8,r2
 913              	
 914              	 .thumb
 915 0808 C7F81821 	 str r2,[r7,#280]
 916 080c D7F81821 	 ldr r2,[r7,#280]
 917              	.LBE60:
 918 0810 D2B2     	 uxtb r2,r2
 919 0812 1A70     	 strb r2,[r3]
 433:../Dave/Generated/CMSIS_DSP/FilteringFunctions/arm_conv_q7.c ****       *pOut++ = (q7_t) (__SSAT(acc2 >> 7u, 8));
 920              	 .loc 1 433 0
 921 0814 D7F88431 	 ldr r3,[r7,#388]
 922 0818 5A1C     	 adds r2,r3,#1
 923 081a C7F88421 	 str r2,[r7,#388]
 924              	.LBB61:
 925 081e D7F86421 	 ldr r2,[r7,#356]
 926 0822 D211     	 asrs r2,r2,#7
 927 0824 C7F81421 	 str r2,[r7,#276]
 928 0828 D7F81421 	 ldr r2,[r7,#276]
 929              	
 930 082c 02F30702 	 ssat r2,#8,r2
 931              	
 932              	 .thumb
 933 0830 C7F81021 	 str r2,[r7,#272]
 934 0834 D7F81021 	 ldr r2,[r7,#272]
 935              	.LBE61:
 936 0838 D2B2     	 uxtb r2,r2
 937 083a 1A70     	 strb r2,[r3]
 434:../Dave/Generated/CMSIS_DSP/FilteringFunctions/arm_conv_q7.c ****       *pOut++ = (q7_t) (__SSAT(acc3 >> 7u, 8));
 938              	 .loc 1 434 0
 939 083c D7F88431 	 ldr r3,[r7,#388]
 940 0840 5A1C     	 adds r2,r3,#1
 941 0842 C7F88421 	 str r2,[r7,#388]
 942              	.LBB62:
 943 0846 D7F86021 	 ldr r2,[r7,#352]
 944 084a D211     	 asrs r2,r2,#7
 945 084c C7F80C21 	 str r2,[r7,#268]
 946 0850 D7F80C21 	 ldr r2,[r7,#268]
 947              	
 948 0854 02F30702 	 ssat r2,#8,r2
 949              	
 950              	 .thumb
 951 0858 C7F80821 	 str r2,[r7,#264]
 952 085c D7F80821 	 ldr r2,[r7,#264]
 953              	.LBE62:
 954 0860 D2B2     	 uxtb r2,r2
 955 0862 1A70     	 strb r2,[r3]
 435:../Dave/Generated/CMSIS_DSP/FilteringFunctions/arm_conv_q7.c **** 
 436:../Dave/Generated/CMSIS_DSP/FilteringFunctions/arm_conv_q7.c ****       /* Increment the pointer pIn1 index, count by 4 */
 437:../Dave/Generated/CMSIS_DSP/FilteringFunctions/arm_conv_q7.c ****       count += 4u;
 956              	 .loc 1 437 0
 957 0864 D7F85831 	 ldr r3,[r7,#344]
 958 0868 0433     	 adds r3,r3,#4
 959 086a C7F85831 	 str r3,[r7,#344]
 438:../Dave/Generated/CMSIS_DSP/FilteringFunctions/arm_conv_q7.c **** 
 439:../Dave/Generated/CMSIS_DSP/FilteringFunctions/arm_conv_q7.c ****       /* Update the inputA and inputB pointers for next MAC calculation */
 440:../Dave/Generated/CMSIS_DSP/FilteringFunctions/arm_conv_q7.c ****       px = pIn1 + count;
 960              	 .loc 1 440 0
 961 086e D7F88C21 	 ldr r2,[r7,#396]
 962 0872 D7F85831 	 ldr r3,[r7,#344]
 963 0876 1344     	 add r3,r3,r2
 964 0878 C7F88031 	 str r3,[r7,#384]
 441:../Dave/Generated/CMSIS_DSP/FilteringFunctions/arm_conv_q7.c ****       py = pSrc2;
 965              	 .loc 1 441 0
 966 087c D7F82C31 	 ldr r3,[r7,#300]
 967 0880 C7F87C31 	 str r3,[r7,#380]
 442:../Dave/Generated/CMSIS_DSP/FilteringFunctions/arm_conv_q7.c **** 
 443:../Dave/Generated/CMSIS_DSP/FilteringFunctions/arm_conv_q7.c ****       /* Decrement the loop counter */
 444:../Dave/Generated/CMSIS_DSP/FilteringFunctions/arm_conv_q7.c ****       blkCnt--;
 968              	 .loc 1 444 0
 969 0884 D7F85431 	 ldr r3,[r7,#340]
 970 0888 013B     	 subs r3,r3,#1
 971 088a C7F85431 	 str r3,[r7,#340]
 972              	.L13:
 270:../Dave/Generated/CMSIS_DSP/FilteringFunctions/arm_conv_q7.c ****     {
 973              	 .loc 1 270 0
 974 088e D7F85431 	 ldr r3,[r7,#340]
 975 0892 002B     	 cmp r3,#0
 976 0894 7FF42FAD 	 bne .L25
 445:../Dave/Generated/CMSIS_DSP/FilteringFunctions/arm_conv_q7.c ****     }
 446:../Dave/Generated/CMSIS_DSP/FilteringFunctions/arm_conv_q7.c **** 
 447:../Dave/Generated/CMSIS_DSP/FilteringFunctions/arm_conv_q7.c ****     /* If the blockSize2 is not a multiple of 4, compute any remaining output samples here.   
 448:../Dave/Generated/CMSIS_DSP/FilteringFunctions/arm_conv_q7.c ****      ** No loop unrolling is used. */
 449:../Dave/Generated/CMSIS_DSP/FilteringFunctions/arm_conv_q7.c ****     blkCnt = blockSize2 % 0x4u;
 977              	 .loc 1 449 0
 978 0898 D7F84431 	 ldr r3,[r7,#324]
 979 089c 03F00303 	 and r3,r3,#3
 980 08a0 C7F85431 	 str r3,[r7,#340]
 450:../Dave/Generated/CMSIS_DSP/FilteringFunctions/arm_conv_q7.c **** 
 451:../Dave/Generated/CMSIS_DSP/FilteringFunctions/arm_conv_q7.c ****     while(blkCnt > 0u)
 981              	 .loc 1 451 0
 982 08a4 10E1     	 b .L26
 983              	.L33:
 452:../Dave/Generated/CMSIS_DSP/FilteringFunctions/arm_conv_q7.c ****     {
 453:../Dave/Generated/CMSIS_DSP/FilteringFunctions/arm_conv_q7.c ****       /* Accumulator is made zero for every iteration */
 454:../Dave/Generated/CMSIS_DSP/FilteringFunctions/arm_conv_q7.c ****       sum = 0;
 984              	 .loc 1 454 0
 985 08a6 0023     	 movs r3,#0
 986 08a8 C7F87031 	 str r3,[r7,#368]
 455:../Dave/Generated/CMSIS_DSP/FilteringFunctions/arm_conv_q7.c **** 
 456:../Dave/Generated/CMSIS_DSP/FilteringFunctions/arm_conv_q7.c ****       /* Apply loop unrolling and compute 4 MACs simultaneously. */
 457:../Dave/Generated/CMSIS_DSP/FilteringFunctions/arm_conv_q7.c ****       k = srcBLen >> 2u;
 987              	 .loc 1 457 0
 988 08ac 3B46     	 mov r3,r7
 989 08ae 1B68     	 ldr r3,[r3]
 990 08b0 9B08     	 lsrs r3,r3,#2
 991 08b2 C7F85C31 	 str r3,[r7,#348]
 458:../Dave/Generated/CMSIS_DSP/FilteringFunctions/arm_conv_q7.c **** 
 459:../Dave/Generated/CMSIS_DSP/FilteringFunctions/arm_conv_q7.c ****       /* First part of the processing with loop unrolling.  Compute 4 MACs at a time.   
 460:../Dave/Generated/CMSIS_DSP/FilteringFunctions/arm_conv_q7.c ****        ** a second loop below computes MACs for the remaining 1 to 3 samples. */
 461:../Dave/Generated/CMSIS_DSP/FilteringFunctions/arm_conv_q7.c ****       while(k > 0u)
 992              	 .loc 1 461 0
 993 08b6 B4E0     	 b .L27
 994              	.L30:
 462:../Dave/Generated/CMSIS_DSP/FilteringFunctions/arm_conv_q7.c ****       {
 463:../Dave/Generated/CMSIS_DSP/FilteringFunctions/arm_conv_q7.c **** 
 464:../Dave/Generated/CMSIS_DSP/FilteringFunctions/arm_conv_q7.c ****         /* Reading two inputs of SrcA buffer and packing */
 465:../Dave/Generated/CMSIS_DSP/FilteringFunctions/arm_conv_q7.c ****         in1 = (q15_t) * px++;
 995              	 .loc 1 465 0
 996 08b8 D7F88031 	 ldr r3,[r7,#384]
 997 08bc 5A1C     	 adds r2,r3,#1
 998 08be C7F88021 	 str r2,[r7,#384]
 999 08c2 1B78     	 ldrb r3,[r3]
 1000 08c4 5BB2     	 sxtb r3,r3
 1001 08c6 A7F84231 	 strh r3,[r7,#322]
 466:../Dave/Generated/CMSIS_DSP/FilteringFunctions/arm_conv_q7.c ****         in2 = (q15_t) * px++;
 1002              	 .loc 1 466 0
 1003 08ca D7F88031 	 ldr r3,[r7,#384]
 1004 08ce 5A1C     	 adds r2,r3,#1
 1005 08d0 C7F88021 	 str r2,[r7,#384]
 1006 08d4 1B78     	 ldrb r3,[r3]
 1007 08d6 5BB2     	 sxtb r3,r3
 1008 08d8 A7F84031 	 strh r3,[r7,#320]
 467:../Dave/Generated/CMSIS_DSP/FilteringFunctions/arm_conv_q7.c ****         input1 = ((q31_t) in1 & 0x0000FFFF) | ((q31_t) in2 << 16u);
 1009              	 .loc 1 467 0
 1010 08dc B7F94231 	 ldrsh r3,[r7,#322]
 1011 08e0 9AB2     	 uxth r2,r3
 1012 08e2 B7F94031 	 ldrsh r3,[r7,#320]
 1013 08e6 1B04     	 lsls r3,r3,#16
 1014 08e8 1343     	 orrs r3,r3,r2
 1015 08ea C7F83C31 	 str r3,[r7,#316]
 468:../Dave/Generated/CMSIS_DSP/FilteringFunctions/arm_conv_q7.c **** 
 469:../Dave/Generated/CMSIS_DSP/FilteringFunctions/arm_conv_q7.c ****         /* Reading two inputs of SrcB buffer and packing */
 470:../Dave/Generated/CMSIS_DSP/FilteringFunctions/arm_conv_q7.c ****         in1 = (q15_t) * py--;
 1016              	 .loc 1 470 0
 1017 08ee D7F87C31 	 ldr r3,[r7,#380]
 1018 08f2 5A1E     	 subs r2,r3,#1
 1019 08f4 C7F87C21 	 str r2,[r7,#380]
 1020 08f8 1B78     	 ldrb r3,[r3]
 1021 08fa 5BB2     	 sxtb r3,r3
 1022 08fc A7F84231 	 strh r3,[r7,#322]
 471:../Dave/Generated/CMSIS_DSP/FilteringFunctions/arm_conv_q7.c ****         in2 = (q15_t) * py--;
 1023              	 .loc 1 471 0
 1024 0900 D7F87C31 	 ldr r3,[r7,#380]
 1025 0904 5A1E     	 subs r2,r3,#1
 1026 0906 C7F87C21 	 str r2,[r7,#380]
 1027 090a 1B78     	 ldrb r3,[r3]
 1028 090c 5BB2     	 sxtb r3,r3
 1029 090e A7F84031 	 strh r3,[r7,#320]
 472:../Dave/Generated/CMSIS_DSP/FilteringFunctions/arm_conv_q7.c ****         input2 = ((q31_t) in1 & 0x0000FFFF) | ((q31_t) in2 << 16u);
 1030              	 .loc 1 472 0
 1031 0912 B7F94231 	 ldrsh r3,[r7,#322]
 1032 0916 9AB2     	 uxth r2,r3
 1033 0918 B7F94031 	 ldrsh r3,[r7,#320]
 1034 091c 1B04     	 lsls r3,r3,#16
 1035 091e 1343     	 orrs r3,r3,r2
 1036 0920 C7F83831 	 str r3,[r7,#312]
 473:../Dave/Generated/CMSIS_DSP/FilteringFunctions/arm_conv_q7.c **** 
 474:../Dave/Generated/CMSIS_DSP/FilteringFunctions/arm_conv_q7.c ****         /* Perform the multiply-accumulates */
 475:../Dave/Generated/CMSIS_DSP/FilteringFunctions/arm_conv_q7.c ****         sum = __SMLAD(input1, input2, sum);
 1037              	 .loc 1 475 0
 1038 0924 D7F83C01 	 ldr r0,[r7,#316]
 1039 0928 D7F83811 	 ldr r1,[r7,#312]
 1040 092c D7F87021 	 ldr r2,[r7,#368]
 1041 0930 07F14C03 	 add r3,r7,#76
 1042 0934 1860     	 str r0,[r3]
 1043 0936 07F14803 	 add r3,r7,#72
 1044 093a 1960     	 str r1,[r3]
 1045 093c 07F14403 	 add r3,r7,#68
 1046 0940 1A60     	 str r2,[r3]
 1047              	.LBB63:
 1048              	.LBB64:
 507:C:\Users\Depes Crystalline\Desktop\school\Active_Bike_Lighting_System\Radar_Core/Libraries/CMSIS/Include\core_cmSimd.h ****   return(result);
 1049              	 .loc 2 507 0
 1050 0942 07F14C03 	 add r3,r7,#76
 1051 0946 1B68     	 ldr r3,[r3]
 1052 0948 07F14802 	 add r2,r7,#72
 1053 094c 1268     	 ldr r2,[r2]
 1054 094e 07F14401 	 add r1,r7,#68
 1055 0952 0968     	 ldr r1,[r1]
 1056              	
 1057 0954 23FB0212 	 smlad r2,r3,r2,r1
 1058              	
 1059              	 .thumb
 1060 0958 07F14003 	 add r3,r7,#64
 1061 095c 1A60     	 str r2,[r3]
 1062              	 .loc 2 508 0
 1063 095e 07F14003 	 add r3,r7,#64
 1064 0962 1B68     	 ldr r3,[r3]
 1065              	.LBE64:
 1066              	.LBE63:
 1067              	 .loc 1 475 0
 1068 0964 C7F87031 	 str r3,[r7,#368]
 476:../Dave/Generated/CMSIS_DSP/FilteringFunctions/arm_conv_q7.c **** 
 477:../Dave/Generated/CMSIS_DSP/FilteringFunctions/arm_conv_q7.c ****         /* Reading two inputs of SrcA buffer and packing */
 478:../Dave/Generated/CMSIS_DSP/FilteringFunctions/arm_conv_q7.c ****         in1 = (q15_t) * px++;
 1069              	 .loc 1 478 0
 1070 0968 D7F88031 	 ldr r3,[r7,#384]
 1071 096c 5A1C     	 adds r2,r3,#1
 1072 096e C7F88021 	 str r2,[r7,#384]
 1073 0972 1B78     	 ldrb r3,[r3]
 1074 0974 5BB2     	 sxtb r3,r3
 1075 0976 A7F84231 	 strh r3,[r7,#322]
 479:../Dave/Generated/CMSIS_DSP/FilteringFunctions/arm_conv_q7.c ****         in2 = (q15_t) * px++;
 1076              	 .loc 1 479 0
 1077 097a D7F88031 	 ldr r3,[r7,#384]
 1078 097e 5A1C     	 adds r2,r3,#1
 1079 0980 C7F88021 	 str r2,[r7,#384]
 1080 0984 1B78     	 ldrb r3,[r3]
 1081 0986 5BB2     	 sxtb r3,r3
 1082 0988 A7F84031 	 strh r3,[r7,#320]
 480:../Dave/Generated/CMSIS_DSP/FilteringFunctions/arm_conv_q7.c ****         input1 = ((q31_t) in1 & 0x0000FFFF) | ((q31_t) in2 << 16u);
 1083              	 .loc 1 480 0
 1084 098c B7F94231 	 ldrsh r3,[r7,#322]
 1085 0990 9AB2     	 uxth r2,r3
 1086 0992 B7F94031 	 ldrsh r3,[r7,#320]
 1087 0996 1B04     	 lsls r3,r3,#16
 1088 0998 1343     	 orrs r3,r3,r2
 1089 099a C7F83C31 	 str r3,[r7,#316]
 481:../Dave/Generated/CMSIS_DSP/FilteringFunctions/arm_conv_q7.c **** 
 482:../Dave/Generated/CMSIS_DSP/FilteringFunctions/arm_conv_q7.c ****         /* Reading two inputs of SrcB buffer and packing */
 483:../Dave/Generated/CMSIS_DSP/FilteringFunctions/arm_conv_q7.c ****         in1 = (q15_t) * py--;
 1090              	 .loc 1 483 0
 1091 099e D7F87C31 	 ldr r3,[r7,#380]
 1092 09a2 5A1E     	 subs r2,r3,#1
 1093 09a4 C7F87C21 	 str r2,[r7,#380]
 1094 09a8 1B78     	 ldrb r3,[r3]
 1095 09aa 5BB2     	 sxtb r3,r3
 1096 09ac A7F84231 	 strh r3,[r7,#322]
 484:../Dave/Generated/CMSIS_DSP/FilteringFunctions/arm_conv_q7.c ****         in2 = (q15_t) * py--;
 1097              	 .loc 1 484 0
 1098 09b0 D7F87C31 	 ldr r3,[r7,#380]
 1099 09b4 5A1E     	 subs r2,r3,#1
 1100 09b6 C7F87C21 	 str r2,[r7,#380]
 1101 09ba 1B78     	 ldrb r3,[r3]
 1102 09bc 5BB2     	 sxtb r3,r3
 1103 09be A7F84031 	 strh r3,[r7,#320]
 485:../Dave/Generated/CMSIS_DSP/FilteringFunctions/arm_conv_q7.c ****         input2 = ((q31_t) in1 & 0x0000FFFF) | ((q31_t) in2 << 16u);
 1104              	 .loc 1 485 0
 1105 09c2 B7F94231 	 ldrsh r3,[r7,#322]
 1106 09c6 9AB2     	 uxth r2,r3
 1107 09c8 B7F94031 	 ldrsh r3,[r7,#320]
 1108 09cc 1B04     	 lsls r3,r3,#16
 1109 09ce 1343     	 orrs r3,r3,r2
 1110 09d0 C7F83831 	 str r3,[r7,#312]
 486:../Dave/Generated/CMSIS_DSP/FilteringFunctions/arm_conv_q7.c **** 
 487:../Dave/Generated/CMSIS_DSP/FilteringFunctions/arm_conv_q7.c ****         /* Perform the multiply-accumulates */
 488:../Dave/Generated/CMSIS_DSP/FilteringFunctions/arm_conv_q7.c ****         sum = __SMLAD(input1, input2, sum);
 1111              	 .loc 1 488 0
 1112 09d4 D7F83C01 	 ldr r0,[r7,#316]
 1113 09d8 D7F83811 	 ldr r1,[r7,#312]
 1114 09dc D7F87021 	 ldr r2,[r7,#368]
 1115 09e0 07F13C03 	 add r3,r7,#60
 1116 09e4 1860     	 str r0,[r3]
 1117 09e6 07F13803 	 add r3,r7,#56
 1118 09ea 1960     	 str r1,[r3]
 1119 09ec 07F13403 	 add r3,r7,#52
 1120 09f0 1A60     	 str r2,[r3]
 1121              	.LBB65:
 1122              	.LBB66:
 507:C:\Users\Depes Crystalline\Desktop\school\Active_Bike_Lighting_System\Radar_Core/Libraries/CMSIS/Include\core_cmSimd.h ****   return(result);
 1123              	 .loc 2 507 0
 1124 09f2 07F13C03 	 add r3,r7,#60
 1125 09f6 1B68     	 ldr r3,[r3]
 1126 09f8 07F13802 	 add r2,r7,#56
 1127 09fc 1268     	 ldr r2,[r2]
 1128 09fe 07F13401 	 add r1,r7,#52
 1129 0a02 0968     	 ldr r1,[r1]
 1130              	
 1131 0a04 23FB0212 	 smlad r2,r3,r2,r1
 1132              	
 1133              	 .thumb
 1134 0a08 07F13003 	 add r3,r7,#48
 1135 0a0c 1A60     	 str r2,[r3]
 1136              	 .loc 2 508 0
 1137 0a0e 07F13003 	 add r3,r7,#48
 1138 0a12 1B68     	 ldr r3,[r3]
 1139              	.LBE66:
 1140              	.LBE65:
 1141              	 .loc 1 488 0
 1142 0a14 C7F87031 	 str r3,[r7,#368]
 489:../Dave/Generated/CMSIS_DSP/FilteringFunctions/arm_conv_q7.c **** 
 490:../Dave/Generated/CMSIS_DSP/FilteringFunctions/arm_conv_q7.c ****         /* Decrement the loop counter */
 491:../Dave/Generated/CMSIS_DSP/FilteringFunctions/arm_conv_q7.c ****         k--;
 1143              	 .loc 1 491 0
 1144 0a18 D7F85C31 	 ldr r3,[r7,#348]
 1145 0a1c 013B     	 subs r3,r3,#1
 1146 0a1e C7F85C31 	 str r3,[r7,#348]
 1147              	.L27:
 461:../Dave/Generated/CMSIS_DSP/FilteringFunctions/arm_conv_q7.c ****       {
 1148              	 .loc 1 461 0
 1149 0a22 D7F85C31 	 ldr r3,[r7,#348]
 1150 0a26 002B     	 cmp r3,#0
 1151 0a28 7FF446AF 	 bne .L30
 492:../Dave/Generated/CMSIS_DSP/FilteringFunctions/arm_conv_q7.c ****       }
 493:../Dave/Generated/CMSIS_DSP/FilteringFunctions/arm_conv_q7.c **** 
 494:../Dave/Generated/CMSIS_DSP/FilteringFunctions/arm_conv_q7.c ****       /* If the srcBLen is not a multiple of 4, compute any remaining MACs here.   
 495:../Dave/Generated/CMSIS_DSP/FilteringFunctions/arm_conv_q7.c ****        ** No loop unrolling is used. */
 496:../Dave/Generated/CMSIS_DSP/FilteringFunctions/arm_conv_q7.c ****       k = srcBLen % 0x4u;
 1152              	 .loc 1 496 0
 1153 0a2c 3B46     	 mov r3,r7
 1154 0a2e 1B68     	 ldr r3,[r3]
 1155 0a30 03F00303 	 and r3,r3,#3
 1156 0a34 C7F85C31 	 str r3,[r7,#348]
 497:../Dave/Generated/CMSIS_DSP/FilteringFunctions/arm_conv_q7.c **** 
 498:../Dave/Generated/CMSIS_DSP/FilteringFunctions/arm_conv_q7.c ****       while(k > 0u)
 1157              	 .loc 1 498 0
 1158 0a38 19E0     	 b .L31
 1159              	.L32:
 499:../Dave/Generated/CMSIS_DSP/FilteringFunctions/arm_conv_q7.c ****       {
 500:../Dave/Generated/CMSIS_DSP/FilteringFunctions/arm_conv_q7.c ****         /* Perform the multiply-accumulates */
 501:../Dave/Generated/CMSIS_DSP/FilteringFunctions/arm_conv_q7.c ****         sum += ((q15_t) * px++ * *py--);
 1160              	 .loc 1 501 0
 1161 0a3a D7F88031 	 ldr r3,[r7,#384]
 1162 0a3e 5A1C     	 adds r2,r3,#1
 1163 0a40 C7F88021 	 str r2,[r7,#384]
 1164 0a44 1B78     	 ldrb r3,[r3]
 1165 0a46 5AB2     	 sxtb r2,r3
 1166 0a48 D7F87C31 	 ldr r3,[r7,#380]
 1167 0a4c 591E     	 subs r1,r3,#1
 1168 0a4e C7F87C11 	 str r1,[r7,#380]
 1169 0a52 1B78     	 ldrb r3,[r3]
 1170 0a54 5BB2     	 sxtb r3,r3
 1171 0a56 03FB02F3 	 mul r3,r3,r2
 1172 0a5a D7F87021 	 ldr r2,[r7,#368]
 1173 0a5e 1344     	 add r3,r3,r2
 1174 0a60 C7F87031 	 str r3,[r7,#368]
 502:../Dave/Generated/CMSIS_DSP/FilteringFunctions/arm_conv_q7.c **** 
 503:../Dave/Generated/CMSIS_DSP/FilteringFunctions/arm_conv_q7.c ****         /* Decrement the loop counter */
 504:../Dave/Generated/CMSIS_DSP/FilteringFunctions/arm_conv_q7.c ****         k--;
 1175              	 .loc 1 504 0
 1176 0a64 D7F85C31 	 ldr r3,[r7,#348]
 1177 0a68 013B     	 subs r3,r3,#1
 1178 0a6a C7F85C31 	 str r3,[r7,#348]
 1179              	.L31:
 498:../Dave/Generated/CMSIS_DSP/FilteringFunctions/arm_conv_q7.c ****       {
 1180              	 .loc 1 498 0
 1181 0a6e D7F85C31 	 ldr r3,[r7,#348]
 1182 0a72 002B     	 cmp r3,#0
 1183 0a74 E1D1     	 bne .L32
 505:../Dave/Generated/CMSIS_DSP/FilteringFunctions/arm_conv_q7.c ****       }
 506:../Dave/Generated/CMSIS_DSP/FilteringFunctions/arm_conv_q7.c **** 
 507:../Dave/Generated/CMSIS_DSP/FilteringFunctions/arm_conv_q7.c ****       /* Store the result in the accumulator in the destination buffer. */
 508:../Dave/Generated/CMSIS_DSP/FilteringFunctions/arm_conv_q7.c ****       *pOut++ = (q7_t) (__SSAT(sum >> 7u, 8));
 1184              	 .loc 1 508 0
 1185 0a76 D7F88431 	 ldr r3,[r7,#388]
 1186 0a7a 5A1C     	 adds r2,r3,#1
 1187 0a7c C7F88421 	 str r2,[r7,#388]
 1188              	.LBB67:
 1189 0a80 D7F87021 	 ldr r2,[r7,#368]
 1190 0a84 D211     	 asrs r2,r2,#7
 1191 0a86 C7F80421 	 str r2,[r7,#260]
 1192 0a8a D7F80421 	 ldr r2,[r7,#260]
 1193              	
 1194 0a8e 02F30702 	 ssat r2,#8,r2
 1195              	
 1196              	 .thumb
 1197 0a92 C7F80021 	 str r2,[r7,#256]
 1198 0a96 D7F80021 	 ldr r2,[r7,#256]
 1199              	.LBE67:
 1200 0a9a D2B2     	 uxtb r2,r2
 1201 0a9c 1A70     	 strb r2,[r3]
 509:../Dave/Generated/CMSIS_DSP/FilteringFunctions/arm_conv_q7.c **** 
 510:../Dave/Generated/CMSIS_DSP/FilteringFunctions/arm_conv_q7.c ****       /* Increment the pointer pIn1 index, count by 1 */
 511:../Dave/Generated/CMSIS_DSP/FilteringFunctions/arm_conv_q7.c ****       count++;
 1202              	 .loc 1 511 0
 1203 0a9e D7F85831 	 ldr r3,[r7,#344]
 1204 0aa2 0133     	 adds r3,r3,#1
 1205 0aa4 C7F85831 	 str r3,[r7,#344]
 512:../Dave/Generated/CMSIS_DSP/FilteringFunctions/arm_conv_q7.c **** 
 513:../Dave/Generated/CMSIS_DSP/FilteringFunctions/arm_conv_q7.c ****       /* Update the inputA and inputB pointers for next MAC calculation */
 514:../Dave/Generated/CMSIS_DSP/FilteringFunctions/arm_conv_q7.c ****       px = pIn1 + count;
 1206              	 .loc 1 514 0
 1207 0aa8 D7F88C21 	 ldr r2,[r7,#396]
 1208 0aac D7F85831 	 ldr r3,[r7,#344]
 1209 0ab0 1344     	 add r3,r3,r2
 1210 0ab2 C7F88031 	 str r3,[r7,#384]
 515:../Dave/Generated/CMSIS_DSP/FilteringFunctions/arm_conv_q7.c ****       py = pSrc2;
 1211              	 .loc 1 515 0
 1212 0ab6 D7F82C31 	 ldr r3,[r7,#300]
 1213 0aba C7F87C31 	 str r3,[r7,#380]
 516:../Dave/Generated/CMSIS_DSP/FilteringFunctions/arm_conv_q7.c **** 
 517:../Dave/Generated/CMSIS_DSP/FilteringFunctions/arm_conv_q7.c ****       /* Decrement the loop counter */
 518:../Dave/Generated/CMSIS_DSP/FilteringFunctions/arm_conv_q7.c ****       blkCnt--;
 1214              	 .loc 1 518 0
 1215 0abe D7F85431 	 ldr r3,[r7,#340]
 1216 0ac2 013B     	 subs r3,r3,#1
 1217 0ac4 C7F85431 	 str r3,[r7,#340]
 1218              	.L26:
 451:../Dave/Generated/CMSIS_DSP/FilteringFunctions/arm_conv_q7.c ****     {
 1219              	 .loc 1 451 0
 1220 0ac8 D7F85431 	 ldr r3,[r7,#340]
 1221 0acc 002B     	 cmp r3,#0
 1222 0ace 7FF4EAAE 	 bne .L33
 1223 0ad2 57E0     	 b .L34
 1224              	.L12:
 519:../Dave/Generated/CMSIS_DSP/FilteringFunctions/arm_conv_q7.c ****     }
 520:../Dave/Generated/CMSIS_DSP/FilteringFunctions/arm_conv_q7.c ****   }
 521:../Dave/Generated/CMSIS_DSP/FilteringFunctions/arm_conv_q7.c ****   else
 522:../Dave/Generated/CMSIS_DSP/FilteringFunctions/arm_conv_q7.c ****   {
 523:../Dave/Generated/CMSIS_DSP/FilteringFunctions/arm_conv_q7.c ****     /* If the srcBLen is not a multiple of 4,   
 524:../Dave/Generated/CMSIS_DSP/FilteringFunctions/arm_conv_q7.c ****      * the blockSize2 loop cannot be unrolled by 4 */
 525:../Dave/Generated/CMSIS_DSP/FilteringFunctions/arm_conv_q7.c ****     blkCnt = blockSize2;
 1225              	 .loc 1 525 0
 1226 0ad4 D7F84431 	 ldr r3,[r7,#324]
 1227 0ad8 C7F85431 	 str r3,[r7,#340]
 526:../Dave/Generated/CMSIS_DSP/FilteringFunctions/arm_conv_q7.c **** 
 527:../Dave/Generated/CMSIS_DSP/FilteringFunctions/arm_conv_q7.c ****     while(blkCnt > 0u)
 1228              	 .loc 1 527 0
 1229 0adc 4EE0     	 b .L35
 1230              	.L38:
 528:../Dave/Generated/CMSIS_DSP/FilteringFunctions/arm_conv_q7.c ****     {
 529:../Dave/Generated/CMSIS_DSP/FilteringFunctions/arm_conv_q7.c ****       /* Accumulator is made zero for every iteration */
 530:../Dave/Generated/CMSIS_DSP/FilteringFunctions/arm_conv_q7.c ****       sum = 0;
 1231              	 .loc 1 530 0
 1232 0ade 0023     	 movs r3,#0
 1233 0ae0 C7F87031 	 str r3,[r7,#368]
 531:../Dave/Generated/CMSIS_DSP/FilteringFunctions/arm_conv_q7.c **** 
 532:../Dave/Generated/CMSIS_DSP/FilteringFunctions/arm_conv_q7.c ****       /* srcBLen number of MACS should be performed */
 533:../Dave/Generated/CMSIS_DSP/FilteringFunctions/arm_conv_q7.c ****       k = srcBLen;
 1234              	 .loc 1 533 0
 1235 0ae4 3B46     	 mov r3,r7
 1236 0ae6 1B68     	 ldr r3,[r3]
 1237 0ae8 C7F85C31 	 str r3,[r7,#348]
 534:../Dave/Generated/CMSIS_DSP/FilteringFunctions/arm_conv_q7.c **** 
 535:../Dave/Generated/CMSIS_DSP/FilteringFunctions/arm_conv_q7.c ****       while(k > 0u)
 1238              	 .loc 1 535 0
 1239 0aec 19E0     	 b .L36
 1240              	.L37:
 536:../Dave/Generated/CMSIS_DSP/FilteringFunctions/arm_conv_q7.c ****       {
 537:../Dave/Generated/CMSIS_DSP/FilteringFunctions/arm_conv_q7.c ****         /* Perform the multiply-accumulate */
 538:../Dave/Generated/CMSIS_DSP/FilteringFunctions/arm_conv_q7.c ****         sum += ((q15_t) * px++ * *py--);
 1241              	 .loc 1 538 0
 1242 0aee D7F88031 	 ldr r3,[r7,#384]
 1243 0af2 5A1C     	 adds r2,r3,#1
 1244 0af4 C7F88021 	 str r2,[r7,#384]
 1245 0af8 1B78     	 ldrb r3,[r3]
 1246 0afa 5AB2     	 sxtb r2,r3
 1247 0afc D7F87C31 	 ldr r3,[r7,#380]
 1248 0b00 591E     	 subs r1,r3,#1
 1249 0b02 C7F87C11 	 str r1,[r7,#380]
 1250 0b06 1B78     	 ldrb r3,[r3]
 1251 0b08 5BB2     	 sxtb r3,r3
 1252 0b0a 03FB02F3 	 mul r3,r3,r2
 1253 0b0e D7F87021 	 ldr r2,[r7,#368]
 1254 0b12 1344     	 add r3,r3,r2
 1255 0b14 C7F87031 	 str r3,[r7,#368]
 539:../Dave/Generated/CMSIS_DSP/FilteringFunctions/arm_conv_q7.c **** 
 540:../Dave/Generated/CMSIS_DSP/FilteringFunctions/arm_conv_q7.c ****         /* Decrement the loop counter */
 541:../Dave/Generated/CMSIS_DSP/FilteringFunctions/arm_conv_q7.c ****         k--;
 1256              	 .loc 1 541 0
 1257 0b18 D7F85C31 	 ldr r3,[r7,#348]
 1258 0b1c 013B     	 subs r3,r3,#1
 1259 0b1e C7F85C31 	 str r3,[r7,#348]
 1260              	.L36:
 535:../Dave/Generated/CMSIS_DSP/FilteringFunctions/arm_conv_q7.c ****       {
 1261              	 .loc 1 535 0
 1262 0b22 D7F85C31 	 ldr r3,[r7,#348]
 1263 0b26 002B     	 cmp r3,#0
 1264 0b28 E1D1     	 bne .L37
 542:../Dave/Generated/CMSIS_DSP/FilteringFunctions/arm_conv_q7.c ****       }
 543:../Dave/Generated/CMSIS_DSP/FilteringFunctions/arm_conv_q7.c **** 
 544:../Dave/Generated/CMSIS_DSP/FilteringFunctions/arm_conv_q7.c ****       /* Store the result in the accumulator in the destination buffer. */
 545:../Dave/Generated/CMSIS_DSP/FilteringFunctions/arm_conv_q7.c ****       *pOut++ = (q7_t) (__SSAT(sum >> 7u, 8));
 1265              	 .loc 1 545 0
 1266 0b2a D7F88431 	 ldr r3,[r7,#388]
 1267 0b2e 5A1C     	 adds r2,r3,#1
 1268 0b30 C7F88421 	 str r2,[r7,#388]
 1269              	.LBB68:
 1270 0b34 D7F87021 	 ldr r2,[r7,#368]
 1271 0b38 D211     	 asrs r2,r2,#7
 1272 0b3a C7F8FC20 	 str r2,[r7,#252]
 1273 0b3e D7F8FC20 	 ldr r2,[r7,#252]
 1274              	
 1275 0b42 02F30702 	 ssat r2,#8,r2
 1276              	
 1277              	 .thumb
 1278 0b46 C7F8F820 	 str r2,[r7,#248]
 1279 0b4a D7F8F820 	 ldr r2,[r7,#248]
 1280              	.LBE68:
 1281 0b4e D2B2     	 uxtb r2,r2
 1282 0b50 1A70     	 strb r2,[r3]
 546:../Dave/Generated/CMSIS_DSP/FilteringFunctions/arm_conv_q7.c **** 
 547:../Dave/Generated/CMSIS_DSP/FilteringFunctions/arm_conv_q7.c ****       /* Increment the MAC count */
 548:../Dave/Generated/CMSIS_DSP/FilteringFunctions/arm_conv_q7.c ****       count++;
 1283              	 .loc 1 548 0
 1284 0b52 D7F85831 	 ldr r3,[r7,#344]
 1285 0b56 0133     	 adds r3,r3,#1
 1286 0b58 C7F85831 	 str r3,[r7,#344]
 549:../Dave/Generated/CMSIS_DSP/FilteringFunctions/arm_conv_q7.c **** 
 550:../Dave/Generated/CMSIS_DSP/FilteringFunctions/arm_conv_q7.c ****       /* Update the inputA and inputB pointers for next MAC calculation */
 551:../Dave/Generated/CMSIS_DSP/FilteringFunctions/arm_conv_q7.c ****       px = pIn1 + count;
 1287              	 .loc 1 551 0
 1288 0b5c D7F88C21 	 ldr r2,[r7,#396]
 1289 0b60 D7F85831 	 ldr r3,[r7,#344]
 1290 0b64 1344     	 add r3,r3,r2
 1291 0b66 C7F88031 	 str r3,[r7,#384]
 552:../Dave/Generated/CMSIS_DSP/FilteringFunctions/arm_conv_q7.c ****       py = pSrc2;
 1292              	 .loc 1 552 0
 1293 0b6a D7F82C31 	 ldr r3,[r7,#300]
 1294 0b6e C7F87C31 	 str r3,[r7,#380]
 553:../Dave/Generated/CMSIS_DSP/FilteringFunctions/arm_conv_q7.c **** 
 554:../Dave/Generated/CMSIS_DSP/FilteringFunctions/arm_conv_q7.c ****       /* Decrement the loop counter */
 555:../Dave/Generated/CMSIS_DSP/FilteringFunctions/arm_conv_q7.c ****       blkCnt--;
 1295              	 .loc 1 555 0
 1296 0b72 D7F85431 	 ldr r3,[r7,#340]
 1297 0b76 013B     	 subs r3,r3,#1
 1298 0b78 C7F85431 	 str r3,[r7,#340]
 1299              	.L35:
 527:../Dave/Generated/CMSIS_DSP/FilteringFunctions/arm_conv_q7.c ****     {
 1300              	 .loc 1 527 0
 1301 0b7c D7F85431 	 ldr r3,[r7,#340]
 1302 0b80 002B     	 cmp r3,#0
 1303 0b82 ACD1     	 bne .L38
 1304              	.L34:
 556:../Dave/Generated/CMSIS_DSP/FilteringFunctions/arm_conv_q7.c ****     }
 557:../Dave/Generated/CMSIS_DSP/FilteringFunctions/arm_conv_q7.c ****   }
 558:../Dave/Generated/CMSIS_DSP/FilteringFunctions/arm_conv_q7.c **** 
 559:../Dave/Generated/CMSIS_DSP/FilteringFunctions/arm_conv_q7.c **** 
 560:../Dave/Generated/CMSIS_DSP/FilteringFunctions/arm_conv_q7.c ****   /* --------------------------   
 561:../Dave/Generated/CMSIS_DSP/FilteringFunctions/arm_conv_q7.c ****    * Initializations of stage3   
 562:../Dave/Generated/CMSIS_DSP/FilteringFunctions/arm_conv_q7.c ****    * -------------------------*/
 563:../Dave/Generated/CMSIS_DSP/FilteringFunctions/arm_conv_q7.c **** 
 564:../Dave/Generated/CMSIS_DSP/FilteringFunctions/arm_conv_q7.c ****   /* sum += x[srcALen-srcBLen+1] * y[srcBLen-1] + x[srcALen-srcBLen+2] * y[srcBLen-2] +...+ x[srcAL
 565:../Dave/Generated/CMSIS_DSP/FilteringFunctions/arm_conv_q7.c ****    * sum += x[srcALen-srcBLen+2] * y[srcBLen-1] + x[srcALen-srcBLen+3] * y[srcBLen-2] +...+ x[srcAL
 566:../Dave/Generated/CMSIS_DSP/FilteringFunctions/arm_conv_q7.c ****    * ....   
 567:../Dave/Generated/CMSIS_DSP/FilteringFunctions/arm_conv_q7.c ****    * sum +=  x[srcALen-2] * y[srcBLen-1] + x[srcALen-1] * y[srcBLen-2]   
 568:../Dave/Generated/CMSIS_DSP/FilteringFunctions/arm_conv_q7.c ****    * sum +=  x[srcALen-1] * y[srcBLen-1]   
 569:../Dave/Generated/CMSIS_DSP/FilteringFunctions/arm_conv_q7.c ****    */
 570:../Dave/Generated/CMSIS_DSP/FilteringFunctions/arm_conv_q7.c **** 
 571:../Dave/Generated/CMSIS_DSP/FilteringFunctions/arm_conv_q7.c ****   /* In this stage the MAC operations are decreased by 1 for every iteration.   
 572:../Dave/Generated/CMSIS_DSP/FilteringFunctions/arm_conv_q7.c ****      The blockSize3 variable holds the number of MAC operations performed */
 573:../Dave/Generated/CMSIS_DSP/FilteringFunctions/arm_conv_q7.c **** 
 574:../Dave/Generated/CMSIS_DSP/FilteringFunctions/arm_conv_q7.c ****   /* Working pointer of inputA */
 575:../Dave/Generated/CMSIS_DSP/FilteringFunctions/arm_conv_q7.c ****   pSrc1 = pIn1 + (srcALen - (srcBLen - 1u));
 1305              	 .loc 1 575 0
 1306 0b84 07F10802 	 add r2,r7,#8
 1307 0b88 3B46     	 mov r3,r7
 1308 0b8a 1268     	 ldr r2,[r2]
 1309 0b8c 1B68     	 ldr r3,[r3]
 1310 0b8e D31A     	 subs r3,r2,r3
 1311 0b90 0133     	 adds r3,r3,#1
 1312 0b92 D7F88C21 	 ldr r2,[r7,#396]
 1313 0b96 1344     	 add r3,r3,r2
 1314 0b98 C7F87831 	 str r3,[r7,#376]
 576:../Dave/Generated/CMSIS_DSP/FilteringFunctions/arm_conv_q7.c ****   px = pSrc1;
 1315              	 .loc 1 576 0
 1316 0b9c D7F87831 	 ldr r3,[r7,#376]
 1317 0ba0 C7F88031 	 str r3,[r7,#384]
 577:../Dave/Generated/CMSIS_DSP/FilteringFunctions/arm_conv_q7.c **** 
 578:../Dave/Generated/CMSIS_DSP/FilteringFunctions/arm_conv_q7.c ****   /* Working pointer of inputB */
 579:../Dave/Generated/CMSIS_DSP/FilteringFunctions/arm_conv_q7.c ****   pSrc2 = pIn2 + (srcBLen - 1u);
 1318              	 .loc 1 579 0
 1319 0ba4 3B46     	 mov r3,r7
 1320 0ba6 1B68     	 ldr r3,[r3]
 1321 0ba8 013B     	 subs r3,r3,#1
 1322 0baa D7F88821 	 ldr r2,[r7,#392]
 1323 0bae 1344     	 add r3,r3,r2
 1324 0bb0 C7F82C31 	 str r3,[r7,#300]
 580:../Dave/Generated/CMSIS_DSP/FilteringFunctions/arm_conv_q7.c ****   py = pSrc2;
 1325              	 .loc 1 580 0
 1326 0bb4 D7F82C31 	 ldr r3,[r7,#300]
 1327 0bb8 C7F87C31 	 str r3,[r7,#380]
 581:../Dave/Generated/CMSIS_DSP/FilteringFunctions/arm_conv_q7.c **** 
 582:../Dave/Generated/CMSIS_DSP/FilteringFunctions/arm_conv_q7.c ****   /* -------------------   
 583:../Dave/Generated/CMSIS_DSP/FilteringFunctions/arm_conv_q7.c ****    * Stage3 process   
 584:../Dave/Generated/CMSIS_DSP/FilteringFunctions/arm_conv_q7.c ****    * ------------------*/
 585:../Dave/Generated/CMSIS_DSP/FilteringFunctions/arm_conv_q7.c **** 
 586:../Dave/Generated/CMSIS_DSP/FilteringFunctions/arm_conv_q7.c ****   while(blockSize3 > 0u)
 1328              	 .loc 1 586 0
 1329 0bbc 0DE1     	 b .L39
 1330              	.L46:
 587:../Dave/Generated/CMSIS_DSP/FilteringFunctions/arm_conv_q7.c ****   {
 588:../Dave/Generated/CMSIS_DSP/FilteringFunctions/arm_conv_q7.c ****     /* Accumulator is made zero for every iteration */
 589:../Dave/Generated/CMSIS_DSP/FilteringFunctions/arm_conv_q7.c ****     sum = 0;
 1331              	 .loc 1 589 0
 1332 0bbe 0023     	 movs r3,#0
 1333 0bc0 C7F87031 	 str r3,[r7,#368]
 590:../Dave/Generated/CMSIS_DSP/FilteringFunctions/arm_conv_q7.c **** 
 591:../Dave/Generated/CMSIS_DSP/FilteringFunctions/arm_conv_q7.c ****     /* Apply loop unrolling and compute 4 MACs simultaneously. */
 592:../Dave/Generated/CMSIS_DSP/FilteringFunctions/arm_conv_q7.c ****     k = blockSize3 >> 2u;
 1334              	 .loc 1 592 0
 1335 0bc4 D7F84C31 	 ldr r3,[r7,#332]
 1336 0bc8 9B08     	 lsrs r3,r3,#2
 1337 0bca C7F85C31 	 str r3,[r7,#348]
 593:../Dave/Generated/CMSIS_DSP/FilteringFunctions/arm_conv_q7.c **** 
 594:../Dave/Generated/CMSIS_DSP/FilteringFunctions/arm_conv_q7.c ****     /* First part of the processing with loop unrolling.  Compute 4 MACs at a time.   
 595:../Dave/Generated/CMSIS_DSP/FilteringFunctions/arm_conv_q7.c ****      ** a second loop below computes MACs for the remaining 1 to 3 samples. */
 596:../Dave/Generated/CMSIS_DSP/FilteringFunctions/arm_conv_q7.c ****     while(k > 0u)
 1338              	 .loc 1 596 0
 1339 0bce B4E0     	 b .L40
 1340              	.L43:
 597:../Dave/Generated/CMSIS_DSP/FilteringFunctions/arm_conv_q7.c ****     {
 598:../Dave/Generated/CMSIS_DSP/FilteringFunctions/arm_conv_q7.c ****       /* Reading two inputs, x[srcALen - srcBLen + 1] and x[srcALen - srcBLen + 2] of SrcA buffer a
 599:../Dave/Generated/CMSIS_DSP/FilteringFunctions/arm_conv_q7.c ****       in1 = (q15_t) * px++;
 1341              	 .loc 1 599 0
 1342 0bd0 D7F88031 	 ldr r3,[r7,#384]
 1343 0bd4 5A1C     	 adds r2,r3,#1
 1344 0bd6 C7F88021 	 str r2,[r7,#384]
 1345 0bda 1B78     	 ldrb r3,[r3]
 1346 0bdc 5BB2     	 sxtb r3,r3
 1347 0bde A7F84231 	 strh r3,[r7,#322]
 600:../Dave/Generated/CMSIS_DSP/FilteringFunctions/arm_conv_q7.c ****       in2 = (q15_t) * px++;
 1348              	 .loc 1 600 0
 1349 0be2 D7F88031 	 ldr r3,[r7,#384]
 1350 0be6 5A1C     	 adds r2,r3,#1
 1351 0be8 C7F88021 	 str r2,[r7,#384]
 1352 0bec 1B78     	 ldrb r3,[r3]
 1353 0bee 5BB2     	 sxtb r3,r3
 1354 0bf0 A7F84031 	 strh r3,[r7,#320]
 601:../Dave/Generated/CMSIS_DSP/FilteringFunctions/arm_conv_q7.c ****       input1 = ((q31_t) in1 & 0x0000FFFF) | ((q31_t) in2 << 16u);
 1355              	 .loc 1 601 0
 1356 0bf4 B7F94231 	 ldrsh r3,[r7,#322]
 1357 0bf8 9AB2     	 uxth r2,r3
 1358 0bfa B7F94031 	 ldrsh r3,[r7,#320]
 1359 0bfe 1B04     	 lsls r3,r3,#16
 1360 0c00 1343     	 orrs r3,r3,r2
 1361 0c02 C7F83C31 	 str r3,[r7,#316]
 602:../Dave/Generated/CMSIS_DSP/FilteringFunctions/arm_conv_q7.c **** 
 603:../Dave/Generated/CMSIS_DSP/FilteringFunctions/arm_conv_q7.c ****       /* Reading two inputs, y[srcBLen - 1] and y[srcBLen - 2] of SrcB buffer and packing */
 604:../Dave/Generated/CMSIS_DSP/FilteringFunctions/arm_conv_q7.c ****       in1 = (q15_t) * py--;
 1362              	 .loc 1 604 0
 1363 0c06 D7F87C31 	 ldr r3,[r7,#380]
 1364 0c0a 5A1E     	 subs r2,r3,#1
 1365 0c0c C7F87C21 	 str r2,[r7,#380]
 1366 0c10 1B78     	 ldrb r3,[r3]
 1367 0c12 5BB2     	 sxtb r3,r3
 1368 0c14 A7F84231 	 strh r3,[r7,#322]
 605:../Dave/Generated/CMSIS_DSP/FilteringFunctions/arm_conv_q7.c ****       in2 = (q15_t) * py--;
 1369              	 .loc 1 605 0
 1370 0c18 D7F87C31 	 ldr r3,[r7,#380]
 1371 0c1c 5A1E     	 subs r2,r3,#1
 1372 0c1e C7F87C21 	 str r2,[r7,#380]
 1373 0c22 1B78     	 ldrb r3,[r3]
 1374 0c24 5BB2     	 sxtb r3,r3
 1375 0c26 A7F84031 	 strh r3,[r7,#320]
 606:../Dave/Generated/CMSIS_DSP/FilteringFunctions/arm_conv_q7.c ****       input2 = ((q31_t) in1 & 0x0000FFFF) | ((q31_t) in2 << 16u);
 1376              	 .loc 1 606 0
 1377 0c2a B7F94231 	 ldrsh r3,[r7,#322]
 1378 0c2e 9AB2     	 uxth r2,r3
 1379 0c30 B7F94031 	 ldrsh r3,[r7,#320]
 1380 0c34 1B04     	 lsls r3,r3,#16
 1381 0c36 1343     	 orrs r3,r3,r2
 1382 0c38 C7F83831 	 str r3,[r7,#312]
 607:../Dave/Generated/CMSIS_DSP/FilteringFunctions/arm_conv_q7.c **** 
 608:../Dave/Generated/CMSIS_DSP/FilteringFunctions/arm_conv_q7.c ****       /* sum += x[srcALen - srcBLen + 1] * y[srcBLen - 1] */
 609:../Dave/Generated/CMSIS_DSP/FilteringFunctions/arm_conv_q7.c ****       /* sum += x[srcALen - srcBLen + 2] * y[srcBLen - 2] */
 610:../Dave/Generated/CMSIS_DSP/FilteringFunctions/arm_conv_q7.c ****       sum = __SMLAD(input1, input2, sum);
 1383              	 .loc 1 610 0
 1384 0c3c D7F83C01 	 ldr r0,[r7,#316]
 1385 0c40 D7F83811 	 ldr r1,[r7,#312]
 1386 0c44 D7F87021 	 ldr r2,[r7,#368]
 1387 0c48 07F12C03 	 add r3,r7,#44
 1388 0c4c 1860     	 str r0,[r3]
 1389 0c4e 07F12803 	 add r3,r7,#40
 1390 0c52 1960     	 str r1,[r3]
 1391 0c54 07F12403 	 add r3,r7,#36
 1392 0c58 1A60     	 str r2,[r3]
 1393              	.LBB69:
 1394              	.LBB70:
 507:C:\Users\Depes Crystalline\Desktop\school\Active_Bike_Lighting_System\Radar_Core/Libraries/CMSIS/Include\core_cmSimd.h ****   return(result);
 1395              	 .loc 2 507 0
 1396 0c5a 07F12C03 	 add r3,r7,#44
 1397 0c5e 1B68     	 ldr r3,[r3]
 1398 0c60 07F12802 	 add r2,r7,#40
 1399 0c64 1268     	 ldr r2,[r2]
 1400 0c66 07F12401 	 add r1,r7,#36
 1401 0c6a 0968     	 ldr r1,[r1]
 1402              	
 1403 0c6c 23FB0212 	 smlad r2,r3,r2,r1
 1404              	
 1405              	 .thumb
 1406 0c70 07F12003 	 add r3,r7,#32
 1407 0c74 1A60     	 str r2,[r3]
 1408              	 .loc 2 508 0
 1409 0c76 07F12003 	 add r3,r7,#32
 1410 0c7a 1B68     	 ldr r3,[r3]
 1411              	.LBE70:
 1412              	.LBE69:
 1413              	 .loc 1 610 0
 1414 0c7c C7F87031 	 str r3,[r7,#368]
 611:../Dave/Generated/CMSIS_DSP/FilteringFunctions/arm_conv_q7.c **** 
 612:../Dave/Generated/CMSIS_DSP/FilteringFunctions/arm_conv_q7.c ****       /* Reading two inputs, x[srcALen - srcBLen + 3] and x[srcALen - srcBLen + 4] of SrcA buffer a
 613:../Dave/Generated/CMSIS_DSP/FilteringFunctions/arm_conv_q7.c ****       in1 = (q15_t) * px++;
 1415              	 .loc 1 613 0
 1416 0c80 D7F88031 	 ldr r3,[r7,#384]
 1417 0c84 5A1C     	 adds r2,r3,#1
 1418 0c86 C7F88021 	 str r2,[r7,#384]
 1419 0c8a 1B78     	 ldrb r3,[r3]
 1420 0c8c 5BB2     	 sxtb r3,r3
 1421 0c8e A7F84231 	 strh r3,[r7,#322]
 614:../Dave/Generated/CMSIS_DSP/FilteringFunctions/arm_conv_q7.c ****       in2 = (q15_t) * px++;
 1422              	 .loc 1 614 0
 1423 0c92 D7F88031 	 ldr r3,[r7,#384]
 1424 0c96 5A1C     	 adds r2,r3,#1
 1425 0c98 C7F88021 	 str r2,[r7,#384]
 1426 0c9c 1B78     	 ldrb r3,[r3]
 1427 0c9e 5BB2     	 sxtb r3,r3
 1428 0ca0 A7F84031 	 strh r3,[r7,#320]
 615:../Dave/Generated/CMSIS_DSP/FilteringFunctions/arm_conv_q7.c ****       input1 = ((q31_t) in1 & 0x0000FFFF) | ((q31_t) in2 << 16u);
 1429              	 .loc 1 615 0
 1430 0ca4 B7F94231 	 ldrsh r3,[r7,#322]
 1431 0ca8 9AB2     	 uxth r2,r3
 1432 0caa B7F94031 	 ldrsh r3,[r7,#320]
 1433 0cae 1B04     	 lsls r3,r3,#16
 1434 0cb0 1343     	 orrs r3,r3,r2
 1435 0cb2 C7F83C31 	 str r3,[r7,#316]
 616:../Dave/Generated/CMSIS_DSP/FilteringFunctions/arm_conv_q7.c **** 
 617:../Dave/Generated/CMSIS_DSP/FilteringFunctions/arm_conv_q7.c ****       /* Reading two inputs, y[srcBLen - 3] and y[srcBLen - 4] of SrcB buffer and packing */
 618:../Dave/Generated/CMSIS_DSP/FilteringFunctions/arm_conv_q7.c ****       in1 = (q15_t) * py--;
 1436              	 .loc 1 618 0
 1437 0cb6 D7F87C31 	 ldr r3,[r7,#380]
 1438 0cba 5A1E     	 subs r2,r3,#1
 1439 0cbc C7F87C21 	 str r2,[r7,#380]
 1440 0cc0 1B78     	 ldrb r3,[r3]
 1441 0cc2 5BB2     	 sxtb r3,r3
 1442 0cc4 A7F84231 	 strh r3,[r7,#322]
 619:../Dave/Generated/CMSIS_DSP/FilteringFunctions/arm_conv_q7.c ****       in2 = (q15_t) * py--;
 1443              	 .loc 1 619 0
 1444 0cc8 D7F87C31 	 ldr r3,[r7,#380]
 1445 0ccc 5A1E     	 subs r2,r3,#1
 1446 0cce C7F87C21 	 str r2,[r7,#380]
 1447 0cd2 1B78     	 ldrb r3,[r3]
 1448 0cd4 5BB2     	 sxtb r3,r3
 1449 0cd6 A7F84031 	 strh r3,[r7,#320]
 620:../Dave/Generated/CMSIS_DSP/FilteringFunctions/arm_conv_q7.c ****       input2 = ((q31_t) in1 & 0x0000FFFF) | ((q31_t) in2 << 16u);
 1450              	 .loc 1 620 0
 1451 0cda B7F94231 	 ldrsh r3,[r7,#322]
 1452 0cde 9AB2     	 uxth r2,r3
 1453 0ce0 B7F94031 	 ldrsh r3,[r7,#320]
 1454 0ce4 1B04     	 lsls r3,r3,#16
 1455 0ce6 1343     	 orrs r3,r3,r2
 1456 0ce8 C7F83831 	 str r3,[r7,#312]
 621:../Dave/Generated/CMSIS_DSP/FilteringFunctions/arm_conv_q7.c **** 
 622:../Dave/Generated/CMSIS_DSP/FilteringFunctions/arm_conv_q7.c ****       /* sum += x[srcALen - srcBLen + 3] * y[srcBLen - 3] */
 623:../Dave/Generated/CMSIS_DSP/FilteringFunctions/arm_conv_q7.c ****       /* sum += x[srcALen - srcBLen + 4] * y[srcBLen - 4] */
 624:../Dave/Generated/CMSIS_DSP/FilteringFunctions/arm_conv_q7.c ****       sum = __SMLAD(input1, input2, sum);
 1457              	 .loc 1 624 0
 1458 0cec D7F83C01 	 ldr r0,[r7,#316]
 1459 0cf0 D7F83811 	 ldr r1,[r7,#312]
 1460 0cf4 D7F87021 	 ldr r2,[r7,#368]
 1461 0cf8 07F11C03 	 add r3,r7,#28
 1462 0cfc 1860     	 str r0,[r3]
 1463 0cfe 07F11803 	 add r3,r7,#24
 1464 0d02 1960     	 str r1,[r3]
 1465 0d04 07F11403 	 add r3,r7,#20
 1466 0d08 1A60     	 str r2,[r3]
 1467              	.LBB71:
 1468              	.LBB72:
 507:C:\Users\Depes Crystalline\Desktop\school\Active_Bike_Lighting_System\Radar_Core/Libraries/CMSIS/Include\core_cmSimd.h ****   return(result);
 1469              	 .loc 2 507 0
 1470 0d0a 07F11C03 	 add r3,r7,#28
 1471 0d0e 1B68     	 ldr r3,[r3]
 1472 0d10 07F11802 	 add r2,r7,#24
 1473 0d14 1268     	 ldr r2,[r2]
 1474 0d16 07F11401 	 add r1,r7,#20
 1475 0d1a 0968     	 ldr r1,[r1]
 1476              	
 1477 0d1c 23FB0212 	 smlad r2,r3,r2,r1
 1478              	
 1479              	 .thumb
 1480 0d20 07F11003 	 add r3,r7,#16
 1481 0d24 1A60     	 str r2,[r3]
 1482              	 .loc 2 508 0
 1483 0d26 07F11003 	 add r3,r7,#16
 1484 0d2a 1B68     	 ldr r3,[r3]
 1485              	.LBE72:
 1486              	.LBE71:
 1487              	 .loc 1 624 0
 1488 0d2c C7F87031 	 str r3,[r7,#368]
 625:../Dave/Generated/CMSIS_DSP/FilteringFunctions/arm_conv_q7.c **** 
 626:../Dave/Generated/CMSIS_DSP/FilteringFunctions/arm_conv_q7.c ****       /* Decrement the loop counter */
 627:../Dave/Generated/CMSIS_DSP/FilteringFunctions/arm_conv_q7.c ****       k--;
 1489              	 .loc 1 627 0
 1490 0d30 D7F85C31 	 ldr r3,[r7,#348]
 1491 0d34 013B     	 subs r3,r3,#1
 1492 0d36 C7F85C31 	 str r3,[r7,#348]
 1493              	.L40:
 596:../Dave/Generated/CMSIS_DSP/FilteringFunctions/arm_conv_q7.c ****     {
 1494              	 .loc 1 596 0
 1495 0d3a D7F85C31 	 ldr r3,[r7,#348]
 1496 0d3e 002B     	 cmp r3,#0
 1497 0d40 7FF446AF 	 bne .L43
 628:../Dave/Generated/CMSIS_DSP/FilteringFunctions/arm_conv_q7.c ****     }
 629:../Dave/Generated/CMSIS_DSP/FilteringFunctions/arm_conv_q7.c **** 
 630:../Dave/Generated/CMSIS_DSP/FilteringFunctions/arm_conv_q7.c ****     /* If the blockSize3 is not a multiple of 4, compute any remaining MACs here.   
 631:../Dave/Generated/CMSIS_DSP/FilteringFunctions/arm_conv_q7.c ****      ** No loop unrolling is used. */
 632:../Dave/Generated/CMSIS_DSP/FilteringFunctions/arm_conv_q7.c ****     k = blockSize3 % 0x4u;
 1498              	 .loc 1 632 0
 1499 0d44 D7F84C31 	 ldr r3,[r7,#332]
 1500 0d48 03F00303 	 and r3,r3,#3
 1501 0d4c C7F85C31 	 str r3,[r7,#348]
 633:../Dave/Generated/CMSIS_DSP/FilteringFunctions/arm_conv_q7.c **** 
 634:../Dave/Generated/CMSIS_DSP/FilteringFunctions/arm_conv_q7.c ****     while(k > 0u)
 1502              	 .loc 1 634 0
 1503 0d50 19E0     	 b .L44
 1504              	.L45:
 635:../Dave/Generated/CMSIS_DSP/FilteringFunctions/arm_conv_q7.c ****     {
 636:../Dave/Generated/CMSIS_DSP/FilteringFunctions/arm_conv_q7.c ****       /* Perform the multiply-accumulates */
 637:../Dave/Generated/CMSIS_DSP/FilteringFunctions/arm_conv_q7.c ****       sum += ((q15_t) * px++ * *py--);
 1505              	 .loc 1 637 0
 1506 0d52 D7F88031 	 ldr r3,[r7,#384]
 1507 0d56 5A1C     	 adds r2,r3,#1
 1508 0d58 C7F88021 	 str r2,[r7,#384]
 1509 0d5c 1B78     	 ldrb r3,[r3]
 1510 0d5e 5AB2     	 sxtb r2,r3
 1511 0d60 D7F87C31 	 ldr r3,[r7,#380]
 1512 0d64 591E     	 subs r1,r3,#1
 1513 0d66 C7F87C11 	 str r1,[r7,#380]
 1514 0d6a 1B78     	 ldrb r3,[r3]
 1515 0d6c 5BB2     	 sxtb r3,r3
 1516 0d6e 03FB02F3 	 mul r3,r3,r2
 1517 0d72 D7F87021 	 ldr r2,[r7,#368]
 1518 0d76 1344     	 add r3,r3,r2
 1519 0d78 C7F87031 	 str r3,[r7,#368]
 638:../Dave/Generated/CMSIS_DSP/FilteringFunctions/arm_conv_q7.c **** 
 639:../Dave/Generated/CMSIS_DSP/FilteringFunctions/arm_conv_q7.c ****       /* Decrement the loop counter */
 640:../Dave/Generated/CMSIS_DSP/FilteringFunctions/arm_conv_q7.c ****       k--;
 1520              	 .loc 1 640 0
 1521 0d7c D7F85C31 	 ldr r3,[r7,#348]
 1522 0d80 013B     	 subs r3,r3,#1
 1523 0d82 C7F85C31 	 str r3,[r7,#348]
 1524              	.L44:
 634:../Dave/Generated/CMSIS_DSP/FilteringFunctions/arm_conv_q7.c ****     {
 1525              	 .loc 1 634 0
 1526 0d86 D7F85C31 	 ldr r3,[r7,#348]
 1527 0d8a 002B     	 cmp r3,#0
 1528 0d8c E1D1     	 bne .L45
 641:../Dave/Generated/CMSIS_DSP/FilteringFunctions/arm_conv_q7.c ****     }
 642:../Dave/Generated/CMSIS_DSP/FilteringFunctions/arm_conv_q7.c **** 
 643:../Dave/Generated/CMSIS_DSP/FilteringFunctions/arm_conv_q7.c ****     /* Store the result in the accumulator in the destination buffer. */
 644:../Dave/Generated/CMSIS_DSP/FilteringFunctions/arm_conv_q7.c ****     *pOut++ = (q7_t) (__SSAT(sum >> 7u, 8));
 1529              	 .loc 1 644 0
 1530 0d8e D7F88431 	 ldr r3,[r7,#388]
 1531 0d92 5A1C     	 adds r2,r3,#1
 1532 0d94 C7F88421 	 str r2,[r7,#388]
 1533              	.LBB73:
 1534 0d98 D7F87021 	 ldr r2,[r7,#368]
 1535 0d9c D211     	 asrs r2,r2,#7
 1536 0d9e C7F8F420 	 str r2,[r7,#244]
 1537 0da2 D7F8F420 	 ldr r2,[r7,#244]
 1538              	
 1539 0da6 02F30702 	 ssat r2,#8,r2
 1540              	
 1541              	 .thumb
 1542 0daa C7F8F020 	 str r2,[r7,#240]
 1543 0dae D7F8F020 	 ldr r2,[r7,#240]
 1544              	.LBE73:
 1545 0db2 D2B2     	 uxtb r2,r2
 1546 0db4 1A70     	 strb r2,[r3]
 645:../Dave/Generated/CMSIS_DSP/FilteringFunctions/arm_conv_q7.c **** 
 646:../Dave/Generated/CMSIS_DSP/FilteringFunctions/arm_conv_q7.c ****     /* Update the inputA and inputB pointers for next MAC calculation */
 647:../Dave/Generated/CMSIS_DSP/FilteringFunctions/arm_conv_q7.c ****     px = ++pSrc1;
 1547              	 .loc 1 647 0
 1548 0db6 D7F87831 	 ldr r3,[r7,#376]
 1549 0dba 0133     	 adds r3,r3,#1
 1550 0dbc C7F87831 	 str r3,[r7,#376]
 1551 0dc0 D7F87831 	 ldr r3,[r7,#376]
 1552 0dc4 C7F88031 	 str r3,[r7,#384]
 648:../Dave/Generated/CMSIS_DSP/FilteringFunctions/arm_conv_q7.c ****     py = pSrc2;
 1553              	 .loc 1 648 0
 1554 0dc8 D7F82C31 	 ldr r3,[r7,#300]
 1555 0dcc C7F87C31 	 str r3,[r7,#380]
 649:../Dave/Generated/CMSIS_DSP/FilteringFunctions/arm_conv_q7.c **** 
 650:../Dave/Generated/CMSIS_DSP/FilteringFunctions/arm_conv_q7.c ****     /* Decrement the loop counter */
 651:../Dave/Generated/CMSIS_DSP/FilteringFunctions/arm_conv_q7.c ****     blockSize3--;
 1556              	 .loc 1 651 0
 1557 0dd0 D7F84C31 	 ldr r3,[r7,#332]
 1558 0dd4 013B     	 subs r3,r3,#1
 1559 0dd6 C7F84C31 	 str r3,[r7,#332]
 1560              	.L39:
 586:../Dave/Generated/CMSIS_DSP/FilteringFunctions/arm_conv_q7.c ****   {
 1561              	 .loc 1 586 0
 1562 0dda D7F84C31 	 ldr r3,[r7,#332]
 1563 0dde 002B     	 cmp r3,#0
 1564 0de0 7FF4EDAE 	 bne .L46
 652:../Dave/Generated/CMSIS_DSP/FilteringFunctions/arm_conv_q7.c ****   }
 653:../Dave/Generated/CMSIS_DSP/FilteringFunctions/arm_conv_q7.c **** 
 654:../Dave/Generated/CMSIS_DSP/FilteringFunctions/arm_conv_q7.c **** #else
 655:../Dave/Generated/CMSIS_DSP/FilteringFunctions/arm_conv_q7.c **** 
 656:../Dave/Generated/CMSIS_DSP/FilteringFunctions/arm_conv_q7.c ****   /* Run the below code for Cortex-M0 */
 657:../Dave/Generated/CMSIS_DSP/FilteringFunctions/arm_conv_q7.c **** 
 658:../Dave/Generated/CMSIS_DSP/FilteringFunctions/arm_conv_q7.c ****   q7_t *pIn1 = pSrcA;                            /* input pointer */
 659:../Dave/Generated/CMSIS_DSP/FilteringFunctions/arm_conv_q7.c ****   q7_t *pIn2 = pSrcB;                            /* coefficient pointer */
 660:../Dave/Generated/CMSIS_DSP/FilteringFunctions/arm_conv_q7.c ****   q31_t sum;                                     /* Accumulator */
 661:../Dave/Generated/CMSIS_DSP/FilteringFunctions/arm_conv_q7.c ****   uint32_t i, j;                                 /* loop counter */
 662:../Dave/Generated/CMSIS_DSP/FilteringFunctions/arm_conv_q7.c **** 
 663:../Dave/Generated/CMSIS_DSP/FilteringFunctions/arm_conv_q7.c ****   /* Loop to calculate output of convolution for output length number of times */
 664:../Dave/Generated/CMSIS_DSP/FilteringFunctions/arm_conv_q7.c ****   for (i = 0; i < (srcALen + srcBLen - 1); i++)
 665:../Dave/Generated/CMSIS_DSP/FilteringFunctions/arm_conv_q7.c ****   {
 666:../Dave/Generated/CMSIS_DSP/FilteringFunctions/arm_conv_q7.c ****     /* Initialize sum with zero to carry on MAC operations */
 667:../Dave/Generated/CMSIS_DSP/FilteringFunctions/arm_conv_q7.c ****     sum = 0;
 668:../Dave/Generated/CMSIS_DSP/FilteringFunctions/arm_conv_q7.c **** 
 669:../Dave/Generated/CMSIS_DSP/FilteringFunctions/arm_conv_q7.c ****     /* Loop to perform MAC operations according to convolution equation */
 670:../Dave/Generated/CMSIS_DSP/FilteringFunctions/arm_conv_q7.c ****     for (j = 0; j <= i; j++)
 671:../Dave/Generated/CMSIS_DSP/FilteringFunctions/arm_conv_q7.c ****     {
 672:../Dave/Generated/CMSIS_DSP/FilteringFunctions/arm_conv_q7.c ****       /* Check the array limitations */
 673:../Dave/Generated/CMSIS_DSP/FilteringFunctions/arm_conv_q7.c ****       if(((i - j) < srcBLen) && (j < srcALen))
 674:../Dave/Generated/CMSIS_DSP/FilteringFunctions/arm_conv_q7.c ****       {
 675:../Dave/Generated/CMSIS_DSP/FilteringFunctions/arm_conv_q7.c ****         /* z[i] += x[i-j] * y[j] */
 676:../Dave/Generated/CMSIS_DSP/FilteringFunctions/arm_conv_q7.c ****         sum += (q15_t) pIn1[j] * (pIn2[i - j]);
 677:../Dave/Generated/CMSIS_DSP/FilteringFunctions/arm_conv_q7.c ****       }
 678:../Dave/Generated/CMSIS_DSP/FilteringFunctions/arm_conv_q7.c ****     }
 679:../Dave/Generated/CMSIS_DSP/FilteringFunctions/arm_conv_q7.c **** 
 680:../Dave/Generated/CMSIS_DSP/FilteringFunctions/arm_conv_q7.c ****     /* Store the output in the destination buffer */
 681:../Dave/Generated/CMSIS_DSP/FilteringFunctions/arm_conv_q7.c ****     pDst[i] = (q7_t) __SSAT((sum >> 7u), 8u);
 682:../Dave/Generated/CMSIS_DSP/FilteringFunctions/arm_conv_q7.c ****   }
 683:../Dave/Generated/CMSIS_DSP/FilteringFunctions/arm_conv_q7.c **** 
 684:../Dave/Generated/CMSIS_DSP/FilteringFunctions/arm_conv_q7.c **** #endif /*   #ifndef ARM_MATH_CM0_FAMILY        */
 685:../Dave/Generated/CMSIS_DSP/FilteringFunctions/arm_conv_q7.c **** 
 686:../Dave/Generated/CMSIS_DSP/FilteringFunctions/arm_conv_q7.c **** }
 1565              	 .loc 1 686 0
 1566 0de4 07F5C877 	 add r7,r7,#400
 1567              	.LCFI3:
 1568              	 .cfi_def_cfa_offset 8
 1569 0de8 BD46     	 mov sp,r7
 1570              	.LCFI4:
 1571              	 .cfi_def_cfa_register 13
 1572              	 
 1573 0dea 90BC     	 pop {r4,r7}
 1574              	.LCFI5:
 1575              	 .cfi_restore 7
 1576              	 .cfi_restore 4
 1577              	 .cfi_def_cfa_offset 0
 1578 0dec 7047     	 bx lr
 1579              	 .cfi_endproc
 1580              	.LFE139:
 1582 0dee 00BF     	 .text
 1583              	.Letext0:
 1584              	 .file 3 "c:\\davev4-64bit\\dave-4.2.6\\eclipse\\arm-gcc-49\\arm-none-eabi\\include\\machine\\_default_types.h"
 1585              	 .file 4 "c:\\davev4-64bit\\dave-4.2.6\\eclipse\\arm-gcc-49\\arm-none-eabi\\include\\stdint.h"
 1586              	 .file 5 "C:\\Users\\Depes Crystalline\\Desktop\\school\\Active_Bike_Lighting_System\\Radar_Core\\Dave\\Generated/CMSIS_DSP/arm_math.h"