   1              	 .syntax unified
   2              	 .cpu cortex-m4
   3              	 .fpu softvfp
   4              	 .eabi_attribute 20,1
   5              	 .eabi_attribute 21,1
   6              	 .eabi_attribute 23,3
   7              	 .eabi_attribute 24,1
   8              	 .eabi_attribute 25,1
   9              	 .eabi_attribute 26,1
  10              	 .eabi_attribute 30,6
  11              	 .eabi_attribute 34,1
  12              	 .eabi_attribute 18,4
  13              	 .thumb
  14              	 .file "arm_fir_fast_q15.c"
  15              	 .text
  16              	.Ltext0:
  17              	 .cfi_sections .debug_frame
  18              	 .section .text.arm_fir_fast_q15,"ax",%progbits
  19              	 .align 2
  20              	 .global arm_fir_fast_q15
  21              	 .thumb
  22              	 .thumb_func
  24              	arm_fir_fast_q15:
  25              	.LFB139:
  26              	 .file 1 "../Dave/Generated/CMSIS_DSP/FilteringFunctions/arm_fir_fast_q15.c"
   1:../Dave/Generated/CMSIS_DSP/FilteringFunctions/arm_fir_fast_q15.c **** /* ----------------------------------------------------------------------    
   2:../Dave/Generated/CMSIS_DSP/FilteringFunctions/arm_fir_fast_q15.c **** * Copyright (C) 2010-2014 ARM Limited. All rights reserved.    
   3:../Dave/Generated/CMSIS_DSP/FilteringFunctions/arm_fir_fast_q15.c **** *    
   4:../Dave/Generated/CMSIS_DSP/FilteringFunctions/arm_fir_fast_q15.c **** * $Date:        12. March 2014
   5:../Dave/Generated/CMSIS_DSP/FilteringFunctions/arm_fir_fast_q15.c **** * $Revision: 	V1.4.4
   6:../Dave/Generated/CMSIS_DSP/FilteringFunctions/arm_fir_fast_q15.c **** *    
   7:../Dave/Generated/CMSIS_DSP/FilteringFunctions/arm_fir_fast_q15.c **** * Project: 	    CMSIS DSP Library    
   8:../Dave/Generated/CMSIS_DSP/FilteringFunctions/arm_fir_fast_q15.c **** * Title:        arm_fir_fast_q15.c    
   9:../Dave/Generated/CMSIS_DSP/FilteringFunctions/arm_fir_fast_q15.c **** *    
  10:../Dave/Generated/CMSIS_DSP/FilteringFunctions/arm_fir_fast_q15.c **** * Description:  Q15 Fast FIR filter processing function.    
  11:../Dave/Generated/CMSIS_DSP/FilteringFunctions/arm_fir_fast_q15.c **** *    
  12:../Dave/Generated/CMSIS_DSP/FilteringFunctions/arm_fir_fast_q15.c **** * Target Processor: Cortex-M4/Cortex-M3
  13:../Dave/Generated/CMSIS_DSP/FilteringFunctions/arm_fir_fast_q15.c **** *  
  14:../Dave/Generated/CMSIS_DSP/FilteringFunctions/arm_fir_fast_q15.c **** * Redistribution and use in source and binary forms, with or without 
  15:../Dave/Generated/CMSIS_DSP/FilteringFunctions/arm_fir_fast_q15.c **** * modification, are permitted provided that the following conditions
  16:../Dave/Generated/CMSIS_DSP/FilteringFunctions/arm_fir_fast_q15.c **** * are met:
  17:../Dave/Generated/CMSIS_DSP/FilteringFunctions/arm_fir_fast_q15.c **** *   - Redistributions of source code must retain the above copyright
  18:../Dave/Generated/CMSIS_DSP/FilteringFunctions/arm_fir_fast_q15.c **** *     notice, this list of conditions and the following disclaimer.
  19:../Dave/Generated/CMSIS_DSP/FilteringFunctions/arm_fir_fast_q15.c **** *   - Redistributions in binary form must reproduce the above copyright
  20:../Dave/Generated/CMSIS_DSP/FilteringFunctions/arm_fir_fast_q15.c **** *     notice, this list of conditions and the following disclaimer in
  21:../Dave/Generated/CMSIS_DSP/FilteringFunctions/arm_fir_fast_q15.c **** *     the documentation and/or other materials provided with the 
  22:../Dave/Generated/CMSIS_DSP/FilteringFunctions/arm_fir_fast_q15.c **** *     distribution.
  23:../Dave/Generated/CMSIS_DSP/FilteringFunctions/arm_fir_fast_q15.c **** *   - Neither the name of ARM LIMITED nor the names of its contributors
  24:../Dave/Generated/CMSIS_DSP/FilteringFunctions/arm_fir_fast_q15.c **** *     may be used to endorse or promote products derived from this
  25:../Dave/Generated/CMSIS_DSP/FilteringFunctions/arm_fir_fast_q15.c **** *     software without specific prior written permission.
  26:../Dave/Generated/CMSIS_DSP/FilteringFunctions/arm_fir_fast_q15.c **** *
  27:../Dave/Generated/CMSIS_DSP/FilteringFunctions/arm_fir_fast_q15.c **** * THIS SOFTWARE IS PROVIDED BY THE COPYRIGHT HOLDERS AND CONTRIBUTORS
  28:../Dave/Generated/CMSIS_DSP/FilteringFunctions/arm_fir_fast_q15.c **** * "AS IS" AND ANY EXPRESS OR IMPLIED WARRANTIES, INCLUDING, BUT NOT
  29:../Dave/Generated/CMSIS_DSP/FilteringFunctions/arm_fir_fast_q15.c **** * LIMITED TO, THE IMPLIED WARRANTIES OF MERCHANTABILITY AND FITNESS
  30:../Dave/Generated/CMSIS_DSP/FilteringFunctions/arm_fir_fast_q15.c **** * FOR A PARTICULAR PURPOSE ARE DISCLAIMED. IN NO EVENT SHALL THE 
  31:../Dave/Generated/CMSIS_DSP/FilteringFunctions/arm_fir_fast_q15.c **** * COPYRIGHT OWNER OR CONTRIBUTORS BE LIABLE FOR ANY DIRECT, INDIRECT,
  32:../Dave/Generated/CMSIS_DSP/FilteringFunctions/arm_fir_fast_q15.c **** * INCIDENTAL, SPECIAL, EXEMPLARY, OR CONSEQUENTIAL DAMAGES (INCLUDING,
  33:../Dave/Generated/CMSIS_DSP/FilteringFunctions/arm_fir_fast_q15.c **** * BUT NOT LIMITED TO, PROCUREMENT OF SUBSTITUTE GOODS OR SERVICES;
  34:../Dave/Generated/CMSIS_DSP/FilteringFunctions/arm_fir_fast_q15.c **** * LOSS OF USE, DATA, OR PROFITS; OR BUSINESS INTERRUPTION) HOWEVER
  35:../Dave/Generated/CMSIS_DSP/FilteringFunctions/arm_fir_fast_q15.c **** * CAUSED AND ON ANY THEORY OF LIABILITY, WHETHER IN CONTRACT, STRICT
  36:../Dave/Generated/CMSIS_DSP/FilteringFunctions/arm_fir_fast_q15.c **** * LIABILITY, OR TORT (INCLUDING NEGLIGENCE OR OTHERWISE) ARISING IN
  37:../Dave/Generated/CMSIS_DSP/FilteringFunctions/arm_fir_fast_q15.c **** * ANY WAY OUT OF THE USE OF THIS SOFTWARE, EVEN IF ADVISED OF THE
  38:../Dave/Generated/CMSIS_DSP/FilteringFunctions/arm_fir_fast_q15.c **** * POSSIBILITY OF SUCH DAMAGE. 
  39:../Dave/Generated/CMSIS_DSP/FilteringFunctions/arm_fir_fast_q15.c **** * -------------------------------------------------------------------- */
  40:../Dave/Generated/CMSIS_DSP/FilteringFunctions/arm_fir_fast_q15.c **** 
  41:../Dave/Generated/CMSIS_DSP/FilteringFunctions/arm_fir_fast_q15.c **** #include "CMSIS_DSP/cmsis_dsp.h"
  42:../Dave/Generated/CMSIS_DSP/FilteringFunctions/arm_fir_fast_q15.c **** 
  43:../Dave/Generated/CMSIS_DSP/FilteringFunctions/arm_fir_fast_q15.c **** /**    
  44:../Dave/Generated/CMSIS_DSP/FilteringFunctions/arm_fir_fast_q15.c ****  * @ingroup groupFilters    
  45:../Dave/Generated/CMSIS_DSP/FilteringFunctions/arm_fir_fast_q15.c ****  */
  46:../Dave/Generated/CMSIS_DSP/FilteringFunctions/arm_fir_fast_q15.c **** 
  47:../Dave/Generated/CMSIS_DSP/FilteringFunctions/arm_fir_fast_q15.c **** /**    
  48:../Dave/Generated/CMSIS_DSP/FilteringFunctions/arm_fir_fast_q15.c ****  * @addtogroup FIR    
  49:../Dave/Generated/CMSIS_DSP/FilteringFunctions/arm_fir_fast_q15.c ****  * @{    
  50:../Dave/Generated/CMSIS_DSP/FilteringFunctions/arm_fir_fast_q15.c ****  */
  51:../Dave/Generated/CMSIS_DSP/FilteringFunctions/arm_fir_fast_q15.c **** 
  52:../Dave/Generated/CMSIS_DSP/FilteringFunctions/arm_fir_fast_q15.c **** /**    
  53:../Dave/Generated/CMSIS_DSP/FilteringFunctions/arm_fir_fast_q15.c ****  * @param[in] *S points to an instance of the Q15 FIR filter structure.    
  54:../Dave/Generated/CMSIS_DSP/FilteringFunctions/arm_fir_fast_q15.c ****  * @param[in] *pSrc points to the block of input data.    
  55:../Dave/Generated/CMSIS_DSP/FilteringFunctions/arm_fir_fast_q15.c ****  * @param[out] *pDst points to the block of output data.    
  56:../Dave/Generated/CMSIS_DSP/FilteringFunctions/arm_fir_fast_q15.c ****  * @param[in] blockSize number of samples to process per call.    
  57:../Dave/Generated/CMSIS_DSP/FilteringFunctions/arm_fir_fast_q15.c ****  * @return none.    
  58:../Dave/Generated/CMSIS_DSP/FilteringFunctions/arm_fir_fast_q15.c ****  *    
  59:../Dave/Generated/CMSIS_DSP/FilteringFunctions/arm_fir_fast_q15.c ****  * <b>Scaling and Overflow Behavior:</b>    
  60:../Dave/Generated/CMSIS_DSP/FilteringFunctions/arm_fir_fast_q15.c ****  * \par    
  61:../Dave/Generated/CMSIS_DSP/FilteringFunctions/arm_fir_fast_q15.c ****  * This fast version uses a 32-bit accumulator with 2.30 format.    
  62:../Dave/Generated/CMSIS_DSP/FilteringFunctions/arm_fir_fast_q15.c ****  * The accumulator maintains full precision of the intermediate multiplication results but provides
  63:../Dave/Generated/CMSIS_DSP/FilteringFunctions/arm_fir_fast_q15.c ****  * Thus, if the accumulator result overflows it wraps around and distorts the result.    
  64:../Dave/Generated/CMSIS_DSP/FilteringFunctions/arm_fir_fast_q15.c ****  * In order to avoid overflows completely the input signal must be scaled down by log2(numTaps) bit
  65:../Dave/Generated/CMSIS_DSP/FilteringFunctions/arm_fir_fast_q15.c ****  * The 2.30 accumulator is then truncated to 2.15 format and saturated to yield the 1.15 result.   
  66:../Dave/Generated/CMSIS_DSP/FilteringFunctions/arm_fir_fast_q15.c ****  *    
  67:../Dave/Generated/CMSIS_DSP/FilteringFunctions/arm_fir_fast_q15.c ****  * \par    
  68:../Dave/Generated/CMSIS_DSP/FilteringFunctions/arm_fir_fast_q15.c ****  * Refer to the function <code>arm_fir_q15()</code> for a slower implementation of this function wh
  69:../Dave/Generated/CMSIS_DSP/FilteringFunctions/arm_fir_fast_q15.c ****  * Use the function <code>arm_fir_init_q15()</code> to initialize the filter structure.    
  70:../Dave/Generated/CMSIS_DSP/FilteringFunctions/arm_fir_fast_q15.c ****  */
  71:../Dave/Generated/CMSIS_DSP/FilteringFunctions/arm_fir_fast_q15.c **** 
  72:../Dave/Generated/CMSIS_DSP/FilteringFunctions/arm_fir_fast_q15.c **** void arm_fir_fast_q15(
  73:../Dave/Generated/CMSIS_DSP/FilteringFunctions/arm_fir_fast_q15.c ****   const arm_fir_instance_q15 * S,
  74:../Dave/Generated/CMSIS_DSP/FilteringFunctions/arm_fir_fast_q15.c ****   q15_t * pSrc,
  75:../Dave/Generated/CMSIS_DSP/FilteringFunctions/arm_fir_fast_q15.c ****   q15_t * pDst,
  76:../Dave/Generated/CMSIS_DSP/FilteringFunctions/arm_fir_fast_q15.c ****   uint32_t blockSize)
  77:../Dave/Generated/CMSIS_DSP/FilteringFunctions/arm_fir_fast_q15.c **** {
  27              	 .loc 1 77 0
  28              	 .cfi_startproc
  29              	 
  30              	 
  31              	 
  32 0000 90B4     	 push {r4,r7}
  33              	.LCFI0:
  34              	 .cfi_def_cfa_offset 8
  35              	 .cfi_offset 4,-8
  36              	 .cfi_offset 7,-4
  37 0002 E4B0     	 sub sp,sp,#400
  38              	.LCFI1:
  39              	 .cfi_def_cfa_offset 408
  40 0004 00AF     	 add r7,sp,#0
  41              	.LCFI2:
  42              	 .cfi_def_cfa_register 7
  43 0006 07F10C04 	 add r4,r7,#12
  44 000a 2060     	 str r0,[r4]
  45 000c 07F10800 	 add r0,r7,#8
  46 0010 0160     	 str r1,[r0]
  47 0012 391D     	 adds r1,r7,#4
  48 0014 0A60     	 str r2,[r1]
  49 0016 3A46     	 mov r2,r7
  50 0018 1360     	 str r3,[r2]
  78:../Dave/Generated/CMSIS_DSP/FilteringFunctions/arm_fir_fast_q15.c ****   q15_t *pState = S->pState;                     /* State pointer */
  51              	 .loc 1 78 0
  52 001a 07F10C03 	 add r3,r7,#12
  53 001e 1B68     	 ldr r3,[r3]
  54 0020 5B68     	 ldr r3,[r3,#4]
  55 0022 C7F88C31 	 str r3,[r7,#396]
  79:../Dave/Generated/CMSIS_DSP/FilteringFunctions/arm_fir_fast_q15.c ****   q15_t *pCoeffs = S->pCoeffs;                   /* Coefficient pointer */
  56              	 .loc 1 79 0
  57 0026 07F10C03 	 add r3,r7,#12
  58 002a 1B68     	 ldr r3,[r3]
  59 002c 9B68     	 ldr r3,[r3,#8]
  60 002e C7F86431 	 str r3,[r7,#356]
  80:../Dave/Generated/CMSIS_DSP/FilteringFunctions/arm_fir_fast_q15.c ****   q15_t *pStateCurnt;                            /* Points to the current sample of the state */
  81:../Dave/Generated/CMSIS_DSP/FilteringFunctions/arm_fir_fast_q15.c ****   q31_t acc0, acc1, acc2, acc3;                  /* Accumulators */
  82:../Dave/Generated/CMSIS_DSP/FilteringFunctions/arm_fir_fast_q15.c ****   q15_t *pb;                                     /* Temporary pointer for coefficient buffer */
  83:../Dave/Generated/CMSIS_DSP/FilteringFunctions/arm_fir_fast_q15.c ****   q15_t *px;                                     /* Temporary q31 pointer for SIMD state buffer acc
  84:../Dave/Generated/CMSIS_DSP/FilteringFunctions/arm_fir_fast_q15.c ****   q31_t x0, x1, x2, c0;                          /* Temporary variables to hold SIMD state and coef
  85:../Dave/Generated/CMSIS_DSP/FilteringFunctions/arm_fir_fast_q15.c ****   uint32_t numTaps = S->numTaps;                 /* Number of taps in the filter */
  61              	 .loc 1 85 0
  62 0032 07F10C03 	 add r3,r7,#12
  63 0036 1B68     	 ldr r3,[r3]
  64 0038 1B88     	 ldrh r3,[r3]
  65 003a C7F86031 	 str r3,[r7,#352]
  86:../Dave/Generated/CMSIS_DSP/FilteringFunctions/arm_fir_fast_q15.c ****   uint32_t tapCnt, blkCnt;                       /* Loop counters */
  87:../Dave/Generated/CMSIS_DSP/FilteringFunctions/arm_fir_fast_q15.c **** 
  88:../Dave/Generated/CMSIS_DSP/FilteringFunctions/arm_fir_fast_q15.c **** 
  89:../Dave/Generated/CMSIS_DSP/FilteringFunctions/arm_fir_fast_q15.c ****   /* S->pState points to state array which contains previous frame (numTaps - 1) samples */
  90:../Dave/Generated/CMSIS_DSP/FilteringFunctions/arm_fir_fast_q15.c ****   /* pStateCurnt points to the location where the new input data should be written */
  91:../Dave/Generated/CMSIS_DSP/FilteringFunctions/arm_fir_fast_q15.c ****   pStateCurnt = &(S->pState[(numTaps - 1u)]);
  66              	 .loc 1 91 0
  67 003e 07F10C03 	 add r3,r7,#12
  68 0042 1B68     	 ldr r3,[r3]
  69 0044 5A68     	 ldr r2,[r3,#4]
  70 0046 D7F86031 	 ldr r3,[r7,#352]
  71 004a 03F10043 	 add r3,r3,#-2147483648
  72 004e 013B     	 subs r3,r3,#1
  73 0050 5B00     	 lsls r3,r3,#1
  74 0052 1344     	 add r3,r3,r2
  75 0054 C7F88831 	 str r3,[r7,#392]
  92:../Dave/Generated/CMSIS_DSP/FilteringFunctions/arm_fir_fast_q15.c **** 
  93:../Dave/Generated/CMSIS_DSP/FilteringFunctions/arm_fir_fast_q15.c ****   /* Apply loop unrolling and compute 4 output values simultaneously.      
  94:../Dave/Generated/CMSIS_DSP/FilteringFunctions/arm_fir_fast_q15.c ****    * The variables acc0 ... acc3 hold output values that are being computed:      
  95:../Dave/Generated/CMSIS_DSP/FilteringFunctions/arm_fir_fast_q15.c ****    *      
  96:../Dave/Generated/CMSIS_DSP/FilteringFunctions/arm_fir_fast_q15.c ****    *    acc0 =  b[numTaps-1] * x[n-numTaps-1] + b[numTaps-2] * x[n-numTaps-2] + b[numTaps-3] * x[n-
  97:../Dave/Generated/CMSIS_DSP/FilteringFunctions/arm_fir_fast_q15.c ****    *    acc1 =  b[numTaps-1] * x[n-numTaps] +   b[numTaps-2] * x[n-numTaps-1] + b[numTaps-3] * x[n-
  98:../Dave/Generated/CMSIS_DSP/FilteringFunctions/arm_fir_fast_q15.c ****    *    acc2 =  b[numTaps-1] * x[n-numTaps+1] + b[numTaps-2] * x[n-numTaps] +   b[numTaps-3] * x[n-
  99:../Dave/Generated/CMSIS_DSP/FilteringFunctions/arm_fir_fast_q15.c ****    *    acc3 =  b[numTaps-1] * x[n-numTaps+2] + b[numTaps-2] * x[n-numTaps+1] + b[numTaps-3] * x[n-
 100:../Dave/Generated/CMSIS_DSP/FilteringFunctions/arm_fir_fast_q15.c ****    */
 101:../Dave/Generated/CMSIS_DSP/FilteringFunctions/arm_fir_fast_q15.c **** 
 102:../Dave/Generated/CMSIS_DSP/FilteringFunctions/arm_fir_fast_q15.c ****   blkCnt = blockSize >> 2;
  76              	 .loc 1 102 0
  77 0058 3B46     	 mov r3,r7
  78 005a 1B68     	 ldr r3,[r3]
  79 005c 9B08     	 lsrs r3,r3,#2
  80 005e C7F86831 	 str r3,[r7,#360]
 103:../Dave/Generated/CMSIS_DSP/FilteringFunctions/arm_fir_fast_q15.c **** 
 104:../Dave/Generated/CMSIS_DSP/FilteringFunctions/arm_fir_fast_q15.c ****   /* First part of the processing with loop unrolling.  Compute 4 outputs at a time.      
 105:../Dave/Generated/CMSIS_DSP/FilteringFunctions/arm_fir_fast_q15.c ****    ** a second loop below computes the remaining 1 to 3 samples. */
 106:../Dave/Generated/CMSIS_DSP/FilteringFunctions/arm_fir_fast_q15.c ****   while(blkCnt > 0u)
  81              	 .loc 1 106 0
  82 0062 E2E2     	 b .L2
  83              	.L18:
 107:../Dave/Generated/CMSIS_DSP/FilteringFunctions/arm_fir_fast_q15.c ****   {
 108:../Dave/Generated/CMSIS_DSP/FilteringFunctions/arm_fir_fast_q15.c ****     /* Copy four new input samples into the state buffer.      
 109:../Dave/Generated/CMSIS_DSP/FilteringFunctions/arm_fir_fast_q15.c ****      ** Use 32-bit SIMD to move the 16-bit data.  Only requires two copies. */
 110:../Dave/Generated/CMSIS_DSP/FilteringFunctions/arm_fir_fast_q15.c ****     *pStateCurnt++ = *pSrc++;
  84              	 .loc 1 110 0
  85 0064 D7F88831 	 ldr r3,[r7,#392]
  86 0068 9A1C     	 adds r2,r3,#2
  87 006a C7F88821 	 str r2,[r7,#392]
  88 006e 07F10802 	 add r2,r7,#8
  89 0072 1268     	 ldr r2,[r2]
  90 0074 07F10801 	 add r1,r7,#8
  91 0078 901C     	 adds r0,r2,#2
  92 007a 0860     	 str r0,[r1]
  93 007c 1288     	 ldrh r2,[r2]
  94 007e 1A80     	 strh r2,[r3]
 111:../Dave/Generated/CMSIS_DSP/FilteringFunctions/arm_fir_fast_q15.c ****     *pStateCurnt++ = *pSrc++;
  95              	 .loc 1 111 0
  96 0080 D7F88831 	 ldr r3,[r7,#392]
  97 0084 9A1C     	 adds r2,r3,#2
  98 0086 C7F88821 	 str r2,[r7,#392]
  99 008a 07F10802 	 add r2,r7,#8
 100 008e 1268     	 ldr r2,[r2]
 101 0090 07F10801 	 add r1,r7,#8
 102 0094 901C     	 adds r0,r2,#2
 103 0096 0860     	 str r0,[r1]
 104 0098 1288     	 ldrh r2,[r2]
 105 009a 1A80     	 strh r2,[r3]
 112:../Dave/Generated/CMSIS_DSP/FilteringFunctions/arm_fir_fast_q15.c ****     *pStateCurnt++ = *pSrc++;
 106              	 .loc 1 112 0
 107 009c D7F88831 	 ldr r3,[r7,#392]
 108 00a0 9A1C     	 adds r2,r3,#2
 109 00a2 C7F88821 	 str r2,[r7,#392]
 110 00a6 07F10802 	 add r2,r7,#8
 111 00aa 1268     	 ldr r2,[r2]
 112 00ac 07F10801 	 add r1,r7,#8
 113 00b0 901C     	 adds r0,r2,#2
 114 00b2 0860     	 str r0,[r1]
 115 00b4 1288     	 ldrh r2,[r2]
 116 00b6 1A80     	 strh r2,[r3]
 113:../Dave/Generated/CMSIS_DSP/FilteringFunctions/arm_fir_fast_q15.c ****     *pStateCurnt++ = *pSrc++;
 117              	 .loc 1 113 0
 118 00b8 D7F88831 	 ldr r3,[r7,#392]
 119 00bc 9A1C     	 adds r2,r3,#2
 120 00be C7F88821 	 str r2,[r7,#392]
 121 00c2 07F10802 	 add r2,r7,#8
 122 00c6 1268     	 ldr r2,[r2]
 123 00c8 07F10801 	 add r1,r7,#8
 124 00cc 901C     	 adds r0,r2,#2
 125 00ce 0860     	 str r0,[r1]
 126 00d0 1288     	 ldrh r2,[r2]
 127 00d2 1A80     	 strh r2,[r3]
 114:../Dave/Generated/CMSIS_DSP/FilteringFunctions/arm_fir_fast_q15.c **** 
 115:../Dave/Generated/CMSIS_DSP/FilteringFunctions/arm_fir_fast_q15.c **** 
 116:../Dave/Generated/CMSIS_DSP/FilteringFunctions/arm_fir_fast_q15.c ****     /* Set all accumulators to zero */
 117:../Dave/Generated/CMSIS_DSP/FilteringFunctions/arm_fir_fast_q15.c ****     acc0 = 0;
 128              	 .loc 1 117 0
 129 00d4 0023     	 movs r3,#0
 130 00d6 C7F88431 	 str r3,[r7,#388]
 118:../Dave/Generated/CMSIS_DSP/FilteringFunctions/arm_fir_fast_q15.c ****     acc1 = 0;
 131              	 .loc 1 118 0
 132 00da 0023     	 movs r3,#0
 133 00dc C7F88031 	 str r3,[r7,#384]
 119:../Dave/Generated/CMSIS_DSP/FilteringFunctions/arm_fir_fast_q15.c ****     acc2 = 0;
 134              	 .loc 1 119 0
 135 00e0 0023     	 movs r3,#0
 136 00e2 C7F87C31 	 str r3,[r7,#380]
 120:../Dave/Generated/CMSIS_DSP/FilteringFunctions/arm_fir_fast_q15.c ****     acc3 = 0;
 137              	 .loc 1 120 0
 138 00e6 0023     	 movs r3,#0
 139 00e8 C7F87831 	 str r3,[r7,#376]
 121:../Dave/Generated/CMSIS_DSP/FilteringFunctions/arm_fir_fast_q15.c **** 
 122:../Dave/Generated/CMSIS_DSP/FilteringFunctions/arm_fir_fast_q15.c ****     /* Typecast q15_t pointer to q31_t pointer for state reading in q31_t */
 123:../Dave/Generated/CMSIS_DSP/FilteringFunctions/arm_fir_fast_q15.c ****     px = pState;
 140              	 .loc 1 123 0
 141 00ec 07F11403 	 add r3,r7,#20
 142 00f0 D7F88C21 	 ldr r2,[r7,#396]
 143 00f4 1A60     	 str r2,[r3]
 124:../Dave/Generated/CMSIS_DSP/FilteringFunctions/arm_fir_fast_q15.c **** 
 125:../Dave/Generated/CMSIS_DSP/FilteringFunctions/arm_fir_fast_q15.c ****     /* Typecast q15_t pointer to q31_t pointer for coefficient reading in q31_t */
 126:../Dave/Generated/CMSIS_DSP/FilteringFunctions/arm_fir_fast_q15.c ****     pb = pCoeffs;
 144              	 .loc 1 126 0
 145 00f6 07F11803 	 add r3,r7,#24
 146 00fa D7F86421 	 ldr r2,[r7,#356]
 147 00fe 1A60     	 str r2,[r3]
 127:../Dave/Generated/CMSIS_DSP/FilteringFunctions/arm_fir_fast_q15.c **** 
 128:../Dave/Generated/CMSIS_DSP/FilteringFunctions/arm_fir_fast_q15.c ****     /* Read the first two samples from the state buffer:  x[n-N], x[n-N-1] */
 129:../Dave/Generated/CMSIS_DSP/FilteringFunctions/arm_fir_fast_q15.c ****     x0 = *__SIMD32(px)++;
 148              	 .loc 1 129 0
 149 0100 07F11402 	 add r2,r7,#20
 150 0104 1368     	 ldr r3,[r2]
 151 0106 191D     	 adds r1,r3,#4
 152 0108 1160     	 str r1,[r2]
 153 010a 1B68     	 ldr r3,[r3]
 154 010c C7F87431 	 str r3,[r7,#372]
 130:../Dave/Generated/CMSIS_DSP/FilteringFunctions/arm_fir_fast_q15.c **** 
 131:../Dave/Generated/CMSIS_DSP/FilteringFunctions/arm_fir_fast_q15.c ****     /* Read the third and forth samples from the state buffer: x[n-N-2], x[n-N-3] */
 132:../Dave/Generated/CMSIS_DSP/FilteringFunctions/arm_fir_fast_q15.c ****     x2 = *__SIMD32(px)++;
 155              	 .loc 1 132 0
 156 0110 07F11402 	 add r2,r7,#20
 157 0114 1368     	 ldr r3,[r2]
 158 0116 191D     	 adds r1,r3,#4
 159 0118 1160     	 str r1,[r2]
 160 011a 1B68     	 ldr r3,[r3]
 161 011c C7F87031 	 str r3,[r7,#368]
 133:../Dave/Generated/CMSIS_DSP/FilteringFunctions/arm_fir_fast_q15.c **** 
 134:../Dave/Generated/CMSIS_DSP/FilteringFunctions/arm_fir_fast_q15.c ****     /* Loop over the number of taps.  Unroll by a factor of 4.      
 135:../Dave/Generated/CMSIS_DSP/FilteringFunctions/arm_fir_fast_q15.c ****      ** Repeat until we've computed numTaps-(numTaps%4) coefficients. */
 136:../Dave/Generated/CMSIS_DSP/FilteringFunctions/arm_fir_fast_q15.c ****     tapCnt = numTaps >> 2;
 162              	 .loc 1 136 0
 163 0120 D7F86031 	 ldr r3,[r7,#352]
 164 0124 9B08     	 lsrs r3,r3,#2
 165 0126 C7F86C31 	 str r3,[r7,#364]
 137:../Dave/Generated/CMSIS_DSP/FilteringFunctions/arm_fir_fast_q15.c **** 
 138:../Dave/Generated/CMSIS_DSP/FilteringFunctions/arm_fir_fast_q15.c ****     while(tapCnt > 0)
 166              	 .loc 1 138 0
 167 012a 50E1     	 b .L3
 168              	.L12:
 139:../Dave/Generated/CMSIS_DSP/FilteringFunctions/arm_fir_fast_q15.c ****     {
 140:../Dave/Generated/CMSIS_DSP/FilteringFunctions/arm_fir_fast_q15.c ****       /* Read the first two coefficients using SIMD:  b[N] and b[N-1] coefficients */
 141:../Dave/Generated/CMSIS_DSP/FilteringFunctions/arm_fir_fast_q15.c ****       c0 = *__SIMD32(pb)++;
 169              	 .loc 1 141 0
 170 012c 07F11802 	 add r2,r7,#24
 171 0130 1368     	 ldr r3,[r2]
 172 0132 191D     	 adds r1,r3,#4
 173 0134 1160     	 str r1,[r2]
 174 0136 1B68     	 ldr r3,[r3]
 175 0138 C7F85C31 	 str r3,[r7,#348]
 142:../Dave/Generated/CMSIS_DSP/FilteringFunctions/arm_fir_fast_q15.c **** 
 143:../Dave/Generated/CMSIS_DSP/FilteringFunctions/arm_fir_fast_q15.c ****       /* acc0 +=  b[N] * x[n-N] + b[N-1] * x[n-N-1] */
 144:../Dave/Generated/CMSIS_DSP/FilteringFunctions/arm_fir_fast_q15.c ****       acc0 = __SMLAD(x0, c0, acc0);
 176              	 .loc 1 144 0
 177 013c D7F87411 	 ldr r1,[r7,#372]
 178 0140 D7F85C21 	 ldr r2,[r7,#348]
 179 0144 D7F88431 	 ldr r3,[r7,#388]
 180 0148 C7F8D810 	 str r1,[r7,#216]
 181 014c C7F8D420 	 str r2,[r7,#212]
 182 0150 C7F8D030 	 str r3,[r7,#208]
 183              	.LBB38:
 184              	.LBB39:
 185              	 .file 2 "C:\\Users\\Depes Crystalline\\Desktop\\school\\Active_Bike_Lighting_System\\Radar_Core/Libraries/CMSIS/Include/core_cmSimd.h"
   1:C:\Users\Depes Crystalline\Desktop\school\Active_Bike_Lighting_System\Radar_Core/Libraries/CMSIS/Include\core_cmSimd.h **** /**************************************************************************//**
   2:C:\Users\Depes Crystalline\Desktop\school\Active_Bike_Lighting_System\Radar_Core/Libraries/CMSIS/Include\core_cmSimd.h ****  * @file     core_cmSimd.h
   3:C:\Users\Depes Crystalline\Desktop\school\Active_Bike_Lighting_System\Radar_Core/Libraries/CMSIS/Include\core_cmSimd.h ****  * @brief    CMSIS Cortex-M SIMD Header File
   4:C:\Users\Depes Crystalline\Desktop\school\Active_Bike_Lighting_System\Radar_Core/Libraries/CMSIS/Include\core_cmSimd.h ****  * @version  V4.00
   5:C:\Users\Depes Crystalline\Desktop\school\Active_Bike_Lighting_System\Radar_Core/Libraries/CMSIS/Include\core_cmSimd.h ****  * @date     22. August 2014
   6:C:\Users\Depes Crystalline\Desktop\school\Active_Bike_Lighting_System\Radar_Core/Libraries/CMSIS/Include\core_cmSimd.h ****  *
   7:C:\Users\Depes Crystalline\Desktop\school\Active_Bike_Lighting_System\Radar_Core/Libraries/CMSIS/Include\core_cmSimd.h ****  * @note
   8:C:\Users\Depes Crystalline\Desktop\school\Active_Bike_Lighting_System\Radar_Core/Libraries/CMSIS/Include\core_cmSimd.h ****  *
   9:C:\Users\Depes Crystalline\Desktop\school\Active_Bike_Lighting_System\Radar_Core/Libraries/CMSIS/Include\core_cmSimd.h ****  ******************************************************************************/
  10:C:\Users\Depes Crystalline\Desktop\school\Active_Bike_Lighting_System\Radar_Core/Libraries/CMSIS/Include\core_cmSimd.h **** /* Copyright (c) 2009 - 2014 ARM LIMITED
  11:C:\Users\Depes Crystalline\Desktop\school\Active_Bike_Lighting_System\Radar_Core/Libraries/CMSIS/Include\core_cmSimd.h **** 
  12:C:\Users\Depes Crystalline\Desktop\school\Active_Bike_Lighting_System\Radar_Core/Libraries/CMSIS/Include\core_cmSimd.h ****    All rights reserved.
  13:C:\Users\Depes Crystalline\Desktop\school\Active_Bike_Lighting_System\Radar_Core/Libraries/CMSIS/Include\core_cmSimd.h ****    Redistribution and use in source and binary forms, with or without
  14:C:\Users\Depes Crystalline\Desktop\school\Active_Bike_Lighting_System\Radar_Core/Libraries/CMSIS/Include\core_cmSimd.h ****    modification, are permitted provided that the following conditions are met:
  15:C:\Users\Depes Crystalline\Desktop\school\Active_Bike_Lighting_System\Radar_Core/Libraries/CMSIS/Include\core_cmSimd.h ****    - Redistributions of source code must retain the above copyright
  16:C:\Users\Depes Crystalline\Desktop\school\Active_Bike_Lighting_System\Radar_Core/Libraries/CMSIS/Include\core_cmSimd.h ****      notice, this list of conditions and the following disclaimer.
  17:C:\Users\Depes Crystalline\Desktop\school\Active_Bike_Lighting_System\Radar_Core/Libraries/CMSIS/Include\core_cmSimd.h ****    - Redistributions in binary form must reproduce the above copyright
  18:C:\Users\Depes Crystalline\Desktop\school\Active_Bike_Lighting_System\Radar_Core/Libraries/CMSIS/Include\core_cmSimd.h ****      notice, this list of conditions and the following disclaimer in the
  19:C:\Users\Depes Crystalline\Desktop\school\Active_Bike_Lighting_System\Radar_Core/Libraries/CMSIS/Include\core_cmSimd.h ****      documentation and/or other materials provided with the distribution.
  20:C:\Users\Depes Crystalline\Desktop\school\Active_Bike_Lighting_System\Radar_Core/Libraries/CMSIS/Include\core_cmSimd.h ****    - Neither the name of ARM nor the names of its contributors may be used
  21:C:\Users\Depes Crystalline\Desktop\school\Active_Bike_Lighting_System\Radar_Core/Libraries/CMSIS/Include\core_cmSimd.h ****      to endorse or promote products derived from this software without
  22:C:\Users\Depes Crystalline\Desktop\school\Active_Bike_Lighting_System\Radar_Core/Libraries/CMSIS/Include\core_cmSimd.h ****      specific prior written permission.
  23:C:\Users\Depes Crystalline\Desktop\school\Active_Bike_Lighting_System\Radar_Core/Libraries/CMSIS/Include\core_cmSimd.h ****    *
  24:C:\Users\Depes Crystalline\Desktop\school\Active_Bike_Lighting_System\Radar_Core/Libraries/CMSIS/Include\core_cmSimd.h ****    THIS SOFTWARE IS PROVIDED BY THE COPYRIGHT HOLDERS AND CONTRIBUTORS "AS IS"
  25:C:\Users\Depes Crystalline\Desktop\school\Active_Bike_Lighting_System\Radar_Core/Libraries/CMSIS/Include\core_cmSimd.h ****    AND ANY EXPRESS OR IMPLIED WARRANTIES, INCLUDING, BUT NOT LIMITED TO, THE
  26:C:\Users\Depes Crystalline\Desktop\school\Active_Bike_Lighting_System\Radar_Core/Libraries/CMSIS/Include\core_cmSimd.h ****    IMPLIED WARRANTIES OF MERCHANTABILITY AND FITNESS FOR A PARTICULAR PURPOSE
  27:C:\Users\Depes Crystalline\Desktop\school\Active_Bike_Lighting_System\Radar_Core/Libraries/CMSIS/Include\core_cmSimd.h ****    ARE DISCLAIMED. IN NO EVENT SHALL COPYRIGHT HOLDERS AND CONTRIBUTORS BE
  28:C:\Users\Depes Crystalline\Desktop\school\Active_Bike_Lighting_System\Radar_Core/Libraries/CMSIS/Include\core_cmSimd.h ****    LIABLE FOR ANY DIRECT, INDIRECT, INCIDENTAL, SPECIAL, EXEMPLARY, OR
  29:C:\Users\Depes Crystalline\Desktop\school\Active_Bike_Lighting_System\Radar_Core/Libraries/CMSIS/Include\core_cmSimd.h ****    CONSEQUENTIAL DAMAGES (INCLUDING, BUT NOT LIMITED TO, PROCUREMENT OF
  30:C:\Users\Depes Crystalline\Desktop\school\Active_Bike_Lighting_System\Radar_Core/Libraries/CMSIS/Include\core_cmSimd.h ****    SUBSTITUTE GOODS OR SERVICES; LOSS OF USE, DATA, OR PROFITS; OR BUSINESS
  31:C:\Users\Depes Crystalline\Desktop\school\Active_Bike_Lighting_System\Radar_Core/Libraries/CMSIS/Include\core_cmSimd.h ****    INTERRUPTION) HOWEVER CAUSED AND ON ANY THEORY OF LIABILITY, WHETHER IN
  32:C:\Users\Depes Crystalline\Desktop\school\Active_Bike_Lighting_System\Radar_Core/Libraries/CMSIS/Include\core_cmSimd.h ****    CONTRACT, STRICT LIABILITY, OR TORT (INCLUDING NEGLIGENCE OR OTHERWISE)
  33:C:\Users\Depes Crystalline\Desktop\school\Active_Bike_Lighting_System\Radar_Core/Libraries/CMSIS/Include\core_cmSimd.h ****    ARISING IN ANY WAY OUT OF THE USE OF THIS SOFTWARE, EVEN IF ADVISED OF THE
  34:C:\Users\Depes Crystalline\Desktop\school\Active_Bike_Lighting_System\Radar_Core/Libraries/CMSIS/Include\core_cmSimd.h ****    POSSIBILITY OF SUCH DAMAGE.
  35:C:\Users\Depes Crystalline\Desktop\school\Active_Bike_Lighting_System\Radar_Core/Libraries/CMSIS/Include\core_cmSimd.h ****    ---------------------------------------------------------------------------*/
  36:C:\Users\Depes Crystalline\Desktop\school\Active_Bike_Lighting_System\Radar_Core/Libraries/CMSIS/Include\core_cmSimd.h **** 
  37:C:\Users\Depes Crystalline\Desktop\school\Active_Bike_Lighting_System\Radar_Core/Libraries/CMSIS/Include\core_cmSimd.h **** 
  38:C:\Users\Depes Crystalline\Desktop\school\Active_Bike_Lighting_System\Radar_Core/Libraries/CMSIS/Include\core_cmSimd.h **** #if defined ( __ICCARM__ )
  39:C:\Users\Depes Crystalline\Desktop\school\Active_Bike_Lighting_System\Radar_Core/Libraries/CMSIS/Include\core_cmSimd.h ****  #pragma system_include  /* treat file as system include file for MISRA check */
  40:C:\Users\Depes Crystalline\Desktop\school\Active_Bike_Lighting_System\Radar_Core/Libraries/CMSIS/Include\core_cmSimd.h **** #endif
  41:C:\Users\Depes Crystalline\Desktop\school\Active_Bike_Lighting_System\Radar_Core/Libraries/CMSIS/Include\core_cmSimd.h **** 
  42:C:\Users\Depes Crystalline\Desktop\school\Active_Bike_Lighting_System\Radar_Core/Libraries/CMSIS/Include\core_cmSimd.h **** #ifndef __CORE_CMSIMD_H
  43:C:\Users\Depes Crystalline\Desktop\school\Active_Bike_Lighting_System\Radar_Core/Libraries/CMSIS/Include\core_cmSimd.h **** #define __CORE_CMSIMD_H
  44:C:\Users\Depes Crystalline\Desktop\school\Active_Bike_Lighting_System\Radar_Core/Libraries/CMSIS/Include\core_cmSimd.h **** 
  45:C:\Users\Depes Crystalline\Desktop\school\Active_Bike_Lighting_System\Radar_Core/Libraries/CMSIS/Include\core_cmSimd.h **** #ifdef __cplusplus
  46:C:\Users\Depes Crystalline\Desktop\school\Active_Bike_Lighting_System\Radar_Core/Libraries/CMSIS/Include\core_cmSimd.h ****  extern "C" {
  47:C:\Users\Depes Crystalline\Desktop\school\Active_Bike_Lighting_System\Radar_Core/Libraries/CMSIS/Include\core_cmSimd.h **** #endif
  48:C:\Users\Depes Crystalline\Desktop\school\Active_Bike_Lighting_System\Radar_Core/Libraries/CMSIS/Include\core_cmSimd.h **** 
  49:C:\Users\Depes Crystalline\Desktop\school\Active_Bike_Lighting_System\Radar_Core/Libraries/CMSIS/Include\core_cmSimd.h **** 
  50:C:\Users\Depes Crystalline\Desktop\school\Active_Bike_Lighting_System\Radar_Core/Libraries/CMSIS/Include\core_cmSimd.h **** /*******************************************************************************
  51:C:\Users\Depes Crystalline\Desktop\school\Active_Bike_Lighting_System\Radar_Core/Libraries/CMSIS/Include\core_cmSimd.h ****  *                Hardware Abstraction Layer
  52:C:\Users\Depes Crystalline\Desktop\school\Active_Bike_Lighting_System\Radar_Core/Libraries/CMSIS/Include\core_cmSimd.h ****  ******************************************************************************/
  53:C:\Users\Depes Crystalline\Desktop\school\Active_Bike_Lighting_System\Radar_Core/Libraries/CMSIS/Include\core_cmSimd.h **** 
  54:C:\Users\Depes Crystalline\Desktop\school\Active_Bike_Lighting_System\Radar_Core/Libraries/CMSIS/Include\core_cmSimd.h **** 
  55:C:\Users\Depes Crystalline\Desktop\school\Active_Bike_Lighting_System\Radar_Core/Libraries/CMSIS/Include\core_cmSimd.h **** /* ###################  Compiler specific Intrinsics  ########################### */
  56:C:\Users\Depes Crystalline\Desktop\school\Active_Bike_Lighting_System\Radar_Core/Libraries/CMSIS/Include\core_cmSimd.h **** /** \defgroup CMSIS_SIMD_intrinsics CMSIS SIMD Intrinsics
  57:C:\Users\Depes Crystalline\Desktop\school\Active_Bike_Lighting_System\Radar_Core/Libraries/CMSIS/Include\core_cmSimd.h ****   Access to dedicated SIMD instructions
  58:C:\Users\Depes Crystalline\Desktop\school\Active_Bike_Lighting_System\Radar_Core/Libraries/CMSIS/Include\core_cmSimd.h ****   @{
  59:C:\Users\Depes Crystalline\Desktop\school\Active_Bike_Lighting_System\Radar_Core/Libraries/CMSIS/Include\core_cmSimd.h **** */
  60:C:\Users\Depes Crystalline\Desktop\school\Active_Bike_Lighting_System\Radar_Core/Libraries/CMSIS/Include\core_cmSimd.h **** 
  61:C:\Users\Depes Crystalline\Desktop\school\Active_Bike_Lighting_System\Radar_Core/Libraries/CMSIS/Include\core_cmSimd.h **** #if   defined ( __CC_ARM ) /*------------------RealView Compiler -----------------*/
  62:C:\Users\Depes Crystalline\Desktop\school\Active_Bike_Lighting_System\Radar_Core/Libraries/CMSIS/Include\core_cmSimd.h **** /* ARM armcc specific functions */
  63:C:\Users\Depes Crystalline\Desktop\school\Active_Bike_Lighting_System\Radar_Core/Libraries/CMSIS/Include\core_cmSimd.h **** #define __SADD8                           __sadd8
  64:C:\Users\Depes Crystalline\Desktop\school\Active_Bike_Lighting_System\Radar_Core/Libraries/CMSIS/Include\core_cmSimd.h **** #define __QADD8                           __qadd8
  65:C:\Users\Depes Crystalline\Desktop\school\Active_Bike_Lighting_System\Radar_Core/Libraries/CMSIS/Include\core_cmSimd.h **** #define __SHADD8                          __shadd8
  66:C:\Users\Depes Crystalline\Desktop\school\Active_Bike_Lighting_System\Radar_Core/Libraries/CMSIS/Include\core_cmSimd.h **** #define __UADD8                           __uadd8
  67:C:\Users\Depes Crystalline\Desktop\school\Active_Bike_Lighting_System\Radar_Core/Libraries/CMSIS/Include\core_cmSimd.h **** #define __UQADD8                          __uqadd8
  68:C:\Users\Depes Crystalline\Desktop\school\Active_Bike_Lighting_System\Radar_Core/Libraries/CMSIS/Include\core_cmSimd.h **** #define __UHADD8                          __uhadd8
  69:C:\Users\Depes Crystalline\Desktop\school\Active_Bike_Lighting_System\Radar_Core/Libraries/CMSIS/Include\core_cmSimd.h **** #define __SSUB8                           __ssub8
  70:C:\Users\Depes Crystalline\Desktop\school\Active_Bike_Lighting_System\Radar_Core/Libraries/CMSIS/Include\core_cmSimd.h **** #define __QSUB8                           __qsub8
  71:C:\Users\Depes Crystalline\Desktop\school\Active_Bike_Lighting_System\Radar_Core/Libraries/CMSIS/Include\core_cmSimd.h **** #define __SHSUB8                          __shsub8
  72:C:\Users\Depes Crystalline\Desktop\school\Active_Bike_Lighting_System\Radar_Core/Libraries/CMSIS/Include\core_cmSimd.h **** #define __USUB8                           __usub8
  73:C:\Users\Depes Crystalline\Desktop\school\Active_Bike_Lighting_System\Radar_Core/Libraries/CMSIS/Include\core_cmSimd.h **** #define __UQSUB8                          __uqsub8
  74:C:\Users\Depes Crystalline\Desktop\school\Active_Bike_Lighting_System\Radar_Core/Libraries/CMSIS/Include\core_cmSimd.h **** #define __UHSUB8                          __uhsub8
  75:C:\Users\Depes Crystalline\Desktop\school\Active_Bike_Lighting_System\Radar_Core/Libraries/CMSIS/Include\core_cmSimd.h **** #define __SADD16                          __sadd16
  76:C:\Users\Depes Crystalline\Desktop\school\Active_Bike_Lighting_System\Radar_Core/Libraries/CMSIS/Include\core_cmSimd.h **** #define __QADD16                          __qadd16
  77:C:\Users\Depes Crystalline\Desktop\school\Active_Bike_Lighting_System\Radar_Core/Libraries/CMSIS/Include\core_cmSimd.h **** #define __SHADD16                         __shadd16
  78:C:\Users\Depes Crystalline\Desktop\school\Active_Bike_Lighting_System\Radar_Core/Libraries/CMSIS/Include\core_cmSimd.h **** #define __UADD16                          __uadd16
  79:C:\Users\Depes Crystalline\Desktop\school\Active_Bike_Lighting_System\Radar_Core/Libraries/CMSIS/Include\core_cmSimd.h **** #define __UQADD16                         __uqadd16
  80:C:\Users\Depes Crystalline\Desktop\school\Active_Bike_Lighting_System\Radar_Core/Libraries/CMSIS/Include\core_cmSimd.h **** #define __UHADD16                         __uhadd16
  81:C:\Users\Depes Crystalline\Desktop\school\Active_Bike_Lighting_System\Radar_Core/Libraries/CMSIS/Include\core_cmSimd.h **** #define __SSUB16                          __ssub16
  82:C:\Users\Depes Crystalline\Desktop\school\Active_Bike_Lighting_System\Radar_Core/Libraries/CMSIS/Include\core_cmSimd.h **** #define __QSUB16                          __qsub16
  83:C:\Users\Depes Crystalline\Desktop\school\Active_Bike_Lighting_System\Radar_Core/Libraries/CMSIS/Include\core_cmSimd.h **** #define __SHSUB16                         __shsub16
  84:C:\Users\Depes Crystalline\Desktop\school\Active_Bike_Lighting_System\Radar_Core/Libraries/CMSIS/Include\core_cmSimd.h **** #define __USUB16                          __usub16
  85:C:\Users\Depes Crystalline\Desktop\school\Active_Bike_Lighting_System\Radar_Core/Libraries/CMSIS/Include\core_cmSimd.h **** #define __UQSUB16                         __uqsub16
  86:C:\Users\Depes Crystalline\Desktop\school\Active_Bike_Lighting_System\Radar_Core/Libraries/CMSIS/Include\core_cmSimd.h **** #define __UHSUB16                         __uhsub16
  87:C:\Users\Depes Crystalline\Desktop\school\Active_Bike_Lighting_System\Radar_Core/Libraries/CMSIS/Include\core_cmSimd.h **** #define __SASX                            __sasx
  88:C:\Users\Depes Crystalline\Desktop\school\Active_Bike_Lighting_System\Radar_Core/Libraries/CMSIS/Include\core_cmSimd.h **** #define __QASX                            __qasx
  89:C:\Users\Depes Crystalline\Desktop\school\Active_Bike_Lighting_System\Radar_Core/Libraries/CMSIS/Include\core_cmSimd.h **** #define __SHASX                           __shasx
  90:C:\Users\Depes Crystalline\Desktop\school\Active_Bike_Lighting_System\Radar_Core/Libraries/CMSIS/Include\core_cmSimd.h **** #define __UASX                            __uasx
  91:C:\Users\Depes Crystalline\Desktop\school\Active_Bike_Lighting_System\Radar_Core/Libraries/CMSIS/Include\core_cmSimd.h **** #define __UQASX                           __uqasx
  92:C:\Users\Depes Crystalline\Desktop\school\Active_Bike_Lighting_System\Radar_Core/Libraries/CMSIS/Include\core_cmSimd.h **** #define __UHASX                           __uhasx
  93:C:\Users\Depes Crystalline\Desktop\school\Active_Bike_Lighting_System\Radar_Core/Libraries/CMSIS/Include\core_cmSimd.h **** #define __SSAX                            __ssax
  94:C:\Users\Depes Crystalline\Desktop\school\Active_Bike_Lighting_System\Radar_Core/Libraries/CMSIS/Include\core_cmSimd.h **** #define __QSAX                            __qsax
  95:C:\Users\Depes Crystalline\Desktop\school\Active_Bike_Lighting_System\Radar_Core/Libraries/CMSIS/Include\core_cmSimd.h **** #define __SHSAX                           __shsax
  96:C:\Users\Depes Crystalline\Desktop\school\Active_Bike_Lighting_System\Radar_Core/Libraries/CMSIS/Include\core_cmSimd.h **** #define __USAX                            __usax
  97:C:\Users\Depes Crystalline\Desktop\school\Active_Bike_Lighting_System\Radar_Core/Libraries/CMSIS/Include\core_cmSimd.h **** #define __UQSAX                           __uqsax
  98:C:\Users\Depes Crystalline\Desktop\school\Active_Bike_Lighting_System\Radar_Core/Libraries/CMSIS/Include\core_cmSimd.h **** #define __UHSAX                           __uhsax
  99:C:\Users\Depes Crystalline\Desktop\school\Active_Bike_Lighting_System\Radar_Core/Libraries/CMSIS/Include\core_cmSimd.h **** #define __USAD8                           __usad8
 100:C:\Users\Depes Crystalline\Desktop\school\Active_Bike_Lighting_System\Radar_Core/Libraries/CMSIS/Include\core_cmSimd.h **** #define __USADA8                          __usada8
 101:C:\Users\Depes Crystalline\Desktop\school\Active_Bike_Lighting_System\Radar_Core/Libraries/CMSIS/Include\core_cmSimd.h **** #define __SSAT16                          __ssat16
 102:C:\Users\Depes Crystalline\Desktop\school\Active_Bike_Lighting_System\Radar_Core/Libraries/CMSIS/Include\core_cmSimd.h **** #define __USAT16                          __usat16
 103:C:\Users\Depes Crystalline\Desktop\school\Active_Bike_Lighting_System\Radar_Core/Libraries/CMSIS/Include\core_cmSimd.h **** #define __UXTB16                          __uxtb16
 104:C:\Users\Depes Crystalline\Desktop\school\Active_Bike_Lighting_System\Radar_Core/Libraries/CMSIS/Include\core_cmSimd.h **** #define __UXTAB16                         __uxtab16
 105:C:\Users\Depes Crystalline\Desktop\school\Active_Bike_Lighting_System\Radar_Core/Libraries/CMSIS/Include\core_cmSimd.h **** #define __SXTB16                          __sxtb16
 106:C:\Users\Depes Crystalline\Desktop\school\Active_Bike_Lighting_System\Radar_Core/Libraries/CMSIS/Include\core_cmSimd.h **** #define __SXTAB16                         __sxtab16
 107:C:\Users\Depes Crystalline\Desktop\school\Active_Bike_Lighting_System\Radar_Core/Libraries/CMSIS/Include\core_cmSimd.h **** #define __SMUAD                           __smuad
 108:C:\Users\Depes Crystalline\Desktop\school\Active_Bike_Lighting_System\Radar_Core/Libraries/CMSIS/Include\core_cmSimd.h **** #define __SMUADX                          __smuadx
 109:C:\Users\Depes Crystalline\Desktop\school\Active_Bike_Lighting_System\Radar_Core/Libraries/CMSIS/Include\core_cmSimd.h **** #define __SMLAD                           __smlad
 110:C:\Users\Depes Crystalline\Desktop\school\Active_Bike_Lighting_System\Radar_Core/Libraries/CMSIS/Include\core_cmSimd.h **** #define __SMLADX                          __smladx
 111:C:\Users\Depes Crystalline\Desktop\school\Active_Bike_Lighting_System\Radar_Core/Libraries/CMSIS/Include\core_cmSimd.h **** #define __SMLALD                          __smlald
 112:C:\Users\Depes Crystalline\Desktop\school\Active_Bike_Lighting_System\Radar_Core/Libraries/CMSIS/Include\core_cmSimd.h **** #define __SMLALDX                         __smlaldx
 113:C:\Users\Depes Crystalline\Desktop\school\Active_Bike_Lighting_System\Radar_Core/Libraries/CMSIS/Include\core_cmSimd.h **** #define __SMUSD                           __smusd
 114:C:\Users\Depes Crystalline\Desktop\school\Active_Bike_Lighting_System\Radar_Core/Libraries/CMSIS/Include\core_cmSimd.h **** #define __SMUSDX                          __smusdx
 115:C:\Users\Depes Crystalline\Desktop\school\Active_Bike_Lighting_System\Radar_Core/Libraries/CMSIS/Include\core_cmSimd.h **** #define __SMLSD                           __smlsd
 116:C:\Users\Depes Crystalline\Desktop\school\Active_Bike_Lighting_System\Radar_Core/Libraries/CMSIS/Include\core_cmSimd.h **** #define __SMLSDX                          __smlsdx
 117:C:\Users\Depes Crystalline\Desktop\school\Active_Bike_Lighting_System\Radar_Core/Libraries/CMSIS/Include\core_cmSimd.h **** #define __SMLSLD                          __smlsld
 118:C:\Users\Depes Crystalline\Desktop\school\Active_Bike_Lighting_System\Radar_Core/Libraries/CMSIS/Include\core_cmSimd.h **** #define __SMLSLDX                         __smlsldx
 119:C:\Users\Depes Crystalline\Desktop\school\Active_Bike_Lighting_System\Radar_Core/Libraries/CMSIS/Include\core_cmSimd.h **** #define __SEL                             __sel
 120:C:\Users\Depes Crystalline\Desktop\school\Active_Bike_Lighting_System\Radar_Core/Libraries/CMSIS/Include\core_cmSimd.h **** #define __QADD                            __qadd
 121:C:\Users\Depes Crystalline\Desktop\school\Active_Bike_Lighting_System\Radar_Core/Libraries/CMSIS/Include\core_cmSimd.h **** #define __QSUB                            __qsub
 122:C:\Users\Depes Crystalline\Desktop\school\Active_Bike_Lighting_System\Radar_Core/Libraries/CMSIS/Include\core_cmSimd.h **** 
 123:C:\Users\Depes Crystalline\Desktop\school\Active_Bike_Lighting_System\Radar_Core/Libraries/CMSIS/Include\core_cmSimd.h **** #define __PKHBT(ARG1,ARG2,ARG3)          ( ((((uint32_t)(ARG1))          ) & 0x0000FFFFUL) |  \
 124:C:\Users\Depes Crystalline\Desktop\school\Active_Bike_Lighting_System\Radar_Core/Libraries/CMSIS/Include\core_cmSimd.h ****                                            ((((uint32_t)(ARG2)) << (ARG3)) & 0xFFFF0000UL)  )
 125:C:\Users\Depes Crystalline\Desktop\school\Active_Bike_Lighting_System\Radar_Core/Libraries/CMSIS/Include\core_cmSimd.h **** 
 126:C:\Users\Depes Crystalline\Desktop\school\Active_Bike_Lighting_System\Radar_Core/Libraries/CMSIS/Include\core_cmSimd.h **** #define __PKHTB(ARG1,ARG2,ARG3)          ( ((((uint32_t)(ARG1))          ) & 0xFFFF0000UL) |  \
 127:C:\Users\Depes Crystalline\Desktop\school\Active_Bike_Lighting_System\Radar_Core/Libraries/CMSIS/Include\core_cmSimd.h ****                                            ((((uint32_t)(ARG2)) >> (ARG3)) & 0x0000FFFFUL)  )
 128:C:\Users\Depes Crystalline\Desktop\school\Active_Bike_Lighting_System\Radar_Core/Libraries/CMSIS/Include\core_cmSimd.h **** 
 129:C:\Users\Depes Crystalline\Desktop\school\Active_Bike_Lighting_System\Radar_Core/Libraries/CMSIS/Include\core_cmSimd.h **** #define __SMMLA(ARG1,ARG2,ARG3)          ( (int32_t)((((int64_t)(ARG1) * (ARG2)) + \
 130:C:\Users\Depes Crystalline\Desktop\school\Active_Bike_Lighting_System\Radar_Core/Libraries/CMSIS/Include\core_cmSimd.h ****                                                       ((int64_t)(ARG3) << 32)      ) >> 32))
 131:C:\Users\Depes Crystalline\Desktop\school\Active_Bike_Lighting_System\Radar_Core/Libraries/CMSIS/Include\core_cmSimd.h **** 
 132:C:\Users\Depes Crystalline\Desktop\school\Active_Bike_Lighting_System\Radar_Core/Libraries/CMSIS/Include\core_cmSimd.h **** 
 133:C:\Users\Depes Crystalline\Desktop\school\Active_Bike_Lighting_System\Radar_Core/Libraries/CMSIS/Include\core_cmSimd.h **** #elif defined ( __GNUC__ ) /*------------------ GNU Compiler ---------------------*/
 134:C:\Users\Depes Crystalline\Desktop\school\Active_Bike_Lighting_System\Radar_Core/Libraries/CMSIS/Include\core_cmSimd.h **** /* GNU gcc specific functions */
 135:C:\Users\Depes Crystalline\Desktop\school\Active_Bike_Lighting_System\Radar_Core/Libraries/CMSIS/Include\core_cmSimd.h **** __attribute__( ( always_inline ) ) __STATIC_INLINE uint32_t __SADD8(uint32_t op1, uint32_t op2)
 136:C:\Users\Depes Crystalline\Desktop\school\Active_Bike_Lighting_System\Radar_Core/Libraries/CMSIS/Include\core_cmSimd.h **** {
 137:C:\Users\Depes Crystalline\Desktop\school\Active_Bike_Lighting_System\Radar_Core/Libraries/CMSIS/Include\core_cmSimd.h ****   uint32_t result;
 138:C:\Users\Depes Crystalline\Desktop\school\Active_Bike_Lighting_System\Radar_Core/Libraries/CMSIS/Include\core_cmSimd.h **** 
 139:C:\Users\Depes Crystalline\Desktop\school\Active_Bike_Lighting_System\Radar_Core/Libraries/CMSIS/Include\core_cmSimd.h ****   __ASM volatile ("sadd8 %0, %1, %2" : "=r" (result) : "r" (op1), "r" (op2) );
 140:C:\Users\Depes Crystalline\Desktop\school\Active_Bike_Lighting_System\Radar_Core/Libraries/CMSIS/Include\core_cmSimd.h ****   return(result);
 141:C:\Users\Depes Crystalline\Desktop\school\Active_Bike_Lighting_System\Radar_Core/Libraries/CMSIS/Include\core_cmSimd.h **** }
 142:C:\Users\Depes Crystalline\Desktop\school\Active_Bike_Lighting_System\Radar_Core/Libraries/CMSIS/Include\core_cmSimd.h **** 
 143:C:\Users\Depes Crystalline\Desktop\school\Active_Bike_Lighting_System\Radar_Core/Libraries/CMSIS/Include\core_cmSimd.h **** __attribute__( ( always_inline ) ) __STATIC_INLINE uint32_t __QADD8(uint32_t op1, uint32_t op2)
 144:C:\Users\Depes Crystalline\Desktop\school\Active_Bike_Lighting_System\Radar_Core/Libraries/CMSIS/Include\core_cmSimd.h **** {
 145:C:\Users\Depes Crystalline\Desktop\school\Active_Bike_Lighting_System\Radar_Core/Libraries/CMSIS/Include\core_cmSimd.h ****   uint32_t result;
 146:C:\Users\Depes Crystalline\Desktop\school\Active_Bike_Lighting_System\Radar_Core/Libraries/CMSIS/Include\core_cmSimd.h **** 
 147:C:\Users\Depes Crystalline\Desktop\school\Active_Bike_Lighting_System\Radar_Core/Libraries/CMSIS/Include\core_cmSimd.h ****   __ASM volatile ("qadd8 %0, %1, %2" : "=r" (result) : "r" (op1), "r" (op2) );
 148:C:\Users\Depes Crystalline\Desktop\school\Active_Bike_Lighting_System\Radar_Core/Libraries/CMSIS/Include\core_cmSimd.h ****   return(result);
 149:C:\Users\Depes Crystalline\Desktop\school\Active_Bike_Lighting_System\Radar_Core/Libraries/CMSIS/Include\core_cmSimd.h **** }
 150:C:\Users\Depes Crystalline\Desktop\school\Active_Bike_Lighting_System\Radar_Core/Libraries/CMSIS/Include\core_cmSimd.h **** 
 151:C:\Users\Depes Crystalline\Desktop\school\Active_Bike_Lighting_System\Radar_Core/Libraries/CMSIS/Include\core_cmSimd.h **** __attribute__( ( always_inline ) ) __STATIC_INLINE uint32_t __SHADD8(uint32_t op1, uint32_t op2)
 152:C:\Users\Depes Crystalline\Desktop\school\Active_Bike_Lighting_System\Radar_Core/Libraries/CMSIS/Include\core_cmSimd.h **** {
 153:C:\Users\Depes Crystalline\Desktop\school\Active_Bike_Lighting_System\Radar_Core/Libraries/CMSIS/Include\core_cmSimd.h ****   uint32_t result;
 154:C:\Users\Depes Crystalline\Desktop\school\Active_Bike_Lighting_System\Radar_Core/Libraries/CMSIS/Include\core_cmSimd.h **** 
 155:C:\Users\Depes Crystalline\Desktop\school\Active_Bike_Lighting_System\Radar_Core/Libraries/CMSIS/Include\core_cmSimd.h ****   __ASM volatile ("shadd8 %0, %1, %2" : "=r" (result) : "r" (op1), "r" (op2) );
 156:C:\Users\Depes Crystalline\Desktop\school\Active_Bike_Lighting_System\Radar_Core/Libraries/CMSIS/Include\core_cmSimd.h ****   return(result);
 157:C:\Users\Depes Crystalline\Desktop\school\Active_Bike_Lighting_System\Radar_Core/Libraries/CMSIS/Include\core_cmSimd.h **** }
 158:C:\Users\Depes Crystalline\Desktop\school\Active_Bike_Lighting_System\Radar_Core/Libraries/CMSIS/Include\core_cmSimd.h **** 
 159:C:\Users\Depes Crystalline\Desktop\school\Active_Bike_Lighting_System\Radar_Core/Libraries/CMSIS/Include\core_cmSimd.h **** __attribute__( ( always_inline ) ) __STATIC_INLINE uint32_t __UADD8(uint32_t op1, uint32_t op2)
 160:C:\Users\Depes Crystalline\Desktop\school\Active_Bike_Lighting_System\Radar_Core/Libraries/CMSIS/Include\core_cmSimd.h **** {
 161:C:\Users\Depes Crystalline\Desktop\school\Active_Bike_Lighting_System\Radar_Core/Libraries/CMSIS/Include\core_cmSimd.h ****   uint32_t result;
 162:C:\Users\Depes Crystalline\Desktop\school\Active_Bike_Lighting_System\Radar_Core/Libraries/CMSIS/Include\core_cmSimd.h **** 
 163:C:\Users\Depes Crystalline\Desktop\school\Active_Bike_Lighting_System\Radar_Core/Libraries/CMSIS/Include\core_cmSimd.h ****   __ASM volatile ("uadd8 %0, %1, %2" : "=r" (result) : "r" (op1), "r" (op2) );
 164:C:\Users\Depes Crystalline\Desktop\school\Active_Bike_Lighting_System\Radar_Core/Libraries/CMSIS/Include\core_cmSimd.h ****   return(result);
 165:C:\Users\Depes Crystalline\Desktop\school\Active_Bike_Lighting_System\Radar_Core/Libraries/CMSIS/Include\core_cmSimd.h **** }
 166:C:\Users\Depes Crystalline\Desktop\school\Active_Bike_Lighting_System\Radar_Core/Libraries/CMSIS/Include\core_cmSimd.h **** 
 167:C:\Users\Depes Crystalline\Desktop\school\Active_Bike_Lighting_System\Radar_Core/Libraries/CMSIS/Include\core_cmSimd.h **** __attribute__( ( always_inline ) ) __STATIC_INLINE uint32_t __UQADD8(uint32_t op1, uint32_t op2)
 168:C:\Users\Depes Crystalline\Desktop\school\Active_Bike_Lighting_System\Radar_Core/Libraries/CMSIS/Include\core_cmSimd.h **** {
 169:C:\Users\Depes Crystalline\Desktop\school\Active_Bike_Lighting_System\Radar_Core/Libraries/CMSIS/Include\core_cmSimd.h ****   uint32_t result;
 170:C:\Users\Depes Crystalline\Desktop\school\Active_Bike_Lighting_System\Radar_Core/Libraries/CMSIS/Include\core_cmSimd.h **** 
 171:C:\Users\Depes Crystalline\Desktop\school\Active_Bike_Lighting_System\Radar_Core/Libraries/CMSIS/Include\core_cmSimd.h ****   __ASM volatile ("uqadd8 %0, %1, %2" : "=r" (result) : "r" (op1), "r" (op2) );
 172:C:\Users\Depes Crystalline\Desktop\school\Active_Bike_Lighting_System\Radar_Core/Libraries/CMSIS/Include\core_cmSimd.h ****   return(result);
 173:C:\Users\Depes Crystalline\Desktop\school\Active_Bike_Lighting_System\Radar_Core/Libraries/CMSIS/Include\core_cmSimd.h **** }
 174:C:\Users\Depes Crystalline\Desktop\school\Active_Bike_Lighting_System\Radar_Core/Libraries/CMSIS/Include\core_cmSimd.h **** 
 175:C:\Users\Depes Crystalline\Desktop\school\Active_Bike_Lighting_System\Radar_Core/Libraries/CMSIS/Include\core_cmSimd.h **** __attribute__( ( always_inline ) ) __STATIC_INLINE uint32_t __UHADD8(uint32_t op1, uint32_t op2)
 176:C:\Users\Depes Crystalline\Desktop\school\Active_Bike_Lighting_System\Radar_Core/Libraries/CMSIS/Include\core_cmSimd.h **** {
 177:C:\Users\Depes Crystalline\Desktop\school\Active_Bike_Lighting_System\Radar_Core/Libraries/CMSIS/Include\core_cmSimd.h ****   uint32_t result;
 178:C:\Users\Depes Crystalline\Desktop\school\Active_Bike_Lighting_System\Radar_Core/Libraries/CMSIS/Include\core_cmSimd.h **** 
 179:C:\Users\Depes Crystalline\Desktop\school\Active_Bike_Lighting_System\Radar_Core/Libraries/CMSIS/Include\core_cmSimd.h ****   __ASM volatile ("uhadd8 %0, %1, %2" : "=r" (result) : "r" (op1), "r" (op2) );
 180:C:\Users\Depes Crystalline\Desktop\school\Active_Bike_Lighting_System\Radar_Core/Libraries/CMSIS/Include\core_cmSimd.h ****   return(result);
 181:C:\Users\Depes Crystalline\Desktop\school\Active_Bike_Lighting_System\Radar_Core/Libraries/CMSIS/Include\core_cmSimd.h **** }
 182:C:\Users\Depes Crystalline\Desktop\school\Active_Bike_Lighting_System\Radar_Core/Libraries/CMSIS/Include\core_cmSimd.h **** 
 183:C:\Users\Depes Crystalline\Desktop\school\Active_Bike_Lighting_System\Radar_Core/Libraries/CMSIS/Include\core_cmSimd.h **** 
 184:C:\Users\Depes Crystalline\Desktop\school\Active_Bike_Lighting_System\Radar_Core/Libraries/CMSIS/Include\core_cmSimd.h **** __attribute__( ( always_inline ) ) __STATIC_INLINE uint32_t __SSUB8(uint32_t op1, uint32_t op2)
 185:C:\Users\Depes Crystalline\Desktop\school\Active_Bike_Lighting_System\Radar_Core/Libraries/CMSIS/Include\core_cmSimd.h **** {
 186:C:\Users\Depes Crystalline\Desktop\school\Active_Bike_Lighting_System\Radar_Core/Libraries/CMSIS/Include\core_cmSimd.h ****   uint32_t result;
 187:C:\Users\Depes Crystalline\Desktop\school\Active_Bike_Lighting_System\Radar_Core/Libraries/CMSIS/Include\core_cmSimd.h **** 
 188:C:\Users\Depes Crystalline\Desktop\school\Active_Bike_Lighting_System\Radar_Core/Libraries/CMSIS/Include\core_cmSimd.h ****   __ASM volatile ("ssub8 %0, %1, %2" : "=r" (result) : "r" (op1), "r" (op2) );
 189:C:\Users\Depes Crystalline\Desktop\school\Active_Bike_Lighting_System\Radar_Core/Libraries/CMSIS/Include\core_cmSimd.h ****   return(result);
 190:C:\Users\Depes Crystalline\Desktop\school\Active_Bike_Lighting_System\Radar_Core/Libraries/CMSIS/Include\core_cmSimd.h **** }
 191:C:\Users\Depes Crystalline\Desktop\school\Active_Bike_Lighting_System\Radar_Core/Libraries/CMSIS/Include\core_cmSimd.h **** 
 192:C:\Users\Depes Crystalline\Desktop\school\Active_Bike_Lighting_System\Radar_Core/Libraries/CMSIS/Include\core_cmSimd.h **** __attribute__( ( always_inline ) ) __STATIC_INLINE uint32_t __QSUB8(uint32_t op1, uint32_t op2)
 193:C:\Users\Depes Crystalline\Desktop\school\Active_Bike_Lighting_System\Radar_Core/Libraries/CMSIS/Include\core_cmSimd.h **** {
 194:C:\Users\Depes Crystalline\Desktop\school\Active_Bike_Lighting_System\Radar_Core/Libraries/CMSIS/Include\core_cmSimd.h ****   uint32_t result;
 195:C:\Users\Depes Crystalline\Desktop\school\Active_Bike_Lighting_System\Radar_Core/Libraries/CMSIS/Include\core_cmSimd.h **** 
 196:C:\Users\Depes Crystalline\Desktop\school\Active_Bike_Lighting_System\Radar_Core/Libraries/CMSIS/Include\core_cmSimd.h ****   __ASM volatile ("qsub8 %0, %1, %2" : "=r" (result) : "r" (op1), "r" (op2) );
 197:C:\Users\Depes Crystalline\Desktop\school\Active_Bike_Lighting_System\Radar_Core/Libraries/CMSIS/Include\core_cmSimd.h ****   return(result);
 198:C:\Users\Depes Crystalline\Desktop\school\Active_Bike_Lighting_System\Radar_Core/Libraries/CMSIS/Include\core_cmSimd.h **** }
 199:C:\Users\Depes Crystalline\Desktop\school\Active_Bike_Lighting_System\Radar_Core/Libraries/CMSIS/Include\core_cmSimd.h **** 
 200:C:\Users\Depes Crystalline\Desktop\school\Active_Bike_Lighting_System\Radar_Core/Libraries/CMSIS/Include\core_cmSimd.h **** __attribute__( ( always_inline ) ) __STATIC_INLINE uint32_t __SHSUB8(uint32_t op1, uint32_t op2)
 201:C:\Users\Depes Crystalline\Desktop\school\Active_Bike_Lighting_System\Radar_Core/Libraries/CMSIS/Include\core_cmSimd.h **** {
 202:C:\Users\Depes Crystalline\Desktop\school\Active_Bike_Lighting_System\Radar_Core/Libraries/CMSIS/Include\core_cmSimd.h ****   uint32_t result;
 203:C:\Users\Depes Crystalline\Desktop\school\Active_Bike_Lighting_System\Radar_Core/Libraries/CMSIS/Include\core_cmSimd.h **** 
 204:C:\Users\Depes Crystalline\Desktop\school\Active_Bike_Lighting_System\Radar_Core/Libraries/CMSIS/Include\core_cmSimd.h ****   __ASM volatile ("shsub8 %0, %1, %2" : "=r" (result) : "r" (op1), "r" (op2) );
 205:C:\Users\Depes Crystalline\Desktop\school\Active_Bike_Lighting_System\Radar_Core/Libraries/CMSIS/Include\core_cmSimd.h ****   return(result);
 206:C:\Users\Depes Crystalline\Desktop\school\Active_Bike_Lighting_System\Radar_Core/Libraries/CMSIS/Include\core_cmSimd.h **** }
 207:C:\Users\Depes Crystalline\Desktop\school\Active_Bike_Lighting_System\Radar_Core/Libraries/CMSIS/Include\core_cmSimd.h **** 
 208:C:\Users\Depes Crystalline\Desktop\school\Active_Bike_Lighting_System\Radar_Core/Libraries/CMSIS/Include\core_cmSimd.h **** __attribute__( ( always_inline ) ) __STATIC_INLINE uint32_t __USUB8(uint32_t op1, uint32_t op2)
 209:C:\Users\Depes Crystalline\Desktop\school\Active_Bike_Lighting_System\Radar_Core/Libraries/CMSIS/Include\core_cmSimd.h **** {
 210:C:\Users\Depes Crystalline\Desktop\school\Active_Bike_Lighting_System\Radar_Core/Libraries/CMSIS/Include\core_cmSimd.h ****   uint32_t result;
 211:C:\Users\Depes Crystalline\Desktop\school\Active_Bike_Lighting_System\Radar_Core/Libraries/CMSIS/Include\core_cmSimd.h **** 
 212:C:\Users\Depes Crystalline\Desktop\school\Active_Bike_Lighting_System\Radar_Core/Libraries/CMSIS/Include\core_cmSimd.h ****   __ASM volatile ("usub8 %0, %1, %2" : "=r" (result) : "r" (op1), "r" (op2) );
 213:C:\Users\Depes Crystalline\Desktop\school\Active_Bike_Lighting_System\Radar_Core/Libraries/CMSIS/Include\core_cmSimd.h ****   return(result);
 214:C:\Users\Depes Crystalline\Desktop\school\Active_Bike_Lighting_System\Radar_Core/Libraries/CMSIS/Include\core_cmSimd.h **** }
 215:C:\Users\Depes Crystalline\Desktop\school\Active_Bike_Lighting_System\Radar_Core/Libraries/CMSIS/Include\core_cmSimd.h **** 
 216:C:\Users\Depes Crystalline\Desktop\school\Active_Bike_Lighting_System\Radar_Core/Libraries/CMSIS/Include\core_cmSimd.h **** __attribute__( ( always_inline ) ) __STATIC_INLINE uint32_t __UQSUB8(uint32_t op1, uint32_t op2)
 217:C:\Users\Depes Crystalline\Desktop\school\Active_Bike_Lighting_System\Radar_Core/Libraries/CMSIS/Include\core_cmSimd.h **** {
 218:C:\Users\Depes Crystalline\Desktop\school\Active_Bike_Lighting_System\Radar_Core/Libraries/CMSIS/Include\core_cmSimd.h ****   uint32_t result;
 219:C:\Users\Depes Crystalline\Desktop\school\Active_Bike_Lighting_System\Radar_Core/Libraries/CMSIS/Include\core_cmSimd.h **** 
 220:C:\Users\Depes Crystalline\Desktop\school\Active_Bike_Lighting_System\Radar_Core/Libraries/CMSIS/Include\core_cmSimd.h ****   __ASM volatile ("uqsub8 %0, %1, %2" : "=r" (result) : "r" (op1), "r" (op2) );
 221:C:\Users\Depes Crystalline\Desktop\school\Active_Bike_Lighting_System\Radar_Core/Libraries/CMSIS/Include\core_cmSimd.h ****   return(result);
 222:C:\Users\Depes Crystalline\Desktop\school\Active_Bike_Lighting_System\Radar_Core/Libraries/CMSIS/Include\core_cmSimd.h **** }
 223:C:\Users\Depes Crystalline\Desktop\school\Active_Bike_Lighting_System\Radar_Core/Libraries/CMSIS/Include\core_cmSimd.h **** 
 224:C:\Users\Depes Crystalline\Desktop\school\Active_Bike_Lighting_System\Radar_Core/Libraries/CMSIS/Include\core_cmSimd.h **** __attribute__( ( always_inline ) ) __STATIC_INLINE uint32_t __UHSUB8(uint32_t op1, uint32_t op2)
 225:C:\Users\Depes Crystalline\Desktop\school\Active_Bike_Lighting_System\Radar_Core/Libraries/CMSIS/Include\core_cmSimd.h **** {
 226:C:\Users\Depes Crystalline\Desktop\school\Active_Bike_Lighting_System\Radar_Core/Libraries/CMSIS/Include\core_cmSimd.h ****   uint32_t result;
 227:C:\Users\Depes Crystalline\Desktop\school\Active_Bike_Lighting_System\Radar_Core/Libraries/CMSIS/Include\core_cmSimd.h **** 
 228:C:\Users\Depes Crystalline\Desktop\school\Active_Bike_Lighting_System\Radar_Core/Libraries/CMSIS/Include\core_cmSimd.h ****   __ASM volatile ("uhsub8 %0, %1, %2" : "=r" (result) : "r" (op1), "r" (op2) );
 229:C:\Users\Depes Crystalline\Desktop\school\Active_Bike_Lighting_System\Radar_Core/Libraries/CMSIS/Include\core_cmSimd.h ****   return(result);
 230:C:\Users\Depes Crystalline\Desktop\school\Active_Bike_Lighting_System\Radar_Core/Libraries/CMSIS/Include\core_cmSimd.h **** }
 231:C:\Users\Depes Crystalline\Desktop\school\Active_Bike_Lighting_System\Radar_Core/Libraries/CMSIS/Include\core_cmSimd.h **** 
 232:C:\Users\Depes Crystalline\Desktop\school\Active_Bike_Lighting_System\Radar_Core/Libraries/CMSIS/Include\core_cmSimd.h **** 
 233:C:\Users\Depes Crystalline\Desktop\school\Active_Bike_Lighting_System\Radar_Core/Libraries/CMSIS/Include\core_cmSimd.h **** __attribute__( ( always_inline ) ) __STATIC_INLINE uint32_t __SADD16(uint32_t op1, uint32_t op2)
 234:C:\Users\Depes Crystalline\Desktop\school\Active_Bike_Lighting_System\Radar_Core/Libraries/CMSIS/Include\core_cmSimd.h **** {
 235:C:\Users\Depes Crystalline\Desktop\school\Active_Bike_Lighting_System\Radar_Core/Libraries/CMSIS/Include\core_cmSimd.h ****   uint32_t result;
 236:C:\Users\Depes Crystalline\Desktop\school\Active_Bike_Lighting_System\Radar_Core/Libraries/CMSIS/Include\core_cmSimd.h **** 
 237:C:\Users\Depes Crystalline\Desktop\school\Active_Bike_Lighting_System\Radar_Core/Libraries/CMSIS/Include\core_cmSimd.h ****   __ASM volatile ("sadd16 %0, %1, %2" : "=r" (result) : "r" (op1), "r" (op2) );
 238:C:\Users\Depes Crystalline\Desktop\school\Active_Bike_Lighting_System\Radar_Core/Libraries/CMSIS/Include\core_cmSimd.h ****   return(result);
 239:C:\Users\Depes Crystalline\Desktop\school\Active_Bike_Lighting_System\Radar_Core/Libraries/CMSIS/Include\core_cmSimd.h **** }
 240:C:\Users\Depes Crystalline\Desktop\school\Active_Bike_Lighting_System\Radar_Core/Libraries/CMSIS/Include\core_cmSimd.h **** 
 241:C:\Users\Depes Crystalline\Desktop\school\Active_Bike_Lighting_System\Radar_Core/Libraries/CMSIS/Include\core_cmSimd.h **** __attribute__( ( always_inline ) ) __STATIC_INLINE uint32_t __QADD16(uint32_t op1, uint32_t op2)
 242:C:\Users\Depes Crystalline\Desktop\school\Active_Bike_Lighting_System\Radar_Core/Libraries/CMSIS/Include\core_cmSimd.h **** {
 243:C:\Users\Depes Crystalline\Desktop\school\Active_Bike_Lighting_System\Radar_Core/Libraries/CMSIS/Include\core_cmSimd.h ****   uint32_t result;
 244:C:\Users\Depes Crystalline\Desktop\school\Active_Bike_Lighting_System\Radar_Core/Libraries/CMSIS/Include\core_cmSimd.h **** 
 245:C:\Users\Depes Crystalline\Desktop\school\Active_Bike_Lighting_System\Radar_Core/Libraries/CMSIS/Include\core_cmSimd.h ****   __ASM volatile ("qadd16 %0, %1, %2" : "=r" (result) : "r" (op1), "r" (op2) );
 246:C:\Users\Depes Crystalline\Desktop\school\Active_Bike_Lighting_System\Radar_Core/Libraries/CMSIS/Include\core_cmSimd.h ****   return(result);
 247:C:\Users\Depes Crystalline\Desktop\school\Active_Bike_Lighting_System\Radar_Core/Libraries/CMSIS/Include\core_cmSimd.h **** }
 248:C:\Users\Depes Crystalline\Desktop\school\Active_Bike_Lighting_System\Radar_Core/Libraries/CMSIS/Include\core_cmSimd.h **** 
 249:C:\Users\Depes Crystalline\Desktop\school\Active_Bike_Lighting_System\Radar_Core/Libraries/CMSIS/Include\core_cmSimd.h **** __attribute__( ( always_inline ) ) __STATIC_INLINE uint32_t __SHADD16(uint32_t op1, uint32_t op2)
 250:C:\Users\Depes Crystalline\Desktop\school\Active_Bike_Lighting_System\Radar_Core/Libraries/CMSIS/Include\core_cmSimd.h **** {
 251:C:\Users\Depes Crystalline\Desktop\school\Active_Bike_Lighting_System\Radar_Core/Libraries/CMSIS/Include\core_cmSimd.h ****   uint32_t result;
 252:C:\Users\Depes Crystalline\Desktop\school\Active_Bike_Lighting_System\Radar_Core/Libraries/CMSIS/Include\core_cmSimd.h **** 
 253:C:\Users\Depes Crystalline\Desktop\school\Active_Bike_Lighting_System\Radar_Core/Libraries/CMSIS/Include\core_cmSimd.h ****   __ASM volatile ("shadd16 %0, %1, %2" : "=r" (result) : "r" (op1), "r" (op2) );
 254:C:\Users\Depes Crystalline\Desktop\school\Active_Bike_Lighting_System\Radar_Core/Libraries/CMSIS/Include\core_cmSimd.h ****   return(result);
 255:C:\Users\Depes Crystalline\Desktop\school\Active_Bike_Lighting_System\Radar_Core/Libraries/CMSIS/Include\core_cmSimd.h **** }
 256:C:\Users\Depes Crystalline\Desktop\school\Active_Bike_Lighting_System\Radar_Core/Libraries/CMSIS/Include\core_cmSimd.h **** 
 257:C:\Users\Depes Crystalline\Desktop\school\Active_Bike_Lighting_System\Radar_Core/Libraries/CMSIS/Include\core_cmSimd.h **** __attribute__( ( always_inline ) ) __STATIC_INLINE uint32_t __UADD16(uint32_t op1, uint32_t op2)
 258:C:\Users\Depes Crystalline\Desktop\school\Active_Bike_Lighting_System\Radar_Core/Libraries/CMSIS/Include\core_cmSimd.h **** {
 259:C:\Users\Depes Crystalline\Desktop\school\Active_Bike_Lighting_System\Radar_Core/Libraries/CMSIS/Include\core_cmSimd.h ****   uint32_t result;
 260:C:\Users\Depes Crystalline\Desktop\school\Active_Bike_Lighting_System\Radar_Core/Libraries/CMSIS/Include\core_cmSimd.h **** 
 261:C:\Users\Depes Crystalline\Desktop\school\Active_Bike_Lighting_System\Radar_Core/Libraries/CMSIS/Include\core_cmSimd.h ****   __ASM volatile ("uadd16 %0, %1, %2" : "=r" (result) : "r" (op1), "r" (op2) );
 262:C:\Users\Depes Crystalline\Desktop\school\Active_Bike_Lighting_System\Radar_Core/Libraries/CMSIS/Include\core_cmSimd.h ****   return(result);
 263:C:\Users\Depes Crystalline\Desktop\school\Active_Bike_Lighting_System\Radar_Core/Libraries/CMSIS/Include\core_cmSimd.h **** }
 264:C:\Users\Depes Crystalline\Desktop\school\Active_Bike_Lighting_System\Radar_Core/Libraries/CMSIS/Include\core_cmSimd.h **** 
 265:C:\Users\Depes Crystalline\Desktop\school\Active_Bike_Lighting_System\Radar_Core/Libraries/CMSIS/Include\core_cmSimd.h **** __attribute__( ( always_inline ) ) __STATIC_INLINE uint32_t __UQADD16(uint32_t op1, uint32_t op2)
 266:C:\Users\Depes Crystalline\Desktop\school\Active_Bike_Lighting_System\Radar_Core/Libraries/CMSIS/Include\core_cmSimd.h **** {
 267:C:\Users\Depes Crystalline\Desktop\school\Active_Bike_Lighting_System\Radar_Core/Libraries/CMSIS/Include\core_cmSimd.h ****   uint32_t result;
 268:C:\Users\Depes Crystalline\Desktop\school\Active_Bike_Lighting_System\Radar_Core/Libraries/CMSIS/Include\core_cmSimd.h **** 
 269:C:\Users\Depes Crystalline\Desktop\school\Active_Bike_Lighting_System\Radar_Core/Libraries/CMSIS/Include\core_cmSimd.h ****   __ASM volatile ("uqadd16 %0, %1, %2" : "=r" (result) : "r" (op1), "r" (op2) );
 270:C:\Users\Depes Crystalline\Desktop\school\Active_Bike_Lighting_System\Radar_Core/Libraries/CMSIS/Include\core_cmSimd.h ****   return(result);
 271:C:\Users\Depes Crystalline\Desktop\school\Active_Bike_Lighting_System\Radar_Core/Libraries/CMSIS/Include\core_cmSimd.h **** }
 272:C:\Users\Depes Crystalline\Desktop\school\Active_Bike_Lighting_System\Radar_Core/Libraries/CMSIS/Include\core_cmSimd.h **** 
 273:C:\Users\Depes Crystalline\Desktop\school\Active_Bike_Lighting_System\Radar_Core/Libraries/CMSIS/Include\core_cmSimd.h **** __attribute__( ( always_inline ) ) __STATIC_INLINE uint32_t __UHADD16(uint32_t op1, uint32_t op2)
 274:C:\Users\Depes Crystalline\Desktop\school\Active_Bike_Lighting_System\Radar_Core/Libraries/CMSIS/Include\core_cmSimd.h **** {
 275:C:\Users\Depes Crystalline\Desktop\school\Active_Bike_Lighting_System\Radar_Core/Libraries/CMSIS/Include\core_cmSimd.h ****   uint32_t result;
 276:C:\Users\Depes Crystalline\Desktop\school\Active_Bike_Lighting_System\Radar_Core/Libraries/CMSIS/Include\core_cmSimd.h **** 
 277:C:\Users\Depes Crystalline\Desktop\school\Active_Bike_Lighting_System\Radar_Core/Libraries/CMSIS/Include\core_cmSimd.h ****   __ASM volatile ("uhadd16 %0, %1, %2" : "=r" (result) : "r" (op1), "r" (op2) );
 278:C:\Users\Depes Crystalline\Desktop\school\Active_Bike_Lighting_System\Radar_Core/Libraries/CMSIS/Include\core_cmSimd.h ****   return(result);
 279:C:\Users\Depes Crystalline\Desktop\school\Active_Bike_Lighting_System\Radar_Core/Libraries/CMSIS/Include\core_cmSimd.h **** }
 280:C:\Users\Depes Crystalline\Desktop\school\Active_Bike_Lighting_System\Radar_Core/Libraries/CMSIS/Include\core_cmSimd.h **** 
 281:C:\Users\Depes Crystalline\Desktop\school\Active_Bike_Lighting_System\Radar_Core/Libraries/CMSIS/Include\core_cmSimd.h **** __attribute__( ( always_inline ) ) __STATIC_INLINE uint32_t __SSUB16(uint32_t op1, uint32_t op2)
 282:C:\Users\Depes Crystalline\Desktop\school\Active_Bike_Lighting_System\Radar_Core/Libraries/CMSIS/Include\core_cmSimd.h **** {
 283:C:\Users\Depes Crystalline\Desktop\school\Active_Bike_Lighting_System\Radar_Core/Libraries/CMSIS/Include\core_cmSimd.h ****   uint32_t result;
 284:C:\Users\Depes Crystalline\Desktop\school\Active_Bike_Lighting_System\Radar_Core/Libraries/CMSIS/Include\core_cmSimd.h **** 
 285:C:\Users\Depes Crystalline\Desktop\school\Active_Bike_Lighting_System\Radar_Core/Libraries/CMSIS/Include\core_cmSimd.h ****   __ASM volatile ("ssub16 %0, %1, %2" : "=r" (result) : "r" (op1), "r" (op2) );
 286:C:\Users\Depes Crystalline\Desktop\school\Active_Bike_Lighting_System\Radar_Core/Libraries/CMSIS/Include\core_cmSimd.h ****   return(result);
 287:C:\Users\Depes Crystalline\Desktop\school\Active_Bike_Lighting_System\Radar_Core/Libraries/CMSIS/Include\core_cmSimd.h **** }
 288:C:\Users\Depes Crystalline\Desktop\school\Active_Bike_Lighting_System\Radar_Core/Libraries/CMSIS/Include\core_cmSimd.h **** 
 289:C:\Users\Depes Crystalline\Desktop\school\Active_Bike_Lighting_System\Radar_Core/Libraries/CMSIS/Include\core_cmSimd.h **** __attribute__( ( always_inline ) ) __STATIC_INLINE uint32_t __QSUB16(uint32_t op1, uint32_t op2)
 290:C:\Users\Depes Crystalline\Desktop\school\Active_Bike_Lighting_System\Radar_Core/Libraries/CMSIS/Include\core_cmSimd.h **** {
 291:C:\Users\Depes Crystalline\Desktop\school\Active_Bike_Lighting_System\Radar_Core/Libraries/CMSIS/Include\core_cmSimd.h ****   uint32_t result;
 292:C:\Users\Depes Crystalline\Desktop\school\Active_Bike_Lighting_System\Radar_Core/Libraries/CMSIS/Include\core_cmSimd.h **** 
 293:C:\Users\Depes Crystalline\Desktop\school\Active_Bike_Lighting_System\Radar_Core/Libraries/CMSIS/Include\core_cmSimd.h ****   __ASM volatile ("qsub16 %0, %1, %2" : "=r" (result) : "r" (op1), "r" (op2) );
 294:C:\Users\Depes Crystalline\Desktop\school\Active_Bike_Lighting_System\Radar_Core/Libraries/CMSIS/Include\core_cmSimd.h ****   return(result);
 295:C:\Users\Depes Crystalline\Desktop\school\Active_Bike_Lighting_System\Radar_Core/Libraries/CMSIS/Include\core_cmSimd.h **** }
 296:C:\Users\Depes Crystalline\Desktop\school\Active_Bike_Lighting_System\Radar_Core/Libraries/CMSIS/Include\core_cmSimd.h **** 
 297:C:\Users\Depes Crystalline\Desktop\school\Active_Bike_Lighting_System\Radar_Core/Libraries/CMSIS/Include\core_cmSimd.h **** __attribute__( ( always_inline ) ) __STATIC_INLINE uint32_t __SHSUB16(uint32_t op1, uint32_t op2)
 298:C:\Users\Depes Crystalline\Desktop\school\Active_Bike_Lighting_System\Radar_Core/Libraries/CMSIS/Include\core_cmSimd.h **** {
 299:C:\Users\Depes Crystalline\Desktop\school\Active_Bike_Lighting_System\Radar_Core/Libraries/CMSIS/Include\core_cmSimd.h ****   uint32_t result;
 300:C:\Users\Depes Crystalline\Desktop\school\Active_Bike_Lighting_System\Radar_Core/Libraries/CMSIS/Include\core_cmSimd.h **** 
 301:C:\Users\Depes Crystalline\Desktop\school\Active_Bike_Lighting_System\Radar_Core/Libraries/CMSIS/Include\core_cmSimd.h ****   __ASM volatile ("shsub16 %0, %1, %2" : "=r" (result) : "r" (op1), "r" (op2) );
 302:C:\Users\Depes Crystalline\Desktop\school\Active_Bike_Lighting_System\Radar_Core/Libraries/CMSIS/Include\core_cmSimd.h ****   return(result);
 303:C:\Users\Depes Crystalline\Desktop\school\Active_Bike_Lighting_System\Radar_Core/Libraries/CMSIS/Include\core_cmSimd.h **** }
 304:C:\Users\Depes Crystalline\Desktop\school\Active_Bike_Lighting_System\Radar_Core/Libraries/CMSIS/Include\core_cmSimd.h **** 
 305:C:\Users\Depes Crystalline\Desktop\school\Active_Bike_Lighting_System\Radar_Core/Libraries/CMSIS/Include\core_cmSimd.h **** __attribute__( ( always_inline ) ) __STATIC_INLINE uint32_t __USUB16(uint32_t op1, uint32_t op2)
 306:C:\Users\Depes Crystalline\Desktop\school\Active_Bike_Lighting_System\Radar_Core/Libraries/CMSIS/Include\core_cmSimd.h **** {
 307:C:\Users\Depes Crystalline\Desktop\school\Active_Bike_Lighting_System\Radar_Core/Libraries/CMSIS/Include\core_cmSimd.h ****   uint32_t result;
 308:C:\Users\Depes Crystalline\Desktop\school\Active_Bike_Lighting_System\Radar_Core/Libraries/CMSIS/Include\core_cmSimd.h **** 
 309:C:\Users\Depes Crystalline\Desktop\school\Active_Bike_Lighting_System\Radar_Core/Libraries/CMSIS/Include\core_cmSimd.h ****   __ASM volatile ("usub16 %0, %1, %2" : "=r" (result) : "r" (op1), "r" (op2) );
 310:C:\Users\Depes Crystalline\Desktop\school\Active_Bike_Lighting_System\Radar_Core/Libraries/CMSIS/Include\core_cmSimd.h ****   return(result);
 311:C:\Users\Depes Crystalline\Desktop\school\Active_Bike_Lighting_System\Radar_Core/Libraries/CMSIS/Include\core_cmSimd.h **** }
 312:C:\Users\Depes Crystalline\Desktop\school\Active_Bike_Lighting_System\Radar_Core/Libraries/CMSIS/Include\core_cmSimd.h **** 
 313:C:\Users\Depes Crystalline\Desktop\school\Active_Bike_Lighting_System\Radar_Core/Libraries/CMSIS/Include\core_cmSimd.h **** __attribute__( ( always_inline ) ) __STATIC_INLINE uint32_t __UQSUB16(uint32_t op1, uint32_t op2)
 314:C:\Users\Depes Crystalline\Desktop\school\Active_Bike_Lighting_System\Radar_Core/Libraries/CMSIS/Include\core_cmSimd.h **** {
 315:C:\Users\Depes Crystalline\Desktop\school\Active_Bike_Lighting_System\Radar_Core/Libraries/CMSIS/Include\core_cmSimd.h ****   uint32_t result;
 316:C:\Users\Depes Crystalline\Desktop\school\Active_Bike_Lighting_System\Radar_Core/Libraries/CMSIS/Include\core_cmSimd.h **** 
 317:C:\Users\Depes Crystalline\Desktop\school\Active_Bike_Lighting_System\Radar_Core/Libraries/CMSIS/Include\core_cmSimd.h ****   __ASM volatile ("uqsub16 %0, %1, %2" : "=r" (result) : "r" (op1), "r" (op2) );
 318:C:\Users\Depes Crystalline\Desktop\school\Active_Bike_Lighting_System\Radar_Core/Libraries/CMSIS/Include\core_cmSimd.h ****   return(result);
 319:C:\Users\Depes Crystalline\Desktop\school\Active_Bike_Lighting_System\Radar_Core/Libraries/CMSIS/Include\core_cmSimd.h **** }
 320:C:\Users\Depes Crystalline\Desktop\school\Active_Bike_Lighting_System\Radar_Core/Libraries/CMSIS/Include\core_cmSimd.h **** 
 321:C:\Users\Depes Crystalline\Desktop\school\Active_Bike_Lighting_System\Radar_Core/Libraries/CMSIS/Include\core_cmSimd.h **** __attribute__( ( always_inline ) ) __STATIC_INLINE uint32_t __UHSUB16(uint32_t op1, uint32_t op2)
 322:C:\Users\Depes Crystalline\Desktop\school\Active_Bike_Lighting_System\Radar_Core/Libraries/CMSIS/Include\core_cmSimd.h **** {
 323:C:\Users\Depes Crystalline\Desktop\school\Active_Bike_Lighting_System\Radar_Core/Libraries/CMSIS/Include\core_cmSimd.h ****   uint32_t result;
 324:C:\Users\Depes Crystalline\Desktop\school\Active_Bike_Lighting_System\Radar_Core/Libraries/CMSIS/Include\core_cmSimd.h **** 
 325:C:\Users\Depes Crystalline\Desktop\school\Active_Bike_Lighting_System\Radar_Core/Libraries/CMSIS/Include\core_cmSimd.h ****   __ASM volatile ("uhsub16 %0, %1, %2" : "=r" (result) : "r" (op1), "r" (op2) );
 326:C:\Users\Depes Crystalline\Desktop\school\Active_Bike_Lighting_System\Radar_Core/Libraries/CMSIS/Include\core_cmSimd.h ****   return(result);
 327:C:\Users\Depes Crystalline\Desktop\school\Active_Bike_Lighting_System\Radar_Core/Libraries/CMSIS/Include\core_cmSimd.h **** }
 328:C:\Users\Depes Crystalline\Desktop\school\Active_Bike_Lighting_System\Radar_Core/Libraries/CMSIS/Include\core_cmSimd.h **** 
 329:C:\Users\Depes Crystalline\Desktop\school\Active_Bike_Lighting_System\Radar_Core/Libraries/CMSIS/Include\core_cmSimd.h **** __attribute__( ( always_inline ) ) __STATIC_INLINE uint32_t __SASX(uint32_t op1, uint32_t op2)
 330:C:\Users\Depes Crystalline\Desktop\school\Active_Bike_Lighting_System\Radar_Core/Libraries/CMSIS/Include\core_cmSimd.h **** {
 331:C:\Users\Depes Crystalline\Desktop\school\Active_Bike_Lighting_System\Radar_Core/Libraries/CMSIS/Include\core_cmSimd.h ****   uint32_t result;
 332:C:\Users\Depes Crystalline\Desktop\school\Active_Bike_Lighting_System\Radar_Core/Libraries/CMSIS/Include\core_cmSimd.h **** 
 333:C:\Users\Depes Crystalline\Desktop\school\Active_Bike_Lighting_System\Radar_Core/Libraries/CMSIS/Include\core_cmSimd.h ****   __ASM volatile ("sasx %0, %1, %2" : "=r" (result) : "r" (op1), "r" (op2) );
 334:C:\Users\Depes Crystalline\Desktop\school\Active_Bike_Lighting_System\Radar_Core/Libraries/CMSIS/Include\core_cmSimd.h ****   return(result);
 335:C:\Users\Depes Crystalline\Desktop\school\Active_Bike_Lighting_System\Radar_Core/Libraries/CMSIS/Include\core_cmSimd.h **** }
 336:C:\Users\Depes Crystalline\Desktop\school\Active_Bike_Lighting_System\Radar_Core/Libraries/CMSIS/Include\core_cmSimd.h **** 
 337:C:\Users\Depes Crystalline\Desktop\school\Active_Bike_Lighting_System\Radar_Core/Libraries/CMSIS/Include\core_cmSimd.h **** __attribute__( ( always_inline ) ) __STATIC_INLINE uint32_t __QASX(uint32_t op1, uint32_t op2)
 338:C:\Users\Depes Crystalline\Desktop\school\Active_Bike_Lighting_System\Radar_Core/Libraries/CMSIS/Include\core_cmSimd.h **** {
 339:C:\Users\Depes Crystalline\Desktop\school\Active_Bike_Lighting_System\Radar_Core/Libraries/CMSIS/Include\core_cmSimd.h ****   uint32_t result;
 340:C:\Users\Depes Crystalline\Desktop\school\Active_Bike_Lighting_System\Radar_Core/Libraries/CMSIS/Include\core_cmSimd.h **** 
 341:C:\Users\Depes Crystalline\Desktop\school\Active_Bike_Lighting_System\Radar_Core/Libraries/CMSIS/Include\core_cmSimd.h ****   __ASM volatile ("qasx %0, %1, %2" : "=r" (result) : "r" (op1), "r" (op2) );
 342:C:\Users\Depes Crystalline\Desktop\school\Active_Bike_Lighting_System\Radar_Core/Libraries/CMSIS/Include\core_cmSimd.h ****   return(result);
 343:C:\Users\Depes Crystalline\Desktop\school\Active_Bike_Lighting_System\Radar_Core/Libraries/CMSIS/Include\core_cmSimd.h **** }
 344:C:\Users\Depes Crystalline\Desktop\school\Active_Bike_Lighting_System\Radar_Core/Libraries/CMSIS/Include\core_cmSimd.h **** 
 345:C:\Users\Depes Crystalline\Desktop\school\Active_Bike_Lighting_System\Radar_Core/Libraries/CMSIS/Include\core_cmSimd.h **** __attribute__( ( always_inline ) ) __STATIC_INLINE uint32_t __SHASX(uint32_t op1, uint32_t op2)
 346:C:\Users\Depes Crystalline\Desktop\school\Active_Bike_Lighting_System\Radar_Core/Libraries/CMSIS/Include\core_cmSimd.h **** {
 347:C:\Users\Depes Crystalline\Desktop\school\Active_Bike_Lighting_System\Radar_Core/Libraries/CMSIS/Include\core_cmSimd.h ****   uint32_t result;
 348:C:\Users\Depes Crystalline\Desktop\school\Active_Bike_Lighting_System\Radar_Core/Libraries/CMSIS/Include\core_cmSimd.h **** 
 349:C:\Users\Depes Crystalline\Desktop\school\Active_Bike_Lighting_System\Radar_Core/Libraries/CMSIS/Include\core_cmSimd.h ****   __ASM volatile ("shasx %0, %1, %2" : "=r" (result) : "r" (op1), "r" (op2) );
 350:C:\Users\Depes Crystalline\Desktop\school\Active_Bike_Lighting_System\Radar_Core/Libraries/CMSIS/Include\core_cmSimd.h ****   return(result);
 351:C:\Users\Depes Crystalline\Desktop\school\Active_Bike_Lighting_System\Radar_Core/Libraries/CMSIS/Include\core_cmSimd.h **** }
 352:C:\Users\Depes Crystalline\Desktop\school\Active_Bike_Lighting_System\Radar_Core/Libraries/CMSIS/Include\core_cmSimd.h **** 
 353:C:\Users\Depes Crystalline\Desktop\school\Active_Bike_Lighting_System\Radar_Core/Libraries/CMSIS/Include\core_cmSimd.h **** __attribute__( ( always_inline ) ) __STATIC_INLINE uint32_t __UASX(uint32_t op1, uint32_t op2)
 354:C:\Users\Depes Crystalline\Desktop\school\Active_Bike_Lighting_System\Radar_Core/Libraries/CMSIS/Include\core_cmSimd.h **** {
 355:C:\Users\Depes Crystalline\Desktop\school\Active_Bike_Lighting_System\Radar_Core/Libraries/CMSIS/Include\core_cmSimd.h ****   uint32_t result;
 356:C:\Users\Depes Crystalline\Desktop\school\Active_Bike_Lighting_System\Radar_Core/Libraries/CMSIS/Include\core_cmSimd.h **** 
 357:C:\Users\Depes Crystalline\Desktop\school\Active_Bike_Lighting_System\Radar_Core/Libraries/CMSIS/Include\core_cmSimd.h ****   __ASM volatile ("uasx %0, %1, %2" : "=r" (result) : "r" (op1), "r" (op2) );
 358:C:\Users\Depes Crystalline\Desktop\school\Active_Bike_Lighting_System\Radar_Core/Libraries/CMSIS/Include\core_cmSimd.h ****   return(result);
 359:C:\Users\Depes Crystalline\Desktop\school\Active_Bike_Lighting_System\Radar_Core/Libraries/CMSIS/Include\core_cmSimd.h **** }
 360:C:\Users\Depes Crystalline\Desktop\school\Active_Bike_Lighting_System\Radar_Core/Libraries/CMSIS/Include\core_cmSimd.h **** 
 361:C:\Users\Depes Crystalline\Desktop\school\Active_Bike_Lighting_System\Radar_Core/Libraries/CMSIS/Include\core_cmSimd.h **** __attribute__( ( always_inline ) ) __STATIC_INLINE uint32_t __UQASX(uint32_t op1, uint32_t op2)
 362:C:\Users\Depes Crystalline\Desktop\school\Active_Bike_Lighting_System\Radar_Core/Libraries/CMSIS/Include\core_cmSimd.h **** {
 363:C:\Users\Depes Crystalline\Desktop\school\Active_Bike_Lighting_System\Radar_Core/Libraries/CMSIS/Include\core_cmSimd.h ****   uint32_t result;
 364:C:\Users\Depes Crystalline\Desktop\school\Active_Bike_Lighting_System\Radar_Core/Libraries/CMSIS/Include\core_cmSimd.h **** 
 365:C:\Users\Depes Crystalline\Desktop\school\Active_Bike_Lighting_System\Radar_Core/Libraries/CMSIS/Include\core_cmSimd.h ****   __ASM volatile ("uqasx %0, %1, %2" : "=r" (result) : "r" (op1), "r" (op2) );
 366:C:\Users\Depes Crystalline\Desktop\school\Active_Bike_Lighting_System\Radar_Core/Libraries/CMSIS/Include\core_cmSimd.h ****   return(result);
 367:C:\Users\Depes Crystalline\Desktop\school\Active_Bike_Lighting_System\Radar_Core/Libraries/CMSIS/Include\core_cmSimd.h **** }
 368:C:\Users\Depes Crystalline\Desktop\school\Active_Bike_Lighting_System\Radar_Core/Libraries/CMSIS/Include\core_cmSimd.h **** 
 369:C:\Users\Depes Crystalline\Desktop\school\Active_Bike_Lighting_System\Radar_Core/Libraries/CMSIS/Include\core_cmSimd.h **** __attribute__( ( always_inline ) ) __STATIC_INLINE uint32_t __UHASX(uint32_t op1, uint32_t op2)
 370:C:\Users\Depes Crystalline\Desktop\school\Active_Bike_Lighting_System\Radar_Core/Libraries/CMSIS/Include\core_cmSimd.h **** {
 371:C:\Users\Depes Crystalline\Desktop\school\Active_Bike_Lighting_System\Radar_Core/Libraries/CMSIS/Include\core_cmSimd.h ****   uint32_t result;
 372:C:\Users\Depes Crystalline\Desktop\school\Active_Bike_Lighting_System\Radar_Core/Libraries/CMSIS/Include\core_cmSimd.h **** 
 373:C:\Users\Depes Crystalline\Desktop\school\Active_Bike_Lighting_System\Radar_Core/Libraries/CMSIS/Include\core_cmSimd.h ****   __ASM volatile ("uhasx %0, %1, %2" : "=r" (result) : "r" (op1), "r" (op2) );
 374:C:\Users\Depes Crystalline\Desktop\school\Active_Bike_Lighting_System\Radar_Core/Libraries/CMSIS/Include\core_cmSimd.h ****   return(result);
 375:C:\Users\Depes Crystalline\Desktop\school\Active_Bike_Lighting_System\Radar_Core/Libraries/CMSIS/Include\core_cmSimd.h **** }
 376:C:\Users\Depes Crystalline\Desktop\school\Active_Bike_Lighting_System\Radar_Core/Libraries/CMSIS/Include\core_cmSimd.h **** 
 377:C:\Users\Depes Crystalline\Desktop\school\Active_Bike_Lighting_System\Radar_Core/Libraries/CMSIS/Include\core_cmSimd.h **** __attribute__( ( always_inline ) ) __STATIC_INLINE uint32_t __SSAX(uint32_t op1, uint32_t op2)
 378:C:\Users\Depes Crystalline\Desktop\school\Active_Bike_Lighting_System\Radar_Core/Libraries/CMSIS/Include\core_cmSimd.h **** {
 379:C:\Users\Depes Crystalline\Desktop\school\Active_Bike_Lighting_System\Radar_Core/Libraries/CMSIS/Include\core_cmSimd.h ****   uint32_t result;
 380:C:\Users\Depes Crystalline\Desktop\school\Active_Bike_Lighting_System\Radar_Core/Libraries/CMSIS/Include\core_cmSimd.h **** 
 381:C:\Users\Depes Crystalline\Desktop\school\Active_Bike_Lighting_System\Radar_Core/Libraries/CMSIS/Include\core_cmSimd.h ****   __ASM volatile ("ssax %0, %1, %2" : "=r" (result) : "r" (op1), "r" (op2) );
 382:C:\Users\Depes Crystalline\Desktop\school\Active_Bike_Lighting_System\Radar_Core/Libraries/CMSIS/Include\core_cmSimd.h ****   return(result);
 383:C:\Users\Depes Crystalline\Desktop\school\Active_Bike_Lighting_System\Radar_Core/Libraries/CMSIS/Include\core_cmSimd.h **** }
 384:C:\Users\Depes Crystalline\Desktop\school\Active_Bike_Lighting_System\Radar_Core/Libraries/CMSIS/Include\core_cmSimd.h **** 
 385:C:\Users\Depes Crystalline\Desktop\school\Active_Bike_Lighting_System\Radar_Core/Libraries/CMSIS/Include\core_cmSimd.h **** __attribute__( ( always_inline ) ) __STATIC_INLINE uint32_t __QSAX(uint32_t op1, uint32_t op2)
 386:C:\Users\Depes Crystalline\Desktop\school\Active_Bike_Lighting_System\Radar_Core/Libraries/CMSIS/Include\core_cmSimd.h **** {
 387:C:\Users\Depes Crystalline\Desktop\school\Active_Bike_Lighting_System\Radar_Core/Libraries/CMSIS/Include\core_cmSimd.h ****   uint32_t result;
 388:C:\Users\Depes Crystalline\Desktop\school\Active_Bike_Lighting_System\Radar_Core/Libraries/CMSIS/Include\core_cmSimd.h **** 
 389:C:\Users\Depes Crystalline\Desktop\school\Active_Bike_Lighting_System\Radar_Core/Libraries/CMSIS/Include\core_cmSimd.h ****   __ASM volatile ("qsax %0, %1, %2" : "=r" (result) : "r" (op1), "r" (op2) );
 390:C:\Users\Depes Crystalline\Desktop\school\Active_Bike_Lighting_System\Radar_Core/Libraries/CMSIS/Include\core_cmSimd.h ****   return(result);
 391:C:\Users\Depes Crystalline\Desktop\school\Active_Bike_Lighting_System\Radar_Core/Libraries/CMSIS/Include\core_cmSimd.h **** }
 392:C:\Users\Depes Crystalline\Desktop\school\Active_Bike_Lighting_System\Radar_Core/Libraries/CMSIS/Include\core_cmSimd.h **** 
 393:C:\Users\Depes Crystalline\Desktop\school\Active_Bike_Lighting_System\Radar_Core/Libraries/CMSIS/Include\core_cmSimd.h **** __attribute__( ( always_inline ) ) __STATIC_INLINE uint32_t __SHSAX(uint32_t op1, uint32_t op2)
 394:C:\Users\Depes Crystalline\Desktop\school\Active_Bike_Lighting_System\Radar_Core/Libraries/CMSIS/Include\core_cmSimd.h **** {
 395:C:\Users\Depes Crystalline\Desktop\school\Active_Bike_Lighting_System\Radar_Core/Libraries/CMSIS/Include\core_cmSimd.h ****   uint32_t result;
 396:C:\Users\Depes Crystalline\Desktop\school\Active_Bike_Lighting_System\Radar_Core/Libraries/CMSIS/Include\core_cmSimd.h **** 
 397:C:\Users\Depes Crystalline\Desktop\school\Active_Bike_Lighting_System\Radar_Core/Libraries/CMSIS/Include\core_cmSimd.h ****   __ASM volatile ("shsax %0, %1, %2" : "=r" (result) : "r" (op1), "r" (op2) );
 398:C:\Users\Depes Crystalline\Desktop\school\Active_Bike_Lighting_System\Radar_Core/Libraries/CMSIS/Include\core_cmSimd.h ****   return(result);
 399:C:\Users\Depes Crystalline\Desktop\school\Active_Bike_Lighting_System\Radar_Core/Libraries/CMSIS/Include\core_cmSimd.h **** }
 400:C:\Users\Depes Crystalline\Desktop\school\Active_Bike_Lighting_System\Radar_Core/Libraries/CMSIS/Include\core_cmSimd.h **** 
 401:C:\Users\Depes Crystalline\Desktop\school\Active_Bike_Lighting_System\Radar_Core/Libraries/CMSIS/Include\core_cmSimd.h **** __attribute__( ( always_inline ) ) __STATIC_INLINE uint32_t __USAX(uint32_t op1, uint32_t op2)
 402:C:\Users\Depes Crystalline\Desktop\school\Active_Bike_Lighting_System\Radar_Core/Libraries/CMSIS/Include\core_cmSimd.h **** {
 403:C:\Users\Depes Crystalline\Desktop\school\Active_Bike_Lighting_System\Radar_Core/Libraries/CMSIS/Include\core_cmSimd.h ****   uint32_t result;
 404:C:\Users\Depes Crystalline\Desktop\school\Active_Bike_Lighting_System\Radar_Core/Libraries/CMSIS/Include\core_cmSimd.h **** 
 405:C:\Users\Depes Crystalline\Desktop\school\Active_Bike_Lighting_System\Radar_Core/Libraries/CMSIS/Include\core_cmSimd.h ****   __ASM volatile ("usax %0, %1, %2" : "=r" (result) : "r" (op1), "r" (op2) );
 406:C:\Users\Depes Crystalline\Desktop\school\Active_Bike_Lighting_System\Radar_Core/Libraries/CMSIS/Include\core_cmSimd.h ****   return(result);
 407:C:\Users\Depes Crystalline\Desktop\school\Active_Bike_Lighting_System\Radar_Core/Libraries/CMSIS/Include\core_cmSimd.h **** }
 408:C:\Users\Depes Crystalline\Desktop\school\Active_Bike_Lighting_System\Radar_Core/Libraries/CMSIS/Include\core_cmSimd.h **** 
 409:C:\Users\Depes Crystalline\Desktop\school\Active_Bike_Lighting_System\Radar_Core/Libraries/CMSIS/Include\core_cmSimd.h **** __attribute__( ( always_inline ) ) __STATIC_INLINE uint32_t __UQSAX(uint32_t op1, uint32_t op2)
 410:C:\Users\Depes Crystalline\Desktop\school\Active_Bike_Lighting_System\Radar_Core/Libraries/CMSIS/Include\core_cmSimd.h **** {
 411:C:\Users\Depes Crystalline\Desktop\school\Active_Bike_Lighting_System\Radar_Core/Libraries/CMSIS/Include\core_cmSimd.h ****   uint32_t result;
 412:C:\Users\Depes Crystalline\Desktop\school\Active_Bike_Lighting_System\Radar_Core/Libraries/CMSIS/Include\core_cmSimd.h **** 
 413:C:\Users\Depes Crystalline\Desktop\school\Active_Bike_Lighting_System\Radar_Core/Libraries/CMSIS/Include\core_cmSimd.h ****   __ASM volatile ("uqsax %0, %1, %2" : "=r" (result) : "r" (op1), "r" (op2) );
 414:C:\Users\Depes Crystalline\Desktop\school\Active_Bike_Lighting_System\Radar_Core/Libraries/CMSIS/Include\core_cmSimd.h ****   return(result);
 415:C:\Users\Depes Crystalline\Desktop\school\Active_Bike_Lighting_System\Radar_Core/Libraries/CMSIS/Include\core_cmSimd.h **** }
 416:C:\Users\Depes Crystalline\Desktop\school\Active_Bike_Lighting_System\Radar_Core/Libraries/CMSIS/Include\core_cmSimd.h **** 
 417:C:\Users\Depes Crystalline\Desktop\school\Active_Bike_Lighting_System\Radar_Core/Libraries/CMSIS/Include\core_cmSimd.h **** __attribute__( ( always_inline ) ) __STATIC_INLINE uint32_t __UHSAX(uint32_t op1, uint32_t op2)
 418:C:\Users\Depes Crystalline\Desktop\school\Active_Bike_Lighting_System\Radar_Core/Libraries/CMSIS/Include\core_cmSimd.h **** {
 419:C:\Users\Depes Crystalline\Desktop\school\Active_Bike_Lighting_System\Radar_Core/Libraries/CMSIS/Include\core_cmSimd.h ****   uint32_t result;
 420:C:\Users\Depes Crystalline\Desktop\school\Active_Bike_Lighting_System\Radar_Core/Libraries/CMSIS/Include\core_cmSimd.h **** 
 421:C:\Users\Depes Crystalline\Desktop\school\Active_Bike_Lighting_System\Radar_Core/Libraries/CMSIS/Include\core_cmSimd.h ****   __ASM volatile ("uhsax %0, %1, %2" : "=r" (result) : "r" (op1), "r" (op2) );
 422:C:\Users\Depes Crystalline\Desktop\school\Active_Bike_Lighting_System\Radar_Core/Libraries/CMSIS/Include\core_cmSimd.h ****   return(result);
 423:C:\Users\Depes Crystalline\Desktop\school\Active_Bike_Lighting_System\Radar_Core/Libraries/CMSIS/Include\core_cmSimd.h **** }
 424:C:\Users\Depes Crystalline\Desktop\school\Active_Bike_Lighting_System\Radar_Core/Libraries/CMSIS/Include\core_cmSimd.h **** 
 425:C:\Users\Depes Crystalline\Desktop\school\Active_Bike_Lighting_System\Radar_Core/Libraries/CMSIS/Include\core_cmSimd.h **** __attribute__( ( always_inline ) ) __STATIC_INLINE uint32_t __USAD8(uint32_t op1, uint32_t op2)
 426:C:\Users\Depes Crystalline\Desktop\school\Active_Bike_Lighting_System\Radar_Core/Libraries/CMSIS/Include\core_cmSimd.h **** {
 427:C:\Users\Depes Crystalline\Desktop\school\Active_Bike_Lighting_System\Radar_Core/Libraries/CMSIS/Include\core_cmSimd.h ****   uint32_t result;
 428:C:\Users\Depes Crystalline\Desktop\school\Active_Bike_Lighting_System\Radar_Core/Libraries/CMSIS/Include\core_cmSimd.h **** 
 429:C:\Users\Depes Crystalline\Desktop\school\Active_Bike_Lighting_System\Radar_Core/Libraries/CMSIS/Include\core_cmSimd.h ****   __ASM volatile ("usad8 %0, %1, %2" : "=r" (result) : "r" (op1), "r" (op2) );
 430:C:\Users\Depes Crystalline\Desktop\school\Active_Bike_Lighting_System\Radar_Core/Libraries/CMSIS/Include\core_cmSimd.h ****   return(result);
 431:C:\Users\Depes Crystalline\Desktop\school\Active_Bike_Lighting_System\Radar_Core/Libraries/CMSIS/Include\core_cmSimd.h **** }
 432:C:\Users\Depes Crystalline\Desktop\school\Active_Bike_Lighting_System\Radar_Core/Libraries/CMSIS/Include\core_cmSimd.h **** 
 433:C:\Users\Depes Crystalline\Desktop\school\Active_Bike_Lighting_System\Radar_Core/Libraries/CMSIS/Include\core_cmSimd.h **** __attribute__( ( always_inline ) ) __STATIC_INLINE uint32_t __USADA8(uint32_t op1, uint32_t op2, ui
 434:C:\Users\Depes Crystalline\Desktop\school\Active_Bike_Lighting_System\Radar_Core/Libraries/CMSIS/Include\core_cmSimd.h **** {
 435:C:\Users\Depes Crystalline\Desktop\school\Active_Bike_Lighting_System\Radar_Core/Libraries/CMSIS/Include\core_cmSimd.h ****   uint32_t result;
 436:C:\Users\Depes Crystalline\Desktop\school\Active_Bike_Lighting_System\Radar_Core/Libraries/CMSIS/Include\core_cmSimd.h **** 
 437:C:\Users\Depes Crystalline\Desktop\school\Active_Bike_Lighting_System\Radar_Core/Libraries/CMSIS/Include\core_cmSimd.h ****   __ASM volatile ("usada8 %0, %1, %2, %3" : "=r" (result) : "r" (op1), "r" (op2), "r" (op3) );
 438:C:\Users\Depes Crystalline\Desktop\school\Active_Bike_Lighting_System\Radar_Core/Libraries/CMSIS/Include\core_cmSimd.h ****   return(result);
 439:C:\Users\Depes Crystalline\Desktop\school\Active_Bike_Lighting_System\Radar_Core/Libraries/CMSIS/Include\core_cmSimd.h **** }
 440:C:\Users\Depes Crystalline\Desktop\school\Active_Bike_Lighting_System\Radar_Core/Libraries/CMSIS/Include\core_cmSimd.h **** 
 441:C:\Users\Depes Crystalline\Desktop\school\Active_Bike_Lighting_System\Radar_Core/Libraries/CMSIS/Include\core_cmSimd.h **** #define __SSAT16(ARG1,ARG2) \
 442:C:\Users\Depes Crystalline\Desktop\school\Active_Bike_Lighting_System\Radar_Core/Libraries/CMSIS/Include\core_cmSimd.h **** ({                          \
 443:C:\Users\Depes Crystalline\Desktop\school\Active_Bike_Lighting_System\Radar_Core/Libraries/CMSIS/Include\core_cmSimd.h ****   uint32_t __RES, __ARG1 = (ARG1); \
 444:C:\Users\Depes Crystalline\Desktop\school\Active_Bike_Lighting_System\Radar_Core/Libraries/CMSIS/Include\core_cmSimd.h ****   __ASM ("ssat16 %0, %1, %2" : "=r" (__RES) :  "I" (ARG2), "r" (__ARG1) ); \
 445:C:\Users\Depes Crystalline\Desktop\school\Active_Bike_Lighting_System\Radar_Core/Libraries/CMSIS/Include\core_cmSimd.h ****   __RES; \
 446:C:\Users\Depes Crystalline\Desktop\school\Active_Bike_Lighting_System\Radar_Core/Libraries/CMSIS/Include\core_cmSimd.h ****  })
 447:C:\Users\Depes Crystalline\Desktop\school\Active_Bike_Lighting_System\Radar_Core/Libraries/CMSIS/Include\core_cmSimd.h **** 
 448:C:\Users\Depes Crystalline\Desktop\school\Active_Bike_Lighting_System\Radar_Core/Libraries/CMSIS/Include\core_cmSimd.h **** #define __USAT16(ARG1,ARG2) \
 449:C:\Users\Depes Crystalline\Desktop\school\Active_Bike_Lighting_System\Radar_Core/Libraries/CMSIS/Include\core_cmSimd.h **** ({                          \
 450:C:\Users\Depes Crystalline\Desktop\school\Active_Bike_Lighting_System\Radar_Core/Libraries/CMSIS/Include\core_cmSimd.h ****   uint32_t __RES, __ARG1 = (ARG1); \
 451:C:\Users\Depes Crystalline\Desktop\school\Active_Bike_Lighting_System\Radar_Core/Libraries/CMSIS/Include\core_cmSimd.h ****   __ASM ("usat16 %0, %1, %2" : "=r" (__RES) :  "I" (ARG2), "r" (__ARG1) ); \
 452:C:\Users\Depes Crystalline\Desktop\school\Active_Bike_Lighting_System\Radar_Core/Libraries/CMSIS/Include\core_cmSimd.h ****   __RES; \
 453:C:\Users\Depes Crystalline\Desktop\school\Active_Bike_Lighting_System\Radar_Core/Libraries/CMSIS/Include\core_cmSimd.h ****  })
 454:C:\Users\Depes Crystalline\Desktop\school\Active_Bike_Lighting_System\Radar_Core/Libraries/CMSIS/Include\core_cmSimd.h **** 
 455:C:\Users\Depes Crystalline\Desktop\school\Active_Bike_Lighting_System\Radar_Core/Libraries/CMSIS/Include\core_cmSimd.h **** __attribute__( ( always_inline ) ) __STATIC_INLINE uint32_t __UXTB16(uint32_t op1)
 456:C:\Users\Depes Crystalline\Desktop\school\Active_Bike_Lighting_System\Radar_Core/Libraries/CMSIS/Include\core_cmSimd.h **** {
 457:C:\Users\Depes Crystalline\Desktop\school\Active_Bike_Lighting_System\Radar_Core/Libraries/CMSIS/Include\core_cmSimd.h ****   uint32_t result;
 458:C:\Users\Depes Crystalline\Desktop\school\Active_Bike_Lighting_System\Radar_Core/Libraries/CMSIS/Include\core_cmSimd.h **** 
 459:C:\Users\Depes Crystalline\Desktop\school\Active_Bike_Lighting_System\Radar_Core/Libraries/CMSIS/Include\core_cmSimd.h ****   __ASM volatile ("uxtb16 %0, %1" : "=r" (result) : "r" (op1));
 460:C:\Users\Depes Crystalline\Desktop\school\Active_Bike_Lighting_System\Radar_Core/Libraries/CMSIS/Include\core_cmSimd.h ****   return(result);
 461:C:\Users\Depes Crystalline\Desktop\school\Active_Bike_Lighting_System\Radar_Core/Libraries/CMSIS/Include\core_cmSimd.h **** }
 462:C:\Users\Depes Crystalline\Desktop\school\Active_Bike_Lighting_System\Radar_Core/Libraries/CMSIS/Include\core_cmSimd.h **** 
 463:C:\Users\Depes Crystalline\Desktop\school\Active_Bike_Lighting_System\Radar_Core/Libraries/CMSIS/Include\core_cmSimd.h **** __attribute__( ( always_inline ) ) __STATIC_INLINE uint32_t __UXTAB16(uint32_t op1, uint32_t op2)
 464:C:\Users\Depes Crystalline\Desktop\school\Active_Bike_Lighting_System\Radar_Core/Libraries/CMSIS/Include\core_cmSimd.h **** {
 465:C:\Users\Depes Crystalline\Desktop\school\Active_Bike_Lighting_System\Radar_Core/Libraries/CMSIS/Include\core_cmSimd.h ****   uint32_t result;
 466:C:\Users\Depes Crystalline\Desktop\school\Active_Bike_Lighting_System\Radar_Core/Libraries/CMSIS/Include\core_cmSimd.h **** 
 467:C:\Users\Depes Crystalline\Desktop\school\Active_Bike_Lighting_System\Radar_Core/Libraries/CMSIS/Include\core_cmSimd.h ****   __ASM volatile ("uxtab16 %0, %1, %2" : "=r" (result) : "r" (op1), "r" (op2) );
 468:C:\Users\Depes Crystalline\Desktop\school\Active_Bike_Lighting_System\Radar_Core/Libraries/CMSIS/Include\core_cmSimd.h ****   return(result);
 469:C:\Users\Depes Crystalline\Desktop\school\Active_Bike_Lighting_System\Radar_Core/Libraries/CMSIS/Include\core_cmSimd.h **** }
 470:C:\Users\Depes Crystalline\Desktop\school\Active_Bike_Lighting_System\Radar_Core/Libraries/CMSIS/Include\core_cmSimd.h **** 
 471:C:\Users\Depes Crystalline\Desktop\school\Active_Bike_Lighting_System\Radar_Core/Libraries/CMSIS/Include\core_cmSimd.h **** __attribute__( ( always_inline ) ) __STATIC_INLINE uint32_t __SXTB16(uint32_t op1)
 472:C:\Users\Depes Crystalline\Desktop\school\Active_Bike_Lighting_System\Radar_Core/Libraries/CMSIS/Include\core_cmSimd.h **** {
 473:C:\Users\Depes Crystalline\Desktop\school\Active_Bike_Lighting_System\Radar_Core/Libraries/CMSIS/Include\core_cmSimd.h ****   uint32_t result;
 474:C:\Users\Depes Crystalline\Desktop\school\Active_Bike_Lighting_System\Radar_Core/Libraries/CMSIS/Include\core_cmSimd.h **** 
 475:C:\Users\Depes Crystalline\Desktop\school\Active_Bike_Lighting_System\Radar_Core/Libraries/CMSIS/Include\core_cmSimd.h ****   __ASM volatile ("sxtb16 %0, %1" : "=r" (result) : "r" (op1));
 476:C:\Users\Depes Crystalline\Desktop\school\Active_Bike_Lighting_System\Radar_Core/Libraries/CMSIS/Include\core_cmSimd.h ****   return(result);
 477:C:\Users\Depes Crystalline\Desktop\school\Active_Bike_Lighting_System\Radar_Core/Libraries/CMSIS/Include\core_cmSimd.h **** }
 478:C:\Users\Depes Crystalline\Desktop\school\Active_Bike_Lighting_System\Radar_Core/Libraries/CMSIS/Include\core_cmSimd.h **** 
 479:C:\Users\Depes Crystalline\Desktop\school\Active_Bike_Lighting_System\Radar_Core/Libraries/CMSIS/Include\core_cmSimd.h **** __attribute__( ( always_inline ) ) __STATIC_INLINE uint32_t __SXTAB16(uint32_t op1, uint32_t op2)
 480:C:\Users\Depes Crystalline\Desktop\school\Active_Bike_Lighting_System\Radar_Core/Libraries/CMSIS/Include\core_cmSimd.h **** {
 481:C:\Users\Depes Crystalline\Desktop\school\Active_Bike_Lighting_System\Radar_Core/Libraries/CMSIS/Include\core_cmSimd.h ****   uint32_t result;
 482:C:\Users\Depes Crystalline\Desktop\school\Active_Bike_Lighting_System\Radar_Core/Libraries/CMSIS/Include\core_cmSimd.h **** 
 483:C:\Users\Depes Crystalline\Desktop\school\Active_Bike_Lighting_System\Radar_Core/Libraries/CMSIS/Include\core_cmSimd.h ****   __ASM volatile ("sxtab16 %0, %1, %2" : "=r" (result) : "r" (op1), "r" (op2) );
 484:C:\Users\Depes Crystalline\Desktop\school\Active_Bike_Lighting_System\Radar_Core/Libraries/CMSIS/Include\core_cmSimd.h ****   return(result);
 485:C:\Users\Depes Crystalline\Desktop\school\Active_Bike_Lighting_System\Radar_Core/Libraries/CMSIS/Include\core_cmSimd.h **** }
 486:C:\Users\Depes Crystalline\Desktop\school\Active_Bike_Lighting_System\Radar_Core/Libraries/CMSIS/Include\core_cmSimd.h **** 
 487:C:\Users\Depes Crystalline\Desktop\school\Active_Bike_Lighting_System\Radar_Core/Libraries/CMSIS/Include\core_cmSimd.h **** __attribute__( ( always_inline ) ) __STATIC_INLINE uint32_t __SMUAD  (uint32_t op1, uint32_t op2)
 488:C:\Users\Depes Crystalline\Desktop\school\Active_Bike_Lighting_System\Radar_Core/Libraries/CMSIS/Include\core_cmSimd.h **** {
 489:C:\Users\Depes Crystalline\Desktop\school\Active_Bike_Lighting_System\Radar_Core/Libraries/CMSIS/Include\core_cmSimd.h ****   uint32_t result;
 490:C:\Users\Depes Crystalline\Desktop\school\Active_Bike_Lighting_System\Radar_Core/Libraries/CMSIS/Include\core_cmSimd.h **** 
 491:C:\Users\Depes Crystalline\Desktop\school\Active_Bike_Lighting_System\Radar_Core/Libraries/CMSIS/Include\core_cmSimd.h ****   __ASM volatile ("smuad %0, %1, %2" : "=r" (result) : "r" (op1), "r" (op2) );
 492:C:\Users\Depes Crystalline\Desktop\school\Active_Bike_Lighting_System\Radar_Core/Libraries/CMSIS/Include\core_cmSimd.h ****   return(result);
 493:C:\Users\Depes Crystalline\Desktop\school\Active_Bike_Lighting_System\Radar_Core/Libraries/CMSIS/Include\core_cmSimd.h **** }
 494:C:\Users\Depes Crystalline\Desktop\school\Active_Bike_Lighting_System\Radar_Core/Libraries/CMSIS/Include\core_cmSimd.h **** 
 495:C:\Users\Depes Crystalline\Desktop\school\Active_Bike_Lighting_System\Radar_Core/Libraries/CMSIS/Include\core_cmSimd.h **** __attribute__( ( always_inline ) ) __STATIC_INLINE uint32_t __SMUADX (uint32_t op1, uint32_t op2)
 496:C:\Users\Depes Crystalline\Desktop\school\Active_Bike_Lighting_System\Radar_Core/Libraries/CMSIS/Include\core_cmSimd.h **** {
 497:C:\Users\Depes Crystalline\Desktop\school\Active_Bike_Lighting_System\Radar_Core/Libraries/CMSIS/Include\core_cmSimd.h ****   uint32_t result;
 498:C:\Users\Depes Crystalline\Desktop\school\Active_Bike_Lighting_System\Radar_Core/Libraries/CMSIS/Include\core_cmSimd.h **** 
 499:C:\Users\Depes Crystalline\Desktop\school\Active_Bike_Lighting_System\Radar_Core/Libraries/CMSIS/Include\core_cmSimd.h ****   __ASM volatile ("smuadx %0, %1, %2" : "=r" (result) : "r" (op1), "r" (op2) );
 500:C:\Users\Depes Crystalline\Desktop\school\Active_Bike_Lighting_System\Radar_Core/Libraries/CMSIS/Include\core_cmSimd.h ****   return(result);
 501:C:\Users\Depes Crystalline\Desktop\school\Active_Bike_Lighting_System\Radar_Core/Libraries/CMSIS/Include\core_cmSimd.h **** }
 502:C:\Users\Depes Crystalline\Desktop\school\Active_Bike_Lighting_System\Radar_Core/Libraries/CMSIS/Include\core_cmSimd.h **** 
 503:C:\Users\Depes Crystalline\Desktop\school\Active_Bike_Lighting_System\Radar_Core/Libraries/CMSIS/Include\core_cmSimd.h **** __attribute__( ( always_inline ) ) __STATIC_INLINE uint32_t __SMLAD (uint32_t op1, uint32_t op2, ui
 504:C:\Users\Depes Crystalline\Desktop\school\Active_Bike_Lighting_System\Radar_Core/Libraries/CMSIS/Include\core_cmSimd.h **** {
 505:C:\Users\Depes Crystalline\Desktop\school\Active_Bike_Lighting_System\Radar_Core/Libraries/CMSIS/Include\core_cmSimd.h ****   uint32_t result;
 506:C:\Users\Depes Crystalline\Desktop\school\Active_Bike_Lighting_System\Radar_Core/Libraries/CMSIS/Include\core_cmSimd.h **** 
 507:C:\Users\Depes Crystalline\Desktop\school\Active_Bike_Lighting_System\Radar_Core/Libraries/CMSIS/Include\core_cmSimd.h ****   __ASM volatile ("smlad %0, %1, %2, %3" : "=r" (result) : "r" (op1), "r" (op2), "r" (op3) );
 186              	 .loc 2 507 0
 187 0154 D7F8D830 	 ldr r3,[r7,#216]
 188 0158 D7F8D420 	 ldr r2,[r7,#212]
 189 015c D7F8D010 	 ldr r1,[r7,#208]
 190              	
 191 0160 23FB0213 	 smlad r3,r3,r2,r1
 192              	
 193              	 .thumb
 194 0164 C7F8CC30 	 str r3,[r7,#204]
 508:C:\Users\Depes Crystalline\Desktop\school\Active_Bike_Lighting_System\Radar_Core/Libraries/CMSIS/Include\core_cmSimd.h ****   return(result);
 195              	 .loc 2 508 0
 196 0168 D7F8CC30 	 ldr r3,[r7,#204]
 197              	.LBE39:
 198              	.LBE38:
 199              	 .loc 1 144 0
 200 016c C7F88431 	 str r3,[r7,#388]
 145:../Dave/Generated/CMSIS_DSP/FilteringFunctions/arm_fir_fast_q15.c **** 
 146:../Dave/Generated/CMSIS_DSP/FilteringFunctions/arm_fir_fast_q15.c ****       /* acc2 +=  b[N] * x[n-N-2] + b[N-1] * x[n-N-3] */
 147:../Dave/Generated/CMSIS_DSP/FilteringFunctions/arm_fir_fast_q15.c ****       acc2 = __SMLAD(x2, c0, acc2);
 201              	 .loc 1 147 0
 202 0170 D7F87011 	 ldr r1,[r7,#368]
 203 0174 D7F85C21 	 ldr r2,[r7,#348]
 204 0178 D7F87C31 	 ldr r3,[r7,#380]
 205 017c C7F8C810 	 str r1,[r7,#200]
 206 0180 C7F8C420 	 str r2,[r7,#196]
 207 0184 C7F8C030 	 str r3,[r7,#192]
 208              	.LBB40:
 209              	.LBB41:
 507:C:\Users\Depes Crystalline\Desktop\school\Active_Bike_Lighting_System\Radar_Core/Libraries/CMSIS/Include\core_cmSimd.h ****   return(result);
 210              	 .loc 2 507 0
 211 0188 D7F8C830 	 ldr r3,[r7,#200]
 212 018c D7F8C420 	 ldr r2,[r7,#196]
 213 0190 D7F8C010 	 ldr r1,[r7,#192]
 214              	
 215 0194 23FB0213 	 smlad r3,r3,r2,r1
 216              	
 217              	 .thumb
 218 0198 C7F8BC30 	 str r3,[r7,#188]
 219              	 .loc 2 508 0
 220 019c D7F8BC30 	 ldr r3,[r7,#188]
 221              	.LBE41:
 222              	.LBE40:
 223              	 .loc 1 147 0
 224 01a0 C7F87C31 	 str r3,[r7,#380]
 225              	.LBB42:
 148:../Dave/Generated/CMSIS_DSP/FilteringFunctions/arm_fir_fast_q15.c **** 
 149:../Dave/Generated/CMSIS_DSP/FilteringFunctions/arm_fir_fast_q15.c ****       /* pack  x[n-N-1] and x[n-N-2] */
 150:../Dave/Generated/CMSIS_DSP/FilteringFunctions/arm_fir_fast_q15.c **** #ifndef ARM_MATH_BIG_ENDIAN
 151:../Dave/Generated/CMSIS_DSP/FilteringFunctions/arm_fir_fast_q15.c ****       x1 = __PKHBT(x2, x0, 0);
 226              	 .loc 1 151 0
 227 01a4 D7F87031 	 ldr r3,[r7,#368]
 228 01a8 C7F85831 	 str r3,[r7,#344]
 229 01ac D7F87431 	 ldr r3,[r7,#372]
 230 01b0 C7F85431 	 str r3,[r7,#340]
 231 01b4 D7F85831 	 ldr r3,[r7,#344]
 232 01b8 D7F85421 	 ldr r2,[r7,#340]
 233              	
 234 01bc C3EA0203 	 pkhbt r3,r3,r2,lsl#0
 235              	
 236              	 .thumb
 237 01c0 C7F85031 	 str r3,[r7,#336]
 238 01c4 D7F85031 	 ldr r3,[r7,#336]
 239              	.LBE42:
 240 01c8 C7F84C31 	 str r3,[r7,#332]
 152:../Dave/Generated/CMSIS_DSP/FilteringFunctions/arm_fir_fast_q15.c **** #else
 153:../Dave/Generated/CMSIS_DSP/FilteringFunctions/arm_fir_fast_q15.c ****       x1 = __PKHBT(x0, x2, 0);
 154:../Dave/Generated/CMSIS_DSP/FilteringFunctions/arm_fir_fast_q15.c **** #endif
 155:../Dave/Generated/CMSIS_DSP/FilteringFunctions/arm_fir_fast_q15.c **** 
 156:../Dave/Generated/CMSIS_DSP/FilteringFunctions/arm_fir_fast_q15.c ****       /* Read state x[n-N-4], x[n-N-5] */
 157:../Dave/Generated/CMSIS_DSP/FilteringFunctions/arm_fir_fast_q15.c ****       x0 = _SIMD32_OFFSET(px);
 241              	 .loc 1 157 0
 242 01cc 07F11403 	 add r3,r7,#20
 243 01d0 1B68     	 ldr r3,[r3]
 244 01d2 1B68     	 ldr r3,[r3]
 245 01d4 C7F87431 	 str r3,[r7,#372]
 158:../Dave/Generated/CMSIS_DSP/FilteringFunctions/arm_fir_fast_q15.c **** 
 159:../Dave/Generated/CMSIS_DSP/FilteringFunctions/arm_fir_fast_q15.c ****       /* acc1 +=  b[N] * x[n-N-1] + b[N-1] * x[n-N-2] */
 160:../Dave/Generated/CMSIS_DSP/FilteringFunctions/arm_fir_fast_q15.c ****       acc1 = __SMLADX(x1, c0, acc1);
 246              	 .loc 1 160 0
 247 01d8 D7F84C11 	 ldr r1,[r7,#332]
 248 01dc D7F85C21 	 ldr r2,[r7,#348]
 249 01e0 D7F88031 	 ldr r3,[r7,#384]
 250 01e4 C7F8B810 	 str r1,[r7,#184]
 251 01e8 C7F8B420 	 str r2,[r7,#180]
 252 01ec C7F8B030 	 str r3,[r7,#176]
 253              	.LBB43:
 254              	.LBB44:
 509:C:\Users\Depes Crystalline\Desktop\school\Active_Bike_Lighting_System\Radar_Core/Libraries/CMSIS/Include\core_cmSimd.h **** }
 510:C:\Users\Depes Crystalline\Desktop\school\Active_Bike_Lighting_System\Radar_Core/Libraries/CMSIS/Include\core_cmSimd.h **** 
 511:C:\Users\Depes Crystalline\Desktop\school\Active_Bike_Lighting_System\Radar_Core/Libraries/CMSIS/Include\core_cmSimd.h **** __attribute__( ( always_inline ) ) __STATIC_INLINE uint32_t __SMLADX (uint32_t op1, uint32_t op2, u
 512:C:\Users\Depes Crystalline\Desktop\school\Active_Bike_Lighting_System\Radar_Core/Libraries/CMSIS/Include\core_cmSimd.h **** {
 513:C:\Users\Depes Crystalline\Desktop\school\Active_Bike_Lighting_System\Radar_Core/Libraries/CMSIS/Include\core_cmSimd.h ****   uint32_t result;
 514:C:\Users\Depes Crystalline\Desktop\school\Active_Bike_Lighting_System\Radar_Core/Libraries/CMSIS/Include\core_cmSimd.h **** 
 515:C:\Users\Depes Crystalline\Desktop\school\Active_Bike_Lighting_System\Radar_Core/Libraries/CMSIS/Include\core_cmSimd.h ****   __ASM volatile ("smladx %0, %1, %2, %3" : "=r" (result) : "r" (op1), "r" (op2), "r" (op3) );
 255              	 .loc 2 515 0
 256 01f0 D7F8B830 	 ldr r3,[r7,#184]
 257 01f4 D7F8B420 	 ldr r2,[r7,#180]
 258 01f8 D7F8B010 	 ldr r1,[r7,#176]
 259              	
 260 01fc 23FB1213 	 smladx r3,r3,r2,r1
 261              	
 262              	 .thumb
 263 0200 C7F8AC30 	 str r3,[r7,#172]
 516:C:\Users\Depes Crystalline\Desktop\school\Active_Bike_Lighting_System\Radar_Core/Libraries/CMSIS/Include\core_cmSimd.h ****   return(result);
 264              	 .loc 2 516 0
 265 0204 D7F8AC30 	 ldr r3,[r7,#172]
 266              	.LBE44:
 267              	.LBE43:
 268              	 .loc 1 160 0
 269 0208 C7F88031 	 str r3,[r7,#384]
 270              	.LBB45:
 161:../Dave/Generated/CMSIS_DSP/FilteringFunctions/arm_fir_fast_q15.c **** 
 162:../Dave/Generated/CMSIS_DSP/FilteringFunctions/arm_fir_fast_q15.c ****       /* pack  x[n-N-3] and x[n-N-4] */
 163:../Dave/Generated/CMSIS_DSP/FilteringFunctions/arm_fir_fast_q15.c **** #ifndef ARM_MATH_BIG_ENDIAN
 164:../Dave/Generated/CMSIS_DSP/FilteringFunctions/arm_fir_fast_q15.c ****       x1 = __PKHBT(x0, x2, 0);
 271              	 .loc 1 164 0
 272 020c D7F87431 	 ldr r3,[r7,#372]
 273 0210 C7F84831 	 str r3,[r7,#328]
 274 0214 D7F87031 	 ldr r3,[r7,#368]
 275 0218 C7F84431 	 str r3,[r7,#324]
 276 021c D7F84831 	 ldr r3,[r7,#328]
 277 0220 D7F84421 	 ldr r2,[r7,#324]
 278              	
 279 0224 C3EA0203 	 pkhbt r3,r3,r2,lsl#0
 280              	
 281              	 .thumb
 282 0228 C7F84031 	 str r3,[r7,#320]
 283 022c D7F84031 	 ldr r3,[r7,#320]
 284              	.LBE45:
 285 0230 C7F84C31 	 str r3,[r7,#332]
 165:../Dave/Generated/CMSIS_DSP/FilteringFunctions/arm_fir_fast_q15.c **** #else
 166:../Dave/Generated/CMSIS_DSP/FilteringFunctions/arm_fir_fast_q15.c ****       x1 = __PKHBT(x2, x0, 0);
 167:../Dave/Generated/CMSIS_DSP/FilteringFunctions/arm_fir_fast_q15.c **** #endif
 168:../Dave/Generated/CMSIS_DSP/FilteringFunctions/arm_fir_fast_q15.c **** 
 169:../Dave/Generated/CMSIS_DSP/FilteringFunctions/arm_fir_fast_q15.c ****       /* acc3 +=  b[N] * x[n-N-3] + b[N-1] * x[n-N-4] */
 170:../Dave/Generated/CMSIS_DSP/FilteringFunctions/arm_fir_fast_q15.c ****       acc3 = __SMLADX(x1, c0, acc3);
 286              	 .loc 1 170 0
 287 0234 D7F84C11 	 ldr r1,[r7,#332]
 288 0238 D7F85C21 	 ldr r2,[r7,#348]
 289 023c D7F87831 	 ldr r3,[r7,#376]
 290 0240 C7F8A810 	 str r1,[r7,#168]
 291 0244 C7F8A420 	 str r2,[r7,#164]
 292 0248 C7F8A030 	 str r3,[r7,#160]
 293              	.LBB46:
 294              	.LBB47:
 515:C:\Users\Depes Crystalline\Desktop\school\Active_Bike_Lighting_System\Radar_Core/Libraries/CMSIS/Include\core_cmSimd.h ****   return(result);
 295              	 .loc 2 515 0
 296 024c D7F8A830 	 ldr r3,[r7,#168]
 297 0250 D7F8A420 	 ldr r2,[r7,#164]
 298 0254 D7F8A010 	 ldr r1,[r7,#160]
 299              	
 300 0258 23FB1213 	 smladx r3,r3,r2,r1
 301              	
 302              	 .thumb
 303 025c C7F89C30 	 str r3,[r7,#156]
 304              	 .loc 2 516 0
 305 0260 D7F89C30 	 ldr r3,[r7,#156]
 306              	.LBE47:
 307              	.LBE46:
 308              	 .loc 1 170 0
 309 0264 C7F87831 	 str r3,[r7,#376]
 171:../Dave/Generated/CMSIS_DSP/FilteringFunctions/arm_fir_fast_q15.c **** 
 172:../Dave/Generated/CMSIS_DSP/FilteringFunctions/arm_fir_fast_q15.c ****       /* Read coefficients b[N-2], b[N-3] */
 173:../Dave/Generated/CMSIS_DSP/FilteringFunctions/arm_fir_fast_q15.c ****       c0 = *__SIMD32(pb)++;
 310              	 .loc 1 173 0
 311 0268 07F11802 	 add r2,r7,#24
 312 026c 1368     	 ldr r3,[r2]
 313 026e 191D     	 adds r1,r3,#4
 314 0270 1160     	 str r1,[r2]
 315 0272 1B68     	 ldr r3,[r3]
 316 0274 C7F85C31 	 str r3,[r7,#348]
 174:../Dave/Generated/CMSIS_DSP/FilteringFunctions/arm_fir_fast_q15.c **** 
 175:../Dave/Generated/CMSIS_DSP/FilteringFunctions/arm_fir_fast_q15.c ****       /* acc0 +=  b[N-2] * x[n-N-2] + b[N-3] * x[n-N-3] */
 176:../Dave/Generated/CMSIS_DSP/FilteringFunctions/arm_fir_fast_q15.c ****       acc0 = __SMLAD(x2, c0, acc0);
 317              	 .loc 1 176 0
 318 0278 D7F87011 	 ldr r1,[r7,#368]
 319 027c D7F85C31 	 ldr r3,[r7,#348]
 320 0280 D7F88421 	 ldr r2,[r7,#388]
 321 0284 C7F89810 	 str r1,[r7,#152]
 322 0288 C7F89430 	 str r3,[r7,#148]
 323 028c 07F19003 	 add r3,r7,#144
 324 0290 1A60     	 str r2,[r3]
 325              	.LBB48:
 326              	.LBB49:
 507:C:\Users\Depes Crystalline\Desktop\school\Active_Bike_Lighting_System\Radar_Core/Libraries/CMSIS/Include\core_cmSimd.h ****   return(result);
 327              	 .loc 2 507 0
 328 0292 D7F89830 	 ldr r3,[r7,#152]
 329 0296 D7F89420 	 ldr r2,[r7,#148]
 330 029a 07F19001 	 add r1,r7,#144
 331 029e 0968     	 ldr r1,[r1]
 332              	
 333 02a0 23FB0212 	 smlad r2,r3,r2,r1
 334              	
 335              	 .thumb
 336 02a4 07F18C03 	 add r3,r7,#140
 337 02a8 1A60     	 str r2,[r3]
 508:C:\Users\Depes Crystalline\Desktop\school\Active_Bike_Lighting_System\Radar_Core/Libraries/CMSIS/Include\core_cmSimd.h **** }
 338              	 .loc 2 508 0
 339 02aa 07F18C03 	 add r3,r7,#140
 340 02ae 1B68     	 ldr r3,[r3]
 341              	.LBE49:
 342              	.LBE48:
 343              	 .loc 1 176 0
 344 02b0 C7F88431 	 str r3,[r7,#388]
 177:../Dave/Generated/CMSIS_DSP/FilteringFunctions/arm_fir_fast_q15.c **** 
 178:../Dave/Generated/CMSIS_DSP/FilteringFunctions/arm_fir_fast_q15.c ****       /* Read state x[n-N-6], x[n-N-7] with offset */
 179:../Dave/Generated/CMSIS_DSP/FilteringFunctions/arm_fir_fast_q15.c ****       x2 = _SIMD32_OFFSET(px + 2u);
 345              	 .loc 1 179 0
 346 02b4 07F11403 	 add r3,r7,#20
 347 02b8 1B68     	 ldr r3,[r3]
 348 02ba 5B68     	 ldr r3,[r3,#4]
 349 02bc C7F87031 	 str r3,[r7,#368]
 180:../Dave/Generated/CMSIS_DSP/FilteringFunctions/arm_fir_fast_q15.c **** 
 181:../Dave/Generated/CMSIS_DSP/FilteringFunctions/arm_fir_fast_q15.c ****       /* acc2 +=  b[N-2] * x[n-N-4] + b[N-3] * x[n-N-5] */
 182:../Dave/Generated/CMSIS_DSP/FilteringFunctions/arm_fir_fast_q15.c ****       acc2 = __SMLAD(x0, c0, acc2);
 350              	 .loc 1 182 0
 351 02c0 D7F87401 	 ldr r0,[r7,#372]
 352 02c4 D7F85C11 	 ldr r1,[r7,#348]
 353 02c8 D7F87C21 	 ldr r2,[r7,#380]
 354 02cc 07F18803 	 add r3,r7,#136
 355 02d0 1860     	 str r0,[r3]
 356 02d2 07F18403 	 add r3,r7,#132
 357 02d6 1960     	 str r1,[r3]
 358 02d8 07F18003 	 add r3,r7,#128
 359 02dc 1A60     	 str r2,[r3]
 360              	.LBB50:
 361              	.LBB51:
 507:C:\Users\Depes Crystalline\Desktop\school\Active_Bike_Lighting_System\Radar_Core/Libraries/CMSIS/Include\core_cmSimd.h ****   return(result);
 362              	 .loc 2 507 0
 363 02de 07F18803 	 add r3,r7,#136
 364 02e2 1B68     	 ldr r3,[r3]
 365 02e4 07F18402 	 add r2,r7,#132
 366 02e8 1268     	 ldr r2,[r2]
 367 02ea 07F18001 	 add r1,r7,#128
 368 02ee 0968     	 ldr r1,[r1]
 369              	
 370 02f0 23FB0212 	 smlad r2,r3,r2,r1
 371              	
 372              	 .thumb
 373 02f4 07F17C03 	 add r3,r7,#124
 374 02f8 1A60     	 str r2,[r3]
 508:C:\Users\Depes Crystalline\Desktop\school\Active_Bike_Lighting_System\Radar_Core/Libraries/CMSIS/Include\core_cmSimd.h **** }
 375              	 .loc 2 508 0
 376 02fa 07F17C03 	 add r3,r7,#124
 377 02fe 1B68     	 ldr r3,[r3]
 378              	.LBE51:
 379              	.LBE50:
 380              	 .loc 1 182 0
 381 0300 C7F87C31 	 str r3,[r7,#380]
 183:../Dave/Generated/CMSIS_DSP/FilteringFunctions/arm_fir_fast_q15.c **** 
 184:../Dave/Generated/CMSIS_DSP/FilteringFunctions/arm_fir_fast_q15.c ****       /* acc1 +=  b[N-2] * x[n-N-3] + b[N-3] * x[n-N-4] */
 185:../Dave/Generated/CMSIS_DSP/FilteringFunctions/arm_fir_fast_q15.c ****       acc1 = __SMLADX(x1, c0, acc1);
 382              	 .loc 1 185 0
 383 0304 D7F84C01 	 ldr r0,[r7,#332]
 384 0308 D7F85C11 	 ldr r1,[r7,#348]
 385 030c D7F88021 	 ldr r2,[r7,#384]
 386 0310 07F17803 	 add r3,r7,#120
 387 0314 1860     	 str r0,[r3]
 388 0316 07F17403 	 add r3,r7,#116
 389 031a 1960     	 str r1,[r3]
 390 031c 07F17003 	 add r3,r7,#112
 391 0320 1A60     	 str r2,[r3]
 392              	.LBB52:
 393              	.LBB53:
 515:C:\Users\Depes Crystalline\Desktop\school\Active_Bike_Lighting_System\Radar_Core/Libraries/CMSIS/Include\core_cmSimd.h ****   return(result);
 394              	 .loc 2 515 0
 395 0322 07F17803 	 add r3,r7,#120
 396 0326 1B68     	 ldr r3,[r3]
 397 0328 07F17402 	 add r2,r7,#116
 398 032c 1268     	 ldr r2,[r2]
 399 032e 07F17001 	 add r1,r7,#112
 400 0332 0968     	 ldr r1,[r1]
 401              	
 402 0334 23FB1212 	 smladx r2,r3,r2,r1
 403              	
 404              	 .thumb
 405 0338 07F16C03 	 add r3,r7,#108
 406 033c 1A60     	 str r2,[r3]
 407              	 .loc 2 516 0
 408 033e 07F16C03 	 add r3,r7,#108
 409 0342 1B68     	 ldr r3,[r3]
 410              	.LBE53:
 411              	.LBE52:
 412              	 .loc 1 185 0
 413 0344 C7F88031 	 str r3,[r7,#384]
 414              	.LBB54:
 186:../Dave/Generated/CMSIS_DSP/FilteringFunctions/arm_fir_fast_q15.c **** 
 187:../Dave/Generated/CMSIS_DSP/FilteringFunctions/arm_fir_fast_q15.c ****       /* pack  x[n-N-5] and x[n-N-6] */
 188:../Dave/Generated/CMSIS_DSP/FilteringFunctions/arm_fir_fast_q15.c **** #ifndef ARM_MATH_BIG_ENDIAN
 189:../Dave/Generated/CMSIS_DSP/FilteringFunctions/arm_fir_fast_q15.c ****       x1 = __PKHBT(x2, x0, 0);
 415              	 .loc 1 189 0
 416 0348 D7F87031 	 ldr r3,[r7,#368]
 417 034c C7F83C31 	 str r3,[r7,#316]
 418 0350 D7F87431 	 ldr r3,[r7,#372]
 419 0354 C7F83831 	 str r3,[r7,#312]
 420 0358 D7F83C31 	 ldr r3,[r7,#316]
 421 035c D7F83821 	 ldr r2,[r7,#312]
 422              	
 423 0360 C3EA0203 	 pkhbt r3,r3,r2,lsl#0
 424              	
 425              	 .thumb
 426 0364 C7F83431 	 str r3,[r7,#308]
 427 0368 D7F83431 	 ldr r3,[r7,#308]
 428              	.LBE54:
 429 036c C7F84C31 	 str r3,[r7,#332]
 190:../Dave/Generated/CMSIS_DSP/FilteringFunctions/arm_fir_fast_q15.c **** #else
 191:../Dave/Generated/CMSIS_DSP/FilteringFunctions/arm_fir_fast_q15.c ****       x1 = __PKHBT(x0, x2, 0);
 192:../Dave/Generated/CMSIS_DSP/FilteringFunctions/arm_fir_fast_q15.c **** #endif
 193:../Dave/Generated/CMSIS_DSP/FilteringFunctions/arm_fir_fast_q15.c **** 
 194:../Dave/Generated/CMSIS_DSP/FilteringFunctions/arm_fir_fast_q15.c ****       /* acc3 +=  b[N-2] * x[n-N-5] + b[N-3] * x[n-N-6] */
 195:../Dave/Generated/CMSIS_DSP/FilteringFunctions/arm_fir_fast_q15.c ****       acc3 = __SMLADX(x1, c0, acc3);
 430              	 .loc 1 195 0
 431 0370 D7F84C01 	 ldr r0,[r7,#332]
 432 0374 D7F85C11 	 ldr r1,[r7,#348]
 433 0378 D7F87821 	 ldr r2,[r7,#376]
 434 037c 07F16803 	 add r3,r7,#104
 435 0380 1860     	 str r0,[r3]
 436 0382 07F16403 	 add r3,r7,#100
 437 0386 1960     	 str r1,[r3]
 438 0388 07F16003 	 add r3,r7,#96
 439 038c 1A60     	 str r2,[r3]
 440              	.LBB55:
 441              	.LBB56:
 515:C:\Users\Depes Crystalline\Desktop\school\Active_Bike_Lighting_System\Radar_Core/Libraries/CMSIS/Include\core_cmSimd.h ****   return(result);
 442              	 .loc 2 515 0
 443 038e 07F16803 	 add r3,r7,#104
 444 0392 1B68     	 ldr r3,[r3]
 445 0394 07F16402 	 add r2,r7,#100
 446 0398 1268     	 ldr r2,[r2]
 447 039a 07F16001 	 add r1,r7,#96
 448 039e 0968     	 ldr r1,[r1]
 449              	
 450 03a0 23FB1212 	 smladx r2,r3,r2,r1
 451              	
 452              	 .thumb
 453 03a4 07F15C03 	 add r3,r7,#92
 454 03a8 1A60     	 str r2,[r3]
 455              	 .loc 2 516 0
 456 03aa 07F15C03 	 add r3,r7,#92
 457 03ae 1B68     	 ldr r3,[r3]
 458              	.LBE56:
 459              	.LBE55:
 460              	 .loc 1 195 0
 461 03b0 C7F87831 	 str r3,[r7,#376]
 196:../Dave/Generated/CMSIS_DSP/FilteringFunctions/arm_fir_fast_q15.c **** 
 197:../Dave/Generated/CMSIS_DSP/FilteringFunctions/arm_fir_fast_q15.c ****       /* Update state pointer for next state reading */
 198:../Dave/Generated/CMSIS_DSP/FilteringFunctions/arm_fir_fast_q15.c ****       px += 4u;
 462              	 .loc 1 198 0
 463 03b4 07F11403 	 add r3,r7,#20
 464 03b8 1B68     	 ldr r3,[r3]
 465 03ba 03F10802 	 add r2,r3,#8
 466 03be 07F11403 	 add r3,r7,#20
 467 03c2 1A60     	 str r2,[r3]
 199:../Dave/Generated/CMSIS_DSP/FilteringFunctions/arm_fir_fast_q15.c **** 
 200:../Dave/Generated/CMSIS_DSP/FilteringFunctions/arm_fir_fast_q15.c ****       /* Decrement tap count */
 201:../Dave/Generated/CMSIS_DSP/FilteringFunctions/arm_fir_fast_q15.c ****       tapCnt--;
 468              	 .loc 1 201 0
 469 03c4 D7F86C31 	 ldr r3,[r7,#364]
 470 03c8 013B     	 subs r3,r3,#1
 471 03ca C7F86C31 	 str r3,[r7,#364]
 472              	.L3:
 138:../Dave/Generated/CMSIS_DSP/FilteringFunctions/arm_fir_fast_q15.c ****     {
 473              	 .loc 1 138 0
 474 03ce D7F86C31 	 ldr r3,[r7,#364]
 475 03d2 002B     	 cmp r3,#0
 476 03d4 7FF4AAAE 	 bne .L12
 202:../Dave/Generated/CMSIS_DSP/FilteringFunctions/arm_fir_fast_q15.c **** 
 203:../Dave/Generated/CMSIS_DSP/FilteringFunctions/arm_fir_fast_q15.c ****     }
 204:../Dave/Generated/CMSIS_DSP/FilteringFunctions/arm_fir_fast_q15.c **** 
 205:../Dave/Generated/CMSIS_DSP/FilteringFunctions/arm_fir_fast_q15.c ****     /* If the filter length is not a multiple of 4, compute the remaining filter taps.       
 206:../Dave/Generated/CMSIS_DSP/FilteringFunctions/arm_fir_fast_q15.c ****      ** This is always be 2 taps since the filter length is even. */
 207:../Dave/Generated/CMSIS_DSP/FilteringFunctions/arm_fir_fast_q15.c ****     if((numTaps & 0x3u) != 0u)
 477              	 .loc 1 207 0
 478 03d8 D7F86031 	 ldr r3,[r7,#352]
 479 03dc 03F00303 	 and r3,r3,#3
 480 03e0 002B     	 cmp r3,#0
 481 03e2 00F0BE80 	 beq .L13
 208:../Dave/Generated/CMSIS_DSP/FilteringFunctions/arm_fir_fast_q15.c ****     {
 209:../Dave/Generated/CMSIS_DSP/FilteringFunctions/arm_fir_fast_q15.c **** 
 210:../Dave/Generated/CMSIS_DSP/FilteringFunctions/arm_fir_fast_q15.c ****       /* Read last two coefficients */
 211:../Dave/Generated/CMSIS_DSP/FilteringFunctions/arm_fir_fast_q15.c ****       c0 = *__SIMD32(pb)++;
 482              	 .loc 1 211 0
 483 03e6 07F11802 	 add r2,r7,#24
 484 03ea 1368     	 ldr r3,[r2]
 485 03ec 191D     	 adds r1,r3,#4
 486 03ee 1160     	 str r1,[r2]
 487 03f0 1B68     	 ldr r3,[r3]
 488 03f2 C7F85C31 	 str r3,[r7,#348]
 212:../Dave/Generated/CMSIS_DSP/FilteringFunctions/arm_fir_fast_q15.c **** 
 213:../Dave/Generated/CMSIS_DSP/FilteringFunctions/arm_fir_fast_q15.c ****       /* Perform the multiply-accumulates */
 214:../Dave/Generated/CMSIS_DSP/FilteringFunctions/arm_fir_fast_q15.c ****       acc0 = __SMLAD(x0, c0, acc0);
 489              	 .loc 1 214 0
 490 03f6 D7F87401 	 ldr r0,[r7,#372]
 491 03fa D7F85C11 	 ldr r1,[r7,#348]
 492 03fe D7F88421 	 ldr r2,[r7,#388]
 493 0402 07F15803 	 add r3,r7,#88
 494 0406 1860     	 str r0,[r3]
 495 0408 07F15403 	 add r3,r7,#84
 496 040c 1960     	 str r1,[r3]
 497 040e 07F15003 	 add r3,r7,#80
 498 0412 1A60     	 str r2,[r3]
 499              	.LBB57:
 500              	.LBB58:
 507:C:\Users\Depes Crystalline\Desktop\school\Active_Bike_Lighting_System\Radar_Core/Libraries/CMSIS/Include\core_cmSimd.h ****   return(result);
 501              	 .loc 2 507 0
 502 0414 07F15803 	 add r3,r7,#88
 503 0418 1B68     	 ldr r3,[r3]
 504 041a 07F15402 	 add r2,r7,#84
 505 041e 1268     	 ldr r2,[r2]
 506 0420 07F15001 	 add r1,r7,#80
 507 0424 0968     	 ldr r1,[r1]
 508              	
 509 0426 23FB0212 	 smlad r2,r3,r2,r1
 510              	
 511              	 .thumb
 512 042a 07F14C03 	 add r3,r7,#76
 513 042e 1A60     	 str r2,[r3]
 508:C:\Users\Depes Crystalline\Desktop\school\Active_Bike_Lighting_System\Radar_Core/Libraries/CMSIS/Include\core_cmSimd.h **** }
 514              	 .loc 2 508 0
 515 0430 07F14C03 	 add r3,r7,#76
 516 0434 1B68     	 ldr r3,[r3]
 517              	.LBE58:
 518              	.LBE57:
 519              	 .loc 1 214 0
 520 0436 C7F88431 	 str r3,[r7,#388]
 215:../Dave/Generated/CMSIS_DSP/FilteringFunctions/arm_fir_fast_q15.c ****       acc2 = __SMLAD(x2, c0, acc2);
 521              	 .loc 1 215 0
 522 043a D7F87001 	 ldr r0,[r7,#368]
 523 043e D7F85C11 	 ldr r1,[r7,#348]
 524 0442 D7F87C21 	 ldr r2,[r7,#380]
 525 0446 07F14803 	 add r3,r7,#72
 526 044a 1860     	 str r0,[r3]
 527 044c 07F14403 	 add r3,r7,#68
 528 0450 1960     	 str r1,[r3]
 529 0452 07F14003 	 add r3,r7,#64
 530 0456 1A60     	 str r2,[r3]
 531              	.LBB59:
 532              	.LBB60:
 507:C:\Users\Depes Crystalline\Desktop\school\Active_Bike_Lighting_System\Radar_Core/Libraries/CMSIS/Include\core_cmSimd.h ****   return(result);
 533              	 .loc 2 507 0
 534 0458 07F14803 	 add r3,r7,#72
 535 045c 1B68     	 ldr r3,[r3]
 536 045e 07F14402 	 add r2,r7,#68
 537 0462 1268     	 ldr r2,[r2]
 538 0464 07F14001 	 add r1,r7,#64
 539 0468 0968     	 ldr r1,[r1]
 540              	
 541 046a 23FB0212 	 smlad r2,r3,r2,r1
 542              	
 543              	 .thumb
 544 046e 07F13C03 	 add r3,r7,#60
 545 0472 1A60     	 str r2,[r3]
 508:C:\Users\Depes Crystalline\Desktop\school\Active_Bike_Lighting_System\Radar_Core/Libraries/CMSIS/Include\core_cmSimd.h **** }
 546              	 .loc 2 508 0
 547 0474 07F13C03 	 add r3,r7,#60
 548 0478 1B68     	 ldr r3,[r3]
 549              	.LBE60:
 550              	.LBE59:
 551              	 .loc 1 215 0
 552 047a C7F87C31 	 str r3,[r7,#380]
 553              	.LBB61:
 216:../Dave/Generated/CMSIS_DSP/FilteringFunctions/arm_fir_fast_q15.c **** 
 217:../Dave/Generated/CMSIS_DSP/FilteringFunctions/arm_fir_fast_q15.c ****       /* pack state variables */
 218:../Dave/Generated/CMSIS_DSP/FilteringFunctions/arm_fir_fast_q15.c **** #ifndef ARM_MATH_BIG_ENDIAN
 219:../Dave/Generated/CMSIS_DSP/FilteringFunctions/arm_fir_fast_q15.c ****       x1 = __PKHBT(x2, x0, 0);
 554              	 .loc 1 219 0
 555 047e D7F87031 	 ldr r3,[r7,#368]
 556 0482 C7F83031 	 str r3,[r7,#304]
 557 0486 D7F87431 	 ldr r3,[r7,#372]
 558 048a C7F82C31 	 str r3,[r7,#300]
 559 048e D7F83031 	 ldr r3,[r7,#304]
 560 0492 D7F82C21 	 ldr r2,[r7,#300]
 561              	
 562 0496 C3EA0203 	 pkhbt r3,r3,r2,lsl#0
 563              	
 564              	 .thumb
 565 049a C7F82831 	 str r3,[r7,#296]
 566 049e D7F82831 	 ldr r3,[r7,#296]
 567              	.LBE61:
 568 04a2 C7F84C31 	 str r3,[r7,#332]
 220:../Dave/Generated/CMSIS_DSP/FilteringFunctions/arm_fir_fast_q15.c **** #else
 221:../Dave/Generated/CMSIS_DSP/FilteringFunctions/arm_fir_fast_q15.c ****       x1 = __PKHBT(x0, x2, 0);
 222:../Dave/Generated/CMSIS_DSP/FilteringFunctions/arm_fir_fast_q15.c **** #endif
 223:../Dave/Generated/CMSIS_DSP/FilteringFunctions/arm_fir_fast_q15.c **** 
 224:../Dave/Generated/CMSIS_DSP/FilteringFunctions/arm_fir_fast_q15.c ****       /* Read last state variables */
 225:../Dave/Generated/CMSIS_DSP/FilteringFunctions/arm_fir_fast_q15.c ****       x0 = *__SIMD32(px);
 569              	 .loc 1 225 0
 570 04a6 07F11403 	 add r3,r7,#20
 571 04aa 1B68     	 ldr r3,[r3]
 572 04ac 1B68     	 ldr r3,[r3]
 573 04ae C7F87431 	 str r3,[r7,#372]
 226:../Dave/Generated/CMSIS_DSP/FilteringFunctions/arm_fir_fast_q15.c **** 
 227:../Dave/Generated/CMSIS_DSP/FilteringFunctions/arm_fir_fast_q15.c ****       /* Perform the multiply-accumulates */
 228:../Dave/Generated/CMSIS_DSP/FilteringFunctions/arm_fir_fast_q15.c ****       acc1 = __SMLADX(x1, c0, acc1);
 574              	 .loc 1 228 0
 575 04b2 D7F84C01 	 ldr r0,[r7,#332]
 576 04b6 D7F85C11 	 ldr r1,[r7,#348]
 577 04ba D7F88021 	 ldr r2,[r7,#384]
 578 04be 07F13803 	 add r3,r7,#56
 579 04c2 1860     	 str r0,[r3]
 580 04c4 07F13403 	 add r3,r7,#52
 581 04c8 1960     	 str r1,[r3]
 582 04ca 07F13003 	 add r3,r7,#48
 583 04ce 1A60     	 str r2,[r3]
 584              	.LBB62:
 585              	.LBB63:
 515:C:\Users\Depes Crystalline\Desktop\school\Active_Bike_Lighting_System\Radar_Core/Libraries/CMSIS/Include\core_cmSimd.h ****   return(result);
 586              	 .loc 2 515 0
 587 04d0 07F13803 	 add r3,r7,#56
 588 04d4 1B68     	 ldr r3,[r3]
 589 04d6 07F13402 	 add r2,r7,#52
 590 04da 1268     	 ldr r2,[r2]
 591 04dc 07F13001 	 add r1,r7,#48
 592 04e0 0968     	 ldr r1,[r1]
 593              	
 594 04e2 23FB1212 	 smladx r2,r3,r2,r1
 595              	
 596              	 .thumb
 597 04e6 07F12C03 	 add r3,r7,#44
 598 04ea 1A60     	 str r2,[r3]
 599              	 .loc 2 516 0
 600 04ec 07F12C03 	 add r3,r7,#44
 601 04f0 1B68     	 ldr r3,[r3]
 602              	.LBE63:
 603              	.LBE62:
 604              	 .loc 1 228 0
 605 04f2 C7F88031 	 str r3,[r7,#384]
 606              	.LBB64:
 229:../Dave/Generated/CMSIS_DSP/FilteringFunctions/arm_fir_fast_q15.c **** 
 230:../Dave/Generated/CMSIS_DSP/FilteringFunctions/arm_fir_fast_q15.c ****       /* pack state variables */
 231:../Dave/Generated/CMSIS_DSP/FilteringFunctions/arm_fir_fast_q15.c **** #ifndef ARM_MATH_BIG_ENDIAN
 232:../Dave/Generated/CMSIS_DSP/FilteringFunctions/arm_fir_fast_q15.c ****       x1 = __PKHBT(x0, x2, 0);
 607              	 .loc 1 232 0
 608 04f6 D7F87431 	 ldr r3,[r7,#372]
 609 04fa C7F82431 	 str r3,[r7,#292]
 610 04fe D7F87031 	 ldr r3,[r7,#368]
 611 0502 C7F82031 	 str r3,[r7,#288]
 612 0506 D7F82431 	 ldr r3,[r7,#292]
 613 050a D7F82021 	 ldr r2,[r7,#288]
 614              	
 615 050e C3EA0203 	 pkhbt r3,r3,r2,lsl#0
 616              	
 617              	 .thumb
 618 0512 C7F81C31 	 str r3,[r7,#284]
 619 0516 D7F81C31 	 ldr r3,[r7,#284]
 620              	.LBE64:
 621 051a C7F84C31 	 str r3,[r7,#332]
 233:../Dave/Generated/CMSIS_DSP/FilteringFunctions/arm_fir_fast_q15.c **** #else
 234:../Dave/Generated/CMSIS_DSP/FilteringFunctions/arm_fir_fast_q15.c ****       x1 = __PKHBT(x2, x0, 0);
 235:../Dave/Generated/CMSIS_DSP/FilteringFunctions/arm_fir_fast_q15.c **** #endif
 236:../Dave/Generated/CMSIS_DSP/FilteringFunctions/arm_fir_fast_q15.c **** 
 237:../Dave/Generated/CMSIS_DSP/FilteringFunctions/arm_fir_fast_q15.c ****       /* Perform the multiply-accumulates */
 238:../Dave/Generated/CMSIS_DSP/FilteringFunctions/arm_fir_fast_q15.c ****       acc3 = __SMLADX(x1, c0, acc3);
 622              	 .loc 1 238 0
 623 051e D7F84C01 	 ldr r0,[r7,#332]
 624 0522 D7F85C11 	 ldr r1,[r7,#348]
 625 0526 D7F87821 	 ldr r2,[r7,#376]
 626 052a 07F12803 	 add r3,r7,#40
 627 052e 1860     	 str r0,[r3]
 628 0530 07F12403 	 add r3,r7,#36
 629 0534 1960     	 str r1,[r3]
 630 0536 07F12003 	 add r3,r7,#32
 631 053a 1A60     	 str r2,[r3]
 632              	.LBB65:
 633              	.LBB66:
 515:C:\Users\Depes Crystalline\Desktop\school\Active_Bike_Lighting_System\Radar_Core/Libraries/CMSIS/Include\core_cmSimd.h ****   return(result);
 634              	 .loc 2 515 0
 635 053c 07F12803 	 add r3,r7,#40
 636 0540 1B68     	 ldr r3,[r3]
 637 0542 07F12402 	 add r2,r7,#36
 638 0546 1268     	 ldr r2,[r2]
 639 0548 07F12001 	 add r1,r7,#32
 640 054c 0968     	 ldr r1,[r1]
 641              	
 642 054e 23FB1212 	 smladx r2,r3,r2,r1
 643              	
 644              	 .thumb
 645 0552 07F11C03 	 add r3,r7,#28
 646 0556 1A60     	 str r2,[r3]
 647              	 .loc 2 516 0
 648 0558 07F11C03 	 add r3,r7,#28
 649 055c 1B68     	 ldr r3,[r3]
 650              	.LBE66:
 651              	.LBE65:
 652              	 .loc 1 238 0
 653 055e C7F87831 	 str r3,[r7,#376]
 654              	.L13:
 239:../Dave/Generated/CMSIS_DSP/FilteringFunctions/arm_fir_fast_q15.c ****     }
 240:../Dave/Generated/CMSIS_DSP/FilteringFunctions/arm_fir_fast_q15.c **** 
 241:../Dave/Generated/CMSIS_DSP/FilteringFunctions/arm_fir_fast_q15.c ****     /* The results in the 4 accumulators are in 2.30 format.  Convert to 1.15 with saturation.     
 242:../Dave/Generated/CMSIS_DSP/FilteringFunctions/arm_fir_fast_q15.c ****      ** Then store the 4 outputs in the destination buffer. */
 243:../Dave/Generated/CMSIS_DSP/FilteringFunctions/arm_fir_fast_q15.c **** 
 244:../Dave/Generated/CMSIS_DSP/FilteringFunctions/arm_fir_fast_q15.c **** #ifndef ARM_MATH_BIG_ENDIAN
 245:../Dave/Generated/CMSIS_DSP/FilteringFunctions/arm_fir_fast_q15.c **** 
 246:../Dave/Generated/CMSIS_DSP/FilteringFunctions/arm_fir_fast_q15.c ****     *__SIMD32(pDst)++ =
 655              	 .loc 1 246 0
 656 0562 3A1D     	 adds r2,r7,#4
 657 0564 1368     	 ldr r3,[r2]
 658 0566 191D     	 adds r1,r3,#4
 659 0568 1160     	 str r1,[r2]
 660              	.LBB67:
 661              	.LBB68:
 247:../Dave/Generated/CMSIS_DSP/FilteringFunctions/arm_fir_fast_q15.c ****       __PKHBT(__SSAT((acc0 >> 15), 16), __SSAT((acc1 >> 15), 16), 16);
 662              	 .loc 1 247 0
 663 056a D7F88421 	 ldr r2,[r7,#388]
 664 056e D213     	 asrs r2,r2,#15
 665 0570 C7F81821 	 str r2,[r7,#280]
 666 0574 D7F81821 	 ldr r2,[r7,#280]
 667              	
 668 0578 02F30F02 	 ssat r2,#16,r2
 669              	
 670              	 .thumb
 671 057c C7F81421 	 str r2,[r7,#276]
 672 0580 D7F81421 	 ldr r2,[r7,#276]
 673              	.LBE68:
 674 0584 C7F81021 	 str r2,[r7,#272]
 675              	.LBB69:
 676 0588 D7F88021 	 ldr r2,[r7,#384]
 677 058c D213     	 asrs r2,r2,#15
 678 058e C7F80C21 	 str r2,[r7,#268]
 679 0592 D7F80C21 	 ldr r2,[r7,#268]
 680              	
 681 0596 02F30F02 	 ssat r2,#16,r2
 682              	
 683              	 .thumb
 684 059a C7F80821 	 str r2,[r7,#264]
 685 059e D7F80821 	 ldr r2,[r7,#264]
 686              	.LBE69:
 687 05a2 C7F80421 	 str r2,[r7,#260]
 688 05a6 D7F81021 	 ldr r2,[r7,#272]
 689 05aa D7F80411 	 ldr r1,[r7,#260]
 690              	
 691 05ae C2EA0142 	 pkhbt r2,r2,r1,lsl#16
 692              	
 693              	 .thumb
 694 05b2 C7F80021 	 str r2,[r7,#256]
 695 05b6 D7F80021 	 ldr r2,[r7,#256]
 696              	.LBE67:
 246:../Dave/Generated/CMSIS_DSP/FilteringFunctions/arm_fir_fast_q15.c ****       __PKHBT(__SSAT((acc0 >> 15), 16), __SSAT((acc1 >> 15), 16), 16);
 697              	 .loc 1 246 0
 698 05ba 1A60     	 str r2,[r3]
 248:../Dave/Generated/CMSIS_DSP/FilteringFunctions/arm_fir_fast_q15.c **** 
 249:../Dave/Generated/CMSIS_DSP/FilteringFunctions/arm_fir_fast_q15.c ****     *__SIMD32(pDst)++ =
 699              	 .loc 1 249 0
 700 05bc 3A1D     	 adds r2,r7,#4
 701 05be 1368     	 ldr r3,[r2]
 702 05c0 191D     	 adds r1,r3,#4
 703 05c2 1160     	 str r1,[r2]
 704              	.LBB70:
 705              	.LBB71:
 250:../Dave/Generated/CMSIS_DSP/FilteringFunctions/arm_fir_fast_q15.c ****       __PKHBT(__SSAT((acc2 >> 15), 16), __SSAT((acc3 >> 15), 16), 16);
 706              	 .loc 1 250 0
 707 05c4 D7F87C21 	 ldr r2,[r7,#380]
 708 05c8 D213     	 asrs r2,r2,#15
 709 05ca C7F8FC20 	 str r2,[r7,#252]
 710 05ce D7F8FC20 	 ldr r2,[r7,#252]
 711              	
 712 05d2 02F30F02 	 ssat r2,#16,r2
 713              	
 714              	 .thumb
 715 05d6 C7F8F820 	 str r2,[r7,#248]
 716 05da D7F8F820 	 ldr r2,[r7,#248]
 717              	.LBE71:
 718 05de C7F8F420 	 str r2,[r7,#244]
 719              	.LBB72:
 720 05e2 D7F87821 	 ldr r2,[r7,#376]
 721 05e6 D213     	 asrs r2,r2,#15
 722 05e8 C7F8F020 	 str r2,[r7,#240]
 723 05ec D7F8F020 	 ldr r2,[r7,#240]
 724              	
 725 05f0 02F30F02 	 ssat r2,#16,r2
 726              	
 727              	 .thumb
 728 05f4 C7F8EC20 	 str r2,[r7,#236]
 729 05f8 D7F8EC20 	 ldr r2,[r7,#236]
 730              	.LBE72:
 731 05fc C7F8E820 	 str r2,[r7,#232]
 732 0600 D7F8F420 	 ldr r2,[r7,#244]
 733 0604 D7F8E810 	 ldr r1,[r7,#232]
 734              	
 735 0608 C2EA0142 	 pkhbt r2,r2,r1,lsl#16
 736              	
 737              	 .thumb
 738 060c C7F8E420 	 str r2,[r7,#228]
 739 0610 D7F8E420 	 ldr r2,[r7,#228]
 740              	.LBE70:
 249:../Dave/Generated/CMSIS_DSP/FilteringFunctions/arm_fir_fast_q15.c ****       __PKHBT(__SSAT((acc2 >> 15), 16), __SSAT((acc3 >> 15), 16), 16);
 741              	 .loc 1 249 0
 742 0614 1A60     	 str r2,[r3]
 251:../Dave/Generated/CMSIS_DSP/FilteringFunctions/arm_fir_fast_q15.c **** 
 252:../Dave/Generated/CMSIS_DSP/FilteringFunctions/arm_fir_fast_q15.c **** #else
 253:../Dave/Generated/CMSIS_DSP/FilteringFunctions/arm_fir_fast_q15.c **** 
 254:../Dave/Generated/CMSIS_DSP/FilteringFunctions/arm_fir_fast_q15.c ****     *__SIMD32(pDst)++ =
 255:../Dave/Generated/CMSIS_DSP/FilteringFunctions/arm_fir_fast_q15.c ****       __PKHBT(__SSAT((acc1 >> 15), 16), __SSAT((acc0 >> 15), 16), 16);
 256:../Dave/Generated/CMSIS_DSP/FilteringFunctions/arm_fir_fast_q15.c **** 
 257:../Dave/Generated/CMSIS_DSP/FilteringFunctions/arm_fir_fast_q15.c ****     *__SIMD32(pDst)++ =
 258:../Dave/Generated/CMSIS_DSP/FilteringFunctions/arm_fir_fast_q15.c ****       __PKHBT(__SSAT((acc3 >> 15), 16), __SSAT((acc2 >> 15), 16), 16);
 259:../Dave/Generated/CMSIS_DSP/FilteringFunctions/arm_fir_fast_q15.c **** 
 260:../Dave/Generated/CMSIS_DSP/FilteringFunctions/arm_fir_fast_q15.c **** 
 261:../Dave/Generated/CMSIS_DSP/FilteringFunctions/arm_fir_fast_q15.c **** #endif /*      #ifndef ARM_MATH_BIG_ENDIAN       */
 262:../Dave/Generated/CMSIS_DSP/FilteringFunctions/arm_fir_fast_q15.c **** 
 263:../Dave/Generated/CMSIS_DSP/FilteringFunctions/arm_fir_fast_q15.c ****     /* Advance the state pointer by 4 to process the next group of 4 samples */
 264:../Dave/Generated/CMSIS_DSP/FilteringFunctions/arm_fir_fast_q15.c ****     pState = pState + 4u;
 743              	 .loc 1 264 0
 744 0616 D7F88C31 	 ldr r3,[r7,#396]
 745 061a 0833     	 adds r3,r3,#8
 746 061c C7F88C31 	 str r3,[r7,#396]
 265:../Dave/Generated/CMSIS_DSP/FilteringFunctions/arm_fir_fast_q15.c **** 
 266:../Dave/Generated/CMSIS_DSP/FilteringFunctions/arm_fir_fast_q15.c ****     /* Decrement the loop counter */
 267:../Dave/Generated/CMSIS_DSP/FilteringFunctions/arm_fir_fast_q15.c ****     blkCnt--;
 747              	 .loc 1 267 0
 748 0620 D7F86831 	 ldr r3,[r7,#360]
 749 0624 013B     	 subs r3,r3,#1
 750 0626 C7F86831 	 str r3,[r7,#360]
 751              	.L2:
 106:../Dave/Generated/CMSIS_DSP/FilteringFunctions/arm_fir_fast_q15.c ****   {
 752              	 .loc 1 106 0
 753 062a D7F86831 	 ldr r3,[r7,#360]
 754 062e 002B     	 cmp r3,#0
 755 0630 7FF418AD 	 bne .L18
 268:../Dave/Generated/CMSIS_DSP/FilteringFunctions/arm_fir_fast_q15.c ****   }
 269:../Dave/Generated/CMSIS_DSP/FilteringFunctions/arm_fir_fast_q15.c **** 
 270:../Dave/Generated/CMSIS_DSP/FilteringFunctions/arm_fir_fast_q15.c ****   /* If the blockSize is not a multiple of 4, compute any remaining output samples here.      
 271:../Dave/Generated/CMSIS_DSP/FilteringFunctions/arm_fir_fast_q15.c ****    ** No loop unrolling is used. */
 272:../Dave/Generated/CMSIS_DSP/FilteringFunctions/arm_fir_fast_q15.c ****   blkCnt = blockSize % 0x4u;
 756              	 .loc 1 272 0
 757 0634 3B46     	 mov r3,r7
 758 0636 1B68     	 ldr r3,[r3]
 759 0638 03F00303 	 and r3,r3,#3
 760 063c C7F86831 	 str r3,[r7,#360]
 273:../Dave/Generated/CMSIS_DSP/FilteringFunctions/arm_fir_fast_q15.c ****   while(blkCnt > 0u)
 761              	 .loc 1 273 0
 762 0640 78E0     	 b .L19
 763              	.L21:
 274:../Dave/Generated/CMSIS_DSP/FilteringFunctions/arm_fir_fast_q15.c ****   {
 275:../Dave/Generated/CMSIS_DSP/FilteringFunctions/arm_fir_fast_q15.c ****     /* Copy two samples into state buffer */
 276:../Dave/Generated/CMSIS_DSP/FilteringFunctions/arm_fir_fast_q15.c ****     *pStateCurnt++ = *pSrc++;
 764              	 .loc 1 276 0
 765 0642 D7F88831 	 ldr r3,[r7,#392]
 766 0646 9A1C     	 adds r2,r3,#2
 767 0648 C7F88821 	 str r2,[r7,#392]
 768 064c 07F10802 	 add r2,r7,#8
 769 0650 1268     	 ldr r2,[r2]
 770 0652 07F10801 	 add r1,r7,#8
 771 0656 901C     	 adds r0,r2,#2
 772 0658 0860     	 str r0,[r1]
 773 065a 1288     	 ldrh r2,[r2]
 774 065c 1A80     	 strh r2,[r3]
 277:../Dave/Generated/CMSIS_DSP/FilteringFunctions/arm_fir_fast_q15.c **** 
 278:../Dave/Generated/CMSIS_DSP/FilteringFunctions/arm_fir_fast_q15.c ****     /* Set the accumulator to zero */
 279:../Dave/Generated/CMSIS_DSP/FilteringFunctions/arm_fir_fast_q15.c ****     acc0 = 0;
 775              	 .loc 1 279 0
 776 065e 0023     	 movs r3,#0
 777 0660 C7F88431 	 str r3,[r7,#388]
 280:../Dave/Generated/CMSIS_DSP/FilteringFunctions/arm_fir_fast_q15.c **** 
 281:../Dave/Generated/CMSIS_DSP/FilteringFunctions/arm_fir_fast_q15.c ****     /* Use SIMD to hold states and coefficients */
 282:../Dave/Generated/CMSIS_DSP/FilteringFunctions/arm_fir_fast_q15.c ****     px = pState;
 778              	 .loc 1 282 0
 779 0664 07F11403 	 add r3,r7,#20
 780 0668 D7F88C21 	 ldr r2,[r7,#396]
 781 066c 1A60     	 str r2,[r3]
 283:../Dave/Generated/CMSIS_DSP/FilteringFunctions/arm_fir_fast_q15.c ****     pb = pCoeffs;
 782              	 .loc 1 283 0
 783 066e 07F11803 	 add r3,r7,#24
 784 0672 D7F86421 	 ldr r2,[r7,#356]
 785 0676 1A60     	 str r2,[r3]
 284:../Dave/Generated/CMSIS_DSP/FilteringFunctions/arm_fir_fast_q15.c **** 
 285:../Dave/Generated/CMSIS_DSP/FilteringFunctions/arm_fir_fast_q15.c ****     tapCnt = numTaps >> 1u;
 786              	 .loc 1 285 0
 787 0678 D7F86031 	 ldr r3,[r7,#352]
 788 067c 5B08     	 lsrs r3,r3,#1
 789 067e C7F86C31 	 str r3,[r7,#364]
 790              	.L20:
 286:../Dave/Generated/CMSIS_DSP/FilteringFunctions/arm_fir_fast_q15.c **** 
 287:../Dave/Generated/CMSIS_DSP/FilteringFunctions/arm_fir_fast_q15.c ****     do
 288:../Dave/Generated/CMSIS_DSP/FilteringFunctions/arm_fir_fast_q15.c ****     {
 289:../Dave/Generated/CMSIS_DSP/FilteringFunctions/arm_fir_fast_q15.c **** 
 290:../Dave/Generated/CMSIS_DSP/FilteringFunctions/arm_fir_fast_q15.c ****       acc0 += (q31_t) * px++ * *pb++;
 791              	 .loc 1 290 0 discriminator 1
 792 0682 07F11403 	 add r3,r7,#20
 793 0686 1B68     	 ldr r3,[r3]
 794 0688 991C     	 adds r1,r3,#2
 795 068a 07F11402 	 add r2,r7,#20
 796 068e 1160     	 str r1,[r2]
 797 0690 1B88     	 ldrh r3,[r3]
 798 0692 1AB2     	 sxth r2,r3
 799 0694 07F11803 	 add r3,r7,#24
 800 0698 1B68     	 ldr r3,[r3]
 801 069a 981C     	 adds r0,r3,#2
 802 069c 07F11801 	 add r1,r7,#24
 803 06a0 0860     	 str r0,[r1]
 804 06a2 1B88     	 ldrh r3,[r3]
 805 06a4 1BB2     	 sxth r3,r3
 806 06a6 03FB02F3 	 mul r3,r3,r2
 807 06aa D7F88421 	 ldr r2,[r7,#388]
 808 06ae 1344     	 add r3,r3,r2
 809 06b0 C7F88431 	 str r3,[r7,#388]
 291:../Dave/Generated/CMSIS_DSP/FilteringFunctions/arm_fir_fast_q15.c **** 	  acc0 += (q31_t) * px++ * *pb++;
 810              	 .loc 1 291 0 discriminator 1
 811 06b4 07F11403 	 add r3,r7,#20
 812 06b8 1B68     	 ldr r3,[r3]
 813 06ba 991C     	 adds r1,r3,#2
 814 06bc 07F11402 	 add r2,r7,#20
 815 06c0 1160     	 str r1,[r2]
 816 06c2 1B88     	 ldrh r3,[r3]
 817 06c4 1AB2     	 sxth r2,r3
 818 06c6 07F11803 	 add r3,r7,#24
 819 06ca 1B68     	 ldr r3,[r3]
 820 06cc 981C     	 adds r0,r3,#2
 821 06ce 07F11801 	 add r1,r7,#24
 822 06d2 0860     	 str r0,[r1]
 823 06d4 1B88     	 ldrh r3,[r3]
 824 06d6 1BB2     	 sxth r3,r3
 825 06d8 03FB02F3 	 mul r3,r3,r2
 826 06dc D7F88421 	 ldr r2,[r7,#388]
 827 06e0 1344     	 add r3,r3,r2
 828 06e2 C7F88431 	 str r3,[r7,#388]
 292:../Dave/Generated/CMSIS_DSP/FilteringFunctions/arm_fir_fast_q15.c **** 
 293:../Dave/Generated/CMSIS_DSP/FilteringFunctions/arm_fir_fast_q15.c ****       tapCnt--;
 829              	 .loc 1 293 0 discriminator 1
 830 06e6 D7F86C31 	 ldr r3,[r7,#364]
 831 06ea 013B     	 subs r3,r3,#1
 832 06ec C7F86C31 	 str r3,[r7,#364]
 294:../Dave/Generated/CMSIS_DSP/FilteringFunctions/arm_fir_fast_q15.c ****     }
 295:../Dave/Generated/CMSIS_DSP/FilteringFunctions/arm_fir_fast_q15.c ****     while(tapCnt > 0u);
 833              	 .loc 1 295 0 discriminator 1
 834 06f0 D7F86C31 	 ldr r3,[r7,#364]
 835 06f4 002B     	 cmp r3,#0
 836 06f6 C4D1     	 bne .L20
 296:../Dave/Generated/CMSIS_DSP/FilteringFunctions/arm_fir_fast_q15.c **** 
 297:../Dave/Generated/CMSIS_DSP/FilteringFunctions/arm_fir_fast_q15.c ****     /* The result is in 2.30 format.  Convert to 1.15 with saturation.      
 298:../Dave/Generated/CMSIS_DSP/FilteringFunctions/arm_fir_fast_q15.c ****      ** Then store the output in the destination buffer. */
 299:../Dave/Generated/CMSIS_DSP/FilteringFunctions/arm_fir_fast_q15.c ****     *pDst++ = (q15_t) (__SSAT((acc0 >> 15), 16));
 837              	 .loc 1 299 0
 838 06f8 3B1D     	 adds r3,r7,#4
 839 06fa 1B68     	 ldr r3,[r3]
 840 06fc 991C     	 adds r1,r3,#2
 841 06fe 3A1D     	 adds r2,r7,#4
 842 0700 1160     	 str r1,[r2]
 843              	.LBB73:
 844 0702 D7F88421 	 ldr r2,[r7,#388]
 845 0706 D213     	 asrs r2,r2,#15
 846 0708 C7F8E020 	 str r2,[r7,#224]
 847 070c D7F8E020 	 ldr r2,[r7,#224]
 848              	
 849 0710 02F30F02 	 ssat r2,#16,r2
 850              	
 851              	 .thumb
 852 0714 C7F8DC20 	 str r2,[r7,#220]
 853 0718 D7F8DC20 	 ldr r2,[r7,#220]
 854              	.LBE73:
 855 071c 92B2     	 uxth r2,r2
 856 071e 1A80     	 strh r2,[r3]
 300:../Dave/Generated/CMSIS_DSP/FilteringFunctions/arm_fir_fast_q15.c **** 
 301:../Dave/Generated/CMSIS_DSP/FilteringFunctions/arm_fir_fast_q15.c ****     /* Advance state pointer by 1 for the next sample */
 302:../Dave/Generated/CMSIS_DSP/FilteringFunctions/arm_fir_fast_q15.c ****     pState = pState + 1u;
 857              	 .loc 1 302 0
 858 0720 D7F88C31 	 ldr r3,[r7,#396]
 859 0724 0233     	 adds r3,r3,#2
 860 0726 C7F88C31 	 str r3,[r7,#396]
 303:../Dave/Generated/CMSIS_DSP/FilteringFunctions/arm_fir_fast_q15.c **** 
 304:../Dave/Generated/CMSIS_DSP/FilteringFunctions/arm_fir_fast_q15.c ****     /* Decrement the loop counter */
 305:../Dave/Generated/CMSIS_DSP/FilteringFunctions/arm_fir_fast_q15.c ****     blkCnt--;
 861              	 .loc 1 305 0
 862 072a D7F86831 	 ldr r3,[r7,#360]
 863 072e 013B     	 subs r3,r3,#1
 864 0730 C7F86831 	 str r3,[r7,#360]
 865              	.L19:
 273:../Dave/Generated/CMSIS_DSP/FilteringFunctions/arm_fir_fast_q15.c ****   {
 866              	 .loc 1 273 0
 867 0734 D7F86831 	 ldr r3,[r7,#360]
 868 0738 002B     	 cmp r3,#0
 869 073a 82D1     	 bne .L21
 306:../Dave/Generated/CMSIS_DSP/FilteringFunctions/arm_fir_fast_q15.c ****   }
 307:../Dave/Generated/CMSIS_DSP/FilteringFunctions/arm_fir_fast_q15.c **** 
 308:../Dave/Generated/CMSIS_DSP/FilteringFunctions/arm_fir_fast_q15.c ****   /* Processing is complete.      
 309:../Dave/Generated/CMSIS_DSP/FilteringFunctions/arm_fir_fast_q15.c ****    ** Now copy the last numTaps - 1 samples to the satrt of the state buffer.      
 310:../Dave/Generated/CMSIS_DSP/FilteringFunctions/arm_fir_fast_q15.c ****    ** This prepares the state buffer for the next function call. */
 311:../Dave/Generated/CMSIS_DSP/FilteringFunctions/arm_fir_fast_q15.c **** 
 312:../Dave/Generated/CMSIS_DSP/FilteringFunctions/arm_fir_fast_q15.c ****   /* Points to the start of the state buffer */
 313:../Dave/Generated/CMSIS_DSP/FilteringFunctions/arm_fir_fast_q15.c ****   pStateCurnt = S->pState;
 870              	 .loc 1 313 0
 871 073c 07F10C03 	 add r3,r7,#12
 872 0740 1B68     	 ldr r3,[r3]
 873 0742 5B68     	 ldr r3,[r3,#4]
 874 0744 C7F88831 	 str r3,[r7,#392]
 314:../Dave/Generated/CMSIS_DSP/FilteringFunctions/arm_fir_fast_q15.c **** 
 315:../Dave/Generated/CMSIS_DSP/FilteringFunctions/arm_fir_fast_q15.c ****   /* Calculation of count for copying integer writes */
 316:../Dave/Generated/CMSIS_DSP/FilteringFunctions/arm_fir_fast_q15.c ****   tapCnt = (numTaps - 1u) >> 2;
 875              	 .loc 1 316 0
 876 0748 D7F86031 	 ldr r3,[r7,#352]
 877 074c 013B     	 subs r3,r3,#1
 878 074e 9B08     	 lsrs r3,r3,#2
 879 0750 C7F86C31 	 str r3,[r7,#364]
 317:../Dave/Generated/CMSIS_DSP/FilteringFunctions/arm_fir_fast_q15.c **** 
 318:../Dave/Generated/CMSIS_DSP/FilteringFunctions/arm_fir_fast_q15.c ****   while(tapCnt > 0u)
 880              	 .loc 1 318 0
 881 0754 34E0     	 b .L22
 882              	.L23:
 319:../Dave/Generated/CMSIS_DSP/FilteringFunctions/arm_fir_fast_q15.c ****   {
 320:../Dave/Generated/CMSIS_DSP/FilteringFunctions/arm_fir_fast_q15.c ****     *pStateCurnt++ = *pState++;
 883              	 .loc 1 320 0
 884 0756 D7F88831 	 ldr r3,[r7,#392]
 885 075a 9A1C     	 adds r2,r3,#2
 886 075c C7F88821 	 str r2,[r7,#392]
 887 0760 D7F88C21 	 ldr r2,[r7,#396]
 888 0764 911C     	 adds r1,r2,#2
 889 0766 C7F88C11 	 str r1,[r7,#396]
 890 076a 1288     	 ldrh r2,[r2]
 891 076c 1A80     	 strh r2,[r3]
 321:../Dave/Generated/CMSIS_DSP/FilteringFunctions/arm_fir_fast_q15.c ****     *pStateCurnt++ = *pState++;
 892              	 .loc 1 321 0
 893 076e D7F88831 	 ldr r3,[r7,#392]
 894 0772 9A1C     	 adds r2,r3,#2
 895 0774 C7F88821 	 str r2,[r7,#392]
 896 0778 D7F88C21 	 ldr r2,[r7,#396]
 897 077c 911C     	 adds r1,r2,#2
 898 077e C7F88C11 	 str r1,[r7,#396]
 899 0782 1288     	 ldrh r2,[r2]
 900 0784 1A80     	 strh r2,[r3]
 322:../Dave/Generated/CMSIS_DSP/FilteringFunctions/arm_fir_fast_q15.c ****     *pStateCurnt++ = *pState++;
 901              	 .loc 1 322 0
 902 0786 D7F88831 	 ldr r3,[r7,#392]
 903 078a 9A1C     	 adds r2,r3,#2
 904 078c C7F88821 	 str r2,[r7,#392]
 905 0790 D7F88C21 	 ldr r2,[r7,#396]
 906 0794 911C     	 adds r1,r2,#2
 907 0796 C7F88C11 	 str r1,[r7,#396]
 908 079a 1288     	 ldrh r2,[r2]
 909 079c 1A80     	 strh r2,[r3]
 323:../Dave/Generated/CMSIS_DSP/FilteringFunctions/arm_fir_fast_q15.c ****     *pStateCurnt++ = *pState++;
 910              	 .loc 1 323 0
 911 079e D7F88831 	 ldr r3,[r7,#392]
 912 07a2 9A1C     	 adds r2,r3,#2
 913 07a4 C7F88821 	 str r2,[r7,#392]
 914 07a8 D7F88C21 	 ldr r2,[r7,#396]
 915 07ac 911C     	 adds r1,r2,#2
 916 07ae C7F88C11 	 str r1,[r7,#396]
 917 07b2 1288     	 ldrh r2,[r2]
 918 07b4 1A80     	 strh r2,[r3]
 324:../Dave/Generated/CMSIS_DSP/FilteringFunctions/arm_fir_fast_q15.c **** 
 325:../Dave/Generated/CMSIS_DSP/FilteringFunctions/arm_fir_fast_q15.c ****     tapCnt--;
 919              	 .loc 1 325 0
 920 07b6 D7F86C31 	 ldr r3,[r7,#364]
 921 07ba 013B     	 subs r3,r3,#1
 922 07bc C7F86C31 	 str r3,[r7,#364]
 923              	.L22:
 318:../Dave/Generated/CMSIS_DSP/FilteringFunctions/arm_fir_fast_q15.c ****   {
 924              	 .loc 1 318 0
 925 07c0 D7F86C31 	 ldr r3,[r7,#364]
 926 07c4 002B     	 cmp r3,#0
 927 07c6 C6D1     	 bne .L23
 326:../Dave/Generated/CMSIS_DSP/FilteringFunctions/arm_fir_fast_q15.c **** 
 327:../Dave/Generated/CMSIS_DSP/FilteringFunctions/arm_fir_fast_q15.c ****   }
 328:../Dave/Generated/CMSIS_DSP/FilteringFunctions/arm_fir_fast_q15.c **** 
 329:../Dave/Generated/CMSIS_DSP/FilteringFunctions/arm_fir_fast_q15.c ****   /* Calculation of count for remaining q15_t data */
 330:../Dave/Generated/CMSIS_DSP/FilteringFunctions/arm_fir_fast_q15.c ****   tapCnt = (numTaps - 1u) % 0x4u;
 928              	 .loc 1 330 0
 929 07c8 D7F86031 	 ldr r3,[r7,#352]
 930 07cc 013B     	 subs r3,r3,#1
 931 07ce 03F00303 	 and r3,r3,#3
 932 07d2 C7F86C31 	 str r3,[r7,#364]
 331:../Dave/Generated/CMSIS_DSP/FilteringFunctions/arm_fir_fast_q15.c **** 
 332:../Dave/Generated/CMSIS_DSP/FilteringFunctions/arm_fir_fast_q15.c ****   /* copy remaining data */
 333:../Dave/Generated/CMSIS_DSP/FilteringFunctions/arm_fir_fast_q15.c ****   while(tapCnt > 0u)
 933              	 .loc 1 333 0
 934 07d6 10E0     	 b .L24
 935              	.L25:
 334:../Dave/Generated/CMSIS_DSP/FilteringFunctions/arm_fir_fast_q15.c ****   {
 335:../Dave/Generated/CMSIS_DSP/FilteringFunctions/arm_fir_fast_q15.c ****     *pStateCurnt++ = *pState++;
 936              	 .loc 1 335 0
 937 07d8 D7F88831 	 ldr r3,[r7,#392]
 938 07dc 9A1C     	 adds r2,r3,#2
 939 07de C7F88821 	 str r2,[r7,#392]
 940 07e2 D7F88C21 	 ldr r2,[r7,#396]
 941 07e6 911C     	 adds r1,r2,#2
 942 07e8 C7F88C11 	 str r1,[r7,#396]
 943 07ec 1288     	 ldrh r2,[r2]
 944 07ee 1A80     	 strh r2,[r3]
 336:../Dave/Generated/CMSIS_DSP/FilteringFunctions/arm_fir_fast_q15.c **** 
 337:../Dave/Generated/CMSIS_DSP/FilteringFunctions/arm_fir_fast_q15.c ****     /* Decrement the loop counter */
 338:../Dave/Generated/CMSIS_DSP/FilteringFunctions/arm_fir_fast_q15.c ****     tapCnt--;
 945              	 .loc 1 338 0
 946 07f0 D7F86C31 	 ldr r3,[r7,#364]
 947 07f4 013B     	 subs r3,r3,#1
 948 07f6 C7F86C31 	 str r3,[r7,#364]
 949              	.L24:
 333:../Dave/Generated/CMSIS_DSP/FilteringFunctions/arm_fir_fast_q15.c ****   {
 950              	 .loc 1 333 0
 951 07fa D7F86C31 	 ldr r3,[r7,#364]
 952 07fe 002B     	 cmp r3,#0
 953 0800 EAD1     	 bne .L25
 339:../Dave/Generated/CMSIS_DSP/FilteringFunctions/arm_fir_fast_q15.c ****   }
 340:../Dave/Generated/CMSIS_DSP/FilteringFunctions/arm_fir_fast_q15.c **** 
 341:../Dave/Generated/CMSIS_DSP/FilteringFunctions/arm_fir_fast_q15.c **** }
 954              	 .loc 1 341 0
 955 0802 07F5C877 	 add r7,r7,#400
 956              	.LCFI3:
 957              	 .cfi_def_cfa_offset 8
 958 0806 BD46     	 mov sp,r7
 959              	.LCFI4:
 960              	 .cfi_def_cfa_register 13
 961              	 
 962 0808 90BC     	 pop {r4,r7}
 963              	.LCFI5:
 964              	 .cfi_restore 7
 965              	 .cfi_restore 4
 966              	 .cfi_def_cfa_offset 0
 967 080a 7047     	 bx lr
 968              	 .cfi_endproc
 969              	.LFE139:
 971              	 .text
 972              	.Letext0:
 973              	 .file 3 "c:\\davev4-64bit\\dave-4.2.6\\eclipse\\arm-gcc-49\\arm-none-eabi\\include\\machine\\_default_types.h"
 974              	 .file 4 "c:\\davev4-64bit\\dave-4.2.6\\eclipse\\arm-gcc-49\\arm-none-eabi\\include\\stdint.h"
 975              	 .file 5 "C:\\Users\\Depes Crystalline\\Desktop\\school\\Active_Bike_Lighting_System\\Radar_Core\\Dave\\Generated/CMSIS_DSP/arm_math.h"