   1              	 .syntax unified
   2              	 .cpu cortex-m4
   3              	 .fpu softvfp
   4              	 .eabi_attribute 20,1
   5              	 .eabi_attribute 21,1
   6              	 .eabi_attribute 23,3
   7              	 .eabi_attribute 24,1
   8              	 .eabi_attribute 25,1
   9              	 .eabi_attribute 26,1
  10              	 .eabi_attribute 30,6
  11              	 .eabi_attribute 34,1
  12              	 .eabi_attribute 18,4
  13              	 .thumb
  14              	 .file "arm_correlate_q7.c"
  15              	 .text
  16              	.Ltext0:
  17              	 .cfi_sections .debug_frame
  18              	 .section .text.arm_correlate_q7,"ax",%progbits
  19              	 .align 2
  20              	 .global arm_correlate_q7
  21              	 .thumb
  22              	 .thumb_func
  24              	arm_correlate_q7:
  25              	.LFB139:
  26              	 .file 1 "../Dave/Generated/CMSIS_DSP/FilteringFunctions/arm_correlate_q7.c"
   1:../Dave/Generated/CMSIS_DSP/FilteringFunctions/arm_correlate_q7.c **** /* ----------------------------------------------------------------------   
   2:../Dave/Generated/CMSIS_DSP/FilteringFunctions/arm_correlate_q7.c **** * Copyright (C) 2010-2014 ARM Limited. All rights reserved.   
   3:../Dave/Generated/CMSIS_DSP/FilteringFunctions/arm_correlate_q7.c **** *   
   4:../Dave/Generated/CMSIS_DSP/FilteringFunctions/arm_correlate_q7.c **** * $Date:        12. March 2014
   5:../Dave/Generated/CMSIS_DSP/FilteringFunctions/arm_correlate_q7.c **** * $Revision: 	V1.4.4
   6:../Dave/Generated/CMSIS_DSP/FilteringFunctions/arm_correlate_q7.c **** *   
   7:../Dave/Generated/CMSIS_DSP/FilteringFunctions/arm_correlate_q7.c **** * Project: 	    CMSIS DSP Library   
   8:../Dave/Generated/CMSIS_DSP/FilteringFunctions/arm_correlate_q7.c **** * Title:		arm_correlate_q7.c   
   9:../Dave/Generated/CMSIS_DSP/FilteringFunctions/arm_correlate_q7.c **** *   
  10:../Dave/Generated/CMSIS_DSP/FilteringFunctions/arm_correlate_q7.c **** * Description:	Correlation of Q7 sequences. 
  11:../Dave/Generated/CMSIS_DSP/FilteringFunctions/arm_correlate_q7.c **** *   
  12:../Dave/Generated/CMSIS_DSP/FilteringFunctions/arm_correlate_q7.c **** * Target Processor: Cortex-M4/Cortex-M3/Cortex-M0
  13:../Dave/Generated/CMSIS_DSP/FilteringFunctions/arm_correlate_q7.c **** *  
  14:../Dave/Generated/CMSIS_DSP/FilteringFunctions/arm_correlate_q7.c **** * Redistribution and use in source and binary forms, with or without 
  15:../Dave/Generated/CMSIS_DSP/FilteringFunctions/arm_correlate_q7.c **** * modification, are permitted provided that the following conditions
  16:../Dave/Generated/CMSIS_DSP/FilteringFunctions/arm_correlate_q7.c **** * are met:
  17:../Dave/Generated/CMSIS_DSP/FilteringFunctions/arm_correlate_q7.c **** *   - Redistributions of source code must retain the above copyright
  18:../Dave/Generated/CMSIS_DSP/FilteringFunctions/arm_correlate_q7.c **** *     notice, this list of conditions and the following disclaimer.
  19:../Dave/Generated/CMSIS_DSP/FilteringFunctions/arm_correlate_q7.c **** *   - Redistributions in binary form must reproduce the above copyright
  20:../Dave/Generated/CMSIS_DSP/FilteringFunctions/arm_correlate_q7.c **** *     notice, this list of conditions and the following disclaimer in
  21:../Dave/Generated/CMSIS_DSP/FilteringFunctions/arm_correlate_q7.c **** *     the documentation and/or other materials provided with the 
  22:../Dave/Generated/CMSIS_DSP/FilteringFunctions/arm_correlate_q7.c **** *     distribution.
  23:../Dave/Generated/CMSIS_DSP/FilteringFunctions/arm_correlate_q7.c **** *   - Neither the name of ARM LIMITED nor the names of its contributors
  24:../Dave/Generated/CMSIS_DSP/FilteringFunctions/arm_correlate_q7.c **** *     may be used to endorse or promote products derived from this
  25:../Dave/Generated/CMSIS_DSP/FilteringFunctions/arm_correlate_q7.c **** *     software without specific prior written permission.
  26:../Dave/Generated/CMSIS_DSP/FilteringFunctions/arm_correlate_q7.c **** *
  27:../Dave/Generated/CMSIS_DSP/FilteringFunctions/arm_correlate_q7.c **** * THIS SOFTWARE IS PROVIDED BY THE COPYRIGHT HOLDERS AND CONTRIBUTORS
  28:../Dave/Generated/CMSIS_DSP/FilteringFunctions/arm_correlate_q7.c **** * "AS IS" AND ANY EXPRESS OR IMPLIED WARRANTIES, INCLUDING, BUT NOT
  29:../Dave/Generated/CMSIS_DSP/FilteringFunctions/arm_correlate_q7.c **** * LIMITED TO, THE IMPLIED WARRANTIES OF MERCHANTABILITY AND FITNESS
  30:../Dave/Generated/CMSIS_DSP/FilteringFunctions/arm_correlate_q7.c **** * FOR A PARTICULAR PURPOSE ARE DISCLAIMED. IN NO EVENT SHALL THE 
  31:../Dave/Generated/CMSIS_DSP/FilteringFunctions/arm_correlate_q7.c **** * COPYRIGHT OWNER OR CONTRIBUTORS BE LIABLE FOR ANY DIRECT, INDIRECT,
  32:../Dave/Generated/CMSIS_DSP/FilteringFunctions/arm_correlate_q7.c **** * INCIDENTAL, SPECIAL, EXEMPLARY, OR CONSEQUENTIAL DAMAGES (INCLUDING,
  33:../Dave/Generated/CMSIS_DSP/FilteringFunctions/arm_correlate_q7.c **** * BUT NOT LIMITED TO, PROCUREMENT OF SUBSTITUTE GOODS OR SERVICES;
  34:../Dave/Generated/CMSIS_DSP/FilteringFunctions/arm_correlate_q7.c **** * LOSS OF USE, DATA, OR PROFITS; OR BUSINESS INTERRUPTION) HOWEVER
  35:../Dave/Generated/CMSIS_DSP/FilteringFunctions/arm_correlate_q7.c **** * CAUSED AND ON ANY THEORY OF LIABILITY, WHETHER IN CONTRACT, STRICT
  36:../Dave/Generated/CMSIS_DSP/FilteringFunctions/arm_correlate_q7.c **** * LIABILITY, OR TORT (INCLUDING NEGLIGENCE OR OTHERWISE) ARISING IN
  37:../Dave/Generated/CMSIS_DSP/FilteringFunctions/arm_correlate_q7.c **** * ANY WAY OUT OF THE USE OF THIS SOFTWARE, EVEN IF ADVISED OF THE
  38:../Dave/Generated/CMSIS_DSP/FilteringFunctions/arm_correlate_q7.c **** * POSSIBILITY OF SUCH DAMAGE.  
  39:../Dave/Generated/CMSIS_DSP/FilteringFunctions/arm_correlate_q7.c **** * -------------------------------------------------------------------- */
  40:../Dave/Generated/CMSIS_DSP/FilteringFunctions/arm_correlate_q7.c **** 
  41:../Dave/Generated/CMSIS_DSP/FilteringFunctions/arm_correlate_q7.c **** #include "CMSIS_DSP/cmsis_dsp.h"
  42:../Dave/Generated/CMSIS_DSP/FilteringFunctions/arm_correlate_q7.c **** 
  43:../Dave/Generated/CMSIS_DSP/FilteringFunctions/arm_correlate_q7.c **** /**   
  44:../Dave/Generated/CMSIS_DSP/FilteringFunctions/arm_correlate_q7.c ****  * @ingroup groupFilters   
  45:../Dave/Generated/CMSIS_DSP/FilteringFunctions/arm_correlate_q7.c ****  */
  46:../Dave/Generated/CMSIS_DSP/FilteringFunctions/arm_correlate_q7.c **** 
  47:../Dave/Generated/CMSIS_DSP/FilteringFunctions/arm_correlate_q7.c **** /**   
  48:../Dave/Generated/CMSIS_DSP/FilteringFunctions/arm_correlate_q7.c ****  * @addtogroup Corr   
  49:../Dave/Generated/CMSIS_DSP/FilteringFunctions/arm_correlate_q7.c ****  * @{   
  50:../Dave/Generated/CMSIS_DSP/FilteringFunctions/arm_correlate_q7.c ****  */
  51:../Dave/Generated/CMSIS_DSP/FilteringFunctions/arm_correlate_q7.c **** 
  52:../Dave/Generated/CMSIS_DSP/FilteringFunctions/arm_correlate_q7.c **** /**   
  53:../Dave/Generated/CMSIS_DSP/FilteringFunctions/arm_correlate_q7.c ****  * @brief Correlation of Q7 sequences.   
  54:../Dave/Generated/CMSIS_DSP/FilteringFunctions/arm_correlate_q7.c ****  * @param[in] *pSrcA points to the first input sequence.   
  55:../Dave/Generated/CMSIS_DSP/FilteringFunctions/arm_correlate_q7.c ****  * @param[in] srcALen length of the first input sequence.   
  56:../Dave/Generated/CMSIS_DSP/FilteringFunctions/arm_correlate_q7.c ****  * @param[in] *pSrcB points to the second input sequence.   
  57:../Dave/Generated/CMSIS_DSP/FilteringFunctions/arm_correlate_q7.c ****  * @param[in] srcBLen length of the second input sequence.   
  58:../Dave/Generated/CMSIS_DSP/FilteringFunctions/arm_correlate_q7.c ****  * @param[out] *pDst points to the location where the output result is written.  Length 2 * max(src
  59:../Dave/Generated/CMSIS_DSP/FilteringFunctions/arm_correlate_q7.c ****  * @return none.   
  60:../Dave/Generated/CMSIS_DSP/FilteringFunctions/arm_correlate_q7.c ****  *   
  61:../Dave/Generated/CMSIS_DSP/FilteringFunctions/arm_correlate_q7.c ****  * @details   
  62:../Dave/Generated/CMSIS_DSP/FilteringFunctions/arm_correlate_q7.c ****  * <b>Scaling and Overflow Behavior:</b>   
  63:../Dave/Generated/CMSIS_DSP/FilteringFunctions/arm_correlate_q7.c ****  *   
  64:../Dave/Generated/CMSIS_DSP/FilteringFunctions/arm_correlate_q7.c ****  * \par   
  65:../Dave/Generated/CMSIS_DSP/FilteringFunctions/arm_correlate_q7.c ****  * The function is implemented using a 32-bit internal accumulator.   
  66:../Dave/Generated/CMSIS_DSP/FilteringFunctions/arm_correlate_q7.c ****  * Both the inputs are represented in 1.7 format and multiplications yield a 2.14 result.   
  67:../Dave/Generated/CMSIS_DSP/FilteringFunctions/arm_correlate_q7.c ****  * The 2.14 intermediate results are accumulated in a 32-bit accumulator in 18.14 format.   
  68:../Dave/Generated/CMSIS_DSP/FilteringFunctions/arm_correlate_q7.c ****  * This approach provides 17 guard bits and there is no risk of overflow as long as <code>max(srcAL
  69:../Dave/Generated/CMSIS_DSP/FilteringFunctions/arm_correlate_q7.c ****  * The 18.14 result is then truncated to 18.7 format by discarding the low 7 bits and saturated to 
  70:../Dave/Generated/CMSIS_DSP/FilteringFunctions/arm_correlate_q7.c ****  *
  71:../Dave/Generated/CMSIS_DSP/FilteringFunctions/arm_correlate_q7.c ****  * \par    
  72:../Dave/Generated/CMSIS_DSP/FilteringFunctions/arm_correlate_q7.c ****  * Refer the function <code>arm_correlate_opt_q7()</code> for a faster implementation of this funct
  73:../Dave/Generated/CMSIS_DSP/FilteringFunctions/arm_correlate_q7.c ****  * 
  74:../Dave/Generated/CMSIS_DSP/FilteringFunctions/arm_correlate_q7.c ****  */
  75:../Dave/Generated/CMSIS_DSP/FilteringFunctions/arm_correlate_q7.c **** 
  76:../Dave/Generated/CMSIS_DSP/FilteringFunctions/arm_correlate_q7.c **** void arm_correlate_q7(
  77:../Dave/Generated/CMSIS_DSP/FilteringFunctions/arm_correlate_q7.c ****   q7_t * pSrcA,
  78:../Dave/Generated/CMSIS_DSP/FilteringFunctions/arm_correlate_q7.c ****   uint32_t srcALen,
  79:../Dave/Generated/CMSIS_DSP/FilteringFunctions/arm_correlate_q7.c ****   q7_t * pSrcB,
  80:../Dave/Generated/CMSIS_DSP/FilteringFunctions/arm_correlate_q7.c ****   uint32_t srcBLen,
  81:../Dave/Generated/CMSIS_DSP/FilteringFunctions/arm_correlate_q7.c ****   q7_t * pDst)
  82:../Dave/Generated/CMSIS_DSP/FilteringFunctions/arm_correlate_q7.c **** {
  27              	 .loc 1 82 0
  28              	 .cfi_startproc
  29              	 
  30              	 
  31              	 
  32 0000 90B4     	 push {r4,r7}
  33              	.LCFI0:
  34              	 .cfi_def_cfa_offset 8
  35              	 .cfi_offset 4,-8
  36              	 .cfi_offset 7,-4
  37 0002 E6B0     	 sub sp,sp,#408
  38              	.LCFI1:
  39              	 .cfi_def_cfa_offset 416
  40 0004 00AF     	 add r7,sp,#0
  41              	.LCFI2:
  42              	 .cfi_def_cfa_register 7
  43 0006 07F10C04 	 add r4,r7,#12
  44 000a 2060     	 str r0,[r4]
  45 000c 07F10800 	 add r0,r7,#8
  46 0010 0160     	 str r1,[r0]
  47 0012 391D     	 adds r1,r7,#4
  48 0014 0A60     	 str r2,[r1]
  49 0016 3A46     	 mov r2,r7
  50 0018 1360     	 str r3,[r2]
  83:../Dave/Generated/CMSIS_DSP/FilteringFunctions/arm_correlate_q7.c **** 
  84:../Dave/Generated/CMSIS_DSP/FilteringFunctions/arm_correlate_q7.c **** 
  85:../Dave/Generated/CMSIS_DSP/FilteringFunctions/arm_correlate_q7.c **** #ifndef ARM_MATH_CM0_FAMILY
  86:../Dave/Generated/CMSIS_DSP/FilteringFunctions/arm_correlate_q7.c **** 
  87:../Dave/Generated/CMSIS_DSP/FilteringFunctions/arm_correlate_q7.c ****   /* Run the below code for Cortex-M4 and Cortex-M3 */
  88:../Dave/Generated/CMSIS_DSP/FilteringFunctions/arm_correlate_q7.c **** 
  89:../Dave/Generated/CMSIS_DSP/FilteringFunctions/arm_correlate_q7.c ****   q7_t *pIn1;                                    /* inputA pointer               */
  90:../Dave/Generated/CMSIS_DSP/FilteringFunctions/arm_correlate_q7.c ****   q7_t *pIn2;                                    /* inputB pointer               */
  91:../Dave/Generated/CMSIS_DSP/FilteringFunctions/arm_correlate_q7.c ****   q7_t *pOut = pDst;                             /* output pointer               */
  51              	 .loc 1 91 0
  52 001a D7F8A031 	 ldr r3,[r7,#416]
  53 001e C7F88C31 	 str r3,[r7,#396]
  92:../Dave/Generated/CMSIS_DSP/FilteringFunctions/arm_correlate_q7.c ****   q7_t *px;                                      /* Intermediate inputA pointer  */
  93:../Dave/Generated/CMSIS_DSP/FilteringFunctions/arm_correlate_q7.c ****   q7_t *py;                                      /* Intermediate inputB pointer  */
  94:../Dave/Generated/CMSIS_DSP/FilteringFunctions/arm_correlate_q7.c ****   q7_t *pSrc1;                                   /* Intermediate pointers        */
  95:../Dave/Generated/CMSIS_DSP/FilteringFunctions/arm_correlate_q7.c ****   q31_t sum, acc0, acc1, acc2, acc3;             /* Accumulators                  */
  96:../Dave/Generated/CMSIS_DSP/FilteringFunctions/arm_correlate_q7.c ****   q31_t input1, input2;                          /* temporary variables */
  97:../Dave/Generated/CMSIS_DSP/FilteringFunctions/arm_correlate_q7.c ****   q15_t in1, in2;                                /* temporary variables */
  98:../Dave/Generated/CMSIS_DSP/FilteringFunctions/arm_correlate_q7.c ****   q7_t x0, x1, x2, x3, c0, c1;                   /* temporary variables for holding input and coeff
  99:../Dave/Generated/CMSIS_DSP/FilteringFunctions/arm_correlate_q7.c ****   uint32_t j, k = 0u, count, blkCnt, outBlockSize, blockSize1, blockSize2, blockSize3;  /* loop cou
  54              	 .loc 1 99 0
  55 0022 0023     	 movs r3,#0
  56 0024 C7F86431 	 str r3,[r7,#356]
 100:../Dave/Generated/CMSIS_DSP/FilteringFunctions/arm_correlate_q7.c ****   int32_t inc = 1;
  57              	 .loc 1 100 0
  58 0028 0123     	 movs r3,#1
  59 002a C7F85031 	 str r3,[r7,#336]
 101:../Dave/Generated/CMSIS_DSP/FilteringFunctions/arm_correlate_q7.c **** 
 102:../Dave/Generated/CMSIS_DSP/FilteringFunctions/arm_correlate_q7.c **** 
 103:../Dave/Generated/CMSIS_DSP/FilteringFunctions/arm_correlate_q7.c ****   /* The algorithm implementation is based on the lengths of the inputs. */
 104:../Dave/Generated/CMSIS_DSP/FilteringFunctions/arm_correlate_q7.c ****   /* srcB is always made to slide across srcA. */
 105:../Dave/Generated/CMSIS_DSP/FilteringFunctions/arm_correlate_q7.c ****   /* So srcBLen is always considered as shorter or equal to srcALen */
 106:../Dave/Generated/CMSIS_DSP/FilteringFunctions/arm_correlate_q7.c ****   /* But CORR(x, y) is reverse of CORR(y, x) */
 107:../Dave/Generated/CMSIS_DSP/FilteringFunctions/arm_correlate_q7.c ****   /* So, when srcBLen > srcALen, output pointer is made to point to the end of the output buffer */
 108:../Dave/Generated/CMSIS_DSP/FilteringFunctions/arm_correlate_q7.c ****   /* and the destination pointer modifier, inc is set to -1 */
 109:../Dave/Generated/CMSIS_DSP/FilteringFunctions/arm_correlate_q7.c ****   /* If srcALen > srcBLen, zero pad has to be done to srcB to make the two inputs of same length */
 110:../Dave/Generated/CMSIS_DSP/FilteringFunctions/arm_correlate_q7.c ****   /* But to improve the performance,   
 111:../Dave/Generated/CMSIS_DSP/FilteringFunctions/arm_correlate_q7.c ****    * we include zeroes in the output instead of zero padding either of the the inputs*/
 112:../Dave/Generated/CMSIS_DSP/FilteringFunctions/arm_correlate_q7.c ****   /* If srcALen > srcBLen,   
 113:../Dave/Generated/CMSIS_DSP/FilteringFunctions/arm_correlate_q7.c ****    * (srcALen - srcBLen) zeroes has to included in the starting of the output buffer */
 114:../Dave/Generated/CMSIS_DSP/FilteringFunctions/arm_correlate_q7.c ****   /* If srcALen < srcBLen,   
 115:../Dave/Generated/CMSIS_DSP/FilteringFunctions/arm_correlate_q7.c ****    * (srcALen - srcBLen) zeroes has to included in the ending of the output buffer */
 116:../Dave/Generated/CMSIS_DSP/FilteringFunctions/arm_correlate_q7.c ****   if(srcALen >= srcBLen)
  60              	 .loc 1 116 0
  61 002e 07F10802 	 add r2,r7,#8
  62 0032 3B46     	 mov r3,r7
  63 0034 1268     	 ldr r2,[r2]
  64 0036 1B68     	 ldr r3,[r3]
  65 0038 9A42     	 cmp r2,r3
  66 003a 23D3     	 bcc .L2
 117:../Dave/Generated/CMSIS_DSP/FilteringFunctions/arm_correlate_q7.c ****   {
 118:../Dave/Generated/CMSIS_DSP/FilteringFunctions/arm_correlate_q7.c ****     /* Initialization of inputA pointer */
 119:../Dave/Generated/CMSIS_DSP/FilteringFunctions/arm_correlate_q7.c ****     pIn1 = (pSrcA);
  67              	 .loc 1 119 0
  68 003c 07F10C03 	 add r3,r7,#12
  69 0040 1B68     	 ldr r3,[r3]
  70 0042 C7F89431 	 str r3,[r7,#404]
 120:../Dave/Generated/CMSIS_DSP/FilteringFunctions/arm_correlate_q7.c **** 
 121:../Dave/Generated/CMSIS_DSP/FilteringFunctions/arm_correlate_q7.c ****     /* Initialization of inputB pointer */
 122:../Dave/Generated/CMSIS_DSP/FilteringFunctions/arm_correlate_q7.c ****     pIn2 = (pSrcB);
  71              	 .loc 1 122 0
  72 0046 3B1D     	 adds r3,r7,#4
  73 0048 1B68     	 ldr r3,[r3]
  74 004a C7F89031 	 str r3,[r7,#400]
 123:../Dave/Generated/CMSIS_DSP/FilteringFunctions/arm_correlate_q7.c **** 
 124:../Dave/Generated/CMSIS_DSP/FilteringFunctions/arm_correlate_q7.c ****     /* Number of output samples is calculated */
 125:../Dave/Generated/CMSIS_DSP/FilteringFunctions/arm_correlate_q7.c ****     outBlockSize = (2u * srcALen) - 1u;
  75              	 .loc 1 125 0
  76 004e 07F10803 	 add r3,r7,#8
  77 0052 1B68     	 ldr r3,[r3]
  78 0054 5B00     	 lsls r3,r3,#1
  79 0056 013B     	 subs r3,r3,#1
  80 0058 C7F84C31 	 str r3,[r7,#332]
 126:../Dave/Generated/CMSIS_DSP/FilteringFunctions/arm_correlate_q7.c **** 
 127:../Dave/Generated/CMSIS_DSP/FilteringFunctions/arm_correlate_q7.c ****     /* When srcALen > srcBLen, zero padding is done to srcB   
 128:../Dave/Generated/CMSIS_DSP/FilteringFunctions/arm_correlate_q7.c ****      * to make their lengths equal.   
 129:../Dave/Generated/CMSIS_DSP/FilteringFunctions/arm_correlate_q7.c ****      * Instead, (outBlockSize - (srcALen + srcBLen - 1))   
 130:../Dave/Generated/CMSIS_DSP/FilteringFunctions/arm_correlate_q7.c ****      * number of output samples are made zero */
 131:../Dave/Generated/CMSIS_DSP/FilteringFunctions/arm_correlate_q7.c ****     j = outBlockSize - (srcALen + (srcBLen - 1u));
  81              	 .loc 1 131 0
  82 005c 3A46     	 mov r2,r7
  83 005e 07F10803 	 add r3,r7,#8
  84 0062 1268     	 ldr r2,[r2]
  85 0064 1B68     	 ldr r3,[r3]
  86 0066 1344     	 add r3,r3,r2
  87 0068 D7F84C21 	 ldr r2,[r7,#332]
  88 006c D31A     	 subs r3,r2,r3
  89 006e 0133     	 adds r3,r3,#1
  90 0070 C7F84831 	 str r3,[r7,#328]
 132:../Dave/Generated/CMSIS_DSP/FilteringFunctions/arm_correlate_q7.c **** 
 133:../Dave/Generated/CMSIS_DSP/FilteringFunctions/arm_correlate_q7.c ****     /* Updating the pointer position to non zero value */
 134:../Dave/Generated/CMSIS_DSP/FilteringFunctions/arm_correlate_q7.c ****     pOut += j;
  91              	 .loc 1 134 0
  92 0074 D7F88C21 	 ldr r2,[r7,#396]
  93 0078 D7F84831 	 ldr r3,[r7,#328]
  94 007c 1344     	 add r3,r3,r2
  95 007e C7F88C31 	 str r3,[r7,#396]
  96 0082 26E0     	 b .L3
  97              	.L2:
 135:../Dave/Generated/CMSIS_DSP/FilteringFunctions/arm_correlate_q7.c **** 
 136:../Dave/Generated/CMSIS_DSP/FilteringFunctions/arm_correlate_q7.c ****   }
 137:../Dave/Generated/CMSIS_DSP/FilteringFunctions/arm_correlate_q7.c ****   else
 138:../Dave/Generated/CMSIS_DSP/FilteringFunctions/arm_correlate_q7.c ****   {
 139:../Dave/Generated/CMSIS_DSP/FilteringFunctions/arm_correlate_q7.c ****     /* Initialization of inputA pointer */
 140:../Dave/Generated/CMSIS_DSP/FilteringFunctions/arm_correlate_q7.c ****     pIn1 = (pSrcB);
  98              	 .loc 1 140 0
  99 0084 3B1D     	 adds r3,r7,#4
 100 0086 1B68     	 ldr r3,[r3]
 101 0088 C7F89431 	 str r3,[r7,#404]
 141:../Dave/Generated/CMSIS_DSP/FilteringFunctions/arm_correlate_q7.c **** 
 142:../Dave/Generated/CMSIS_DSP/FilteringFunctions/arm_correlate_q7.c ****     /* Initialization of inputB pointer */
 143:../Dave/Generated/CMSIS_DSP/FilteringFunctions/arm_correlate_q7.c ****     pIn2 = (pSrcA);
 102              	 .loc 1 143 0
 103 008c 07F10C03 	 add r3,r7,#12
 104 0090 1B68     	 ldr r3,[r3]
 105 0092 C7F89031 	 str r3,[r7,#400]
 144:../Dave/Generated/CMSIS_DSP/FilteringFunctions/arm_correlate_q7.c **** 
 145:../Dave/Generated/CMSIS_DSP/FilteringFunctions/arm_correlate_q7.c ****     /* srcBLen is always considered as shorter or equal to srcALen */
 146:../Dave/Generated/CMSIS_DSP/FilteringFunctions/arm_correlate_q7.c ****     j = srcBLen;
 106              	 .loc 1 146 0
 107 0096 3B46     	 mov r3,r7
 108 0098 1B68     	 ldr r3,[r3]
 109 009a C7F84831 	 str r3,[r7,#328]
 147:../Dave/Generated/CMSIS_DSP/FilteringFunctions/arm_correlate_q7.c ****     srcBLen = srcALen;
 110              	 .loc 1 147 0
 111 009e 3B46     	 mov r3,r7
 112 00a0 07F10802 	 add r2,r7,#8
 113 00a4 1268     	 ldr r2,[r2]
 114 00a6 1A60     	 str r2,[r3]
 148:../Dave/Generated/CMSIS_DSP/FilteringFunctions/arm_correlate_q7.c ****     srcALen = j;
 115              	 .loc 1 148 0
 116 00a8 07F10803 	 add r3,r7,#8
 117 00ac D7F84821 	 ldr r2,[r7,#328]
 118 00b0 1A60     	 str r2,[r3]
 149:../Dave/Generated/CMSIS_DSP/FilteringFunctions/arm_correlate_q7.c **** 
 150:../Dave/Generated/CMSIS_DSP/FilteringFunctions/arm_correlate_q7.c ****     /* CORR(x, y) = Reverse order(CORR(y, x)) */
 151:../Dave/Generated/CMSIS_DSP/FilteringFunctions/arm_correlate_q7.c ****     /* Hence set the destination pointer to point to the last output sample */
 152:../Dave/Generated/CMSIS_DSP/FilteringFunctions/arm_correlate_q7.c ****     pOut = pDst + ((srcALen + srcBLen) - 2u);
 119              	 .loc 1 152 0
 120 00b2 07F10802 	 add r2,r7,#8
 121 00b6 3B46     	 mov r3,r7
 122 00b8 1268     	 ldr r2,[r2]
 123 00ba 1B68     	 ldr r3,[r3]
 124 00bc 1344     	 add r3,r3,r2
 125 00be 023B     	 subs r3,r3,#2
 126 00c0 D7F8A021 	 ldr r2,[r7,#416]
 127 00c4 1344     	 add r3,r3,r2
 128 00c6 C7F88C31 	 str r3,[r7,#396]
 153:../Dave/Generated/CMSIS_DSP/FilteringFunctions/arm_correlate_q7.c **** 
 154:../Dave/Generated/CMSIS_DSP/FilteringFunctions/arm_correlate_q7.c ****     /* Destination address modifier is set to -1 */
 155:../Dave/Generated/CMSIS_DSP/FilteringFunctions/arm_correlate_q7.c ****     inc = -1;
 129              	 .loc 1 155 0
 130 00ca 4FF0FF33 	 mov r3,#-1
 131 00ce C7F85031 	 str r3,[r7,#336]
 132              	.L3:
 156:../Dave/Generated/CMSIS_DSP/FilteringFunctions/arm_correlate_q7.c **** 
 157:../Dave/Generated/CMSIS_DSP/FilteringFunctions/arm_correlate_q7.c ****   }
 158:../Dave/Generated/CMSIS_DSP/FilteringFunctions/arm_correlate_q7.c **** 
 159:../Dave/Generated/CMSIS_DSP/FilteringFunctions/arm_correlate_q7.c ****   /* The function is internally   
 160:../Dave/Generated/CMSIS_DSP/FilteringFunctions/arm_correlate_q7.c ****    * divided into three parts according to the number of multiplications that has to be   
 161:../Dave/Generated/CMSIS_DSP/FilteringFunctions/arm_correlate_q7.c ****    * taken place between inputA samples and inputB samples. In the first part of the   
 162:../Dave/Generated/CMSIS_DSP/FilteringFunctions/arm_correlate_q7.c ****    * algorithm, the multiplications increase by one for every iteration.   
 163:../Dave/Generated/CMSIS_DSP/FilteringFunctions/arm_correlate_q7.c ****    * In the second part of the algorithm, srcBLen number of multiplications are done.   
 164:../Dave/Generated/CMSIS_DSP/FilteringFunctions/arm_correlate_q7.c ****    * In the third part of the algorithm, the multiplications decrease by one   
 165:../Dave/Generated/CMSIS_DSP/FilteringFunctions/arm_correlate_q7.c ****    * for every iteration.*/
 166:../Dave/Generated/CMSIS_DSP/FilteringFunctions/arm_correlate_q7.c ****   /* The algorithm is implemented in three stages.   
 167:../Dave/Generated/CMSIS_DSP/FilteringFunctions/arm_correlate_q7.c ****    * The loop counters of each stage is initiated here. */
 168:../Dave/Generated/CMSIS_DSP/FilteringFunctions/arm_correlate_q7.c ****   blockSize1 = srcBLen - 1u;
 133              	 .loc 1 168 0
 134 00d2 3B46     	 mov r3,r7
 135 00d4 1B68     	 ldr r3,[r3]
 136 00d6 013B     	 subs r3,r3,#1
 137 00d8 C7F85831 	 str r3,[r7,#344]
 169:../Dave/Generated/CMSIS_DSP/FilteringFunctions/arm_correlate_q7.c ****   blockSize2 = srcALen - (srcBLen - 1u);
 138              	 .loc 1 169 0
 139 00dc 07F10802 	 add r2,r7,#8
 140 00e0 3B46     	 mov r3,r7
 141 00e2 1268     	 ldr r2,[r2]
 142 00e4 1B68     	 ldr r3,[r3]
 143 00e6 D31A     	 subs r3,r2,r3
 144 00e8 0133     	 adds r3,r3,#1
 145 00ea C7F84431 	 str r3,[r7,#324]
 170:../Dave/Generated/CMSIS_DSP/FilteringFunctions/arm_correlate_q7.c ****   blockSize3 = blockSize1;
 146              	 .loc 1 170 0
 147 00ee D7F85831 	 ldr r3,[r7,#344]
 148 00f2 C7F85431 	 str r3,[r7,#340]
 171:../Dave/Generated/CMSIS_DSP/FilteringFunctions/arm_correlate_q7.c **** 
 172:../Dave/Generated/CMSIS_DSP/FilteringFunctions/arm_correlate_q7.c ****   /* --------------------------   
 173:../Dave/Generated/CMSIS_DSP/FilteringFunctions/arm_correlate_q7.c ****    * Initializations of stage1   
 174:../Dave/Generated/CMSIS_DSP/FilteringFunctions/arm_correlate_q7.c ****    * -------------------------*/
 175:../Dave/Generated/CMSIS_DSP/FilteringFunctions/arm_correlate_q7.c **** 
 176:../Dave/Generated/CMSIS_DSP/FilteringFunctions/arm_correlate_q7.c ****   /* sum = x[0] * y[srcBlen - 1]   
 177:../Dave/Generated/CMSIS_DSP/FilteringFunctions/arm_correlate_q7.c ****    * sum = x[0] * y[srcBlen - 2] + x[1] * y[srcBlen - 1]   
 178:../Dave/Generated/CMSIS_DSP/FilteringFunctions/arm_correlate_q7.c ****    * ....   
 179:../Dave/Generated/CMSIS_DSP/FilteringFunctions/arm_correlate_q7.c ****    * sum = x[0] * y[0] + x[1] * y[1] +...+ x[srcBLen - 1] * y[srcBLen - 1]   
 180:../Dave/Generated/CMSIS_DSP/FilteringFunctions/arm_correlate_q7.c ****    */
 181:../Dave/Generated/CMSIS_DSP/FilteringFunctions/arm_correlate_q7.c **** 
 182:../Dave/Generated/CMSIS_DSP/FilteringFunctions/arm_correlate_q7.c ****   /* In this stage the MAC operations are increased by 1 for every iteration.   
 183:../Dave/Generated/CMSIS_DSP/FilteringFunctions/arm_correlate_q7.c ****      The count variable holds the number of MAC operations performed */
 184:../Dave/Generated/CMSIS_DSP/FilteringFunctions/arm_correlate_q7.c ****   count = 1u;
 149              	 .loc 1 184 0
 150 00f6 0123     	 movs r3,#1
 151 00f8 C7F86031 	 str r3,[r7,#352]
 185:../Dave/Generated/CMSIS_DSP/FilteringFunctions/arm_correlate_q7.c **** 
 186:../Dave/Generated/CMSIS_DSP/FilteringFunctions/arm_correlate_q7.c ****   /* Working pointer of inputA */
 187:../Dave/Generated/CMSIS_DSP/FilteringFunctions/arm_correlate_q7.c ****   px = pIn1;
 152              	 .loc 1 187 0
 153 00fc D7F89431 	 ldr r3,[r7,#404]
 154 0100 C7F88831 	 str r3,[r7,#392]
 188:../Dave/Generated/CMSIS_DSP/FilteringFunctions/arm_correlate_q7.c **** 
 189:../Dave/Generated/CMSIS_DSP/FilteringFunctions/arm_correlate_q7.c ****   /* Working pointer of inputB */
 190:../Dave/Generated/CMSIS_DSP/FilteringFunctions/arm_correlate_q7.c ****   pSrc1 = pIn2 + (srcBLen - 1u);
 155              	 .loc 1 190 0
 156 0104 3B46     	 mov r3,r7
 157 0106 1B68     	 ldr r3,[r3]
 158 0108 013B     	 subs r3,r3,#1
 159 010a D7F89021 	 ldr r2,[r7,#400]
 160 010e 1344     	 add r3,r3,r2
 161 0110 C7F88031 	 str r3,[r7,#384]
 191:../Dave/Generated/CMSIS_DSP/FilteringFunctions/arm_correlate_q7.c ****   py = pSrc1;
 162              	 .loc 1 191 0
 163 0114 D7F88031 	 ldr r3,[r7,#384]
 164 0118 C7F88431 	 str r3,[r7,#388]
 192:../Dave/Generated/CMSIS_DSP/FilteringFunctions/arm_correlate_q7.c **** 
 193:../Dave/Generated/CMSIS_DSP/FilteringFunctions/arm_correlate_q7.c ****   /* ------------------------   
 194:../Dave/Generated/CMSIS_DSP/FilteringFunctions/arm_correlate_q7.c ****    * Stage1 process   
 195:../Dave/Generated/CMSIS_DSP/FilteringFunctions/arm_correlate_q7.c ****    * ----------------------*/
 196:../Dave/Generated/CMSIS_DSP/FilteringFunctions/arm_correlate_q7.c **** 
 197:../Dave/Generated/CMSIS_DSP/FilteringFunctions/arm_correlate_q7.c ****   /* The first stage starts here */
 198:../Dave/Generated/CMSIS_DSP/FilteringFunctions/arm_correlate_q7.c ****   while(blockSize1 > 0u)
 165              	 .loc 1 198 0
 166 011c 05E1     	 b .L4
 167              	.L11:
 199:../Dave/Generated/CMSIS_DSP/FilteringFunctions/arm_correlate_q7.c ****   {
 200:../Dave/Generated/CMSIS_DSP/FilteringFunctions/arm_correlate_q7.c ****     /* Accumulator is made zero for every iteration */
 201:../Dave/Generated/CMSIS_DSP/FilteringFunctions/arm_correlate_q7.c ****     sum = 0;
 168              	 .loc 1 201 0
 169 011e 0023     	 movs r3,#0
 170 0120 C7F87C31 	 str r3,[r7,#380]
 202:../Dave/Generated/CMSIS_DSP/FilteringFunctions/arm_correlate_q7.c **** 
 203:../Dave/Generated/CMSIS_DSP/FilteringFunctions/arm_correlate_q7.c ****     /* Apply loop unrolling and compute 4 MACs simultaneously. */
 204:../Dave/Generated/CMSIS_DSP/FilteringFunctions/arm_correlate_q7.c ****     k = count >> 2;
 171              	 .loc 1 204 0
 172 0124 D7F86031 	 ldr r3,[r7,#352]
 173 0128 9B08     	 lsrs r3,r3,#2
 174 012a C7F86431 	 str r3,[r7,#356]
 205:../Dave/Generated/CMSIS_DSP/FilteringFunctions/arm_correlate_q7.c **** 
 206:../Dave/Generated/CMSIS_DSP/FilteringFunctions/arm_correlate_q7.c ****     /* First part of the processing with loop unrolling.  Compute 4 MACs at a time.   
 207:../Dave/Generated/CMSIS_DSP/FilteringFunctions/arm_correlate_q7.c ****      ** a second loop below computes MACs for the remaining 1 to 3 samples. */
 208:../Dave/Generated/CMSIS_DSP/FilteringFunctions/arm_correlate_q7.c ****     while(k > 0u)
 175              	 .loc 1 208 0
 176 012e A4E0     	 b .L5
 177              	.L8:
 209:../Dave/Generated/CMSIS_DSP/FilteringFunctions/arm_correlate_q7.c ****     {
 210:../Dave/Generated/CMSIS_DSP/FilteringFunctions/arm_correlate_q7.c ****       /* x[0] , x[1] */
 211:../Dave/Generated/CMSIS_DSP/FilteringFunctions/arm_correlate_q7.c ****       in1 = (q15_t) * px++;
 178              	 .loc 1 211 0
 179 0130 D7F88831 	 ldr r3,[r7,#392]
 180 0134 5A1C     	 adds r2,r3,#1
 181 0136 C7F88821 	 str r2,[r7,#392]
 182 013a 1B78     	 ldrb r3,[r3]
 183 013c 5BB2     	 sxtb r3,r3
 184 013e A7F84231 	 strh r3,[r7,#322]
 212:../Dave/Generated/CMSIS_DSP/FilteringFunctions/arm_correlate_q7.c ****       in2 = (q15_t) * px++;
 185              	 .loc 1 212 0
 186 0142 D7F88831 	 ldr r3,[r7,#392]
 187 0146 5A1C     	 adds r2,r3,#1
 188 0148 C7F88821 	 str r2,[r7,#392]
 189 014c 1B78     	 ldrb r3,[r3]
 190 014e 5BB2     	 sxtb r3,r3
 191 0150 A7F84031 	 strh r3,[r7,#320]
 213:../Dave/Generated/CMSIS_DSP/FilteringFunctions/arm_correlate_q7.c ****       input1 = ((q31_t) in1 & 0x0000FFFF) | ((q31_t) in2 << 16);
 192              	 .loc 1 213 0
 193 0154 B7F94231 	 ldrsh r3,[r7,#322]
 194 0158 9AB2     	 uxth r2,r3
 195 015a B7F94031 	 ldrsh r3,[r7,#320]
 196 015e 1B04     	 lsls r3,r3,#16
 197 0160 1343     	 orrs r3,r3,r2
 198 0162 C7F83C31 	 str r3,[r7,#316]
 214:../Dave/Generated/CMSIS_DSP/FilteringFunctions/arm_correlate_q7.c **** 
 215:../Dave/Generated/CMSIS_DSP/FilteringFunctions/arm_correlate_q7.c ****       /* y[srcBLen - 4] , y[srcBLen - 3] */
 216:../Dave/Generated/CMSIS_DSP/FilteringFunctions/arm_correlate_q7.c ****       in1 = (q15_t) * py++;
 199              	 .loc 1 216 0
 200 0166 D7F88431 	 ldr r3,[r7,#388]
 201 016a 5A1C     	 adds r2,r3,#1
 202 016c C7F88421 	 str r2,[r7,#388]
 203 0170 1B78     	 ldrb r3,[r3]
 204 0172 5BB2     	 sxtb r3,r3
 205 0174 A7F84231 	 strh r3,[r7,#322]
 217:../Dave/Generated/CMSIS_DSP/FilteringFunctions/arm_correlate_q7.c ****       in2 = (q15_t) * py++;
 206              	 .loc 1 217 0
 207 0178 D7F88431 	 ldr r3,[r7,#388]
 208 017c 5A1C     	 adds r2,r3,#1
 209 017e C7F88421 	 str r2,[r7,#388]
 210 0182 1B78     	 ldrb r3,[r3]
 211 0184 5BB2     	 sxtb r3,r3
 212 0186 A7F84031 	 strh r3,[r7,#320]
 218:../Dave/Generated/CMSIS_DSP/FilteringFunctions/arm_correlate_q7.c ****       input2 = ((q31_t) in1 & 0x0000FFFF) | ((q31_t) in2 << 16);
 213              	 .loc 1 218 0
 214 018a B7F94231 	 ldrsh r3,[r7,#322]
 215 018e 9AB2     	 uxth r2,r3
 216 0190 B7F94031 	 ldrsh r3,[r7,#320]
 217 0194 1B04     	 lsls r3,r3,#16
 218 0196 1343     	 orrs r3,r3,r2
 219 0198 C7F83831 	 str r3,[r7,#312]
 219:../Dave/Generated/CMSIS_DSP/FilteringFunctions/arm_correlate_q7.c **** 
 220:../Dave/Generated/CMSIS_DSP/FilteringFunctions/arm_correlate_q7.c ****       /* x[0] * y[srcBLen - 4] */
 221:../Dave/Generated/CMSIS_DSP/FilteringFunctions/arm_correlate_q7.c ****       /* x[1] * y[srcBLen - 3] */
 222:../Dave/Generated/CMSIS_DSP/FilteringFunctions/arm_correlate_q7.c ****       sum = __SMLAD(input1, input2, sum);
 220              	 .loc 1 222 0
 221 019c D7F83C11 	 ldr r1,[r7,#316]
 222 01a0 D7F83821 	 ldr r2,[r7,#312]
 223 01a4 D7F87C31 	 ldr r3,[r7,#380]
 224 01a8 C7F8F010 	 str r1,[r7,#240]
 225 01ac C7F8EC20 	 str r2,[r7,#236]
 226 01b0 C7F8E830 	 str r3,[r7,#232]
 227              	.LBB38:
 228              	.LBB39:
 229              	 .file 2 "C:\\Users\\Depes Crystalline\\Desktop\\school\\Active_Bike_Lighting_System\\Radar_Core/Libraries/CMSIS/Include/core_cmSimd.h"
   1:C:\Users\Depes Crystalline\Desktop\school\Active_Bike_Lighting_System\Radar_Core/Libraries/CMSIS/Include\core_cmSimd.h **** /**************************************************************************//**
   2:C:\Users\Depes Crystalline\Desktop\school\Active_Bike_Lighting_System\Radar_Core/Libraries/CMSIS/Include\core_cmSimd.h ****  * @file     core_cmSimd.h
   3:C:\Users\Depes Crystalline\Desktop\school\Active_Bike_Lighting_System\Radar_Core/Libraries/CMSIS/Include\core_cmSimd.h ****  * @brief    CMSIS Cortex-M SIMD Header File
   4:C:\Users\Depes Crystalline\Desktop\school\Active_Bike_Lighting_System\Radar_Core/Libraries/CMSIS/Include\core_cmSimd.h ****  * @version  V4.00
   5:C:\Users\Depes Crystalline\Desktop\school\Active_Bike_Lighting_System\Radar_Core/Libraries/CMSIS/Include\core_cmSimd.h ****  * @date     22. August 2014
   6:C:\Users\Depes Crystalline\Desktop\school\Active_Bike_Lighting_System\Radar_Core/Libraries/CMSIS/Include\core_cmSimd.h ****  *
   7:C:\Users\Depes Crystalline\Desktop\school\Active_Bike_Lighting_System\Radar_Core/Libraries/CMSIS/Include\core_cmSimd.h ****  * @note
   8:C:\Users\Depes Crystalline\Desktop\school\Active_Bike_Lighting_System\Radar_Core/Libraries/CMSIS/Include\core_cmSimd.h ****  *
   9:C:\Users\Depes Crystalline\Desktop\school\Active_Bike_Lighting_System\Radar_Core/Libraries/CMSIS/Include\core_cmSimd.h ****  ******************************************************************************/
  10:C:\Users\Depes Crystalline\Desktop\school\Active_Bike_Lighting_System\Radar_Core/Libraries/CMSIS/Include\core_cmSimd.h **** /* Copyright (c) 2009 - 2014 ARM LIMITED
  11:C:\Users\Depes Crystalline\Desktop\school\Active_Bike_Lighting_System\Radar_Core/Libraries/CMSIS/Include\core_cmSimd.h **** 
  12:C:\Users\Depes Crystalline\Desktop\school\Active_Bike_Lighting_System\Radar_Core/Libraries/CMSIS/Include\core_cmSimd.h ****    All rights reserved.
  13:C:\Users\Depes Crystalline\Desktop\school\Active_Bike_Lighting_System\Radar_Core/Libraries/CMSIS/Include\core_cmSimd.h ****    Redistribution and use in source and binary forms, with or without
  14:C:\Users\Depes Crystalline\Desktop\school\Active_Bike_Lighting_System\Radar_Core/Libraries/CMSIS/Include\core_cmSimd.h ****    modification, are permitted provided that the following conditions are met:
  15:C:\Users\Depes Crystalline\Desktop\school\Active_Bike_Lighting_System\Radar_Core/Libraries/CMSIS/Include\core_cmSimd.h ****    - Redistributions of source code must retain the above copyright
  16:C:\Users\Depes Crystalline\Desktop\school\Active_Bike_Lighting_System\Radar_Core/Libraries/CMSIS/Include\core_cmSimd.h ****      notice, this list of conditions and the following disclaimer.
  17:C:\Users\Depes Crystalline\Desktop\school\Active_Bike_Lighting_System\Radar_Core/Libraries/CMSIS/Include\core_cmSimd.h ****    - Redistributions in binary form must reproduce the above copyright
  18:C:\Users\Depes Crystalline\Desktop\school\Active_Bike_Lighting_System\Radar_Core/Libraries/CMSIS/Include\core_cmSimd.h ****      notice, this list of conditions and the following disclaimer in the
  19:C:\Users\Depes Crystalline\Desktop\school\Active_Bike_Lighting_System\Radar_Core/Libraries/CMSIS/Include\core_cmSimd.h ****      documentation and/or other materials provided with the distribution.
  20:C:\Users\Depes Crystalline\Desktop\school\Active_Bike_Lighting_System\Radar_Core/Libraries/CMSIS/Include\core_cmSimd.h ****    - Neither the name of ARM nor the names of its contributors may be used
  21:C:\Users\Depes Crystalline\Desktop\school\Active_Bike_Lighting_System\Radar_Core/Libraries/CMSIS/Include\core_cmSimd.h ****      to endorse or promote products derived from this software without
  22:C:\Users\Depes Crystalline\Desktop\school\Active_Bike_Lighting_System\Radar_Core/Libraries/CMSIS/Include\core_cmSimd.h ****      specific prior written permission.
  23:C:\Users\Depes Crystalline\Desktop\school\Active_Bike_Lighting_System\Radar_Core/Libraries/CMSIS/Include\core_cmSimd.h ****    *
  24:C:\Users\Depes Crystalline\Desktop\school\Active_Bike_Lighting_System\Radar_Core/Libraries/CMSIS/Include\core_cmSimd.h ****    THIS SOFTWARE IS PROVIDED BY THE COPYRIGHT HOLDERS AND CONTRIBUTORS "AS IS"
  25:C:\Users\Depes Crystalline\Desktop\school\Active_Bike_Lighting_System\Radar_Core/Libraries/CMSIS/Include\core_cmSimd.h ****    AND ANY EXPRESS OR IMPLIED WARRANTIES, INCLUDING, BUT NOT LIMITED TO, THE
  26:C:\Users\Depes Crystalline\Desktop\school\Active_Bike_Lighting_System\Radar_Core/Libraries/CMSIS/Include\core_cmSimd.h ****    IMPLIED WARRANTIES OF MERCHANTABILITY AND FITNESS FOR A PARTICULAR PURPOSE
  27:C:\Users\Depes Crystalline\Desktop\school\Active_Bike_Lighting_System\Radar_Core/Libraries/CMSIS/Include\core_cmSimd.h ****    ARE DISCLAIMED. IN NO EVENT SHALL COPYRIGHT HOLDERS AND CONTRIBUTORS BE
  28:C:\Users\Depes Crystalline\Desktop\school\Active_Bike_Lighting_System\Radar_Core/Libraries/CMSIS/Include\core_cmSimd.h ****    LIABLE FOR ANY DIRECT, INDIRECT, INCIDENTAL, SPECIAL, EXEMPLARY, OR
  29:C:\Users\Depes Crystalline\Desktop\school\Active_Bike_Lighting_System\Radar_Core/Libraries/CMSIS/Include\core_cmSimd.h ****    CONSEQUENTIAL DAMAGES (INCLUDING, BUT NOT LIMITED TO, PROCUREMENT OF
  30:C:\Users\Depes Crystalline\Desktop\school\Active_Bike_Lighting_System\Radar_Core/Libraries/CMSIS/Include\core_cmSimd.h ****    SUBSTITUTE GOODS OR SERVICES; LOSS OF USE, DATA, OR PROFITS; OR BUSINESS
  31:C:\Users\Depes Crystalline\Desktop\school\Active_Bike_Lighting_System\Radar_Core/Libraries/CMSIS/Include\core_cmSimd.h ****    INTERRUPTION) HOWEVER CAUSED AND ON ANY THEORY OF LIABILITY, WHETHER IN
  32:C:\Users\Depes Crystalline\Desktop\school\Active_Bike_Lighting_System\Radar_Core/Libraries/CMSIS/Include\core_cmSimd.h ****    CONTRACT, STRICT LIABILITY, OR TORT (INCLUDING NEGLIGENCE OR OTHERWISE)
  33:C:\Users\Depes Crystalline\Desktop\school\Active_Bike_Lighting_System\Radar_Core/Libraries/CMSIS/Include\core_cmSimd.h ****    ARISING IN ANY WAY OUT OF THE USE OF THIS SOFTWARE, EVEN IF ADVISED OF THE
  34:C:\Users\Depes Crystalline\Desktop\school\Active_Bike_Lighting_System\Radar_Core/Libraries/CMSIS/Include\core_cmSimd.h ****    POSSIBILITY OF SUCH DAMAGE.
  35:C:\Users\Depes Crystalline\Desktop\school\Active_Bike_Lighting_System\Radar_Core/Libraries/CMSIS/Include\core_cmSimd.h ****    ---------------------------------------------------------------------------*/
  36:C:\Users\Depes Crystalline\Desktop\school\Active_Bike_Lighting_System\Radar_Core/Libraries/CMSIS/Include\core_cmSimd.h **** 
  37:C:\Users\Depes Crystalline\Desktop\school\Active_Bike_Lighting_System\Radar_Core/Libraries/CMSIS/Include\core_cmSimd.h **** 
  38:C:\Users\Depes Crystalline\Desktop\school\Active_Bike_Lighting_System\Radar_Core/Libraries/CMSIS/Include\core_cmSimd.h **** #if defined ( __ICCARM__ )
  39:C:\Users\Depes Crystalline\Desktop\school\Active_Bike_Lighting_System\Radar_Core/Libraries/CMSIS/Include\core_cmSimd.h ****  #pragma system_include  /* treat file as system include file for MISRA check */
  40:C:\Users\Depes Crystalline\Desktop\school\Active_Bike_Lighting_System\Radar_Core/Libraries/CMSIS/Include\core_cmSimd.h **** #endif
  41:C:\Users\Depes Crystalline\Desktop\school\Active_Bike_Lighting_System\Radar_Core/Libraries/CMSIS/Include\core_cmSimd.h **** 
  42:C:\Users\Depes Crystalline\Desktop\school\Active_Bike_Lighting_System\Radar_Core/Libraries/CMSIS/Include\core_cmSimd.h **** #ifndef __CORE_CMSIMD_H
  43:C:\Users\Depes Crystalline\Desktop\school\Active_Bike_Lighting_System\Radar_Core/Libraries/CMSIS/Include\core_cmSimd.h **** #define __CORE_CMSIMD_H
  44:C:\Users\Depes Crystalline\Desktop\school\Active_Bike_Lighting_System\Radar_Core/Libraries/CMSIS/Include\core_cmSimd.h **** 
  45:C:\Users\Depes Crystalline\Desktop\school\Active_Bike_Lighting_System\Radar_Core/Libraries/CMSIS/Include\core_cmSimd.h **** #ifdef __cplusplus
  46:C:\Users\Depes Crystalline\Desktop\school\Active_Bike_Lighting_System\Radar_Core/Libraries/CMSIS/Include\core_cmSimd.h ****  extern "C" {
  47:C:\Users\Depes Crystalline\Desktop\school\Active_Bike_Lighting_System\Radar_Core/Libraries/CMSIS/Include\core_cmSimd.h **** #endif
  48:C:\Users\Depes Crystalline\Desktop\school\Active_Bike_Lighting_System\Radar_Core/Libraries/CMSIS/Include\core_cmSimd.h **** 
  49:C:\Users\Depes Crystalline\Desktop\school\Active_Bike_Lighting_System\Radar_Core/Libraries/CMSIS/Include\core_cmSimd.h **** 
  50:C:\Users\Depes Crystalline\Desktop\school\Active_Bike_Lighting_System\Radar_Core/Libraries/CMSIS/Include\core_cmSimd.h **** /*******************************************************************************
  51:C:\Users\Depes Crystalline\Desktop\school\Active_Bike_Lighting_System\Radar_Core/Libraries/CMSIS/Include\core_cmSimd.h ****  *                Hardware Abstraction Layer
  52:C:\Users\Depes Crystalline\Desktop\school\Active_Bike_Lighting_System\Radar_Core/Libraries/CMSIS/Include\core_cmSimd.h ****  ******************************************************************************/
  53:C:\Users\Depes Crystalline\Desktop\school\Active_Bike_Lighting_System\Radar_Core/Libraries/CMSIS/Include\core_cmSimd.h **** 
  54:C:\Users\Depes Crystalline\Desktop\school\Active_Bike_Lighting_System\Radar_Core/Libraries/CMSIS/Include\core_cmSimd.h **** 
  55:C:\Users\Depes Crystalline\Desktop\school\Active_Bike_Lighting_System\Radar_Core/Libraries/CMSIS/Include\core_cmSimd.h **** /* ###################  Compiler specific Intrinsics  ########################### */
  56:C:\Users\Depes Crystalline\Desktop\school\Active_Bike_Lighting_System\Radar_Core/Libraries/CMSIS/Include\core_cmSimd.h **** /** \defgroup CMSIS_SIMD_intrinsics CMSIS SIMD Intrinsics
  57:C:\Users\Depes Crystalline\Desktop\school\Active_Bike_Lighting_System\Radar_Core/Libraries/CMSIS/Include\core_cmSimd.h ****   Access to dedicated SIMD instructions
  58:C:\Users\Depes Crystalline\Desktop\school\Active_Bike_Lighting_System\Radar_Core/Libraries/CMSIS/Include\core_cmSimd.h ****   @{
  59:C:\Users\Depes Crystalline\Desktop\school\Active_Bike_Lighting_System\Radar_Core/Libraries/CMSIS/Include\core_cmSimd.h **** */
  60:C:\Users\Depes Crystalline\Desktop\school\Active_Bike_Lighting_System\Radar_Core/Libraries/CMSIS/Include\core_cmSimd.h **** 
  61:C:\Users\Depes Crystalline\Desktop\school\Active_Bike_Lighting_System\Radar_Core/Libraries/CMSIS/Include\core_cmSimd.h **** #if   defined ( __CC_ARM ) /*------------------RealView Compiler -----------------*/
  62:C:\Users\Depes Crystalline\Desktop\school\Active_Bike_Lighting_System\Radar_Core/Libraries/CMSIS/Include\core_cmSimd.h **** /* ARM armcc specific functions */
  63:C:\Users\Depes Crystalline\Desktop\school\Active_Bike_Lighting_System\Radar_Core/Libraries/CMSIS/Include\core_cmSimd.h **** #define __SADD8                           __sadd8
  64:C:\Users\Depes Crystalline\Desktop\school\Active_Bike_Lighting_System\Radar_Core/Libraries/CMSIS/Include\core_cmSimd.h **** #define __QADD8                           __qadd8
  65:C:\Users\Depes Crystalline\Desktop\school\Active_Bike_Lighting_System\Radar_Core/Libraries/CMSIS/Include\core_cmSimd.h **** #define __SHADD8                          __shadd8
  66:C:\Users\Depes Crystalline\Desktop\school\Active_Bike_Lighting_System\Radar_Core/Libraries/CMSIS/Include\core_cmSimd.h **** #define __UADD8                           __uadd8
  67:C:\Users\Depes Crystalline\Desktop\school\Active_Bike_Lighting_System\Radar_Core/Libraries/CMSIS/Include\core_cmSimd.h **** #define __UQADD8                          __uqadd8
  68:C:\Users\Depes Crystalline\Desktop\school\Active_Bike_Lighting_System\Radar_Core/Libraries/CMSIS/Include\core_cmSimd.h **** #define __UHADD8                          __uhadd8
  69:C:\Users\Depes Crystalline\Desktop\school\Active_Bike_Lighting_System\Radar_Core/Libraries/CMSIS/Include\core_cmSimd.h **** #define __SSUB8                           __ssub8
  70:C:\Users\Depes Crystalline\Desktop\school\Active_Bike_Lighting_System\Radar_Core/Libraries/CMSIS/Include\core_cmSimd.h **** #define __QSUB8                           __qsub8
  71:C:\Users\Depes Crystalline\Desktop\school\Active_Bike_Lighting_System\Radar_Core/Libraries/CMSIS/Include\core_cmSimd.h **** #define __SHSUB8                          __shsub8
  72:C:\Users\Depes Crystalline\Desktop\school\Active_Bike_Lighting_System\Radar_Core/Libraries/CMSIS/Include\core_cmSimd.h **** #define __USUB8                           __usub8
  73:C:\Users\Depes Crystalline\Desktop\school\Active_Bike_Lighting_System\Radar_Core/Libraries/CMSIS/Include\core_cmSimd.h **** #define __UQSUB8                          __uqsub8
  74:C:\Users\Depes Crystalline\Desktop\school\Active_Bike_Lighting_System\Radar_Core/Libraries/CMSIS/Include\core_cmSimd.h **** #define __UHSUB8                          __uhsub8
  75:C:\Users\Depes Crystalline\Desktop\school\Active_Bike_Lighting_System\Radar_Core/Libraries/CMSIS/Include\core_cmSimd.h **** #define __SADD16                          __sadd16
  76:C:\Users\Depes Crystalline\Desktop\school\Active_Bike_Lighting_System\Radar_Core/Libraries/CMSIS/Include\core_cmSimd.h **** #define __QADD16                          __qadd16
  77:C:\Users\Depes Crystalline\Desktop\school\Active_Bike_Lighting_System\Radar_Core/Libraries/CMSIS/Include\core_cmSimd.h **** #define __SHADD16                         __shadd16
  78:C:\Users\Depes Crystalline\Desktop\school\Active_Bike_Lighting_System\Radar_Core/Libraries/CMSIS/Include\core_cmSimd.h **** #define __UADD16                          __uadd16
  79:C:\Users\Depes Crystalline\Desktop\school\Active_Bike_Lighting_System\Radar_Core/Libraries/CMSIS/Include\core_cmSimd.h **** #define __UQADD16                         __uqadd16
  80:C:\Users\Depes Crystalline\Desktop\school\Active_Bike_Lighting_System\Radar_Core/Libraries/CMSIS/Include\core_cmSimd.h **** #define __UHADD16                         __uhadd16
  81:C:\Users\Depes Crystalline\Desktop\school\Active_Bike_Lighting_System\Radar_Core/Libraries/CMSIS/Include\core_cmSimd.h **** #define __SSUB16                          __ssub16
  82:C:\Users\Depes Crystalline\Desktop\school\Active_Bike_Lighting_System\Radar_Core/Libraries/CMSIS/Include\core_cmSimd.h **** #define __QSUB16                          __qsub16
  83:C:\Users\Depes Crystalline\Desktop\school\Active_Bike_Lighting_System\Radar_Core/Libraries/CMSIS/Include\core_cmSimd.h **** #define __SHSUB16                         __shsub16
  84:C:\Users\Depes Crystalline\Desktop\school\Active_Bike_Lighting_System\Radar_Core/Libraries/CMSIS/Include\core_cmSimd.h **** #define __USUB16                          __usub16
  85:C:\Users\Depes Crystalline\Desktop\school\Active_Bike_Lighting_System\Radar_Core/Libraries/CMSIS/Include\core_cmSimd.h **** #define __UQSUB16                         __uqsub16
  86:C:\Users\Depes Crystalline\Desktop\school\Active_Bike_Lighting_System\Radar_Core/Libraries/CMSIS/Include\core_cmSimd.h **** #define __UHSUB16                         __uhsub16
  87:C:\Users\Depes Crystalline\Desktop\school\Active_Bike_Lighting_System\Radar_Core/Libraries/CMSIS/Include\core_cmSimd.h **** #define __SASX                            __sasx
  88:C:\Users\Depes Crystalline\Desktop\school\Active_Bike_Lighting_System\Radar_Core/Libraries/CMSIS/Include\core_cmSimd.h **** #define __QASX                            __qasx
  89:C:\Users\Depes Crystalline\Desktop\school\Active_Bike_Lighting_System\Radar_Core/Libraries/CMSIS/Include\core_cmSimd.h **** #define __SHASX                           __shasx
  90:C:\Users\Depes Crystalline\Desktop\school\Active_Bike_Lighting_System\Radar_Core/Libraries/CMSIS/Include\core_cmSimd.h **** #define __UASX                            __uasx
  91:C:\Users\Depes Crystalline\Desktop\school\Active_Bike_Lighting_System\Radar_Core/Libraries/CMSIS/Include\core_cmSimd.h **** #define __UQASX                           __uqasx
  92:C:\Users\Depes Crystalline\Desktop\school\Active_Bike_Lighting_System\Radar_Core/Libraries/CMSIS/Include\core_cmSimd.h **** #define __UHASX                           __uhasx
  93:C:\Users\Depes Crystalline\Desktop\school\Active_Bike_Lighting_System\Radar_Core/Libraries/CMSIS/Include\core_cmSimd.h **** #define __SSAX                            __ssax
  94:C:\Users\Depes Crystalline\Desktop\school\Active_Bike_Lighting_System\Radar_Core/Libraries/CMSIS/Include\core_cmSimd.h **** #define __QSAX                            __qsax
  95:C:\Users\Depes Crystalline\Desktop\school\Active_Bike_Lighting_System\Radar_Core/Libraries/CMSIS/Include\core_cmSimd.h **** #define __SHSAX                           __shsax
  96:C:\Users\Depes Crystalline\Desktop\school\Active_Bike_Lighting_System\Radar_Core/Libraries/CMSIS/Include\core_cmSimd.h **** #define __USAX                            __usax
  97:C:\Users\Depes Crystalline\Desktop\school\Active_Bike_Lighting_System\Radar_Core/Libraries/CMSIS/Include\core_cmSimd.h **** #define __UQSAX                           __uqsax
  98:C:\Users\Depes Crystalline\Desktop\school\Active_Bike_Lighting_System\Radar_Core/Libraries/CMSIS/Include\core_cmSimd.h **** #define __UHSAX                           __uhsax
  99:C:\Users\Depes Crystalline\Desktop\school\Active_Bike_Lighting_System\Radar_Core/Libraries/CMSIS/Include\core_cmSimd.h **** #define __USAD8                           __usad8
 100:C:\Users\Depes Crystalline\Desktop\school\Active_Bike_Lighting_System\Radar_Core/Libraries/CMSIS/Include\core_cmSimd.h **** #define __USADA8                          __usada8
 101:C:\Users\Depes Crystalline\Desktop\school\Active_Bike_Lighting_System\Radar_Core/Libraries/CMSIS/Include\core_cmSimd.h **** #define __SSAT16                          __ssat16
 102:C:\Users\Depes Crystalline\Desktop\school\Active_Bike_Lighting_System\Radar_Core/Libraries/CMSIS/Include\core_cmSimd.h **** #define __USAT16                          __usat16
 103:C:\Users\Depes Crystalline\Desktop\school\Active_Bike_Lighting_System\Radar_Core/Libraries/CMSIS/Include\core_cmSimd.h **** #define __UXTB16                          __uxtb16
 104:C:\Users\Depes Crystalline\Desktop\school\Active_Bike_Lighting_System\Radar_Core/Libraries/CMSIS/Include\core_cmSimd.h **** #define __UXTAB16                         __uxtab16
 105:C:\Users\Depes Crystalline\Desktop\school\Active_Bike_Lighting_System\Radar_Core/Libraries/CMSIS/Include\core_cmSimd.h **** #define __SXTB16                          __sxtb16
 106:C:\Users\Depes Crystalline\Desktop\school\Active_Bike_Lighting_System\Radar_Core/Libraries/CMSIS/Include\core_cmSimd.h **** #define __SXTAB16                         __sxtab16
 107:C:\Users\Depes Crystalline\Desktop\school\Active_Bike_Lighting_System\Radar_Core/Libraries/CMSIS/Include\core_cmSimd.h **** #define __SMUAD                           __smuad
 108:C:\Users\Depes Crystalline\Desktop\school\Active_Bike_Lighting_System\Radar_Core/Libraries/CMSIS/Include\core_cmSimd.h **** #define __SMUADX                          __smuadx
 109:C:\Users\Depes Crystalline\Desktop\school\Active_Bike_Lighting_System\Radar_Core/Libraries/CMSIS/Include\core_cmSimd.h **** #define __SMLAD                           __smlad
 110:C:\Users\Depes Crystalline\Desktop\school\Active_Bike_Lighting_System\Radar_Core/Libraries/CMSIS/Include\core_cmSimd.h **** #define __SMLADX                          __smladx
 111:C:\Users\Depes Crystalline\Desktop\school\Active_Bike_Lighting_System\Radar_Core/Libraries/CMSIS/Include\core_cmSimd.h **** #define __SMLALD                          __smlald
 112:C:\Users\Depes Crystalline\Desktop\school\Active_Bike_Lighting_System\Radar_Core/Libraries/CMSIS/Include\core_cmSimd.h **** #define __SMLALDX                         __smlaldx
 113:C:\Users\Depes Crystalline\Desktop\school\Active_Bike_Lighting_System\Radar_Core/Libraries/CMSIS/Include\core_cmSimd.h **** #define __SMUSD                           __smusd
 114:C:\Users\Depes Crystalline\Desktop\school\Active_Bike_Lighting_System\Radar_Core/Libraries/CMSIS/Include\core_cmSimd.h **** #define __SMUSDX                          __smusdx
 115:C:\Users\Depes Crystalline\Desktop\school\Active_Bike_Lighting_System\Radar_Core/Libraries/CMSIS/Include\core_cmSimd.h **** #define __SMLSD                           __smlsd
 116:C:\Users\Depes Crystalline\Desktop\school\Active_Bike_Lighting_System\Radar_Core/Libraries/CMSIS/Include\core_cmSimd.h **** #define __SMLSDX                          __smlsdx
 117:C:\Users\Depes Crystalline\Desktop\school\Active_Bike_Lighting_System\Radar_Core/Libraries/CMSIS/Include\core_cmSimd.h **** #define __SMLSLD                          __smlsld
 118:C:\Users\Depes Crystalline\Desktop\school\Active_Bike_Lighting_System\Radar_Core/Libraries/CMSIS/Include\core_cmSimd.h **** #define __SMLSLDX                         __smlsldx
 119:C:\Users\Depes Crystalline\Desktop\school\Active_Bike_Lighting_System\Radar_Core/Libraries/CMSIS/Include\core_cmSimd.h **** #define __SEL                             __sel
 120:C:\Users\Depes Crystalline\Desktop\school\Active_Bike_Lighting_System\Radar_Core/Libraries/CMSIS/Include\core_cmSimd.h **** #define __QADD                            __qadd
 121:C:\Users\Depes Crystalline\Desktop\school\Active_Bike_Lighting_System\Radar_Core/Libraries/CMSIS/Include\core_cmSimd.h **** #define __QSUB                            __qsub
 122:C:\Users\Depes Crystalline\Desktop\school\Active_Bike_Lighting_System\Radar_Core/Libraries/CMSIS/Include\core_cmSimd.h **** 
 123:C:\Users\Depes Crystalline\Desktop\school\Active_Bike_Lighting_System\Radar_Core/Libraries/CMSIS/Include\core_cmSimd.h **** #define __PKHBT(ARG1,ARG2,ARG3)          ( ((((uint32_t)(ARG1))          ) & 0x0000FFFFUL) |  \
 124:C:\Users\Depes Crystalline\Desktop\school\Active_Bike_Lighting_System\Radar_Core/Libraries/CMSIS/Include\core_cmSimd.h ****                                            ((((uint32_t)(ARG2)) << (ARG3)) & 0xFFFF0000UL)  )
 125:C:\Users\Depes Crystalline\Desktop\school\Active_Bike_Lighting_System\Radar_Core/Libraries/CMSIS/Include\core_cmSimd.h **** 
 126:C:\Users\Depes Crystalline\Desktop\school\Active_Bike_Lighting_System\Radar_Core/Libraries/CMSIS/Include\core_cmSimd.h **** #define __PKHTB(ARG1,ARG2,ARG3)          ( ((((uint32_t)(ARG1))          ) & 0xFFFF0000UL) |  \
 127:C:\Users\Depes Crystalline\Desktop\school\Active_Bike_Lighting_System\Radar_Core/Libraries/CMSIS/Include\core_cmSimd.h ****                                            ((((uint32_t)(ARG2)) >> (ARG3)) & 0x0000FFFFUL)  )
 128:C:\Users\Depes Crystalline\Desktop\school\Active_Bike_Lighting_System\Radar_Core/Libraries/CMSIS/Include\core_cmSimd.h **** 
 129:C:\Users\Depes Crystalline\Desktop\school\Active_Bike_Lighting_System\Radar_Core/Libraries/CMSIS/Include\core_cmSimd.h **** #define __SMMLA(ARG1,ARG2,ARG3)          ( (int32_t)((((int64_t)(ARG1) * (ARG2)) + \
 130:C:\Users\Depes Crystalline\Desktop\school\Active_Bike_Lighting_System\Radar_Core/Libraries/CMSIS/Include\core_cmSimd.h ****                                                       ((int64_t)(ARG3) << 32)      ) >> 32))
 131:C:\Users\Depes Crystalline\Desktop\school\Active_Bike_Lighting_System\Radar_Core/Libraries/CMSIS/Include\core_cmSimd.h **** 
 132:C:\Users\Depes Crystalline\Desktop\school\Active_Bike_Lighting_System\Radar_Core/Libraries/CMSIS/Include\core_cmSimd.h **** 
 133:C:\Users\Depes Crystalline\Desktop\school\Active_Bike_Lighting_System\Radar_Core/Libraries/CMSIS/Include\core_cmSimd.h **** #elif defined ( __GNUC__ ) /*------------------ GNU Compiler ---------------------*/
 134:C:\Users\Depes Crystalline\Desktop\school\Active_Bike_Lighting_System\Radar_Core/Libraries/CMSIS/Include\core_cmSimd.h **** /* GNU gcc specific functions */
 135:C:\Users\Depes Crystalline\Desktop\school\Active_Bike_Lighting_System\Radar_Core/Libraries/CMSIS/Include\core_cmSimd.h **** __attribute__( ( always_inline ) ) __STATIC_INLINE uint32_t __SADD8(uint32_t op1, uint32_t op2)
 136:C:\Users\Depes Crystalline\Desktop\school\Active_Bike_Lighting_System\Radar_Core/Libraries/CMSIS/Include\core_cmSimd.h **** {
 137:C:\Users\Depes Crystalline\Desktop\school\Active_Bike_Lighting_System\Radar_Core/Libraries/CMSIS/Include\core_cmSimd.h ****   uint32_t result;
 138:C:\Users\Depes Crystalline\Desktop\school\Active_Bike_Lighting_System\Radar_Core/Libraries/CMSIS/Include\core_cmSimd.h **** 
 139:C:\Users\Depes Crystalline\Desktop\school\Active_Bike_Lighting_System\Radar_Core/Libraries/CMSIS/Include\core_cmSimd.h ****   __ASM volatile ("sadd8 %0, %1, %2" : "=r" (result) : "r" (op1), "r" (op2) );
 140:C:\Users\Depes Crystalline\Desktop\school\Active_Bike_Lighting_System\Radar_Core/Libraries/CMSIS/Include\core_cmSimd.h ****   return(result);
 141:C:\Users\Depes Crystalline\Desktop\school\Active_Bike_Lighting_System\Radar_Core/Libraries/CMSIS/Include\core_cmSimd.h **** }
 142:C:\Users\Depes Crystalline\Desktop\school\Active_Bike_Lighting_System\Radar_Core/Libraries/CMSIS/Include\core_cmSimd.h **** 
 143:C:\Users\Depes Crystalline\Desktop\school\Active_Bike_Lighting_System\Radar_Core/Libraries/CMSIS/Include\core_cmSimd.h **** __attribute__( ( always_inline ) ) __STATIC_INLINE uint32_t __QADD8(uint32_t op1, uint32_t op2)
 144:C:\Users\Depes Crystalline\Desktop\school\Active_Bike_Lighting_System\Radar_Core/Libraries/CMSIS/Include\core_cmSimd.h **** {
 145:C:\Users\Depes Crystalline\Desktop\school\Active_Bike_Lighting_System\Radar_Core/Libraries/CMSIS/Include\core_cmSimd.h ****   uint32_t result;
 146:C:\Users\Depes Crystalline\Desktop\school\Active_Bike_Lighting_System\Radar_Core/Libraries/CMSIS/Include\core_cmSimd.h **** 
 147:C:\Users\Depes Crystalline\Desktop\school\Active_Bike_Lighting_System\Radar_Core/Libraries/CMSIS/Include\core_cmSimd.h ****   __ASM volatile ("qadd8 %0, %1, %2" : "=r" (result) : "r" (op1), "r" (op2) );
 148:C:\Users\Depes Crystalline\Desktop\school\Active_Bike_Lighting_System\Radar_Core/Libraries/CMSIS/Include\core_cmSimd.h ****   return(result);
 149:C:\Users\Depes Crystalline\Desktop\school\Active_Bike_Lighting_System\Radar_Core/Libraries/CMSIS/Include\core_cmSimd.h **** }
 150:C:\Users\Depes Crystalline\Desktop\school\Active_Bike_Lighting_System\Radar_Core/Libraries/CMSIS/Include\core_cmSimd.h **** 
 151:C:\Users\Depes Crystalline\Desktop\school\Active_Bike_Lighting_System\Radar_Core/Libraries/CMSIS/Include\core_cmSimd.h **** __attribute__( ( always_inline ) ) __STATIC_INLINE uint32_t __SHADD8(uint32_t op1, uint32_t op2)
 152:C:\Users\Depes Crystalline\Desktop\school\Active_Bike_Lighting_System\Radar_Core/Libraries/CMSIS/Include\core_cmSimd.h **** {
 153:C:\Users\Depes Crystalline\Desktop\school\Active_Bike_Lighting_System\Radar_Core/Libraries/CMSIS/Include\core_cmSimd.h ****   uint32_t result;
 154:C:\Users\Depes Crystalline\Desktop\school\Active_Bike_Lighting_System\Radar_Core/Libraries/CMSIS/Include\core_cmSimd.h **** 
 155:C:\Users\Depes Crystalline\Desktop\school\Active_Bike_Lighting_System\Radar_Core/Libraries/CMSIS/Include\core_cmSimd.h ****   __ASM volatile ("shadd8 %0, %1, %2" : "=r" (result) : "r" (op1), "r" (op2) );
 156:C:\Users\Depes Crystalline\Desktop\school\Active_Bike_Lighting_System\Radar_Core/Libraries/CMSIS/Include\core_cmSimd.h ****   return(result);
 157:C:\Users\Depes Crystalline\Desktop\school\Active_Bike_Lighting_System\Radar_Core/Libraries/CMSIS/Include\core_cmSimd.h **** }
 158:C:\Users\Depes Crystalline\Desktop\school\Active_Bike_Lighting_System\Radar_Core/Libraries/CMSIS/Include\core_cmSimd.h **** 
 159:C:\Users\Depes Crystalline\Desktop\school\Active_Bike_Lighting_System\Radar_Core/Libraries/CMSIS/Include\core_cmSimd.h **** __attribute__( ( always_inline ) ) __STATIC_INLINE uint32_t __UADD8(uint32_t op1, uint32_t op2)
 160:C:\Users\Depes Crystalline\Desktop\school\Active_Bike_Lighting_System\Radar_Core/Libraries/CMSIS/Include\core_cmSimd.h **** {
 161:C:\Users\Depes Crystalline\Desktop\school\Active_Bike_Lighting_System\Radar_Core/Libraries/CMSIS/Include\core_cmSimd.h ****   uint32_t result;
 162:C:\Users\Depes Crystalline\Desktop\school\Active_Bike_Lighting_System\Radar_Core/Libraries/CMSIS/Include\core_cmSimd.h **** 
 163:C:\Users\Depes Crystalline\Desktop\school\Active_Bike_Lighting_System\Radar_Core/Libraries/CMSIS/Include\core_cmSimd.h ****   __ASM volatile ("uadd8 %0, %1, %2" : "=r" (result) : "r" (op1), "r" (op2) );
 164:C:\Users\Depes Crystalline\Desktop\school\Active_Bike_Lighting_System\Radar_Core/Libraries/CMSIS/Include\core_cmSimd.h ****   return(result);
 165:C:\Users\Depes Crystalline\Desktop\school\Active_Bike_Lighting_System\Radar_Core/Libraries/CMSIS/Include\core_cmSimd.h **** }
 166:C:\Users\Depes Crystalline\Desktop\school\Active_Bike_Lighting_System\Radar_Core/Libraries/CMSIS/Include\core_cmSimd.h **** 
 167:C:\Users\Depes Crystalline\Desktop\school\Active_Bike_Lighting_System\Radar_Core/Libraries/CMSIS/Include\core_cmSimd.h **** __attribute__( ( always_inline ) ) __STATIC_INLINE uint32_t __UQADD8(uint32_t op1, uint32_t op2)
 168:C:\Users\Depes Crystalline\Desktop\school\Active_Bike_Lighting_System\Radar_Core/Libraries/CMSIS/Include\core_cmSimd.h **** {
 169:C:\Users\Depes Crystalline\Desktop\school\Active_Bike_Lighting_System\Radar_Core/Libraries/CMSIS/Include\core_cmSimd.h ****   uint32_t result;
 170:C:\Users\Depes Crystalline\Desktop\school\Active_Bike_Lighting_System\Radar_Core/Libraries/CMSIS/Include\core_cmSimd.h **** 
 171:C:\Users\Depes Crystalline\Desktop\school\Active_Bike_Lighting_System\Radar_Core/Libraries/CMSIS/Include\core_cmSimd.h ****   __ASM volatile ("uqadd8 %0, %1, %2" : "=r" (result) : "r" (op1), "r" (op2) );
 172:C:\Users\Depes Crystalline\Desktop\school\Active_Bike_Lighting_System\Radar_Core/Libraries/CMSIS/Include\core_cmSimd.h ****   return(result);
 173:C:\Users\Depes Crystalline\Desktop\school\Active_Bike_Lighting_System\Radar_Core/Libraries/CMSIS/Include\core_cmSimd.h **** }
 174:C:\Users\Depes Crystalline\Desktop\school\Active_Bike_Lighting_System\Radar_Core/Libraries/CMSIS/Include\core_cmSimd.h **** 
 175:C:\Users\Depes Crystalline\Desktop\school\Active_Bike_Lighting_System\Radar_Core/Libraries/CMSIS/Include\core_cmSimd.h **** __attribute__( ( always_inline ) ) __STATIC_INLINE uint32_t __UHADD8(uint32_t op1, uint32_t op2)
 176:C:\Users\Depes Crystalline\Desktop\school\Active_Bike_Lighting_System\Radar_Core/Libraries/CMSIS/Include\core_cmSimd.h **** {
 177:C:\Users\Depes Crystalline\Desktop\school\Active_Bike_Lighting_System\Radar_Core/Libraries/CMSIS/Include\core_cmSimd.h ****   uint32_t result;
 178:C:\Users\Depes Crystalline\Desktop\school\Active_Bike_Lighting_System\Radar_Core/Libraries/CMSIS/Include\core_cmSimd.h **** 
 179:C:\Users\Depes Crystalline\Desktop\school\Active_Bike_Lighting_System\Radar_Core/Libraries/CMSIS/Include\core_cmSimd.h ****   __ASM volatile ("uhadd8 %0, %1, %2" : "=r" (result) : "r" (op1), "r" (op2) );
 180:C:\Users\Depes Crystalline\Desktop\school\Active_Bike_Lighting_System\Radar_Core/Libraries/CMSIS/Include\core_cmSimd.h ****   return(result);
 181:C:\Users\Depes Crystalline\Desktop\school\Active_Bike_Lighting_System\Radar_Core/Libraries/CMSIS/Include\core_cmSimd.h **** }
 182:C:\Users\Depes Crystalline\Desktop\school\Active_Bike_Lighting_System\Radar_Core/Libraries/CMSIS/Include\core_cmSimd.h **** 
 183:C:\Users\Depes Crystalline\Desktop\school\Active_Bike_Lighting_System\Radar_Core/Libraries/CMSIS/Include\core_cmSimd.h **** 
 184:C:\Users\Depes Crystalline\Desktop\school\Active_Bike_Lighting_System\Radar_Core/Libraries/CMSIS/Include\core_cmSimd.h **** __attribute__( ( always_inline ) ) __STATIC_INLINE uint32_t __SSUB8(uint32_t op1, uint32_t op2)
 185:C:\Users\Depes Crystalline\Desktop\school\Active_Bike_Lighting_System\Radar_Core/Libraries/CMSIS/Include\core_cmSimd.h **** {
 186:C:\Users\Depes Crystalline\Desktop\school\Active_Bike_Lighting_System\Radar_Core/Libraries/CMSIS/Include\core_cmSimd.h ****   uint32_t result;
 187:C:\Users\Depes Crystalline\Desktop\school\Active_Bike_Lighting_System\Radar_Core/Libraries/CMSIS/Include\core_cmSimd.h **** 
 188:C:\Users\Depes Crystalline\Desktop\school\Active_Bike_Lighting_System\Radar_Core/Libraries/CMSIS/Include\core_cmSimd.h ****   __ASM volatile ("ssub8 %0, %1, %2" : "=r" (result) : "r" (op1), "r" (op2) );
 189:C:\Users\Depes Crystalline\Desktop\school\Active_Bike_Lighting_System\Radar_Core/Libraries/CMSIS/Include\core_cmSimd.h ****   return(result);
 190:C:\Users\Depes Crystalline\Desktop\school\Active_Bike_Lighting_System\Radar_Core/Libraries/CMSIS/Include\core_cmSimd.h **** }
 191:C:\Users\Depes Crystalline\Desktop\school\Active_Bike_Lighting_System\Radar_Core/Libraries/CMSIS/Include\core_cmSimd.h **** 
 192:C:\Users\Depes Crystalline\Desktop\school\Active_Bike_Lighting_System\Radar_Core/Libraries/CMSIS/Include\core_cmSimd.h **** __attribute__( ( always_inline ) ) __STATIC_INLINE uint32_t __QSUB8(uint32_t op1, uint32_t op2)
 193:C:\Users\Depes Crystalline\Desktop\school\Active_Bike_Lighting_System\Radar_Core/Libraries/CMSIS/Include\core_cmSimd.h **** {
 194:C:\Users\Depes Crystalline\Desktop\school\Active_Bike_Lighting_System\Radar_Core/Libraries/CMSIS/Include\core_cmSimd.h ****   uint32_t result;
 195:C:\Users\Depes Crystalline\Desktop\school\Active_Bike_Lighting_System\Radar_Core/Libraries/CMSIS/Include\core_cmSimd.h **** 
 196:C:\Users\Depes Crystalline\Desktop\school\Active_Bike_Lighting_System\Radar_Core/Libraries/CMSIS/Include\core_cmSimd.h ****   __ASM volatile ("qsub8 %0, %1, %2" : "=r" (result) : "r" (op1), "r" (op2) );
 197:C:\Users\Depes Crystalline\Desktop\school\Active_Bike_Lighting_System\Radar_Core/Libraries/CMSIS/Include\core_cmSimd.h ****   return(result);
 198:C:\Users\Depes Crystalline\Desktop\school\Active_Bike_Lighting_System\Radar_Core/Libraries/CMSIS/Include\core_cmSimd.h **** }
 199:C:\Users\Depes Crystalline\Desktop\school\Active_Bike_Lighting_System\Radar_Core/Libraries/CMSIS/Include\core_cmSimd.h **** 
 200:C:\Users\Depes Crystalline\Desktop\school\Active_Bike_Lighting_System\Radar_Core/Libraries/CMSIS/Include\core_cmSimd.h **** __attribute__( ( always_inline ) ) __STATIC_INLINE uint32_t __SHSUB8(uint32_t op1, uint32_t op2)
 201:C:\Users\Depes Crystalline\Desktop\school\Active_Bike_Lighting_System\Radar_Core/Libraries/CMSIS/Include\core_cmSimd.h **** {
 202:C:\Users\Depes Crystalline\Desktop\school\Active_Bike_Lighting_System\Radar_Core/Libraries/CMSIS/Include\core_cmSimd.h ****   uint32_t result;
 203:C:\Users\Depes Crystalline\Desktop\school\Active_Bike_Lighting_System\Radar_Core/Libraries/CMSIS/Include\core_cmSimd.h **** 
 204:C:\Users\Depes Crystalline\Desktop\school\Active_Bike_Lighting_System\Radar_Core/Libraries/CMSIS/Include\core_cmSimd.h ****   __ASM volatile ("shsub8 %0, %1, %2" : "=r" (result) : "r" (op1), "r" (op2) );
 205:C:\Users\Depes Crystalline\Desktop\school\Active_Bike_Lighting_System\Radar_Core/Libraries/CMSIS/Include\core_cmSimd.h ****   return(result);
 206:C:\Users\Depes Crystalline\Desktop\school\Active_Bike_Lighting_System\Radar_Core/Libraries/CMSIS/Include\core_cmSimd.h **** }
 207:C:\Users\Depes Crystalline\Desktop\school\Active_Bike_Lighting_System\Radar_Core/Libraries/CMSIS/Include\core_cmSimd.h **** 
 208:C:\Users\Depes Crystalline\Desktop\school\Active_Bike_Lighting_System\Radar_Core/Libraries/CMSIS/Include\core_cmSimd.h **** __attribute__( ( always_inline ) ) __STATIC_INLINE uint32_t __USUB8(uint32_t op1, uint32_t op2)
 209:C:\Users\Depes Crystalline\Desktop\school\Active_Bike_Lighting_System\Radar_Core/Libraries/CMSIS/Include\core_cmSimd.h **** {
 210:C:\Users\Depes Crystalline\Desktop\school\Active_Bike_Lighting_System\Radar_Core/Libraries/CMSIS/Include\core_cmSimd.h ****   uint32_t result;
 211:C:\Users\Depes Crystalline\Desktop\school\Active_Bike_Lighting_System\Radar_Core/Libraries/CMSIS/Include\core_cmSimd.h **** 
 212:C:\Users\Depes Crystalline\Desktop\school\Active_Bike_Lighting_System\Radar_Core/Libraries/CMSIS/Include\core_cmSimd.h ****   __ASM volatile ("usub8 %0, %1, %2" : "=r" (result) : "r" (op1), "r" (op2) );
 213:C:\Users\Depes Crystalline\Desktop\school\Active_Bike_Lighting_System\Radar_Core/Libraries/CMSIS/Include\core_cmSimd.h ****   return(result);
 214:C:\Users\Depes Crystalline\Desktop\school\Active_Bike_Lighting_System\Radar_Core/Libraries/CMSIS/Include\core_cmSimd.h **** }
 215:C:\Users\Depes Crystalline\Desktop\school\Active_Bike_Lighting_System\Radar_Core/Libraries/CMSIS/Include\core_cmSimd.h **** 
 216:C:\Users\Depes Crystalline\Desktop\school\Active_Bike_Lighting_System\Radar_Core/Libraries/CMSIS/Include\core_cmSimd.h **** __attribute__( ( always_inline ) ) __STATIC_INLINE uint32_t __UQSUB8(uint32_t op1, uint32_t op2)
 217:C:\Users\Depes Crystalline\Desktop\school\Active_Bike_Lighting_System\Radar_Core/Libraries/CMSIS/Include\core_cmSimd.h **** {
 218:C:\Users\Depes Crystalline\Desktop\school\Active_Bike_Lighting_System\Radar_Core/Libraries/CMSIS/Include\core_cmSimd.h ****   uint32_t result;
 219:C:\Users\Depes Crystalline\Desktop\school\Active_Bike_Lighting_System\Radar_Core/Libraries/CMSIS/Include\core_cmSimd.h **** 
 220:C:\Users\Depes Crystalline\Desktop\school\Active_Bike_Lighting_System\Radar_Core/Libraries/CMSIS/Include\core_cmSimd.h ****   __ASM volatile ("uqsub8 %0, %1, %2" : "=r" (result) : "r" (op1), "r" (op2) );
 221:C:\Users\Depes Crystalline\Desktop\school\Active_Bike_Lighting_System\Radar_Core/Libraries/CMSIS/Include\core_cmSimd.h ****   return(result);
 222:C:\Users\Depes Crystalline\Desktop\school\Active_Bike_Lighting_System\Radar_Core/Libraries/CMSIS/Include\core_cmSimd.h **** }
 223:C:\Users\Depes Crystalline\Desktop\school\Active_Bike_Lighting_System\Radar_Core/Libraries/CMSIS/Include\core_cmSimd.h **** 
 224:C:\Users\Depes Crystalline\Desktop\school\Active_Bike_Lighting_System\Radar_Core/Libraries/CMSIS/Include\core_cmSimd.h **** __attribute__( ( always_inline ) ) __STATIC_INLINE uint32_t __UHSUB8(uint32_t op1, uint32_t op2)
 225:C:\Users\Depes Crystalline\Desktop\school\Active_Bike_Lighting_System\Radar_Core/Libraries/CMSIS/Include\core_cmSimd.h **** {
 226:C:\Users\Depes Crystalline\Desktop\school\Active_Bike_Lighting_System\Radar_Core/Libraries/CMSIS/Include\core_cmSimd.h ****   uint32_t result;
 227:C:\Users\Depes Crystalline\Desktop\school\Active_Bike_Lighting_System\Radar_Core/Libraries/CMSIS/Include\core_cmSimd.h **** 
 228:C:\Users\Depes Crystalline\Desktop\school\Active_Bike_Lighting_System\Radar_Core/Libraries/CMSIS/Include\core_cmSimd.h ****   __ASM volatile ("uhsub8 %0, %1, %2" : "=r" (result) : "r" (op1), "r" (op2) );
 229:C:\Users\Depes Crystalline\Desktop\school\Active_Bike_Lighting_System\Radar_Core/Libraries/CMSIS/Include\core_cmSimd.h ****   return(result);
 230:C:\Users\Depes Crystalline\Desktop\school\Active_Bike_Lighting_System\Radar_Core/Libraries/CMSIS/Include\core_cmSimd.h **** }
 231:C:\Users\Depes Crystalline\Desktop\school\Active_Bike_Lighting_System\Radar_Core/Libraries/CMSIS/Include\core_cmSimd.h **** 
 232:C:\Users\Depes Crystalline\Desktop\school\Active_Bike_Lighting_System\Radar_Core/Libraries/CMSIS/Include\core_cmSimd.h **** 
 233:C:\Users\Depes Crystalline\Desktop\school\Active_Bike_Lighting_System\Radar_Core/Libraries/CMSIS/Include\core_cmSimd.h **** __attribute__( ( always_inline ) ) __STATIC_INLINE uint32_t __SADD16(uint32_t op1, uint32_t op2)
 234:C:\Users\Depes Crystalline\Desktop\school\Active_Bike_Lighting_System\Radar_Core/Libraries/CMSIS/Include\core_cmSimd.h **** {
 235:C:\Users\Depes Crystalline\Desktop\school\Active_Bike_Lighting_System\Radar_Core/Libraries/CMSIS/Include\core_cmSimd.h ****   uint32_t result;
 236:C:\Users\Depes Crystalline\Desktop\school\Active_Bike_Lighting_System\Radar_Core/Libraries/CMSIS/Include\core_cmSimd.h **** 
 237:C:\Users\Depes Crystalline\Desktop\school\Active_Bike_Lighting_System\Radar_Core/Libraries/CMSIS/Include\core_cmSimd.h ****   __ASM volatile ("sadd16 %0, %1, %2" : "=r" (result) : "r" (op1), "r" (op2) );
 238:C:\Users\Depes Crystalline\Desktop\school\Active_Bike_Lighting_System\Radar_Core/Libraries/CMSIS/Include\core_cmSimd.h ****   return(result);
 239:C:\Users\Depes Crystalline\Desktop\school\Active_Bike_Lighting_System\Radar_Core/Libraries/CMSIS/Include\core_cmSimd.h **** }
 240:C:\Users\Depes Crystalline\Desktop\school\Active_Bike_Lighting_System\Radar_Core/Libraries/CMSIS/Include\core_cmSimd.h **** 
 241:C:\Users\Depes Crystalline\Desktop\school\Active_Bike_Lighting_System\Radar_Core/Libraries/CMSIS/Include\core_cmSimd.h **** __attribute__( ( always_inline ) ) __STATIC_INLINE uint32_t __QADD16(uint32_t op1, uint32_t op2)
 242:C:\Users\Depes Crystalline\Desktop\school\Active_Bike_Lighting_System\Radar_Core/Libraries/CMSIS/Include\core_cmSimd.h **** {
 243:C:\Users\Depes Crystalline\Desktop\school\Active_Bike_Lighting_System\Radar_Core/Libraries/CMSIS/Include\core_cmSimd.h ****   uint32_t result;
 244:C:\Users\Depes Crystalline\Desktop\school\Active_Bike_Lighting_System\Radar_Core/Libraries/CMSIS/Include\core_cmSimd.h **** 
 245:C:\Users\Depes Crystalline\Desktop\school\Active_Bike_Lighting_System\Radar_Core/Libraries/CMSIS/Include\core_cmSimd.h ****   __ASM volatile ("qadd16 %0, %1, %2" : "=r" (result) : "r" (op1), "r" (op2) );
 246:C:\Users\Depes Crystalline\Desktop\school\Active_Bike_Lighting_System\Radar_Core/Libraries/CMSIS/Include\core_cmSimd.h ****   return(result);
 247:C:\Users\Depes Crystalline\Desktop\school\Active_Bike_Lighting_System\Radar_Core/Libraries/CMSIS/Include\core_cmSimd.h **** }
 248:C:\Users\Depes Crystalline\Desktop\school\Active_Bike_Lighting_System\Radar_Core/Libraries/CMSIS/Include\core_cmSimd.h **** 
 249:C:\Users\Depes Crystalline\Desktop\school\Active_Bike_Lighting_System\Radar_Core/Libraries/CMSIS/Include\core_cmSimd.h **** __attribute__( ( always_inline ) ) __STATIC_INLINE uint32_t __SHADD16(uint32_t op1, uint32_t op2)
 250:C:\Users\Depes Crystalline\Desktop\school\Active_Bike_Lighting_System\Radar_Core/Libraries/CMSIS/Include\core_cmSimd.h **** {
 251:C:\Users\Depes Crystalline\Desktop\school\Active_Bike_Lighting_System\Radar_Core/Libraries/CMSIS/Include\core_cmSimd.h ****   uint32_t result;
 252:C:\Users\Depes Crystalline\Desktop\school\Active_Bike_Lighting_System\Radar_Core/Libraries/CMSIS/Include\core_cmSimd.h **** 
 253:C:\Users\Depes Crystalline\Desktop\school\Active_Bike_Lighting_System\Radar_Core/Libraries/CMSIS/Include\core_cmSimd.h ****   __ASM volatile ("shadd16 %0, %1, %2" : "=r" (result) : "r" (op1), "r" (op2) );
 254:C:\Users\Depes Crystalline\Desktop\school\Active_Bike_Lighting_System\Radar_Core/Libraries/CMSIS/Include\core_cmSimd.h ****   return(result);
 255:C:\Users\Depes Crystalline\Desktop\school\Active_Bike_Lighting_System\Radar_Core/Libraries/CMSIS/Include\core_cmSimd.h **** }
 256:C:\Users\Depes Crystalline\Desktop\school\Active_Bike_Lighting_System\Radar_Core/Libraries/CMSIS/Include\core_cmSimd.h **** 
 257:C:\Users\Depes Crystalline\Desktop\school\Active_Bike_Lighting_System\Radar_Core/Libraries/CMSIS/Include\core_cmSimd.h **** __attribute__( ( always_inline ) ) __STATIC_INLINE uint32_t __UADD16(uint32_t op1, uint32_t op2)
 258:C:\Users\Depes Crystalline\Desktop\school\Active_Bike_Lighting_System\Radar_Core/Libraries/CMSIS/Include\core_cmSimd.h **** {
 259:C:\Users\Depes Crystalline\Desktop\school\Active_Bike_Lighting_System\Radar_Core/Libraries/CMSIS/Include\core_cmSimd.h ****   uint32_t result;
 260:C:\Users\Depes Crystalline\Desktop\school\Active_Bike_Lighting_System\Radar_Core/Libraries/CMSIS/Include\core_cmSimd.h **** 
 261:C:\Users\Depes Crystalline\Desktop\school\Active_Bike_Lighting_System\Radar_Core/Libraries/CMSIS/Include\core_cmSimd.h ****   __ASM volatile ("uadd16 %0, %1, %2" : "=r" (result) : "r" (op1), "r" (op2) );
 262:C:\Users\Depes Crystalline\Desktop\school\Active_Bike_Lighting_System\Radar_Core/Libraries/CMSIS/Include\core_cmSimd.h ****   return(result);
 263:C:\Users\Depes Crystalline\Desktop\school\Active_Bike_Lighting_System\Radar_Core/Libraries/CMSIS/Include\core_cmSimd.h **** }
 264:C:\Users\Depes Crystalline\Desktop\school\Active_Bike_Lighting_System\Radar_Core/Libraries/CMSIS/Include\core_cmSimd.h **** 
 265:C:\Users\Depes Crystalline\Desktop\school\Active_Bike_Lighting_System\Radar_Core/Libraries/CMSIS/Include\core_cmSimd.h **** __attribute__( ( always_inline ) ) __STATIC_INLINE uint32_t __UQADD16(uint32_t op1, uint32_t op2)
 266:C:\Users\Depes Crystalline\Desktop\school\Active_Bike_Lighting_System\Radar_Core/Libraries/CMSIS/Include\core_cmSimd.h **** {
 267:C:\Users\Depes Crystalline\Desktop\school\Active_Bike_Lighting_System\Radar_Core/Libraries/CMSIS/Include\core_cmSimd.h ****   uint32_t result;
 268:C:\Users\Depes Crystalline\Desktop\school\Active_Bike_Lighting_System\Radar_Core/Libraries/CMSIS/Include\core_cmSimd.h **** 
 269:C:\Users\Depes Crystalline\Desktop\school\Active_Bike_Lighting_System\Radar_Core/Libraries/CMSIS/Include\core_cmSimd.h ****   __ASM volatile ("uqadd16 %0, %1, %2" : "=r" (result) : "r" (op1), "r" (op2) );
 270:C:\Users\Depes Crystalline\Desktop\school\Active_Bike_Lighting_System\Radar_Core/Libraries/CMSIS/Include\core_cmSimd.h ****   return(result);
 271:C:\Users\Depes Crystalline\Desktop\school\Active_Bike_Lighting_System\Radar_Core/Libraries/CMSIS/Include\core_cmSimd.h **** }
 272:C:\Users\Depes Crystalline\Desktop\school\Active_Bike_Lighting_System\Radar_Core/Libraries/CMSIS/Include\core_cmSimd.h **** 
 273:C:\Users\Depes Crystalline\Desktop\school\Active_Bike_Lighting_System\Radar_Core/Libraries/CMSIS/Include\core_cmSimd.h **** __attribute__( ( always_inline ) ) __STATIC_INLINE uint32_t __UHADD16(uint32_t op1, uint32_t op2)
 274:C:\Users\Depes Crystalline\Desktop\school\Active_Bike_Lighting_System\Radar_Core/Libraries/CMSIS/Include\core_cmSimd.h **** {
 275:C:\Users\Depes Crystalline\Desktop\school\Active_Bike_Lighting_System\Radar_Core/Libraries/CMSIS/Include\core_cmSimd.h ****   uint32_t result;
 276:C:\Users\Depes Crystalline\Desktop\school\Active_Bike_Lighting_System\Radar_Core/Libraries/CMSIS/Include\core_cmSimd.h **** 
 277:C:\Users\Depes Crystalline\Desktop\school\Active_Bike_Lighting_System\Radar_Core/Libraries/CMSIS/Include\core_cmSimd.h ****   __ASM volatile ("uhadd16 %0, %1, %2" : "=r" (result) : "r" (op1), "r" (op2) );
 278:C:\Users\Depes Crystalline\Desktop\school\Active_Bike_Lighting_System\Radar_Core/Libraries/CMSIS/Include\core_cmSimd.h ****   return(result);
 279:C:\Users\Depes Crystalline\Desktop\school\Active_Bike_Lighting_System\Radar_Core/Libraries/CMSIS/Include\core_cmSimd.h **** }
 280:C:\Users\Depes Crystalline\Desktop\school\Active_Bike_Lighting_System\Radar_Core/Libraries/CMSIS/Include\core_cmSimd.h **** 
 281:C:\Users\Depes Crystalline\Desktop\school\Active_Bike_Lighting_System\Radar_Core/Libraries/CMSIS/Include\core_cmSimd.h **** __attribute__( ( always_inline ) ) __STATIC_INLINE uint32_t __SSUB16(uint32_t op1, uint32_t op2)
 282:C:\Users\Depes Crystalline\Desktop\school\Active_Bike_Lighting_System\Radar_Core/Libraries/CMSIS/Include\core_cmSimd.h **** {
 283:C:\Users\Depes Crystalline\Desktop\school\Active_Bike_Lighting_System\Radar_Core/Libraries/CMSIS/Include\core_cmSimd.h ****   uint32_t result;
 284:C:\Users\Depes Crystalline\Desktop\school\Active_Bike_Lighting_System\Radar_Core/Libraries/CMSIS/Include\core_cmSimd.h **** 
 285:C:\Users\Depes Crystalline\Desktop\school\Active_Bike_Lighting_System\Radar_Core/Libraries/CMSIS/Include\core_cmSimd.h ****   __ASM volatile ("ssub16 %0, %1, %2" : "=r" (result) : "r" (op1), "r" (op2) );
 286:C:\Users\Depes Crystalline\Desktop\school\Active_Bike_Lighting_System\Radar_Core/Libraries/CMSIS/Include\core_cmSimd.h ****   return(result);
 287:C:\Users\Depes Crystalline\Desktop\school\Active_Bike_Lighting_System\Radar_Core/Libraries/CMSIS/Include\core_cmSimd.h **** }
 288:C:\Users\Depes Crystalline\Desktop\school\Active_Bike_Lighting_System\Radar_Core/Libraries/CMSIS/Include\core_cmSimd.h **** 
 289:C:\Users\Depes Crystalline\Desktop\school\Active_Bike_Lighting_System\Radar_Core/Libraries/CMSIS/Include\core_cmSimd.h **** __attribute__( ( always_inline ) ) __STATIC_INLINE uint32_t __QSUB16(uint32_t op1, uint32_t op2)
 290:C:\Users\Depes Crystalline\Desktop\school\Active_Bike_Lighting_System\Radar_Core/Libraries/CMSIS/Include\core_cmSimd.h **** {
 291:C:\Users\Depes Crystalline\Desktop\school\Active_Bike_Lighting_System\Radar_Core/Libraries/CMSIS/Include\core_cmSimd.h ****   uint32_t result;
 292:C:\Users\Depes Crystalline\Desktop\school\Active_Bike_Lighting_System\Radar_Core/Libraries/CMSIS/Include\core_cmSimd.h **** 
 293:C:\Users\Depes Crystalline\Desktop\school\Active_Bike_Lighting_System\Radar_Core/Libraries/CMSIS/Include\core_cmSimd.h ****   __ASM volatile ("qsub16 %0, %1, %2" : "=r" (result) : "r" (op1), "r" (op2) );
 294:C:\Users\Depes Crystalline\Desktop\school\Active_Bike_Lighting_System\Radar_Core/Libraries/CMSIS/Include\core_cmSimd.h ****   return(result);
 295:C:\Users\Depes Crystalline\Desktop\school\Active_Bike_Lighting_System\Radar_Core/Libraries/CMSIS/Include\core_cmSimd.h **** }
 296:C:\Users\Depes Crystalline\Desktop\school\Active_Bike_Lighting_System\Radar_Core/Libraries/CMSIS/Include\core_cmSimd.h **** 
 297:C:\Users\Depes Crystalline\Desktop\school\Active_Bike_Lighting_System\Radar_Core/Libraries/CMSIS/Include\core_cmSimd.h **** __attribute__( ( always_inline ) ) __STATIC_INLINE uint32_t __SHSUB16(uint32_t op1, uint32_t op2)
 298:C:\Users\Depes Crystalline\Desktop\school\Active_Bike_Lighting_System\Radar_Core/Libraries/CMSIS/Include\core_cmSimd.h **** {
 299:C:\Users\Depes Crystalline\Desktop\school\Active_Bike_Lighting_System\Radar_Core/Libraries/CMSIS/Include\core_cmSimd.h ****   uint32_t result;
 300:C:\Users\Depes Crystalline\Desktop\school\Active_Bike_Lighting_System\Radar_Core/Libraries/CMSIS/Include\core_cmSimd.h **** 
 301:C:\Users\Depes Crystalline\Desktop\school\Active_Bike_Lighting_System\Radar_Core/Libraries/CMSIS/Include\core_cmSimd.h ****   __ASM volatile ("shsub16 %0, %1, %2" : "=r" (result) : "r" (op1), "r" (op2) );
 302:C:\Users\Depes Crystalline\Desktop\school\Active_Bike_Lighting_System\Radar_Core/Libraries/CMSIS/Include\core_cmSimd.h ****   return(result);
 303:C:\Users\Depes Crystalline\Desktop\school\Active_Bike_Lighting_System\Radar_Core/Libraries/CMSIS/Include\core_cmSimd.h **** }
 304:C:\Users\Depes Crystalline\Desktop\school\Active_Bike_Lighting_System\Radar_Core/Libraries/CMSIS/Include\core_cmSimd.h **** 
 305:C:\Users\Depes Crystalline\Desktop\school\Active_Bike_Lighting_System\Radar_Core/Libraries/CMSIS/Include\core_cmSimd.h **** __attribute__( ( always_inline ) ) __STATIC_INLINE uint32_t __USUB16(uint32_t op1, uint32_t op2)
 306:C:\Users\Depes Crystalline\Desktop\school\Active_Bike_Lighting_System\Radar_Core/Libraries/CMSIS/Include\core_cmSimd.h **** {
 307:C:\Users\Depes Crystalline\Desktop\school\Active_Bike_Lighting_System\Radar_Core/Libraries/CMSIS/Include\core_cmSimd.h ****   uint32_t result;
 308:C:\Users\Depes Crystalline\Desktop\school\Active_Bike_Lighting_System\Radar_Core/Libraries/CMSIS/Include\core_cmSimd.h **** 
 309:C:\Users\Depes Crystalline\Desktop\school\Active_Bike_Lighting_System\Radar_Core/Libraries/CMSIS/Include\core_cmSimd.h ****   __ASM volatile ("usub16 %0, %1, %2" : "=r" (result) : "r" (op1), "r" (op2) );
 310:C:\Users\Depes Crystalline\Desktop\school\Active_Bike_Lighting_System\Radar_Core/Libraries/CMSIS/Include\core_cmSimd.h ****   return(result);
 311:C:\Users\Depes Crystalline\Desktop\school\Active_Bike_Lighting_System\Radar_Core/Libraries/CMSIS/Include\core_cmSimd.h **** }
 312:C:\Users\Depes Crystalline\Desktop\school\Active_Bike_Lighting_System\Radar_Core/Libraries/CMSIS/Include\core_cmSimd.h **** 
 313:C:\Users\Depes Crystalline\Desktop\school\Active_Bike_Lighting_System\Radar_Core/Libraries/CMSIS/Include\core_cmSimd.h **** __attribute__( ( always_inline ) ) __STATIC_INLINE uint32_t __UQSUB16(uint32_t op1, uint32_t op2)
 314:C:\Users\Depes Crystalline\Desktop\school\Active_Bike_Lighting_System\Radar_Core/Libraries/CMSIS/Include\core_cmSimd.h **** {
 315:C:\Users\Depes Crystalline\Desktop\school\Active_Bike_Lighting_System\Radar_Core/Libraries/CMSIS/Include\core_cmSimd.h ****   uint32_t result;
 316:C:\Users\Depes Crystalline\Desktop\school\Active_Bike_Lighting_System\Radar_Core/Libraries/CMSIS/Include\core_cmSimd.h **** 
 317:C:\Users\Depes Crystalline\Desktop\school\Active_Bike_Lighting_System\Radar_Core/Libraries/CMSIS/Include\core_cmSimd.h ****   __ASM volatile ("uqsub16 %0, %1, %2" : "=r" (result) : "r" (op1), "r" (op2) );
 318:C:\Users\Depes Crystalline\Desktop\school\Active_Bike_Lighting_System\Radar_Core/Libraries/CMSIS/Include\core_cmSimd.h ****   return(result);
 319:C:\Users\Depes Crystalline\Desktop\school\Active_Bike_Lighting_System\Radar_Core/Libraries/CMSIS/Include\core_cmSimd.h **** }
 320:C:\Users\Depes Crystalline\Desktop\school\Active_Bike_Lighting_System\Radar_Core/Libraries/CMSIS/Include\core_cmSimd.h **** 
 321:C:\Users\Depes Crystalline\Desktop\school\Active_Bike_Lighting_System\Radar_Core/Libraries/CMSIS/Include\core_cmSimd.h **** __attribute__( ( always_inline ) ) __STATIC_INLINE uint32_t __UHSUB16(uint32_t op1, uint32_t op2)
 322:C:\Users\Depes Crystalline\Desktop\school\Active_Bike_Lighting_System\Radar_Core/Libraries/CMSIS/Include\core_cmSimd.h **** {
 323:C:\Users\Depes Crystalline\Desktop\school\Active_Bike_Lighting_System\Radar_Core/Libraries/CMSIS/Include\core_cmSimd.h ****   uint32_t result;
 324:C:\Users\Depes Crystalline\Desktop\school\Active_Bike_Lighting_System\Radar_Core/Libraries/CMSIS/Include\core_cmSimd.h **** 
 325:C:\Users\Depes Crystalline\Desktop\school\Active_Bike_Lighting_System\Radar_Core/Libraries/CMSIS/Include\core_cmSimd.h ****   __ASM volatile ("uhsub16 %0, %1, %2" : "=r" (result) : "r" (op1), "r" (op2) );
 326:C:\Users\Depes Crystalline\Desktop\school\Active_Bike_Lighting_System\Radar_Core/Libraries/CMSIS/Include\core_cmSimd.h ****   return(result);
 327:C:\Users\Depes Crystalline\Desktop\school\Active_Bike_Lighting_System\Radar_Core/Libraries/CMSIS/Include\core_cmSimd.h **** }
 328:C:\Users\Depes Crystalline\Desktop\school\Active_Bike_Lighting_System\Radar_Core/Libraries/CMSIS/Include\core_cmSimd.h **** 
 329:C:\Users\Depes Crystalline\Desktop\school\Active_Bike_Lighting_System\Radar_Core/Libraries/CMSIS/Include\core_cmSimd.h **** __attribute__( ( always_inline ) ) __STATIC_INLINE uint32_t __SASX(uint32_t op1, uint32_t op2)
 330:C:\Users\Depes Crystalline\Desktop\school\Active_Bike_Lighting_System\Radar_Core/Libraries/CMSIS/Include\core_cmSimd.h **** {
 331:C:\Users\Depes Crystalline\Desktop\school\Active_Bike_Lighting_System\Radar_Core/Libraries/CMSIS/Include\core_cmSimd.h ****   uint32_t result;
 332:C:\Users\Depes Crystalline\Desktop\school\Active_Bike_Lighting_System\Radar_Core/Libraries/CMSIS/Include\core_cmSimd.h **** 
 333:C:\Users\Depes Crystalline\Desktop\school\Active_Bike_Lighting_System\Radar_Core/Libraries/CMSIS/Include\core_cmSimd.h ****   __ASM volatile ("sasx %0, %1, %2" : "=r" (result) : "r" (op1), "r" (op2) );
 334:C:\Users\Depes Crystalline\Desktop\school\Active_Bike_Lighting_System\Radar_Core/Libraries/CMSIS/Include\core_cmSimd.h ****   return(result);
 335:C:\Users\Depes Crystalline\Desktop\school\Active_Bike_Lighting_System\Radar_Core/Libraries/CMSIS/Include\core_cmSimd.h **** }
 336:C:\Users\Depes Crystalline\Desktop\school\Active_Bike_Lighting_System\Radar_Core/Libraries/CMSIS/Include\core_cmSimd.h **** 
 337:C:\Users\Depes Crystalline\Desktop\school\Active_Bike_Lighting_System\Radar_Core/Libraries/CMSIS/Include\core_cmSimd.h **** __attribute__( ( always_inline ) ) __STATIC_INLINE uint32_t __QASX(uint32_t op1, uint32_t op2)
 338:C:\Users\Depes Crystalline\Desktop\school\Active_Bike_Lighting_System\Radar_Core/Libraries/CMSIS/Include\core_cmSimd.h **** {
 339:C:\Users\Depes Crystalline\Desktop\school\Active_Bike_Lighting_System\Radar_Core/Libraries/CMSIS/Include\core_cmSimd.h ****   uint32_t result;
 340:C:\Users\Depes Crystalline\Desktop\school\Active_Bike_Lighting_System\Radar_Core/Libraries/CMSIS/Include\core_cmSimd.h **** 
 341:C:\Users\Depes Crystalline\Desktop\school\Active_Bike_Lighting_System\Radar_Core/Libraries/CMSIS/Include\core_cmSimd.h ****   __ASM volatile ("qasx %0, %1, %2" : "=r" (result) : "r" (op1), "r" (op2) );
 342:C:\Users\Depes Crystalline\Desktop\school\Active_Bike_Lighting_System\Radar_Core/Libraries/CMSIS/Include\core_cmSimd.h ****   return(result);
 343:C:\Users\Depes Crystalline\Desktop\school\Active_Bike_Lighting_System\Radar_Core/Libraries/CMSIS/Include\core_cmSimd.h **** }
 344:C:\Users\Depes Crystalline\Desktop\school\Active_Bike_Lighting_System\Radar_Core/Libraries/CMSIS/Include\core_cmSimd.h **** 
 345:C:\Users\Depes Crystalline\Desktop\school\Active_Bike_Lighting_System\Radar_Core/Libraries/CMSIS/Include\core_cmSimd.h **** __attribute__( ( always_inline ) ) __STATIC_INLINE uint32_t __SHASX(uint32_t op1, uint32_t op2)
 346:C:\Users\Depes Crystalline\Desktop\school\Active_Bike_Lighting_System\Radar_Core/Libraries/CMSIS/Include\core_cmSimd.h **** {
 347:C:\Users\Depes Crystalline\Desktop\school\Active_Bike_Lighting_System\Radar_Core/Libraries/CMSIS/Include\core_cmSimd.h ****   uint32_t result;
 348:C:\Users\Depes Crystalline\Desktop\school\Active_Bike_Lighting_System\Radar_Core/Libraries/CMSIS/Include\core_cmSimd.h **** 
 349:C:\Users\Depes Crystalline\Desktop\school\Active_Bike_Lighting_System\Radar_Core/Libraries/CMSIS/Include\core_cmSimd.h ****   __ASM volatile ("shasx %0, %1, %2" : "=r" (result) : "r" (op1), "r" (op2) );
 350:C:\Users\Depes Crystalline\Desktop\school\Active_Bike_Lighting_System\Radar_Core/Libraries/CMSIS/Include\core_cmSimd.h ****   return(result);
 351:C:\Users\Depes Crystalline\Desktop\school\Active_Bike_Lighting_System\Radar_Core/Libraries/CMSIS/Include\core_cmSimd.h **** }
 352:C:\Users\Depes Crystalline\Desktop\school\Active_Bike_Lighting_System\Radar_Core/Libraries/CMSIS/Include\core_cmSimd.h **** 
 353:C:\Users\Depes Crystalline\Desktop\school\Active_Bike_Lighting_System\Radar_Core/Libraries/CMSIS/Include\core_cmSimd.h **** __attribute__( ( always_inline ) ) __STATIC_INLINE uint32_t __UASX(uint32_t op1, uint32_t op2)
 354:C:\Users\Depes Crystalline\Desktop\school\Active_Bike_Lighting_System\Radar_Core/Libraries/CMSIS/Include\core_cmSimd.h **** {
 355:C:\Users\Depes Crystalline\Desktop\school\Active_Bike_Lighting_System\Radar_Core/Libraries/CMSIS/Include\core_cmSimd.h ****   uint32_t result;
 356:C:\Users\Depes Crystalline\Desktop\school\Active_Bike_Lighting_System\Radar_Core/Libraries/CMSIS/Include\core_cmSimd.h **** 
 357:C:\Users\Depes Crystalline\Desktop\school\Active_Bike_Lighting_System\Radar_Core/Libraries/CMSIS/Include\core_cmSimd.h ****   __ASM volatile ("uasx %0, %1, %2" : "=r" (result) : "r" (op1), "r" (op2) );
 358:C:\Users\Depes Crystalline\Desktop\school\Active_Bike_Lighting_System\Radar_Core/Libraries/CMSIS/Include\core_cmSimd.h ****   return(result);
 359:C:\Users\Depes Crystalline\Desktop\school\Active_Bike_Lighting_System\Radar_Core/Libraries/CMSIS/Include\core_cmSimd.h **** }
 360:C:\Users\Depes Crystalline\Desktop\school\Active_Bike_Lighting_System\Radar_Core/Libraries/CMSIS/Include\core_cmSimd.h **** 
 361:C:\Users\Depes Crystalline\Desktop\school\Active_Bike_Lighting_System\Radar_Core/Libraries/CMSIS/Include\core_cmSimd.h **** __attribute__( ( always_inline ) ) __STATIC_INLINE uint32_t __UQASX(uint32_t op1, uint32_t op2)
 362:C:\Users\Depes Crystalline\Desktop\school\Active_Bike_Lighting_System\Radar_Core/Libraries/CMSIS/Include\core_cmSimd.h **** {
 363:C:\Users\Depes Crystalline\Desktop\school\Active_Bike_Lighting_System\Radar_Core/Libraries/CMSIS/Include\core_cmSimd.h ****   uint32_t result;
 364:C:\Users\Depes Crystalline\Desktop\school\Active_Bike_Lighting_System\Radar_Core/Libraries/CMSIS/Include\core_cmSimd.h **** 
 365:C:\Users\Depes Crystalline\Desktop\school\Active_Bike_Lighting_System\Radar_Core/Libraries/CMSIS/Include\core_cmSimd.h ****   __ASM volatile ("uqasx %0, %1, %2" : "=r" (result) : "r" (op1), "r" (op2) );
 366:C:\Users\Depes Crystalline\Desktop\school\Active_Bike_Lighting_System\Radar_Core/Libraries/CMSIS/Include\core_cmSimd.h ****   return(result);
 367:C:\Users\Depes Crystalline\Desktop\school\Active_Bike_Lighting_System\Radar_Core/Libraries/CMSIS/Include\core_cmSimd.h **** }
 368:C:\Users\Depes Crystalline\Desktop\school\Active_Bike_Lighting_System\Radar_Core/Libraries/CMSIS/Include\core_cmSimd.h **** 
 369:C:\Users\Depes Crystalline\Desktop\school\Active_Bike_Lighting_System\Radar_Core/Libraries/CMSIS/Include\core_cmSimd.h **** __attribute__( ( always_inline ) ) __STATIC_INLINE uint32_t __UHASX(uint32_t op1, uint32_t op2)
 370:C:\Users\Depes Crystalline\Desktop\school\Active_Bike_Lighting_System\Radar_Core/Libraries/CMSIS/Include\core_cmSimd.h **** {
 371:C:\Users\Depes Crystalline\Desktop\school\Active_Bike_Lighting_System\Radar_Core/Libraries/CMSIS/Include\core_cmSimd.h ****   uint32_t result;
 372:C:\Users\Depes Crystalline\Desktop\school\Active_Bike_Lighting_System\Radar_Core/Libraries/CMSIS/Include\core_cmSimd.h **** 
 373:C:\Users\Depes Crystalline\Desktop\school\Active_Bike_Lighting_System\Radar_Core/Libraries/CMSIS/Include\core_cmSimd.h ****   __ASM volatile ("uhasx %0, %1, %2" : "=r" (result) : "r" (op1), "r" (op2) );
 374:C:\Users\Depes Crystalline\Desktop\school\Active_Bike_Lighting_System\Radar_Core/Libraries/CMSIS/Include\core_cmSimd.h ****   return(result);
 375:C:\Users\Depes Crystalline\Desktop\school\Active_Bike_Lighting_System\Radar_Core/Libraries/CMSIS/Include\core_cmSimd.h **** }
 376:C:\Users\Depes Crystalline\Desktop\school\Active_Bike_Lighting_System\Radar_Core/Libraries/CMSIS/Include\core_cmSimd.h **** 
 377:C:\Users\Depes Crystalline\Desktop\school\Active_Bike_Lighting_System\Radar_Core/Libraries/CMSIS/Include\core_cmSimd.h **** __attribute__( ( always_inline ) ) __STATIC_INLINE uint32_t __SSAX(uint32_t op1, uint32_t op2)
 378:C:\Users\Depes Crystalline\Desktop\school\Active_Bike_Lighting_System\Radar_Core/Libraries/CMSIS/Include\core_cmSimd.h **** {
 379:C:\Users\Depes Crystalline\Desktop\school\Active_Bike_Lighting_System\Radar_Core/Libraries/CMSIS/Include\core_cmSimd.h ****   uint32_t result;
 380:C:\Users\Depes Crystalline\Desktop\school\Active_Bike_Lighting_System\Radar_Core/Libraries/CMSIS/Include\core_cmSimd.h **** 
 381:C:\Users\Depes Crystalline\Desktop\school\Active_Bike_Lighting_System\Radar_Core/Libraries/CMSIS/Include\core_cmSimd.h ****   __ASM volatile ("ssax %0, %1, %2" : "=r" (result) : "r" (op1), "r" (op2) );
 382:C:\Users\Depes Crystalline\Desktop\school\Active_Bike_Lighting_System\Radar_Core/Libraries/CMSIS/Include\core_cmSimd.h ****   return(result);
 383:C:\Users\Depes Crystalline\Desktop\school\Active_Bike_Lighting_System\Radar_Core/Libraries/CMSIS/Include\core_cmSimd.h **** }
 384:C:\Users\Depes Crystalline\Desktop\school\Active_Bike_Lighting_System\Radar_Core/Libraries/CMSIS/Include\core_cmSimd.h **** 
 385:C:\Users\Depes Crystalline\Desktop\school\Active_Bike_Lighting_System\Radar_Core/Libraries/CMSIS/Include\core_cmSimd.h **** __attribute__( ( always_inline ) ) __STATIC_INLINE uint32_t __QSAX(uint32_t op1, uint32_t op2)
 386:C:\Users\Depes Crystalline\Desktop\school\Active_Bike_Lighting_System\Radar_Core/Libraries/CMSIS/Include\core_cmSimd.h **** {
 387:C:\Users\Depes Crystalline\Desktop\school\Active_Bike_Lighting_System\Radar_Core/Libraries/CMSIS/Include\core_cmSimd.h ****   uint32_t result;
 388:C:\Users\Depes Crystalline\Desktop\school\Active_Bike_Lighting_System\Radar_Core/Libraries/CMSIS/Include\core_cmSimd.h **** 
 389:C:\Users\Depes Crystalline\Desktop\school\Active_Bike_Lighting_System\Radar_Core/Libraries/CMSIS/Include\core_cmSimd.h ****   __ASM volatile ("qsax %0, %1, %2" : "=r" (result) : "r" (op1), "r" (op2) );
 390:C:\Users\Depes Crystalline\Desktop\school\Active_Bike_Lighting_System\Radar_Core/Libraries/CMSIS/Include\core_cmSimd.h ****   return(result);
 391:C:\Users\Depes Crystalline\Desktop\school\Active_Bike_Lighting_System\Radar_Core/Libraries/CMSIS/Include\core_cmSimd.h **** }
 392:C:\Users\Depes Crystalline\Desktop\school\Active_Bike_Lighting_System\Radar_Core/Libraries/CMSIS/Include\core_cmSimd.h **** 
 393:C:\Users\Depes Crystalline\Desktop\school\Active_Bike_Lighting_System\Radar_Core/Libraries/CMSIS/Include\core_cmSimd.h **** __attribute__( ( always_inline ) ) __STATIC_INLINE uint32_t __SHSAX(uint32_t op1, uint32_t op2)
 394:C:\Users\Depes Crystalline\Desktop\school\Active_Bike_Lighting_System\Radar_Core/Libraries/CMSIS/Include\core_cmSimd.h **** {
 395:C:\Users\Depes Crystalline\Desktop\school\Active_Bike_Lighting_System\Radar_Core/Libraries/CMSIS/Include\core_cmSimd.h ****   uint32_t result;
 396:C:\Users\Depes Crystalline\Desktop\school\Active_Bike_Lighting_System\Radar_Core/Libraries/CMSIS/Include\core_cmSimd.h **** 
 397:C:\Users\Depes Crystalline\Desktop\school\Active_Bike_Lighting_System\Radar_Core/Libraries/CMSIS/Include\core_cmSimd.h ****   __ASM volatile ("shsax %0, %1, %2" : "=r" (result) : "r" (op1), "r" (op2) );
 398:C:\Users\Depes Crystalline\Desktop\school\Active_Bike_Lighting_System\Radar_Core/Libraries/CMSIS/Include\core_cmSimd.h ****   return(result);
 399:C:\Users\Depes Crystalline\Desktop\school\Active_Bike_Lighting_System\Radar_Core/Libraries/CMSIS/Include\core_cmSimd.h **** }
 400:C:\Users\Depes Crystalline\Desktop\school\Active_Bike_Lighting_System\Radar_Core/Libraries/CMSIS/Include\core_cmSimd.h **** 
 401:C:\Users\Depes Crystalline\Desktop\school\Active_Bike_Lighting_System\Radar_Core/Libraries/CMSIS/Include\core_cmSimd.h **** __attribute__( ( always_inline ) ) __STATIC_INLINE uint32_t __USAX(uint32_t op1, uint32_t op2)
 402:C:\Users\Depes Crystalline\Desktop\school\Active_Bike_Lighting_System\Radar_Core/Libraries/CMSIS/Include\core_cmSimd.h **** {
 403:C:\Users\Depes Crystalline\Desktop\school\Active_Bike_Lighting_System\Radar_Core/Libraries/CMSIS/Include\core_cmSimd.h ****   uint32_t result;
 404:C:\Users\Depes Crystalline\Desktop\school\Active_Bike_Lighting_System\Radar_Core/Libraries/CMSIS/Include\core_cmSimd.h **** 
 405:C:\Users\Depes Crystalline\Desktop\school\Active_Bike_Lighting_System\Radar_Core/Libraries/CMSIS/Include\core_cmSimd.h ****   __ASM volatile ("usax %0, %1, %2" : "=r" (result) : "r" (op1), "r" (op2) );
 406:C:\Users\Depes Crystalline\Desktop\school\Active_Bike_Lighting_System\Radar_Core/Libraries/CMSIS/Include\core_cmSimd.h ****   return(result);
 407:C:\Users\Depes Crystalline\Desktop\school\Active_Bike_Lighting_System\Radar_Core/Libraries/CMSIS/Include\core_cmSimd.h **** }
 408:C:\Users\Depes Crystalline\Desktop\school\Active_Bike_Lighting_System\Radar_Core/Libraries/CMSIS/Include\core_cmSimd.h **** 
 409:C:\Users\Depes Crystalline\Desktop\school\Active_Bike_Lighting_System\Radar_Core/Libraries/CMSIS/Include\core_cmSimd.h **** __attribute__( ( always_inline ) ) __STATIC_INLINE uint32_t __UQSAX(uint32_t op1, uint32_t op2)
 410:C:\Users\Depes Crystalline\Desktop\school\Active_Bike_Lighting_System\Radar_Core/Libraries/CMSIS/Include\core_cmSimd.h **** {
 411:C:\Users\Depes Crystalline\Desktop\school\Active_Bike_Lighting_System\Radar_Core/Libraries/CMSIS/Include\core_cmSimd.h ****   uint32_t result;
 412:C:\Users\Depes Crystalline\Desktop\school\Active_Bike_Lighting_System\Radar_Core/Libraries/CMSIS/Include\core_cmSimd.h **** 
 413:C:\Users\Depes Crystalline\Desktop\school\Active_Bike_Lighting_System\Radar_Core/Libraries/CMSIS/Include\core_cmSimd.h ****   __ASM volatile ("uqsax %0, %1, %2" : "=r" (result) : "r" (op1), "r" (op2) );
 414:C:\Users\Depes Crystalline\Desktop\school\Active_Bike_Lighting_System\Radar_Core/Libraries/CMSIS/Include\core_cmSimd.h ****   return(result);
 415:C:\Users\Depes Crystalline\Desktop\school\Active_Bike_Lighting_System\Radar_Core/Libraries/CMSIS/Include\core_cmSimd.h **** }
 416:C:\Users\Depes Crystalline\Desktop\school\Active_Bike_Lighting_System\Radar_Core/Libraries/CMSIS/Include\core_cmSimd.h **** 
 417:C:\Users\Depes Crystalline\Desktop\school\Active_Bike_Lighting_System\Radar_Core/Libraries/CMSIS/Include\core_cmSimd.h **** __attribute__( ( always_inline ) ) __STATIC_INLINE uint32_t __UHSAX(uint32_t op1, uint32_t op2)
 418:C:\Users\Depes Crystalline\Desktop\school\Active_Bike_Lighting_System\Radar_Core/Libraries/CMSIS/Include\core_cmSimd.h **** {
 419:C:\Users\Depes Crystalline\Desktop\school\Active_Bike_Lighting_System\Radar_Core/Libraries/CMSIS/Include\core_cmSimd.h ****   uint32_t result;
 420:C:\Users\Depes Crystalline\Desktop\school\Active_Bike_Lighting_System\Radar_Core/Libraries/CMSIS/Include\core_cmSimd.h **** 
 421:C:\Users\Depes Crystalline\Desktop\school\Active_Bike_Lighting_System\Radar_Core/Libraries/CMSIS/Include\core_cmSimd.h ****   __ASM volatile ("uhsax %0, %1, %2" : "=r" (result) : "r" (op1), "r" (op2) );
 422:C:\Users\Depes Crystalline\Desktop\school\Active_Bike_Lighting_System\Radar_Core/Libraries/CMSIS/Include\core_cmSimd.h ****   return(result);
 423:C:\Users\Depes Crystalline\Desktop\school\Active_Bike_Lighting_System\Radar_Core/Libraries/CMSIS/Include\core_cmSimd.h **** }
 424:C:\Users\Depes Crystalline\Desktop\school\Active_Bike_Lighting_System\Radar_Core/Libraries/CMSIS/Include\core_cmSimd.h **** 
 425:C:\Users\Depes Crystalline\Desktop\school\Active_Bike_Lighting_System\Radar_Core/Libraries/CMSIS/Include\core_cmSimd.h **** __attribute__( ( always_inline ) ) __STATIC_INLINE uint32_t __USAD8(uint32_t op1, uint32_t op2)
 426:C:\Users\Depes Crystalline\Desktop\school\Active_Bike_Lighting_System\Radar_Core/Libraries/CMSIS/Include\core_cmSimd.h **** {
 427:C:\Users\Depes Crystalline\Desktop\school\Active_Bike_Lighting_System\Radar_Core/Libraries/CMSIS/Include\core_cmSimd.h ****   uint32_t result;
 428:C:\Users\Depes Crystalline\Desktop\school\Active_Bike_Lighting_System\Radar_Core/Libraries/CMSIS/Include\core_cmSimd.h **** 
 429:C:\Users\Depes Crystalline\Desktop\school\Active_Bike_Lighting_System\Radar_Core/Libraries/CMSIS/Include\core_cmSimd.h ****   __ASM volatile ("usad8 %0, %1, %2" : "=r" (result) : "r" (op1), "r" (op2) );
 430:C:\Users\Depes Crystalline\Desktop\school\Active_Bike_Lighting_System\Radar_Core/Libraries/CMSIS/Include\core_cmSimd.h ****   return(result);
 431:C:\Users\Depes Crystalline\Desktop\school\Active_Bike_Lighting_System\Radar_Core/Libraries/CMSIS/Include\core_cmSimd.h **** }
 432:C:\Users\Depes Crystalline\Desktop\school\Active_Bike_Lighting_System\Radar_Core/Libraries/CMSIS/Include\core_cmSimd.h **** 
 433:C:\Users\Depes Crystalline\Desktop\school\Active_Bike_Lighting_System\Radar_Core/Libraries/CMSIS/Include\core_cmSimd.h **** __attribute__( ( always_inline ) ) __STATIC_INLINE uint32_t __USADA8(uint32_t op1, uint32_t op2, ui
 434:C:\Users\Depes Crystalline\Desktop\school\Active_Bike_Lighting_System\Radar_Core/Libraries/CMSIS/Include\core_cmSimd.h **** {
 435:C:\Users\Depes Crystalline\Desktop\school\Active_Bike_Lighting_System\Radar_Core/Libraries/CMSIS/Include\core_cmSimd.h ****   uint32_t result;
 436:C:\Users\Depes Crystalline\Desktop\school\Active_Bike_Lighting_System\Radar_Core/Libraries/CMSIS/Include\core_cmSimd.h **** 
 437:C:\Users\Depes Crystalline\Desktop\school\Active_Bike_Lighting_System\Radar_Core/Libraries/CMSIS/Include\core_cmSimd.h ****   __ASM volatile ("usada8 %0, %1, %2, %3" : "=r" (result) : "r" (op1), "r" (op2), "r" (op3) );
 438:C:\Users\Depes Crystalline\Desktop\school\Active_Bike_Lighting_System\Radar_Core/Libraries/CMSIS/Include\core_cmSimd.h ****   return(result);
 439:C:\Users\Depes Crystalline\Desktop\school\Active_Bike_Lighting_System\Radar_Core/Libraries/CMSIS/Include\core_cmSimd.h **** }
 440:C:\Users\Depes Crystalline\Desktop\school\Active_Bike_Lighting_System\Radar_Core/Libraries/CMSIS/Include\core_cmSimd.h **** 
 441:C:\Users\Depes Crystalline\Desktop\school\Active_Bike_Lighting_System\Radar_Core/Libraries/CMSIS/Include\core_cmSimd.h **** #define __SSAT16(ARG1,ARG2) \
 442:C:\Users\Depes Crystalline\Desktop\school\Active_Bike_Lighting_System\Radar_Core/Libraries/CMSIS/Include\core_cmSimd.h **** ({                          \
 443:C:\Users\Depes Crystalline\Desktop\school\Active_Bike_Lighting_System\Radar_Core/Libraries/CMSIS/Include\core_cmSimd.h ****   uint32_t __RES, __ARG1 = (ARG1); \
 444:C:\Users\Depes Crystalline\Desktop\school\Active_Bike_Lighting_System\Radar_Core/Libraries/CMSIS/Include\core_cmSimd.h ****   __ASM ("ssat16 %0, %1, %2" : "=r" (__RES) :  "I" (ARG2), "r" (__ARG1) ); \
 445:C:\Users\Depes Crystalline\Desktop\school\Active_Bike_Lighting_System\Radar_Core/Libraries/CMSIS/Include\core_cmSimd.h ****   __RES; \
 446:C:\Users\Depes Crystalline\Desktop\school\Active_Bike_Lighting_System\Radar_Core/Libraries/CMSIS/Include\core_cmSimd.h ****  })
 447:C:\Users\Depes Crystalline\Desktop\school\Active_Bike_Lighting_System\Radar_Core/Libraries/CMSIS/Include\core_cmSimd.h **** 
 448:C:\Users\Depes Crystalline\Desktop\school\Active_Bike_Lighting_System\Radar_Core/Libraries/CMSIS/Include\core_cmSimd.h **** #define __USAT16(ARG1,ARG2) \
 449:C:\Users\Depes Crystalline\Desktop\school\Active_Bike_Lighting_System\Radar_Core/Libraries/CMSIS/Include\core_cmSimd.h **** ({                          \
 450:C:\Users\Depes Crystalline\Desktop\school\Active_Bike_Lighting_System\Radar_Core/Libraries/CMSIS/Include\core_cmSimd.h ****   uint32_t __RES, __ARG1 = (ARG1); \
 451:C:\Users\Depes Crystalline\Desktop\school\Active_Bike_Lighting_System\Radar_Core/Libraries/CMSIS/Include\core_cmSimd.h ****   __ASM ("usat16 %0, %1, %2" : "=r" (__RES) :  "I" (ARG2), "r" (__ARG1) ); \
 452:C:\Users\Depes Crystalline\Desktop\school\Active_Bike_Lighting_System\Radar_Core/Libraries/CMSIS/Include\core_cmSimd.h ****   __RES; \
 453:C:\Users\Depes Crystalline\Desktop\school\Active_Bike_Lighting_System\Radar_Core/Libraries/CMSIS/Include\core_cmSimd.h ****  })
 454:C:\Users\Depes Crystalline\Desktop\school\Active_Bike_Lighting_System\Radar_Core/Libraries/CMSIS/Include\core_cmSimd.h **** 
 455:C:\Users\Depes Crystalline\Desktop\school\Active_Bike_Lighting_System\Radar_Core/Libraries/CMSIS/Include\core_cmSimd.h **** __attribute__( ( always_inline ) ) __STATIC_INLINE uint32_t __UXTB16(uint32_t op1)
 456:C:\Users\Depes Crystalline\Desktop\school\Active_Bike_Lighting_System\Radar_Core/Libraries/CMSIS/Include\core_cmSimd.h **** {
 457:C:\Users\Depes Crystalline\Desktop\school\Active_Bike_Lighting_System\Radar_Core/Libraries/CMSIS/Include\core_cmSimd.h ****   uint32_t result;
 458:C:\Users\Depes Crystalline\Desktop\school\Active_Bike_Lighting_System\Radar_Core/Libraries/CMSIS/Include\core_cmSimd.h **** 
 459:C:\Users\Depes Crystalline\Desktop\school\Active_Bike_Lighting_System\Radar_Core/Libraries/CMSIS/Include\core_cmSimd.h ****   __ASM volatile ("uxtb16 %0, %1" : "=r" (result) : "r" (op1));
 460:C:\Users\Depes Crystalline\Desktop\school\Active_Bike_Lighting_System\Radar_Core/Libraries/CMSIS/Include\core_cmSimd.h ****   return(result);
 461:C:\Users\Depes Crystalline\Desktop\school\Active_Bike_Lighting_System\Radar_Core/Libraries/CMSIS/Include\core_cmSimd.h **** }
 462:C:\Users\Depes Crystalline\Desktop\school\Active_Bike_Lighting_System\Radar_Core/Libraries/CMSIS/Include\core_cmSimd.h **** 
 463:C:\Users\Depes Crystalline\Desktop\school\Active_Bike_Lighting_System\Radar_Core/Libraries/CMSIS/Include\core_cmSimd.h **** __attribute__( ( always_inline ) ) __STATIC_INLINE uint32_t __UXTAB16(uint32_t op1, uint32_t op2)
 464:C:\Users\Depes Crystalline\Desktop\school\Active_Bike_Lighting_System\Radar_Core/Libraries/CMSIS/Include\core_cmSimd.h **** {
 465:C:\Users\Depes Crystalline\Desktop\school\Active_Bike_Lighting_System\Radar_Core/Libraries/CMSIS/Include\core_cmSimd.h ****   uint32_t result;
 466:C:\Users\Depes Crystalline\Desktop\school\Active_Bike_Lighting_System\Radar_Core/Libraries/CMSIS/Include\core_cmSimd.h **** 
 467:C:\Users\Depes Crystalline\Desktop\school\Active_Bike_Lighting_System\Radar_Core/Libraries/CMSIS/Include\core_cmSimd.h ****   __ASM volatile ("uxtab16 %0, %1, %2" : "=r" (result) : "r" (op1), "r" (op2) );
 468:C:\Users\Depes Crystalline\Desktop\school\Active_Bike_Lighting_System\Radar_Core/Libraries/CMSIS/Include\core_cmSimd.h ****   return(result);
 469:C:\Users\Depes Crystalline\Desktop\school\Active_Bike_Lighting_System\Radar_Core/Libraries/CMSIS/Include\core_cmSimd.h **** }
 470:C:\Users\Depes Crystalline\Desktop\school\Active_Bike_Lighting_System\Radar_Core/Libraries/CMSIS/Include\core_cmSimd.h **** 
 471:C:\Users\Depes Crystalline\Desktop\school\Active_Bike_Lighting_System\Radar_Core/Libraries/CMSIS/Include\core_cmSimd.h **** __attribute__( ( always_inline ) ) __STATIC_INLINE uint32_t __SXTB16(uint32_t op1)
 472:C:\Users\Depes Crystalline\Desktop\school\Active_Bike_Lighting_System\Radar_Core/Libraries/CMSIS/Include\core_cmSimd.h **** {
 473:C:\Users\Depes Crystalline\Desktop\school\Active_Bike_Lighting_System\Radar_Core/Libraries/CMSIS/Include\core_cmSimd.h ****   uint32_t result;
 474:C:\Users\Depes Crystalline\Desktop\school\Active_Bike_Lighting_System\Radar_Core/Libraries/CMSIS/Include\core_cmSimd.h **** 
 475:C:\Users\Depes Crystalline\Desktop\school\Active_Bike_Lighting_System\Radar_Core/Libraries/CMSIS/Include\core_cmSimd.h ****   __ASM volatile ("sxtb16 %0, %1" : "=r" (result) : "r" (op1));
 476:C:\Users\Depes Crystalline\Desktop\school\Active_Bike_Lighting_System\Radar_Core/Libraries/CMSIS/Include\core_cmSimd.h ****   return(result);
 477:C:\Users\Depes Crystalline\Desktop\school\Active_Bike_Lighting_System\Radar_Core/Libraries/CMSIS/Include\core_cmSimd.h **** }
 478:C:\Users\Depes Crystalline\Desktop\school\Active_Bike_Lighting_System\Radar_Core/Libraries/CMSIS/Include\core_cmSimd.h **** 
 479:C:\Users\Depes Crystalline\Desktop\school\Active_Bike_Lighting_System\Radar_Core/Libraries/CMSIS/Include\core_cmSimd.h **** __attribute__( ( always_inline ) ) __STATIC_INLINE uint32_t __SXTAB16(uint32_t op1, uint32_t op2)
 480:C:\Users\Depes Crystalline\Desktop\school\Active_Bike_Lighting_System\Radar_Core/Libraries/CMSIS/Include\core_cmSimd.h **** {
 481:C:\Users\Depes Crystalline\Desktop\school\Active_Bike_Lighting_System\Radar_Core/Libraries/CMSIS/Include\core_cmSimd.h ****   uint32_t result;
 482:C:\Users\Depes Crystalline\Desktop\school\Active_Bike_Lighting_System\Radar_Core/Libraries/CMSIS/Include\core_cmSimd.h **** 
 483:C:\Users\Depes Crystalline\Desktop\school\Active_Bike_Lighting_System\Radar_Core/Libraries/CMSIS/Include\core_cmSimd.h ****   __ASM volatile ("sxtab16 %0, %1, %2" : "=r" (result) : "r" (op1), "r" (op2) );
 484:C:\Users\Depes Crystalline\Desktop\school\Active_Bike_Lighting_System\Radar_Core/Libraries/CMSIS/Include\core_cmSimd.h ****   return(result);
 485:C:\Users\Depes Crystalline\Desktop\school\Active_Bike_Lighting_System\Radar_Core/Libraries/CMSIS/Include\core_cmSimd.h **** }
 486:C:\Users\Depes Crystalline\Desktop\school\Active_Bike_Lighting_System\Radar_Core/Libraries/CMSIS/Include\core_cmSimd.h **** 
 487:C:\Users\Depes Crystalline\Desktop\school\Active_Bike_Lighting_System\Radar_Core/Libraries/CMSIS/Include\core_cmSimd.h **** __attribute__( ( always_inline ) ) __STATIC_INLINE uint32_t __SMUAD  (uint32_t op1, uint32_t op2)
 488:C:\Users\Depes Crystalline\Desktop\school\Active_Bike_Lighting_System\Radar_Core/Libraries/CMSIS/Include\core_cmSimd.h **** {
 489:C:\Users\Depes Crystalline\Desktop\school\Active_Bike_Lighting_System\Radar_Core/Libraries/CMSIS/Include\core_cmSimd.h ****   uint32_t result;
 490:C:\Users\Depes Crystalline\Desktop\school\Active_Bike_Lighting_System\Radar_Core/Libraries/CMSIS/Include\core_cmSimd.h **** 
 491:C:\Users\Depes Crystalline\Desktop\school\Active_Bike_Lighting_System\Radar_Core/Libraries/CMSIS/Include\core_cmSimd.h ****   __ASM volatile ("smuad %0, %1, %2" : "=r" (result) : "r" (op1), "r" (op2) );
 492:C:\Users\Depes Crystalline\Desktop\school\Active_Bike_Lighting_System\Radar_Core/Libraries/CMSIS/Include\core_cmSimd.h ****   return(result);
 493:C:\Users\Depes Crystalline\Desktop\school\Active_Bike_Lighting_System\Radar_Core/Libraries/CMSIS/Include\core_cmSimd.h **** }
 494:C:\Users\Depes Crystalline\Desktop\school\Active_Bike_Lighting_System\Radar_Core/Libraries/CMSIS/Include\core_cmSimd.h **** 
 495:C:\Users\Depes Crystalline\Desktop\school\Active_Bike_Lighting_System\Radar_Core/Libraries/CMSIS/Include\core_cmSimd.h **** __attribute__( ( always_inline ) ) __STATIC_INLINE uint32_t __SMUADX (uint32_t op1, uint32_t op2)
 496:C:\Users\Depes Crystalline\Desktop\school\Active_Bike_Lighting_System\Radar_Core/Libraries/CMSIS/Include\core_cmSimd.h **** {
 497:C:\Users\Depes Crystalline\Desktop\school\Active_Bike_Lighting_System\Radar_Core/Libraries/CMSIS/Include\core_cmSimd.h ****   uint32_t result;
 498:C:\Users\Depes Crystalline\Desktop\school\Active_Bike_Lighting_System\Radar_Core/Libraries/CMSIS/Include\core_cmSimd.h **** 
 499:C:\Users\Depes Crystalline\Desktop\school\Active_Bike_Lighting_System\Radar_Core/Libraries/CMSIS/Include\core_cmSimd.h ****   __ASM volatile ("smuadx %0, %1, %2" : "=r" (result) : "r" (op1), "r" (op2) );
 500:C:\Users\Depes Crystalline\Desktop\school\Active_Bike_Lighting_System\Radar_Core/Libraries/CMSIS/Include\core_cmSimd.h ****   return(result);
 501:C:\Users\Depes Crystalline\Desktop\school\Active_Bike_Lighting_System\Radar_Core/Libraries/CMSIS/Include\core_cmSimd.h **** }
 502:C:\Users\Depes Crystalline\Desktop\school\Active_Bike_Lighting_System\Radar_Core/Libraries/CMSIS/Include\core_cmSimd.h **** 
 503:C:\Users\Depes Crystalline\Desktop\school\Active_Bike_Lighting_System\Radar_Core/Libraries/CMSIS/Include\core_cmSimd.h **** __attribute__( ( always_inline ) ) __STATIC_INLINE uint32_t __SMLAD (uint32_t op1, uint32_t op2, ui
 504:C:\Users\Depes Crystalline\Desktop\school\Active_Bike_Lighting_System\Radar_Core/Libraries/CMSIS/Include\core_cmSimd.h **** {
 505:C:\Users\Depes Crystalline\Desktop\school\Active_Bike_Lighting_System\Radar_Core/Libraries/CMSIS/Include\core_cmSimd.h ****   uint32_t result;
 506:C:\Users\Depes Crystalline\Desktop\school\Active_Bike_Lighting_System\Radar_Core/Libraries/CMSIS/Include\core_cmSimd.h **** 
 507:C:\Users\Depes Crystalline\Desktop\school\Active_Bike_Lighting_System\Radar_Core/Libraries/CMSIS/Include\core_cmSimd.h ****   __ASM volatile ("smlad %0, %1, %2, %3" : "=r" (result) : "r" (op1), "r" (op2), "r" (op3) );
 230              	 .loc 2 507 0
 231 01b4 D7F8F030 	 ldr r3,[r7,#240]
 232 01b8 D7F8EC20 	 ldr r2,[r7,#236]
 233 01bc D7F8E810 	 ldr r1,[r7,#232]
 234              	
 235 01c0 23FB0213 	 smlad r3,r3,r2,r1
 236              	
 237              	 .thumb
 238 01c4 C7F8E430 	 str r3,[r7,#228]
 508:C:\Users\Depes Crystalline\Desktop\school\Active_Bike_Lighting_System\Radar_Core/Libraries/CMSIS/Include\core_cmSimd.h ****   return(result);
 239              	 .loc 2 508 0
 240 01c8 D7F8E430 	 ldr r3,[r7,#228]
 241              	.LBE39:
 242              	.LBE38:
 243              	 .loc 1 222 0
 244 01cc C7F87C31 	 str r3,[r7,#380]
 223:../Dave/Generated/CMSIS_DSP/FilteringFunctions/arm_correlate_q7.c **** 
 224:../Dave/Generated/CMSIS_DSP/FilteringFunctions/arm_correlate_q7.c ****       /* x[2] , x[3] */
 225:../Dave/Generated/CMSIS_DSP/FilteringFunctions/arm_correlate_q7.c ****       in1 = (q15_t) * px++;
 245              	 .loc 1 225 0
 246 01d0 D7F88831 	 ldr r3,[r7,#392]
 247 01d4 5A1C     	 adds r2,r3,#1
 248 01d6 C7F88821 	 str r2,[r7,#392]
 249 01da 1B78     	 ldrb r3,[r3]
 250 01dc 5BB2     	 sxtb r3,r3
 251 01de A7F84231 	 strh r3,[r7,#322]
 226:../Dave/Generated/CMSIS_DSP/FilteringFunctions/arm_correlate_q7.c ****       in2 = (q15_t) * px++;
 252              	 .loc 1 226 0
 253 01e2 D7F88831 	 ldr r3,[r7,#392]
 254 01e6 5A1C     	 adds r2,r3,#1
 255 01e8 C7F88821 	 str r2,[r7,#392]
 256 01ec 1B78     	 ldrb r3,[r3]
 257 01ee 5BB2     	 sxtb r3,r3
 258 01f0 A7F84031 	 strh r3,[r7,#320]
 227:../Dave/Generated/CMSIS_DSP/FilteringFunctions/arm_correlate_q7.c ****       input1 = ((q31_t) in1 & 0x0000FFFF) | ((q31_t) in2 << 16);
 259              	 .loc 1 227 0
 260 01f4 B7F94231 	 ldrsh r3,[r7,#322]
 261 01f8 9AB2     	 uxth r2,r3
 262 01fa B7F94031 	 ldrsh r3,[r7,#320]
 263 01fe 1B04     	 lsls r3,r3,#16
 264 0200 1343     	 orrs r3,r3,r2
 265 0202 C7F83C31 	 str r3,[r7,#316]
 228:../Dave/Generated/CMSIS_DSP/FilteringFunctions/arm_correlate_q7.c **** 
 229:../Dave/Generated/CMSIS_DSP/FilteringFunctions/arm_correlate_q7.c ****       /* y[srcBLen - 2] , y[srcBLen - 1] */
 230:../Dave/Generated/CMSIS_DSP/FilteringFunctions/arm_correlate_q7.c ****       in1 = (q15_t) * py++;
 266              	 .loc 1 230 0
 267 0206 D7F88431 	 ldr r3,[r7,#388]
 268 020a 5A1C     	 adds r2,r3,#1
 269 020c C7F88421 	 str r2,[r7,#388]
 270 0210 1B78     	 ldrb r3,[r3]
 271 0212 5BB2     	 sxtb r3,r3
 272 0214 A7F84231 	 strh r3,[r7,#322]
 231:../Dave/Generated/CMSIS_DSP/FilteringFunctions/arm_correlate_q7.c ****       in2 = (q15_t) * py++;
 273              	 .loc 1 231 0
 274 0218 D7F88431 	 ldr r3,[r7,#388]
 275 021c 5A1C     	 adds r2,r3,#1
 276 021e C7F88421 	 str r2,[r7,#388]
 277 0222 1B78     	 ldrb r3,[r3]
 278 0224 5BB2     	 sxtb r3,r3
 279 0226 A7F84031 	 strh r3,[r7,#320]
 232:../Dave/Generated/CMSIS_DSP/FilteringFunctions/arm_correlate_q7.c ****       input2 = ((q31_t) in1 & 0x0000FFFF) | ((q31_t) in2 << 16);
 280              	 .loc 1 232 0
 281 022a B7F94231 	 ldrsh r3,[r7,#322]
 282 022e 9AB2     	 uxth r2,r3
 283 0230 B7F94031 	 ldrsh r3,[r7,#320]
 284 0234 1B04     	 lsls r3,r3,#16
 285 0236 1343     	 orrs r3,r3,r2
 286 0238 C7F83831 	 str r3,[r7,#312]
 233:../Dave/Generated/CMSIS_DSP/FilteringFunctions/arm_correlate_q7.c **** 
 234:../Dave/Generated/CMSIS_DSP/FilteringFunctions/arm_correlate_q7.c ****       /* x[2] * y[srcBLen - 2] */
 235:../Dave/Generated/CMSIS_DSP/FilteringFunctions/arm_correlate_q7.c ****       /* x[3] * y[srcBLen - 1] */
 236:../Dave/Generated/CMSIS_DSP/FilteringFunctions/arm_correlate_q7.c ****       sum = __SMLAD(input1, input2, sum);
 287              	 .loc 1 236 0
 288 023c D7F83C11 	 ldr r1,[r7,#316]
 289 0240 D7F83821 	 ldr r2,[r7,#312]
 290 0244 D7F87C31 	 ldr r3,[r7,#380]
 291 0248 C7F8E010 	 str r1,[r7,#224]
 292 024c C7F8DC20 	 str r2,[r7,#220]
 293 0250 C7F8D830 	 str r3,[r7,#216]
 294              	.LBB40:
 295              	.LBB41:
 507:C:\Users\Depes Crystalline\Desktop\school\Active_Bike_Lighting_System\Radar_Core/Libraries/CMSIS/Include\core_cmSimd.h ****   return(result);
 296              	 .loc 2 507 0
 297 0254 D7F8E030 	 ldr r3,[r7,#224]
 298 0258 D7F8DC20 	 ldr r2,[r7,#220]
 299 025c D7F8D810 	 ldr r1,[r7,#216]
 300              	
 301 0260 23FB0213 	 smlad r3,r3,r2,r1
 302              	
 303              	 .thumb
 304 0264 C7F8D430 	 str r3,[r7,#212]
 305              	 .loc 2 508 0
 306 0268 D7F8D430 	 ldr r3,[r7,#212]
 307              	.LBE41:
 308              	.LBE40:
 309              	 .loc 1 236 0
 310 026c C7F87C31 	 str r3,[r7,#380]
 237:../Dave/Generated/CMSIS_DSP/FilteringFunctions/arm_correlate_q7.c **** 
 238:../Dave/Generated/CMSIS_DSP/FilteringFunctions/arm_correlate_q7.c **** 
 239:../Dave/Generated/CMSIS_DSP/FilteringFunctions/arm_correlate_q7.c ****       /* Decrement the loop counter */
 240:../Dave/Generated/CMSIS_DSP/FilteringFunctions/arm_correlate_q7.c ****       k--;
 311              	 .loc 1 240 0
 312 0270 D7F86431 	 ldr r3,[r7,#356]
 313 0274 013B     	 subs r3,r3,#1
 314 0276 C7F86431 	 str r3,[r7,#356]
 315              	.L5:
 208:../Dave/Generated/CMSIS_DSP/FilteringFunctions/arm_correlate_q7.c ****     {
 316              	 .loc 1 208 0
 317 027a D7F86431 	 ldr r3,[r7,#356]
 318 027e 002B     	 cmp r3,#0
 319 0280 7FF456AF 	 bne .L8
 241:../Dave/Generated/CMSIS_DSP/FilteringFunctions/arm_correlate_q7.c ****     }
 242:../Dave/Generated/CMSIS_DSP/FilteringFunctions/arm_correlate_q7.c **** 
 243:../Dave/Generated/CMSIS_DSP/FilteringFunctions/arm_correlate_q7.c ****     /* If the count is not a multiple of 4, compute any remaining MACs here.   
 244:../Dave/Generated/CMSIS_DSP/FilteringFunctions/arm_correlate_q7.c ****      ** No loop unrolling is used. */
 245:../Dave/Generated/CMSIS_DSP/FilteringFunctions/arm_correlate_q7.c ****     k = count % 0x4u;
 320              	 .loc 1 245 0
 321 0284 D7F86031 	 ldr r3,[r7,#352]
 322 0288 03F00303 	 and r3,r3,#3
 323 028c C7F86431 	 str r3,[r7,#356]
 246:../Dave/Generated/CMSIS_DSP/FilteringFunctions/arm_correlate_q7.c **** 
 247:../Dave/Generated/CMSIS_DSP/FilteringFunctions/arm_correlate_q7.c ****     while(k > 0u)
 324              	 .loc 1 247 0
 325 0290 19E0     	 b .L9
 326              	.L10:
 248:../Dave/Generated/CMSIS_DSP/FilteringFunctions/arm_correlate_q7.c ****     {
 249:../Dave/Generated/CMSIS_DSP/FilteringFunctions/arm_correlate_q7.c ****       /* Perform the multiply-accumulates */
 250:../Dave/Generated/CMSIS_DSP/FilteringFunctions/arm_correlate_q7.c ****       /* x[0] * y[srcBLen - 1] */
 251:../Dave/Generated/CMSIS_DSP/FilteringFunctions/arm_correlate_q7.c ****       sum += (q31_t) ((q15_t) * px++ * *py++);
 327              	 .loc 1 251 0
 328 0292 D7F88831 	 ldr r3,[r7,#392]
 329 0296 5A1C     	 adds r2,r3,#1
 330 0298 C7F88821 	 str r2,[r7,#392]
 331 029c 1B78     	 ldrb r3,[r3]
 332 029e 5AB2     	 sxtb r2,r3
 333 02a0 D7F88431 	 ldr r3,[r7,#388]
 334 02a4 591C     	 adds r1,r3,#1
 335 02a6 C7F88411 	 str r1,[r7,#388]
 336 02aa 1B78     	 ldrb r3,[r3]
 337 02ac 5BB2     	 sxtb r3,r3
 338 02ae 03FB02F3 	 mul r3,r3,r2
 339 02b2 D7F87C21 	 ldr r2,[r7,#380]
 340 02b6 1344     	 add r3,r3,r2
 341 02b8 C7F87C31 	 str r3,[r7,#380]
 252:../Dave/Generated/CMSIS_DSP/FilteringFunctions/arm_correlate_q7.c **** 
 253:../Dave/Generated/CMSIS_DSP/FilteringFunctions/arm_correlate_q7.c ****       /* Decrement the loop counter */
 254:../Dave/Generated/CMSIS_DSP/FilteringFunctions/arm_correlate_q7.c ****       k--;
 342              	 .loc 1 254 0
 343 02bc D7F86431 	 ldr r3,[r7,#356]
 344 02c0 013B     	 subs r3,r3,#1
 345 02c2 C7F86431 	 str r3,[r7,#356]
 346              	.L9:
 247:../Dave/Generated/CMSIS_DSP/FilteringFunctions/arm_correlate_q7.c ****     {
 347              	 .loc 1 247 0
 348 02c6 D7F86431 	 ldr r3,[r7,#356]
 349 02ca 002B     	 cmp r3,#0
 350 02cc E1D1     	 bne .L10
 351              	.LBB42:
 255:../Dave/Generated/CMSIS_DSP/FilteringFunctions/arm_correlate_q7.c ****     }
 256:../Dave/Generated/CMSIS_DSP/FilteringFunctions/arm_correlate_q7.c **** 
 257:../Dave/Generated/CMSIS_DSP/FilteringFunctions/arm_correlate_q7.c ****     /* Store the result in the accumulator in the destination buffer. */
 258:../Dave/Generated/CMSIS_DSP/FilteringFunctions/arm_correlate_q7.c ****     *pOut = (q7_t) (__SSAT(sum >> 7, 8));
 352              	 .loc 1 258 0
 353 02ce D7F87C31 	 ldr r3,[r7,#380]
 354 02d2 DB11     	 asrs r3,r3,#7
 355 02d4 C7F83431 	 str r3,[r7,#308]
 356 02d8 D7F83431 	 ldr r3,[r7,#308]
 357              	
 358 02dc 03F30703 	 ssat r3,#8,r3
 359              	
 360              	 .thumb
 361 02e0 C7F83031 	 str r3,[r7,#304]
 362 02e4 D7F83031 	 ldr r3,[r7,#304]
 363              	.LBE42:
 364 02e8 DAB2     	 uxtb r2,r3
 365 02ea D7F88C31 	 ldr r3,[r7,#396]
 366 02ee 1A70     	 strb r2,[r3]
 259:../Dave/Generated/CMSIS_DSP/FilteringFunctions/arm_correlate_q7.c ****     /* Destination pointer is updated according to the address modifier, inc */
 260:../Dave/Generated/CMSIS_DSP/FilteringFunctions/arm_correlate_q7.c ****     pOut += inc;
 367              	 .loc 1 260 0
 368 02f0 D7F85031 	 ldr r3,[r7,#336]
 369 02f4 D7F88C21 	 ldr r2,[r7,#396]
 370 02f8 1344     	 add r3,r3,r2
 371 02fa C7F88C31 	 str r3,[r7,#396]
 261:../Dave/Generated/CMSIS_DSP/FilteringFunctions/arm_correlate_q7.c **** 
 262:../Dave/Generated/CMSIS_DSP/FilteringFunctions/arm_correlate_q7.c ****     /* Update the inputA and inputB pointers for next MAC calculation */
 263:../Dave/Generated/CMSIS_DSP/FilteringFunctions/arm_correlate_q7.c ****     py = pSrc1 - count;
 372              	 .loc 1 263 0
 373 02fe D7F86031 	 ldr r3,[r7,#352]
 374 0302 5B42     	 negs r3,r3
 375 0304 D7F88021 	 ldr r2,[r7,#384]
 376 0308 1344     	 add r3,r3,r2
 377 030a C7F88431 	 str r3,[r7,#388]
 264:../Dave/Generated/CMSIS_DSP/FilteringFunctions/arm_correlate_q7.c ****     px = pIn1;
 378              	 .loc 1 264 0
 379 030e D7F89431 	 ldr r3,[r7,#404]
 380 0312 C7F88831 	 str r3,[r7,#392]
 265:../Dave/Generated/CMSIS_DSP/FilteringFunctions/arm_correlate_q7.c **** 
 266:../Dave/Generated/CMSIS_DSP/FilteringFunctions/arm_correlate_q7.c ****     /* Increment the MAC count */
 267:../Dave/Generated/CMSIS_DSP/FilteringFunctions/arm_correlate_q7.c ****     count++;
 381              	 .loc 1 267 0
 382 0316 D7F86031 	 ldr r3,[r7,#352]
 383 031a 0133     	 adds r3,r3,#1
 384 031c C7F86031 	 str r3,[r7,#352]
 268:../Dave/Generated/CMSIS_DSP/FilteringFunctions/arm_correlate_q7.c **** 
 269:../Dave/Generated/CMSIS_DSP/FilteringFunctions/arm_correlate_q7.c ****     /* Decrement the loop counter */
 270:../Dave/Generated/CMSIS_DSP/FilteringFunctions/arm_correlate_q7.c ****     blockSize1--;
 385              	 .loc 1 270 0
 386 0320 D7F85831 	 ldr r3,[r7,#344]
 387 0324 013B     	 subs r3,r3,#1
 388 0326 C7F85831 	 str r3,[r7,#344]
 389              	.L4:
 198:../Dave/Generated/CMSIS_DSP/FilteringFunctions/arm_correlate_q7.c ****   {
 390              	 .loc 1 198 0
 391 032a D7F85831 	 ldr r3,[r7,#344]
 392 032e 002B     	 cmp r3,#0
 393 0330 7FF4F5AE 	 bne .L11
 271:../Dave/Generated/CMSIS_DSP/FilteringFunctions/arm_correlate_q7.c ****   }
 272:../Dave/Generated/CMSIS_DSP/FilteringFunctions/arm_correlate_q7.c **** 
 273:../Dave/Generated/CMSIS_DSP/FilteringFunctions/arm_correlate_q7.c ****   /* --------------------------   
 274:../Dave/Generated/CMSIS_DSP/FilteringFunctions/arm_correlate_q7.c ****    * Initializations of stage2   
 275:../Dave/Generated/CMSIS_DSP/FilteringFunctions/arm_correlate_q7.c ****    * ------------------------*/
 276:../Dave/Generated/CMSIS_DSP/FilteringFunctions/arm_correlate_q7.c **** 
 277:../Dave/Generated/CMSIS_DSP/FilteringFunctions/arm_correlate_q7.c ****   /* sum = x[0] * y[0] + x[1] * y[1] +...+ x[srcBLen-1] * y[srcBLen-1]   
 278:../Dave/Generated/CMSIS_DSP/FilteringFunctions/arm_correlate_q7.c ****    * sum = x[1] * y[0] + x[2] * y[1] +...+ x[srcBLen] * y[srcBLen-1]   
 279:../Dave/Generated/CMSIS_DSP/FilteringFunctions/arm_correlate_q7.c ****    * ....   
 280:../Dave/Generated/CMSIS_DSP/FilteringFunctions/arm_correlate_q7.c ****    * sum = x[srcALen-srcBLen-2] * y[0] + x[srcALen-srcBLen-1] * y[1] +...+ x[srcALen-1] * y[srcBLen
 281:../Dave/Generated/CMSIS_DSP/FilteringFunctions/arm_correlate_q7.c ****    */
 282:../Dave/Generated/CMSIS_DSP/FilteringFunctions/arm_correlate_q7.c **** 
 283:../Dave/Generated/CMSIS_DSP/FilteringFunctions/arm_correlate_q7.c ****   /* Working pointer of inputA */
 284:../Dave/Generated/CMSIS_DSP/FilteringFunctions/arm_correlate_q7.c ****   px = pIn1;
 394              	 .loc 1 284 0
 395 0334 D7F89431 	 ldr r3,[r7,#404]
 396 0338 C7F88831 	 str r3,[r7,#392]
 285:../Dave/Generated/CMSIS_DSP/FilteringFunctions/arm_correlate_q7.c **** 
 286:../Dave/Generated/CMSIS_DSP/FilteringFunctions/arm_correlate_q7.c ****   /* Working pointer of inputB */
 287:../Dave/Generated/CMSIS_DSP/FilteringFunctions/arm_correlate_q7.c ****   py = pIn2;
 397              	 .loc 1 287 0
 398 033c D7F89031 	 ldr r3,[r7,#400]
 399 0340 C7F88431 	 str r3,[r7,#388]
 288:../Dave/Generated/CMSIS_DSP/FilteringFunctions/arm_correlate_q7.c **** 
 289:../Dave/Generated/CMSIS_DSP/FilteringFunctions/arm_correlate_q7.c ****   /* count is index by which the pointer pIn1 to be incremented */
 290:../Dave/Generated/CMSIS_DSP/FilteringFunctions/arm_correlate_q7.c ****   count = 0u;
 400              	 .loc 1 290 0
 401 0344 0023     	 movs r3,#0
 402 0346 C7F86031 	 str r3,[r7,#352]
 291:../Dave/Generated/CMSIS_DSP/FilteringFunctions/arm_correlate_q7.c **** 
 292:../Dave/Generated/CMSIS_DSP/FilteringFunctions/arm_correlate_q7.c ****   /* -------------------   
 293:../Dave/Generated/CMSIS_DSP/FilteringFunctions/arm_correlate_q7.c ****    * Stage2 process   
 294:../Dave/Generated/CMSIS_DSP/FilteringFunctions/arm_correlate_q7.c ****    * ------------------*/
 295:../Dave/Generated/CMSIS_DSP/FilteringFunctions/arm_correlate_q7.c **** 
 296:../Dave/Generated/CMSIS_DSP/FilteringFunctions/arm_correlate_q7.c ****   /* Stage2 depends on srcBLen as in this stage srcBLen number of MACS are performed.   
 297:../Dave/Generated/CMSIS_DSP/FilteringFunctions/arm_correlate_q7.c ****    * So, to loop unroll over blockSize2,   
 298:../Dave/Generated/CMSIS_DSP/FilteringFunctions/arm_correlate_q7.c ****    * srcBLen should be greater than or equal to 4 */
 299:../Dave/Generated/CMSIS_DSP/FilteringFunctions/arm_correlate_q7.c ****   if(srcBLen >= 4u)
 403              	 .loc 1 299 0
 404 034a 3B46     	 mov r3,r7
 405 034c 1B68     	 ldr r3,[r3]
 406 034e 032B     	 cmp r3,#3
 407 0350 40F20B84 	 bls .L12
 300:../Dave/Generated/CMSIS_DSP/FilteringFunctions/arm_correlate_q7.c ****   {
 301:../Dave/Generated/CMSIS_DSP/FilteringFunctions/arm_correlate_q7.c ****     /* Loop unroll over blockSize2, by 4 */
 302:../Dave/Generated/CMSIS_DSP/FilteringFunctions/arm_correlate_q7.c ****     blkCnt = blockSize2 >> 2u;
 408              	 .loc 1 302 0
 409 0354 D7F84431 	 ldr r3,[r7,#324]
 410 0358 9B08     	 lsrs r3,r3,#2
 411 035a C7F85C31 	 str r3,[r7,#348]
 303:../Dave/Generated/CMSIS_DSP/FilteringFunctions/arm_correlate_q7.c **** 
 304:../Dave/Generated/CMSIS_DSP/FilteringFunctions/arm_correlate_q7.c ****     while(blkCnt > 0u)
 412              	 .loc 1 304 0
 413 035e DDE2     	 b .L13
 414              	.L25:
 305:../Dave/Generated/CMSIS_DSP/FilteringFunctions/arm_correlate_q7.c ****     {
 306:../Dave/Generated/CMSIS_DSP/FilteringFunctions/arm_correlate_q7.c ****       /* Set all accumulators to zero */
 307:../Dave/Generated/CMSIS_DSP/FilteringFunctions/arm_correlate_q7.c ****       acc0 = 0;
 415              	 .loc 1 307 0
 416 0360 0023     	 movs r3,#0
 417 0362 C7F87831 	 str r3,[r7,#376]
 308:../Dave/Generated/CMSIS_DSP/FilteringFunctions/arm_correlate_q7.c ****       acc1 = 0;
 418              	 .loc 1 308 0
 419 0366 0023     	 movs r3,#0
 420 0368 C7F87431 	 str r3,[r7,#372]
 309:../Dave/Generated/CMSIS_DSP/FilteringFunctions/arm_correlate_q7.c ****       acc2 = 0;
 421              	 .loc 1 309 0
 422 036c 0023     	 movs r3,#0
 423 036e C7F87031 	 str r3,[r7,#368]
 310:../Dave/Generated/CMSIS_DSP/FilteringFunctions/arm_correlate_q7.c ****       acc3 = 0;
 424              	 .loc 1 310 0
 425 0372 0023     	 movs r3,#0
 426 0374 C7F86C31 	 str r3,[r7,#364]
 311:../Dave/Generated/CMSIS_DSP/FilteringFunctions/arm_correlate_q7.c **** 
 312:../Dave/Generated/CMSIS_DSP/FilteringFunctions/arm_correlate_q7.c ****       /* read x[0], x[1], x[2] samples */
 313:../Dave/Generated/CMSIS_DSP/FilteringFunctions/arm_correlate_q7.c ****       x0 = *px++;
 427              	 .loc 1 313 0
 428 0378 D7F88831 	 ldr r3,[r7,#392]
 429 037c 5A1C     	 adds r2,r3,#1
 430 037e C7F88821 	 str r2,[r7,#392]
 431 0382 1B78     	 ldrb r3,[r3]
 432 0384 87F86B31 	 strb r3,[r7,#363]
 314:../Dave/Generated/CMSIS_DSP/FilteringFunctions/arm_correlate_q7.c ****       x1 = *px++;
 433              	 .loc 1 314 0
 434 0388 D7F88831 	 ldr r3,[r7,#392]
 435 038c 5A1C     	 adds r2,r3,#1
 436 038e C7F88821 	 str r2,[r7,#392]
 437 0392 1B78     	 ldrb r3,[r3]
 438 0394 87F86A31 	 strb r3,[r7,#362]
 315:../Dave/Generated/CMSIS_DSP/FilteringFunctions/arm_correlate_q7.c ****       x2 = *px++;
 439              	 .loc 1 315 0
 440 0398 D7F88831 	 ldr r3,[r7,#392]
 441 039c 5A1C     	 adds r2,r3,#1
 442 039e C7F88821 	 str r2,[r7,#392]
 443 03a2 1B78     	 ldrb r3,[r3]
 444 03a4 87F86931 	 strb r3,[r7,#361]
 316:../Dave/Generated/CMSIS_DSP/FilteringFunctions/arm_correlate_q7.c **** 
 317:../Dave/Generated/CMSIS_DSP/FilteringFunctions/arm_correlate_q7.c ****       /* Apply loop unrolling and compute 4 MACs simultaneously. */
 318:../Dave/Generated/CMSIS_DSP/FilteringFunctions/arm_correlate_q7.c ****       k = srcBLen >> 2u;
 445              	 .loc 1 318 0
 446 03a8 3B46     	 mov r3,r7
 447 03aa 1B68     	 ldr r3,[r3]
 448 03ac 9B08     	 lsrs r3,r3,#2
 449 03ae C7F86431 	 str r3,[r7,#356]
 450              	.L22:
 319:../Dave/Generated/CMSIS_DSP/FilteringFunctions/arm_correlate_q7.c **** 
 320:../Dave/Generated/CMSIS_DSP/FilteringFunctions/arm_correlate_q7.c ****       /* First part of the processing with loop unrolling.  Compute 4 MACs at a time.   
 321:../Dave/Generated/CMSIS_DSP/FilteringFunctions/arm_correlate_q7.c ****        ** a second loop below computes MACs for the remaining 1 to 3 samples. */
 322:../Dave/Generated/CMSIS_DSP/FilteringFunctions/arm_correlate_q7.c ****       do
 323:../Dave/Generated/CMSIS_DSP/FilteringFunctions/arm_correlate_q7.c ****       {
 324:../Dave/Generated/CMSIS_DSP/FilteringFunctions/arm_correlate_q7.c ****         /* Read y[0] sample */
 325:../Dave/Generated/CMSIS_DSP/FilteringFunctions/arm_correlate_q7.c ****         c0 = *py++;
 451              	 .loc 1 325 0 discriminator 1
 452 03b2 D7F88431 	 ldr r3,[r7,#388]
 453 03b6 5A1C     	 adds r2,r3,#1
 454 03b8 C7F88421 	 str r2,[r7,#388]
 455 03bc 1B78     	 ldrb r3,[r3]
 456 03be 87F82F31 	 strb r3,[r7,#303]
 326:../Dave/Generated/CMSIS_DSP/FilteringFunctions/arm_correlate_q7.c ****         /* Read y[1] sample */
 327:../Dave/Generated/CMSIS_DSP/FilteringFunctions/arm_correlate_q7.c ****         c1 = *py++;
 457              	 .loc 1 327 0 discriminator 1
 458 03c2 D7F88431 	 ldr r3,[r7,#388]
 459 03c6 5A1C     	 adds r2,r3,#1
 460 03c8 C7F88421 	 str r2,[r7,#388]
 461 03cc 1B78     	 ldrb r3,[r3]
 462 03ce 87F82E31 	 strb r3,[r7,#302]
 328:../Dave/Generated/CMSIS_DSP/FilteringFunctions/arm_correlate_q7.c **** 
 329:../Dave/Generated/CMSIS_DSP/FilteringFunctions/arm_correlate_q7.c ****         /* Read x[3] sample */
 330:../Dave/Generated/CMSIS_DSP/FilteringFunctions/arm_correlate_q7.c ****         x3 = *px++;
 463              	 .loc 1 330 0 discriminator 1
 464 03d2 D7F88831 	 ldr r3,[r7,#392]
 465 03d6 5A1C     	 adds r2,r3,#1
 466 03d8 C7F88821 	 str r2,[r7,#392]
 467 03dc 1B78     	 ldrb r3,[r3]
 468 03de 87F82D31 	 strb r3,[r7,#301]
 331:../Dave/Generated/CMSIS_DSP/FilteringFunctions/arm_correlate_q7.c **** 
 332:../Dave/Generated/CMSIS_DSP/FilteringFunctions/arm_correlate_q7.c ****         /* x[0] and x[1] are packed */
 333:../Dave/Generated/CMSIS_DSP/FilteringFunctions/arm_correlate_q7.c ****         in1 = (q15_t) x0;
 469              	 .loc 1 333 0 discriminator 1
 470 03e2 97F96B31 	 ldrsb r3,[r7,#363]
 471 03e6 A7F84231 	 strh r3,[r7,#322]
 334:../Dave/Generated/CMSIS_DSP/FilteringFunctions/arm_correlate_q7.c ****         in2 = (q15_t) x1;
 472              	 .loc 1 334 0 discriminator 1
 473 03ea 97F96A31 	 ldrsb r3,[r7,#362]
 474 03ee A7F84031 	 strh r3,[r7,#320]
 335:../Dave/Generated/CMSIS_DSP/FilteringFunctions/arm_correlate_q7.c **** 
 336:../Dave/Generated/CMSIS_DSP/FilteringFunctions/arm_correlate_q7.c ****         input1 = ((q31_t) in1 & 0x0000FFFF) | ((q31_t) in2 << 16);
 475              	 .loc 1 336 0 discriminator 1
 476 03f2 B7F94231 	 ldrsh r3,[r7,#322]
 477 03f6 9AB2     	 uxth r2,r3
 478 03f8 B7F94031 	 ldrsh r3,[r7,#320]
 479 03fc 1B04     	 lsls r3,r3,#16
 480 03fe 1343     	 orrs r3,r3,r2
 481 0400 C7F83C31 	 str r3,[r7,#316]
 337:../Dave/Generated/CMSIS_DSP/FilteringFunctions/arm_correlate_q7.c **** 
 338:../Dave/Generated/CMSIS_DSP/FilteringFunctions/arm_correlate_q7.c ****         /* y[0] and y[1] are packed */
 339:../Dave/Generated/CMSIS_DSP/FilteringFunctions/arm_correlate_q7.c ****         in1 = (q15_t) c0;
 482              	 .loc 1 339 0 discriminator 1
 483 0404 97F92F31 	 ldrsb r3,[r7,#303]
 484 0408 A7F84231 	 strh r3,[r7,#322]
 340:../Dave/Generated/CMSIS_DSP/FilteringFunctions/arm_correlate_q7.c ****         in2 = (q15_t) c1;
 485              	 .loc 1 340 0 discriminator 1
 486 040c 97F92E31 	 ldrsb r3,[r7,#302]
 487 0410 A7F84031 	 strh r3,[r7,#320]
 341:../Dave/Generated/CMSIS_DSP/FilteringFunctions/arm_correlate_q7.c **** 
 342:../Dave/Generated/CMSIS_DSP/FilteringFunctions/arm_correlate_q7.c ****         input2 = ((q31_t) in1 & 0x0000FFFF) | ((q31_t) in2 << 16);
 488              	 .loc 1 342 0 discriminator 1
 489 0414 B7F94231 	 ldrsh r3,[r7,#322]
 490 0418 9AB2     	 uxth r2,r3
 491 041a B7F94031 	 ldrsh r3,[r7,#320]
 492 041e 1B04     	 lsls r3,r3,#16
 493 0420 1343     	 orrs r3,r3,r2
 494 0422 C7F83831 	 str r3,[r7,#312]
 343:../Dave/Generated/CMSIS_DSP/FilteringFunctions/arm_correlate_q7.c **** 
 344:../Dave/Generated/CMSIS_DSP/FilteringFunctions/arm_correlate_q7.c ****         /* acc0 += x[0] * y[0] + x[1] * y[1]  */
 345:../Dave/Generated/CMSIS_DSP/FilteringFunctions/arm_correlate_q7.c ****         acc0 = __SMLAD(input1, input2, acc0);
 495              	 .loc 1 345 0 discriminator 1
 496 0426 D7F83C11 	 ldr r1,[r7,#316]
 497 042a D7F83821 	 ldr r2,[r7,#312]
 498 042e D7F87831 	 ldr r3,[r7,#376]
 499 0432 C7F8D010 	 str r1,[r7,#208]
 500 0436 C7F8CC20 	 str r2,[r7,#204]
 501 043a C7F8C830 	 str r3,[r7,#200]
 502              	.LBB43:
 503              	.LBB44:
 507:C:\Users\Depes Crystalline\Desktop\school\Active_Bike_Lighting_System\Radar_Core/Libraries/CMSIS/Include\core_cmSimd.h ****   return(result);
 504              	 .loc 2 507 0 discriminator 1
 505 043e D7F8D030 	 ldr r3,[r7,#208]
 506 0442 D7F8CC20 	 ldr r2,[r7,#204]
 507 0446 D7F8C810 	 ldr r1,[r7,#200]
 508              	
 509 044a 23FB0213 	 smlad r3,r3,r2,r1
 510              	
 511              	 .thumb
 512 044e C7F8C430 	 str r3,[r7,#196]
 513              	 .loc 2 508 0 discriminator 1
 514 0452 D7F8C430 	 ldr r3,[r7,#196]
 515              	.LBE44:
 516              	.LBE43:
 517              	 .loc 1 345 0 discriminator 1
 518 0456 C7F87831 	 str r3,[r7,#376]
 346:../Dave/Generated/CMSIS_DSP/FilteringFunctions/arm_correlate_q7.c **** 
 347:../Dave/Generated/CMSIS_DSP/FilteringFunctions/arm_correlate_q7.c ****         /* x[1] and x[2] are packed */
 348:../Dave/Generated/CMSIS_DSP/FilteringFunctions/arm_correlate_q7.c ****         in1 = (q15_t) x1;
 519              	 .loc 1 348 0 discriminator 1
 520 045a 97F96A31 	 ldrsb r3,[r7,#362]
 521 045e A7F84231 	 strh r3,[r7,#322]
 349:../Dave/Generated/CMSIS_DSP/FilteringFunctions/arm_correlate_q7.c ****         in2 = (q15_t) x2;
 522              	 .loc 1 349 0 discriminator 1
 523 0462 97F96931 	 ldrsb r3,[r7,#361]
 524 0466 A7F84031 	 strh r3,[r7,#320]
 350:../Dave/Generated/CMSIS_DSP/FilteringFunctions/arm_correlate_q7.c **** 
 351:../Dave/Generated/CMSIS_DSP/FilteringFunctions/arm_correlate_q7.c ****         input1 = ((q31_t) in1 & 0x0000FFFF) | ((q31_t) in2 << 16);
 525              	 .loc 1 351 0 discriminator 1
 526 046a B7F94231 	 ldrsh r3,[r7,#322]
 527 046e 9AB2     	 uxth r2,r3
 528 0470 B7F94031 	 ldrsh r3,[r7,#320]
 529 0474 1B04     	 lsls r3,r3,#16
 530 0476 1343     	 orrs r3,r3,r2
 531 0478 C7F83C31 	 str r3,[r7,#316]
 352:../Dave/Generated/CMSIS_DSP/FilteringFunctions/arm_correlate_q7.c **** 
 353:../Dave/Generated/CMSIS_DSP/FilteringFunctions/arm_correlate_q7.c ****         /* acc1 += x[1] * y[0] + x[2] * y[1] */
 354:../Dave/Generated/CMSIS_DSP/FilteringFunctions/arm_correlate_q7.c ****         acc1 = __SMLAD(input1, input2, acc1);
 532              	 .loc 1 354 0 discriminator 1
 533 047c D7F83C11 	 ldr r1,[r7,#316]
 534 0480 D7F83821 	 ldr r2,[r7,#312]
 535 0484 D7F87431 	 ldr r3,[r7,#372]
 536 0488 C7F8C010 	 str r1,[r7,#192]
 537 048c C7F8BC20 	 str r2,[r7,#188]
 538 0490 C7F8B830 	 str r3,[r7,#184]
 539              	.LBB45:
 540              	.LBB46:
 507:C:\Users\Depes Crystalline\Desktop\school\Active_Bike_Lighting_System\Radar_Core/Libraries/CMSIS/Include\core_cmSimd.h ****   return(result);
 541              	 .loc 2 507 0 discriminator 1
 542 0494 D7F8C030 	 ldr r3,[r7,#192]
 543 0498 D7F8BC20 	 ldr r2,[r7,#188]
 544 049c D7F8B810 	 ldr r1,[r7,#184]
 545              	
 546 04a0 23FB0213 	 smlad r3,r3,r2,r1
 547              	
 548              	 .thumb
 549 04a4 C7F8B430 	 str r3,[r7,#180]
 550              	 .loc 2 508 0 discriminator 1
 551 04a8 D7F8B430 	 ldr r3,[r7,#180]
 552              	.LBE46:
 553              	.LBE45:
 554              	 .loc 1 354 0 discriminator 1
 555 04ac C7F87431 	 str r3,[r7,#372]
 355:../Dave/Generated/CMSIS_DSP/FilteringFunctions/arm_correlate_q7.c **** 
 356:../Dave/Generated/CMSIS_DSP/FilteringFunctions/arm_correlate_q7.c ****         /* x[2] and x[3] are packed */
 357:../Dave/Generated/CMSIS_DSP/FilteringFunctions/arm_correlate_q7.c ****         in1 = (q15_t) x2;
 556              	 .loc 1 357 0 discriminator 1
 557 04b0 97F96931 	 ldrsb r3,[r7,#361]
 558 04b4 A7F84231 	 strh r3,[r7,#322]
 358:../Dave/Generated/CMSIS_DSP/FilteringFunctions/arm_correlate_q7.c ****         in2 = (q15_t) x3;
 559              	 .loc 1 358 0 discriminator 1
 560 04b8 97F92D31 	 ldrsb r3,[r7,#301]
 561 04bc A7F84031 	 strh r3,[r7,#320]
 359:../Dave/Generated/CMSIS_DSP/FilteringFunctions/arm_correlate_q7.c **** 
 360:../Dave/Generated/CMSIS_DSP/FilteringFunctions/arm_correlate_q7.c ****         input1 = ((q31_t) in1 & 0x0000FFFF) | ((q31_t) in2 << 16);
 562              	 .loc 1 360 0 discriminator 1
 563 04c0 B7F94231 	 ldrsh r3,[r7,#322]
 564 04c4 9AB2     	 uxth r2,r3
 565 04c6 B7F94031 	 ldrsh r3,[r7,#320]
 566 04ca 1B04     	 lsls r3,r3,#16
 567 04cc 1343     	 orrs r3,r3,r2
 568 04ce C7F83C31 	 str r3,[r7,#316]
 361:../Dave/Generated/CMSIS_DSP/FilteringFunctions/arm_correlate_q7.c **** 
 362:../Dave/Generated/CMSIS_DSP/FilteringFunctions/arm_correlate_q7.c ****         /* acc2 += x[2] * y[0] + x[3] * y[1]  */
 363:../Dave/Generated/CMSIS_DSP/FilteringFunctions/arm_correlate_q7.c ****         acc2 = __SMLAD(input1, input2, acc2);
 569              	 .loc 1 363 0 discriminator 1
 570 04d2 D7F83C11 	 ldr r1,[r7,#316]
 571 04d6 D7F83821 	 ldr r2,[r7,#312]
 572 04da D7F87031 	 ldr r3,[r7,#368]
 573 04de C7F8B010 	 str r1,[r7,#176]
 574 04e2 C7F8AC20 	 str r2,[r7,#172]
 575 04e6 C7F8A830 	 str r3,[r7,#168]
 576              	.LBB47:
 577              	.LBB48:
 507:C:\Users\Depes Crystalline\Desktop\school\Active_Bike_Lighting_System\Radar_Core/Libraries/CMSIS/Include\core_cmSimd.h ****   return(result);
 578              	 .loc 2 507 0 discriminator 1
 579 04ea D7F8B030 	 ldr r3,[r7,#176]
 580 04ee D7F8AC20 	 ldr r2,[r7,#172]
 581 04f2 D7F8A810 	 ldr r1,[r7,#168]
 582              	
 583 04f6 23FB0213 	 smlad r3,r3,r2,r1
 584              	
 585              	 .thumb
 586 04fa C7F8A430 	 str r3,[r7,#164]
 587              	 .loc 2 508 0 discriminator 1
 588 04fe D7F8A430 	 ldr r3,[r7,#164]
 589              	.LBE48:
 590              	.LBE47:
 591              	 .loc 1 363 0 discriminator 1
 592 0502 C7F87031 	 str r3,[r7,#368]
 364:../Dave/Generated/CMSIS_DSP/FilteringFunctions/arm_correlate_q7.c **** 
 365:../Dave/Generated/CMSIS_DSP/FilteringFunctions/arm_correlate_q7.c ****         /* Read x[4] sample */
 366:../Dave/Generated/CMSIS_DSP/FilteringFunctions/arm_correlate_q7.c ****         x0 = *(px++);
 593              	 .loc 1 366 0 discriminator 1
 594 0506 D7F88831 	 ldr r3,[r7,#392]
 595 050a 5A1C     	 adds r2,r3,#1
 596 050c C7F88821 	 str r2,[r7,#392]
 597 0510 1B78     	 ldrb r3,[r3]
 598 0512 87F86B31 	 strb r3,[r7,#363]
 367:../Dave/Generated/CMSIS_DSP/FilteringFunctions/arm_correlate_q7.c **** 
 368:../Dave/Generated/CMSIS_DSP/FilteringFunctions/arm_correlate_q7.c ****         /* x[3] and x[4] are packed */
 369:../Dave/Generated/CMSIS_DSP/FilteringFunctions/arm_correlate_q7.c ****         in1 = (q15_t) x3;
 599              	 .loc 1 369 0 discriminator 1
 600 0516 97F92D31 	 ldrsb r3,[r7,#301]
 601 051a A7F84231 	 strh r3,[r7,#322]
 370:../Dave/Generated/CMSIS_DSP/FilteringFunctions/arm_correlate_q7.c ****         in2 = (q15_t) x0;
 602              	 .loc 1 370 0 discriminator 1
 603 051e 97F96B31 	 ldrsb r3,[r7,#363]
 604 0522 A7F84031 	 strh r3,[r7,#320]
 371:../Dave/Generated/CMSIS_DSP/FilteringFunctions/arm_correlate_q7.c **** 
 372:../Dave/Generated/CMSIS_DSP/FilteringFunctions/arm_correlate_q7.c ****         input1 = ((q31_t) in1 & 0x0000FFFF) | ((q31_t) in2 << 16);
 605              	 .loc 1 372 0 discriminator 1
 606 0526 B7F94231 	 ldrsh r3,[r7,#322]
 607 052a 9AB2     	 uxth r2,r3
 608 052c B7F94031 	 ldrsh r3,[r7,#320]
 609 0530 1B04     	 lsls r3,r3,#16
 610 0532 1343     	 orrs r3,r3,r2
 611 0534 C7F83C31 	 str r3,[r7,#316]
 373:../Dave/Generated/CMSIS_DSP/FilteringFunctions/arm_correlate_q7.c **** 
 374:../Dave/Generated/CMSIS_DSP/FilteringFunctions/arm_correlate_q7.c ****         /* acc3 += x[3] * y[0] + x[4] * y[1]  */
 375:../Dave/Generated/CMSIS_DSP/FilteringFunctions/arm_correlate_q7.c ****         acc3 = __SMLAD(input1, input2, acc3);
 612              	 .loc 1 375 0 discriminator 1
 613 0538 D7F83C11 	 ldr r1,[r7,#316]
 614 053c D7F83831 	 ldr r3,[r7,#312]
 615 0540 D7F86C21 	 ldr r2,[r7,#364]
 616 0544 C7F8A010 	 str r1,[r7,#160]
 617 0548 C7F89C30 	 str r3,[r7,#156]
 618 054c 07F19803 	 add r3,r7,#152
 619 0550 1A60     	 str r2,[r3]
 620              	.LBB49:
 621              	.LBB50:
 507:C:\Users\Depes Crystalline\Desktop\school\Active_Bike_Lighting_System\Radar_Core/Libraries/CMSIS/Include\core_cmSimd.h ****   return(result);
 622              	 .loc 2 507 0 discriminator 1
 623 0552 D7F8A030 	 ldr r3,[r7,#160]
 624 0556 D7F89C20 	 ldr r2,[r7,#156]
 625 055a 07F19801 	 add r1,r7,#152
 626 055e 0968     	 ldr r1,[r1]
 627              	
 628 0560 23FB0212 	 smlad r2,r3,r2,r1
 629              	
 630              	 .thumb
 631 0564 07F19403 	 add r3,r7,#148
 632 0568 1A60     	 str r2,[r3]
 633              	 .loc 2 508 0 discriminator 1
 634 056a 07F19403 	 add r3,r7,#148
 635 056e 1B68     	 ldr r3,[r3]
 636              	.LBE50:
 637              	.LBE49:
 638              	 .loc 1 375 0 discriminator 1
 639 0570 C7F86C31 	 str r3,[r7,#364]
 376:../Dave/Generated/CMSIS_DSP/FilteringFunctions/arm_correlate_q7.c **** 
 377:../Dave/Generated/CMSIS_DSP/FilteringFunctions/arm_correlate_q7.c ****         /* Read y[2] sample */
 378:../Dave/Generated/CMSIS_DSP/FilteringFunctions/arm_correlate_q7.c ****         c0 = *py++;
 640              	 .loc 1 378 0 discriminator 1
 641 0574 D7F88431 	 ldr r3,[r7,#388]
 642 0578 5A1C     	 adds r2,r3,#1
 643 057a C7F88421 	 str r2,[r7,#388]
 644 057e 1B78     	 ldrb r3,[r3]
 645 0580 87F82F31 	 strb r3,[r7,#303]
 379:../Dave/Generated/CMSIS_DSP/FilteringFunctions/arm_correlate_q7.c ****         /* Read y[3] sample */
 380:../Dave/Generated/CMSIS_DSP/FilteringFunctions/arm_correlate_q7.c ****         c1 = *py++;
 646              	 .loc 1 380 0 discriminator 1
 647 0584 D7F88431 	 ldr r3,[r7,#388]
 648 0588 5A1C     	 adds r2,r3,#1
 649 058a C7F88421 	 str r2,[r7,#388]
 650 058e 1B78     	 ldrb r3,[r3]
 651 0590 87F82E31 	 strb r3,[r7,#302]
 381:../Dave/Generated/CMSIS_DSP/FilteringFunctions/arm_correlate_q7.c **** 
 382:../Dave/Generated/CMSIS_DSP/FilteringFunctions/arm_correlate_q7.c ****         /* Read x[5] sample */
 383:../Dave/Generated/CMSIS_DSP/FilteringFunctions/arm_correlate_q7.c ****         x1 = *px++;
 652              	 .loc 1 383 0 discriminator 1
 653 0594 D7F88831 	 ldr r3,[r7,#392]
 654 0598 5A1C     	 adds r2,r3,#1
 655 059a C7F88821 	 str r2,[r7,#392]
 656 059e 1B78     	 ldrb r3,[r3]
 657 05a0 87F86A31 	 strb r3,[r7,#362]
 384:../Dave/Generated/CMSIS_DSP/FilteringFunctions/arm_correlate_q7.c **** 
 385:../Dave/Generated/CMSIS_DSP/FilteringFunctions/arm_correlate_q7.c ****         /* x[2] and x[3] are packed */
 386:../Dave/Generated/CMSIS_DSP/FilteringFunctions/arm_correlate_q7.c ****         in1 = (q15_t) x2;
 658              	 .loc 1 386 0 discriminator 1
 659 05a4 97F96931 	 ldrsb r3,[r7,#361]
 660 05a8 A7F84231 	 strh r3,[r7,#322]
 387:../Dave/Generated/CMSIS_DSP/FilteringFunctions/arm_correlate_q7.c ****         in2 = (q15_t) x3;
 661              	 .loc 1 387 0 discriminator 1
 662 05ac 97F92D31 	 ldrsb r3,[r7,#301]
 663 05b0 A7F84031 	 strh r3,[r7,#320]
 388:../Dave/Generated/CMSIS_DSP/FilteringFunctions/arm_correlate_q7.c **** 
 389:../Dave/Generated/CMSIS_DSP/FilteringFunctions/arm_correlate_q7.c ****         input1 = ((q31_t) in1 & 0x0000FFFF) | ((q31_t) in2 << 16);
 664              	 .loc 1 389 0 discriminator 1
 665 05b4 B7F94231 	 ldrsh r3,[r7,#322]
 666 05b8 9AB2     	 uxth r2,r3
 667 05ba B7F94031 	 ldrsh r3,[r7,#320]
 668 05be 1B04     	 lsls r3,r3,#16
 669 05c0 1343     	 orrs r3,r3,r2
 670 05c2 C7F83C31 	 str r3,[r7,#316]
 390:../Dave/Generated/CMSIS_DSP/FilteringFunctions/arm_correlate_q7.c **** 
 391:../Dave/Generated/CMSIS_DSP/FilteringFunctions/arm_correlate_q7.c ****         /* y[2] and y[3] are packed */
 392:../Dave/Generated/CMSIS_DSP/FilteringFunctions/arm_correlate_q7.c ****         in1 = (q15_t) c0;
 671              	 .loc 1 392 0 discriminator 1
 672 05c6 97F92F31 	 ldrsb r3,[r7,#303]
 673 05ca A7F84231 	 strh r3,[r7,#322]
 393:../Dave/Generated/CMSIS_DSP/FilteringFunctions/arm_correlate_q7.c ****         in2 = (q15_t) c1;
 674              	 .loc 1 393 0 discriminator 1
 675 05ce 97F92E31 	 ldrsb r3,[r7,#302]
 676 05d2 A7F84031 	 strh r3,[r7,#320]
 394:../Dave/Generated/CMSIS_DSP/FilteringFunctions/arm_correlate_q7.c **** 
 395:../Dave/Generated/CMSIS_DSP/FilteringFunctions/arm_correlate_q7.c ****         input2 = ((q31_t) in1 & 0x0000FFFF) | ((q31_t) in2 << 16);
 677              	 .loc 1 395 0 discriminator 1
 678 05d6 B7F94231 	 ldrsh r3,[r7,#322]
 679 05da 9AB2     	 uxth r2,r3
 680 05dc B7F94031 	 ldrsh r3,[r7,#320]
 681 05e0 1B04     	 lsls r3,r3,#16
 682 05e2 1343     	 orrs r3,r3,r2
 683 05e4 C7F83831 	 str r3,[r7,#312]
 396:../Dave/Generated/CMSIS_DSP/FilteringFunctions/arm_correlate_q7.c **** 
 397:../Dave/Generated/CMSIS_DSP/FilteringFunctions/arm_correlate_q7.c ****         /* acc0 += x[2] * y[2] + x[3] * y[3]  */
 398:../Dave/Generated/CMSIS_DSP/FilteringFunctions/arm_correlate_q7.c ****         acc0 = __SMLAD(input1, input2, acc0);
 684              	 .loc 1 398 0 discriminator 1
 685 05e8 D7F83C01 	 ldr r0,[r7,#316]
 686 05ec D7F83811 	 ldr r1,[r7,#312]
 687 05f0 D7F87821 	 ldr r2,[r7,#376]
 688 05f4 07F19003 	 add r3,r7,#144
 689 05f8 1860     	 str r0,[r3]
 690 05fa 07F18C03 	 add r3,r7,#140
 691 05fe 1960     	 str r1,[r3]
 692 0600 07F18803 	 add r3,r7,#136
 693 0604 1A60     	 str r2,[r3]
 694              	.LBB51:
 695              	.LBB52:
 507:C:\Users\Depes Crystalline\Desktop\school\Active_Bike_Lighting_System\Radar_Core/Libraries/CMSIS/Include\core_cmSimd.h ****   return(result);
 696              	 .loc 2 507 0 discriminator 1
 697 0606 07F19003 	 add r3,r7,#144
 698 060a 1B68     	 ldr r3,[r3]
 699 060c 07F18C02 	 add r2,r7,#140
 700 0610 1268     	 ldr r2,[r2]
 701 0612 07F18801 	 add r1,r7,#136
 702 0616 0968     	 ldr r1,[r1]
 703              	
 704 0618 23FB0212 	 smlad r2,r3,r2,r1
 705              	
 706              	 .thumb
 707 061c 07F18403 	 add r3,r7,#132
 708 0620 1A60     	 str r2,[r3]
 709              	 .loc 2 508 0 discriminator 1
 710 0622 07F18403 	 add r3,r7,#132
 711 0626 1B68     	 ldr r3,[r3]
 712              	.LBE52:
 713              	.LBE51:
 714              	 .loc 1 398 0 discriminator 1
 715 0628 C7F87831 	 str r3,[r7,#376]
 399:../Dave/Generated/CMSIS_DSP/FilteringFunctions/arm_correlate_q7.c **** 
 400:../Dave/Generated/CMSIS_DSP/FilteringFunctions/arm_correlate_q7.c ****         /* x[3] and x[4] are packed */
 401:../Dave/Generated/CMSIS_DSP/FilteringFunctions/arm_correlate_q7.c ****         in1 = (q15_t) x3;
 716              	 .loc 1 401 0 discriminator 1
 717 062c 97F92D31 	 ldrsb r3,[r7,#301]
 718 0630 A7F84231 	 strh r3,[r7,#322]
 402:../Dave/Generated/CMSIS_DSP/FilteringFunctions/arm_correlate_q7.c ****         in2 = (q15_t) x0;
 719              	 .loc 1 402 0 discriminator 1
 720 0634 97F96B31 	 ldrsb r3,[r7,#363]
 721 0638 A7F84031 	 strh r3,[r7,#320]
 403:../Dave/Generated/CMSIS_DSP/FilteringFunctions/arm_correlate_q7.c **** 
 404:../Dave/Generated/CMSIS_DSP/FilteringFunctions/arm_correlate_q7.c ****         input1 = ((q31_t) in1 & 0x0000FFFF) | ((q31_t) in2 << 16);
 722              	 .loc 1 404 0 discriminator 1
 723 063c B7F94231 	 ldrsh r3,[r7,#322]
 724 0640 9AB2     	 uxth r2,r3
 725 0642 B7F94031 	 ldrsh r3,[r7,#320]
 726 0646 1B04     	 lsls r3,r3,#16
 727 0648 1343     	 orrs r3,r3,r2
 728 064a C7F83C31 	 str r3,[r7,#316]
 405:../Dave/Generated/CMSIS_DSP/FilteringFunctions/arm_correlate_q7.c **** 
 406:../Dave/Generated/CMSIS_DSP/FilteringFunctions/arm_correlate_q7.c ****         /* acc1 += x[3] * y[2] + x[4] * y[3]  */
 407:../Dave/Generated/CMSIS_DSP/FilteringFunctions/arm_correlate_q7.c ****         acc1 = __SMLAD(input1, input2, acc1);
 729              	 .loc 1 407 0 discriminator 1
 730 064e D7F83C01 	 ldr r0,[r7,#316]
 731 0652 D7F83811 	 ldr r1,[r7,#312]
 732 0656 D7F87421 	 ldr r2,[r7,#372]
 733 065a 07F18003 	 add r3,r7,#128
 734 065e 1860     	 str r0,[r3]
 735 0660 07F17C03 	 add r3,r7,#124
 736 0664 1960     	 str r1,[r3]
 737 0666 07F17803 	 add r3,r7,#120
 738 066a 1A60     	 str r2,[r3]
 739              	.LBB53:
 740              	.LBB54:
 507:C:\Users\Depes Crystalline\Desktop\school\Active_Bike_Lighting_System\Radar_Core/Libraries/CMSIS/Include\core_cmSimd.h ****   return(result);
 741              	 .loc 2 507 0 discriminator 1
 742 066c 07F18003 	 add r3,r7,#128
 743 0670 1B68     	 ldr r3,[r3]
 744 0672 07F17C02 	 add r2,r7,#124
 745 0676 1268     	 ldr r2,[r2]
 746 0678 07F17801 	 add r1,r7,#120
 747 067c 0968     	 ldr r1,[r1]
 748              	
 749 067e 23FB0212 	 smlad r2,r3,r2,r1
 750              	
 751              	 .thumb
 752 0682 07F17403 	 add r3,r7,#116
 753 0686 1A60     	 str r2,[r3]
 754              	 .loc 2 508 0 discriminator 1
 755 0688 07F17403 	 add r3,r7,#116
 756 068c 1B68     	 ldr r3,[r3]
 757              	.LBE54:
 758              	.LBE53:
 759              	 .loc 1 407 0 discriminator 1
 760 068e C7F87431 	 str r3,[r7,#372]
 408:../Dave/Generated/CMSIS_DSP/FilteringFunctions/arm_correlate_q7.c **** 
 409:../Dave/Generated/CMSIS_DSP/FilteringFunctions/arm_correlate_q7.c ****         /* x[4] and x[5] are packed */
 410:../Dave/Generated/CMSIS_DSP/FilteringFunctions/arm_correlate_q7.c ****         in1 = (q15_t) x0;
 761              	 .loc 1 410 0 discriminator 1
 762 0692 97F96B31 	 ldrsb r3,[r7,#363]
 763 0696 A7F84231 	 strh r3,[r7,#322]
 411:../Dave/Generated/CMSIS_DSP/FilteringFunctions/arm_correlate_q7.c ****         in2 = (q15_t) x1;
 764              	 .loc 1 411 0 discriminator 1
 765 069a 97F96A31 	 ldrsb r3,[r7,#362]
 766 069e A7F84031 	 strh r3,[r7,#320]
 412:../Dave/Generated/CMSIS_DSP/FilteringFunctions/arm_correlate_q7.c **** 
 413:../Dave/Generated/CMSIS_DSP/FilteringFunctions/arm_correlate_q7.c ****         input1 = ((q31_t) in1 & 0x0000FFFF) | ((q31_t) in2 << 16);
 767              	 .loc 1 413 0 discriminator 1
 768 06a2 B7F94231 	 ldrsh r3,[r7,#322]
 769 06a6 9AB2     	 uxth r2,r3
 770 06a8 B7F94031 	 ldrsh r3,[r7,#320]
 771 06ac 1B04     	 lsls r3,r3,#16
 772 06ae 1343     	 orrs r3,r3,r2
 773 06b0 C7F83C31 	 str r3,[r7,#316]
 414:../Dave/Generated/CMSIS_DSP/FilteringFunctions/arm_correlate_q7.c **** 
 415:../Dave/Generated/CMSIS_DSP/FilteringFunctions/arm_correlate_q7.c ****         /* acc2 += x[4] * y[2] + x[5] * y[3]  */
 416:../Dave/Generated/CMSIS_DSP/FilteringFunctions/arm_correlate_q7.c ****         acc2 = __SMLAD(input1, input2, acc2);
 774              	 .loc 1 416 0 discriminator 1
 775 06b4 D7F83C01 	 ldr r0,[r7,#316]
 776 06b8 D7F83811 	 ldr r1,[r7,#312]
 777 06bc D7F87021 	 ldr r2,[r7,#368]
 778 06c0 07F17003 	 add r3,r7,#112
 779 06c4 1860     	 str r0,[r3]
 780 06c6 07F16C03 	 add r3,r7,#108
 781 06ca 1960     	 str r1,[r3]
 782 06cc 07F16803 	 add r3,r7,#104
 783 06d0 1A60     	 str r2,[r3]
 784              	.LBB55:
 785              	.LBB56:
 507:C:\Users\Depes Crystalline\Desktop\school\Active_Bike_Lighting_System\Radar_Core/Libraries/CMSIS/Include\core_cmSimd.h ****   return(result);
 786              	 .loc 2 507 0 discriminator 1
 787 06d2 07F17003 	 add r3,r7,#112
 788 06d6 1B68     	 ldr r3,[r3]
 789 06d8 07F16C02 	 add r2,r7,#108
 790 06dc 1268     	 ldr r2,[r2]
 791 06de 07F16801 	 add r1,r7,#104
 792 06e2 0968     	 ldr r1,[r1]
 793              	
 794 06e4 23FB0212 	 smlad r2,r3,r2,r1
 795              	
 796              	 .thumb
 797 06e8 07F16403 	 add r3,r7,#100
 798 06ec 1A60     	 str r2,[r3]
 799              	 .loc 2 508 0 discriminator 1
 800 06ee 07F16403 	 add r3,r7,#100
 801 06f2 1B68     	 ldr r3,[r3]
 802              	.LBE56:
 803              	.LBE55:
 804              	 .loc 1 416 0 discriminator 1
 805 06f4 C7F87031 	 str r3,[r7,#368]
 417:../Dave/Generated/CMSIS_DSP/FilteringFunctions/arm_correlate_q7.c **** 
 418:../Dave/Generated/CMSIS_DSP/FilteringFunctions/arm_correlate_q7.c ****         /* Read x[6] sample */
 419:../Dave/Generated/CMSIS_DSP/FilteringFunctions/arm_correlate_q7.c ****         x2 = *px++;
 806              	 .loc 1 419 0 discriminator 1
 807 06f8 D7F88831 	 ldr r3,[r7,#392]
 808 06fc 5A1C     	 adds r2,r3,#1
 809 06fe C7F88821 	 str r2,[r7,#392]
 810 0702 1B78     	 ldrb r3,[r3]
 811 0704 87F86931 	 strb r3,[r7,#361]
 420:../Dave/Generated/CMSIS_DSP/FilteringFunctions/arm_correlate_q7.c **** 
 421:../Dave/Generated/CMSIS_DSP/FilteringFunctions/arm_correlate_q7.c ****         /* x[5] and x[6] are packed */
 422:../Dave/Generated/CMSIS_DSP/FilteringFunctions/arm_correlate_q7.c ****         in1 = (q15_t) x1;
 812              	 .loc 1 422 0 discriminator 1
 813 0708 97F96A31 	 ldrsb r3,[r7,#362]
 814 070c A7F84231 	 strh r3,[r7,#322]
 423:../Dave/Generated/CMSIS_DSP/FilteringFunctions/arm_correlate_q7.c ****         in2 = (q15_t) x2;
 815              	 .loc 1 423 0 discriminator 1
 816 0710 97F96931 	 ldrsb r3,[r7,#361]
 817 0714 A7F84031 	 strh r3,[r7,#320]
 424:../Dave/Generated/CMSIS_DSP/FilteringFunctions/arm_correlate_q7.c **** 
 425:../Dave/Generated/CMSIS_DSP/FilteringFunctions/arm_correlate_q7.c ****         input1 = ((q31_t) in1 & 0x0000FFFF) | ((q31_t) in2 << 16);
 818              	 .loc 1 425 0 discriminator 1
 819 0718 B7F94231 	 ldrsh r3,[r7,#322]
 820 071c 9AB2     	 uxth r2,r3
 821 071e B7F94031 	 ldrsh r3,[r7,#320]
 822 0722 1B04     	 lsls r3,r3,#16
 823 0724 1343     	 orrs r3,r3,r2
 824 0726 C7F83C31 	 str r3,[r7,#316]
 426:../Dave/Generated/CMSIS_DSP/FilteringFunctions/arm_correlate_q7.c **** 
 427:../Dave/Generated/CMSIS_DSP/FilteringFunctions/arm_correlate_q7.c ****         /* acc3 += x[5] * y[2] + x[6] * y[3]  */
 428:../Dave/Generated/CMSIS_DSP/FilteringFunctions/arm_correlate_q7.c ****         acc3 = __SMLAD(input1, input2, acc3);
 825              	 .loc 1 428 0 discriminator 1
 826 072a D7F83C01 	 ldr r0,[r7,#316]
 827 072e D7F83811 	 ldr r1,[r7,#312]
 828 0732 D7F86C21 	 ldr r2,[r7,#364]
 829 0736 07F16003 	 add r3,r7,#96
 830 073a 1860     	 str r0,[r3]
 831 073c 07F15C03 	 add r3,r7,#92
 832 0740 1960     	 str r1,[r3]
 833 0742 07F15803 	 add r3,r7,#88
 834 0746 1A60     	 str r2,[r3]
 835              	.LBB57:
 836              	.LBB58:
 507:C:\Users\Depes Crystalline\Desktop\school\Active_Bike_Lighting_System\Radar_Core/Libraries/CMSIS/Include\core_cmSimd.h ****   return(result);
 837              	 .loc 2 507 0 discriminator 1
 838 0748 07F16003 	 add r3,r7,#96
 839 074c 1B68     	 ldr r3,[r3]
 840 074e 07F15C02 	 add r2,r7,#92
 841 0752 1268     	 ldr r2,[r2]
 842 0754 07F15801 	 add r1,r7,#88
 843 0758 0968     	 ldr r1,[r1]
 844              	
 845 075a 23FB0212 	 smlad r2,r3,r2,r1
 846              	
 847              	 .thumb
 848 075e 07F15403 	 add r3,r7,#84
 849 0762 1A60     	 str r2,[r3]
 850              	 .loc 2 508 0 discriminator 1
 851 0764 07F15403 	 add r3,r7,#84
 852 0768 1B68     	 ldr r3,[r3]
 853              	.LBE58:
 854              	.LBE57:
 855              	 .loc 1 428 0 discriminator 1
 856 076a C7F86C31 	 str r3,[r7,#364]
 429:../Dave/Generated/CMSIS_DSP/FilteringFunctions/arm_correlate_q7.c **** 
 430:../Dave/Generated/CMSIS_DSP/FilteringFunctions/arm_correlate_q7.c ****       } while(--k);
 857              	 .loc 1 430 0 discriminator 1
 858 076e D7F86431 	 ldr r3,[r7,#356]
 859 0772 013B     	 subs r3,r3,#1
 860 0774 C7F86431 	 str r3,[r7,#356]
 861 0778 D7F86431 	 ldr r3,[r7,#356]
 862 077c 002B     	 cmp r3,#0
 863 077e 7FF418AE 	 bne .L22
 431:../Dave/Generated/CMSIS_DSP/FilteringFunctions/arm_correlate_q7.c **** 
 432:../Dave/Generated/CMSIS_DSP/FilteringFunctions/arm_correlate_q7.c ****       /* If the srcBLen is not a multiple of 4, compute any remaining MACs here.   
 433:../Dave/Generated/CMSIS_DSP/FilteringFunctions/arm_correlate_q7.c ****        ** No loop unrolling is used. */
 434:../Dave/Generated/CMSIS_DSP/FilteringFunctions/arm_correlate_q7.c ****       k = srcBLen % 0x4u;
 864              	 .loc 1 434 0
 865 0782 3B46     	 mov r3,r7
 866 0784 1B68     	 ldr r3,[r3]
 867 0786 03F00303 	 and r3,r3,#3
 868 078a C7F86431 	 str r3,[r7,#356]
 435:../Dave/Generated/CMSIS_DSP/FilteringFunctions/arm_correlate_q7.c **** 
 436:../Dave/Generated/CMSIS_DSP/FilteringFunctions/arm_correlate_q7.c ****       while(k > 0u)
 869              	 .loc 1 436 0
 870 078e 4CE0     	 b .L23
 871              	.L24:
 437:../Dave/Generated/CMSIS_DSP/FilteringFunctions/arm_correlate_q7.c ****       {
 438:../Dave/Generated/CMSIS_DSP/FilteringFunctions/arm_correlate_q7.c ****         /* Read y[4] sample */
 439:../Dave/Generated/CMSIS_DSP/FilteringFunctions/arm_correlate_q7.c ****         c0 = *py++;
 872              	 .loc 1 439 0
 873 0790 D7F88431 	 ldr r3,[r7,#388]
 874 0794 5A1C     	 adds r2,r3,#1
 875 0796 C7F88421 	 str r2,[r7,#388]
 876 079a 1B78     	 ldrb r3,[r3]
 877 079c 87F82F31 	 strb r3,[r7,#303]
 440:../Dave/Generated/CMSIS_DSP/FilteringFunctions/arm_correlate_q7.c **** 
 441:../Dave/Generated/CMSIS_DSP/FilteringFunctions/arm_correlate_q7.c ****         /* Read x[7] sample */
 442:../Dave/Generated/CMSIS_DSP/FilteringFunctions/arm_correlate_q7.c ****         x3 = *px++;
 878              	 .loc 1 442 0
 879 07a0 D7F88831 	 ldr r3,[r7,#392]
 880 07a4 5A1C     	 adds r2,r3,#1
 881 07a6 C7F88821 	 str r2,[r7,#392]
 882 07aa 1B78     	 ldrb r3,[r3]
 883 07ac 87F82D31 	 strb r3,[r7,#301]
 443:../Dave/Generated/CMSIS_DSP/FilteringFunctions/arm_correlate_q7.c **** 
 444:../Dave/Generated/CMSIS_DSP/FilteringFunctions/arm_correlate_q7.c ****         /* Perform the multiply-accumulates */
 445:../Dave/Generated/CMSIS_DSP/FilteringFunctions/arm_correlate_q7.c ****         /* acc0 +=  x[4] * y[4] */
 446:../Dave/Generated/CMSIS_DSP/FilteringFunctions/arm_correlate_q7.c ****         acc0 += ((q15_t) x0 * c0);
 884              	 .loc 1 446 0
 885 07b0 97F96B31 	 ldrsb r3,[r7,#363]
 886 07b4 97F92F21 	 ldrsb r2,[r7,#303]
 887 07b8 02FB03F3 	 mul r3,r2,r3
 888 07bc D7F87821 	 ldr r2,[r7,#376]
 889 07c0 1344     	 add r3,r3,r2
 890 07c2 C7F87831 	 str r3,[r7,#376]
 447:../Dave/Generated/CMSIS_DSP/FilteringFunctions/arm_correlate_q7.c ****         /* acc1 +=  x[5] * y[4] */
 448:../Dave/Generated/CMSIS_DSP/FilteringFunctions/arm_correlate_q7.c ****         acc1 += ((q15_t) x1 * c0);
 891              	 .loc 1 448 0
 892 07c6 97F96A31 	 ldrsb r3,[r7,#362]
 893 07ca 97F92F21 	 ldrsb r2,[r7,#303]
 894 07ce 02FB03F3 	 mul r3,r2,r3
 895 07d2 D7F87421 	 ldr r2,[r7,#372]
 896 07d6 1344     	 add r3,r3,r2
 897 07d8 C7F87431 	 str r3,[r7,#372]
 449:../Dave/Generated/CMSIS_DSP/FilteringFunctions/arm_correlate_q7.c ****         /* acc2 +=  x[6] * y[4] */
 450:../Dave/Generated/CMSIS_DSP/FilteringFunctions/arm_correlate_q7.c ****         acc2 += ((q15_t) x2 * c0);
 898              	 .loc 1 450 0
 899 07dc 97F96931 	 ldrsb r3,[r7,#361]
 900 07e0 97F92F21 	 ldrsb r2,[r7,#303]
 901 07e4 02FB03F3 	 mul r3,r2,r3
 902 07e8 D7F87021 	 ldr r2,[r7,#368]
 903 07ec 1344     	 add r3,r3,r2
 904 07ee C7F87031 	 str r3,[r7,#368]
 451:../Dave/Generated/CMSIS_DSP/FilteringFunctions/arm_correlate_q7.c ****         /* acc3 +=  x[7] * y[4] */
 452:../Dave/Generated/CMSIS_DSP/FilteringFunctions/arm_correlate_q7.c ****         acc3 += ((q15_t) x3 * c0);
 905              	 .loc 1 452 0
 906 07f2 97F92D31 	 ldrsb r3,[r7,#301]
 907 07f6 97F92F21 	 ldrsb r2,[r7,#303]
 908 07fa 02FB03F3 	 mul r3,r2,r3
 909 07fe D7F86C21 	 ldr r2,[r7,#364]
 910 0802 1344     	 add r3,r3,r2
 911 0804 C7F86C31 	 str r3,[r7,#364]
 453:../Dave/Generated/CMSIS_DSP/FilteringFunctions/arm_correlate_q7.c **** 
 454:../Dave/Generated/CMSIS_DSP/FilteringFunctions/arm_correlate_q7.c ****         /* Reuse the present samples for the next MAC */
 455:../Dave/Generated/CMSIS_DSP/FilteringFunctions/arm_correlate_q7.c ****         x0 = x1;
 912              	 .loc 1 455 0
 913 0808 97F86A31 	 ldrb r3,[r7,#362]
 914 080c 87F86B31 	 strb r3,[r7,#363]
 456:../Dave/Generated/CMSIS_DSP/FilteringFunctions/arm_correlate_q7.c ****         x1 = x2;
 915              	 .loc 1 456 0
 916 0810 97F86931 	 ldrb r3,[r7,#361]
 917 0814 87F86A31 	 strb r3,[r7,#362]
 457:../Dave/Generated/CMSIS_DSP/FilteringFunctions/arm_correlate_q7.c ****         x2 = x3;
 918              	 .loc 1 457 0
 919 0818 97F82D31 	 ldrb r3,[r7,#301]
 920 081c 87F86931 	 strb r3,[r7,#361]
 458:../Dave/Generated/CMSIS_DSP/FilteringFunctions/arm_correlate_q7.c **** 
 459:../Dave/Generated/CMSIS_DSP/FilteringFunctions/arm_correlate_q7.c ****         /* Decrement the loop counter */
 460:../Dave/Generated/CMSIS_DSP/FilteringFunctions/arm_correlate_q7.c ****         k--;
 921              	 .loc 1 460 0
 922 0820 D7F86431 	 ldr r3,[r7,#356]
 923 0824 013B     	 subs r3,r3,#1
 924 0826 C7F86431 	 str r3,[r7,#356]
 925              	.L23:
 436:../Dave/Generated/CMSIS_DSP/FilteringFunctions/arm_correlate_q7.c ****       {
 926              	 .loc 1 436 0
 927 082a D7F86431 	 ldr r3,[r7,#356]
 928 082e 002B     	 cmp r3,#0
 929 0830 AED1     	 bne .L24
 930              	.LBB59:
 461:../Dave/Generated/CMSIS_DSP/FilteringFunctions/arm_correlate_q7.c ****       }
 462:../Dave/Generated/CMSIS_DSP/FilteringFunctions/arm_correlate_q7.c **** 
 463:../Dave/Generated/CMSIS_DSP/FilteringFunctions/arm_correlate_q7.c ****       /* Store the result in the accumulator in the destination buffer. */
 464:../Dave/Generated/CMSIS_DSP/FilteringFunctions/arm_correlate_q7.c ****       *pOut = (q7_t) (__SSAT(acc0 >> 7, 8));
 931              	 .loc 1 464 0
 932 0832 D7F87831 	 ldr r3,[r7,#376]
 933 0836 DB11     	 asrs r3,r3,#7
 934 0838 C7F82831 	 str r3,[r7,#296]
 935 083c D7F82831 	 ldr r3,[r7,#296]
 936              	
 937 0840 03F30703 	 ssat r3,#8,r3
 938              	
 939              	 .thumb
 940 0844 C7F82431 	 str r3,[r7,#292]
 941 0848 D7F82431 	 ldr r3,[r7,#292]
 942              	.LBE59:
 943 084c DAB2     	 uxtb r2,r3
 944 084e D7F88C31 	 ldr r3,[r7,#396]
 945 0852 1A70     	 strb r2,[r3]
 465:../Dave/Generated/CMSIS_DSP/FilteringFunctions/arm_correlate_q7.c ****       /* Destination pointer is updated according to the address modifier, inc */
 466:../Dave/Generated/CMSIS_DSP/FilteringFunctions/arm_correlate_q7.c ****       pOut += inc;
 946              	 .loc 1 466 0
 947 0854 D7F85031 	 ldr r3,[r7,#336]
 948 0858 D7F88C21 	 ldr r2,[r7,#396]
 949 085c 1344     	 add r3,r3,r2
 950 085e C7F88C31 	 str r3,[r7,#396]
 951              	.LBB60:
 467:../Dave/Generated/CMSIS_DSP/FilteringFunctions/arm_correlate_q7.c **** 
 468:../Dave/Generated/CMSIS_DSP/FilteringFunctions/arm_correlate_q7.c ****       *pOut = (q7_t) (__SSAT(acc1 >> 7, 8));
 952              	 .loc 1 468 0
 953 0862 D7F87431 	 ldr r3,[r7,#372]
 954 0866 DB11     	 asrs r3,r3,#7
 955 0868 C7F82031 	 str r3,[r7,#288]
 956 086c D7F82031 	 ldr r3,[r7,#288]
 957              	
 958 0870 03F30703 	 ssat r3,#8,r3
 959              	
 960              	 .thumb
 961 0874 C7F81C31 	 str r3,[r7,#284]
 962 0878 D7F81C31 	 ldr r3,[r7,#284]
 963              	.LBE60:
 964 087c DAB2     	 uxtb r2,r3
 965 087e D7F88C31 	 ldr r3,[r7,#396]
 966 0882 1A70     	 strb r2,[r3]
 469:../Dave/Generated/CMSIS_DSP/FilteringFunctions/arm_correlate_q7.c ****       pOut += inc;
 967              	 .loc 1 469 0
 968 0884 D7F85031 	 ldr r3,[r7,#336]
 969 0888 D7F88C21 	 ldr r2,[r7,#396]
 970 088c 1344     	 add r3,r3,r2
 971 088e C7F88C31 	 str r3,[r7,#396]
 972              	.LBB61:
 470:../Dave/Generated/CMSIS_DSP/FilteringFunctions/arm_correlate_q7.c **** 
 471:../Dave/Generated/CMSIS_DSP/FilteringFunctions/arm_correlate_q7.c ****       *pOut = (q7_t) (__SSAT(acc2 >> 7, 8));
 973              	 .loc 1 471 0
 974 0892 D7F87031 	 ldr r3,[r7,#368]
 975 0896 DB11     	 asrs r3,r3,#7
 976 0898 C7F81831 	 str r3,[r7,#280]
 977 089c D7F81831 	 ldr r3,[r7,#280]
 978              	
 979 08a0 03F30703 	 ssat r3,#8,r3
 980              	
 981              	 .thumb
 982 08a4 C7F81431 	 str r3,[r7,#276]
 983 08a8 D7F81431 	 ldr r3,[r7,#276]
 984              	.LBE61:
 985 08ac DAB2     	 uxtb r2,r3
 986 08ae D7F88C31 	 ldr r3,[r7,#396]
 987 08b2 1A70     	 strb r2,[r3]
 472:../Dave/Generated/CMSIS_DSP/FilteringFunctions/arm_correlate_q7.c ****       pOut += inc;
 988              	 .loc 1 472 0
 989 08b4 D7F85031 	 ldr r3,[r7,#336]
 990 08b8 D7F88C21 	 ldr r2,[r7,#396]
 991 08bc 1344     	 add r3,r3,r2
 992 08be C7F88C31 	 str r3,[r7,#396]
 993              	.LBB62:
 473:../Dave/Generated/CMSIS_DSP/FilteringFunctions/arm_correlate_q7.c **** 
 474:../Dave/Generated/CMSIS_DSP/FilteringFunctions/arm_correlate_q7.c ****       *pOut = (q7_t) (__SSAT(acc3 >> 7, 8));
 994              	 .loc 1 474 0
 995 08c2 D7F86C31 	 ldr r3,[r7,#364]
 996 08c6 DB11     	 asrs r3,r3,#7
 997 08c8 C7F81031 	 str r3,[r7,#272]
 998 08cc D7F81031 	 ldr r3,[r7,#272]
 999              	
 1000 08d0 03F30703 	 ssat r3,#8,r3
 1001              	
 1002              	 .thumb
 1003 08d4 C7F80C31 	 str r3,[r7,#268]
 1004 08d8 D7F80C31 	 ldr r3,[r7,#268]
 1005              	.LBE62:
 1006 08dc DAB2     	 uxtb r2,r3
 1007 08de D7F88C31 	 ldr r3,[r7,#396]
 1008 08e2 1A70     	 strb r2,[r3]
 475:../Dave/Generated/CMSIS_DSP/FilteringFunctions/arm_correlate_q7.c ****       pOut += inc;
 1009              	 .loc 1 475 0
 1010 08e4 D7F85031 	 ldr r3,[r7,#336]
 1011 08e8 D7F88C21 	 ldr r2,[r7,#396]
 1012 08ec 1344     	 add r3,r3,r2
 1013 08ee C7F88C31 	 str r3,[r7,#396]
 476:../Dave/Generated/CMSIS_DSP/FilteringFunctions/arm_correlate_q7.c **** 
 477:../Dave/Generated/CMSIS_DSP/FilteringFunctions/arm_correlate_q7.c **** 	  count += 4u;
 1014              	 .loc 1 477 0
 1015 08f2 D7F86031 	 ldr r3,[r7,#352]
 1016 08f6 0433     	 adds r3,r3,#4
 1017 08f8 C7F86031 	 str r3,[r7,#352]
 478:../Dave/Generated/CMSIS_DSP/FilteringFunctions/arm_correlate_q7.c ****       /* Update the inputA and inputB pointers for next MAC calculation */
 479:../Dave/Generated/CMSIS_DSP/FilteringFunctions/arm_correlate_q7.c ****       px = pIn1 + count;
 1018              	 .loc 1 479 0
 1019 08fc D7F89421 	 ldr r2,[r7,#404]
 1020 0900 D7F86031 	 ldr r3,[r7,#352]
 1021 0904 1344     	 add r3,r3,r2
 1022 0906 C7F88831 	 str r3,[r7,#392]
 480:../Dave/Generated/CMSIS_DSP/FilteringFunctions/arm_correlate_q7.c ****       py = pIn2;
 1023              	 .loc 1 480 0
 1024 090a D7F89031 	 ldr r3,[r7,#400]
 1025 090e C7F88431 	 str r3,[r7,#388]
 481:../Dave/Generated/CMSIS_DSP/FilteringFunctions/arm_correlate_q7.c **** 
 482:../Dave/Generated/CMSIS_DSP/FilteringFunctions/arm_correlate_q7.c ****       /* Decrement the loop counter */
 483:../Dave/Generated/CMSIS_DSP/FilteringFunctions/arm_correlate_q7.c ****       blkCnt--;
 1026              	 .loc 1 483 0
 1027 0912 D7F85C31 	 ldr r3,[r7,#348]
 1028 0916 013B     	 subs r3,r3,#1
 1029 0918 C7F85C31 	 str r3,[r7,#348]
 1030              	.L13:
 304:../Dave/Generated/CMSIS_DSP/FilteringFunctions/arm_correlate_q7.c ****     {
 1031              	 .loc 1 304 0
 1032 091c D7F85C31 	 ldr r3,[r7,#348]
 1033 0920 002B     	 cmp r3,#0
 1034 0922 7FF41DAD 	 bne .L25
 484:../Dave/Generated/CMSIS_DSP/FilteringFunctions/arm_correlate_q7.c ****     }
 485:../Dave/Generated/CMSIS_DSP/FilteringFunctions/arm_correlate_q7.c **** 
 486:../Dave/Generated/CMSIS_DSP/FilteringFunctions/arm_correlate_q7.c ****     /* If the blockSize2 is not a multiple of 4, compute any remaining output samples here.   
 487:../Dave/Generated/CMSIS_DSP/FilteringFunctions/arm_correlate_q7.c ****      ** No loop unrolling is used. */
 488:../Dave/Generated/CMSIS_DSP/FilteringFunctions/arm_correlate_q7.c ****     blkCnt = blockSize2 % 0x4u;
 1035              	 .loc 1 488 0
 1036 0926 D7F84431 	 ldr r3,[r7,#324]
 1037 092a 03F00303 	 and r3,r3,#3
 1038 092e C7F85C31 	 str r3,[r7,#348]
 489:../Dave/Generated/CMSIS_DSP/FilteringFunctions/arm_correlate_q7.c **** 
 490:../Dave/Generated/CMSIS_DSP/FilteringFunctions/arm_correlate_q7.c ****     while(blkCnt > 0u)
 1039              	 .loc 1 490 0
 1040 0932 14E1     	 b .L26
 1041              	.L33:
 491:../Dave/Generated/CMSIS_DSP/FilteringFunctions/arm_correlate_q7.c ****     {
 492:../Dave/Generated/CMSIS_DSP/FilteringFunctions/arm_correlate_q7.c ****       /* Accumulator is made zero for every iteration */
 493:../Dave/Generated/CMSIS_DSP/FilteringFunctions/arm_correlate_q7.c ****       sum = 0;
 1042              	 .loc 1 493 0
 1043 0934 0023     	 movs r3,#0
 1044 0936 C7F87C31 	 str r3,[r7,#380]
 494:../Dave/Generated/CMSIS_DSP/FilteringFunctions/arm_correlate_q7.c **** 
 495:../Dave/Generated/CMSIS_DSP/FilteringFunctions/arm_correlate_q7.c ****       /* Apply loop unrolling and compute 4 MACs simultaneously. */
 496:../Dave/Generated/CMSIS_DSP/FilteringFunctions/arm_correlate_q7.c ****       k = srcBLen >> 2u;
 1045              	 .loc 1 496 0
 1046 093a 3B46     	 mov r3,r7
 1047 093c 1B68     	 ldr r3,[r3]
 1048 093e 9B08     	 lsrs r3,r3,#2
 1049 0940 C7F86431 	 str r3,[r7,#356]
 497:../Dave/Generated/CMSIS_DSP/FilteringFunctions/arm_correlate_q7.c **** 
 498:../Dave/Generated/CMSIS_DSP/FilteringFunctions/arm_correlate_q7.c ****       /* First part of the processing with loop unrolling.  Compute 4 MACs at a time.   
 499:../Dave/Generated/CMSIS_DSP/FilteringFunctions/arm_correlate_q7.c ****        ** a second loop below computes MACs for the remaining 1 to 3 samples. */
 500:../Dave/Generated/CMSIS_DSP/FilteringFunctions/arm_correlate_q7.c ****       while(k > 0u)
 1050              	 .loc 1 500 0
 1051 0944 B4E0     	 b .L27
 1052              	.L30:
 501:../Dave/Generated/CMSIS_DSP/FilteringFunctions/arm_correlate_q7.c ****       {
 502:../Dave/Generated/CMSIS_DSP/FilteringFunctions/arm_correlate_q7.c ****         /* Reading two inputs of SrcA buffer and packing */
 503:../Dave/Generated/CMSIS_DSP/FilteringFunctions/arm_correlate_q7.c ****         in1 = (q15_t) * px++;
 1053              	 .loc 1 503 0
 1054 0946 D7F88831 	 ldr r3,[r7,#392]
 1055 094a 5A1C     	 adds r2,r3,#1
 1056 094c C7F88821 	 str r2,[r7,#392]
 1057 0950 1B78     	 ldrb r3,[r3]
 1058 0952 5BB2     	 sxtb r3,r3
 1059 0954 A7F84231 	 strh r3,[r7,#322]
 504:../Dave/Generated/CMSIS_DSP/FilteringFunctions/arm_correlate_q7.c ****         in2 = (q15_t) * px++;
 1060              	 .loc 1 504 0
 1061 0958 D7F88831 	 ldr r3,[r7,#392]
 1062 095c 5A1C     	 adds r2,r3,#1
 1063 095e C7F88821 	 str r2,[r7,#392]
 1064 0962 1B78     	 ldrb r3,[r3]
 1065 0964 5BB2     	 sxtb r3,r3
 1066 0966 A7F84031 	 strh r3,[r7,#320]
 505:../Dave/Generated/CMSIS_DSP/FilteringFunctions/arm_correlate_q7.c ****         input1 = ((q31_t) in1 & 0x0000FFFF) | ((q31_t) in2 << 16);
 1067              	 .loc 1 505 0
 1068 096a B7F94231 	 ldrsh r3,[r7,#322]
 1069 096e 9AB2     	 uxth r2,r3
 1070 0970 B7F94031 	 ldrsh r3,[r7,#320]
 1071 0974 1B04     	 lsls r3,r3,#16
 1072 0976 1343     	 orrs r3,r3,r2
 1073 0978 C7F83C31 	 str r3,[r7,#316]
 506:../Dave/Generated/CMSIS_DSP/FilteringFunctions/arm_correlate_q7.c **** 
 507:../Dave/Generated/CMSIS_DSP/FilteringFunctions/arm_correlate_q7.c ****         /* Reading two inputs of SrcB buffer and packing */
 508:../Dave/Generated/CMSIS_DSP/FilteringFunctions/arm_correlate_q7.c ****         in1 = (q15_t) * py++;
 1074              	 .loc 1 508 0
 1075 097c D7F88431 	 ldr r3,[r7,#388]
 1076 0980 5A1C     	 adds r2,r3,#1
 1077 0982 C7F88421 	 str r2,[r7,#388]
 1078 0986 1B78     	 ldrb r3,[r3]
 1079 0988 5BB2     	 sxtb r3,r3
 1080 098a A7F84231 	 strh r3,[r7,#322]
 509:../Dave/Generated/CMSIS_DSP/FilteringFunctions/arm_correlate_q7.c ****         in2 = (q15_t) * py++;
 1081              	 .loc 1 509 0
 1082 098e D7F88431 	 ldr r3,[r7,#388]
 1083 0992 5A1C     	 adds r2,r3,#1
 1084 0994 C7F88421 	 str r2,[r7,#388]
 1085 0998 1B78     	 ldrb r3,[r3]
 1086 099a 5BB2     	 sxtb r3,r3
 1087 099c A7F84031 	 strh r3,[r7,#320]
 510:../Dave/Generated/CMSIS_DSP/FilteringFunctions/arm_correlate_q7.c ****         input2 = ((q31_t) in1 & 0x0000FFFF) | ((q31_t) in2 << 16);
 1088              	 .loc 1 510 0
 1089 09a0 B7F94231 	 ldrsh r3,[r7,#322]
 1090 09a4 9AB2     	 uxth r2,r3
 1091 09a6 B7F94031 	 ldrsh r3,[r7,#320]
 1092 09aa 1B04     	 lsls r3,r3,#16
 1093 09ac 1343     	 orrs r3,r3,r2
 1094 09ae C7F83831 	 str r3,[r7,#312]
 511:../Dave/Generated/CMSIS_DSP/FilteringFunctions/arm_correlate_q7.c **** 
 512:../Dave/Generated/CMSIS_DSP/FilteringFunctions/arm_correlate_q7.c ****         /* Perform the multiply-accumulates */
 513:../Dave/Generated/CMSIS_DSP/FilteringFunctions/arm_correlate_q7.c ****         sum = __SMLAD(input1, input2, sum);
 1095              	 .loc 1 513 0
 1096 09b2 D7F83C01 	 ldr r0,[r7,#316]
 1097 09b6 D7F83811 	 ldr r1,[r7,#312]
 1098 09ba D7F87C21 	 ldr r2,[r7,#380]
 1099 09be 07F15003 	 add r3,r7,#80
 1100 09c2 1860     	 str r0,[r3]
 1101 09c4 07F14C03 	 add r3,r7,#76
 1102 09c8 1960     	 str r1,[r3]
 1103 09ca 07F14803 	 add r3,r7,#72
 1104 09ce 1A60     	 str r2,[r3]
 1105              	.LBB63:
 1106              	.LBB64:
 507:C:\Users\Depes Crystalline\Desktop\school\Active_Bike_Lighting_System\Radar_Core/Libraries/CMSIS/Include\core_cmSimd.h ****   return(result);
 1107              	 .loc 2 507 0
 1108 09d0 07F15003 	 add r3,r7,#80
 1109 09d4 1B68     	 ldr r3,[r3]
 1110 09d6 07F14C02 	 add r2,r7,#76
 1111 09da 1268     	 ldr r2,[r2]
 1112 09dc 07F14801 	 add r1,r7,#72
 1113 09e0 0968     	 ldr r1,[r1]
 1114              	
 1115 09e2 23FB0212 	 smlad r2,r3,r2,r1
 1116              	
 1117              	 .thumb
 1118 09e6 07F14403 	 add r3,r7,#68
 1119 09ea 1A60     	 str r2,[r3]
 1120              	 .loc 2 508 0
 1121 09ec 07F14403 	 add r3,r7,#68
 1122 09f0 1B68     	 ldr r3,[r3]
 1123              	.LBE64:
 1124              	.LBE63:
 1125              	 .loc 1 513 0
 1126 09f2 C7F87C31 	 str r3,[r7,#380]
 514:../Dave/Generated/CMSIS_DSP/FilteringFunctions/arm_correlate_q7.c **** 
 515:../Dave/Generated/CMSIS_DSP/FilteringFunctions/arm_correlate_q7.c ****         /* Reading two inputs of SrcA buffer and packing */
 516:../Dave/Generated/CMSIS_DSP/FilteringFunctions/arm_correlate_q7.c ****         in1 = (q15_t) * px++;
 1127              	 .loc 1 516 0
 1128 09f6 D7F88831 	 ldr r3,[r7,#392]
 1129 09fa 5A1C     	 adds r2,r3,#1
 1130 09fc C7F88821 	 str r2,[r7,#392]
 1131 0a00 1B78     	 ldrb r3,[r3]
 1132 0a02 5BB2     	 sxtb r3,r3
 1133 0a04 A7F84231 	 strh r3,[r7,#322]
 517:../Dave/Generated/CMSIS_DSP/FilteringFunctions/arm_correlate_q7.c ****         in2 = (q15_t) * px++;
 1134              	 .loc 1 517 0
 1135 0a08 D7F88831 	 ldr r3,[r7,#392]
 1136 0a0c 5A1C     	 adds r2,r3,#1
 1137 0a0e C7F88821 	 str r2,[r7,#392]
 1138 0a12 1B78     	 ldrb r3,[r3]
 1139 0a14 5BB2     	 sxtb r3,r3
 1140 0a16 A7F84031 	 strh r3,[r7,#320]
 518:../Dave/Generated/CMSIS_DSP/FilteringFunctions/arm_correlate_q7.c ****         input1 = ((q31_t) in1 & 0x0000FFFF) | ((q31_t) in2 << 16);
 1141              	 .loc 1 518 0
 1142 0a1a B7F94231 	 ldrsh r3,[r7,#322]
 1143 0a1e 9AB2     	 uxth r2,r3
 1144 0a20 B7F94031 	 ldrsh r3,[r7,#320]
 1145 0a24 1B04     	 lsls r3,r3,#16
 1146 0a26 1343     	 orrs r3,r3,r2
 1147 0a28 C7F83C31 	 str r3,[r7,#316]
 519:../Dave/Generated/CMSIS_DSP/FilteringFunctions/arm_correlate_q7.c **** 
 520:../Dave/Generated/CMSIS_DSP/FilteringFunctions/arm_correlate_q7.c ****         /* Reading two inputs of SrcB buffer and packing */
 521:../Dave/Generated/CMSIS_DSP/FilteringFunctions/arm_correlate_q7.c ****         in1 = (q15_t) * py++;
 1148              	 .loc 1 521 0
 1149 0a2c D7F88431 	 ldr r3,[r7,#388]
 1150 0a30 5A1C     	 adds r2,r3,#1
 1151 0a32 C7F88421 	 str r2,[r7,#388]
 1152 0a36 1B78     	 ldrb r3,[r3]
 1153 0a38 5BB2     	 sxtb r3,r3
 1154 0a3a A7F84231 	 strh r3,[r7,#322]
 522:../Dave/Generated/CMSIS_DSP/FilteringFunctions/arm_correlate_q7.c ****         in2 = (q15_t) * py++;
 1155              	 .loc 1 522 0
 1156 0a3e D7F88431 	 ldr r3,[r7,#388]
 1157 0a42 5A1C     	 adds r2,r3,#1
 1158 0a44 C7F88421 	 str r2,[r7,#388]
 1159 0a48 1B78     	 ldrb r3,[r3]
 1160 0a4a 5BB2     	 sxtb r3,r3
 1161 0a4c A7F84031 	 strh r3,[r7,#320]
 523:../Dave/Generated/CMSIS_DSP/FilteringFunctions/arm_correlate_q7.c ****         input2 = ((q31_t) in1 & 0x0000FFFF) | ((q31_t) in2 << 16);
 1162              	 .loc 1 523 0
 1163 0a50 B7F94231 	 ldrsh r3,[r7,#322]
 1164 0a54 9AB2     	 uxth r2,r3
 1165 0a56 B7F94031 	 ldrsh r3,[r7,#320]
 1166 0a5a 1B04     	 lsls r3,r3,#16
 1167 0a5c 1343     	 orrs r3,r3,r2
 1168 0a5e C7F83831 	 str r3,[r7,#312]
 524:../Dave/Generated/CMSIS_DSP/FilteringFunctions/arm_correlate_q7.c **** 
 525:../Dave/Generated/CMSIS_DSP/FilteringFunctions/arm_correlate_q7.c ****         /* Perform the multiply-accumulates */
 526:../Dave/Generated/CMSIS_DSP/FilteringFunctions/arm_correlate_q7.c ****         sum = __SMLAD(input1, input2, sum);
 1169              	 .loc 1 526 0
 1170 0a62 D7F83C01 	 ldr r0,[r7,#316]
 1171 0a66 D7F83811 	 ldr r1,[r7,#312]
 1172 0a6a D7F87C21 	 ldr r2,[r7,#380]
 1173 0a6e 07F14003 	 add r3,r7,#64
 1174 0a72 1860     	 str r0,[r3]
 1175 0a74 07F13C03 	 add r3,r7,#60
 1176 0a78 1960     	 str r1,[r3]
 1177 0a7a 07F13803 	 add r3,r7,#56
 1178 0a7e 1A60     	 str r2,[r3]
 1179              	.LBB65:
 1180              	.LBB66:
 507:C:\Users\Depes Crystalline\Desktop\school\Active_Bike_Lighting_System\Radar_Core/Libraries/CMSIS/Include\core_cmSimd.h ****   return(result);
 1181              	 .loc 2 507 0
 1182 0a80 07F14003 	 add r3,r7,#64
 1183 0a84 1B68     	 ldr r3,[r3]
 1184 0a86 07F13C02 	 add r2,r7,#60
 1185 0a8a 1268     	 ldr r2,[r2]
 1186 0a8c 07F13801 	 add r1,r7,#56
 1187 0a90 0968     	 ldr r1,[r1]
 1188              	
 1189 0a92 23FB0212 	 smlad r2,r3,r2,r1
 1190              	
 1191              	 .thumb
 1192 0a96 07F13403 	 add r3,r7,#52
 1193 0a9a 1A60     	 str r2,[r3]
 1194              	 .loc 2 508 0
 1195 0a9c 07F13403 	 add r3,r7,#52
 1196 0aa0 1B68     	 ldr r3,[r3]
 1197              	.LBE66:
 1198              	.LBE65:
 1199              	 .loc 1 526 0
 1200 0aa2 C7F87C31 	 str r3,[r7,#380]
 527:../Dave/Generated/CMSIS_DSP/FilteringFunctions/arm_correlate_q7.c **** 
 528:../Dave/Generated/CMSIS_DSP/FilteringFunctions/arm_correlate_q7.c ****         /* Decrement the loop counter */
 529:../Dave/Generated/CMSIS_DSP/FilteringFunctions/arm_correlate_q7.c ****         k--;
 1201              	 .loc 1 529 0
 1202 0aa6 D7F86431 	 ldr r3,[r7,#356]
 1203 0aaa 013B     	 subs r3,r3,#1
 1204 0aac C7F86431 	 str r3,[r7,#356]
 1205              	.L27:
 500:../Dave/Generated/CMSIS_DSP/FilteringFunctions/arm_correlate_q7.c ****       {
 1206              	 .loc 1 500 0
 1207 0ab0 D7F86431 	 ldr r3,[r7,#356]
 1208 0ab4 002B     	 cmp r3,#0
 1209 0ab6 7FF446AF 	 bne .L30
 530:../Dave/Generated/CMSIS_DSP/FilteringFunctions/arm_correlate_q7.c ****       }
 531:../Dave/Generated/CMSIS_DSP/FilteringFunctions/arm_correlate_q7.c **** 
 532:../Dave/Generated/CMSIS_DSP/FilteringFunctions/arm_correlate_q7.c ****       /* If the srcBLen is not a multiple of 4, compute any remaining MACs here.   
 533:../Dave/Generated/CMSIS_DSP/FilteringFunctions/arm_correlate_q7.c ****        ** No loop unrolling is used. */
 534:../Dave/Generated/CMSIS_DSP/FilteringFunctions/arm_correlate_q7.c ****       k = srcBLen % 0x4u;
 1210              	 .loc 1 534 0
 1211 0aba 3B46     	 mov r3,r7
 1212 0abc 1B68     	 ldr r3,[r3]
 1213 0abe 03F00303 	 and r3,r3,#3
 1214 0ac2 C7F86431 	 str r3,[r7,#356]
 535:../Dave/Generated/CMSIS_DSP/FilteringFunctions/arm_correlate_q7.c **** 
 536:../Dave/Generated/CMSIS_DSP/FilteringFunctions/arm_correlate_q7.c ****       while(k > 0u)
 1215              	 .loc 1 536 0
 1216 0ac6 19E0     	 b .L31
 1217              	.L32:
 537:../Dave/Generated/CMSIS_DSP/FilteringFunctions/arm_correlate_q7.c ****       {
 538:../Dave/Generated/CMSIS_DSP/FilteringFunctions/arm_correlate_q7.c ****         /* Perform the multiply-accumulates */
 539:../Dave/Generated/CMSIS_DSP/FilteringFunctions/arm_correlate_q7.c ****         sum += ((q15_t) * px++ * *py++);
 1218              	 .loc 1 539 0
 1219 0ac8 D7F88831 	 ldr r3,[r7,#392]
 1220 0acc 5A1C     	 adds r2,r3,#1
 1221 0ace C7F88821 	 str r2,[r7,#392]
 1222 0ad2 1B78     	 ldrb r3,[r3]
 1223 0ad4 5AB2     	 sxtb r2,r3
 1224 0ad6 D7F88431 	 ldr r3,[r7,#388]
 1225 0ada 591C     	 adds r1,r3,#1
 1226 0adc C7F88411 	 str r1,[r7,#388]
 1227 0ae0 1B78     	 ldrb r3,[r3]
 1228 0ae2 5BB2     	 sxtb r3,r3
 1229 0ae4 03FB02F3 	 mul r3,r3,r2
 1230 0ae8 D7F87C21 	 ldr r2,[r7,#380]
 1231 0aec 1344     	 add r3,r3,r2
 1232 0aee C7F87C31 	 str r3,[r7,#380]
 540:../Dave/Generated/CMSIS_DSP/FilteringFunctions/arm_correlate_q7.c **** 
 541:../Dave/Generated/CMSIS_DSP/FilteringFunctions/arm_correlate_q7.c ****         /* Decrement the loop counter */
 542:../Dave/Generated/CMSIS_DSP/FilteringFunctions/arm_correlate_q7.c ****         k--;
 1233              	 .loc 1 542 0
 1234 0af2 D7F86431 	 ldr r3,[r7,#356]
 1235 0af6 013B     	 subs r3,r3,#1
 1236 0af8 C7F86431 	 str r3,[r7,#356]
 1237              	.L31:
 536:../Dave/Generated/CMSIS_DSP/FilteringFunctions/arm_correlate_q7.c ****       {
 1238              	 .loc 1 536 0
 1239 0afc D7F86431 	 ldr r3,[r7,#356]
 1240 0b00 002B     	 cmp r3,#0
 1241 0b02 E1D1     	 bne .L32
 1242              	.LBB67:
 543:../Dave/Generated/CMSIS_DSP/FilteringFunctions/arm_correlate_q7.c ****       }
 544:../Dave/Generated/CMSIS_DSP/FilteringFunctions/arm_correlate_q7.c **** 
 545:../Dave/Generated/CMSIS_DSP/FilteringFunctions/arm_correlate_q7.c ****       /* Store the result in the accumulator in the destination buffer. */
 546:../Dave/Generated/CMSIS_DSP/FilteringFunctions/arm_correlate_q7.c ****       *pOut = (q7_t) (__SSAT(sum >> 7, 8));
 1243              	 .loc 1 546 0
 1244 0b04 D7F87C31 	 ldr r3,[r7,#380]
 1245 0b08 DB11     	 asrs r3,r3,#7
 1246 0b0a C7F80831 	 str r3,[r7,#264]
 1247 0b0e D7F80831 	 ldr r3,[r7,#264]
 1248              	
 1249 0b12 03F30703 	 ssat r3,#8,r3
 1250              	
 1251              	 .thumb
 1252 0b16 C7F80431 	 str r3,[r7,#260]
 1253 0b1a D7F80431 	 ldr r3,[r7,#260]
 1254              	.LBE67:
 1255 0b1e DAB2     	 uxtb r2,r3
 1256 0b20 D7F88C31 	 ldr r3,[r7,#396]
 1257 0b24 1A70     	 strb r2,[r3]
 547:../Dave/Generated/CMSIS_DSP/FilteringFunctions/arm_correlate_q7.c ****       /* Destination pointer is updated according to the address modifier, inc */
 548:../Dave/Generated/CMSIS_DSP/FilteringFunctions/arm_correlate_q7.c ****       pOut += inc;
 1258              	 .loc 1 548 0
 1259 0b26 D7F85031 	 ldr r3,[r7,#336]
 1260 0b2a D7F88C21 	 ldr r2,[r7,#396]
 1261 0b2e 1344     	 add r3,r3,r2
 1262 0b30 C7F88C31 	 str r3,[r7,#396]
 549:../Dave/Generated/CMSIS_DSP/FilteringFunctions/arm_correlate_q7.c **** 
 550:../Dave/Generated/CMSIS_DSP/FilteringFunctions/arm_correlate_q7.c ****       /* Increment the pointer pIn1 index, count by 1 */
 551:../Dave/Generated/CMSIS_DSP/FilteringFunctions/arm_correlate_q7.c **** 	  count++;
 1263              	 .loc 1 551 0
 1264 0b34 D7F86031 	 ldr r3,[r7,#352]
 1265 0b38 0133     	 adds r3,r3,#1
 1266 0b3a C7F86031 	 str r3,[r7,#352]
 552:../Dave/Generated/CMSIS_DSP/FilteringFunctions/arm_correlate_q7.c **** 
 553:../Dave/Generated/CMSIS_DSP/FilteringFunctions/arm_correlate_q7.c ****       /* Update the inputA and inputB pointers for next MAC calculation */
 554:../Dave/Generated/CMSIS_DSP/FilteringFunctions/arm_correlate_q7.c ****       px = pIn1 + count;
 1267              	 .loc 1 554 0
 1268 0b3e D7F89421 	 ldr r2,[r7,#404]
 1269 0b42 D7F86031 	 ldr r3,[r7,#352]
 1270 0b46 1344     	 add r3,r3,r2
 1271 0b48 C7F88831 	 str r3,[r7,#392]
 555:../Dave/Generated/CMSIS_DSP/FilteringFunctions/arm_correlate_q7.c ****       py = pIn2;
 1272              	 .loc 1 555 0
 1273 0b4c D7F89031 	 ldr r3,[r7,#400]
 1274 0b50 C7F88431 	 str r3,[r7,#388]
 556:../Dave/Generated/CMSIS_DSP/FilteringFunctions/arm_correlate_q7.c **** 
 557:../Dave/Generated/CMSIS_DSP/FilteringFunctions/arm_correlate_q7.c ****       /* Decrement the loop counter */
 558:../Dave/Generated/CMSIS_DSP/FilteringFunctions/arm_correlate_q7.c ****       blkCnt--;
 1275              	 .loc 1 558 0
 1276 0b54 D7F85C31 	 ldr r3,[r7,#348]
 1277 0b58 013B     	 subs r3,r3,#1
 1278 0b5a C7F85C31 	 str r3,[r7,#348]
 1279              	.L26:
 490:../Dave/Generated/CMSIS_DSP/FilteringFunctions/arm_correlate_q7.c ****     {
 1280              	 .loc 1 490 0
 1281 0b5e D7F85C31 	 ldr r3,[r7,#348]
 1282 0b62 002B     	 cmp r3,#0
 1283 0b64 7FF4E6AE 	 bne .L33
 1284 0b68 5BE0     	 b .L34
 1285              	.L12:
 559:../Dave/Generated/CMSIS_DSP/FilteringFunctions/arm_correlate_q7.c ****     }
 560:../Dave/Generated/CMSIS_DSP/FilteringFunctions/arm_correlate_q7.c ****   }
 561:../Dave/Generated/CMSIS_DSP/FilteringFunctions/arm_correlate_q7.c ****   else
 562:../Dave/Generated/CMSIS_DSP/FilteringFunctions/arm_correlate_q7.c ****   {
 563:../Dave/Generated/CMSIS_DSP/FilteringFunctions/arm_correlate_q7.c ****     /* If the srcBLen is not a multiple of 4,   
 564:../Dave/Generated/CMSIS_DSP/FilteringFunctions/arm_correlate_q7.c ****      * the blockSize2 loop cannot be unrolled by 4 */
 565:../Dave/Generated/CMSIS_DSP/FilteringFunctions/arm_correlate_q7.c ****     blkCnt = blockSize2;
 1286              	 .loc 1 565 0
 1287 0b6a D7F84431 	 ldr r3,[r7,#324]
 1288 0b6e C7F85C31 	 str r3,[r7,#348]
 566:../Dave/Generated/CMSIS_DSP/FilteringFunctions/arm_correlate_q7.c **** 
 567:../Dave/Generated/CMSIS_DSP/FilteringFunctions/arm_correlate_q7.c ****     while(blkCnt > 0u)
 1289              	 .loc 1 567 0
 1290 0b72 52E0     	 b .L35
 1291              	.L38:
 568:../Dave/Generated/CMSIS_DSP/FilteringFunctions/arm_correlate_q7.c ****     {
 569:../Dave/Generated/CMSIS_DSP/FilteringFunctions/arm_correlate_q7.c ****       /* Accumulator is made zero for every iteration */
 570:../Dave/Generated/CMSIS_DSP/FilteringFunctions/arm_correlate_q7.c ****       sum = 0;
 1292              	 .loc 1 570 0
 1293 0b74 0023     	 movs r3,#0
 1294 0b76 C7F87C31 	 str r3,[r7,#380]
 571:../Dave/Generated/CMSIS_DSP/FilteringFunctions/arm_correlate_q7.c **** 
 572:../Dave/Generated/CMSIS_DSP/FilteringFunctions/arm_correlate_q7.c ****       /* Loop over srcBLen */
 573:../Dave/Generated/CMSIS_DSP/FilteringFunctions/arm_correlate_q7.c ****       k = srcBLen;
 1295              	 .loc 1 573 0
 1296 0b7a 3B46     	 mov r3,r7
 1297 0b7c 1B68     	 ldr r3,[r3]
 1298 0b7e C7F86431 	 str r3,[r7,#356]
 574:../Dave/Generated/CMSIS_DSP/FilteringFunctions/arm_correlate_q7.c **** 
 575:../Dave/Generated/CMSIS_DSP/FilteringFunctions/arm_correlate_q7.c ****       while(k > 0u)
 1299              	 .loc 1 575 0
 1300 0b82 19E0     	 b .L36
 1301              	.L37:
 576:../Dave/Generated/CMSIS_DSP/FilteringFunctions/arm_correlate_q7.c ****       {
 577:../Dave/Generated/CMSIS_DSP/FilteringFunctions/arm_correlate_q7.c ****         /* Perform the multiply-accumulate */
 578:../Dave/Generated/CMSIS_DSP/FilteringFunctions/arm_correlate_q7.c ****         sum += ((q15_t) * px++ * *py++);
 1302              	 .loc 1 578 0
 1303 0b84 D7F88831 	 ldr r3,[r7,#392]
 1304 0b88 5A1C     	 adds r2,r3,#1
 1305 0b8a C7F88821 	 str r2,[r7,#392]
 1306 0b8e 1B78     	 ldrb r3,[r3]
 1307 0b90 5AB2     	 sxtb r2,r3
 1308 0b92 D7F88431 	 ldr r3,[r7,#388]
 1309 0b96 591C     	 adds r1,r3,#1
 1310 0b98 C7F88411 	 str r1,[r7,#388]
 1311 0b9c 1B78     	 ldrb r3,[r3]
 1312 0b9e 5BB2     	 sxtb r3,r3
 1313 0ba0 03FB02F3 	 mul r3,r3,r2
 1314 0ba4 D7F87C21 	 ldr r2,[r7,#380]
 1315 0ba8 1344     	 add r3,r3,r2
 1316 0baa C7F87C31 	 str r3,[r7,#380]
 579:../Dave/Generated/CMSIS_DSP/FilteringFunctions/arm_correlate_q7.c **** 
 580:../Dave/Generated/CMSIS_DSP/FilteringFunctions/arm_correlate_q7.c ****         /* Decrement the loop counter */
 581:../Dave/Generated/CMSIS_DSP/FilteringFunctions/arm_correlate_q7.c ****         k--;
 1317              	 .loc 1 581 0
 1318 0bae D7F86431 	 ldr r3,[r7,#356]
 1319 0bb2 013B     	 subs r3,r3,#1
 1320 0bb4 C7F86431 	 str r3,[r7,#356]
 1321              	.L36:
 575:../Dave/Generated/CMSIS_DSP/FilteringFunctions/arm_correlate_q7.c ****       {
 1322              	 .loc 1 575 0
 1323 0bb8 D7F86431 	 ldr r3,[r7,#356]
 1324 0bbc 002B     	 cmp r3,#0
 1325 0bbe E1D1     	 bne .L37
 1326              	.LBB68:
 582:../Dave/Generated/CMSIS_DSP/FilteringFunctions/arm_correlate_q7.c ****       }
 583:../Dave/Generated/CMSIS_DSP/FilteringFunctions/arm_correlate_q7.c **** 
 584:../Dave/Generated/CMSIS_DSP/FilteringFunctions/arm_correlate_q7.c ****       /* Store the result in the accumulator in the destination buffer. */
 585:../Dave/Generated/CMSIS_DSP/FilteringFunctions/arm_correlate_q7.c ****       *pOut = (q7_t) (__SSAT(sum >> 7, 8));
 1327              	 .loc 1 585 0
 1328 0bc0 D7F87C31 	 ldr r3,[r7,#380]
 1329 0bc4 DB11     	 asrs r3,r3,#7
 1330 0bc6 C7F80031 	 str r3,[r7,#256]
 1331 0bca D7F80031 	 ldr r3,[r7,#256]
 1332              	
 1333 0bce 03F30703 	 ssat r3,#8,r3
 1334              	
 1335              	 .thumb
 1336 0bd2 C7F8FC30 	 str r3,[r7,#252]
 1337 0bd6 D7F8FC30 	 ldr r3,[r7,#252]
 1338              	.LBE68:
 1339 0bda DAB2     	 uxtb r2,r3
 1340 0bdc D7F88C31 	 ldr r3,[r7,#396]
 1341 0be0 1A70     	 strb r2,[r3]
 586:../Dave/Generated/CMSIS_DSP/FilteringFunctions/arm_correlate_q7.c ****       /* Destination pointer is updated according to the address modifier, inc */
 587:../Dave/Generated/CMSIS_DSP/FilteringFunctions/arm_correlate_q7.c ****       pOut += inc;
 1342              	 .loc 1 587 0
 1343 0be2 D7F85031 	 ldr r3,[r7,#336]
 1344 0be6 D7F88C21 	 ldr r2,[r7,#396]
 1345 0bea 1344     	 add r3,r3,r2
 1346 0bec C7F88C31 	 str r3,[r7,#396]
 588:../Dave/Generated/CMSIS_DSP/FilteringFunctions/arm_correlate_q7.c **** 
 589:../Dave/Generated/CMSIS_DSP/FilteringFunctions/arm_correlate_q7.c ****       /* Increment the MAC count */
 590:../Dave/Generated/CMSIS_DSP/FilteringFunctions/arm_correlate_q7.c ****       count++;
 1347              	 .loc 1 590 0
 1348 0bf0 D7F86031 	 ldr r3,[r7,#352]
 1349 0bf4 0133     	 adds r3,r3,#1
 1350 0bf6 C7F86031 	 str r3,[r7,#352]
 591:../Dave/Generated/CMSIS_DSP/FilteringFunctions/arm_correlate_q7.c **** 
 592:../Dave/Generated/CMSIS_DSP/FilteringFunctions/arm_correlate_q7.c ****       /* Update the inputA and inputB pointers for next MAC calculation */
 593:../Dave/Generated/CMSIS_DSP/FilteringFunctions/arm_correlate_q7.c ****       px = pIn1 + count;
 1351              	 .loc 1 593 0
 1352 0bfa D7F89421 	 ldr r2,[r7,#404]
 1353 0bfe D7F86031 	 ldr r3,[r7,#352]
 1354 0c02 1344     	 add r3,r3,r2
 1355 0c04 C7F88831 	 str r3,[r7,#392]
 594:../Dave/Generated/CMSIS_DSP/FilteringFunctions/arm_correlate_q7.c ****       py = pIn2;
 1356              	 .loc 1 594 0
 1357 0c08 D7F89031 	 ldr r3,[r7,#400]
 1358 0c0c C7F88431 	 str r3,[r7,#388]
 595:../Dave/Generated/CMSIS_DSP/FilteringFunctions/arm_correlate_q7.c **** 
 596:../Dave/Generated/CMSIS_DSP/FilteringFunctions/arm_correlate_q7.c **** 
 597:../Dave/Generated/CMSIS_DSP/FilteringFunctions/arm_correlate_q7.c ****       /* Decrement the loop counter */
 598:../Dave/Generated/CMSIS_DSP/FilteringFunctions/arm_correlate_q7.c ****       blkCnt--;
 1359              	 .loc 1 598 0
 1360 0c10 D7F85C31 	 ldr r3,[r7,#348]
 1361 0c14 013B     	 subs r3,r3,#1
 1362 0c16 C7F85C31 	 str r3,[r7,#348]
 1363              	.L35:
 567:../Dave/Generated/CMSIS_DSP/FilteringFunctions/arm_correlate_q7.c ****     {
 1364              	 .loc 1 567 0
 1365 0c1a D7F85C31 	 ldr r3,[r7,#348]
 1366 0c1e 002B     	 cmp r3,#0
 1367 0c20 A8D1     	 bne .L38
 1368              	.L34:
 599:../Dave/Generated/CMSIS_DSP/FilteringFunctions/arm_correlate_q7.c ****     }
 600:../Dave/Generated/CMSIS_DSP/FilteringFunctions/arm_correlate_q7.c ****   }
 601:../Dave/Generated/CMSIS_DSP/FilteringFunctions/arm_correlate_q7.c **** 
 602:../Dave/Generated/CMSIS_DSP/FilteringFunctions/arm_correlate_q7.c ****   /* --------------------------   
 603:../Dave/Generated/CMSIS_DSP/FilteringFunctions/arm_correlate_q7.c ****    * Initializations of stage3   
 604:../Dave/Generated/CMSIS_DSP/FilteringFunctions/arm_correlate_q7.c ****    * -------------------------*/
 605:../Dave/Generated/CMSIS_DSP/FilteringFunctions/arm_correlate_q7.c **** 
 606:../Dave/Generated/CMSIS_DSP/FilteringFunctions/arm_correlate_q7.c ****   /* sum += x[srcALen-srcBLen+1] * y[0] + x[srcALen-srcBLen+2] * y[1] +...+ x[srcALen-1] * y[srcBLe
 607:../Dave/Generated/CMSIS_DSP/FilteringFunctions/arm_correlate_q7.c ****    * sum += x[srcALen-srcBLen+2] * y[0] + x[srcALen-srcBLen+3] * y[1] +...+ x[srcALen-1] * y[srcBLe
 608:../Dave/Generated/CMSIS_DSP/FilteringFunctions/arm_correlate_q7.c ****    * ....   
 609:../Dave/Generated/CMSIS_DSP/FilteringFunctions/arm_correlate_q7.c ****    * sum +=  x[srcALen-2] * y[0] + x[srcALen-1] * y[1]   
 610:../Dave/Generated/CMSIS_DSP/FilteringFunctions/arm_correlate_q7.c ****    * sum +=  x[srcALen-1] * y[0]   
 611:../Dave/Generated/CMSIS_DSP/FilteringFunctions/arm_correlate_q7.c ****    */
 612:../Dave/Generated/CMSIS_DSP/FilteringFunctions/arm_correlate_q7.c **** 
 613:../Dave/Generated/CMSIS_DSP/FilteringFunctions/arm_correlate_q7.c ****   /* In this stage the MAC operations are decreased by 1 for every iteration.   
 614:../Dave/Generated/CMSIS_DSP/FilteringFunctions/arm_correlate_q7.c ****      The count variable holds the number of MAC operations performed */
 615:../Dave/Generated/CMSIS_DSP/FilteringFunctions/arm_correlate_q7.c ****   count = srcBLen - 1u;
 1369              	 .loc 1 615 0
 1370 0c22 3B46     	 mov r3,r7
 1371 0c24 1B68     	 ldr r3,[r3]
 1372 0c26 013B     	 subs r3,r3,#1
 1373 0c28 C7F86031 	 str r3,[r7,#352]
 616:../Dave/Generated/CMSIS_DSP/FilteringFunctions/arm_correlate_q7.c **** 
 617:../Dave/Generated/CMSIS_DSP/FilteringFunctions/arm_correlate_q7.c ****   /* Working pointer of inputA */
 618:../Dave/Generated/CMSIS_DSP/FilteringFunctions/arm_correlate_q7.c ****   pSrc1 = pIn1 + (srcALen - (srcBLen - 1u));
 1374              	 .loc 1 618 0
 1375 0c2c 07F10802 	 add r2,r7,#8
 1376 0c30 3B46     	 mov r3,r7
 1377 0c32 1268     	 ldr r2,[r2]
 1378 0c34 1B68     	 ldr r3,[r3]
 1379 0c36 D31A     	 subs r3,r2,r3
 1380 0c38 0133     	 adds r3,r3,#1
 1381 0c3a D7F89421 	 ldr r2,[r7,#404]
 1382 0c3e 1344     	 add r3,r3,r2
 1383 0c40 C7F88031 	 str r3,[r7,#384]
 619:../Dave/Generated/CMSIS_DSP/FilteringFunctions/arm_correlate_q7.c ****   px = pSrc1;
 1384              	 .loc 1 619 0
 1385 0c44 D7F88031 	 ldr r3,[r7,#384]
 1386 0c48 C7F88831 	 str r3,[r7,#392]
 620:../Dave/Generated/CMSIS_DSP/FilteringFunctions/arm_correlate_q7.c **** 
 621:../Dave/Generated/CMSIS_DSP/FilteringFunctions/arm_correlate_q7.c ****   /* Working pointer of inputB */
 622:../Dave/Generated/CMSIS_DSP/FilteringFunctions/arm_correlate_q7.c ****   py = pIn2;
 1387              	 .loc 1 622 0
 1388 0c4c D7F89031 	 ldr r3,[r7,#400]
 1389 0c50 C7F88431 	 str r3,[r7,#388]
 623:../Dave/Generated/CMSIS_DSP/FilteringFunctions/arm_correlate_q7.c **** 
 624:../Dave/Generated/CMSIS_DSP/FilteringFunctions/arm_correlate_q7.c ****   /* -------------------   
 625:../Dave/Generated/CMSIS_DSP/FilteringFunctions/arm_correlate_q7.c ****    * Stage3 process   
 626:../Dave/Generated/CMSIS_DSP/FilteringFunctions/arm_correlate_q7.c ****    * ------------------*/
 627:../Dave/Generated/CMSIS_DSP/FilteringFunctions/arm_correlate_q7.c **** 
 628:../Dave/Generated/CMSIS_DSP/FilteringFunctions/arm_correlate_q7.c ****   while(blockSize3 > 0u)
 1390              	 .loc 1 628 0
 1391 0c54 16E1     	 b .L39
 1392              	.L46:
 629:../Dave/Generated/CMSIS_DSP/FilteringFunctions/arm_correlate_q7.c ****   {
 630:../Dave/Generated/CMSIS_DSP/FilteringFunctions/arm_correlate_q7.c ****     /* Accumulator is made zero for every iteration */
 631:../Dave/Generated/CMSIS_DSP/FilteringFunctions/arm_correlate_q7.c ****     sum = 0;
 1393              	 .loc 1 631 0
 1394 0c56 0023     	 movs r3,#0
 1395 0c58 C7F87C31 	 str r3,[r7,#380]
 632:../Dave/Generated/CMSIS_DSP/FilteringFunctions/arm_correlate_q7.c **** 
 633:../Dave/Generated/CMSIS_DSP/FilteringFunctions/arm_correlate_q7.c ****     /* Apply loop unrolling and compute 4 MACs simultaneously. */
 634:../Dave/Generated/CMSIS_DSP/FilteringFunctions/arm_correlate_q7.c ****     k = count >> 2u;
 1396              	 .loc 1 634 0
 1397 0c5c D7F86031 	 ldr r3,[r7,#352]
 1398 0c60 9B08     	 lsrs r3,r3,#2
 1399 0c62 C7F86431 	 str r3,[r7,#356]
 635:../Dave/Generated/CMSIS_DSP/FilteringFunctions/arm_correlate_q7.c **** 
 636:../Dave/Generated/CMSIS_DSP/FilteringFunctions/arm_correlate_q7.c ****     /* First part of the processing with loop unrolling.  Compute 4 MACs at a time.   
 637:../Dave/Generated/CMSIS_DSP/FilteringFunctions/arm_correlate_q7.c ****      ** a second loop below computes MACs for the remaining 1 to 3 samples. */
 638:../Dave/Generated/CMSIS_DSP/FilteringFunctions/arm_correlate_q7.c ****     while(k > 0u)
 1400              	 .loc 1 638 0
 1401 0c66 B4E0     	 b .L40
 1402              	.L43:
 639:../Dave/Generated/CMSIS_DSP/FilteringFunctions/arm_correlate_q7.c ****     {
 640:../Dave/Generated/CMSIS_DSP/FilteringFunctions/arm_correlate_q7.c ****       /* x[srcALen - srcBLen + 1] , x[srcALen - srcBLen + 2]  */
 641:../Dave/Generated/CMSIS_DSP/FilteringFunctions/arm_correlate_q7.c ****       in1 = (q15_t) * px++;
 1403              	 .loc 1 641 0
 1404 0c68 D7F88831 	 ldr r3,[r7,#392]
 1405 0c6c 5A1C     	 adds r2,r3,#1
 1406 0c6e C7F88821 	 str r2,[r7,#392]
 1407 0c72 1B78     	 ldrb r3,[r3]
 1408 0c74 5BB2     	 sxtb r3,r3
 1409 0c76 A7F84231 	 strh r3,[r7,#322]
 642:../Dave/Generated/CMSIS_DSP/FilteringFunctions/arm_correlate_q7.c ****       in2 = (q15_t) * px++;
 1410              	 .loc 1 642 0
 1411 0c7a D7F88831 	 ldr r3,[r7,#392]
 1412 0c7e 5A1C     	 adds r2,r3,#1
 1413 0c80 C7F88821 	 str r2,[r7,#392]
 1414 0c84 1B78     	 ldrb r3,[r3]
 1415 0c86 5BB2     	 sxtb r3,r3
 1416 0c88 A7F84031 	 strh r3,[r7,#320]
 643:../Dave/Generated/CMSIS_DSP/FilteringFunctions/arm_correlate_q7.c ****       input1 = ((q31_t) in1 & 0x0000FFFF) | ((q31_t) in2 << 16);
 1417              	 .loc 1 643 0
 1418 0c8c B7F94231 	 ldrsh r3,[r7,#322]
 1419 0c90 9AB2     	 uxth r2,r3
 1420 0c92 B7F94031 	 ldrsh r3,[r7,#320]
 1421 0c96 1B04     	 lsls r3,r3,#16
 1422 0c98 1343     	 orrs r3,r3,r2
 1423 0c9a C7F83C31 	 str r3,[r7,#316]
 644:../Dave/Generated/CMSIS_DSP/FilteringFunctions/arm_correlate_q7.c **** 
 645:../Dave/Generated/CMSIS_DSP/FilteringFunctions/arm_correlate_q7.c ****       /* y[0] , y[1] */
 646:../Dave/Generated/CMSIS_DSP/FilteringFunctions/arm_correlate_q7.c ****       in1 = (q15_t) * py++;
 1424              	 .loc 1 646 0
 1425 0c9e D7F88431 	 ldr r3,[r7,#388]
 1426 0ca2 5A1C     	 adds r2,r3,#1
 1427 0ca4 C7F88421 	 str r2,[r7,#388]
 1428 0ca8 1B78     	 ldrb r3,[r3]
 1429 0caa 5BB2     	 sxtb r3,r3
 1430 0cac A7F84231 	 strh r3,[r7,#322]
 647:../Dave/Generated/CMSIS_DSP/FilteringFunctions/arm_correlate_q7.c ****       in2 = (q15_t) * py++;
 1431              	 .loc 1 647 0
 1432 0cb0 D7F88431 	 ldr r3,[r7,#388]
 1433 0cb4 5A1C     	 adds r2,r3,#1
 1434 0cb6 C7F88421 	 str r2,[r7,#388]
 1435 0cba 1B78     	 ldrb r3,[r3]
 1436 0cbc 5BB2     	 sxtb r3,r3
 1437 0cbe A7F84031 	 strh r3,[r7,#320]
 648:../Dave/Generated/CMSIS_DSP/FilteringFunctions/arm_correlate_q7.c ****       input2 = ((q31_t) in1 & 0x0000FFFF) | ((q31_t) in2 << 16);
 1438              	 .loc 1 648 0
 1439 0cc2 B7F94231 	 ldrsh r3,[r7,#322]
 1440 0cc6 9AB2     	 uxth r2,r3
 1441 0cc8 B7F94031 	 ldrsh r3,[r7,#320]
 1442 0ccc 1B04     	 lsls r3,r3,#16
 1443 0cce 1343     	 orrs r3,r3,r2
 1444 0cd0 C7F83831 	 str r3,[r7,#312]
 649:../Dave/Generated/CMSIS_DSP/FilteringFunctions/arm_correlate_q7.c **** 
 650:../Dave/Generated/CMSIS_DSP/FilteringFunctions/arm_correlate_q7.c ****       /* sum += x[srcALen - srcBLen + 1] * y[0] */
 651:../Dave/Generated/CMSIS_DSP/FilteringFunctions/arm_correlate_q7.c ****       /* sum += x[srcALen - srcBLen + 2] * y[1] */
 652:../Dave/Generated/CMSIS_DSP/FilteringFunctions/arm_correlate_q7.c ****       sum = __SMLAD(input1, input2, sum);
 1445              	 .loc 1 652 0
 1446 0cd4 D7F83C01 	 ldr r0,[r7,#316]
 1447 0cd8 D7F83811 	 ldr r1,[r7,#312]
 1448 0cdc D7F87C21 	 ldr r2,[r7,#380]
 1449 0ce0 07F13003 	 add r3,r7,#48
 1450 0ce4 1860     	 str r0,[r3]
 1451 0ce6 07F12C03 	 add r3,r7,#44
 1452 0cea 1960     	 str r1,[r3]
 1453 0cec 07F12803 	 add r3,r7,#40
 1454 0cf0 1A60     	 str r2,[r3]
 1455              	.LBB69:
 1456              	.LBB70:
 507:C:\Users\Depes Crystalline\Desktop\school\Active_Bike_Lighting_System\Radar_Core/Libraries/CMSIS/Include\core_cmSimd.h ****   return(result);
 1457              	 .loc 2 507 0
 1458 0cf2 07F13003 	 add r3,r7,#48
 1459 0cf6 1B68     	 ldr r3,[r3]
 1460 0cf8 07F12C02 	 add r2,r7,#44
 1461 0cfc 1268     	 ldr r2,[r2]
 1462 0cfe 07F12801 	 add r1,r7,#40
 1463 0d02 0968     	 ldr r1,[r1]
 1464              	
 1465 0d04 23FB0212 	 smlad r2,r3,r2,r1
 1466              	
 1467              	 .thumb
 1468 0d08 07F12403 	 add r3,r7,#36
 1469 0d0c 1A60     	 str r2,[r3]
 1470              	 .loc 2 508 0
 1471 0d0e 07F12403 	 add r3,r7,#36
 1472 0d12 1B68     	 ldr r3,[r3]
 1473              	.LBE70:
 1474              	.LBE69:
 1475              	 .loc 1 652 0
 1476 0d14 C7F87C31 	 str r3,[r7,#380]
 653:../Dave/Generated/CMSIS_DSP/FilteringFunctions/arm_correlate_q7.c **** 
 654:../Dave/Generated/CMSIS_DSP/FilteringFunctions/arm_correlate_q7.c ****       /* x[srcALen - srcBLen + 3] , x[srcALen - srcBLen + 4] */
 655:../Dave/Generated/CMSIS_DSP/FilteringFunctions/arm_correlate_q7.c ****       in1 = (q15_t) * px++;
 1477              	 .loc 1 655 0
 1478 0d18 D7F88831 	 ldr r3,[r7,#392]
 1479 0d1c 5A1C     	 adds r2,r3,#1
 1480 0d1e C7F88821 	 str r2,[r7,#392]
 1481 0d22 1B78     	 ldrb r3,[r3]
 1482 0d24 5BB2     	 sxtb r3,r3
 1483 0d26 A7F84231 	 strh r3,[r7,#322]
 656:../Dave/Generated/CMSIS_DSP/FilteringFunctions/arm_correlate_q7.c ****       in2 = (q15_t) * px++;
 1484              	 .loc 1 656 0
 1485 0d2a D7F88831 	 ldr r3,[r7,#392]
 1486 0d2e 5A1C     	 adds r2,r3,#1
 1487 0d30 C7F88821 	 str r2,[r7,#392]
 1488 0d34 1B78     	 ldrb r3,[r3]
 1489 0d36 5BB2     	 sxtb r3,r3
 1490 0d38 A7F84031 	 strh r3,[r7,#320]
 657:../Dave/Generated/CMSIS_DSP/FilteringFunctions/arm_correlate_q7.c ****       input1 = ((q31_t) in1 & 0x0000FFFF) | ((q31_t) in2 << 16);
 1491              	 .loc 1 657 0
 1492 0d3c B7F94231 	 ldrsh r3,[r7,#322]
 1493 0d40 9AB2     	 uxth r2,r3
 1494 0d42 B7F94031 	 ldrsh r3,[r7,#320]
 1495 0d46 1B04     	 lsls r3,r3,#16
 1496 0d48 1343     	 orrs r3,r3,r2
 1497 0d4a C7F83C31 	 str r3,[r7,#316]
 658:../Dave/Generated/CMSIS_DSP/FilteringFunctions/arm_correlate_q7.c **** 
 659:../Dave/Generated/CMSIS_DSP/FilteringFunctions/arm_correlate_q7.c ****       /* y[2] , y[3] */
 660:../Dave/Generated/CMSIS_DSP/FilteringFunctions/arm_correlate_q7.c ****       in1 = (q15_t) * py++;
 1498              	 .loc 1 660 0
 1499 0d4e D7F88431 	 ldr r3,[r7,#388]
 1500 0d52 5A1C     	 adds r2,r3,#1
 1501 0d54 C7F88421 	 str r2,[r7,#388]
 1502 0d58 1B78     	 ldrb r3,[r3]
 1503 0d5a 5BB2     	 sxtb r3,r3
 1504 0d5c A7F84231 	 strh r3,[r7,#322]
 661:../Dave/Generated/CMSIS_DSP/FilteringFunctions/arm_correlate_q7.c ****       in2 = (q15_t) * py++;
 1505              	 .loc 1 661 0
 1506 0d60 D7F88431 	 ldr r3,[r7,#388]
 1507 0d64 5A1C     	 adds r2,r3,#1
 1508 0d66 C7F88421 	 str r2,[r7,#388]
 1509 0d6a 1B78     	 ldrb r3,[r3]
 1510 0d6c 5BB2     	 sxtb r3,r3
 1511 0d6e A7F84031 	 strh r3,[r7,#320]
 662:../Dave/Generated/CMSIS_DSP/FilteringFunctions/arm_correlate_q7.c ****       input2 = ((q31_t) in1 & 0x0000FFFF) | ((q31_t) in2 << 16);
 1512              	 .loc 1 662 0
 1513 0d72 B7F94231 	 ldrsh r3,[r7,#322]
 1514 0d76 9AB2     	 uxth r2,r3
 1515 0d78 B7F94031 	 ldrsh r3,[r7,#320]
 1516 0d7c 1B04     	 lsls r3,r3,#16
 1517 0d7e 1343     	 orrs r3,r3,r2
 1518 0d80 C7F83831 	 str r3,[r7,#312]
 663:../Dave/Generated/CMSIS_DSP/FilteringFunctions/arm_correlate_q7.c **** 
 664:../Dave/Generated/CMSIS_DSP/FilteringFunctions/arm_correlate_q7.c ****       /* sum += x[srcALen - srcBLen + 3] * y[2] */
 665:../Dave/Generated/CMSIS_DSP/FilteringFunctions/arm_correlate_q7.c ****       /* sum += x[srcALen - srcBLen + 4] * y[3] */
 666:../Dave/Generated/CMSIS_DSP/FilteringFunctions/arm_correlate_q7.c ****       sum = __SMLAD(input1, input2, sum);
 1519              	 .loc 1 666 0
 1520 0d84 D7F83C01 	 ldr r0,[r7,#316]
 1521 0d88 D7F83811 	 ldr r1,[r7,#312]
 1522 0d8c D7F87C21 	 ldr r2,[r7,#380]
 1523 0d90 07F12003 	 add r3,r7,#32
 1524 0d94 1860     	 str r0,[r3]
 1525 0d96 07F11C03 	 add r3,r7,#28
 1526 0d9a 1960     	 str r1,[r3]
 1527 0d9c 07F11803 	 add r3,r7,#24
 1528 0da0 1A60     	 str r2,[r3]
 1529              	.LBB71:
 1530              	.LBB72:
 507:C:\Users\Depes Crystalline\Desktop\school\Active_Bike_Lighting_System\Radar_Core/Libraries/CMSIS/Include\core_cmSimd.h ****   return(result);
 1531              	 .loc 2 507 0
 1532 0da2 07F12003 	 add r3,r7,#32
 1533 0da6 1B68     	 ldr r3,[r3]
 1534 0da8 07F11C02 	 add r2,r7,#28
 1535 0dac 1268     	 ldr r2,[r2]
 1536 0dae 07F11801 	 add r1,r7,#24
 1537 0db2 0968     	 ldr r1,[r1]
 1538              	
 1539 0db4 23FB0212 	 smlad r2,r3,r2,r1
 1540              	
 1541              	 .thumb
 1542 0db8 07F11403 	 add r3,r7,#20
 1543 0dbc 1A60     	 str r2,[r3]
 1544              	 .loc 2 508 0
 1545 0dbe 07F11403 	 add r3,r7,#20
 1546 0dc2 1B68     	 ldr r3,[r3]
 1547              	.LBE72:
 1548              	.LBE71:
 1549              	 .loc 1 666 0
 1550 0dc4 C7F87C31 	 str r3,[r7,#380]
 667:../Dave/Generated/CMSIS_DSP/FilteringFunctions/arm_correlate_q7.c **** 
 668:../Dave/Generated/CMSIS_DSP/FilteringFunctions/arm_correlate_q7.c ****       /* Decrement the loop counter */
 669:../Dave/Generated/CMSIS_DSP/FilteringFunctions/arm_correlate_q7.c ****       k--;
 1551              	 .loc 1 669 0
 1552 0dc8 D7F86431 	 ldr r3,[r7,#356]
 1553 0dcc 013B     	 subs r3,r3,#1
 1554 0dce C7F86431 	 str r3,[r7,#356]
 1555              	.L40:
 638:../Dave/Generated/CMSIS_DSP/FilteringFunctions/arm_correlate_q7.c ****     {
 1556              	 .loc 1 638 0
 1557 0dd2 D7F86431 	 ldr r3,[r7,#356]
 1558 0dd6 002B     	 cmp r3,#0
 1559 0dd8 7FF446AF 	 bne .L43
 670:../Dave/Generated/CMSIS_DSP/FilteringFunctions/arm_correlate_q7.c ****     }
 671:../Dave/Generated/CMSIS_DSP/FilteringFunctions/arm_correlate_q7.c **** 
 672:../Dave/Generated/CMSIS_DSP/FilteringFunctions/arm_correlate_q7.c ****     /* If the count is not a multiple of 4, compute any remaining MACs here.   
 673:../Dave/Generated/CMSIS_DSP/FilteringFunctions/arm_correlate_q7.c ****      ** No loop unrolling is used. */
 674:../Dave/Generated/CMSIS_DSP/FilteringFunctions/arm_correlate_q7.c ****     k = count % 0x4u;
 1560              	 .loc 1 674 0
 1561 0ddc D7F86031 	 ldr r3,[r7,#352]
 1562 0de0 03F00303 	 and r3,r3,#3
 1563 0de4 C7F86431 	 str r3,[r7,#356]
 675:../Dave/Generated/CMSIS_DSP/FilteringFunctions/arm_correlate_q7.c **** 
 676:../Dave/Generated/CMSIS_DSP/FilteringFunctions/arm_correlate_q7.c ****     while(k > 0u)
 1564              	 .loc 1 676 0
 1565 0de8 19E0     	 b .L44
 1566              	.L45:
 677:../Dave/Generated/CMSIS_DSP/FilteringFunctions/arm_correlate_q7.c ****     {
 678:../Dave/Generated/CMSIS_DSP/FilteringFunctions/arm_correlate_q7.c ****       /* Perform the multiply-accumulates */
 679:../Dave/Generated/CMSIS_DSP/FilteringFunctions/arm_correlate_q7.c ****       sum += ((q15_t) * px++ * *py++);
 1567              	 .loc 1 679 0
 1568 0dea D7F88831 	 ldr r3,[r7,#392]
 1569 0dee 5A1C     	 adds r2,r3,#1
 1570 0df0 C7F88821 	 str r2,[r7,#392]
 1571 0df4 1B78     	 ldrb r3,[r3]
 1572 0df6 5AB2     	 sxtb r2,r3
 1573 0df8 D7F88431 	 ldr r3,[r7,#388]
 1574 0dfc 591C     	 adds r1,r3,#1
 1575 0dfe C7F88411 	 str r1,[r7,#388]
 1576 0e02 1B78     	 ldrb r3,[r3]
 1577 0e04 5BB2     	 sxtb r3,r3
 1578 0e06 03FB02F3 	 mul r3,r3,r2
 1579 0e0a D7F87C21 	 ldr r2,[r7,#380]
 1580 0e0e 1344     	 add r3,r3,r2
 1581 0e10 C7F87C31 	 str r3,[r7,#380]
 680:../Dave/Generated/CMSIS_DSP/FilteringFunctions/arm_correlate_q7.c **** 
 681:../Dave/Generated/CMSIS_DSP/FilteringFunctions/arm_correlate_q7.c ****       /* Decrement the loop counter */
 682:../Dave/Generated/CMSIS_DSP/FilteringFunctions/arm_correlate_q7.c ****       k--;
 1582              	 .loc 1 682 0
 1583 0e14 D7F86431 	 ldr r3,[r7,#356]
 1584 0e18 013B     	 subs r3,r3,#1
 1585 0e1a C7F86431 	 str r3,[r7,#356]
 1586              	.L44:
 676:../Dave/Generated/CMSIS_DSP/FilteringFunctions/arm_correlate_q7.c ****     {
 1587              	 .loc 1 676 0
 1588 0e1e D7F86431 	 ldr r3,[r7,#356]
 1589 0e22 002B     	 cmp r3,#0
 1590 0e24 E1D1     	 bne .L45
 1591              	.LBB73:
 683:../Dave/Generated/CMSIS_DSP/FilteringFunctions/arm_correlate_q7.c ****     }
 684:../Dave/Generated/CMSIS_DSP/FilteringFunctions/arm_correlate_q7.c **** 
 685:../Dave/Generated/CMSIS_DSP/FilteringFunctions/arm_correlate_q7.c ****     /* Store the result in the accumulator in the destination buffer. */
 686:../Dave/Generated/CMSIS_DSP/FilteringFunctions/arm_correlate_q7.c ****     *pOut = (q7_t) (__SSAT(sum >> 7, 8));
 1592              	 .loc 1 686 0
 1593 0e26 D7F87C31 	 ldr r3,[r7,#380]
 1594 0e2a DB11     	 asrs r3,r3,#7
 1595 0e2c C7F8F830 	 str r3,[r7,#248]
 1596 0e30 D7F8F830 	 ldr r3,[r7,#248]
 1597              	
 1598 0e34 03F30703 	 ssat r3,#8,r3
 1599              	
 1600              	 .thumb
 1601 0e38 C7F8F430 	 str r3,[r7,#244]
 1602 0e3c D7F8F430 	 ldr r3,[r7,#244]
 1603              	.LBE73:
 1604 0e40 DAB2     	 uxtb r2,r3
 1605 0e42 D7F88C31 	 ldr r3,[r7,#396]
 1606 0e46 1A70     	 strb r2,[r3]
 687:../Dave/Generated/CMSIS_DSP/FilteringFunctions/arm_correlate_q7.c ****     /* Destination pointer is updated according to the address modifier, inc */
 688:../Dave/Generated/CMSIS_DSP/FilteringFunctions/arm_correlate_q7.c ****     pOut += inc;
 1607              	 .loc 1 688 0
 1608 0e48 D7F85031 	 ldr r3,[r7,#336]
 1609 0e4c D7F88C21 	 ldr r2,[r7,#396]
 1610 0e50 1344     	 add r3,r3,r2
 1611 0e52 C7F88C31 	 str r3,[r7,#396]
 689:../Dave/Generated/CMSIS_DSP/FilteringFunctions/arm_correlate_q7.c **** 
 690:../Dave/Generated/CMSIS_DSP/FilteringFunctions/arm_correlate_q7.c ****     /* Update the inputA and inputB pointers for next MAC calculation */
 691:../Dave/Generated/CMSIS_DSP/FilteringFunctions/arm_correlate_q7.c ****     px = ++pSrc1;
 1612              	 .loc 1 691 0
 1613 0e56 D7F88031 	 ldr r3,[r7,#384]
 1614 0e5a 0133     	 adds r3,r3,#1
 1615 0e5c C7F88031 	 str r3,[r7,#384]
 1616 0e60 D7F88031 	 ldr r3,[r7,#384]
 1617 0e64 C7F88831 	 str r3,[r7,#392]
 692:../Dave/Generated/CMSIS_DSP/FilteringFunctions/arm_correlate_q7.c ****     py = pIn2;
 1618              	 .loc 1 692 0
 1619 0e68 D7F89031 	 ldr r3,[r7,#400]
 1620 0e6c C7F88431 	 str r3,[r7,#388]
 693:../Dave/Generated/CMSIS_DSP/FilteringFunctions/arm_correlate_q7.c **** 
 694:../Dave/Generated/CMSIS_DSP/FilteringFunctions/arm_correlate_q7.c ****     /* Decrement the MAC count */
 695:../Dave/Generated/CMSIS_DSP/FilteringFunctions/arm_correlate_q7.c ****     count--;
 1621              	 .loc 1 695 0
 1622 0e70 D7F86031 	 ldr r3,[r7,#352]
 1623 0e74 013B     	 subs r3,r3,#1
 1624 0e76 C7F86031 	 str r3,[r7,#352]
 696:../Dave/Generated/CMSIS_DSP/FilteringFunctions/arm_correlate_q7.c **** 
 697:../Dave/Generated/CMSIS_DSP/FilteringFunctions/arm_correlate_q7.c ****     /* Decrement the loop counter */
 698:../Dave/Generated/CMSIS_DSP/FilteringFunctions/arm_correlate_q7.c ****     blockSize3--;
 1625              	 .loc 1 698 0
 1626 0e7a D7F85431 	 ldr r3,[r7,#340]
 1627 0e7e 013B     	 subs r3,r3,#1
 1628 0e80 C7F85431 	 str r3,[r7,#340]
 1629              	.L39:
 628:../Dave/Generated/CMSIS_DSP/FilteringFunctions/arm_correlate_q7.c ****   {
 1630              	 .loc 1 628 0
 1631 0e84 D7F85431 	 ldr r3,[r7,#340]
 1632 0e88 002B     	 cmp r3,#0
 1633 0e8a 7FF4E4AE 	 bne .L46
 699:../Dave/Generated/CMSIS_DSP/FilteringFunctions/arm_correlate_q7.c ****   }
 700:../Dave/Generated/CMSIS_DSP/FilteringFunctions/arm_correlate_q7.c **** 
 701:../Dave/Generated/CMSIS_DSP/FilteringFunctions/arm_correlate_q7.c **** #else
 702:../Dave/Generated/CMSIS_DSP/FilteringFunctions/arm_correlate_q7.c **** 
 703:../Dave/Generated/CMSIS_DSP/FilteringFunctions/arm_correlate_q7.c **** /* Run the below code for Cortex-M0 */
 704:../Dave/Generated/CMSIS_DSP/FilteringFunctions/arm_correlate_q7.c **** 
 705:../Dave/Generated/CMSIS_DSP/FilteringFunctions/arm_correlate_q7.c ****   q7_t *pIn1 = pSrcA;                            /* inputA pointer */
 706:../Dave/Generated/CMSIS_DSP/FilteringFunctions/arm_correlate_q7.c ****   q7_t *pIn2 = pSrcB + (srcBLen - 1u);           /* inputB pointer */
 707:../Dave/Generated/CMSIS_DSP/FilteringFunctions/arm_correlate_q7.c ****   q31_t sum;                                     /* Accumulator */
 708:../Dave/Generated/CMSIS_DSP/FilteringFunctions/arm_correlate_q7.c ****   uint32_t i = 0u, j;                            /* loop counters */
 709:../Dave/Generated/CMSIS_DSP/FilteringFunctions/arm_correlate_q7.c ****   uint32_t inv = 0u;                             /* Reverse order flag */
 710:../Dave/Generated/CMSIS_DSP/FilteringFunctions/arm_correlate_q7.c ****   uint32_t tot = 0u;                             /* Length */
 711:../Dave/Generated/CMSIS_DSP/FilteringFunctions/arm_correlate_q7.c **** 
 712:../Dave/Generated/CMSIS_DSP/FilteringFunctions/arm_correlate_q7.c ****   /* The algorithm implementation is based on the lengths of the inputs. */
 713:../Dave/Generated/CMSIS_DSP/FilteringFunctions/arm_correlate_q7.c ****   /* srcB is always made to slide across srcA. */
 714:../Dave/Generated/CMSIS_DSP/FilteringFunctions/arm_correlate_q7.c ****   /* So srcBLen is always considered as shorter or equal to srcALen */
 715:../Dave/Generated/CMSIS_DSP/FilteringFunctions/arm_correlate_q7.c ****   /* But CORR(x, y) is reverse of CORR(y, x) */
 716:../Dave/Generated/CMSIS_DSP/FilteringFunctions/arm_correlate_q7.c ****   /* So, when srcBLen > srcALen, output pointer is made to point to the end of the output buffer */
 717:../Dave/Generated/CMSIS_DSP/FilteringFunctions/arm_correlate_q7.c ****   /* and a varaible, inv is set to 1 */
 718:../Dave/Generated/CMSIS_DSP/FilteringFunctions/arm_correlate_q7.c ****   /* If lengths are not equal then zero pad has to be done to  make the two   
 719:../Dave/Generated/CMSIS_DSP/FilteringFunctions/arm_correlate_q7.c ****    * inputs of same length. But to improve the performance, we include zeroes   
 720:../Dave/Generated/CMSIS_DSP/FilteringFunctions/arm_correlate_q7.c ****    * in the output instead of zero padding either of the the inputs*/
 721:../Dave/Generated/CMSIS_DSP/FilteringFunctions/arm_correlate_q7.c ****   /* If srcALen > srcBLen, (srcALen - srcBLen) zeroes has to included in the   
 722:../Dave/Generated/CMSIS_DSP/FilteringFunctions/arm_correlate_q7.c ****    * starting of the output buffer */
 723:../Dave/Generated/CMSIS_DSP/FilteringFunctions/arm_correlate_q7.c ****   /* If srcALen < srcBLen, (srcALen - srcBLen) zeroes has to included in the  
 724:../Dave/Generated/CMSIS_DSP/FilteringFunctions/arm_correlate_q7.c ****    * ending of the output buffer */
 725:../Dave/Generated/CMSIS_DSP/FilteringFunctions/arm_correlate_q7.c ****   /* Once the zero padding is done the remaining of the output is calcualted  
 726:../Dave/Generated/CMSIS_DSP/FilteringFunctions/arm_correlate_q7.c ****    * using convolution but with the shorter signal time shifted. */
 727:../Dave/Generated/CMSIS_DSP/FilteringFunctions/arm_correlate_q7.c **** 
 728:../Dave/Generated/CMSIS_DSP/FilteringFunctions/arm_correlate_q7.c ****   /* Calculate the length of the remaining sequence */
 729:../Dave/Generated/CMSIS_DSP/FilteringFunctions/arm_correlate_q7.c ****   tot = ((srcALen + srcBLen) - 2u);
 730:../Dave/Generated/CMSIS_DSP/FilteringFunctions/arm_correlate_q7.c **** 
 731:../Dave/Generated/CMSIS_DSP/FilteringFunctions/arm_correlate_q7.c ****   if(srcALen > srcBLen)
 732:../Dave/Generated/CMSIS_DSP/FilteringFunctions/arm_correlate_q7.c ****   {
 733:../Dave/Generated/CMSIS_DSP/FilteringFunctions/arm_correlate_q7.c ****     /* Calculating the number of zeros to be padded to the output */
 734:../Dave/Generated/CMSIS_DSP/FilteringFunctions/arm_correlate_q7.c ****     j = srcALen - srcBLen;
 735:../Dave/Generated/CMSIS_DSP/FilteringFunctions/arm_correlate_q7.c **** 
 736:../Dave/Generated/CMSIS_DSP/FilteringFunctions/arm_correlate_q7.c ****     /* Initialise the pointer after zero padding */
 737:../Dave/Generated/CMSIS_DSP/FilteringFunctions/arm_correlate_q7.c ****     pDst += j;
 738:../Dave/Generated/CMSIS_DSP/FilteringFunctions/arm_correlate_q7.c ****   }
 739:../Dave/Generated/CMSIS_DSP/FilteringFunctions/arm_correlate_q7.c **** 
 740:../Dave/Generated/CMSIS_DSP/FilteringFunctions/arm_correlate_q7.c ****   else if(srcALen < srcBLen)
 741:../Dave/Generated/CMSIS_DSP/FilteringFunctions/arm_correlate_q7.c ****   {
 742:../Dave/Generated/CMSIS_DSP/FilteringFunctions/arm_correlate_q7.c ****     /* Initialization to inputB pointer */
 743:../Dave/Generated/CMSIS_DSP/FilteringFunctions/arm_correlate_q7.c ****     pIn1 = pSrcB;
 744:../Dave/Generated/CMSIS_DSP/FilteringFunctions/arm_correlate_q7.c **** 
 745:../Dave/Generated/CMSIS_DSP/FilteringFunctions/arm_correlate_q7.c ****     /* Initialization to the end of inputA pointer */
 746:../Dave/Generated/CMSIS_DSP/FilteringFunctions/arm_correlate_q7.c ****     pIn2 = pSrcA + (srcALen - 1u);
 747:../Dave/Generated/CMSIS_DSP/FilteringFunctions/arm_correlate_q7.c **** 
 748:../Dave/Generated/CMSIS_DSP/FilteringFunctions/arm_correlate_q7.c ****     /* Initialisation of the pointer after zero padding */
 749:../Dave/Generated/CMSIS_DSP/FilteringFunctions/arm_correlate_q7.c ****     pDst = pDst + tot;
 750:../Dave/Generated/CMSIS_DSP/FilteringFunctions/arm_correlate_q7.c **** 
 751:../Dave/Generated/CMSIS_DSP/FilteringFunctions/arm_correlate_q7.c ****     /* Swapping the lengths */
 752:../Dave/Generated/CMSIS_DSP/FilteringFunctions/arm_correlate_q7.c ****     j = srcALen;
 753:../Dave/Generated/CMSIS_DSP/FilteringFunctions/arm_correlate_q7.c ****     srcALen = srcBLen;
 754:../Dave/Generated/CMSIS_DSP/FilteringFunctions/arm_correlate_q7.c ****     srcBLen = j;
 755:../Dave/Generated/CMSIS_DSP/FilteringFunctions/arm_correlate_q7.c **** 
 756:../Dave/Generated/CMSIS_DSP/FilteringFunctions/arm_correlate_q7.c ****     /* Setting the reverse flag */
 757:../Dave/Generated/CMSIS_DSP/FilteringFunctions/arm_correlate_q7.c ****     inv = 1;
 758:../Dave/Generated/CMSIS_DSP/FilteringFunctions/arm_correlate_q7.c **** 
 759:../Dave/Generated/CMSIS_DSP/FilteringFunctions/arm_correlate_q7.c ****   }
 760:../Dave/Generated/CMSIS_DSP/FilteringFunctions/arm_correlate_q7.c **** 
 761:../Dave/Generated/CMSIS_DSP/FilteringFunctions/arm_correlate_q7.c ****   /* Loop to calculate convolution for output length number of times */
 762:../Dave/Generated/CMSIS_DSP/FilteringFunctions/arm_correlate_q7.c ****   for (i = 0u; i <= tot; i++)
 763:../Dave/Generated/CMSIS_DSP/FilteringFunctions/arm_correlate_q7.c ****   {
 764:../Dave/Generated/CMSIS_DSP/FilteringFunctions/arm_correlate_q7.c ****     /* Initialize sum with zero to carry on MAC operations */
 765:../Dave/Generated/CMSIS_DSP/FilteringFunctions/arm_correlate_q7.c ****     sum = 0;
 766:../Dave/Generated/CMSIS_DSP/FilteringFunctions/arm_correlate_q7.c **** 
 767:../Dave/Generated/CMSIS_DSP/FilteringFunctions/arm_correlate_q7.c ****     /* Loop to perform MAC operations according to convolution equation */
 768:../Dave/Generated/CMSIS_DSP/FilteringFunctions/arm_correlate_q7.c ****     for (j = 0u; j <= i; j++)
 769:../Dave/Generated/CMSIS_DSP/FilteringFunctions/arm_correlate_q7.c ****     {
 770:../Dave/Generated/CMSIS_DSP/FilteringFunctions/arm_correlate_q7.c ****       /* Check the array limitations */
 771:../Dave/Generated/CMSIS_DSP/FilteringFunctions/arm_correlate_q7.c ****       if((((i - j) < srcBLen) && (j < srcALen)))
 772:../Dave/Generated/CMSIS_DSP/FilteringFunctions/arm_correlate_q7.c ****       {
 773:../Dave/Generated/CMSIS_DSP/FilteringFunctions/arm_correlate_q7.c ****         /* z[i] += x[i-j] * y[j] */
 774:../Dave/Generated/CMSIS_DSP/FilteringFunctions/arm_correlate_q7.c ****         sum += ((q15_t) pIn1[j] * pIn2[-((int32_t) i - j)]);
 775:../Dave/Generated/CMSIS_DSP/FilteringFunctions/arm_correlate_q7.c ****       }
 776:../Dave/Generated/CMSIS_DSP/FilteringFunctions/arm_correlate_q7.c ****     }
 777:../Dave/Generated/CMSIS_DSP/FilteringFunctions/arm_correlate_q7.c ****     /* Store the output in the destination buffer */
 778:../Dave/Generated/CMSIS_DSP/FilteringFunctions/arm_correlate_q7.c ****     if(inv == 1)
 779:../Dave/Generated/CMSIS_DSP/FilteringFunctions/arm_correlate_q7.c ****       *pDst-- = (q7_t) __SSAT((sum >> 7u), 8u);
 780:../Dave/Generated/CMSIS_DSP/FilteringFunctions/arm_correlate_q7.c ****     else
 781:../Dave/Generated/CMSIS_DSP/FilteringFunctions/arm_correlate_q7.c ****       *pDst++ = (q7_t) __SSAT((sum >> 7u), 8u);
 782:../Dave/Generated/CMSIS_DSP/FilteringFunctions/arm_correlate_q7.c ****   }
 783:../Dave/Generated/CMSIS_DSP/FilteringFunctions/arm_correlate_q7.c **** 
 784:../Dave/Generated/CMSIS_DSP/FilteringFunctions/arm_correlate_q7.c **** #endif /*   #ifndef ARM_MATH_CM0_FAMILY */
 785:../Dave/Generated/CMSIS_DSP/FilteringFunctions/arm_correlate_q7.c **** 
 786:../Dave/Generated/CMSIS_DSP/FilteringFunctions/arm_correlate_q7.c **** }
 1634              	 .loc 1 786 0
 1635 0e8e 07F5CC77 	 add r7,r7,#408
 1636              	.LCFI3:
 1637              	 .cfi_def_cfa_offset 8
 1638 0e92 BD46     	 mov sp,r7
 1639              	.LCFI4:
 1640              	 .cfi_def_cfa_register 13
 1641              	 
 1642 0e94 90BC     	 pop {r4,r7}
 1643              	.LCFI5:
 1644              	 .cfi_restore 7
 1645              	 .cfi_restore 4
 1646              	 .cfi_def_cfa_offset 0
 1647 0e96 7047     	 bx lr
 1648              	 .cfi_endproc
 1649              	.LFE139:
 1651              	 .text
 1652              	.Letext0:
 1653              	 .file 3 "c:\\davev4-64bit\\dave-4.2.6\\eclipse\\arm-gcc-49\\arm-none-eabi\\include\\machine\\_default_types.h"
 1654              	 .file 4 "c:\\davev4-64bit\\dave-4.2.6\\eclipse\\arm-gcc-49\\arm-none-eabi\\include\\stdint.h"
 1655              	 .file 5 "C:\\Users\\Depes Crystalline\\Desktop\\school\\Active_Bike_Lighting_System\\Radar_Core\\Dave\\Generated/CMSIS_DSP/arm_math.h"