   1              	 .syntax unified
   2              	 .cpu cortex-m4
   3              	 .fpu softvfp
   4              	 .eabi_attribute 20,1
   5              	 .eabi_attribute 21,1
   6              	 .eabi_attribute 23,3
   7              	 .eabi_attribute 24,1
   8              	 .eabi_attribute 25,1
   9              	 .eabi_attribute 26,1
  10              	 .eabi_attribute 30,6
  11              	 .eabi_attribute 34,1
  12              	 .eabi_attribute 18,4
  13              	 .thumb
  14              	 .file "arm_conv_q15.c"
  15              	 .text
  16              	.Ltext0:
  17              	 .cfi_sections .debug_frame
  18              	 .section .text.arm_conv_q15,"ax",%progbits
  19              	 .align 2
  20              	 .global arm_conv_q15
  21              	 .thumb
  22              	 .thumb_func
  24              	arm_conv_q15:
  25              	.LFB139:
  26              	 .file 1 "../Dave/Generated/CMSIS_DSP/FilteringFunctions/arm_conv_q15.c"
   1:../Dave/Generated/CMSIS_DSP/FilteringFunctions/arm_conv_q15.c **** /* ----------------------------------------------------------------------   
   2:../Dave/Generated/CMSIS_DSP/FilteringFunctions/arm_conv_q15.c **** * Copyright (C) 2010-2014 ARM Limited. All rights reserved.   
   3:../Dave/Generated/CMSIS_DSP/FilteringFunctions/arm_conv_q15.c **** *   
   4:../Dave/Generated/CMSIS_DSP/FilteringFunctions/arm_conv_q15.c **** * $Date:        12. March 2014
   5:../Dave/Generated/CMSIS_DSP/FilteringFunctions/arm_conv_q15.c **** * $Revision: 	V1.4.4
   6:../Dave/Generated/CMSIS_DSP/FilteringFunctions/arm_conv_q15.c **** *   
   7:../Dave/Generated/CMSIS_DSP/FilteringFunctions/arm_conv_q15.c **** * Project: 	    CMSIS DSP Library   
   8:../Dave/Generated/CMSIS_DSP/FilteringFunctions/arm_conv_q15.c **** * Title:		arm_conv_q15.c   
   9:../Dave/Generated/CMSIS_DSP/FilteringFunctions/arm_conv_q15.c **** *   
  10:../Dave/Generated/CMSIS_DSP/FilteringFunctions/arm_conv_q15.c **** * Description:	Convolution of Q15 sequences.     
  11:../Dave/Generated/CMSIS_DSP/FilteringFunctions/arm_conv_q15.c **** *   
  12:../Dave/Generated/CMSIS_DSP/FilteringFunctions/arm_conv_q15.c **** * Target Processor: Cortex-M4/Cortex-M3/Cortex-M0
  13:../Dave/Generated/CMSIS_DSP/FilteringFunctions/arm_conv_q15.c **** *  
  14:../Dave/Generated/CMSIS_DSP/FilteringFunctions/arm_conv_q15.c **** * Redistribution and use in source and binary forms, with or without 
  15:../Dave/Generated/CMSIS_DSP/FilteringFunctions/arm_conv_q15.c **** * modification, are permitted provided that the following conditions
  16:../Dave/Generated/CMSIS_DSP/FilteringFunctions/arm_conv_q15.c **** * are met:
  17:../Dave/Generated/CMSIS_DSP/FilteringFunctions/arm_conv_q15.c **** *   - Redistributions of source code must retain the above copyright
  18:../Dave/Generated/CMSIS_DSP/FilteringFunctions/arm_conv_q15.c **** *     notice, this list of conditions and the following disclaimer.
  19:../Dave/Generated/CMSIS_DSP/FilteringFunctions/arm_conv_q15.c **** *   - Redistributions in binary form must reproduce the above copyright
  20:../Dave/Generated/CMSIS_DSP/FilteringFunctions/arm_conv_q15.c **** *     notice, this list of conditions and the following disclaimer in
  21:../Dave/Generated/CMSIS_DSP/FilteringFunctions/arm_conv_q15.c **** *     the documentation and/or other materials provided with the 
  22:../Dave/Generated/CMSIS_DSP/FilteringFunctions/arm_conv_q15.c **** *     distribution.
  23:../Dave/Generated/CMSIS_DSP/FilteringFunctions/arm_conv_q15.c **** *   - Neither the name of ARM LIMITED nor the names of its contributors
  24:../Dave/Generated/CMSIS_DSP/FilteringFunctions/arm_conv_q15.c **** *     may be used to endorse or promote products derived from this
  25:../Dave/Generated/CMSIS_DSP/FilteringFunctions/arm_conv_q15.c **** *     software without specific prior written permission.
  26:../Dave/Generated/CMSIS_DSP/FilteringFunctions/arm_conv_q15.c **** *
  27:../Dave/Generated/CMSIS_DSP/FilteringFunctions/arm_conv_q15.c **** * THIS SOFTWARE IS PROVIDED BY THE COPYRIGHT HOLDERS AND CONTRIBUTORS
  28:../Dave/Generated/CMSIS_DSP/FilteringFunctions/arm_conv_q15.c **** * "AS IS" AND ANY EXPRESS OR IMPLIED WARRANTIES, INCLUDING, BUT NOT
  29:../Dave/Generated/CMSIS_DSP/FilteringFunctions/arm_conv_q15.c **** * LIMITED TO, THE IMPLIED WARRANTIES OF MERCHANTABILITY AND FITNESS
  30:../Dave/Generated/CMSIS_DSP/FilteringFunctions/arm_conv_q15.c **** * FOR A PARTICULAR PURPOSE ARE DISCLAIMED. IN NO EVENT SHALL THE 
  31:../Dave/Generated/CMSIS_DSP/FilteringFunctions/arm_conv_q15.c **** * COPYRIGHT OWNER OR CONTRIBUTORS BE LIABLE FOR ANY DIRECT, INDIRECT,
  32:../Dave/Generated/CMSIS_DSP/FilteringFunctions/arm_conv_q15.c **** * INCIDENTAL, SPECIAL, EXEMPLARY, OR CONSEQUENTIAL DAMAGES (INCLUDING,
  33:../Dave/Generated/CMSIS_DSP/FilteringFunctions/arm_conv_q15.c **** * BUT NOT LIMITED TO, PROCUREMENT OF SUBSTITUTE GOODS OR SERVICES;
  34:../Dave/Generated/CMSIS_DSP/FilteringFunctions/arm_conv_q15.c **** * LOSS OF USE, DATA, OR PROFITS; OR BUSINESS INTERRUPTION) HOWEVER
  35:../Dave/Generated/CMSIS_DSP/FilteringFunctions/arm_conv_q15.c **** * CAUSED AND ON ANY THEORY OF LIABILITY, WHETHER IN CONTRACT, STRICT
  36:../Dave/Generated/CMSIS_DSP/FilteringFunctions/arm_conv_q15.c **** * LIABILITY, OR TORT (INCLUDING NEGLIGENCE OR OTHERWISE) ARISING IN
  37:../Dave/Generated/CMSIS_DSP/FilteringFunctions/arm_conv_q15.c **** * ANY WAY OUT OF THE USE OF THIS SOFTWARE, EVEN IF ADVISED OF THE
  38:../Dave/Generated/CMSIS_DSP/FilteringFunctions/arm_conv_q15.c **** * POSSIBILITY OF SUCH DAMAGE.  
  39:../Dave/Generated/CMSIS_DSP/FilteringFunctions/arm_conv_q15.c **** * -------------------------------------------------------------------- */
  40:../Dave/Generated/CMSIS_DSP/FilteringFunctions/arm_conv_q15.c **** 
  41:../Dave/Generated/CMSIS_DSP/FilteringFunctions/arm_conv_q15.c **** #include "CMSIS_DSP/cmsis_dsp.h"
  42:../Dave/Generated/CMSIS_DSP/FilteringFunctions/arm_conv_q15.c **** 
  43:../Dave/Generated/CMSIS_DSP/FilteringFunctions/arm_conv_q15.c **** /**   
  44:../Dave/Generated/CMSIS_DSP/FilteringFunctions/arm_conv_q15.c ****  * @ingroup groupFilters   
  45:../Dave/Generated/CMSIS_DSP/FilteringFunctions/arm_conv_q15.c ****  */
  46:../Dave/Generated/CMSIS_DSP/FilteringFunctions/arm_conv_q15.c **** 
  47:../Dave/Generated/CMSIS_DSP/FilteringFunctions/arm_conv_q15.c **** /**   
  48:../Dave/Generated/CMSIS_DSP/FilteringFunctions/arm_conv_q15.c ****  * @addtogroup Conv   
  49:../Dave/Generated/CMSIS_DSP/FilteringFunctions/arm_conv_q15.c ****  * @{   
  50:../Dave/Generated/CMSIS_DSP/FilteringFunctions/arm_conv_q15.c ****  */
  51:../Dave/Generated/CMSIS_DSP/FilteringFunctions/arm_conv_q15.c **** 
  52:../Dave/Generated/CMSIS_DSP/FilteringFunctions/arm_conv_q15.c **** /**   
  53:../Dave/Generated/CMSIS_DSP/FilteringFunctions/arm_conv_q15.c ****  * @brief Convolution of Q15 sequences.   
  54:../Dave/Generated/CMSIS_DSP/FilteringFunctions/arm_conv_q15.c ****  * @param[in] *pSrcA points to the first input sequence.   
  55:../Dave/Generated/CMSIS_DSP/FilteringFunctions/arm_conv_q15.c ****  * @param[in] srcALen length of the first input sequence.   
  56:../Dave/Generated/CMSIS_DSP/FilteringFunctions/arm_conv_q15.c ****  * @param[in] *pSrcB points to the second input sequence.   
  57:../Dave/Generated/CMSIS_DSP/FilteringFunctions/arm_conv_q15.c ****  * @param[in] srcBLen length of the second input sequence.   
  58:../Dave/Generated/CMSIS_DSP/FilteringFunctions/arm_conv_q15.c ****  * @param[out] *pDst points to the location where the output result is written.  Length srcALen+src
  59:../Dave/Generated/CMSIS_DSP/FilteringFunctions/arm_conv_q15.c ****  * @return none.   
  60:../Dave/Generated/CMSIS_DSP/FilteringFunctions/arm_conv_q15.c ****  *   
  61:../Dave/Generated/CMSIS_DSP/FilteringFunctions/arm_conv_q15.c ****  * @details   
  62:../Dave/Generated/CMSIS_DSP/FilteringFunctions/arm_conv_q15.c ****  * <b>Scaling and Overflow Behavior:</b>   
  63:../Dave/Generated/CMSIS_DSP/FilteringFunctions/arm_conv_q15.c ****  *   
  64:../Dave/Generated/CMSIS_DSP/FilteringFunctions/arm_conv_q15.c ****  * \par   
  65:../Dave/Generated/CMSIS_DSP/FilteringFunctions/arm_conv_q15.c ****  * The function is implemented using a 64-bit internal accumulator.   
  66:../Dave/Generated/CMSIS_DSP/FilteringFunctions/arm_conv_q15.c ****  * Both inputs are in 1.15 format and multiplications yield a 2.30 result.   
  67:../Dave/Generated/CMSIS_DSP/FilteringFunctions/arm_conv_q15.c ****  * The 2.30 intermediate results are accumulated in a 64-bit accumulator in 34.30 format.   
  68:../Dave/Generated/CMSIS_DSP/FilteringFunctions/arm_conv_q15.c ****  * This approach provides 33 guard bits and there is no risk of overflow.   
  69:../Dave/Generated/CMSIS_DSP/FilteringFunctions/arm_conv_q15.c ****  * The 34.30 result is then truncated to 34.15 format by discarding the low 15 bits and then satura
  70:../Dave/Generated/CMSIS_DSP/FilteringFunctions/arm_conv_q15.c ****  *   
  71:../Dave/Generated/CMSIS_DSP/FilteringFunctions/arm_conv_q15.c ****  * \par   
  72:../Dave/Generated/CMSIS_DSP/FilteringFunctions/arm_conv_q15.c ****  * Refer to <code>arm_conv_fast_q15()</code> for a faster but less precise version of this function
  73:../Dave/Generated/CMSIS_DSP/FilteringFunctions/arm_conv_q15.c ****  *
  74:../Dave/Generated/CMSIS_DSP/FilteringFunctions/arm_conv_q15.c ****  * \par    
  75:../Dave/Generated/CMSIS_DSP/FilteringFunctions/arm_conv_q15.c ****  * Refer the function <code>arm_conv_opt_q15()</code> for a faster implementation of this function 
  76:../Dave/Generated/CMSIS_DSP/FilteringFunctions/arm_conv_q15.c ****  *  
  77:../Dave/Generated/CMSIS_DSP/FilteringFunctions/arm_conv_q15.c ****  */
  78:../Dave/Generated/CMSIS_DSP/FilteringFunctions/arm_conv_q15.c **** 
  79:../Dave/Generated/CMSIS_DSP/FilteringFunctions/arm_conv_q15.c **** void arm_conv_q15(
  80:../Dave/Generated/CMSIS_DSP/FilteringFunctions/arm_conv_q15.c ****   q15_t * pSrcA,
  81:../Dave/Generated/CMSIS_DSP/FilteringFunctions/arm_conv_q15.c ****   uint32_t srcALen,
  82:../Dave/Generated/CMSIS_DSP/FilteringFunctions/arm_conv_q15.c ****   q15_t * pSrcB,
  83:../Dave/Generated/CMSIS_DSP/FilteringFunctions/arm_conv_q15.c ****   uint32_t srcBLen,
  84:../Dave/Generated/CMSIS_DSP/FilteringFunctions/arm_conv_q15.c ****   q15_t * pDst)
  85:../Dave/Generated/CMSIS_DSP/FilteringFunctions/arm_conv_q15.c **** {
  27              	 .loc 1 85 0
  28              	 .cfi_startproc
  29              	 
  30              	 
  31              	 
  32 0000 2DE9900F 	 push {r4,r7,r8,r9,r10,fp}
  33              	.LCFI0:
  34              	 .cfi_def_cfa_offset 24
  35              	 .cfi_offset 4,-24
  36              	 .cfi_offset 7,-20
  37              	 .cfi_offset 8,-16
  38              	 .cfi_offset 9,-12
  39              	 .cfi_offset 10,-8
  40              	 .cfi_offset 11,-4
  41 0004 ADF5866D 	 sub sp,sp,#1072
  42              	.LCFI1:
  43              	 .cfi_def_cfa_offset 1096
  44 0008 00AF     	 add r7,sp,#0
  45              	.LCFI2:
  46              	 .cfi_def_cfa_register 7
  47 000a 07F14C04 	 add r4,r7,#76
  48 000e 2060     	 str r0,[r4]
  49 0010 07F14800 	 add r0,r7,#72
  50 0014 0160     	 str r1,[r0]
  51 0016 07F14401 	 add r1,r7,#68
  52 001a 0A60     	 str r2,[r1]
  53 001c 07F14002 	 add r2,r7,#64
  54 0020 1360     	 str r3,[r2]
  86:../Dave/Generated/CMSIS_DSP/FilteringFunctions/arm_conv_q15.c **** 
  87:../Dave/Generated/CMSIS_DSP/FilteringFunctions/arm_conv_q15.c **** #if (defined(ARM_MATH_CM4) || defined(ARM_MATH_CM3)) && !defined(UNALIGNED_SUPPORT_DISABLE)
  88:../Dave/Generated/CMSIS_DSP/FilteringFunctions/arm_conv_q15.c **** 
  89:../Dave/Generated/CMSIS_DSP/FilteringFunctions/arm_conv_q15.c ****   /* Run the below code for Cortex-M4 and Cortex-M3 */
  90:../Dave/Generated/CMSIS_DSP/FilteringFunctions/arm_conv_q15.c **** 
  91:../Dave/Generated/CMSIS_DSP/FilteringFunctions/arm_conv_q15.c ****   q15_t *pIn1;                                   /* inputA pointer */
  92:../Dave/Generated/CMSIS_DSP/FilteringFunctions/arm_conv_q15.c ****   q15_t *pIn2;                                   /* inputB pointer */
  93:../Dave/Generated/CMSIS_DSP/FilteringFunctions/arm_conv_q15.c ****   q15_t *pOut = pDst;                            /* output pointer */
  55              	 .loc 1 93 0
  56 0022 07F5AE72 	 add r2,r7,#348
  57 0026 D7F84834 	 ldr r3,[r7,#1096]
  58 002a 1360     	 str r3,[r2]
  94:../Dave/Generated/CMSIS_DSP/FilteringFunctions/arm_conv_q15.c ****   q63_t sum, acc0, acc1, acc2, acc3;             /* Accumulator */
  95:../Dave/Generated/CMSIS_DSP/FilteringFunctions/arm_conv_q15.c ****   q15_t *px;                                     /* Intermediate inputA pointer  */
  96:../Dave/Generated/CMSIS_DSP/FilteringFunctions/arm_conv_q15.c ****   q15_t *py;                                     /* Intermediate inputB pointer  */
  97:../Dave/Generated/CMSIS_DSP/FilteringFunctions/arm_conv_q15.c ****   q15_t *pSrc1, *pSrc2;                          /* Intermediate pointers */
  98:../Dave/Generated/CMSIS_DSP/FilteringFunctions/arm_conv_q15.c ****   q31_t x0, x1, x2, x3, c0;                      /* Temporary variables to hold state and coefficie
  99:../Dave/Generated/CMSIS_DSP/FilteringFunctions/arm_conv_q15.c ****   uint32_t blockSize1, blockSize2, blockSize3, j, k, count, blkCnt;     /* loop counter */
 100:../Dave/Generated/CMSIS_DSP/FilteringFunctions/arm_conv_q15.c **** 
 101:../Dave/Generated/CMSIS_DSP/FilteringFunctions/arm_conv_q15.c ****   /* The algorithm implementation is based on the lengths of the inputs. */
 102:../Dave/Generated/CMSIS_DSP/FilteringFunctions/arm_conv_q15.c ****   /* srcB is always made to slide across srcA. */
 103:../Dave/Generated/CMSIS_DSP/FilteringFunctions/arm_conv_q15.c ****   /* So srcBLen is always considered as shorter or equal to srcALen */
 104:../Dave/Generated/CMSIS_DSP/FilteringFunctions/arm_conv_q15.c ****   if(srcALen >= srcBLen)
  59              	 .loc 1 104 0
  60 002c 07F14802 	 add r2,r7,#72
  61 0030 07F14003 	 add r3,r7,#64
  62 0034 1268     	 ldr r2,[r2]
  63 0036 1B68     	 ldr r3,[r3]
  64 0038 9A42     	 cmp r2,r3
  65 003a 0AD3     	 bcc .L2
 105:../Dave/Generated/CMSIS_DSP/FilteringFunctions/arm_conv_q15.c ****   {
 106:../Dave/Generated/CMSIS_DSP/FilteringFunctions/arm_conv_q15.c ****     /* Initialization of inputA pointer */
 107:../Dave/Generated/CMSIS_DSP/FilteringFunctions/arm_conv_q15.c ****     pIn1 = pSrcA;
  66              	 .loc 1 107 0
  67 003c 07F14C03 	 add r3,r7,#76
  68 0040 1B68     	 ldr r3,[r3]
  69 0042 C7F82C34 	 str r3,[r7,#1068]
 108:../Dave/Generated/CMSIS_DSP/FilteringFunctions/arm_conv_q15.c **** 
 109:../Dave/Generated/CMSIS_DSP/FilteringFunctions/arm_conv_q15.c ****     /* Initialization of inputB pointer */
 110:../Dave/Generated/CMSIS_DSP/FilteringFunctions/arm_conv_q15.c ****     pIn2 = pSrcB;
  70              	 .loc 1 110 0
  71 0046 07F14403 	 add r3,r7,#68
  72 004a 1B68     	 ldr r3,[r3]
  73 004c C7F82834 	 str r3,[r7,#1064]
  74 0050 19E0     	 b .L3
  75              	.L2:
 111:../Dave/Generated/CMSIS_DSP/FilteringFunctions/arm_conv_q15.c ****   }
 112:../Dave/Generated/CMSIS_DSP/FilteringFunctions/arm_conv_q15.c ****   else
 113:../Dave/Generated/CMSIS_DSP/FilteringFunctions/arm_conv_q15.c ****   {
 114:../Dave/Generated/CMSIS_DSP/FilteringFunctions/arm_conv_q15.c ****     /* Initialization of inputA pointer */
 115:../Dave/Generated/CMSIS_DSP/FilteringFunctions/arm_conv_q15.c ****     pIn1 = pSrcB;
  76              	 .loc 1 115 0
  77 0052 07F14403 	 add r3,r7,#68
  78 0056 1B68     	 ldr r3,[r3]
  79 0058 C7F82C34 	 str r3,[r7,#1068]
 116:../Dave/Generated/CMSIS_DSP/FilteringFunctions/arm_conv_q15.c **** 
 117:../Dave/Generated/CMSIS_DSP/FilteringFunctions/arm_conv_q15.c ****     /* Initialization of inputB pointer */
 118:../Dave/Generated/CMSIS_DSP/FilteringFunctions/arm_conv_q15.c ****     pIn2 = pSrcA;
  80              	 .loc 1 118 0
  81 005c 07F14C03 	 add r3,r7,#76
  82 0060 1B68     	 ldr r3,[r3]
  83 0062 C7F82834 	 str r3,[r7,#1064]
 119:../Dave/Generated/CMSIS_DSP/FilteringFunctions/arm_conv_q15.c **** 
 120:../Dave/Generated/CMSIS_DSP/FilteringFunctions/arm_conv_q15.c ****     /* srcBLen is always considered as shorter or equal to srcALen */
 121:../Dave/Generated/CMSIS_DSP/FilteringFunctions/arm_conv_q15.c ****     j = srcBLen;
  84              	 .loc 1 121 0
  85 0066 07F14003 	 add r3,r7,#64
  86 006a 1B68     	 ldr r3,[r3]
  87 006c C7F8E833 	 str r3,[r7,#1000]
 122:../Dave/Generated/CMSIS_DSP/FilteringFunctions/arm_conv_q15.c ****     srcBLen = srcALen;
  88              	 .loc 1 122 0
  89 0070 07F14002 	 add r2,r7,#64
  90 0074 07F14803 	 add r3,r7,#72
  91 0078 1B68     	 ldr r3,[r3]
  92 007a 1360     	 str r3,[r2]
 123:../Dave/Generated/CMSIS_DSP/FilteringFunctions/arm_conv_q15.c ****     srcALen = j;
  93              	 .loc 1 123 0
  94 007c 07F14802 	 add r2,r7,#72
  95 0080 D7F8E833 	 ldr r3,[r7,#1000]
  96 0084 1360     	 str r3,[r2]
  97              	.L3:
 124:../Dave/Generated/CMSIS_DSP/FilteringFunctions/arm_conv_q15.c ****   }
 125:../Dave/Generated/CMSIS_DSP/FilteringFunctions/arm_conv_q15.c **** 
 126:../Dave/Generated/CMSIS_DSP/FilteringFunctions/arm_conv_q15.c ****   /* conv(x,y) at n = x[n] * y[0] + x[n-1] * y[1] + x[n-2] * y[2] + ...+ x[n-N+1] * y[N -1] */
 127:../Dave/Generated/CMSIS_DSP/FilteringFunctions/arm_conv_q15.c ****   /* The function is internally   
 128:../Dave/Generated/CMSIS_DSP/FilteringFunctions/arm_conv_q15.c ****    * divided into three stages according to the number of multiplications that has to be   
 129:../Dave/Generated/CMSIS_DSP/FilteringFunctions/arm_conv_q15.c ****    * taken place between inputA samples and inputB samples. In the first stage of the   
 130:../Dave/Generated/CMSIS_DSP/FilteringFunctions/arm_conv_q15.c ****    * algorithm, the multiplications increase by one for every iteration.   
 131:../Dave/Generated/CMSIS_DSP/FilteringFunctions/arm_conv_q15.c ****    * In the second stage of the algorithm, srcBLen number of multiplications are done.   
 132:../Dave/Generated/CMSIS_DSP/FilteringFunctions/arm_conv_q15.c ****    * In the third stage of the algorithm, the multiplications decrease by one   
 133:../Dave/Generated/CMSIS_DSP/FilteringFunctions/arm_conv_q15.c ****    * for every iteration. */
 134:../Dave/Generated/CMSIS_DSP/FilteringFunctions/arm_conv_q15.c **** 
 135:../Dave/Generated/CMSIS_DSP/FilteringFunctions/arm_conv_q15.c ****   /* The algorithm is implemented in three stages.   
 136:../Dave/Generated/CMSIS_DSP/FilteringFunctions/arm_conv_q15.c ****      The loop counters of each stage is initiated here. */
 137:../Dave/Generated/CMSIS_DSP/FilteringFunctions/arm_conv_q15.c ****   blockSize1 = srcBLen - 1u;
  98              	 .loc 1 137 0
  99 0086 07F14003 	 add r3,r7,#64
 100 008a 1B68     	 ldr r3,[r3]
 101 008c 013B     	 subs r3,r3,#1
 102 008e C7F8F033 	 str r3,[r7,#1008]
 138:../Dave/Generated/CMSIS_DSP/FilteringFunctions/arm_conv_q15.c ****   blockSize2 = srcALen - (srcBLen - 1u);
 103              	 .loc 1 138 0
 104 0092 07F14802 	 add r2,r7,#72
 105 0096 07F14003 	 add r3,r7,#64
 106 009a 1268     	 ldr r2,[r2]
 107 009c 1B68     	 ldr r3,[r3]
 108 009e D31A     	 subs r3,r2,r3
 109 00a0 0133     	 adds r3,r3,#1
 110 00a2 C7F8D833 	 str r3,[r7,#984]
 139:../Dave/Generated/CMSIS_DSP/FilteringFunctions/arm_conv_q15.c **** 
 140:../Dave/Generated/CMSIS_DSP/FilteringFunctions/arm_conv_q15.c ****   /* --------------------------   
 141:../Dave/Generated/CMSIS_DSP/FilteringFunctions/arm_conv_q15.c ****    * Initializations of stage1   
 142:../Dave/Generated/CMSIS_DSP/FilteringFunctions/arm_conv_q15.c ****    * -------------------------*/
 143:../Dave/Generated/CMSIS_DSP/FilteringFunctions/arm_conv_q15.c **** 
 144:../Dave/Generated/CMSIS_DSP/FilteringFunctions/arm_conv_q15.c ****   /* sum = x[0] * y[0]   
 145:../Dave/Generated/CMSIS_DSP/FilteringFunctions/arm_conv_q15.c ****    * sum = x[0] * y[1] + x[1] * y[0]   
 146:../Dave/Generated/CMSIS_DSP/FilteringFunctions/arm_conv_q15.c ****    * ....   
 147:../Dave/Generated/CMSIS_DSP/FilteringFunctions/arm_conv_q15.c ****    * sum = x[0] * y[srcBlen - 1] + x[1] * y[srcBlen - 2] +...+ x[srcBLen - 1] * y[0]   
 148:../Dave/Generated/CMSIS_DSP/FilteringFunctions/arm_conv_q15.c ****    */
 149:../Dave/Generated/CMSIS_DSP/FilteringFunctions/arm_conv_q15.c **** 
 150:../Dave/Generated/CMSIS_DSP/FilteringFunctions/arm_conv_q15.c ****   /* In this stage the MAC operations are increased by 1 for every iteration.   
 151:../Dave/Generated/CMSIS_DSP/FilteringFunctions/arm_conv_q15.c ****      The count variable holds the number of MAC operations performed */
 152:../Dave/Generated/CMSIS_DSP/FilteringFunctions/arm_conv_q15.c ****   count = 1u;
 111              	 .loc 1 152 0
 112 00a6 0123     	 movs r3,#1
 113 00a8 C7F8E033 	 str r3,[r7,#992]
 153:../Dave/Generated/CMSIS_DSP/FilteringFunctions/arm_conv_q15.c **** 
 154:../Dave/Generated/CMSIS_DSP/FilteringFunctions/arm_conv_q15.c ****   /* Working pointer of inputA */
 155:../Dave/Generated/CMSIS_DSP/FilteringFunctions/arm_conv_q15.c ****   px = pIn1;
 114              	 .loc 1 155 0
 115 00ac 07F5AC72 	 add r2,r7,#344
 116 00b0 D7F82C34 	 ldr r3,[r7,#1068]
 117 00b4 1360     	 str r3,[r2]
 156:../Dave/Generated/CMSIS_DSP/FilteringFunctions/arm_conv_q15.c **** 
 157:../Dave/Generated/CMSIS_DSP/FilteringFunctions/arm_conv_q15.c ****   /* Working pointer of inputB */
 158:../Dave/Generated/CMSIS_DSP/FilteringFunctions/arm_conv_q15.c ****   py = pIn2;
 118              	 .loc 1 158 0
 119 00b6 07F5AA72 	 add r2,r7,#340
 120 00ba D7F82834 	 ldr r3,[r7,#1064]
 121 00be 1360     	 str r3,[r2]
 159:../Dave/Generated/CMSIS_DSP/FilteringFunctions/arm_conv_q15.c **** 
 160:../Dave/Generated/CMSIS_DSP/FilteringFunctions/arm_conv_q15.c **** 
 161:../Dave/Generated/CMSIS_DSP/FilteringFunctions/arm_conv_q15.c ****   /* ------------------------   
 162:../Dave/Generated/CMSIS_DSP/FilteringFunctions/arm_conv_q15.c ****    * Stage1 process   
 163:../Dave/Generated/CMSIS_DSP/FilteringFunctions/arm_conv_q15.c ****    * ----------------------*/
 164:../Dave/Generated/CMSIS_DSP/FilteringFunctions/arm_conv_q15.c **** 
 165:../Dave/Generated/CMSIS_DSP/FilteringFunctions/arm_conv_q15.c ****   /* For loop unrolling by 4, this stage is divided into two. */
 166:../Dave/Generated/CMSIS_DSP/FilteringFunctions/arm_conv_q15.c ****   /* First part of this stage computes the MAC operations less than 4 */
 167:../Dave/Generated/CMSIS_DSP/FilteringFunctions/arm_conv_q15.c ****   /* Second part of this stage computes the MAC operations greater than or equal to 4 */
 168:../Dave/Generated/CMSIS_DSP/FilteringFunctions/arm_conv_q15.c **** 
 169:../Dave/Generated/CMSIS_DSP/FilteringFunctions/arm_conv_q15.c ****   /* The first part of the stage starts here */
 170:../Dave/Generated/CMSIS_DSP/FilteringFunctions/arm_conv_q15.c ****   while((count < 4u) && (blockSize1 > 0u))
 122              	 .loc 1 170 0
 123 00c0 8BE0     	 b .L4
 124              	.L9:
 171:../Dave/Generated/CMSIS_DSP/FilteringFunctions/arm_conv_q15.c ****   {
 172:../Dave/Generated/CMSIS_DSP/FilteringFunctions/arm_conv_q15.c ****     /* Accumulator is made zero for every iteration */
 173:../Dave/Generated/CMSIS_DSP/FilteringFunctions/arm_conv_q15.c ****     sum = 0;
 125              	 .loc 1 173 0
 126 00c2 4FF00002 	 mov r2,#0
 127 00c6 4FF00003 	 mov r3,#0
 128 00ca 07F58461 	 add r1,r7,#1056
 129 00ce C1E90023 	 strd r2,[r1]
 174:../Dave/Generated/CMSIS_DSP/FilteringFunctions/arm_conv_q15.c **** 
 175:../Dave/Generated/CMSIS_DSP/FilteringFunctions/arm_conv_q15.c ****     /* Loop over number of MAC operations between   
 176:../Dave/Generated/CMSIS_DSP/FilteringFunctions/arm_conv_q15.c ****      * inputA samples and inputB samples */
 177:../Dave/Generated/CMSIS_DSP/FilteringFunctions/arm_conv_q15.c ****     k = count;
 130              	 .loc 1 177 0
 131 00d2 D7F8E033 	 ldr r3,[r7,#992]
 132 00d6 C7F8E433 	 str r3,[r7,#996]
 178:../Dave/Generated/CMSIS_DSP/FilteringFunctions/arm_conv_q15.c **** 
 179:../Dave/Generated/CMSIS_DSP/FilteringFunctions/arm_conv_q15.c ****     while(k > 0u)
 133              	 .loc 1 179 0
 134 00da 44E0     	 b .L5
 135              	.L7:
 180:../Dave/Generated/CMSIS_DSP/FilteringFunctions/arm_conv_q15.c ****     {
 181:../Dave/Generated/CMSIS_DSP/FilteringFunctions/arm_conv_q15.c ****       /* Perform the multiply-accumulates */
 182:../Dave/Generated/CMSIS_DSP/FilteringFunctions/arm_conv_q15.c ****       sum = __SMLALD(*px++, *py--, sum);
 136              	 .loc 1 182 0
 137 00dc 07F5AC73 	 add r3,r7,#344
 138 00e0 1968     	 ldr r1,[r3]
 139 00e2 8A1C     	 adds r2,r1,#2
 140 00e4 07F5AC73 	 add r3,r7,#344
 141 00e8 1A60     	 str r2,[r3]
 142 00ea 0B88     	 ldrh r3,[r1]
 143 00ec 18B2     	 sxth r0,r3
 144 00ee 07F5AA73 	 add r3,r7,#340
 145 00f2 1968     	 ldr r1,[r3]
 146 00f4 8A1E     	 subs r2,r1,#2
 147 00f6 07F5AA73 	 add r3,r7,#340
 148 00fa 1A60     	 str r2,[r3]
 149 00fc 0B88     	 ldrh r3,[r1]
 150 00fe 19B2     	 sxth r1,r3
 151 0100 07F58463 	 add r3,r7,#1056
 152 0104 D3E90023 	 ldrd r2,[r3]
 153 0108 C7F85C03 	 str r0,[r7,#860]
 154 010c C7F85813 	 str r1,[r7,#856]
 155 0110 07F55471 	 add r1,r7,#848
 156 0114 C1E90023 	 strd r2,[r1]
 157              	.LBB78:
 158              	.LBB79:
 159              	 .file 2 "C:\\Users\\Depes Crystalline\\Desktop\\school\\Active_Bike_Lighting_System\\Radar_Core/Libraries/CMSIS/Include/core_cmSimd.h"
   1:C:\Users\Depes Crystalline\Desktop\school\Active_Bike_Lighting_System\Radar_Core/Libraries/CMSIS/Include\core_cmSimd.h **** /**************************************************************************//**
   2:C:\Users\Depes Crystalline\Desktop\school\Active_Bike_Lighting_System\Radar_Core/Libraries/CMSIS/Include\core_cmSimd.h ****  * @file     core_cmSimd.h
   3:C:\Users\Depes Crystalline\Desktop\school\Active_Bike_Lighting_System\Radar_Core/Libraries/CMSIS/Include\core_cmSimd.h ****  * @brief    CMSIS Cortex-M SIMD Header File
   4:C:\Users\Depes Crystalline\Desktop\school\Active_Bike_Lighting_System\Radar_Core/Libraries/CMSIS/Include\core_cmSimd.h ****  * @version  V4.00
   5:C:\Users\Depes Crystalline\Desktop\school\Active_Bike_Lighting_System\Radar_Core/Libraries/CMSIS/Include\core_cmSimd.h ****  * @date     22. August 2014
   6:C:\Users\Depes Crystalline\Desktop\school\Active_Bike_Lighting_System\Radar_Core/Libraries/CMSIS/Include\core_cmSimd.h ****  *
   7:C:\Users\Depes Crystalline\Desktop\school\Active_Bike_Lighting_System\Radar_Core/Libraries/CMSIS/Include\core_cmSimd.h ****  * @note
   8:C:\Users\Depes Crystalline\Desktop\school\Active_Bike_Lighting_System\Radar_Core/Libraries/CMSIS/Include\core_cmSimd.h ****  *
   9:C:\Users\Depes Crystalline\Desktop\school\Active_Bike_Lighting_System\Radar_Core/Libraries/CMSIS/Include\core_cmSimd.h ****  ******************************************************************************/
  10:C:\Users\Depes Crystalline\Desktop\school\Active_Bike_Lighting_System\Radar_Core/Libraries/CMSIS/Include\core_cmSimd.h **** /* Copyright (c) 2009 - 2014 ARM LIMITED
  11:C:\Users\Depes Crystalline\Desktop\school\Active_Bike_Lighting_System\Radar_Core/Libraries/CMSIS/Include\core_cmSimd.h **** 
  12:C:\Users\Depes Crystalline\Desktop\school\Active_Bike_Lighting_System\Radar_Core/Libraries/CMSIS/Include\core_cmSimd.h ****    All rights reserved.
  13:C:\Users\Depes Crystalline\Desktop\school\Active_Bike_Lighting_System\Radar_Core/Libraries/CMSIS/Include\core_cmSimd.h ****    Redistribution and use in source and binary forms, with or without
  14:C:\Users\Depes Crystalline\Desktop\school\Active_Bike_Lighting_System\Radar_Core/Libraries/CMSIS/Include\core_cmSimd.h ****    modification, are permitted provided that the following conditions are met:
  15:C:\Users\Depes Crystalline\Desktop\school\Active_Bike_Lighting_System\Radar_Core/Libraries/CMSIS/Include\core_cmSimd.h ****    - Redistributions of source code must retain the above copyright
  16:C:\Users\Depes Crystalline\Desktop\school\Active_Bike_Lighting_System\Radar_Core/Libraries/CMSIS/Include\core_cmSimd.h ****      notice, this list of conditions and the following disclaimer.
  17:C:\Users\Depes Crystalline\Desktop\school\Active_Bike_Lighting_System\Radar_Core/Libraries/CMSIS/Include\core_cmSimd.h ****    - Redistributions in binary form must reproduce the above copyright
  18:C:\Users\Depes Crystalline\Desktop\school\Active_Bike_Lighting_System\Radar_Core/Libraries/CMSIS/Include\core_cmSimd.h ****      notice, this list of conditions and the following disclaimer in the
  19:C:\Users\Depes Crystalline\Desktop\school\Active_Bike_Lighting_System\Radar_Core/Libraries/CMSIS/Include\core_cmSimd.h ****      documentation and/or other materials provided with the distribution.
  20:C:\Users\Depes Crystalline\Desktop\school\Active_Bike_Lighting_System\Radar_Core/Libraries/CMSIS/Include\core_cmSimd.h ****    - Neither the name of ARM nor the names of its contributors may be used
  21:C:\Users\Depes Crystalline\Desktop\school\Active_Bike_Lighting_System\Radar_Core/Libraries/CMSIS/Include\core_cmSimd.h ****      to endorse or promote products derived from this software without
  22:C:\Users\Depes Crystalline\Desktop\school\Active_Bike_Lighting_System\Radar_Core/Libraries/CMSIS/Include\core_cmSimd.h ****      specific prior written permission.
  23:C:\Users\Depes Crystalline\Desktop\school\Active_Bike_Lighting_System\Radar_Core/Libraries/CMSIS/Include\core_cmSimd.h ****    *
  24:C:\Users\Depes Crystalline\Desktop\school\Active_Bike_Lighting_System\Radar_Core/Libraries/CMSIS/Include\core_cmSimd.h ****    THIS SOFTWARE IS PROVIDED BY THE COPYRIGHT HOLDERS AND CONTRIBUTORS "AS IS"
  25:C:\Users\Depes Crystalline\Desktop\school\Active_Bike_Lighting_System\Radar_Core/Libraries/CMSIS/Include\core_cmSimd.h ****    AND ANY EXPRESS OR IMPLIED WARRANTIES, INCLUDING, BUT NOT LIMITED TO, THE
  26:C:\Users\Depes Crystalline\Desktop\school\Active_Bike_Lighting_System\Radar_Core/Libraries/CMSIS/Include\core_cmSimd.h ****    IMPLIED WARRANTIES OF MERCHANTABILITY AND FITNESS FOR A PARTICULAR PURPOSE
  27:C:\Users\Depes Crystalline\Desktop\school\Active_Bike_Lighting_System\Radar_Core/Libraries/CMSIS/Include\core_cmSimd.h ****    ARE DISCLAIMED. IN NO EVENT SHALL COPYRIGHT HOLDERS AND CONTRIBUTORS BE
  28:C:\Users\Depes Crystalline\Desktop\school\Active_Bike_Lighting_System\Radar_Core/Libraries/CMSIS/Include\core_cmSimd.h ****    LIABLE FOR ANY DIRECT, INDIRECT, INCIDENTAL, SPECIAL, EXEMPLARY, OR
  29:C:\Users\Depes Crystalline\Desktop\school\Active_Bike_Lighting_System\Radar_Core/Libraries/CMSIS/Include\core_cmSimd.h ****    CONSEQUENTIAL DAMAGES (INCLUDING, BUT NOT LIMITED TO, PROCUREMENT OF
  30:C:\Users\Depes Crystalline\Desktop\school\Active_Bike_Lighting_System\Radar_Core/Libraries/CMSIS/Include\core_cmSimd.h ****    SUBSTITUTE GOODS OR SERVICES; LOSS OF USE, DATA, OR PROFITS; OR BUSINESS
  31:C:\Users\Depes Crystalline\Desktop\school\Active_Bike_Lighting_System\Radar_Core/Libraries/CMSIS/Include\core_cmSimd.h ****    INTERRUPTION) HOWEVER CAUSED AND ON ANY THEORY OF LIABILITY, WHETHER IN
  32:C:\Users\Depes Crystalline\Desktop\school\Active_Bike_Lighting_System\Radar_Core/Libraries/CMSIS/Include\core_cmSimd.h ****    CONTRACT, STRICT LIABILITY, OR TORT (INCLUDING NEGLIGENCE OR OTHERWISE)
  33:C:\Users\Depes Crystalline\Desktop\school\Active_Bike_Lighting_System\Radar_Core/Libraries/CMSIS/Include\core_cmSimd.h ****    ARISING IN ANY WAY OUT OF THE USE OF THIS SOFTWARE, EVEN IF ADVISED OF THE
  34:C:\Users\Depes Crystalline\Desktop\school\Active_Bike_Lighting_System\Radar_Core/Libraries/CMSIS/Include\core_cmSimd.h ****    POSSIBILITY OF SUCH DAMAGE.
  35:C:\Users\Depes Crystalline\Desktop\school\Active_Bike_Lighting_System\Radar_Core/Libraries/CMSIS/Include\core_cmSimd.h ****    ---------------------------------------------------------------------------*/
  36:C:\Users\Depes Crystalline\Desktop\school\Active_Bike_Lighting_System\Radar_Core/Libraries/CMSIS/Include\core_cmSimd.h **** 
  37:C:\Users\Depes Crystalline\Desktop\school\Active_Bike_Lighting_System\Radar_Core/Libraries/CMSIS/Include\core_cmSimd.h **** 
  38:C:\Users\Depes Crystalline\Desktop\school\Active_Bike_Lighting_System\Radar_Core/Libraries/CMSIS/Include\core_cmSimd.h **** #if defined ( __ICCARM__ )
  39:C:\Users\Depes Crystalline\Desktop\school\Active_Bike_Lighting_System\Radar_Core/Libraries/CMSIS/Include\core_cmSimd.h ****  #pragma system_include  /* treat file as system include file for MISRA check */
  40:C:\Users\Depes Crystalline\Desktop\school\Active_Bike_Lighting_System\Radar_Core/Libraries/CMSIS/Include\core_cmSimd.h **** #endif
  41:C:\Users\Depes Crystalline\Desktop\school\Active_Bike_Lighting_System\Radar_Core/Libraries/CMSIS/Include\core_cmSimd.h **** 
  42:C:\Users\Depes Crystalline\Desktop\school\Active_Bike_Lighting_System\Radar_Core/Libraries/CMSIS/Include\core_cmSimd.h **** #ifndef __CORE_CMSIMD_H
  43:C:\Users\Depes Crystalline\Desktop\school\Active_Bike_Lighting_System\Radar_Core/Libraries/CMSIS/Include\core_cmSimd.h **** #define __CORE_CMSIMD_H
  44:C:\Users\Depes Crystalline\Desktop\school\Active_Bike_Lighting_System\Radar_Core/Libraries/CMSIS/Include\core_cmSimd.h **** 
  45:C:\Users\Depes Crystalline\Desktop\school\Active_Bike_Lighting_System\Radar_Core/Libraries/CMSIS/Include\core_cmSimd.h **** #ifdef __cplusplus
  46:C:\Users\Depes Crystalline\Desktop\school\Active_Bike_Lighting_System\Radar_Core/Libraries/CMSIS/Include\core_cmSimd.h ****  extern "C" {
  47:C:\Users\Depes Crystalline\Desktop\school\Active_Bike_Lighting_System\Radar_Core/Libraries/CMSIS/Include\core_cmSimd.h **** #endif
  48:C:\Users\Depes Crystalline\Desktop\school\Active_Bike_Lighting_System\Radar_Core/Libraries/CMSIS/Include\core_cmSimd.h **** 
  49:C:\Users\Depes Crystalline\Desktop\school\Active_Bike_Lighting_System\Radar_Core/Libraries/CMSIS/Include\core_cmSimd.h **** 
  50:C:\Users\Depes Crystalline\Desktop\school\Active_Bike_Lighting_System\Radar_Core/Libraries/CMSIS/Include\core_cmSimd.h **** /*******************************************************************************
  51:C:\Users\Depes Crystalline\Desktop\school\Active_Bike_Lighting_System\Radar_Core/Libraries/CMSIS/Include\core_cmSimd.h ****  *                Hardware Abstraction Layer
  52:C:\Users\Depes Crystalline\Desktop\school\Active_Bike_Lighting_System\Radar_Core/Libraries/CMSIS/Include\core_cmSimd.h ****  ******************************************************************************/
  53:C:\Users\Depes Crystalline\Desktop\school\Active_Bike_Lighting_System\Radar_Core/Libraries/CMSIS/Include\core_cmSimd.h **** 
  54:C:\Users\Depes Crystalline\Desktop\school\Active_Bike_Lighting_System\Radar_Core/Libraries/CMSIS/Include\core_cmSimd.h **** 
  55:C:\Users\Depes Crystalline\Desktop\school\Active_Bike_Lighting_System\Radar_Core/Libraries/CMSIS/Include\core_cmSimd.h **** /* ###################  Compiler specific Intrinsics  ########################### */
  56:C:\Users\Depes Crystalline\Desktop\school\Active_Bike_Lighting_System\Radar_Core/Libraries/CMSIS/Include\core_cmSimd.h **** /** \defgroup CMSIS_SIMD_intrinsics CMSIS SIMD Intrinsics
  57:C:\Users\Depes Crystalline\Desktop\school\Active_Bike_Lighting_System\Radar_Core/Libraries/CMSIS/Include\core_cmSimd.h ****   Access to dedicated SIMD instructions
  58:C:\Users\Depes Crystalline\Desktop\school\Active_Bike_Lighting_System\Radar_Core/Libraries/CMSIS/Include\core_cmSimd.h ****   @{
  59:C:\Users\Depes Crystalline\Desktop\school\Active_Bike_Lighting_System\Radar_Core/Libraries/CMSIS/Include\core_cmSimd.h **** */
  60:C:\Users\Depes Crystalline\Desktop\school\Active_Bike_Lighting_System\Radar_Core/Libraries/CMSIS/Include\core_cmSimd.h **** 
  61:C:\Users\Depes Crystalline\Desktop\school\Active_Bike_Lighting_System\Radar_Core/Libraries/CMSIS/Include\core_cmSimd.h **** #if   defined ( __CC_ARM ) /*------------------RealView Compiler -----------------*/
  62:C:\Users\Depes Crystalline\Desktop\school\Active_Bike_Lighting_System\Radar_Core/Libraries/CMSIS/Include\core_cmSimd.h **** /* ARM armcc specific functions */
  63:C:\Users\Depes Crystalline\Desktop\school\Active_Bike_Lighting_System\Radar_Core/Libraries/CMSIS/Include\core_cmSimd.h **** #define __SADD8                           __sadd8
  64:C:\Users\Depes Crystalline\Desktop\school\Active_Bike_Lighting_System\Radar_Core/Libraries/CMSIS/Include\core_cmSimd.h **** #define __QADD8                           __qadd8
  65:C:\Users\Depes Crystalline\Desktop\school\Active_Bike_Lighting_System\Radar_Core/Libraries/CMSIS/Include\core_cmSimd.h **** #define __SHADD8                          __shadd8
  66:C:\Users\Depes Crystalline\Desktop\school\Active_Bike_Lighting_System\Radar_Core/Libraries/CMSIS/Include\core_cmSimd.h **** #define __UADD8                           __uadd8
  67:C:\Users\Depes Crystalline\Desktop\school\Active_Bike_Lighting_System\Radar_Core/Libraries/CMSIS/Include\core_cmSimd.h **** #define __UQADD8                          __uqadd8
  68:C:\Users\Depes Crystalline\Desktop\school\Active_Bike_Lighting_System\Radar_Core/Libraries/CMSIS/Include\core_cmSimd.h **** #define __UHADD8                          __uhadd8
  69:C:\Users\Depes Crystalline\Desktop\school\Active_Bike_Lighting_System\Radar_Core/Libraries/CMSIS/Include\core_cmSimd.h **** #define __SSUB8                           __ssub8
  70:C:\Users\Depes Crystalline\Desktop\school\Active_Bike_Lighting_System\Radar_Core/Libraries/CMSIS/Include\core_cmSimd.h **** #define __QSUB8                           __qsub8
  71:C:\Users\Depes Crystalline\Desktop\school\Active_Bike_Lighting_System\Radar_Core/Libraries/CMSIS/Include\core_cmSimd.h **** #define __SHSUB8                          __shsub8
  72:C:\Users\Depes Crystalline\Desktop\school\Active_Bike_Lighting_System\Radar_Core/Libraries/CMSIS/Include\core_cmSimd.h **** #define __USUB8                           __usub8
  73:C:\Users\Depes Crystalline\Desktop\school\Active_Bike_Lighting_System\Radar_Core/Libraries/CMSIS/Include\core_cmSimd.h **** #define __UQSUB8                          __uqsub8
  74:C:\Users\Depes Crystalline\Desktop\school\Active_Bike_Lighting_System\Radar_Core/Libraries/CMSIS/Include\core_cmSimd.h **** #define __UHSUB8                          __uhsub8
  75:C:\Users\Depes Crystalline\Desktop\school\Active_Bike_Lighting_System\Radar_Core/Libraries/CMSIS/Include\core_cmSimd.h **** #define __SADD16                          __sadd16
  76:C:\Users\Depes Crystalline\Desktop\school\Active_Bike_Lighting_System\Radar_Core/Libraries/CMSIS/Include\core_cmSimd.h **** #define __QADD16                          __qadd16
  77:C:\Users\Depes Crystalline\Desktop\school\Active_Bike_Lighting_System\Radar_Core/Libraries/CMSIS/Include\core_cmSimd.h **** #define __SHADD16                         __shadd16
  78:C:\Users\Depes Crystalline\Desktop\school\Active_Bike_Lighting_System\Radar_Core/Libraries/CMSIS/Include\core_cmSimd.h **** #define __UADD16                          __uadd16
  79:C:\Users\Depes Crystalline\Desktop\school\Active_Bike_Lighting_System\Radar_Core/Libraries/CMSIS/Include\core_cmSimd.h **** #define __UQADD16                         __uqadd16
  80:C:\Users\Depes Crystalline\Desktop\school\Active_Bike_Lighting_System\Radar_Core/Libraries/CMSIS/Include\core_cmSimd.h **** #define __UHADD16                         __uhadd16
  81:C:\Users\Depes Crystalline\Desktop\school\Active_Bike_Lighting_System\Radar_Core/Libraries/CMSIS/Include\core_cmSimd.h **** #define __SSUB16                          __ssub16
  82:C:\Users\Depes Crystalline\Desktop\school\Active_Bike_Lighting_System\Radar_Core/Libraries/CMSIS/Include\core_cmSimd.h **** #define __QSUB16                          __qsub16
  83:C:\Users\Depes Crystalline\Desktop\school\Active_Bike_Lighting_System\Radar_Core/Libraries/CMSIS/Include\core_cmSimd.h **** #define __SHSUB16                         __shsub16
  84:C:\Users\Depes Crystalline\Desktop\school\Active_Bike_Lighting_System\Radar_Core/Libraries/CMSIS/Include\core_cmSimd.h **** #define __USUB16                          __usub16
  85:C:\Users\Depes Crystalline\Desktop\school\Active_Bike_Lighting_System\Radar_Core/Libraries/CMSIS/Include\core_cmSimd.h **** #define __UQSUB16                         __uqsub16
  86:C:\Users\Depes Crystalline\Desktop\school\Active_Bike_Lighting_System\Radar_Core/Libraries/CMSIS/Include\core_cmSimd.h **** #define __UHSUB16                         __uhsub16
  87:C:\Users\Depes Crystalline\Desktop\school\Active_Bike_Lighting_System\Radar_Core/Libraries/CMSIS/Include\core_cmSimd.h **** #define __SASX                            __sasx
  88:C:\Users\Depes Crystalline\Desktop\school\Active_Bike_Lighting_System\Radar_Core/Libraries/CMSIS/Include\core_cmSimd.h **** #define __QASX                            __qasx
  89:C:\Users\Depes Crystalline\Desktop\school\Active_Bike_Lighting_System\Radar_Core/Libraries/CMSIS/Include\core_cmSimd.h **** #define __SHASX                           __shasx
  90:C:\Users\Depes Crystalline\Desktop\school\Active_Bike_Lighting_System\Radar_Core/Libraries/CMSIS/Include\core_cmSimd.h **** #define __UASX                            __uasx
  91:C:\Users\Depes Crystalline\Desktop\school\Active_Bike_Lighting_System\Radar_Core/Libraries/CMSIS/Include\core_cmSimd.h **** #define __UQASX                           __uqasx
  92:C:\Users\Depes Crystalline\Desktop\school\Active_Bike_Lighting_System\Radar_Core/Libraries/CMSIS/Include\core_cmSimd.h **** #define __UHASX                           __uhasx
  93:C:\Users\Depes Crystalline\Desktop\school\Active_Bike_Lighting_System\Radar_Core/Libraries/CMSIS/Include\core_cmSimd.h **** #define __SSAX                            __ssax
  94:C:\Users\Depes Crystalline\Desktop\school\Active_Bike_Lighting_System\Radar_Core/Libraries/CMSIS/Include\core_cmSimd.h **** #define __QSAX                            __qsax
  95:C:\Users\Depes Crystalline\Desktop\school\Active_Bike_Lighting_System\Radar_Core/Libraries/CMSIS/Include\core_cmSimd.h **** #define __SHSAX                           __shsax
  96:C:\Users\Depes Crystalline\Desktop\school\Active_Bike_Lighting_System\Radar_Core/Libraries/CMSIS/Include\core_cmSimd.h **** #define __USAX                            __usax
  97:C:\Users\Depes Crystalline\Desktop\school\Active_Bike_Lighting_System\Radar_Core/Libraries/CMSIS/Include\core_cmSimd.h **** #define __UQSAX                           __uqsax
  98:C:\Users\Depes Crystalline\Desktop\school\Active_Bike_Lighting_System\Radar_Core/Libraries/CMSIS/Include\core_cmSimd.h **** #define __UHSAX                           __uhsax
  99:C:\Users\Depes Crystalline\Desktop\school\Active_Bike_Lighting_System\Radar_Core/Libraries/CMSIS/Include\core_cmSimd.h **** #define __USAD8                           __usad8
 100:C:\Users\Depes Crystalline\Desktop\school\Active_Bike_Lighting_System\Radar_Core/Libraries/CMSIS/Include\core_cmSimd.h **** #define __USADA8                          __usada8
 101:C:\Users\Depes Crystalline\Desktop\school\Active_Bike_Lighting_System\Radar_Core/Libraries/CMSIS/Include\core_cmSimd.h **** #define __SSAT16                          __ssat16
 102:C:\Users\Depes Crystalline\Desktop\school\Active_Bike_Lighting_System\Radar_Core/Libraries/CMSIS/Include\core_cmSimd.h **** #define __USAT16                          __usat16
 103:C:\Users\Depes Crystalline\Desktop\school\Active_Bike_Lighting_System\Radar_Core/Libraries/CMSIS/Include\core_cmSimd.h **** #define __UXTB16                          __uxtb16
 104:C:\Users\Depes Crystalline\Desktop\school\Active_Bike_Lighting_System\Radar_Core/Libraries/CMSIS/Include\core_cmSimd.h **** #define __UXTAB16                         __uxtab16
 105:C:\Users\Depes Crystalline\Desktop\school\Active_Bike_Lighting_System\Radar_Core/Libraries/CMSIS/Include\core_cmSimd.h **** #define __SXTB16                          __sxtb16
 106:C:\Users\Depes Crystalline\Desktop\school\Active_Bike_Lighting_System\Radar_Core/Libraries/CMSIS/Include\core_cmSimd.h **** #define __SXTAB16                         __sxtab16
 107:C:\Users\Depes Crystalline\Desktop\school\Active_Bike_Lighting_System\Radar_Core/Libraries/CMSIS/Include\core_cmSimd.h **** #define __SMUAD                           __smuad
 108:C:\Users\Depes Crystalline\Desktop\school\Active_Bike_Lighting_System\Radar_Core/Libraries/CMSIS/Include\core_cmSimd.h **** #define __SMUADX                          __smuadx
 109:C:\Users\Depes Crystalline\Desktop\school\Active_Bike_Lighting_System\Radar_Core/Libraries/CMSIS/Include\core_cmSimd.h **** #define __SMLAD                           __smlad
 110:C:\Users\Depes Crystalline\Desktop\school\Active_Bike_Lighting_System\Radar_Core/Libraries/CMSIS/Include\core_cmSimd.h **** #define __SMLADX                          __smladx
 111:C:\Users\Depes Crystalline\Desktop\school\Active_Bike_Lighting_System\Radar_Core/Libraries/CMSIS/Include\core_cmSimd.h **** #define __SMLALD                          __smlald
 112:C:\Users\Depes Crystalline\Desktop\school\Active_Bike_Lighting_System\Radar_Core/Libraries/CMSIS/Include\core_cmSimd.h **** #define __SMLALDX                         __smlaldx
 113:C:\Users\Depes Crystalline\Desktop\school\Active_Bike_Lighting_System\Radar_Core/Libraries/CMSIS/Include\core_cmSimd.h **** #define __SMUSD                           __smusd
 114:C:\Users\Depes Crystalline\Desktop\school\Active_Bike_Lighting_System\Radar_Core/Libraries/CMSIS/Include\core_cmSimd.h **** #define __SMUSDX                          __smusdx
 115:C:\Users\Depes Crystalline\Desktop\school\Active_Bike_Lighting_System\Radar_Core/Libraries/CMSIS/Include\core_cmSimd.h **** #define __SMLSD                           __smlsd
 116:C:\Users\Depes Crystalline\Desktop\school\Active_Bike_Lighting_System\Radar_Core/Libraries/CMSIS/Include\core_cmSimd.h **** #define __SMLSDX                          __smlsdx
 117:C:\Users\Depes Crystalline\Desktop\school\Active_Bike_Lighting_System\Radar_Core/Libraries/CMSIS/Include\core_cmSimd.h **** #define __SMLSLD                          __smlsld
 118:C:\Users\Depes Crystalline\Desktop\school\Active_Bike_Lighting_System\Radar_Core/Libraries/CMSIS/Include\core_cmSimd.h **** #define __SMLSLDX                         __smlsldx
 119:C:\Users\Depes Crystalline\Desktop\school\Active_Bike_Lighting_System\Radar_Core/Libraries/CMSIS/Include\core_cmSimd.h **** #define __SEL                             __sel
 120:C:\Users\Depes Crystalline\Desktop\school\Active_Bike_Lighting_System\Radar_Core/Libraries/CMSIS/Include\core_cmSimd.h **** #define __QADD                            __qadd
 121:C:\Users\Depes Crystalline\Desktop\school\Active_Bike_Lighting_System\Radar_Core/Libraries/CMSIS/Include\core_cmSimd.h **** #define __QSUB                            __qsub
 122:C:\Users\Depes Crystalline\Desktop\school\Active_Bike_Lighting_System\Radar_Core/Libraries/CMSIS/Include\core_cmSimd.h **** 
 123:C:\Users\Depes Crystalline\Desktop\school\Active_Bike_Lighting_System\Radar_Core/Libraries/CMSIS/Include\core_cmSimd.h **** #define __PKHBT(ARG1,ARG2,ARG3)          ( ((((uint32_t)(ARG1))          ) & 0x0000FFFFUL) |  \
 124:C:\Users\Depes Crystalline\Desktop\school\Active_Bike_Lighting_System\Radar_Core/Libraries/CMSIS/Include\core_cmSimd.h ****                                            ((((uint32_t)(ARG2)) << (ARG3)) & 0xFFFF0000UL)  )
 125:C:\Users\Depes Crystalline\Desktop\school\Active_Bike_Lighting_System\Radar_Core/Libraries/CMSIS/Include\core_cmSimd.h **** 
 126:C:\Users\Depes Crystalline\Desktop\school\Active_Bike_Lighting_System\Radar_Core/Libraries/CMSIS/Include\core_cmSimd.h **** #define __PKHTB(ARG1,ARG2,ARG3)          ( ((((uint32_t)(ARG1))          ) & 0xFFFF0000UL) |  \
 127:C:\Users\Depes Crystalline\Desktop\school\Active_Bike_Lighting_System\Radar_Core/Libraries/CMSIS/Include\core_cmSimd.h ****                                            ((((uint32_t)(ARG2)) >> (ARG3)) & 0x0000FFFFUL)  )
 128:C:\Users\Depes Crystalline\Desktop\school\Active_Bike_Lighting_System\Radar_Core/Libraries/CMSIS/Include\core_cmSimd.h **** 
 129:C:\Users\Depes Crystalline\Desktop\school\Active_Bike_Lighting_System\Radar_Core/Libraries/CMSIS/Include\core_cmSimd.h **** #define __SMMLA(ARG1,ARG2,ARG3)          ( (int32_t)((((int64_t)(ARG1) * (ARG2)) + \
 130:C:\Users\Depes Crystalline\Desktop\school\Active_Bike_Lighting_System\Radar_Core/Libraries/CMSIS/Include\core_cmSimd.h ****                                                       ((int64_t)(ARG3) << 32)      ) >> 32))
 131:C:\Users\Depes Crystalline\Desktop\school\Active_Bike_Lighting_System\Radar_Core/Libraries/CMSIS/Include\core_cmSimd.h **** 
 132:C:\Users\Depes Crystalline\Desktop\school\Active_Bike_Lighting_System\Radar_Core/Libraries/CMSIS/Include\core_cmSimd.h **** 
 133:C:\Users\Depes Crystalline\Desktop\school\Active_Bike_Lighting_System\Radar_Core/Libraries/CMSIS/Include\core_cmSimd.h **** #elif defined ( __GNUC__ ) /*------------------ GNU Compiler ---------------------*/
 134:C:\Users\Depes Crystalline\Desktop\school\Active_Bike_Lighting_System\Radar_Core/Libraries/CMSIS/Include\core_cmSimd.h **** /* GNU gcc specific functions */
 135:C:\Users\Depes Crystalline\Desktop\school\Active_Bike_Lighting_System\Radar_Core/Libraries/CMSIS/Include\core_cmSimd.h **** __attribute__( ( always_inline ) ) __STATIC_INLINE uint32_t __SADD8(uint32_t op1, uint32_t op2)
 136:C:\Users\Depes Crystalline\Desktop\school\Active_Bike_Lighting_System\Radar_Core/Libraries/CMSIS/Include\core_cmSimd.h **** {
 137:C:\Users\Depes Crystalline\Desktop\school\Active_Bike_Lighting_System\Radar_Core/Libraries/CMSIS/Include\core_cmSimd.h ****   uint32_t result;
 138:C:\Users\Depes Crystalline\Desktop\school\Active_Bike_Lighting_System\Radar_Core/Libraries/CMSIS/Include\core_cmSimd.h **** 
 139:C:\Users\Depes Crystalline\Desktop\school\Active_Bike_Lighting_System\Radar_Core/Libraries/CMSIS/Include\core_cmSimd.h ****   __ASM volatile ("sadd8 %0, %1, %2" : "=r" (result) : "r" (op1), "r" (op2) );
 140:C:\Users\Depes Crystalline\Desktop\school\Active_Bike_Lighting_System\Radar_Core/Libraries/CMSIS/Include\core_cmSimd.h ****   return(result);
 141:C:\Users\Depes Crystalline\Desktop\school\Active_Bike_Lighting_System\Radar_Core/Libraries/CMSIS/Include\core_cmSimd.h **** }
 142:C:\Users\Depes Crystalline\Desktop\school\Active_Bike_Lighting_System\Radar_Core/Libraries/CMSIS/Include\core_cmSimd.h **** 
 143:C:\Users\Depes Crystalline\Desktop\school\Active_Bike_Lighting_System\Radar_Core/Libraries/CMSIS/Include\core_cmSimd.h **** __attribute__( ( always_inline ) ) __STATIC_INLINE uint32_t __QADD8(uint32_t op1, uint32_t op2)
 144:C:\Users\Depes Crystalline\Desktop\school\Active_Bike_Lighting_System\Radar_Core/Libraries/CMSIS/Include\core_cmSimd.h **** {
 145:C:\Users\Depes Crystalline\Desktop\school\Active_Bike_Lighting_System\Radar_Core/Libraries/CMSIS/Include\core_cmSimd.h ****   uint32_t result;
 146:C:\Users\Depes Crystalline\Desktop\school\Active_Bike_Lighting_System\Radar_Core/Libraries/CMSIS/Include\core_cmSimd.h **** 
 147:C:\Users\Depes Crystalline\Desktop\school\Active_Bike_Lighting_System\Radar_Core/Libraries/CMSIS/Include\core_cmSimd.h ****   __ASM volatile ("qadd8 %0, %1, %2" : "=r" (result) : "r" (op1), "r" (op2) );
 148:C:\Users\Depes Crystalline\Desktop\school\Active_Bike_Lighting_System\Radar_Core/Libraries/CMSIS/Include\core_cmSimd.h ****   return(result);
 149:C:\Users\Depes Crystalline\Desktop\school\Active_Bike_Lighting_System\Radar_Core/Libraries/CMSIS/Include\core_cmSimd.h **** }
 150:C:\Users\Depes Crystalline\Desktop\school\Active_Bike_Lighting_System\Radar_Core/Libraries/CMSIS/Include\core_cmSimd.h **** 
 151:C:\Users\Depes Crystalline\Desktop\school\Active_Bike_Lighting_System\Radar_Core/Libraries/CMSIS/Include\core_cmSimd.h **** __attribute__( ( always_inline ) ) __STATIC_INLINE uint32_t __SHADD8(uint32_t op1, uint32_t op2)
 152:C:\Users\Depes Crystalline\Desktop\school\Active_Bike_Lighting_System\Radar_Core/Libraries/CMSIS/Include\core_cmSimd.h **** {
 153:C:\Users\Depes Crystalline\Desktop\school\Active_Bike_Lighting_System\Radar_Core/Libraries/CMSIS/Include\core_cmSimd.h ****   uint32_t result;
 154:C:\Users\Depes Crystalline\Desktop\school\Active_Bike_Lighting_System\Radar_Core/Libraries/CMSIS/Include\core_cmSimd.h **** 
 155:C:\Users\Depes Crystalline\Desktop\school\Active_Bike_Lighting_System\Radar_Core/Libraries/CMSIS/Include\core_cmSimd.h ****   __ASM volatile ("shadd8 %0, %1, %2" : "=r" (result) : "r" (op1), "r" (op2) );
 156:C:\Users\Depes Crystalline\Desktop\school\Active_Bike_Lighting_System\Radar_Core/Libraries/CMSIS/Include\core_cmSimd.h ****   return(result);
 157:C:\Users\Depes Crystalline\Desktop\school\Active_Bike_Lighting_System\Radar_Core/Libraries/CMSIS/Include\core_cmSimd.h **** }
 158:C:\Users\Depes Crystalline\Desktop\school\Active_Bike_Lighting_System\Radar_Core/Libraries/CMSIS/Include\core_cmSimd.h **** 
 159:C:\Users\Depes Crystalline\Desktop\school\Active_Bike_Lighting_System\Radar_Core/Libraries/CMSIS/Include\core_cmSimd.h **** __attribute__( ( always_inline ) ) __STATIC_INLINE uint32_t __UADD8(uint32_t op1, uint32_t op2)
 160:C:\Users\Depes Crystalline\Desktop\school\Active_Bike_Lighting_System\Radar_Core/Libraries/CMSIS/Include\core_cmSimd.h **** {
 161:C:\Users\Depes Crystalline\Desktop\school\Active_Bike_Lighting_System\Radar_Core/Libraries/CMSIS/Include\core_cmSimd.h ****   uint32_t result;
 162:C:\Users\Depes Crystalline\Desktop\school\Active_Bike_Lighting_System\Radar_Core/Libraries/CMSIS/Include\core_cmSimd.h **** 
 163:C:\Users\Depes Crystalline\Desktop\school\Active_Bike_Lighting_System\Radar_Core/Libraries/CMSIS/Include\core_cmSimd.h ****   __ASM volatile ("uadd8 %0, %1, %2" : "=r" (result) : "r" (op1), "r" (op2) );
 164:C:\Users\Depes Crystalline\Desktop\school\Active_Bike_Lighting_System\Radar_Core/Libraries/CMSIS/Include\core_cmSimd.h ****   return(result);
 165:C:\Users\Depes Crystalline\Desktop\school\Active_Bike_Lighting_System\Radar_Core/Libraries/CMSIS/Include\core_cmSimd.h **** }
 166:C:\Users\Depes Crystalline\Desktop\school\Active_Bike_Lighting_System\Radar_Core/Libraries/CMSIS/Include\core_cmSimd.h **** 
 167:C:\Users\Depes Crystalline\Desktop\school\Active_Bike_Lighting_System\Radar_Core/Libraries/CMSIS/Include\core_cmSimd.h **** __attribute__( ( always_inline ) ) __STATIC_INLINE uint32_t __UQADD8(uint32_t op1, uint32_t op2)
 168:C:\Users\Depes Crystalline\Desktop\school\Active_Bike_Lighting_System\Radar_Core/Libraries/CMSIS/Include\core_cmSimd.h **** {
 169:C:\Users\Depes Crystalline\Desktop\school\Active_Bike_Lighting_System\Radar_Core/Libraries/CMSIS/Include\core_cmSimd.h ****   uint32_t result;
 170:C:\Users\Depes Crystalline\Desktop\school\Active_Bike_Lighting_System\Radar_Core/Libraries/CMSIS/Include\core_cmSimd.h **** 
 171:C:\Users\Depes Crystalline\Desktop\school\Active_Bike_Lighting_System\Radar_Core/Libraries/CMSIS/Include\core_cmSimd.h ****   __ASM volatile ("uqadd8 %0, %1, %2" : "=r" (result) : "r" (op1), "r" (op2) );
 172:C:\Users\Depes Crystalline\Desktop\school\Active_Bike_Lighting_System\Radar_Core/Libraries/CMSIS/Include\core_cmSimd.h ****   return(result);
 173:C:\Users\Depes Crystalline\Desktop\school\Active_Bike_Lighting_System\Radar_Core/Libraries/CMSIS/Include\core_cmSimd.h **** }
 174:C:\Users\Depes Crystalline\Desktop\school\Active_Bike_Lighting_System\Radar_Core/Libraries/CMSIS/Include\core_cmSimd.h **** 
 175:C:\Users\Depes Crystalline\Desktop\school\Active_Bike_Lighting_System\Radar_Core/Libraries/CMSIS/Include\core_cmSimd.h **** __attribute__( ( always_inline ) ) __STATIC_INLINE uint32_t __UHADD8(uint32_t op1, uint32_t op2)
 176:C:\Users\Depes Crystalline\Desktop\school\Active_Bike_Lighting_System\Radar_Core/Libraries/CMSIS/Include\core_cmSimd.h **** {
 177:C:\Users\Depes Crystalline\Desktop\school\Active_Bike_Lighting_System\Radar_Core/Libraries/CMSIS/Include\core_cmSimd.h ****   uint32_t result;
 178:C:\Users\Depes Crystalline\Desktop\school\Active_Bike_Lighting_System\Radar_Core/Libraries/CMSIS/Include\core_cmSimd.h **** 
 179:C:\Users\Depes Crystalline\Desktop\school\Active_Bike_Lighting_System\Radar_Core/Libraries/CMSIS/Include\core_cmSimd.h ****   __ASM volatile ("uhadd8 %0, %1, %2" : "=r" (result) : "r" (op1), "r" (op2) );
 180:C:\Users\Depes Crystalline\Desktop\school\Active_Bike_Lighting_System\Radar_Core/Libraries/CMSIS/Include\core_cmSimd.h ****   return(result);
 181:C:\Users\Depes Crystalline\Desktop\school\Active_Bike_Lighting_System\Radar_Core/Libraries/CMSIS/Include\core_cmSimd.h **** }
 182:C:\Users\Depes Crystalline\Desktop\school\Active_Bike_Lighting_System\Radar_Core/Libraries/CMSIS/Include\core_cmSimd.h **** 
 183:C:\Users\Depes Crystalline\Desktop\school\Active_Bike_Lighting_System\Radar_Core/Libraries/CMSIS/Include\core_cmSimd.h **** 
 184:C:\Users\Depes Crystalline\Desktop\school\Active_Bike_Lighting_System\Radar_Core/Libraries/CMSIS/Include\core_cmSimd.h **** __attribute__( ( always_inline ) ) __STATIC_INLINE uint32_t __SSUB8(uint32_t op1, uint32_t op2)
 185:C:\Users\Depes Crystalline\Desktop\school\Active_Bike_Lighting_System\Radar_Core/Libraries/CMSIS/Include\core_cmSimd.h **** {
 186:C:\Users\Depes Crystalline\Desktop\school\Active_Bike_Lighting_System\Radar_Core/Libraries/CMSIS/Include\core_cmSimd.h ****   uint32_t result;
 187:C:\Users\Depes Crystalline\Desktop\school\Active_Bike_Lighting_System\Radar_Core/Libraries/CMSIS/Include\core_cmSimd.h **** 
 188:C:\Users\Depes Crystalline\Desktop\school\Active_Bike_Lighting_System\Radar_Core/Libraries/CMSIS/Include\core_cmSimd.h ****   __ASM volatile ("ssub8 %0, %1, %2" : "=r" (result) : "r" (op1), "r" (op2) );
 189:C:\Users\Depes Crystalline\Desktop\school\Active_Bike_Lighting_System\Radar_Core/Libraries/CMSIS/Include\core_cmSimd.h ****   return(result);
 190:C:\Users\Depes Crystalline\Desktop\school\Active_Bike_Lighting_System\Radar_Core/Libraries/CMSIS/Include\core_cmSimd.h **** }
 191:C:\Users\Depes Crystalline\Desktop\school\Active_Bike_Lighting_System\Radar_Core/Libraries/CMSIS/Include\core_cmSimd.h **** 
 192:C:\Users\Depes Crystalline\Desktop\school\Active_Bike_Lighting_System\Radar_Core/Libraries/CMSIS/Include\core_cmSimd.h **** __attribute__( ( always_inline ) ) __STATIC_INLINE uint32_t __QSUB8(uint32_t op1, uint32_t op2)
 193:C:\Users\Depes Crystalline\Desktop\school\Active_Bike_Lighting_System\Radar_Core/Libraries/CMSIS/Include\core_cmSimd.h **** {
 194:C:\Users\Depes Crystalline\Desktop\school\Active_Bike_Lighting_System\Radar_Core/Libraries/CMSIS/Include\core_cmSimd.h ****   uint32_t result;
 195:C:\Users\Depes Crystalline\Desktop\school\Active_Bike_Lighting_System\Radar_Core/Libraries/CMSIS/Include\core_cmSimd.h **** 
 196:C:\Users\Depes Crystalline\Desktop\school\Active_Bike_Lighting_System\Radar_Core/Libraries/CMSIS/Include\core_cmSimd.h ****   __ASM volatile ("qsub8 %0, %1, %2" : "=r" (result) : "r" (op1), "r" (op2) );
 197:C:\Users\Depes Crystalline\Desktop\school\Active_Bike_Lighting_System\Radar_Core/Libraries/CMSIS/Include\core_cmSimd.h ****   return(result);
 198:C:\Users\Depes Crystalline\Desktop\school\Active_Bike_Lighting_System\Radar_Core/Libraries/CMSIS/Include\core_cmSimd.h **** }
 199:C:\Users\Depes Crystalline\Desktop\school\Active_Bike_Lighting_System\Radar_Core/Libraries/CMSIS/Include\core_cmSimd.h **** 
 200:C:\Users\Depes Crystalline\Desktop\school\Active_Bike_Lighting_System\Radar_Core/Libraries/CMSIS/Include\core_cmSimd.h **** __attribute__( ( always_inline ) ) __STATIC_INLINE uint32_t __SHSUB8(uint32_t op1, uint32_t op2)
 201:C:\Users\Depes Crystalline\Desktop\school\Active_Bike_Lighting_System\Radar_Core/Libraries/CMSIS/Include\core_cmSimd.h **** {
 202:C:\Users\Depes Crystalline\Desktop\school\Active_Bike_Lighting_System\Radar_Core/Libraries/CMSIS/Include\core_cmSimd.h ****   uint32_t result;
 203:C:\Users\Depes Crystalline\Desktop\school\Active_Bike_Lighting_System\Radar_Core/Libraries/CMSIS/Include\core_cmSimd.h **** 
 204:C:\Users\Depes Crystalline\Desktop\school\Active_Bike_Lighting_System\Radar_Core/Libraries/CMSIS/Include\core_cmSimd.h ****   __ASM volatile ("shsub8 %0, %1, %2" : "=r" (result) : "r" (op1), "r" (op2) );
 205:C:\Users\Depes Crystalline\Desktop\school\Active_Bike_Lighting_System\Radar_Core/Libraries/CMSIS/Include\core_cmSimd.h ****   return(result);
 206:C:\Users\Depes Crystalline\Desktop\school\Active_Bike_Lighting_System\Radar_Core/Libraries/CMSIS/Include\core_cmSimd.h **** }
 207:C:\Users\Depes Crystalline\Desktop\school\Active_Bike_Lighting_System\Radar_Core/Libraries/CMSIS/Include\core_cmSimd.h **** 
 208:C:\Users\Depes Crystalline\Desktop\school\Active_Bike_Lighting_System\Radar_Core/Libraries/CMSIS/Include\core_cmSimd.h **** __attribute__( ( always_inline ) ) __STATIC_INLINE uint32_t __USUB8(uint32_t op1, uint32_t op2)
 209:C:\Users\Depes Crystalline\Desktop\school\Active_Bike_Lighting_System\Radar_Core/Libraries/CMSIS/Include\core_cmSimd.h **** {
 210:C:\Users\Depes Crystalline\Desktop\school\Active_Bike_Lighting_System\Radar_Core/Libraries/CMSIS/Include\core_cmSimd.h ****   uint32_t result;
 211:C:\Users\Depes Crystalline\Desktop\school\Active_Bike_Lighting_System\Radar_Core/Libraries/CMSIS/Include\core_cmSimd.h **** 
 212:C:\Users\Depes Crystalline\Desktop\school\Active_Bike_Lighting_System\Radar_Core/Libraries/CMSIS/Include\core_cmSimd.h ****   __ASM volatile ("usub8 %0, %1, %2" : "=r" (result) : "r" (op1), "r" (op2) );
 213:C:\Users\Depes Crystalline\Desktop\school\Active_Bike_Lighting_System\Radar_Core/Libraries/CMSIS/Include\core_cmSimd.h ****   return(result);
 214:C:\Users\Depes Crystalline\Desktop\school\Active_Bike_Lighting_System\Radar_Core/Libraries/CMSIS/Include\core_cmSimd.h **** }
 215:C:\Users\Depes Crystalline\Desktop\school\Active_Bike_Lighting_System\Radar_Core/Libraries/CMSIS/Include\core_cmSimd.h **** 
 216:C:\Users\Depes Crystalline\Desktop\school\Active_Bike_Lighting_System\Radar_Core/Libraries/CMSIS/Include\core_cmSimd.h **** __attribute__( ( always_inline ) ) __STATIC_INLINE uint32_t __UQSUB8(uint32_t op1, uint32_t op2)
 217:C:\Users\Depes Crystalline\Desktop\school\Active_Bike_Lighting_System\Radar_Core/Libraries/CMSIS/Include\core_cmSimd.h **** {
 218:C:\Users\Depes Crystalline\Desktop\school\Active_Bike_Lighting_System\Radar_Core/Libraries/CMSIS/Include\core_cmSimd.h ****   uint32_t result;
 219:C:\Users\Depes Crystalline\Desktop\school\Active_Bike_Lighting_System\Radar_Core/Libraries/CMSIS/Include\core_cmSimd.h **** 
 220:C:\Users\Depes Crystalline\Desktop\school\Active_Bike_Lighting_System\Radar_Core/Libraries/CMSIS/Include\core_cmSimd.h ****   __ASM volatile ("uqsub8 %0, %1, %2" : "=r" (result) : "r" (op1), "r" (op2) );
 221:C:\Users\Depes Crystalline\Desktop\school\Active_Bike_Lighting_System\Radar_Core/Libraries/CMSIS/Include\core_cmSimd.h ****   return(result);
 222:C:\Users\Depes Crystalline\Desktop\school\Active_Bike_Lighting_System\Radar_Core/Libraries/CMSIS/Include\core_cmSimd.h **** }
 223:C:\Users\Depes Crystalline\Desktop\school\Active_Bike_Lighting_System\Radar_Core/Libraries/CMSIS/Include\core_cmSimd.h **** 
 224:C:\Users\Depes Crystalline\Desktop\school\Active_Bike_Lighting_System\Radar_Core/Libraries/CMSIS/Include\core_cmSimd.h **** __attribute__( ( always_inline ) ) __STATIC_INLINE uint32_t __UHSUB8(uint32_t op1, uint32_t op2)
 225:C:\Users\Depes Crystalline\Desktop\school\Active_Bike_Lighting_System\Radar_Core/Libraries/CMSIS/Include\core_cmSimd.h **** {
 226:C:\Users\Depes Crystalline\Desktop\school\Active_Bike_Lighting_System\Radar_Core/Libraries/CMSIS/Include\core_cmSimd.h ****   uint32_t result;
 227:C:\Users\Depes Crystalline\Desktop\school\Active_Bike_Lighting_System\Radar_Core/Libraries/CMSIS/Include\core_cmSimd.h **** 
 228:C:\Users\Depes Crystalline\Desktop\school\Active_Bike_Lighting_System\Radar_Core/Libraries/CMSIS/Include\core_cmSimd.h ****   __ASM volatile ("uhsub8 %0, %1, %2" : "=r" (result) : "r" (op1), "r" (op2) );
 229:C:\Users\Depes Crystalline\Desktop\school\Active_Bike_Lighting_System\Radar_Core/Libraries/CMSIS/Include\core_cmSimd.h ****   return(result);
 230:C:\Users\Depes Crystalline\Desktop\school\Active_Bike_Lighting_System\Radar_Core/Libraries/CMSIS/Include\core_cmSimd.h **** }
 231:C:\Users\Depes Crystalline\Desktop\school\Active_Bike_Lighting_System\Radar_Core/Libraries/CMSIS/Include\core_cmSimd.h **** 
 232:C:\Users\Depes Crystalline\Desktop\school\Active_Bike_Lighting_System\Radar_Core/Libraries/CMSIS/Include\core_cmSimd.h **** 
 233:C:\Users\Depes Crystalline\Desktop\school\Active_Bike_Lighting_System\Radar_Core/Libraries/CMSIS/Include\core_cmSimd.h **** __attribute__( ( always_inline ) ) __STATIC_INLINE uint32_t __SADD16(uint32_t op1, uint32_t op2)
 234:C:\Users\Depes Crystalline\Desktop\school\Active_Bike_Lighting_System\Radar_Core/Libraries/CMSIS/Include\core_cmSimd.h **** {
 235:C:\Users\Depes Crystalline\Desktop\school\Active_Bike_Lighting_System\Radar_Core/Libraries/CMSIS/Include\core_cmSimd.h ****   uint32_t result;
 236:C:\Users\Depes Crystalline\Desktop\school\Active_Bike_Lighting_System\Radar_Core/Libraries/CMSIS/Include\core_cmSimd.h **** 
 237:C:\Users\Depes Crystalline\Desktop\school\Active_Bike_Lighting_System\Radar_Core/Libraries/CMSIS/Include\core_cmSimd.h ****   __ASM volatile ("sadd16 %0, %1, %2" : "=r" (result) : "r" (op1), "r" (op2) );
 238:C:\Users\Depes Crystalline\Desktop\school\Active_Bike_Lighting_System\Radar_Core/Libraries/CMSIS/Include\core_cmSimd.h ****   return(result);
 239:C:\Users\Depes Crystalline\Desktop\school\Active_Bike_Lighting_System\Radar_Core/Libraries/CMSIS/Include\core_cmSimd.h **** }
 240:C:\Users\Depes Crystalline\Desktop\school\Active_Bike_Lighting_System\Radar_Core/Libraries/CMSIS/Include\core_cmSimd.h **** 
 241:C:\Users\Depes Crystalline\Desktop\school\Active_Bike_Lighting_System\Radar_Core/Libraries/CMSIS/Include\core_cmSimd.h **** __attribute__( ( always_inline ) ) __STATIC_INLINE uint32_t __QADD16(uint32_t op1, uint32_t op2)
 242:C:\Users\Depes Crystalline\Desktop\school\Active_Bike_Lighting_System\Radar_Core/Libraries/CMSIS/Include\core_cmSimd.h **** {
 243:C:\Users\Depes Crystalline\Desktop\school\Active_Bike_Lighting_System\Radar_Core/Libraries/CMSIS/Include\core_cmSimd.h ****   uint32_t result;
 244:C:\Users\Depes Crystalline\Desktop\school\Active_Bike_Lighting_System\Radar_Core/Libraries/CMSIS/Include\core_cmSimd.h **** 
 245:C:\Users\Depes Crystalline\Desktop\school\Active_Bike_Lighting_System\Radar_Core/Libraries/CMSIS/Include\core_cmSimd.h ****   __ASM volatile ("qadd16 %0, %1, %2" : "=r" (result) : "r" (op1), "r" (op2) );
 246:C:\Users\Depes Crystalline\Desktop\school\Active_Bike_Lighting_System\Radar_Core/Libraries/CMSIS/Include\core_cmSimd.h ****   return(result);
 247:C:\Users\Depes Crystalline\Desktop\school\Active_Bike_Lighting_System\Radar_Core/Libraries/CMSIS/Include\core_cmSimd.h **** }
 248:C:\Users\Depes Crystalline\Desktop\school\Active_Bike_Lighting_System\Radar_Core/Libraries/CMSIS/Include\core_cmSimd.h **** 
 249:C:\Users\Depes Crystalline\Desktop\school\Active_Bike_Lighting_System\Radar_Core/Libraries/CMSIS/Include\core_cmSimd.h **** __attribute__( ( always_inline ) ) __STATIC_INLINE uint32_t __SHADD16(uint32_t op1, uint32_t op2)
 250:C:\Users\Depes Crystalline\Desktop\school\Active_Bike_Lighting_System\Radar_Core/Libraries/CMSIS/Include\core_cmSimd.h **** {
 251:C:\Users\Depes Crystalline\Desktop\school\Active_Bike_Lighting_System\Radar_Core/Libraries/CMSIS/Include\core_cmSimd.h ****   uint32_t result;
 252:C:\Users\Depes Crystalline\Desktop\school\Active_Bike_Lighting_System\Radar_Core/Libraries/CMSIS/Include\core_cmSimd.h **** 
 253:C:\Users\Depes Crystalline\Desktop\school\Active_Bike_Lighting_System\Radar_Core/Libraries/CMSIS/Include\core_cmSimd.h ****   __ASM volatile ("shadd16 %0, %1, %2" : "=r" (result) : "r" (op1), "r" (op2) );
 254:C:\Users\Depes Crystalline\Desktop\school\Active_Bike_Lighting_System\Radar_Core/Libraries/CMSIS/Include\core_cmSimd.h ****   return(result);
 255:C:\Users\Depes Crystalline\Desktop\school\Active_Bike_Lighting_System\Radar_Core/Libraries/CMSIS/Include\core_cmSimd.h **** }
 256:C:\Users\Depes Crystalline\Desktop\school\Active_Bike_Lighting_System\Radar_Core/Libraries/CMSIS/Include\core_cmSimd.h **** 
 257:C:\Users\Depes Crystalline\Desktop\school\Active_Bike_Lighting_System\Radar_Core/Libraries/CMSIS/Include\core_cmSimd.h **** __attribute__( ( always_inline ) ) __STATIC_INLINE uint32_t __UADD16(uint32_t op1, uint32_t op2)
 258:C:\Users\Depes Crystalline\Desktop\school\Active_Bike_Lighting_System\Radar_Core/Libraries/CMSIS/Include\core_cmSimd.h **** {
 259:C:\Users\Depes Crystalline\Desktop\school\Active_Bike_Lighting_System\Radar_Core/Libraries/CMSIS/Include\core_cmSimd.h ****   uint32_t result;
 260:C:\Users\Depes Crystalline\Desktop\school\Active_Bike_Lighting_System\Radar_Core/Libraries/CMSIS/Include\core_cmSimd.h **** 
 261:C:\Users\Depes Crystalline\Desktop\school\Active_Bike_Lighting_System\Radar_Core/Libraries/CMSIS/Include\core_cmSimd.h ****   __ASM volatile ("uadd16 %0, %1, %2" : "=r" (result) : "r" (op1), "r" (op2) );
 262:C:\Users\Depes Crystalline\Desktop\school\Active_Bike_Lighting_System\Radar_Core/Libraries/CMSIS/Include\core_cmSimd.h ****   return(result);
 263:C:\Users\Depes Crystalline\Desktop\school\Active_Bike_Lighting_System\Radar_Core/Libraries/CMSIS/Include\core_cmSimd.h **** }
 264:C:\Users\Depes Crystalline\Desktop\school\Active_Bike_Lighting_System\Radar_Core/Libraries/CMSIS/Include\core_cmSimd.h **** 
 265:C:\Users\Depes Crystalline\Desktop\school\Active_Bike_Lighting_System\Radar_Core/Libraries/CMSIS/Include\core_cmSimd.h **** __attribute__( ( always_inline ) ) __STATIC_INLINE uint32_t __UQADD16(uint32_t op1, uint32_t op2)
 266:C:\Users\Depes Crystalline\Desktop\school\Active_Bike_Lighting_System\Radar_Core/Libraries/CMSIS/Include\core_cmSimd.h **** {
 267:C:\Users\Depes Crystalline\Desktop\school\Active_Bike_Lighting_System\Radar_Core/Libraries/CMSIS/Include\core_cmSimd.h ****   uint32_t result;
 268:C:\Users\Depes Crystalline\Desktop\school\Active_Bike_Lighting_System\Radar_Core/Libraries/CMSIS/Include\core_cmSimd.h **** 
 269:C:\Users\Depes Crystalline\Desktop\school\Active_Bike_Lighting_System\Radar_Core/Libraries/CMSIS/Include\core_cmSimd.h ****   __ASM volatile ("uqadd16 %0, %1, %2" : "=r" (result) : "r" (op1), "r" (op2) );
 270:C:\Users\Depes Crystalline\Desktop\school\Active_Bike_Lighting_System\Radar_Core/Libraries/CMSIS/Include\core_cmSimd.h ****   return(result);
 271:C:\Users\Depes Crystalline\Desktop\school\Active_Bike_Lighting_System\Radar_Core/Libraries/CMSIS/Include\core_cmSimd.h **** }
 272:C:\Users\Depes Crystalline\Desktop\school\Active_Bike_Lighting_System\Radar_Core/Libraries/CMSIS/Include\core_cmSimd.h **** 
 273:C:\Users\Depes Crystalline\Desktop\school\Active_Bike_Lighting_System\Radar_Core/Libraries/CMSIS/Include\core_cmSimd.h **** __attribute__( ( always_inline ) ) __STATIC_INLINE uint32_t __UHADD16(uint32_t op1, uint32_t op2)
 274:C:\Users\Depes Crystalline\Desktop\school\Active_Bike_Lighting_System\Radar_Core/Libraries/CMSIS/Include\core_cmSimd.h **** {
 275:C:\Users\Depes Crystalline\Desktop\school\Active_Bike_Lighting_System\Radar_Core/Libraries/CMSIS/Include\core_cmSimd.h ****   uint32_t result;
 276:C:\Users\Depes Crystalline\Desktop\school\Active_Bike_Lighting_System\Radar_Core/Libraries/CMSIS/Include\core_cmSimd.h **** 
 277:C:\Users\Depes Crystalline\Desktop\school\Active_Bike_Lighting_System\Radar_Core/Libraries/CMSIS/Include\core_cmSimd.h ****   __ASM volatile ("uhadd16 %0, %1, %2" : "=r" (result) : "r" (op1), "r" (op2) );
 278:C:\Users\Depes Crystalline\Desktop\school\Active_Bike_Lighting_System\Radar_Core/Libraries/CMSIS/Include\core_cmSimd.h ****   return(result);
 279:C:\Users\Depes Crystalline\Desktop\school\Active_Bike_Lighting_System\Radar_Core/Libraries/CMSIS/Include\core_cmSimd.h **** }
 280:C:\Users\Depes Crystalline\Desktop\school\Active_Bike_Lighting_System\Radar_Core/Libraries/CMSIS/Include\core_cmSimd.h **** 
 281:C:\Users\Depes Crystalline\Desktop\school\Active_Bike_Lighting_System\Radar_Core/Libraries/CMSIS/Include\core_cmSimd.h **** __attribute__( ( always_inline ) ) __STATIC_INLINE uint32_t __SSUB16(uint32_t op1, uint32_t op2)
 282:C:\Users\Depes Crystalline\Desktop\school\Active_Bike_Lighting_System\Radar_Core/Libraries/CMSIS/Include\core_cmSimd.h **** {
 283:C:\Users\Depes Crystalline\Desktop\school\Active_Bike_Lighting_System\Radar_Core/Libraries/CMSIS/Include\core_cmSimd.h ****   uint32_t result;
 284:C:\Users\Depes Crystalline\Desktop\school\Active_Bike_Lighting_System\Radar_Core/Libraries/CMSIS/Include\core_cmSimd.h **** 
 285:C:\Users\Depes Crystalline\Desktop\school\Active_Bike_Lighting_System\Radar_Core/Libraries/CMSIS/Include\core_cmSimd.h ****   __ASM volatile ("ssub16 %0, %1, %2" : "=r" (result) : "r" (op1), "r" (op2) );
 286:C:\Users\Depes Crystalline\Desktop\school\Active_Bike_Lighting_System\Radar_Core/Libraries/CMSIS/Include\core_cmSimd.h ****   return(result);
 287:C:\Users\Depes Crystalline\Desktop\school\Active_Bike_Lighting_System\Radar_Core/Libraries/CMSIS/Include\core_cmSimd.h **** }
 288:C:\Users\Depes Crystalline\Desktop\school\Active_Bike_Lighting_System\Radar_Core/Libraries/CMSIS/Include\core_cmSimd.h **** 
 289:C:\Users\Depes Crystalline\Desktop\school\Active_Bike_Lighting_System\Radar_Core/Libraries/CMSIS/Include\core_cmSimd.h **** __attribute__( ( always_inline ) ) __STATIC_INLINE uint32_t __QSUB16(uint32_t op1, uint32_t op2)
 290:C:\Users\Depes Crystalline\Desktop\school\Active_Bike_Lighting_System\Radar_Core/Libraries/CMSIS/Include\core_cmSimd.h **** {
 291:C:\Users\Depes Crystalline\Desktop\school\Active_Bike_Lighting_System\Radar_Core/Libraries/CMSIS/Include\core_cmSimd.h ****   uint32_t result;
 292:C:\Users\Depes Crystalline\Desktop\school\Active_Bike_Lighting_System\Radar_Core/Libraries/CMSIS/Include\core_cmSimd.h **** 
 293:C:\Users\Depes Crystalline\Desktop\school\Active_Bike_Lighting_System\Radar_Core/Libraries/CMSIS/Include\core_cmSimd.h ****   __ASM volatile ("qsub16 %0, %1, %2" : "=r" (result) : "r" (op1), "r" (op2) );
 294:C:\Users\Depes Crystalline\Desktop\school\Active_Bike_Lighting_System\Radar_Core/Libraries/CMSIS/Include\core_cmSimd.h ****   return(result);
 295:C:\Users\Depes Crystalline\Desktop\school\Active_Bike_Lighting_System\Radar_Core/Libraries/CMSIS/Include\core_cmSimd.h **** }
 296:C:\Users\Depes Crystalline\Desktop\school\Active_Bike_Lighting_System\Radar_Core/Libraries/CMSIS/Include\core_cmSimd.h **** 
 297:C:\Users\Depes Crystalline\Desktop\school\Active_Bike_Lighting_System\Radar_Core/Libraries/CMSIS/Include\core_cmSimd.h **** __attribute__( ( always_inline ) ) __STATIC_INLINE uint32_t __SHSUB16(uint32_t op1, uint32_t op2)
 298:C:\Users\Depes Crystalline\Desktop\school\Active_Bike_Lighting_System\Radar_Core/Libraries/CMSIS/Include\core_cmSimd.h **** {
 299:C:\Users\Depes Crystalline\Desktop\school\Active_Bike_Lighting_System\Radar_Core/Libraries/CMSIS/Include\core_cmSimd.h ****   uint32_t result;
 300:C:\Users\Depes Crystalline\Desktop\school\Active_Bike_Lighting_System\Radar_Core/Libraries/CMSIS/Include\core_cmSimd.h **** 
 301:C:\Users\Depes Crystalline\Desktop\school\Active_Bike_Lighting_System\Radar_Core/Libraries/CMSIS/Include\core_cmSimd.h ****   __ASM volatile ("shsub16 %0, %1, %2" : "=r" (result) : "r" (op1), "r" (op2) );
 302:C:\Users\Depes Crystalline\Desktop\school\Active_Bike_Lighting_System\Radar_Core/Libraries/CMSIS/Include\core_cmSimd.h ****   return(result);
 303:C:\Users\Depes Crystalline\Desktop\school\Active_Bike_Lighting_System\Radar_Core/Libraries/CMSIS/Include\core_cmSimd.h **** }
 304:C:\Users\Depes Crystalline\Desktop\school\Active_Bike_Lighting_System\Radar_Core/Libraries/CMSIS/Include\core_cmSimd.h **** 
 305:C:\Users\Depes Crystalline\Desktop\school\Active_Bike_Lighting_System\Radar_Core/Libraries/CMSIS/Include\core_cmSimd.h **** __attribute__( ( always_inline ) ) __STATIC_INLINE uint32_t __USUB16(uint32_t op1, uint32_t op2)
 306:C:\Users\Depes Crystalline\Desktop\school\Active_Bike_Lighting_System\Radar_Core/Libraries/CMSIS/Include\core_cmSimd.h **** {
 307:C:\Users\Depes Crystalline\Desktop\school\Active_Bike_Lighting_System\Radar_Core/Libraries/CMSIS/Include\core_cmSimd.h ****   uint32_t result;
 308:C:\Users\Depes Crystalline\Desktop\school\Active_Bike_Lighting_System\Radar_Core/Libraries/CMSIS/Include\core_cmSimd.h **** 
 309:C:\Users\Depes Crystalline\Desktop\school\Active_Bike_Lighting_System\Radar_Core/Libraries/CMSIS/Include\core_cmSimd.h ****   __ASM volatile ("usub16 %0, %1, %2" : "=r" (result) : "r" (op1), "r" (op2) );
 310:C:\Users\Depes Crystalline\Desktop\school\Active_Bike_Lighting_System\Radar_Core/Libraries/CMSIS/Include\core_cmSimd.h ****   return(result);
 311:C:\Users\Depes Crystalline\Desktop\school\Active_Bike_Lighting_System\Radar_Core/Libraries/CMSIS/Include\core_cmSimd.h **** }
 312:C:\Users\Depes Crystalline\Desktop\school\Active_Bike_Lighting_System\Radar_Core/Libraries/CMSIS/Include\core_cmSimd.h **** 
 313:C:\Users\Depes Crystalline\Desktop\school\Active_Bike_Lighting_System\Radar_Core/Libraries/CMSIS/Include\core_cmSimd.h **** __attribute__( ( always_inline ) ) __STATIC_INLINE uint32_t __UQSUB16(uint32_t op1, uint32_t op2)
 314:C:\Users\Depes Crystalline\Desktop\school\Active_Bike_Lighting_System\Radar_Core/Libraries/CMSIS/Include\core_cmSimd.h **** {
 315:C:\Users\Depes Crystalline\Desktop\school\Active_Bike_Lighting_System\Radar_Core/Libraries/CMSIS/Include\core_cmSimd.h ****   uint32_t result;
 316:C:\Users\Depes Crystalline\Desktop\school\Active_Bike_Lighting_System\Radar_Core/Libraries/CMSIS/Include\core_cmSimd.h **** 
 317:C:\Users\Depes Crystalline\Desktop\school\Active_Bike_Lighting_System\Radar_Core/Libraries/CMSIS/Include\core_cmSimd.h ****   __ASM volatile ("uqsub16 %0, %1, %2" : "=r" (result) : "r" (op1), "r" (op2) );
 318:C:\Users\Depes Crystalline\Desktop\school\Active_Bike_Lighting_System\Radar_Core/Libraries/CMSIS/Include\core_cmSimd.h ****   return(result);
 319:C:\Users\Depes Crystalline\Desktop\school\Active_Bike_Lighting_System\Radar_Core/Libraries/CMSIS/Include\core_cmSimd.h **** }
 320:C:\Users\Depes Crystalline\Desktop\school\Active_Bike_Lighting_System\Radar_Core/Libraries/CMSIS/Include\core_cmSimd.h **** 
 321:C:\Users\Depes Crystalline\Desktop\school\Active_Bike_Lighting_System\Radar_Core/Libraries/CMSIS/Include\core_cmSimd.h **** __attribute__( ( always_inline ) ) __STATIC_INLINE uint32_t __UHSUB16(uint32_t op1, uint32_t op2)
 322:C:\Users\Depes Crystalline\Desktop\school\Active_Bike_Lighting_System\Radar_Core/Libraries/CMSIS/Include\core_cmSimd.h **** {
 323:C:\Users\Depes Crystalline\Desktop\school\Active_Bike_Lighting_System\Radar_Core/Libraries/CMSIS/Include\core_cmSimd.h ****   uint32_t result;
 324:C:\Users\Depes Crystalline\Desktop\school\Active_Bike_Lighting_System\Radar_Core/Libraries/CMSIS/Include\core_cmSimd.h **** 
 325:C:\Users\Depes Crystalline\Desktop\school\Active_Bike_Lighting_System\Radar_Core/Libraries/CMSIS/Include\core_cmSimd.h ****   __ASM volatile ("uhsub16 %0, %1, %2" : "=r" (result) : "r" (op1), "r" (op2) );
 326:C:\Users\Depes Crystalline\Desktop\school\Active_Bike_Lighting_System\Radar_Core/Libraries/CMSIS/Include\core_cmSimd.h ****   return(result);
 327:C:\Users\Depes Crystalline\Desktop\school\Active_Bike_Lighting_System\Radar_Core/Libraries/CMSIS/Include\core_cmSimd.h **** }
 328:C:\Users\Depes Crystalline\Desktop\school\Active_Bike_Lighting_System\Radar_Core/Libraries/CMSIS/Include\core_cmSimd.h **** 
 329:C:\Users\Depes Crystalline\Desktop\school\Active_Bike_Lighting_System\Radar_Core/Libraries/CMSIS/Include\core_cmSimd.h **** __attribute__( ( always_inline ) ) __STATIC_INLINE uint32_t __SASX(uint32_t op1, uint32_t op2)
 330:C:\Users\Depes Crystalline\Desktop\school\Active_Bike_Lighting_System\Radar_Core/Libraries/CMSIS/Include\core_cmSimd.h **** {
 331:C:\Users\Depes Crystalline\Desktop\school\Active_Bike_Lighting_System\Radar_Core/Libraries/CMSIS/Include\core_cmSimd.h ****   uint32_t result;
 332:C:\Users\Depes Crystalline\Desktop\school\Active_Bike_Lighting_System\Radar_Core/Libraries/CMSIS/Include\core_cmSimd.h **** 
 333:C:\Users\Depes Crystalline\Desktop\school\Active_Bike_Lighting_System\Radar_Core/Libraries/CMSIS/Include\core_cmSimd.h ****   __ASM volatile ("sasx %0, %1, %2" : "=r" (result) : "r" (op1), "r" (op2) );
 334:C:\Users\Depes Crystalline\Desktop\school\Active_Bike_Lighting_System\Radar_Core/Libraries/CMSIS/Include\core_cmSimd.h ****   return(result);
 335:C:\Users\Depes Crystalline\Desktop\school\Active_Bike_Lighting_System\Radar_Core/Libraries/CMSIS/Include\core_cmSimd.h **** }
 336:C:\Users\Depes Crystalline\Desktop\school\Active_Bike_Lighting_System\Radar_Core/Libraries/CMSIS/Include\core_cmSimd.h **** 
 337:C:\Users\Depes Crystalline\Desktop\school\Active_Bike_Lighting_System\Radar_Core/Libraries/CMSIS/Include\core_cmSimd.h **** __attribute__( ( always_inline ) ) __STATIC_INLINE uint32_t __QASX(uint32_t op1, uint32_t op2)
 338:C:\Users\Depes Crystalline\Desktop\school\Active_Bike_Lighting_System\Radar_Core/Libraries/CMSIS/Include\core_cmSimd.h **** {
 339:C:\Users\Depes Crystalline\Desktop\school\Active_Bike_Lighting_System\Radar_Core/Libraries/CMSIS/Include\core_cmSimd.h ****   uint32_t result;
 340:C:\Users\Depes Crystalline\Desktop\school\Active_Bike_Lighting_System\Radar_Core/Libraries/CMSIS/Include\core_cmSimd.h **** 
 341:C:\Users\Depes Crystalline\Desktop\school\Active_Bike_Lighting_System\Radar_Core/Libraries/CMSIS/Include\core_cmSimd.h ****   __ASM volatile ("qasx %0, %1, %2" : "=r" (result) : "r" (op1), "r" (op2) );
 342:C:\Users\Depes Crystalline\Desktop\school\Active_Bike_Lighting_System\Radar_Core/Libraries/CMSIS/Include\core_cmSimd.h ****   return(result);
 343:C:\Users\Depes Crystalline\Desktop\school\Active_Bike_Lighting_System\Radar_Core/Libraries/CMSIS/Include\core_cmSimd.h **** }
 344:C:\Users\Depes Crystalline\Desktop\school\Active_Bike_Lighting_System\Radar_Core/Libraries/CMSIS/Include\core_cmSimd.h **** 
 345:C:\Users\Depes Crystalline\Desktop\school\Active_Bike_Lighting_System\Radar_Core/Libraries/CMSIS/Include\core_cmSimd.h **** __attribute__( ( always_inline ) ) __STATIC_INLINE uint32_t __SHASX(uint32_t op1, uint32_t op2)
 346:C:\Users\Depes Crystalline\Desktop\school\Active_Bike_Lighting_System\Radar_Core/Libraries/CMSIS/Include\core_cmSimd.h **** {
 347:C:\Users\Depes Crystalline\Desktop\school\Active_Bike_Lighting_System\Radar_Core/Libraries/CMSIS/Include\core_cmSimd.h ****   uint32_t result;
 348:C:\Users\Depes Crystalline\Desktop\school\Active_Bike_Lighting_System\Radar_Core/Libraries/CMSIS/Include\core_cmSimd.h **** 
 349:C:\Users\Depes Crystalline\Desktop\school\Active_Bike_Lighting_System\Radar_Core/Libraries/CMSIS/Include\core_cmSimd.h ****   __ASM volatile ("shasx %0, %1, %2" : "=r" (result) : "r" (op1), "r" (op2) );
 350:C:\Users\Depes Crystalline\Desktop\school\Active_Bike_Lighting_System\Radar_Core/Libraries/CMSIS/Include\core_cmSimd.h ****   return(result);
 351:C:\Users\Depes Crystalline\Desktop\school\Active_Bike_Lighting_System\Radar_Core/Libraries/CMSIS/Include\core_cmSimd.h **** }
 352:C:\Users\Depes Crystalline\Desktop\school\Active_Bike_Lighting_System\Radar_Core/Libraries/CMSIS/Include\core_cmSimd.h **** 
 353:C:\Users\Depes Crystalline\Desktop\school\Active_Bike_Lighting_System\Radar_Core/Libraries/CMSIS/Include\core_cmSimd.h **** __attribute__( ( always_inline ) ) __STATIC_INLINE uint32_t __UASX(uint32_t op1, uint32_t op2)
 354:C:\Users\Depes Crystalline\Desktop\school\Active_Bike_Lighting_System\Radar_Core/Libraries/CMSIS/Include\core_cmSimd.h **** {
 355:C:\Users\Depes Crystalline\Desktop\school\Active_Bike_Lighting_System\Radar_Core/Libraries/CMSIS/Include\core_cmSimd.h ****   uint32_t result;
 356:C:\Users\Depes Crystalline\Desktop\school\Active_Bike_Lighting_System\Radar_Core/Libraries/CMSIS/Include\core_cmSimd.h **** 
 357:C:\Users\Depes Crystalline\Desktop\school\Active_Bike_Lighting_System\Radar_Core/Libraries/CMSIS/Include\core_cmSimd.h ****   __ASM volatile ("uasx %0, %1, %2" : "=r" (result) : "r" (op1), "r" (op2) );
 358:C:\Users\Depes Crystalline\Desktop\school\Active_Bike_Lighting_System\Radar_Core/Libraries/CMSIS/Include\core_cmSimd.h ****   return(result);
 359:C:\Users\Depes Crystalline\Desktop\school\Active_Bike_Lighting_System\Radar_Core/Libraries/CMSIS/Include\core_cmSimd.h **** }
 360:C:\Users\Depes Crystalline\Desktop\school\Active_Bike_Lighting_System\Radar_Core/Libraries/CMSIS/Include\core_cmSimd.h **** 
 361:C:\Users\Depes Crystalline\Desktop\school\Active_Bike_Lighting_System\Radar_Core/Libraries/CMSIS/Include\core_cmSimd.h **** __attribute__( ( always_inline ) ) __STATIC_INLINE uint32_t __UQASX(uint32_t op1, uint32_t op2)
 362:C:\Users\Depes Crystalline\Desktop\school\Active_Bike_Lighting_System\Radar_Core/Libraries/CMSIS/Include\core_cmSimd.h **** {
 363:C:\Users\Depes Crystalline\Desktop\school\Active_Bike_Lighting_System\Radar_Core/Libraries/CMSIS/Include\core_cmSimd.h ****   uint32_t result;
 364:C:\Users\Depes Crystalline\Desktop\school\Active_Bike_Lighting_System\Radar_Core/Libraries/CMSIS/Include\core_cmSimd.h **** 
 365:C:\Users\Depes Crystalline\Desktop\school\Active_Bike_Lighting_System\Radar_Core/Libraries/CMSIS/Include\core_cmSimd.h ****   __ASM volatile ("uqasx %0, %1, %2" : "=r" (result) : "r" (op1), "r" (op2) );
 366:C:\Users\Depes Crystalline\Desktop\school\Active_Bike_Lighting_System\Radar_Core/Libraries/CMSIS/Include\core_cmSimd.h ****   return(result);
 367:C:\Users\Depes Crystalline\Desktop\school\Active_Bike_Lighting_System\Radar_Core/Libraries/CMSIS/Include\core_cmSimd.h **** }
 368:C:\Users\Depes Crystalline\Desktop\school\Active_Bike_Lighting_System\Radar_Core/Libraries/CMSIS/Include\core_cmSimd.h **** 
 369:C:\Users\Depes Crystalline\Desktop\school\Active_Bike_Lighting_System\Radar_Core/Libraries/CMSIS/Include\core_cmSimd.h **** __attribute__( ( always_inline ) ) __STATIC_INLINE uint32_t __UHASX(uint32_t op1, uint32_t op2)
 370:C:\Users\Depes Crystalline\Desktop\school\Active_Bike_Lighting_System\Radar_Core/Libraries/CMSIS/Include\core_cmSimd.h **** {
 371:C:\Users\Depes Crystalline\Desktop\school\Active_Bike_Lighting_System\Radar_Core/Libraries/CMSIS/Include\core_cmSimd.h ****   uint32_t result;
 372:C:\Users\Depes Crystalline\Desktop\school\Active_Bike_Lighting_System\Radar_Core/Libraries/CMSIS/Include\core_cmSimd.h **** 
 373:C:\Users\Depes Crystalline\Desktop\school\Active_Bike_Lighting_System\Radar_Core/Libraries/CMSIS/Include\core_cmSimd.h ****   __ASM volatile ("uhasx %0, %1, %2" : "=r" (result) : "r" (op1), "r" (op2) );
 374:C:\Users\Depes Crystalline\Desktop\school\Active_Bike_Lighting_System\Radar_Core/Libraries/CMSIS/Include\core_cmSimd.h ****   return(result);
 375:C:\Users\Depes Crystalline\Desktop\school\Active_Bike_Lighting_System\Radar_Core/Libraries/CMSIS/Include\core_cmSimd.h **** }
 376:C:\Users\Depes Crystalline\Desktop\school\Active_Bike_Lighting_System\Radar_Core/Libraries/CMSIS/Include\core_cmSimd.h **** 
 377:C:\Users\Depes Crystalline\Desktop\school\Active_Bike_Lighting_System\Radar_Core/Libraries/CMSIS/Include\core_cmSimd.h **** __attribute__( ( always_inline ) ) __STATIC_INLINE uint32_t __SSAX(uint32_t op1, uint32_t op2)
 378:C:\Users\Depes Crystalline\Desktop\school\Active_Bike_Lighting_System\Radar_Core/Libraries/CMSIS/Include\core_cmSimd.h **** {
 379:C:\Users\Depes Crystalline\Desktop\school\Active_Bike_Lighting_System\Radar_Core/Libraries/CMSIS/Include\core_cmSimd.h ****   uint32_t result;
 380:C:\Users\Depes Crystalline\Desktop\school\Active_Bike_Lighting_System\Radar_Core/Libraries/CMSIS/Include\core_cmSimd.h **** 
 381:C:\Users\Depes Crystalline\Desktop\school\Active_Bike_Lighting_System\Radar_Core/Libraries/CMSIS/Include\core_cmSimd.h ****   __ASM volatile ("ssax %0, %1, %2" : "=r" (result) : "r" (op1), "r" (op2) );
 382:C:\Users\Depes Crystalline\Desktop\school\Active_Bike_Lighting_System\Radar_Core/Libraries/CMSIS/Include\core_cmSimd.h ****   return(result);
 383:C:\Users\Depes Crystalline\Desktop\school\Active_Bike_Lighting_System\Radar_Core/Libraries/CMSIS/Include\core_cmSimd.h **** }
 384:C:\Users\Depes Crystalline\Desktop\school\Active_Bike_Lighting_System\Radar_Core/Libraries/CMSIS/Include\core_cmSimd.h **** 
 385:C:\Users\Depes Crystalline\Desktop\school\Active_Bike_Lighting_System\Radar_Core/Libraries/CMSIS/Include\core_cmSimd.h **** __attribute__( ( always_inline ) ) __STATIC_INLINE uint32_t __QSAX(uint32_t op1, uint32_t op2)
 386:C:\Users\Depes Crystalline\Desktop\school\Active_Bike_Lighting_System\Radar_Core/Libraries/CMSIS/Include\core_cmSimd.h **** {
 387:C:\Users\Depes Crystalline\Desktop\school\Active_Bike_Lighting_System\Radar_Core/Libraries/CMSIS/Include\core_cmSimd.h ****   uint32_t result;
 388:C:\Users\Depes Crystalline\Desktop\school\Active_Bike_Lighting_System\Radar_Core/Libraries/CMSIS/Include\core_cmSimd.h **** 
 389:C:\Users\Depes Crystalline\Desktop\school\Active_Bike_Lighting_System\Radar_Core/Libraries/CMSIS/Include\core_cmSimd.h ****   __ASM volatile ("qsax %0, %1, %2" : "=r" (result) : "r" (op1), "r" (op2) );
 390:C:\Users\Depes Crystalline\Desktop\school\Active_Bike_Lighting_System\Radar_Core/Libraries/CMSIS/Include\core_cmSimd.h ****   return(result);
 391:C:\Users\Depes Crystalline\Desktop\school\Active_Bike_Lighting_System\Radar_Core/Libraries/CMSIS/Include\core_cmSimd.h **** }
 392:C:\Users\Depes Crystalline\Desktop\school\Active_Bike_Lighting_System\Radar_Core/Libraries/CMSIS/Include\core_cmSimd.h **** 
 393:C:\Users\Depes Crystalline\Desktop\school\Active_Bike_Lighting_System\Radar_Core/Libraries/CMSIS/Include\core_cmSimd.h **** __attribute__( ( always_inline ) ) __STATIC_INLINE uint32_t __SHSAX(uint32_t op1, uint32_t op2)
 394:C:\Users\Depes Crystalline\Desktop\school\Active_Bike_Lighting_System\Radar_Core/Libraries/CMSIS/Include\core_cmSimd.h **** {
 395:C:\Users\Depes Crystalline\Desktop\school\Active_Bike_Lighting_System\Radar_Core/Libraries/CMSIS/Include\core_cmSimd.h ****   uint32_t result;
 396:C:\Users\Depes Crystalline\Desktop\school\Active_Bike_Lighting_System\Radar_Core/Libraries/CMSIS/Include\core_cmSimd.h **** 
 397:C:\Users\Depes Crystalline\Desktop\school\Active_Bike_Lighting_System\Radar_Core/Libraries/CMSIS/Include\core_cmSimd.h ****   __ASM volatile ("shsax %0, %1, %2" : "=r" (result) : "r" (op1), "r" (op2) );
 398:C:\Users\Depes Crystalline\Desktop\school\Active_Bike_Lighting_System\Radar_Core/Libraries/CMSIS/Include\core_cmSimd.h ****   return(result);
 399:C:\Users\Depes Crystalline\Desktop\school\Active_Bike_Lighting_System\Radar_Core/Libraries/CMSIS/Include\core_cmSimd.h **** }
 400:C:\Users\Depes Crystalline\Desktop\school\Active_Bike_Lighting_System\Radar_Core/Libraries/CMSIS/Include\core_cmSimd.h **** 
 401:C:\Users\Depes Crystalline\Desktop\school\Active_Bike_Lighting_System\Radar_Core/Libraries/CMSIS/Include\core_cmSimd.h **** __attribute__( ( always_inline ) ) __STATIC_INLINE uint32_t __USAX(uint32_t op1, uint32_t op2)
 402:C:\Users\Depes Crystalline\Desktop\school\Active_Bike_Lighting_System\Radar_Core/Libraries/CMSIS/Include\core_cmSimd.h **** {
 403:C:\Users\Depes Crystalline\Desktop\school\Active_Bike_Lighting_System\Radar_Core/Libraries/CMSIS/Include\core_cmSimd.h ****   uint32_t result;
 404:C:\Users\Depes Crystalline\Desktop\school\Active_Bike_Lighting_System\Radar_Core/Libraries/CMSIS/Include\core_cmSimd.h **** 
 405:C:\Users\Depes Crystalline\Desktop\school\Active_Bike_Lighting_System\Radar_Core/Libraries/CMSIS/Include\core_cmSimd.h ****   __ASM volatile ("usax %0, %1, %2" : "=r" (result) : "r" (op1), "r" (op2) );
 406:C:\Users\Depes Crystalline\Desktop\school\Active_Bike_Lighting_System\Radar_Core/Libraries/CMSIS/Include\core_cmSimd.h ****   return(result);
 407:C:\Users\Depes Crystalline\Desktop\school\Active_Bike_Lighting_System\Radar_Core/Libraries/CMSIS/Include\core_cmSimd.h **** }
 408:C:\Users\Depes Crystalline\Desktop\school\Active_Bike_Lighting_System\Radar_Core/Libraries/CMSIS/Include\core_cmSimd.h **** 
 409:C:\Users\Depes Crystalline\Desktop\school\Active_Bike_Lighting_System\Radar_Core/Libraries/CMSIS/Include\core_cmSimd.h **** __attribute__( ( always_inline ) ) __STATIC_INLINE uint32_t __UQSAX(uint32_t op1, uint32_t op2)
 410:C:\Users\Depes Crystalline\Desktop\school\Active_Bike_Lighting_System\Radar_Core/Libraries/CMSIS/Include\core_cmSimd.h **** {
 411:C:\Users\Depes Crystalline\Desktop\school\Active_Bike_Lighting_System\Radar_Core/Libraries/CMSIS/Include\core_cmSimd.h ****   uint32_t result;
 412:C:\Users\Depes Crystalline\Desktop\school\Active_Bike_Lighting_System\Radar_Core/Libraries/CMSIS/Include\core_cmSimd.h **** 
 413:C:\Users\Depes Crystalline\Desktop\school\Active_Bike_Lighting_System\Radar_Core/Libraries/CMSIS/Include\core_cmSimd.h ****   __ASM volatile ("uqsax %0, %1, %2" : "=r" (result) : "r" (op1), "r" (op2) );
 414:C:\Users\Depes Crystalline\Desktop\school\Active_Bike_Lighting_System\Radar_Core/Libraries/CMSIS/Include\core_cmSimd.h ****   return(result);
 415:C:\Users\Depes Crystalline\Desktop\school\Active_Bike_Lighting_System\Radar_Core/Libraries/CMSIS/Include\core_cmSimd.h **** }
 416:C:\Users\Depes Crystalline\Desktop\school\Active_Bike_Lighting_System\Radar_Core/Libraries/CMSIS/Include\core_cmSimd.h **** 
 417:C:\Users\Depes Crystalline\Desktop\school\Active_Bike_Lighting_System\Radar_Core/Libraries/CMSIS/Include\core_cmSimd.h **** __attribute__( ( always_inline ) ) __STATIC_INLINE uint32_t __UHSAX(uint32_t op1, uint32_t op2)
 418:C:\Users\Depes Crystalline\Desktop\school\Active_Bike_Lighting_System\Radar_Core/Libraries/CMSIS/Include\core_cmSimd.h **** {
 419:C:\Users\Depes Crystalline\Desktop\school\Active_Bike_Lighting_System\Radar_Core/Libraries/CMSIS/Include\core_cmSimd.h ****   uint32_t result;
 420:C:\Users\Depes Crystalline\Desktop\school\Active_Bike_Lighting_System\Radar_Core/Libraries/CMSIS/Include\core_cmSimd.h **** 
 421:C:\Users\Depes Crystalline\Desktop\school\Active_Bike_Lighting_System\Radar_Core/Libraries/CMSIS/Include\core_cmSimd.h ****   __ASM volatile ("uhsax %0, %1, %2" : "=r" (result) : "r" (op1), "r" (op2) );
 422:C:\Users\Depes Crystalline\Desktop\school\Active_Bike_Lighting_System\Radar_Core/Libraries/CMSIS/Include\core_cmSimd.h ****   return(result);
 423:C:\Users\Depes Crystalline\Desktop\school\Active_Bike_Lighting_System\Radar_Core/Libraries/CMSIS/Include\core_cmSimd.h **** }
 424:C:\Users\Depes Crystalline\Desktop\school\Active_Bike_Lighting_System\Radar_Core/Libraries/CMSIS/Include\core_cmSimd.h **** 
 425:C:\Users\Depes Crystalline\Desktop\school\Active_Bike_Lighting_System\Radar_Core/Libraries/CMSIS/Include\core_cmSimd.h **** __attribute__( ( always_inline ) ) __STATIC_INLINE uint32_t __USAD8(uint32_t op1, uint32_t op2)
 426:C:\Users\Depes Crystalline\Desktop\school\Active_Bike_Lighting_System\Radar_Core/Libraries/CMSIS/Include\core_cmSimd.h **** {
 427:C:\Users\Depes Crystalline\Desktop\school\Active_Bike_Lighting_System\Radar_Core/Libraries/CMSIS/Include\core_cmSimd.h ****   uint32_t result;
 428:C:\Users\Depes Crystalline\Desktop\school\Active_Bike_Lighting_System\Radar_Core/Libraries/CMSIS/Include\core_cmSimd.h **** 
 429:C:\Users\Depes Crystalline\Desktop\school\Active_Bike_Lighting_System\Radar_Core/Libraries/CMSIS/Include\core_cmSimd.h ****   __ASM volatile ("usad8 %0, %1, %2" : "=r" (result) : "r" (op1), "r" (op2) );
 430:C:\Users\Depes Crystalline\Desktop\school\Active_Bike_Lighting_System\Radar_Core/Libraries/CMSIS/Include\core_cmSimd.h ****   return(result);
 431:C:\Users\Depes Crystalline\Desktop\school\Active_Bike_Lighting_System\Radar_Core/Libraries/CMSIS/Include\core_cmSimd.h **** }
 432:C:\Users\Depes Crystalline\Desktop\school\Active_Bike_Lighting_System\Radar_Core/Libraries/CMSIS/Include\core_cmSimd.h **** 
 433:C:\Users\Depes Crystalline\Desktop\school\Active_Bike_Lighting_System\Radar_Core/Libraries/CMSIS/Include\core_cmSimd.h **** __attribute__( ( always_inline ) ) __STATIC_INLINE uint32_t __USADA8(uint32_t op1, uint32_t op2, ui
 434:C:\Users\Depes Crystalline\Desktop\school\Active_Bike_Lighting_System\Radar_Core/Libraries/CMSIS/Include\core_cmSimd.h **** {
 435:C:\Users\Depes Crystalline\Desktop\school\Active_Bike_Lighting_System\Radar_Core/Libraries/CMSIS/Include\core_cmSimd.h ****   uint32_t result;
 436:C:\Users\Depes Crystalline\Desktop\school\Active_Bike_Lighting_System\Radar_Core/Libraries/CMSIS/Include\core_cmSimd.h **** 
 437:C:\Users\Depes Crystalline\Desktop\school\Active_Bike_Lighting_System\Radar_Core/Libraries/CMSIS/Include\core_cmSimd.h ****   __ASM volatile ("usada8 %0, %1, %2, %3" : "=r" (result) : "r" (op1), "r" (op2), "r" (op3) );
 438:C:\Users\Depes Crystalline\Desktop\school\Active_Bike_Lighting_System\Radar_Core/Libraries/CMSIS/Include\core_cmSimd.h ****   return(result);
 439:C:\Users\Depes Crystalline\Desktop\school\Active_Bike_Lighting_System\Radar_Core/Libraries/CMSIS/Include\core_cmSimd.h **** }
 440:C:\Users\Depes Crystalline\Desktop\school\Active_Bike_Lighting_System\Radar_Core/Libraries/CMSIS/Include\core_cmSimd.h **** 
 441:C:\Users\Depes Crystalline\Desktop\school\Active_Bike_Lighting_System\Radar_Core/Libraries/CMSIS/Include\core_cmSimd.h **** #define __SSAT16(ARG1,ARG2) \
 442:C:\Users\Depes Crystalline\Desktop\school\Active_Bike_Lighting_System\Radar_Core/Libraries/CMSIS/Include\core_cmSimd.h **** ({                          \
 443:C:\Users\Depes Crystalline\Desktop\school\Active_Bike_Lighting_System\Radar_Core/Libraries/CMSIS/Include\core_cmSimd.h ****   uint32_t __RES, __ARG1 = (ARG1); \
 444:C:\Users\Depes Crystalline\Desktop\school\Active_Bike_Lighting_System\Radar_Core/Libraries/CMSIS/Include\core_cmSimd.h ****   __ASM ("ssat16 %0, %1, %2" : "=r" (__RES) :  "I" (ARG2), "r" (__ARG1) ); \
 445:C:\Users\Depes Crystalline\Desktop\school\Active_Bike_Lighting_System\Radar_Core/Libraries/CMSIS/Include\core_cmSimd.h ****   __RES; \
 446:C:\Users\Depes Crystalline\Desktop\school\Active_Bike_Lighting_System\Radar_Core/Libraries/CMSIS/Include\core_cmSimd.h ****  })
 447:C:\Users\Depes Crystalline\Desktop\school\Active_Bike_Lighting_System\Radar_Core/Libraries/CMSIS/Include\core_cmSimd.h **** 
 448:C:\Users\Depes Crystalline\Desktop\school\Active_Bike_Lighting_System\Radar_Core/Libraries/CMSIS/Include\core_cmSimd.h **** #define __USAT16(ARG1,ARG2) \
 449:C:\Users\Depes Crystalline\Desktop\school\Active_Bike_Lighting_System\Radar_Core/Libraries/CMSIS/Include\core_cmSimd.h **** ({                          \
 450:C:\Users\Depes Crystalline\Desktop\school\Active_Bike_Lighting_System\Radar_Core/Libraries/CMSIS/Include\core_cmSimd.h ****   uint32_t __RES, __ARG1 = (ARG1); \
 451:C:\Users\Depes Crystalline\Desktop\school\Active_Bike_Lighting_System\Radar_Core/Libraries/CMSIS/Include\core_cmSimd.h ****   __ASM ("usat16 %0, %1, %2" : "=r" (__RES) :  "I" (ARG2), "r" (__ARG1) ); \
 452:C:\Users\Depes Crystalline\Desktop\school\Active_Bike_Lighting_System\Radar_Core/Libraries/CMSIS/Include\core_cmSimd.h ****   __RES; \
 453:C:\Users\Depes Crystalline\Desktop\school\Active_Bike_Lighting_System\Radar_Core/Libraries/CMSIS/Include\core_cmSimd.h ****  })
 454:C:\Users\Depes Crystalline\Desktop\school\Active_Bike_Lighting_System\Radar_Core/Libraries/CMSIS/Include\core_cmSimd.h **** 
 455:C:\Users\Depes Crystalline\Desktop\school\Active_Bike_Lighting_System\Radar_Core/Libraries/CMSIS/Include\core_cmSimd.h **** __attribute__( ( always_inline ) ) __STATIC_INLINE uint32_t __UXTB16(uint32_t op1)
 456:C:\Users\Depes Crystalline\Desktop\school\Active_Bike_Lighting_System\Radar_Core/Libraries/CMSIS/Include\core_cmSimd.h **** {
 457:C:\Users\Depes Crystalline\Desktop\school\Active_Bike_Lighting_System\Radar_Core/Libraries/CMSIS/Include\core_cmSimd.h ****   uint32_t result;
 458:C:\Users\Depes Crystalline\Desktop\school\Active_Bike_Lighting_System\Radar_Core/Libraries/CMSIS/Include\core_cmSimd.h **** 
 459:C:\Users\Depes Crystalline\Desktop\school\Active_Bike_Lighting_System\Radar_Core/Libraries/CMSIS/Include\core_cmSimd.h ****   __ASM volatile ("uxtb16 %0, %1" : "=r" (result) : "r" (op1));
 460:C:\Users\Depes Crystalline\Desktop\school\Active_Bike_Lighting_System\Radar_Core/Libraries/CMSIS/Include\core_cmSimd.h ****   return(result);
 461:C:\Users\Depes Crystalline\Desktop\school\Active_Bike_Lighting_System\Radar_Core/Libraries/CMSIS/Include\core_cmSimd.h **** }
 462:C:\Users\Depes Crystalline\Desktop\school\Active_Bike_Lighting_System\Radar_Core/Libraries/CMSIS/Include\core_cmSimd.h **** 
 463:C:\Users\Depes Crystalline\Desktop\school\Active_Bike_Lighting_System\Radar_Core/Libraries/CMSIS/Include\core_cmSimd.h **** __attribute__( ( always_inline ) ) __STATIC_INLINE uint32_t __UXTAB16(uint32_t op1, uint32_t op2)
 464:C:\Users\Depes Crystalline\Desktop\school\Active_Bike_Lighting_System\Radar_Core/Libraries/CMSIS/Include\core_cmSimd.h **** {
 465:C:\Users\Depes Crystalline\Desktop\school\Active_Bike_Lighting_System\Radar_Core/Libraries/CMSIS/Include\core_cmSimd.h ****   uint32_t result;
 466:C:\Users\Depes Crystalline\Desktop\school\Active_Bike_Lighting_System\Radar_Core/Libraries/CMSIS/Include\core_cmSimd.h **** 
 467:C:\Users\Depes Crystalline\Desktop\school\Active_Bike_Lighting_System\Radar_Core/Libraries/CMSIS/Include\core_cmSimd.h ****   __ASM volatile ("uxtab16 %0, %1, %2" : "=r" (result) : "r" (op1), "r" (op2) );
 468:C:\Users\Depes Crystalline\Desktop\school\Active_Bike_Lighting_System\Radar_Core/Libraries/CMSIS/Include\core_cmSimd.h ****   return(result);
 469:C:\Users\Depes Crystalline\Desktop\school\Active_Bike_Lighting_System\Radar_Core/Libraries/CMSIS/Include\core_cmSimd.h **** }
 470:C:\Users\Depes Crystalline\Desktop\school\Active_Bike_Lighting_System\Radar_Core/Libraries/CMSIS/Include\core_cmSimd.h **** 
 471:C:\Users\Depes Crystalline\Desktop\school\Active_Bike_Lighting_System\Radar_Core/Libraries/CMSIS/Include\core_cmSimd.h **** __attribute__( ( always_inline ) ) __STATIC_INLINE uint32_t __SXTB16(uint32_t op1)
 472:C:\Users\Depes Crystalline\Desktop\school\Active_Bike_Lighting_System\Radar_Core/Libraries/CMSIS/Include\core_cmSimd.h **** {
 473:C:\Users\Depes Crystalline\Desktop\school\Active_Bike_Lighting_System\Radar_Core/Libraries/CMSIS/Include\core_cmSimd.h ****   uint32_t result;
 474:C:\Users\Depes Crystalline\Desktop\school\Active_Bike_Lighting_System\Radar_Core/Libraries/CMSIS/Include\core_cmSimd.h **** 
 475:C:\Users\Depes Crystalline\Desktop\school\Active_Bike_Lighting_System\Radar_Core/Libraries/CMSIS/Include\core_cmSimd.h ****   __ASM volatile ("sxtb16 %0, %1" : "=r" (result) : "r" (op1));
 476:C:\Users\Depes Crystalline\Desktop\school\Active_Bike_Lighting_System\Radar_Core/Libraries/CMSIS/Include\core_cmSimd.h ****   return(result);
 477:C:\Users\Depes Crystalline\Desktop\school\Active_Bike_Lighting_System\Radar_Core/Libraries/CMSIS/Include\core_cmSimd.h **** }
 478:C:\Users\Depes Crystalline\Desktop\school\Active_Bike_Lighting_System\Radar_Core/Libraries/CMSIS/Include\core_cmSimd.h **** 
 479:C:\Users\Depes Crystalline\Desktop\school\Active_Bike_Lighting_System\Radar_Core/Libraries/CMSIS/Include\core_cmSimd.h **** __attribute__( ( always_inline ) ) __STATIC_INLINE uint32_t __SXTAB16(uint32_t op1, uint32_t op2)
 480:C:\Users\Depes Crystalline\Desktop\school\Active_Bike_Lighting_System\Radar_Core/Libraries/CMSIS/Include\core_cmSimd.h **** {
 481:C:\Users\Depes Crystalline\Desktop\school\Active_Bike_Lighting_System\Radar_Core/Libraries/CMSIS/Include\core_cmSimd.h ****   uint32_t result;
 482:C:\Users\Depes Crystalline\Desktop\school\Active_Bike_Lighting_System\Radar_Core/Libraries/CMSIS/Include\core_cmSimd.h **** 
 483:C:\Users\Depes Crystalline\Desktop\school\Active_Bike_Lighting_System\Radar_Core/Libraries/CMSIS/Include\core_cmSimd.h ****   __ASM volatile ("sxtab16 %0, %1, %2" : "=r" (result) : "r" (op1), "r" (op2) );
 484:C:\Users\Depes Crystalline\Desktop\school\Active_Bike_Lighting_System\Radar_Core/Libraries/CMSIS/Include\core_cmSimd.h ****   return(result);
 485:C:\Users\Depes Crystalline\Desktop\school\Active_Bike_Lighting_System\Radar_Core/Libraries/CMSIS/Include\core_cmSimd.h **** }
 486:C:\Users\Depes Crystalline\Desktop\school\Active_Bike_Lighting_System\Radar_Core/Libraries/CMSIS/Include\core_cmSimd.h **** 
 487:C:\Users\Depes Crystalline\Desktop\school\Active_Bike_Lighting_System\Radar_Core/Libraries/CMSIS/Include\core_cmSimd.h **** __attribute__( ( always_inline ) ) __STATIC_INLINE uint32_t __SMUAD  (uint32_t op1, uint32_t op2)
 488:C:\Users\Depes Crystalline\Desktop\school\Active_Bike_Lighting_System\Radar_Core/Libraries/CMSIS/Include\core_cmSimd.h **** {
 489:C:\Users\Depes Crystalline\Desktop\school\Active_Bike_Lighting_System\Radar_Core/Libraries/CMSIS/Include\core_cmSimd.h ****   uint32_t result;
 490:C:\Users\Depes Crystalline\Desktop\school\Active_Bike_Lighting_System\Radar_Core/Libraries/CMSIS/Include\core_cmSimd.h **** 
 491:C:\Users\Depes Crystalline\Desktop\school\Active_Bike_Lighting_System\Radar_Core/Libraries/CMSIS/Include\core_cmSimd.h ****   __ASM volatile ("smuad %0, %1, %2" : "=r" (result) : "r" (op1), "r" (op2) );
 492:C:\Users\Depes Crystalline\Desktop\school\Active_Bike_Lighting_System\Radar_Core/Libraries/CMSIS/Include\core_cmSimd.h ****   return(result);
 493:C:\Users\Depes Crystalline\Desktop\school\Active_Bike_Lighting_System\Radar_Core/Libraries/CMSIS/Include\core_cmSimd.h **** }
 494:C:\Users\Depes Crystalline\Desktop\school\Active_Bike_Lighting_System\Radar_Core/Libraries/CMSIS/Include\core_cmSimd.h **** 
 495:C:\Users\Depes Crystalline\Desktop\school\Active_Bike_Lighting_System\Radar_Core/Libraries/CMSIS/Include\core_cmSimd.h **** __attribute__( ( always_inline ) ) __STATIC_INLINE uint32_t __SMUADX (uint32_t op1, uint32_t op2)
 496:C:\Users\Depes Crystalline\Desktop\school\Active_Bike_Lighting_System\Radar_Core/Libraries/CMSIS/Include\core_cmSimd.h **** {
 497:C:\Users\Depes Crystalline\Desktop\school\Active_Bike_Lighting_System\Radar_Core/Libraries/CMSIS/Include\core_cmSimd.h ****   uint32_t result;
 498:C:\Users\Depes Crystalline\Desktop\school\Active_Bike_Lighting_System\Radar_Core/Libraries/CMSIS/Include\core_cmSimd.h **** 
 499:C:\Users\Depes Crystalline\Desktop\school\Active_Bike_Lighting_System\Radar_Core/Libraries/CMSIS/Include\core_cmSimd.h ****   __ASM volatile ("smuadx %0, %1, %2" : "=r" (result) : "r" (op1), "r" (op2) );
 500:C:\Users\Depes Crystalline\Desktop\school\Active_Bike_Lighting_System\Radar_Core/Libraries/CMSIS/Include\core_cmSimd.h ****   return(result);
 501:C:\Users\Depes Crystalline\Desktop\school\Active_Bike_Lighting_System\Radar_Core/Libraries/CMSIS/Include\core_cmSimd.h **** }
 502:C:\Users\Depes Crystalline\Desktop\school\Active_Bike_Lighting_System\Radar_Core/Libraries/CMSIS/Include\core_cmSimd.h **** 
 503:C:\Users\Depes Crystalline\Desktop\school\Active_Bike_Lighting_System\Radar_Core/Libraries/CMSIS/Include\core_cmSimd.h **** __attribute__( ( always_inline ) ) __STATIC_INLINE uint32_t __SMLAD (uint32_t op1, uint32_t op2, ui
 504:C:\Users\Depes Crystalline\Desktop\school\Active_Bike_Lighting_System\Radar_Core/Libraries/CMSIS/Include\core_cmSimd.h **** {
 505:C:\Users\Depes Crystalline\Desktop\school\Active_Bike_Lighting_System\Radar_Core/Libraries/CMSIS/Include\core_cmSimd.h ****   uint32_t result;
 506:C:\Users\Depes Crystalline\Desktop\school\Active_Bike_Lighting_System\Radar_Core/Libraries/CMSIS/Include\core_cmSimd.h **** 
 507:C:\Users\Depes Crystalline\Desktop\school\Active_Bike_Lighting_System\Radar_Core/Libraries/CMSIS/Include\core_cmSimd.h ****   __ASM volatile ("smlad %0, %1, %2, %3" : "=r" (result) : "r" (op1), "r" (op2), "r" (op3) );
 508:C:\Users\Depes Crystalline\Desktop\school\Active_Bike_Lighting_System\Radar_Core/Libraries/CMSIS/Include\core_cmSimd.h ****   return(result);
 509:C:\Users\Depes Crystalline\Desktop\school\Active_Bike_Lighting_System\Radar_Core/Libraries/CMSIS/Include\core_cmSimd.h **** }
 510:C:\Users\Depes Crystalline\Desktop\school\Active_Bike_Lighting_System\Radar_Core/Libraries/CMSIS/Include\core_cmSimd.h **** 
 511:C:\Users\Depes Crystalline\Desktop\school\Active_Bike_Lighting_System\Radar_Core/Libraries/CMSIS/Include\core_cmSimd.h **** __attribute__( ( always_inline ) ) __STATIC_INLINE uint32_t __SMLADX (uint32_t op1, uint32_t op2, u
 512:C:\Users\Depes Crystalline\Desktop\school\Active_Bike_Lighting_System\Radar_Core/Libraries/CMSIS/Include\core_cmSimd.h **** {
 513:C:\Users\Depes Crystalline\Desktop\school\Active_Bike_Lighting_System\Radar_Core/Libraries/CMSIS/Include\core_cmSimd.h ****   uint32_t result;
 514:C:\Users\Depes Crystalline\Desktop\school\Active_Bike_Lighting_System\Radar_Core/Libraries/CMSIS/Include\core_cmSimd.h **** 
 515:C:\Users\Depes Crystalline\Desktop\school\Active_Bike_Lighting_System\Radar_Core/Libraries/CMSIS/Include\core_cmSimd.h ****   __ASM volatile ("smladx %0, %1, %2, %3" : "=r" (result) : "r" (op1), "r" (op2), "r" (op3) );
 516:C:\Users\Depes Crystalline\Desktop\school\Active_Bike_Lighting_System\Radar_Core/Libraries/CMSIS/Include\core_cmSimd.h ****   return(result);
 517:C:\Users\Depes Crystalline\Desktop\school\Active_Bike_Lighting_System\Radar_Core/Libraries/CMSIS/Include\core_cmSimd.h **** }
 518:C:\Users\Depes Crystalline\Desktop\school\Active_Bike_Lighting_System\Radar_Core/Libraries/CMSIS/Include\core_cmSimd.h **** 
 519:C:\Users\Depes Crystalline\Desktop\school\Active_Bike_Lighting_System\Radar_Core/Libraries/CMSIS/Include\core_cmSimd.h **** __attribute__( ( always_inline ) ) __STATIC_INLINE uint64_t __SMLALD (uint32_t op1, uint32_t op2, u
 520:C:\Users\Depes Crystalline\Desktop\school\Active_Bike_Lighting_System\Radar_Core/Libraries/CMSIS/Include\core_cmSimd.h **** {
 521:C:\Users\Depes Crystalline\Desktop\school\Active_Bike_Lighting_System\Radar_Core/Libraries/CMSIS/Include\core_cmSimd.h ****   union llreg_u{
 522:C:\Users\Depes Crystalline\Desktop\school\Active_Bike_Lighting_System\Radar_Core/Libraries/CMSIS/Include\core_cmSimd.h ****     uint32_t w32[2];
 523:C:\Users\Depes Crystalline\Desktop\school\Active_Bike_Lighting_System\Radar_Core/Libraries/CMSIS/Include\core_cmSimd.h ****     uint64_t w64;
 524:C:\Users\Depes Crystalline\Desktop\school\Active_Bike_Lighting_System\Radar_Core/Libraries/CMSIS/Include\core_cmSimd.h ****   } llr;
 525:C:\Users\Depes Crystalline\Desktop\school\Active_Bike_Lighting_System\Radar_Core/Libraries/CMSIS/Include\core_cmSimd.h ****   llr.w64 = acc;
 160              	 .loc 2 525 0
 161 0118 07F15001 	 add r1,r7,#80
 162 011c 07F55473 	 add r3,r7,#848
 163 0120 D3E90023 	 ldrd r2,[r3]
 164 0124 C1E90023 	 strd r2,[r1]
 526:C:\Users\Depes Crystalline\Desktop\school\Active_Bike_Lighting_System\Radar_Core/Libraries/CMSIS/Include\core_cmSimd.h **** 
 527:C:\Users\Depes Crystalline\Desktop\school\Active_Bike_Lighting_System\Radar_Core/Libraries/CMSIS/Include\core_cmSimd.h **** #ifndef __ARMEB__   // Little endian
 528:C:\Users\Depes Crystalline\Desktop\school\Active_Bike_Lighting_System\Radar_Core/Libraries/CMSIS/Include\core_cmSimd.h ****   __ASM volatile ("smlald %0, %1, %2, %3" : "=r" (llr.w32[0]), "=r" (llr.w32[1]): "r" (op1), "r" (o
 165              	 .loc 2 528 0
 166 0128 07F15003 	 add r3,r7,#80
 167 012c 1A68     	 ldr r2,[r3]
 168 012e 07F15003 	 add r3,r7,#80
 169 0132 5968     	 ldr r1,[r3,#4]
 170 0134 D7F85C03 	 ldr r0,[r7,#860]
 171 0138 D7F85833 	 ldr r3,[r7,#856]
 172              	
 173 013c C0FBC321 	 smlald r2,r1,r0,r3
 174              	
 175              	 .thumb
 176 0140 07F15003 	 add r3,r7,#80
 177 0144 1A60     	 str r2,[r3]
 178 0146 07F15003 	 add r3,r7,#80
 179 014a 5960     	 str r1,[r3,#4]
 529:C:\Users\Depes Crystalline\Desktop\school\Active_Bike_Lighting_System\Radar_Core/Libraries/CMSIS/Include\core_cmSimd.h **** #else               // Big endian
 530:C:\Users\Depes Crystalline\Desktop\school\Active_Bike_Lighting_System\Radar_Core/Libraries/CMSIS/Include\core_cmSimd.h ****   __ASM volatile ("smlald %0, %1, %2, %3" : "=r" (llr.w32[1]), "=r" (llr.w32[0]): "r" (op1), "r" (o
 531:C:\Users\Depes Crystalline\Desktop\school\Active_Bike_Lighting_System\Radar_Core/Libraries/CMSIS/Include\core_cmSimd.h **** #endif
 532:C:\Users\Depes Crystalline\Desktop\school\Active_Bike_Lighting_System\Radar_Core/Libraries/CMSIS/Include\core_cmSimd.h **** 
 533:C:\Users\Depes Crystalline\Desktop\school\Active_Bike_Lighting_System\Radar_Core/Libraries/CMSIS/Include\core_cmSimd.h ****   return(llr.w64);
 180              	 .loc 2 533 0
 181 014c 07F15003 	 add r3,r7,#80
 182 0150 D3E90023 	 ldrd r2,[r3]
 183              	.LBE79:
 184              	.LBE78:
 185              	 .loc 1 182 0
 186 0154 07F58461 	 add r1,r7,#1056
 187 0158 C1E90023 	 strd r2,[r1]
 183:../Dave/Generated/CMSIS_DSP/FilteringFunctions/arm_conv_q15.c **** 
 184:../Dave/Generated/CMSIS_DSP/FilteringFunctions/arm_conv_q15.c ****       /* Decrement the loop counter */
 185:../Dave/Generated/CMSIS_DSP/FilteringFunctions/arm_conv_q15.c ****       k--;
 188              	 .loc 1 185 0
 189 015c D7F8E433 	 ldr r3,[r7,#996]
 190 0160 013B     	 subs r3,r3,#1
 191 0162 C7F8E433 	 str r3,[r7,#996]
 192              	.L5:
 179:../Dave/Generated/CMSIS_DSP/FilteringFunctions/arm_conv_q15.c ****     {
 193              	 .loc 1 179 0
 194 0166 D7F8E433 	 ldr r3,[r7,#996]
 195 016a 002B     	 cmp r3,#0
 196 016c B6D1     	 bne .L7
 186:../Dave/Generated/CMSIS_DSP/FilteringFunctions/arm_conv_q15.c ****     }
 187:../Dave/Generated/CMSIS_DSP/FilteringFunctions/arm_conv_q15.c **** 
 188:../Dave/Generated/CMSIS_DSP/FilteringFunctions/arm_conv_q15.c ****     /* Store the result in the accumulator in the destination buffer. */
 189:../Dave/Generated/CMSIS_DSP/FilteringFunctions/arm_conv_q15.c ****     *pOut++ = (q15_t) (__SSAT((sum >> 15), 16));
 197              	 .loc 1 189 0
 198 016e 07F5AE73 	 add r3,r7,#348
 199 0172 1968     	 ldr r1,[r3]
 200 0174 8A1C     	 adds r2,r1,#2
 201 0176 07F5AE73 	 add r3,r7,#348
 202 017a 1A60     	 str r2,[r3]
 203              	.LBB80:
 204 017c 07F58463 	 add r3,r7,#1056
 205 0180 D3E90023 	 ldrd r2,[r3]
 206 0184 4FEAD238 	 lsr r8,r2,#15
 207 0188 48EA4348 	 orr r8,r8,r3,lsl#17
 208 018c 4FEAE339 	 asr r9,r3,#15
 209 0190 4346     	 mov r3,r8
 210 0192 C7F8D433 	 str r3,[r7,#980]
 211 0196 D7F8D433 	 ldr r3,[r7,#980]
 212              	
 213 019a 03F30F03 	 ssat r3,#16,r3
 214              	
 215              	 .thumb
 216 019e C7F8D033 	 str r3,[r7,#976]
 217 01a2 D7F8D033 	 ldr r3,[r7,#976]
 218              	.LBE80:
 219 01a6 9BB2     	 uxth r3,r3
 220 01a8 0B80     	 strh r3,[r1]
 190:../Dave/Generated/CMSIS_DSP/FilteringFunctions/arm_conv_q15.c **** 
 191:../Dave/Generated/CMSIS_DSP/FilteringFunctions/arm_conv_q15.c ****     /* Update the inputA and inputB pointers for next MAC calculation */
 192:../Dave/Generated/CMSIS_DSP/FilteringFunctions/arm_conv_q15.c ****     py = pIn2 + count;
 221              	 .loc 1 192 0
 222 01aa D7F8E033 	 ldr r3,[r7,#992]
 223 01ae 5A00     	 lsls r2,r3,#1
 224 01b0 D7F82834 	 ldr r3,[r7,#1064]
 225 01b4 1A44     	 add r2,r2,r3
 226 01b6 07F5AA73 	 add r3,r7,#340
 227 01ba 1A60     	 str r2,[r3]
 193:../Dave/Generated/CMSIS_DSP/FilteringFunctions/arm_conv_q15.c ****     px = pIn1;
 228              	 .loc 1 193 0
 229 01bc 07F5AC72 	 add r2,r7,#344
 230 01c0 D7F82C34 	 ldr r3,[r7,#1068]
 231 01c4 1360     	 str r3,[r2]
 194:../Dave/Generated/CMSIS_DSP/FilteringFunctions/arm_conv_q15.c **** 
 195:../Dave/Generated/CMSIS_DSP/FilteringFunctions/arm_conv_q15.c ****     /* Increment the MAC count */
 196:../Dave/Generated/CMSIS_DSP/FilteringFunctions/arm_conv_q15.c ****     count++;
 232              	 .loc 1 196 0
 233 01c6 D7F8E033 	 ldr r3,[r7,#992]
 234 01ca 0133     	 adds r3,r3,#1
 235 01cc C7F8E033 	 str r3,[r7,#992]
 197:../Dave/Generated/CMSIS_DSP/FilteringFunctions/arm_conv_q15.c **** 
 198:../Dave/Generated/CMSIS_DSP/FilteringFunctions/arm_conv_q15.c ****     /* Decrement the loop counter */
 199:../Dave/Generated/CMSIS_DSP/FilteringFunctions/arm_conv_q15.c ****     blockSize1--;
 236              	 .loc 1 199 0
 237 01d0 D7F8F033 	 ldr r3,[r7,#1008]
 238 01d4 013B     	 subs r3,r3,#1
 239 01d6 C7F8F033 	 str r3,[r7,#1008]
 240              	.L4:
 170:../Dave/Generated/CMSIS_DSP/FilteringFunctions/arm_conv_q15.c ****   {
 241              	 .loc 1 170 0
 242 01da D7F8E033 	 ldr r3,[r7,#992]
 243 01de 032B     	 cmp r3,#3
 244 01e0 04D8     	 bhi .L8
 170:../Dave/Generated/CMSIS_DSP/FilteringFunctions/arm_conv_q15.c ****   {
 245              	 .loc 1 170 0 is_stmt 0 discriminator 1
 246 01e2 D7F8F033 	 ldr r3,[r7,#1008]
 247 01e6 002B     	 cmp r3,#0
 248 01e8 7FF46BAF 	 bne .L9
 249              	.L8:
 200:../Dave/Generated/CMSIS_DSP/FilteringFunctions/arm_conv_q15.c ****   }
 201:../Dave/Generated/CMSIS_DSP/FilteringFunctions/arm_conv_q15.c **** 
 202:../Dave/Generated/CMSIS_DSP/FilteringFunctions/arm_conv_q15.c ****   /* The second part of the stage starts here */
 203:../Dave/Generated/CMSIS_DSP/FilteringFunctions/arm_conv_q15.c ****   /* The internal loop, over count, is unrolled by 4 */
 204:../Dave/Generated/CMSIS_DSP/FilteringFunctions/arm_conv_q15.c ****   /* To, read the last two inputB samples using SIMD:   
 205:../Dave/Generated/CMSIS_DSP/FilteringFunctions/arm_conv_q15.c ****    * y[srcBLen] and y[srcBLen-1] coefficients, py is decremented by 1 */
 206:../Dave/Generated/CMSIS_DSP/FilteringFunctions/arm_conv_q15.c ****   py = py - 1;
 250              	 .loc 1 206 0 is_stmt 1
 251 01ec 07F5AA73 	 add r3,r7,#340
 252 01f0 1B68     	 ldr r3,[r3]
 253 01f2 9A1E     	 subs r2,r3,#2
 254 01f4 07F5AA73 	 add r3,r7,#340
 255 01f8 1A60     	 str r2,[r3]
 207:../Dave/Generated/CMSIS_DSP/FilteringFunctions/arm_conv_q15.c **** 
 208:../Dave/Generated/CMSIS_DSP/FilteringFunctions/arm_conv_q15.c ****   while(blockSize1 > 0u)
 256              	 .loc 1 208 0
 257 01fa 24E1     	 b .L10
 258              	.L18:
 209:../Dave/Generated/CMSIS_DSP/FilteringFunctions/arm_conv_q15.c ****   {
 210:../Dave/Generated/CMSIS_DSP/FilteringFunctions/arm_conv_q15.c ****     /* Accumulator is made zero for every iteration */
 211:../Dave/Generated/CMSIS_DSP/FilteringFunctions/arm_conv_q15.c ****     sum = 0;
 259              	 .loc 1 211 0
 260 01fc 4FF00002 	 mov r2,#0
 261 0200 4FF00003 	 mov r3,#0
 262 0204 07F58461 	 add r1,r7,#1056
 263 0208 C1E90023 	 strd r2,[r1]
 212:../Dave/Generated/CMSIS_DSP/FilteringFunctions/arm_conv_q15.c **** 
 213:../Dave/Generated/CMSIS_DSP/FilteringFunctions/arm_conv_q15.c ****     /* Apply loop unrolling and compute 4 MACs simultaneously. */
 214:../Dave/Generated/CMSIS_DSP/FilteringFunctions/arm_conv_q15.c ****     k = count >> 2u;
 264              	 .loc 1 214 0
 265 020c D7F8E033 	 ldr r3,[r7,#992]
 266 0210 9B08     	 lsrs r3,r3,#2
 267 0212 C7F8E433 	 str r3,[r7,#996]
 215:../Dave/Generated/CMSIS_DSP/FilteringFunctions/arm_conv_q15.c **** 
 216:../Dave/Generated/CMSIS_DSP/FilteringFunctions/arm_conv_q15.c ****     /* First part of the processing with loop unrolling.  Compute 4 MACs at a time.   
 217:../Dave/Generated/CMSIS_DSP/FilteringFunctions/arm_conv_q15.c ****      ** a second loop below computes MACs for the remaining 1 to 3 samples. */
 218:../Dave/Generated/CMSIS_DSP/FilteringFunctions/arm_conv_q15.c ****     while(k > 0u)
 268              	 .loc 1 218 0
 269 0216 7BE0     	 b .L11
 270              	.L14:
 219:../Dave/Generated/CMSIS_DSP/FilteringFunctions/arm_conv_q15.c ****     {
 220:../Dave/Generated/CMSIS_DSP/FilteringFunctions/arm_conv_q15.c ****       /* Perform the multiply-accumulates */
 221:../Dave/Generated/CMSIS_DSP/FilteringFunctions/arm_conv_q15.c ****       /* x[0], x[1] are multiplied with y[srcBLen - 1], y[srcBLen - 2] respectively */
 222:../Dave/Generated/CMSIS_DSP/FilteringFunctions/arm_conv_q15.c ****       sum = __SMLALDX(*__SIMD32(px)++, *__SIMD32(py)--, sum);
 271              	 .loc 1 222 0
 272 0218 07F5AC71 	 add r1,r7,#344
 273 021c 0A68     	 ldr r2,[r1]
 274 021e 131D     	 adds r3,r2,#4
 275 0220 0B60     	 str r3,[r1]
 276 0222 1368     	 ldr r3,[r2]
 277 0224 1846     	 mov r0,r3
 278 0226 07F5AA71 	 add r1,r7,#340
 279 022a 0A68     	 ldr r2,[r1]
 280 022c 131F     	 subs r3,r2,#4
 281 022e 0B60     	 str r3,[r1]
 282 0230 1368     	 ldr r3,[r2]
 283 0232 1946     	 mov r1,r3
 284 0234 07F58463 	 add r3,r7,#1056
 285 0238 D3E90023 	 ldrd r2,[r3]
 286 023c C7F84C03 	 str r0,[r7,#844]
 287 0240 C7F84813 	 str r1,[r7,#840]
 288 0244 07F55071 	 add r1,r7,#832
 289 0248 C1E90023 	 strd r2,[r1]
 290              	.LBB81:
 291              	.LBB82:
 534:C:\Users\Depes Crystalline\Desktop\school\Active_Bike_Lighting_System\Radar_Core/Libraries/CMSIS/Include\core_cmSimd.h **** }
 535:C:\Users\Depes Crystalline\Desktop\school\Active_Bike_Lighting_System\Radar_Core/Libraries/CMSIS/Include\core_cmSimd.h **** 
 536:C:\Users\Depes Crystalline\Desktop\school\Active_Bike_Lighting_System\Radar_Core/Libraries/CMSIS/Include\core_cmSimd.h **** __attribute__( ( always_inline ) ) __STATIC_INLINE uint64_t __SMLALDX (uint32_t op1, uint32_t op2, 
 537:C:\Users\Depes Crystalline\Desktop\school\Active_Bike_Lighting_System\Radar_Core/Libraries/CMSIS/Include\core_cmSimd.h **** {
 538:C:\Users\Depes Crystalline\Desktop\school\Active_Bike_Lighting_System\Radar_Core/Libraries/CMSIS/Include\core_cmSimd.h ****   union llreg_u{
 539:C:\Users\Depes Crystalline\Desktop\school\Active_Bike_Lighting_System\Radar_Core/Libraries/CMSIS/Include\core_cmSimd.h ****     uint32_t w32[2];
 540:C:\Users\Depes Crystalline\Desktop\school\Active_Bike_Lighting_System\Radar_Core/Libraries/CMSIS/Include\core_cmSimd.h ****     uint64_t w64;
 541:C:\Users\Depes Crystalline\Desktop\school\Active_Bike_Lighting_System\Radar_Core/Libraries/CMSIS/Include\core_cmSimd.h ****   } llr;
 542:C:\Users\Depes Crystalline\Desktop\school\Active_Bike_Lighting_System\Radar_Core/Libraries/CMSIS/Include\core_cmSimd.h ****   llr.w64 = acc;
 292              	 .loc 2 542 0
 293 024c 07F15801 	 add r1,r7,#88
 294 0250 07F55073 	 add r3,r7,#832
 295 0254 D3E90023 	 ldrd r2,[r3]
 296 0258 C1E90023 	 strd r2,[r1]
 543:C:\Users\Depes Crystalline\Desktop\school\Active_Bike_Lighting_System\Radar_Core/Libraries/CMSIS/Include\core_cmSimd.h **** 
 544:C:\Users\Depes Crystalline\Desktop\school\Active_Bike_Lighting_System\Radar_Core/Libraries/CMSIS/Include\core_cmSimd.h **** #ifndef __ARMEB__   // Little endian
 545:C:\Users\Depes Crystalline\Desktop\school\Active_Bike_Lighting_System\Radar_Core/Libraries/CMSIS/Include\core_cmSimd.h ****   __ASM volatile ("smlaldx %0, %1, %2, %3" : "=r" (llr.w32[0]), "=r" (llr.w32[1]): "r" (op1), "r" (
 297              	 .loc 2 545 0
 298 025c 07F15803 	 add r3,r7,#88
 299 0260 1A68     	 ldr r2,[r3]
 300 0262 07F15803 	 add r3,r7,#88
 301 0266 5968     	 ldr r1,[r3,#4]
 302 0268 D7F84C03 	 ldr r0,[r7,#844]
 303 026c D7F84833 	 ldr r3,[r7,#840]
 304              	
 305 0270 C0FBD321 	 smlaldx r2,r1,r0,r3
 306              	
 307              	 .thumb
 308 0274 07F15803 	 add r3,r7,#88
 309 0278 1A60     	 str r2,[r3]
 310 027a 07F15803 	 add r3,r7,#88
 311 027e 5960     	 str r1,[r3,#4]
 546:C:\Users\Depes Crystalline\Desktop\school\Active_Bike_Lighting_System\Radar_Core/Libraries/CMSIS/Include\core_cmSimd.h **** #else               // Big endian
 547:C:\Users\Depes Crystalline\Desktop\school\Active_Bike_Lighting_System\Radar_Core/Libraries/CMSIS/Include\core_cmSimd.h ****   __ASM volatile ("smlaldx %0, %1, %2, %3" : "=r" (llr.w32[1]), "=r" (llr.w32[0]): "r" (op1), "r" (
 548:C:\Users\Depes Crystalline\Desktop\school\Active_Bike_Lighting_System\Radar_Core/Libraries/CMSIS/Include\core_cmSimd.h **** #endif
 549:C:\Users\Depes Crystalline\Desktop\school\Active_Bike_Lighting_System\Radar_Core/Libraries/CMSIS/Include\core_cmSimd.h **** 
 550:C:\Users\Depes Crystalline\Desktop\school\Active_Bike_Lighting_System\Radar_Core/Libraries/CMSIS/Include\core_cmSimd.h ****   return(llr.w64);
 312              	 .loc 2 550 0
 313 0280 07F15803 	 add r3,r7,#88
 314 0284 D3E90023 	 ldrd r2,[r3]
 315              	.LBE82:
 316              	.LBE81:
 317              	 .loc 1 222 0
 318 0288 07F58461 	 add r1,r7,#1056
 319 028c C1E90023 	 strd r2,[r1]
 223:../Dave/Generated/CMSIS_DSP/FilteringFunctions/arm_conv_q15.c ****       /* x[2], x[3] are multiplied with y[srcBLen - 3], y[srcBLen - 4] respectively */
 224:../Dave/Generated/CMSIS_DSP/FilteringFunctions/arm_conv_q15.c ****       sum = __SMLALDX(*__SIMD32(px)++, *__SIMD32(py)--, sum);
 320              	 .loc 1 224 0
 321 0290 07F5AC71 	 add r1,r7,#344
 322 0294 0A68     	 ldr r2,[r1]
 323 0296 131D     	 adds r3,r2,#4
 324 0298 0B60     	 str r3,[r1]
 325 029a 1368     	 ldr r3,[r2]
 326 029c 1C46     	 mov r4,r3
 327 029e 07F5AA71 	 add r1,r7,#340
 328 02a2 0A68     	 ldr r2,[r1]
 329 02a4 131F     	 subs r3,r2,#4
 330 02a6 0B60     	 str r3,[r1]
 331 02a8 1368     	 ldr r3,[r2]
 332 02aa 07F58462 	 add r2,r7,#1056
 333 02ae D2E90001 	 ldrd r0,[r2]
 334 02b2 C7F83C43 	 str r4,[r7,#828]
 335 02b6 C7F83833 	 str r3,[r7,#824]
 336 02ba 07F54C73 	 add r3,r7,#816
 337 02be C3E90001 	 strd r0,[r3]
 338              	.LBB83:
 339              	.LBB84:
 542:C:\Users\Depes Crystalline\Desktop\school\Active_Bike_Lighting_System\Radar_Core/Libraries/CMSIS/Include\core_cmSimd.h **** 
 340              	 .loc 2 542 0
 341 02c2 07F16001 	 add r1,r7,#96
 342 02c6 07F54C73 	 add r3,r7,#816
 343 02ca D3E90023 	 ldrd r2,[r3]
 344 02ce C1E90023 	 strd r2,[r1]
 545:C:\Users\Depes Crystalline\Desktop\school\Active_Bike_Lighting_System\Radar_Core/Libraries/CMSIS/Include\core_cmSimd.h **** #else               // Big endian
 345              	 .loc 2 545 0
 346 02d2 07F16003 	 add r3,r7,#96
 347 02d6 1A68     	 ldr r2,[r3]
 348 02d8 07F16003 	 add r3,r7,#96
 349 02dc 5968     	 ldr r1,[r3,#4]
 350 02de D7F83C03 	 ldr r0,[r7,#828]
 351 02e2 D7F83833 	 ldr r3,[r7,#824]
 352              	
 353 02e6 C0FBD321 	 smlaldx r2,r1,r0,r3
 354              	
 355              	 .thumb
 356 02ea 07F16003 	 add r3,r7,#96
 357 02ee 1A60     	 str r2,[r3]
 358 02f0 07F16003 	 add r3,r7,#96
 359 02f4 5960     	 str r1,[r3,#4]
 360              	 .loc 2 550 0
 361 02f6 07F16003 	 add r3,r7,#96
 362 02fa D3E90023 	 ldrd r2,[r3]
 363              	.LBE84:
 364              	.LBE83:
 365              	 .loc 1 224 0
 366 02fe 07F58461 	 add r1,r7,#1056
 367 0302 C1E90023 	 strd r2,[r1]
 225:../Dave/Generated/CMSIS_DSP/FilteringFunctions/arm_conv_q15.c **** 
 226:../Dave/Generated/CMSIS_DSP/FilteringFunctions/arm_conv_q15.c ****       /* Decrement the loop counter */
 227:../Dave/Generated/CMSIS_DSP/FilteringFunctions/arm_conv_q15.c ****       k--;
 368              	 .loc 1 227 0
 369 0306 D7F8E433 	 ldr r3,[r7,#996]
 370 030a 013B     	 subs r3,r3,#1
 371 030c C7F8E433 	 str r3,[r7,#996]
 372              	.L11:
 218:../Dave/Generated/CMSIS_DSP/FilteringFunctions/arm_conv_q15.c ****     {
 373              	 .loc 1 218 0
 374 0310 D7F8E433 	 ldr r3,[r7,#996]
 375 0314 002B     	 cmp r3,#0
 376 0316 7FF47FAF 	 bne .L14
 228:../Dave/Generated/CMSIS_DSP/FilteringFunctions/arm_conv_q15.c ****     }
 229:../Dave/Generated/CMSIS_DSP/FilteringFunctions/arm_conv_q15.c **** 
 230:../Dave/Generated/CMSIS_DSP/FilteringFunctions/arm_conv_q15.c ****     /* For the next MAC operations, the pointer py is used without SIMD   
 231:../Dave/Generated/CMSIS_DSP/FilteringFunctions/arm_conv_q15.c ****      * So, py is incremented by 1 */
 232:../Dave/Generated/CMSIS_DSP/FilteringFunctions/arm_conv_q15.c ****     py = py + 1u;
 377              	 .loc 1 232 0
 378 031a 07F5AA73 	 add r3,r7,#340
 379 031e 1B68     	 ldr r3,[r3]
 380 0320 9A1C     	 adds r2,r3,#2
 381 0322 07F5AA73 	 add r3,r7,#340
 382 0326 1A60     	 str r2,[r3]
 233:../Dave/Generated/CMSIS_DSP/FilteringFunctions/arm_conv_q15.c **** 
 234:../Dave/Generated/CMSIS_DSP/FilteringFunctions/arm_conv_q15.c ****     /* If the count is not a multiple of 4, compute any remaining MACs here.   
 235:../Dave/Generated/CMSIS_DSP/FilteringFunctions/arm_conv_q15.c ****      ** No loop unrolling is used. */
 236:../Dave/Generated/CMSIS_DSP/FilteringFunctions/arm_conv_q15.c ****     k = count % 0x4u;
 383              	 .loc 1 236 0
 384 0328 D7F8E033 	 ldr r3,[r7,#992]
 385 032c 03F00303 	 and r3,r3,#3
 386 0330 C7F8E433 	 str r3,[r7,#996]
 237:../Dave/Generated/CMSIS_DSP/FilteringFunctions/arm_conv_q15.c **** 
 238:../Dave/Generated/CMSIS_DSP/FilteringFunctions/arm_conv_q15.c ****     while(k > 0u)
 387              	 .loc 1 238 0
 388 0334 48E0     	 b .L15
 389              	.L17:
 239:../Dave/Generated/CMSIS_DSP/FilteringFunctions/arm_conv_q15.c ****     {
 240:../Dave/Generated/CMSIS_DSP/FilteringFunctions/arm_conv_q15.c ****       /* Perform the multiply-accumulates */
 241:../Dave/Generated/CMSIS_DSP/FilteringFunctions/arm_conv_q15.c ****       sum = __SMLALD(*px++, *py--, sum);
 390              	 .loc 1 241 0
 391 0336 07F5AC73 	 add r3,r7,#344
 392 033a 1968     	 ldr r1,[r3]
 393 033c 8A1C     	 adds r2,r1,#2
 394 033e 07F5AC73 	 add r3,r7,#344
 395 0342 1A60     	 str r2,[r3]
 396 0344 0B88     	 ldrh r3,[r1]
 397 0346 1CB2     	 sxth r4,r3
 398 0348 07F5AA73 	 add r3,r7,#340
 399 034c 1968     	 ldr r1,[r3]
 400 034e 8A1E     	 subs r2,r1,#2
 401 0350 07F5AA73 	 add r3,r7,#340
 402 0354 1A60     	 str r2,[r3]
 403 0356 0B88     	 ldrh r3,[r1]
 404 0358 1AB2     	 sxth r2,r3
 405 035a 07F58463 	 add r3,r7,#1056
 406 035e D3E90001 	 ldrd r0,[r3]
 407 0362 07F54B73 	 add r3,r7,#812
 408 0366 1C60     	 str r4,[r3]
 409 0368 07F54A73 	 add r3,r7,#808
 410 036c 1A60     	 str r2,[r3]
 411 036e 07F54873 	 add r3,r7,#800
 412 0372 C3E90001 	 strd r0,[r3]
 413              	.LBB85:
 414              	.LBB86:
 525:C:\Users\Depes Crystalline\Desktop\school\Active_Bike_Lighting_System\Radar_Core/Libraries/CMSIS/Include\core_cmSimd.h **** 
 415              	 .loc 2 525 0
 416 0376 07F16801 	 add r1,r7,#104
 417 037a 07F54873 	 add r3,r7,#800
 418 037e D3E90023 	 ldrd r2,[r3]
 419 0382 C1E90023 	 strd r2,[r1]
 528:C:\Users\Depes Crystalline\Desktop\school\Active_Bike_Lighting_System\Radar_Core/Libraries/CMSIS/Include\core_cmSimd.h **** #else               // Big endian
 420              	 .loc 2 528 0
 421 0386 07F16803 	 add r3,r7,#104
 422 038a 1A68     	 ldr r2,[r3]
 423 038c 07F16803 	 add r3,r7,#104
 424 0390 5968     	 ldr r1,[r3,#4]
 425 0392 07F54B73 	 add r3,r7,#812
 426 0396 1868     	 ldr r0,[r3]
 427 0398 07F54A73 	 add r3,r7,#808
 428 039c 1B68     	 ldr r3,[r3]
 429              	
 430 039e C0FBC321 	 smlald r2,r1,r0,r3
 431              	
 432              	 .thumb
 433 03a2 07F16803 	 add r3,r7,#104
 434 03a6 1A60     	 str r2,[r3]
 435 03a8 07F16803 	 add r3,r7,#104
 436 03ac 5960     	 str r1,[r3,#4]
 533:C:\Users\Depes Crystalline\Desktop\school\Active_Bike_Lighting_System\Radar_Core/Libraries/CMSIS/Include\core_cmSimd.h **** }
 437              	 .loc 2 533 0
 438 03ae 07F16803 	 add r3,r7,#104
 439 03b2 D3E90023 	 ldrd r2,[r3]
 440              	.LBE86:
 441              	.LBE85:
 442              	 .loc 1 241 0
 443 03b6 07F58461 	 add r1,r7,#1056
 444 03ba C1E90023 	 strd r2,[r1]
 242:../Dave/Generated/CMSIS_DSP/FilteringFunctions/arm_conv_q15.c **** 
 243:../Dave/Generated/CMSIS_DSP/FilteringFunctions/arm_conv_q15.c ****       /* Decrement the loop counter */
 244:../Dave/Generated/CMSIS_DSP/FilteringFunctions/arm_conv_q15.c ****       k--;
 445              	 .loc 1 244 0
 446 03be D7F8E433 	 ldr r3,[r7,#996]
 447 03c2 013B     	 subs r3,r3,#1
 448 03c4 C7F8E433 	 str r3,[r7,#996]
 449              	.L15:
 238:../Dave/Generated/CMSIS_DSP/FilteringFunctions/arm_conv_q15.c ****     {
 450              	 .loc 1 238 0
 451 03c8 D7F8E433 	 ldr r3,[r7,#996]
 452 03cc 002B     	 cmp r3,#0
 453 03ce B2D1     	 bne .L17
 245:../Dave/Generated/CMSIS_DSP/FilteringFunctions/arm_conv_q15.c ****     }
 246:../Dave/Generated/CMSIS_DSP/FilteringFunctions/arm_conv_q15.c **** 
 247:../Dave/Generated/CMSIS_DSP/FilteringFunctions/arm_conv_q15.c ****     /* Store the result in the accumulator in the destination buffer. */
 248:../Dave/Generated/CMSIS_DSP/FilteringFunctions/arm_conv_q15.c ****     *pOut++ = (q15_t) (__SSAT((sum >> 15), 16));
 454              	 .loc 1 248 0
 455 03d0 07F5AE73 	 add r3,r7,#348
 456 03d4 1968     	 ldr r1,[r3]
 457 03d6 8A1C     	 adds r2,r1,#2
 458 03d8 07F5AE73 	 add r3,r7,#348
 459 03dc 1A60     	 str r2,[r3]
 460              	.LBB87:
 461 03de 07F58463 	 add r3,r7,#1056
 462 03e2 D3E90023 	 ldrd r2,[r3]
 463 03e6 D00B     	 lsrs r0,r2,#15
 464 03e8 B863     	 str r0,[r7,#56]
 465 03ea B86B     	 ldr r0,[r7,#56]
 466 03ec 40EA4340 	 orr r0,r0,r3,lsl#17
 467 03f0 B863     	 str r0,[r7,#56]
 468 03f2 DB13     	 asrs r3,r3,#15
 469 03f4 FB63     	 str r3,[r7,#60]
 470 03f6 BB6B     	 ldr r3,[r7,#56]
 471 03f8 C7F8CC33 	 str r3,[r7,#972]
 472 03fc D7F8CC33 	 ldr r3,[r7,#972]
 473              	
 474 0400 03F30F03 	 ssat r3,#16,r3
 475              	
 476              	 .thumb
 477 0404 C7F8C833 	 str r3,[r7,#968]
 478 0408 D7F8C833 	 ldr r3,[r7,#968]
 479              	.LBE87:
 480 040c 9BB2     	 uxth r3,r3
 481 040e 0B80     	 strh r3,[r1]
 249:../Dave/Generated/CMSIS_DSP/FilteringFunctions/arm_conv_q15.c **** 
 250:../Dave/Generated/CMSIS_DSP/FilteringFunctions/arm_conv_q15.c ****     /* Update the inputA and inputB pointers for next MAC calculation */
 251:../Dave/Generated/CMSIS_DSP/FilteringFunctions/arm_conv_q15.c ****     py = pIn2 + (count - 1u);
 482              	 .loc 1 251 0
 483 0410 D7F8E033 	 ldr r3,[r7,#992]
 484 0414 03F10043 	 add r3,r3,#-2147483648
 485 0418 013B     	 subs r3,r3,#1
 486 041a 5A00     	 lsls r2,r3,#1
 487 041c D7F82834 	 ldr r3,[r7,#1064]
 488 0420 1A44     	 add r2,r2,r3
 489 0422 07F5AA73 	 add r3,r7,#340
 490 0426 1A60     	 str r2,[r3]
 252:../Dave/Generated/CMSIS_DSP/FilteringFunctions/arm_conv_q15.c ****     px = pIn1;
 491              	 .loc 1 252 0
 492 0428 07F5AC72 	 add r2,r7,#344
 493 042c D7F82C34 	 ldr r3,[r7,#1068]
 494 0430 1360     	 str r3,[r2]
 253:../Dave/Generated/CMSIS_DSP/FilteringFunctions/arm_conv_q15.c **** 
 254:../Dave/Generated/CMSIS_DSP/FilteringFunctions/arm_conv_q15.c ****     /* Increment the MAC count */
 255:../Dave/Generated/CMSIS_DSP/FilteringFunctions/arm_conv_q15.c ****     count++;
 495              	 .loc 1 255 0
 496 0432 D7F8E033 	 ldr r3,[r7,#992]
 497 0436 0133     	 adds r3,r3,#1
 498 0438 C7F8E033 	 str r3,[r7,#992]
 256:../Dave/Generated/CMSIS_DSP/FilteringFunctions/arm_conv_q15.c **** 
 257:../Dave/Generated/CMSIS_DSP/FilteringFunctions/arm_conv_q15.c ****     /* Decrement the loop counter */
 258:../Dave/Generated/CMSIS_DSP/FilteringFunctions/arm_conv_q15.c ****     blockSize1--;
 499              	 .loc 1 258 0
 500 043c D7F8F033 	 ldr r3,[r7,#1008]
 501 0440 013B     	 subs r3,r3,#1
 502 0442 C7F8F033 	 str r3,[r7,#1008]
 503              	.L10:
 208:../Dave/Generated/CMSIS_DSP/FilteringFunctions/arm_conv_q15.c ****   {
 504              	 .loc 1 208 0
 505 0446 D7F8F033 	 ldr r3,[r7,#1008]
 506 044a 002B     	 cmp r3,#0
 507 044c 7FF4D6AE 	 bne .L18
 259:../Dave/Generated/CMSIS_DSP/FilteringFunctions/arm_conv_q15.c ****   }
 260:../Dave/Generated/CMSIS_DSP/FilteringFunctions/arm_conv_q15.c **** 
 261:../Dave/Generated/CMSIS_DSP/FilteringFunctions/arm_conv_q15.c ****   /* --------------------------   
 262:../Dave/Generated/CMSIS_DSP/FilteringFunctions/arm_conv_q15.c ****    * Initializations of stage2   
 263:../Dave/Generated/CMSIS_DSP/FilteringFunctions/arm_conv_q15.c ****    * ------------------------*/
 264:../Dave/Generated/CMSIS_DSP/FilteringFunctions/arm_conv_q15.c **** 
 265:../Dave/Generated/CMSIS_DSP/FilteringFunctions/arm_conv_q15.c ****   /* sum = x[0] * y[srcBLen-1] + x[1] * y[srcBLen-2] +...+ x[srcBLen-1] * y[0]   
 266:../Dave/Generated/CMSIS_DSP/FilteringFunctions/arm_conv_q15.c ****    * sum = x[1] * y[srcBLen-1] + x[2] * y[srcBLen-2] +...+ x[srcBLen] * y[0]   
 267:../Dave/Generated/CMSIS_DSP/FilteringFunctions/arm_conv_q15.c ****    * ....   
 268:../Dave/Generated/CMSIS_DSP/FilteringFunctions/arm_conv_q15.c ****    * sum = x[srcALen-srcBLen-2] * y[srcBLen-1] + x[srcALen] * y[srcBLen-2] +...+ x[srcALen-1] * y[0
 269:../Dave/Generated/CMSIS_DSP/FilteringFunctions/arm_conv_q15.c ****    */
 270:../Dave/Generated/CMSIS_DSP/FilteringFunctions/arm_conv_q15.c **** 
 271:../Dave/Generated/CMSIS_DSP/FilteringFunctions/arm_conv_q15.c ****   /* Working pointer of inputA */
 272:../Dave/Generated/CMSIS_DSP/FilteringFunctions/arm_conv_q15.c ****   px = pIn1;
 508              	 .loc 1 272 0
 509 0450 07F5AC72 	 add r2,r7,#344
 510 0454 D7F82C34 	 ldr r3,[r7,#1068]
 511 0458 1360     	 str r3,[r2]
 273:../Dave/Generated/CMSIS_DSP/FilteringFunctions/arm_conv_q15.c **** 
 274:../Dave/Generated/CMSIS_DSP/FilteringFunctions/arm_conv_q15.c ****   /* Working pointer of inputB */
 275:../Dave/Generated/CMSIS_DSP/FilteringFunctions/arm_conv_q15.c ****   pSrc2 = pIn2 + (srcBLen - 1u);
 512              	 .loc 1 275 0
 513 045a 07F14003 	 add r3,r7,#64
 514 045e 1B68     	 ldr r3,[r3]
 515 0460 03F10043 	 add r3,r3,#-2147483648
 516 0464 013B     	 subs r3,r3,#1
 517 0466 5A00     	 lsls r2,r3,#1
 518 0468 D7F82834 	 ldr r3,[r7,#1064]
 519 046c 1344     	 add r3,r3,r2
 520 046e C7F8C433 	 str r3,[r7,#964]
 276:../Dave/Generated/CMSIS_DSP/FilteringFunctions/arm_conv_q15.c ****   py = pSrc2;
 521              	 .loc 1 276 0
 522 0472 07F5AA72 	 add r2,r7,#340
 523 0476 D7F8C433 	 ldr r3,[r7,#964]
 524 047a 1360     	 str r3,[r2]
 277:../Dave/Generated/CMSIS_DSP/FilteringFunctions/arm_conv_q15.c **** 
 278:../Dave/Generated/CMSIS_DSP/FilteringFunctions/arm_conv_q15.c ****   /* count is the index by which the pointer pIn1 to be incremented */
 279:../Dave/Generated/CMSIS_DSP/FilteringFunctions/arm_conv_q15.c ****   count = 0u;
 525              	 .loc 1 279 0
 526 047c 0023     	 movs r3,#0
 527 047e C7F8E033 	 str r3,[r7,#992]
 280:../Dave/Generated/CMSIS_DSP/FilteringFunctions/arm_conv_q15.c **** 
 281:../Dave/Generated/CMSIS_DSP/FilteringFunctions/arm_conv_q15.c **** 
 282:../Dave/Generated/CMSIS_DSP/FilteringFunctions/arm_conv_q15.c ****   /* --------------------   
 283:../Dave/Generated/CMSIS_DSP/FilteringFunctions/arm_conv_q15.c ****    * Stage2 process   
 284:../Dave/Generated/CMSIS_DSP/FilteringFunctions/arm_conv_q15.c ****    * -------------------*/
 285:../Dave/Generated/CMSIS_DSP/FilteringFunctions/arm_conv_q15.c **** 
 286:../Dave/Generated/CMSIS_DSP/FilteringFunctions/arm_conv_q15.c ****   /* Stage2 depends on srcBLen as in this stage srcBLen number of MACS are performed.   
 287:../Dave/Generated/CMSIS_DSP/FilteringFunctions/arm_conv_q15.c ****    * So, to loop unroll over blockSize2,   
 288:../Dave/Generated/CMSIS_DSP/FilteringFunctions/arm_conv_q15.c ****    * srcBLen should be greater than or equal to 4 */
 289:../Dave/Generated/CMSIS_DSP/FilteringFunctions/arm_conv_q15.c ****   if(srcBLen >= 4u)
 528              	 .loc 1 289 0
 529 0482 07F14003 	 add r3,r7,#64
 530 0486 1B68     	 ldr r3,[r3]
 531 0488 032B     	 cmp r3,#3
 532 048a 40F2C587 	 bls .L19
 290:../Dave/Generated/CMSIS_DSP/FilteringFunctions/arm_conv_q15.c ****   {
 291:../Dave/Generated/CMSIS_DSP/FilteringFunctions/arm_conv_q15.c ****     /* Loop unroll over blockSize2, by 4 */
 292:../Dave/Generated/CMSIS_DSP/FilteringFunctions/arm_conv_q15.c ****     blkCnt = blockSize2 >> 2u;
 533              	 .loc 1 292 0
 534 048e D7F8D833 	 ldr r3,[r7,#984]
 535 0492 9B08     	 lsrs r3,r3,#2
 536 0494 C7F8DC33 	 str r3,[r7,#988]
 293:../Dave/Generated/CMSIS_DSP/FilteringFunctions/arm_conv_q15.c **** 
 294:../Dave/Generated/CMSIS_DSP/FilteringFunctions/arm_conv_q15.c ****     while(blkCnt > 0u)
 537              	 .loc 1 294 0
 538 0498 00F0A0BE 	 b .L20
 539              	.L49:
 295:../Dave/Generated/CMSIS_DSP/FilteringFunctions/arm_conv_q15.c ****     {
 296:../Dave/Generated/CMSIS_DSP/FilteringFunctions/arm_conv_q15.c ****       py = py - 1u;
 540              	 .loc 1 296 0
 541 049c 07F5AA73 	 add r3,r7,#340
 542 04a0 1B68     	 ldr r3,[r3]
 543 04a2 9A1E     	 subs r2,r3,#2
 544 04a4 07F5AA73 	 add r3,r7,#340
 545 04a8 1A60     	 str r2,[r3]
 297:../Dave/Generated/CMSIS_DSP/FilteringFunctions/arm_conv_q15.c **** 
 298:../Dave/Generated/CMSIS_DSP/FilteringFunctions/arm_conv_q15.c ****       /* Set all accumulators to zero */
 299:../Dave/Generated/CMSIS_DSP/FilteringFunctions/arm_conv_q15.c ****       acc0 = 0;
 546              	 .loc 1 299 0
 547 04aa 4FF00002 	 mov r2,#0
 548 04ae 4FF00003 	 mov r3,#0
 549 04b2 07F58361 	 add r1,r7,#1048
 550 04b6 C1E90023 	 strd r2,[r1]
 300:../Dave/Generated/CMSIS_DSP/FilteringFunctions/arm_conv_q15.c ****       acc1 = 0;
 551              	 .loc 1 300 0
 552 04ba 4FF00002 	 mov r2,#0
 553 04be 4FF00003 	 mov r3,#0
 554 04c2 07F58261 	 add r1,r7,#1040
 555 04c6 C1E90023 	 strd r2,[r1]
 301:../Dave/Generated/CMSIS_DSP/FilteringFunctions/arm_conv_q15.c ****       acc2 = 0;
 556              	 .loc 1 301 0
 557 04ca 4FF00002 	 mov r2,#0
 558 04ce 4FF00003 	 mov r3,#0
 559 04d2 07F58161 	 add r1,r7,#1032
 560 04d6 C1E90023 	 strd r2,[r1]
 302:../Dave/Generated/CMSIS_DSP/FilteringFunctions/arm_conv_q15.c ****       acc3 = 0;
 561              	 .loc 1 302 0
 562 04da 4FF00002 	 mov r2,#0
 563 04de 4FF00003 	 mov r3,#0
 564 04e2 07F58061 	 add r1,r7,#1024
 565 04e6 C1E90023 	 strd r2,[r1]
 303:../Dave/Generated/CMSIS_DSP/FilteringFunctions/arm_conv_q15.c **** 
 304:../Dave/Generated/CMSIS_DSP/FilteringFunctions/arm_conv_q15.c **** 
 305:../Dave/Generated/CMSIS_DSP/FilteringFunctions/arm_conv_q15.c ****       /* read x[0], x[1] samples */
 306:../Dave/Generated/CMSIS_DSP/FilteringFunctions/arm_conv_q15.c ****       x0 = *__SIMD32(px);
 566              	 .loc 1 306 0
 567 04ea 07F5AC73 	 add r3,r7,#344
 568 04ee 1B68     	 ldr r3,[r3]
 569 04f0 1B68     	 ldr r3,[r3]
 570 04f2 C7F8F833 	 str r3,[r7,#1016]
 307:../Dave/Generated/CMSIS_DSP/FilteringFunctions/arm_conv_q15.c ****       /* read x[1], x[2] samples */
 308:../Dave/Generated/CMSIS_DSP/FilteringFunctions/arm_conv_q15.c ****       x1 = _SIMD32_OFFSET(px+1);
 571              	 .loc 1 308 0
 572 04f6 07F5AC73 	 add r3,r7,#344
 573 04fa 1B68     	 ldr r3,[r3]
 574 04fc D3F80230 	 ldr r3,[r3,#2]
 575 0500 C7F8F433 	 str r3,[r7,#1012]
 309:../Dave/Generated/CMSIS_DSP/FilteringFunctions/arm_conv_q15.c **** 	  px+= 2u;
 576              	 .loc 1 309 0
 577 0504 07F5AC73 	 add r3,r7,#344
 578 0508 1B68     	 ldr r3,[r3]
 579 050a 1A1D     	 adds r2,r3,#4
 580 050c 07F5AC73 	 add r3,r7,#344
 581 0510 1A60     	 str r2,[r3]
 310:../Dave/Generated/CMSIS_DSP/FilteringFunctions/arm_conv_q15.c **** 
 311:../Dave/Generated/CMSIS_DSP/FilteringFunctions/arm_conv_q15.c **** 
 312:../Dave/Generated/CMSIS_DSP/FilteringFunctions/arm_conv_q15.c ****       /* Apply loop unrolling and compute 4 MACs simultaneously. */
 313:../Dave/Generated/CMSIS_DSP/FilteringFunctions/arm_conv_q15.c ****       k = srcBLen >> 2u;
 582              	 .loc 1 313 0
 583 0512 07F14003 	 add r3,r7,#64
 584 0516 1B68     	 ldr r3,[r3]
 585 0518 9B08     	 lsrs r3,r3,#2
 586 051a C7F8E433 	 str r3,[r7,#996]
 587              	.L29:
 314:../Dave/Generated/CMSIS_DSP/FilteringFunctions/arm_conv_q15.c **** 
 315:../Dave/Generated/CMSIS_DSP/FilteringFunctions/arm_conv_q15.c ****       /* First part of the processing with loop unrolling.  Compute 4 MACs at a time.   
 316:../Dave/Generated/CMSIS_DSP/FilteringFunctions/arm_conv_q15.c ****        ** a second loop below computes MACs for the remaining 1 to 3 samples. */
 317:../Dave/Generated/CMSIS_DSP/FilteringFunctions/arm_conv_q15.c ****       do
 318:../Dave/Generated/CMSIS_DSP/FilteringFunctions/arm_conv_q15.c ****       {
 319:../Dave/Generated/CMSIS_DSP/FilteringFunctions/arm_conv_q15.c ****         /* Read the last two inputB samples using SIMD:   
 320:../Dave/Generated/CMSIS_DSP/FilteringFunctions/arm_conv_q15.c ****          * y[srcBLen - 1] and y[srcBLen - 2] */
 321:../Dave/Generated/CMSIS_DSP/FilteringFunctions/arm_conv_q15.c ****         c0 = *__SIMD32(py)--;
 588              	 .loc 1 321 0 discriminator 1
 589 051e 07F5AA71 	 add r1,r7,#340
 590 0522 0A68     	 ldr r2,[r1]
 591 0524 131F     	 subs r3,r2,#4
 592 0526 0B60     	 str r3,[r1]
 593 0528 1368     	 ldr r3,[r2]
 594 052a C7F8C033 	 str r3,[r7,#960]
 322:../Dave/Generated/CMSIS_DSP/FilteringFunctions/arm_conv_q15.c **** 
 323:../Dave/Generated/CMSIS_DSP/FilteringFunctions/arm_conv_q15.c ****         /* acc0 +=  x[0] * y[srcBLen - 1] + x[1] * y[srcBLen - 2] */
 324:../Dave/Generated/CMSIS_DSP/FilteringFunctions/arm_conv_q15.c ****         acc0 = __SMLALDX(x0, c0, acc0);
 595              	 .loc 1 324 0 discriminator 1
 596 052e D7F8F823 	 ldr r2,[r7,#1016]
 597 0532 D7F8C043 	 ldr r4,[r7,#960]
 598 0536 07F58363 	 add r3,r7,#1048
 599 053a D3E90001 	 ldrd r0,[r3]
 600 053e 07F54773 	 add r3,r7,#796
 601 0542 1A60     	 str r2,[r3]
 602 0544 07F54673 	 add r3,r7,#792
 603 0548 1C60     	 str r4,[r3]
 604 054a 07F54473 	 add r3,r7,#784
 605 054e C3E90001 	 strd r0,[r3]
 606              	.LBB88:
 607              	.LBB89:
 542:C:\Users\Depes Crystalline\Desktop\school\Active_Bike_Lighting_System\Radar_Core/Libraries/CMSIS/Include\core_cmSimd.h **** 
 608              	 .loc 2 542 0 discriminator 1
 609 0552 07F17001 	 add r1,r7,#112
 610 0556 07F54473 	 add r3,r7,#784
 611 055a D3E90023 	 ldrd r2,[r3]
 612 055e C1E90023 	 strd r2,[r1]
 545:C:\Users\Depes Crystalline\Desktop\school\Active_Bike_Lighting_System\Radar_Core/Libraries/CMSIS/Include\core_cmSimd.h **** #else               // Big endian
 613              	 .loc 2 545 0 discriminator 1
 614 0562 07F17003 	 add r3,r7,#112
 615 0566 1A68     	 ldr r2,[r3]
 616 0568 07F17003 	 add r3,r7,#112
 617 056c 5968     	 ldr r1,[r3,#4]
 618 056e 07F54773 	 add r3,r7,#796
 619 0572 1868     	 ldr r0,[r3]
 620 0574 07F54673 	 add r3,r7,#792
 621 0578 1B68     	 ldr r3,[r3]
 622              	
 623 057a C0FBD321 	 smlaldx r2,r1,r0,r3
 624              	
 625              	 .thumb
 626 057e 07F17003 	 add r3,r7,#112
 627 0582 1A60     	 str r2,[r3]
 628 0584 07F17003 	 add r3,r7,#112
 629 0588 5960     	 str r1,[r3,#4]
 630              	 .loc 2 550 0 discriminator 1
 631 058a 07F17003 	 add r3,r7,#112
 632 058e D3E90023 	 ldrd r2,[r3]
 633              	.LBE89:
 634              	.LBE88:
 635              	 .loc 1 324 0 discriminator 1
 636 0592 07F58361 	 add r1,r7,#1048
 637 0596 C1E90023 	 strd r2,[r1]
 325:../Dave/Generated/CMSIS_DSP/FilteringFunctions/arm_conv_q15.c **** 
 326:../Dave/Generated/CMSIS_DSP/FilteringFunctions/arm_conv_q15.c ****         /* acc1 +=  x[1] * y[srcBLen - 1] + x[2] * y[srcBLen - 2] */
 327:../Dave/Generated/CMSIS_DSP/FilteringFunctions/arm_conv_q15.c ****         acc1 = __SMLALDX(x1, c0, acc1);
 638              	 .loc 1 327 0 discriminator 1
 639 059a D7F8F423 	 ldr r2,[r7,#1012]
 640 059e D7F8C043 	 ldr r4,[r7,#960]
 641 05a2 07F58263 	 add r3,r7,#1040
 642 05a6 D3E90001 	 ldrd r0,[r3]
 643 05aa 07F54373 	 add r3,r7,#780
 644 05ae 1A60     	 str r2,[r3]
 645 05b0 07F54273 	 add r3,r7,#776
 646 05b4 1C60     	 str r4,[r3]
 647 05b6 07F54073 	 add r3,r7,#768
 648 05ba C3E90001 	 strd r0,[r3]
 649              	.LBB90:
 650              	.LBB91:
 542:C:\Users\Depes Crystalline\Desktop\school\Active_Bike_Lighting_System\Radar_Core/Libraries/CMSIS/Include\core_cmSimd.h **** 
 651              	 .loc 2 542 0 discriminator 1
 652 05be 07F17801 	 add r1,r7,#120
 653 05c2 07F54073 	 add r3,r7,#768
 654 05c6 D3E90023 	 ldrd r2,[r3]
 655 05ca C1E90023 	 strd r2,[r1]
 545:C:\Users\Depes Crystalline\Desktop\school\Active_Bike_Lighting_System\Radar_Core/Libraries/CMSIS/Include\core_cmSimd.h **** #else               // Big endian
 656              	 .loc 2 545 0 discriminator 1
 657 05ce 07F17803 	 add r3,r7,#120
 658 05d2 1A68     	 ldr r2,[r3]
 659 05d4 07F17803 	 add r3,r7,#120
 660 05d8 5968     	 ldr r1,[r3,#4]
 661 05da 07F54373 	 add r3,r7,#780
 662 05de 1868     	 ldr r0,[r3]
 663 05e0 07F54273 	 add r3,r7,#776
 664 05e4 1B68     	 ldr r3,[r3]
 665              	
 666 05e6 C0FBD321 	 smlaldx r2,r1,r0,r3
 667              	
 668              	 .thumb
 669 05ea 07F17803 	 add r3,r7,#120
 670 05ee 1A60     	 str r2,[r3]
 671 05f0 07F17803 	 add r3,r7,#120
 672 05f4 5960     	 str r1,[r3,#4]
 673              	 .loc 2 550 0 discriminator 1
 674 05f6 07F17803 	 add r3,r7,#120
 675 05fa D3E90023 	 ldrd r2,[r3]
 676              	.LBE91:
 677              	.LBE90:
 678              	 .loc 1 327 0 discriminator 1
 679 05fe 07F58261 	 add r1,r7,#1040
 680 0602 C1E90023 	 strd r2,[r1]
 328:../Dave/Generated/CMSIS_DSP/FilteringFunctions/arm_conv_q15.c **** 
 329:../Dave/Generated/CMSIS_DSP/FilteringFunctions/arm_conv_q15.c ****         /* Read x[2], x[3] */
 330:../Dave/Generated/CMSIS_DSP/FilteringFunctions/arm_conv_q15.c ****         x2 = *__SIMD32(px);
 681              	 .loc 1 330 0 discriminator 1
 682 0606 07F5AC73 	 add r3,r7,#344
 683 060a 1B68     	 ldr r3,[r3]
 684 060c 1B68     	 ldr r3,[r3]
 685 060e C7F8BC33 	 str r3,[r7,#956]
 331:../Dave/Generated/CMSIS_DSP/FilteringFunctions/arm_conv_q15.c **** 
 332:../Dave/Generated/CMSIS_DSP/FilteringFunctions/arm_conv_q15.c ****         /* Read x[3], x[4] */
 333:../Dave/Generated/CMSIS_DSP/FilteringFunctions/arm_conv_q15.c ****         x3 = _SIMD32_OFFSET(px+1);
 686              	 .loc 1 333 0 discriminator 1
 687 0612 07F5AC73 	 add r3,r7,#344
 688 0616 1B68     	 ldr r3,[r3]
 689 0618 D3F80230 	 ldr r3,[r3,#2]
 690 061c C7F8B833 	 str r3,[r7,#952]
 334:../Dave/Generated/CMSIS_DSP/FilteringFunctions/arm_conv_q15.c **** 
 335:../Dave/Generated/CMSIS_DSP/FilteringFunctions/arm_conv_q15.c ****         /* acc2 +=  x[2] * y[srcBLen - 1] + x[3] * y[srcBLen - 2] */
 336:../Dave/Generated/CMSIS_DSP/FilteringFunctions/arm_conv_q15.c ****         acc2 = __SMLALDX(x2, c0, acc2);
 691              	 .loc 1 336 0 discriminator 1
 692 0620 D7F8BC23 	 ldr r2,[r7,#956]
 693 0624 D7F8C043 	 ldr r4,[r7,#960]
 694 0628 07F58163 	 add r3,r7,#1032
 695 062c D3E90001 	 ldrd r0,[r3]
 696 0630 07F53F73 	 add r3,r7,#764
 697 0634 1A60     	 str r2,[r3]
 698 0636 07F53E73 	 add r3,r7,#760
 699 063a 1C60     	 str r4,[r3]
 700 063c 07F53C73 	 add r3,r7,#752
 701 0640 C3E90001 	 strd r0,[r3]
 702              	.LBB92:
 703              	.LBB93:
 542:C:\Users\Depes Crystalline\Desktop\school\Active_Bike_Lighting_System\Radar_Core/Libraries/CMSIS/Include\core_cmSimd.h **** 
 704              	 .loc 2 542 0 discriminator 1
 705 0644 07F18001 	 add r1,r7,#128
 706 0648 07F53C73 	 add r3,r7,#752
 707 064c D3E90023 	 ldrd r2,[r3]
 708 0650 C1E90023 	 strd r2,[r1]
 545:C:\Users\Depes Crystalline\Desktop\school\Active_Bike_Lighting_System\Radar_Core/Libraries/CMSIS/Include\core_cmSimd.h **** #else               // Big endian
 709              	 .loc 2 545 0 discriminator 1
 710 0654 07F18003 	 add r3,r7,#128
 711 0658 1A68     	 ldr r2,[r3]
 712 065a 07F18003 	 add r3,r7,#128
 713 065e 5968     	 ldr r1,[r3,#4]
 714 0660 07F53F73 	 add r3,r7,#764
 715 0664 1868     	 ldr r0,[r3]
 716 0666 07F53E73 	 add r3,r7,#760
 717 066a 1B68     	 ldr r3,[r3]
 718              	
 719 066c C0FBD321 	 smlaldx r2,r1,r0,r3
 720              	
 721              	 .thumb
 722 0670 07F18003 	 add r3,r7,#128
 723 0674 1A60     	 str r2,[r3]
 724 0676 07F18003 	 add r3,r7,#128
 725 067a 5960     	 str r1,[r3,#4]
 726              	 .loc 2 550 0 discriminator 1
 727 067c 07F18003 	 add r3,r7,#128
 728 0680 D3E90023 	 ldrd r2,[r3]
 729              	.LBE93:
 730              	.LBE92:
 731              	 .loc 1 336 0 discriminator 1
 732 0684 07F58161 	 add r1,r7,#1032
 733 0688 C1E90023 	 strd r2,[r1]
 337:../Dave/Generated/CMSIS_DSP/FilteringFunctions/arm_conv_q15.c **** 
 338:../Dave/Generated/CMSIS_DSP/FilteringFunctions/arm_conv_q15.c ****         /* acc3 +=  x[3] * y[srcBLen - 1] + x[4] * y[srcBLen - 2] */
 339:../Dave/Generated/CMSIS_DSP/FilteringFunctions/arm_conv_q15.c ****         acc3 = __SMLALDX(x3, c0, acc3);
 734              	 .loc 1 339 0 discriminator 1
 735 068c D7F8B823 	 ldr r2,[r7,#952]
 736 0690 D7F8C043 	 ldr r4,[r7,#960]
 737 0694 07F58063 	 add r3,r7,#1024
 738 0698 D3E90001 	 ldrd r0,[r3]
 739 069c 07F53B73 	 add r3,r7,#748
 740 06a0 1A60     	 str r2,[r3]
 741 06a2 07F53A73 	 add r3,r7,#744
 742 06a6 1C60     	 str r4,[r3]
 743 06a8 07F53873 	 add r3,r7,#736
 744 06ac C3E90001 	 strd r0,[r3]
 745              	.LBB94:
 746              	.LBB95:
 542:C:\Users\Depes Crystalline\Desktop\school\Active_Bike_Lighting_System\Radar_Core/Libraries/CMSIS/Include\core_cmSimd.h **** 
 747              	 .loc 2 542 0 discriminator 1
 748 06b0 07F18801 	 add r1,r7,#136
 749 06b4 07F53873 	 add r3,r7,#736
 750 06b8 D3E90023 	 ldrd r2,[r3]
 751 06bc C1E90023 	 strd r2,[r1]
 545:C:\Users\Depes Crystalline\Desktop\school\Active_Bike_Lighting_System\Radar_Core/Libraries/CMSIS/Include\core_cmSimd.h **** #else               // Big endian
 752              	 .loc 2 545 0 discriminator 1
 753 06c0 07F18803 	 add r3,r7,#136
 754 06c4 1A68     	 ldr r2,[r3]
 755 06c6 07F18803 	 add r3,r7,#136
 756 06ca 5968     	 ldr r1,[r3,#4]
 757 06cc 07F53B73 	 add r3,r7,#748
 758 06d0 1868     	 ldr r0,[r3]
 759 06d2 07F53A73 	 add r3,r7,#744
 760 06d6 1B68     	 ldr r3,[r3]
 761              	
 762 06d8 C0FBD321 	 smlaldx r2,r1,r0,r3
 763              	
 764              	 .thumb
 765 06dc 07F18803 	 add r3,r7,#136
 766 06e0 1A60     	 str r2,[r3]
 767 06e2 07F18803 	 add r3,r7,#136
 768 06e6 5960     	 str r1,[r3,#4]
 769              	 .loc 2 550 0 discriminator 1
 770 06e8 07F18803 	 add r3,r7,#136
 771 06ec D3E90023 	 ldrd r2,[r3]
 772              	.LBE95:
 773              	.LBE94:
 774              	 .loc 1 339 0 discriminator 1
 775 06f0 07F58061 	 add r1,r7,#1024
 776 06f4 C1E90023 	 strd r2,[r1]
 340:../Dave/Generated/CMSIS_DSP/FilteringFunctions/arm_conv_q15.c **** 
 341:../Dave/Generated/CMSIS_DSP/FilteringFunctions/arm_conv_q15.c ****         /* Read y[srcBLen - 3] and y[srcBLen - 4] */
 342:../Dave/Generated/CMSIS_DSP/FilteringFunctions/arm_conv_q15.c ****         c0 = *__SIMD32(py)--;
 777              	 .loc 1 342 0 discriminator 1
 778 06f8 07F5AA71 	 add r1,r7,#340
 779 06fc 0A68     	 ldr r2,[r1]
 780 06fe 131F     	 subs r3,r2,#4
 781 0700 0B60     	 str r3,[r1]
 782 0702 1368     	 ldr r3,[r2]
 783 0704 C7F8C033 	 str r3,[r7,#960]
 343:../Dave/Generated/CMSIS_DSP/FilteringFunctions/arm_conv_q15.c **** 
 344:../Dave/Generated/CMSIS_DSP/FilteringFunctions/arm_conv_q15.c ****         /* acc0 +=  x[2] * y[srcBLen - 3] + x[3] * y[srcBLen - 4] */
 345:../Dave/Generated/CMSIS_DSP/FilteringFunctions/arm_conv_q15.c ****         acc0 = __SMLALDX(x2, c0, acc0);
 784              	 .loc 1 345 0 discriminator 1
 785 0708 D7F8BC23 	 ldr r2,[r7,#956]
 786 070c D7F8C043 	 ldr r4,[r7,#960]
 787 0710 07F58363 	 add r3,r7,#1048
 788 0714 D3E90001 	 ldrd r0,[r3]
 789 0718 07F53773 	 add r3,r7,#732
 790 071c 1A60     	 str r2,[r3]
 791 071e 07F53673 	 add r3,r7,#728
 792 0722 1C60     	 str r4,[r3]
 793 0724 07F53473 	 add r3,r7,#720
 794 0728 C3E90001 	 strd r0,[r3]
 795              	.LBB96:
 796              	.LBB97:
 542:C:\Users\Depes Crystalline\Desktop\school\Active_Bike_Lighting_System\Radar_Core/Libraries/CMSIS/Include\core_cmSimd.h **** 
 797              	 .loc 2 542 0 discriminator 1
 798 072c 07F19001 	 add r1,r7,#144
 799 0730 07F53473 	 add r3,r7,#720
 800 0734 D3E90023 	 ldrd r2,[r3]
 801 0738 C1E90023 	 strd r2,[r1]
 545:C:\Users\Depes Crystalline\Desktop\school\Active_Bike_Lighting_System\Radar_Core/Libraries/CMSIS/Include\core_cmSimd.h **** #else               // Big endian
 802              	 .loc 2 545 0 discriminator 1
 803 073c 07F19003 	 add r3,r7,#144
 804 0740 1A68     	 ldr r2,[r3]
 805 0742 07F19003 	 add r3,r7,#144
 806 0746 5968     	 ldr r1,[r3,#4]
 807 0748 07F53773 	 add r3,r7,#732
 808 074c 1868     	 ldr r0,[r3]
 809 074e 07F53673 	 add r3,r7,#728
 810 0752 1B68     	 ldr r3,[r3]
 811              	
 812 0754 C0FBD321 	 smlaldx r2,r1,r0,r3
 813              	
 814              	 .thumb
 815 0758 07F19003 	 add r3,r7,#144
 816 075c 1A60     	 str r2,[r3]
 817 075e 07F19003 	 add r3,r7,#144
 818 0762 5960     	 str r1,[r3,#4]
 819              	 .loc 2 550 0 discriminator 1
 820 0764 07F19003 	 add r3,r7,#144
 821 0768 D3E90023 	 ldrd r2,[r3]
 822              	.LBE97:
 823              	.LBE96:
 824              	 .loc 1 345 0 discriminator 1
 825 076c 07F58361 	 add r1,r7,#1048
 826 0770 C1E90023 	 strd r2,[r1]
 346:../Dave/Generated/CMSIS_DSP/FilteringFunctions/arm_conv_q15.c **** 
 347:../Dave/Generated/CMSIS_DSP/FilteringFunctions/arm_conv_q15.c ****         /* acc1 +=  x[3] * y[srcBLen - 3] + x[4] * y[srcBLen - 4] */
 348:../Dave/Generated/CMSIS_DSP/FilteringFunctions/arm_conv_q15.c ****         acc1 = __SMLALDX(x3, c0, acc1);
 827              	 .loc 1 348 0 discriminator 1
 828 0774 D7F8B823 	 ldr r2,[r7,#952]
 829 0778 D7F8C043 	 ldr r4,[r7,#960]
 830 077c 07F58263 	 add r3,r7,#1040
 831 0780 D3E90001 	 ldrd r0,[r3]
 832 0784 07F53373 	 add r3,r7,#716
 833 0788 1A60     	 str r2,[r3]
 834 078a 07F53273 	 add r3,r7,#712
 835 078e 1C60     	 str r4,[r3]
 836 0790 07F53073 	 add r3,r7,#704
 837 0794 C3E90001 	 strd r0,[r3]
 838              	.LBB98:
 839              	.LBB99:
 542:C:\Users\Depes Crystalline\Desktop\school\Active_Bike_Lighting_System\Radar_Core/Libraries/CMSIS/Include\core_cmSimd.h **** 
 840              	 .loc 2 542 0 discriminator 1
 841 0798 07F19801 	 add r1,r7,#152
 842 079c 07F53073 	 add r3,r7,#704
 843 07a0 D3E90023 	 ldrd r2,[r3]
 844 07a4 C1E90023 	 strd r2,[r1]
 545:C:\Users\Depes Crystalline\Desktop\school\Active_Bike_Lighting_System\Radar_Core/Libraries/CMSIS/Include\core_cmSimd.h **** #else               // Big endian
 845              	 .loc 2 545 0 discriminator 1
 846 07a8 07F19803 	 add r3,r7,#152
 847 07ac 1A68     	 ldr r2,[r3]
 848 07ae 07F19803 	 add r3,r7,#152
 849 07b2 5968     	 ldr r1,[r3,#4]
 850 07b4 07F53373 	 add r3,r7,#716
 851 07b8 1868     	 ldr r0,[r3]
 852 07ba 07F53273 	 add r3,r7,#712
 853 07be 1B68     	 ldr r3,[r3]
 854              	
 855 07c0 C0FBD321 	 smlaldx r2,r1,r0,r3
 856              	
 857              	 .thumb
 858 07c4 07F19803 	 add r3,r7,#152
 859 07c8 1A60     	 str r2,[r3]
 860 07ca 07F19803 	 add r3,r7,#152
 861 07ce 5960     	 str r1,[r3,#4]
 862              	 .loc 2 550 0 discriminator 1
 863 07d0 07F19803 	 add r3,r7,#152
 864 07d4 D3E90023 	 ldrd r2,[r3]
 865              	.LBE99:
 866              	.LBE98:
 867              	 .loc 1 348 0 discriminator 1
 868 07d8 07F58261 	 add r1,r7,#1040
 869 07dc C1E90023 	 strd r2,[r1]
 349:../Dave/Generated/CMSIS_DSP/FilteringFunctions/arm_conv_q15.c **** 
 350:../Dave/Generated/CMSIS_DSP/FilteringFunctions/arm_conv_q15.c ****         /* Read x[4], x[5] */
 351:../Dave/Generated/CMSIS_DSP/FilteringFunctions/arm_conv_q15.c ****         x0 = _SIMD32_OFFSET(px+2);
 870              	 .loc 1 351 0 discriminator 1
 871 07e0 07F5AC73 	 add r3,r7,#344
 872 07e4 1B68     	 ldr r3,[r3]
 873 07e6 5B68     	 ldr r3,[r3,#4]
 874 07e8 C7F8F833 	 str r3,[r7,#1016]
 352:../Dave/Generated/CMSIS_DSP/FilteringFunctions/arm_conv_q15.c **** 
 353:../Dave/Generated/CMSIS_DSP/FilteringFunctions/arm_conv_q15.c ****         /* Read x[5], x[6] */
 354:../Dave/Generated/CMSIS_DSP/FilteringFunctions/arm_conv_q15.c ****         x1 = _SIMD32_OFFSET(px+3);
 875              	 .loc 1 354 0 discriminator 1
 876 07ec 07F5AC73 	 add r3,r7,#344
 877 07f0 1B68     	 ldr r3,[r3]
 878 07f2 D3F80630 	 ldr r3,[r3,#6]
 879 07f6 C7F8F433 	 str r3,[r7,#1012]
 355:../Dave/Generated/CMSIS_DSP/FilteringFunctions/arm_conv_q15.c **** 		px += 4u;
 880              	 .loc 1 355 0 discriminator 1
 881 07fa 07F5AC73 	 add r3,r7,#344
 882 07fe 1B68     	 ldr r3,[r3]
 883 0800 03F10802 	 add r2,r3,#8
 884 0804 07F5AC73 	 add r3,r7,#344
 885 0808 1A60     	 str r2,[r3]
 356:../Dave/Generated/CMSIS_DSP/FilteringFunctions/arm_conv_q15.c **** 
 357:../Dave/Generated/CMSIS_DSP/FilteringFunctions/arm_conv_q15.c ****         /* acc2 +=  x[4] * y[srcBLen - 3] + x[5] * y[srcBLen - 4] */
 358:../Dave/Generated/CMSIS_DSP/FilteringFunctions/arm_conv_q15.c ****         acc2 = __SMLALDX(x0, c0, acc2);
 886              	 .loc 1 358 0 discriminator 1
 887 080a D7F8F823 	 ldr r2,[r7,#1016]
 888 080e D7F8C043 	 ldr r4,[r7,#960]
 889 0812 07F58163 	 add r3,r7,#1032
 890 0816 D3E90001 	 ldrd r0,[r3]
 891 081a 07F52F73 	 add r3,r7,#700
 892 081e 1A60     	 str r2,[r3]
 893 0820 07F52E73 	 add r3,r7,#696
 894 0824 1C60     	 str r4,[r3]
 895 0826 07F52C73 	 add r3,r7,#688
 896 082a C3E90001 	 strd r0,[r3]
 897              	.LBB100:
 898              	.LBB101:
 542:C:\Users\Depes Crystalline\Desktop\school\Active_Bike_Lighting_System\Radar_Core/Libraries/CMSIS/Include\core_cmSimd.h **** 
 899              	 .loc 2 542 0 discriminator 1
 900 082e 07F1A001 	 add r1,r7,#160
 901 0832 07F52C73 	 add r3,r7,#688
 902 0836 D3E90023 	 ldrd r2,[r3]
 903 083a C1E90023 	 strd r2,[r1]
 545:C:\Users\Depes Crystalline\Desktop\school\Active_Bike_Lighting_System\Radar_Core/Libraries/CMSIS/Include\core_cmSimd.h **** #else               // Big endian
 904              	 .loc 2 545 0 discriminator 1
 905 083e 07F1A003 	 add r3,r7,#160
 906 0842 1A68     	 ldr r2,[r3]
 907 0844 07F1A003 	 add r3,r7,#160
 908 0848 5968     	 ldr r1,[r3,#4]
 909 084a 07F52F73 	 add r3,r7,#700
 910 084e 1868     	 ldr r0,[r3]
 911 0850 07F52E73 	 add r3,r7,#696
 912 0854 1B68     	 ldr r3,[r3]
 913              	
 914 0856 C0FBD321 	 smlaldx r2,r1,r0,r3
 915              	
 916              	 .thumb
 917 085a 07F1A003 	 add r3,r7,#160
 918 085e 1A60     	 str r2,[r3]
 919 0860 07F1A003 	 add r3,r7,#160
 920 0864 5960     	 str r1,[r3,#4]
 921              	 .loc 2 550 0 discriminator 1
 922 0866 07F1A003 	 add r3,r7,#160
 923 086a D3E90023 	 ldrd r2,[r3]
 924              	.LBE101:
 925              	.LBE100:
 926              	 .loc 1 358 0 discriminator 1
 927 086e 07F58161 	 add r1,r7,#1032
 928 0872 C1E90023 	 strd r2,[r1]
 359:../Dave/Generated/CMSIS_DSP/FilteringFunctions/arm_conv_q15.c **** 
 360:../Dave/Generated/CMSIS_DSP/FilteringFunctions/arm_conv_q15.c ****         /* acc3 +=  x[5] * y[srcBLen - 3] + x[6] * y[srcBLen - 4] */
 361:../Dave/Generated/CMSIS_DSP/FilteringFunctions/arm_conv_q15.c ****         acc3 = __SMLALDX(x1, c0, acc3);
 929              	 .loc 1 361 0 discriminator 1
 930 0876 D7F8F423 	 ldr r2,[r7,#1012]
 931 087a D7F8C043 	 ldr r4,[r7,#960]
 932 087e 07F58063 	 add r3,r7,#1024
 933 0882 D3E90001 	 ldrd r0,[r3]
 934 0886 07F52B73 	 add r3,r7,#684
 935 088a 1A60     	 str r2,[r3]
 936 088c 07F52A73 	 add r3,r7,#680
 937 0890 1C60     	 str r4,[r3]
 938 0892 07F52873 	 add r3,r7,#672
 939 0896 C3E90001 	 strd r0,[r3]
 940              	.LBB102:
 941              	.LBB103:
 542:C:\Users\Depes Crystalline\Desktop\school\Active_Bike_Lighting_System\Radar_Core/Libraries/CMSIS/Include\core_cmSimd.h **** 
 942              	 .loc 2 542 0 discriminator 1
 943 089a 07F1A801 	 add r1,r7,#168
 944 089e 07F52873 	 add r3,r7,#672
 945 08a2 D3E90023 	 ldrd r2,[r3]
 946 08a6 C1E90023 	 strd r2,[r1]
 545:C:\Users\Depes Crystalline\Desktop\school\Active_Bike_Lighting_System\Radar_Core/Libraries/CMSIS/Include\core_cmSimd.h **** #else               // Big endian
 947              	 .loc 2 545 0 discriminator 1
 948 08aa 07F1A803 	 add r3,r7,#168
 949 08ae 1A68     	 ldr r2,[r3]
 950 08b0 07F1A803 	 add r3,r7,#168
 951 08b4 5968     	 ldr r1,[r3,#4]
 952 08b6 07F52B73 	 add r3,r7,#684
 953 08ba 1868     	 ldr r0,[r3]
 954 08bc 07F52A73 	 add r3,r7,#680
 955 08c0 1B68     	 ldr r3,[r3]
 956              	
 957 08c2 C0FBD321 	 smlaldx r2,r1,r0,r3
 958              	
 959              	 .thumb
 960 08c6 07F1A803 	 add r3,r7,#168
 961 08ca 1A60     	 str r2,[r3]
 962 08cc 07F1A803 	 add r3,r7,#168
 963 08d0 5960     	 str r1,[r3,#4]
 964              	 .loc 2 550 0 discriminator 1
 965 08d2 07F1A803 	 add r3,r7,#168
 966 08d6 D3E90023 	 ldrd r2,[r3]
 967              	.LBE103:
 968              	.LBE102:
 969              	 .loc 1 361 0 discriminator 1
 970 08da 07F58061 	 add r1,r7,#1024
 971 08de C1E90023 	 strd r2,[r1]
 362:../Dave/Generated/CMSIS_DSP/FilteringFunctions/arm_conv_q15.c **** 
 363:../Dave/Generated/CMSIS_DSP/FilteringFunctions/arm_conv_q15.c ****       } while(--k);
 972              	 .loc 1 363 0 discriminator 1
 973 08e2 D7F8E433 	 ldr r3,[r7,#996]
 974 08e6 013B     	 subs r3,r3,#1
 975 08e8 C7F8E433 	 str r3,[r7,#996]
 976 08ec D7F8E433 	 ldr r3,[r7,#996]
 977 08f0 002B     	 cmp r3,#0
 978 08f2 7FF414AE 	 bne .L29
 364:../Dave/Generated/CMSIS_DSP/FilteringFunctions/arm_conv_q15.c **** 
 365:../Dave/Generated/CMSIS_DSP/FilteringFunctions/arm_conv_q15.c ****       /* For the next MAC operations, SIMD is not used   
 366:../Dave/Generated/CMSIS_DSP/FilteringFunctions/arm_conv_q15.c ****        * So, the 16 bit pointer if inputB, py is updated */
 367:../Dave/Generated/CMSIS_DSP/FilteringFunctions/arm_conv_q15.c **** 
 368:../Dave/Generated/CMSIS_DSP/FilteringFunctions/arm_conv_q15.c ****       /* If the srcBLen is not a multiple of 4, compute any remaining MACs here.   
 369:../Dave/Generated/CMSIS_DSP/FilteringFunctions/arm_conv_q15.c ****        ** No loop unrolling is used. */
 370:../Dave/Generated/CMSIS_DSP/FilteringFunctions/arm_conv_q15.c ****       k = srcBLen % 0x4u;
 979              	 .loc 1 370 0
 980 08f6 07F14003 	 add r3,r7,#64
 981 08fa 1B68     	 ldr r3,[r3]
 982 08fc 03F00303 	 and r3,r3,#3
 983 0900 C7F8E433 	 str r3,[r7,#996]
 371:../Dave/Generated/CMSIS_DSP/FilteringFunctions/arm_conv_q15.c **** 
 372:../Dave/Generated/CMSIS_DSP/FilteringFunctions/arm_conv_q15.c ****       if(k == 1u)
 984              	 .loc 1 372 0
 985 0904 D7F8E433 	 ldr r3,[r7,#996]
 986 0908 012B     	 cmp r3,#1
 987 090a 40F0F280 	 bne .L30
 373:../Dave/Generated/CMSIS_DSP/FilteringFunctions/arm_conv_q15.c ****       {
 374:../Dave/Generated/CMSIS_DSP/FilteringFunctions/arm_conv_q15.c ****         /* Read y[srcBLen - 5] */
 375:../Dave/Generated/CMSIS_DSP/FilteringFunctions/arm_conv_q15.c ****         c0 = *(py+1);
 988              	 .loc 1 375 0
 989 090e 07F5AA73 	 add r3,r7,#340
 990 0912 1B68     	 ldr r3,[r3]
 991 0914 0233     	 adds r3,r3,#2
 992 0916 1B88     	 ldrh r3,[r3]
 993 0918 1BB2     	 sxth r3,r3
 994 091a C7F8C033 	 str r3,[r7,#960]
 376:../Dave/Generated/CMSIS_DSP/FilteringFunctions/arm_conv_q15.c **** 
 377:../Dave/Generated/CMSIS_DSP/FilteringFunctions/arm_conv_q15.c **** #ifdef  ARM_MATH_BIG_ENDIAN
 378:../Dave/Generated/CMSIS_DSP/FilteringFunctions/arm_conv_q15.c **** 
 379:../Dave/Generated/CMSIS_DSP/FilteringFunctions/arm_conv_q15.c ****         c0 = c0 << 16u;
 380:../Dave/Generated/CMSIS_DSP/FilteringFunctions/arm_conv_q15.c **** 
 381:../Dave/Generated/CMSIS_DSP/FilteringFunctions/arm_conv_q15.c **** #else
 382:../Dave/Generated/CMSIS_DSP/FilteringFunctions/arm_conv_q15.c **** 
 383:../Dave/Generated/CMSIS_DSP/FilteringFunctions/arm_conv_q15.c ****         c0 = c0 & 0x0000FFFF;
 995              	 .loc 1 383 0
 996 091e D7F8C033 	 ldr r3,[r7,#960]
 997 0922 9BB2     	 uxth r3,r3
 998 0924 C7F8C033 	 str r3,[r7,#960]
 384:../Dave/Generated/CMSIS_DSP/FilteringFunctions/arm_conv_q15.c **** 
 385:../Dave/Generated/CMSIS_DSP/FilteringFunctions/arm_conv_q15.c **** #endif /*      #ifdef  ARM_MATH_BIG_ENDIAN     */
 386:../Dave/Generated/CMSIS_DSP/FilteringFunctions/arm_conv_q15.c ****         /* Read x[7] */
 387:../Dave/Generated/CMSIS_DSP/FilteringFunctions/arm_conv_q15.c ****         x3 = *__SIMD32(px);
 999              	 .loc 1 387 0
 1000 0928 07F5AC73 	 add r3,r7,#344
 1001 092c 1B68     	 ldr r3,[r3]
 1002 092e 1B68     	 ldr r3,[r3]
 1003 0930 C7F8B833 	 str r3,[r7,#952]
 388:../Dave/Generated/CMSIS_DSP/FilteringFunctions/arm_conv_q15.c **** 		px++;
 1004              	 .loc 1 388 0
 1005 0934 07F5AC73 	 add r3,r7,#344
 1006 0938 1B68     	 ldr r3,[r3]
 1007 093a 9A1C     	 adds r2,r3,#2
 1008 093c 07F5AC73 	 add r3,r7,#344
 1009 0940 1A60     	 str r2,[r3]
 389:../Dave/Generated/CMSIS_DSP/FilteringFunctions/arm_conv_q15.c **** 
 390:../Dave/Generated/CMSIS_DSP/FilteringFunctions/arm_conv_q15.c ****         /* Perform the multiply-accumulates */
 391:../Dave/Generated/CMSIS_DSP/FilteringFunctions/arm_conv_q15.c ****         acc0 = __SMLALD(x0, c0, acc0);
 1010              	 .loc 1 391 0
 1011 0942 D7F8F823 	 ldr r2,[r7,#1016]
 1012 0946 D7F8C043 	 ldr r4,[r7,#960]
 1013 094a 07F58363 	 add r3,r7,#1048
 1014 094e D3E90001 	 ldrd r0,[r3]
 1015 0952 07F52773 	 add r3,r7,#668
 1016 0956 1A60     	 str r2,[r3]
 1017 0958 07F52673 	 add r3,r7,#664
 1018 095c 1C60     	 str r4,[r3]
 1019 095e 07F52473 	 add r3,r7,#656
 1020 0962 C3E90001 	 strd r0,[r3]
 1021              	.LBB104:
 1022              	.LBB105:
 525:C:\Users\Depes Crystalline\Desktop\school\Active_Bike_Lighting_System\Radar_Core/Libraries/CMSIS/Include\core_cmSimd.h **** 
 1023              	 .loc 2 525 0
 1024 0966 07F1B001 	 add r1,r7,#176
 1025 096a 07F52473 	 add r3,r7,#656
 1026 096e D3E90023 	 ldrd r2,[r3]
 1027 0972 C1E90023 	 strd r2,[r1]
 528:C:\Users\Depes Crystalline\Desktop\school\Active_Bike_Lighting_System\Radar_Core/Libraries/CMSIS/Include\core_cmSimd.h **** #else               // Big endian
 1028              	 .loc 2 528 0
 1029 0976 07F1B003 	 add r3,r7,#176
 1030 097a 1A68     	 ldr r2,[r3]
 1031 097c 07F1B003 	 add r3,r7,#176
 1032 0980 5968     	 ldr r1,[r3,#4]
 1033 0982 07F52773 	 add r3,r7,#668
 1034 0986 1868     	 ldr r0,[r3]
 1035 0988 07F52673 	 add r3,r7,#664
 1036 098c 1B68     	 ldr r3,[r3]
 1037              	
 1038 098e C0FBC321 	 smlald r2,r1,r0,r3
 1039              	
 1040              	 .thumb
 1041 0992 07F1B003 	 add r3,r7,#176
 1042 0996 1A60     	 str r2,[r3]
 1043 0998 07F1B003 	 add r3,r7,#176
 1044 099c 5960     	 str r1,[r3,#4]
 533:C:\Users\Depes Crystalline\Desktop\school\Active_Bike_Lighting_System\Radar_Core/Libraries/CMSIS/Include\core_cmSimd.h **** }
 1045              	 .loc 2 533 0
 1046 099e 07F1B003 	 add r3,r7,#176
 1047 09a2 D3E90023 	 ldrd r2,[r3]
 1048              	.LBE105:
 1049              	.LBE104:
 1050              	 .loc 1 391 0
 1051 09a6 07F58361 	 add r1,r7,#1048
 1052 09aa C1E90023 	 strd r2,[r1]
 392:../Dave/Generated/CMSIS_DSP/FilteringFunctions/arm_conv_q15.c ****         acc1 = __SMLALD(x1, c0, acc1);
 1053              	 .loc 1 392 0
 1054 09ae D7F8F423 	 ldr r2,[r7,#1012]
 1055 09b2 D7F8C043 	 ldr r4,[r7,#960]
 1056 09b6 07F58263 	 add r3,r7,#1040
 1057 09ba D3E90001 	 ldrd r0,[r3]
 1058 09be 07F52373 	 add r3,r7,#652
 1059 09c2 1A60     	 str r2,[r3]
 1060 09c4 07F52273 	 add r3,r7,#648
 1061 09c8 1C60     	 str r4,[r3]
 1062 09ca 07F52073 	 add r3,r7,#640
 1063 09ce C3E90001 	 strd r0,[r3]
 1064              	.LBB106:
 1065              	.LBB107:
 525:C:\Users\Depes Crystalline\Desktop\school\Active_Bike_Lighting_System\Radar_Core/Libraries/CMSIS/Include\core_cmSimd.h **** 
 1066              	 .loc 2 525 0
 1067 09d2 07F1B801 	 add r1,r7,#184
 1068 09d6 07F52073 	 add r3,r7,#640
 1069 09da D3E90023 	 ldrd r2,[r3]
 1070 09de C1E90023 	 strd r2,[r1]
 528:C:\Users\Depes Crystalline\Desktop\school\Active_Bike_Lighting_System\Radar_Core/Libraries/CMSIS/Include\core_cmSimd.h **** #else               // Big endian
 1071              	 .loc 2 528 0
 1072 09e2 07F1B803 	 add r3,r7,#184
 1073 09e6 1A68     	 ldr r2,[r3]
 1074 09e8 07F1B803 	 add r3,r7,#184
 1075 09ec 5968     	 ldr r1,[r3,#4]
 1076 09ee 07F52373 	 add r3,r7,#652
 1077 09f2 1868     	 ldr r0,[r3]
 1078 09f4 07F52273 	 add r3,r7,#648
 1079 09f8 1B68     	 ldr r3,[r3]
 1080              	
 1081 09fa C0FBC321 	 smlald r2,r1,r0,r3
 1082              	
 1083              	 .thumb
 1084 09fe 07F1B803 	 add r3,r7,#184
 1085 0a02 1A60     	 str r2,[r3]
 1086 0a04 07F1B803 	 add r3,r7,#184
 1087 0a08 5960     	 str r1,[r3,#4]
 533:C:\Users\Depes Crystalline\Desktop\school\Active_Bike_Lighting_System\Radar_Core/Libraries/CMSIS/Include\core_cmSimd.h **** }
 1088              	 .loc 2 533 0
 1089 0a0a 07F1B803 	 add r3,r7,#184
 1090 0a0e D3E90023 	 ldrd r2,[r3]
 1091              	.LBE107:
 1092              	.LBE106:
 1093              	 .loc 1 392 0
 1094 0a12 07F58261 	 add r1,r7,#1040
 1095 0a16 C1E90023 	 strd r2,[r1]
 393:../Dave/Generated/CMSIS_DSP/FilteringFunctions/arm_conv_q15.c ****         acc2 = __SMLALDX(x1, c0, acc2);
 1096              	 .loc 1 393 0
 1097 0a1a D7F8F423 	 ldr r2,[r7,#1012]
 1098 0a1e D7F8C043 	 ldr r4,[r7,#960]
 1099 0a22 07F58163 	 add r3,r7,#1032
 1100 0a26 D3E90001 	 ldrd r0,[r3]
 1101 0a2a 07F51F73 	 add r3,r7,#636
 1102 0a2e 1A60     	 str r2,[r3]
 1103 0a30 07F51E73 	 add r3,r7,#632
 1104 0a34 1C60     	 str r4,[r3]
 1105 0a36 07F51C73 	 add r3,r7,#624
 1106 0a3a C3E90001 	 strd r0,[r3]
 1107              	.LBB108:
 1108              	.LBB109:
 542:C:\Users\Depes Crystalline\Desktop\school\Active_Bike_Lighting_System\Radar_Core/Libraries/CMSIS/Include\core_cmSimd.h **** 
 1109              	 .loc 2 542 0
 1110 0a3e 07F1C001 	 add r1,r7,#192
 1111 0a42 07F51C73 	 add r3,r7,#624
 1112 0a46 D3E90023 	 ldrd r2,[r3]
 1113 0a4a C1E90023 	 strd r2,[r1]
 545:C:\Users\Depes Crystalline\Desktop\school\Active_Bike_Lighting_System\Radar_Core/Libraries/CMSIS/Include\core_cmSimd.h **** #else               // Big endian
 1114              	 .loc 2 545 0
 1115 0a4e 07F1C003 	 add r3,r7,#192
 1116 0a52 1A68     	 ldr r2,[r3]
 1117 0a54 07F1C003 	 add r3,r7,#192
 1118 0a58 5968     	 ldr r1,[r3,#4]
 1119 0a5a 07F51F73 	 add r3,r7,#636
 1120 0a5e 1868     	 ldr r0,[r3]
 1121 0a60 07F51E73 	 add r3,r7,#632
 1122 0a64 1B68     	 ldr r3,[r3]
 1123              	
 1124 0a66 C0FBD321 	 smlaldx r2,r1,r0,r3
 1125              	
 1126              	 .thumb
 1127 0a6a 07F1C003 	 add r3,r7,#192
 1128 0a6e 1A60     	 str r2,[r3]
 1129 0a70 07F1C003 	 add r3,r7,#192
 1130 0a74 5960     	 str r1,[r3,#4]
 1131              	 .loc 2 550 0
 1132 0a76 07F1C003 	 add r3,r7,#192
 1133 0a7a D3E90023 	 ldrd r2,[r3]
 1134              	.LBE109:
 1135              	.LBE108:
 1136              	 .loc 1 393 0
 1137 0a7e 07F58161 	 add r1,r7,#1032
 1138 0a82 C1E90023 	 strd r2,[r1]
 394:../Dave/Generated/CMSIS_DSP/FilteringFunctions/arm_conv_q15.c ****         acc3 = __SMLALDX(x3, c0, acc3);
 1139              	 .loc 1 394 0
 1140 0a86 D7F8B823 	 ldr r2,[r7,#952]
 1141 0a8a D7F8C043 	 ldr r4,[r7,#960]
 1142 0a8e 07F58063 	 add r3,r7,#1024
 1143 0a92 D3E90001 	 ldrd r0,[r3]
 1144 0a96 07F51B73 	 add r3,r7,#620
 1145 0a9a 1A60     	 str r2,[r3]
 1146 0a9c 07F51A73 	 add r3,r7,#616
 1147 0aa0 1C60     	 str r4,[r3]
 1148 0aa2 07F51873 	 add r3,r7,#608
 1149 0aa6 C3E90001 	 strd r0,[r3]
 1150              	.LBB110:
 1151              	.LBB111:
 542:C:\Users\Depes Crystalline\Desktop\school\Active_Bike_Lighting_System\Radar_Core/Libraries/CMSIS/Include\core_cmSimd.h **** 
 1152              	 .loc 2 542 0
 1153 0aaa 07F1C801 	 add r1,r7,#200
 1154 0aae 07F51873 	 add r3,r7,#608
 1155 0ab2 D3E90023 	 ldrd r2,[r3]
 1156 0ab6 C1E90023 	 strd r2,[r1]
 545:C:\Users\Depes Crystalline\Desktop\school\Active_Bike_Lighting_System\Radar_Core/Libraries/CMSIS/Include\core_cmSimd.h **** #else               // Big endian
 1157              	 .loc 2 545 0
 1158 0aba 07F1C803 	 add r3,r7,#200
 1159 0abe 1A68     	 ldr r2,[r3]
 1160 0ac0 07F1C803 	 add r3,r7,#200
 1161 0ac4 5968     	 ldr r1,[r3,#4]
 1162 0ac6 07F51B73 	 add r3,r7,#620
 1163 0aca 1868     	 ldr r0,[r3]
 1164 0acc 07F51A73 	 add r3,r7,#616
 1165 0ad0 1B68     	 ldr r3,[r3]
 1166              	
 1167 0ad2 C0FBD321 	 smlaldx r2,r1,r0,r3
 1168              	
 1169              	 .thumb
 1170 0ad6 07F1C803 	 add r3,r7,#200
 1171 0ada 1A60     	 str r2,[r3]
 1172 0adc 07F1C803 	 add r3,r7,#200
 1173 0ae0 5960     	 str r1,[r3,#4]
 1174              	 .loc 2 550 0
 1175 0ae2 07F1C803 	 add r3,r7,#200
 1176 0ae6 D3E90023 	 ldrd r2,[r3]
 1177              	.LBE111:
 1178              	.LBE110:
 1179              	 .loc 1 394 0
 1180 0aea 07F58061 	 add r1,r7,#1024
 1181 0aee C1E90023 	 strd r2,[r1]
 1182              	.L30:
 395:../Dave/Generated/CMSIS_DSP/FilteringFunctions/arm_conv_q15.c ****       }
 396:../Dave/Generated/CMSIS_DSP/FilteringFunctions/arm_conv_q15.c **** 
 397:../Dave/Generated/CMSIS_DSP/FilteringFunctions/arm_conv_q15.c ****       if(k == 2u)
 1183              	 .loc 1 397 0
 1184 0af2 D7F8E433 	 ldr r3,[r7,#996]
 1185 0af6 022B     	 cmp r3,#2
 1186 0af8 40F0F280 	 bne .L35
 398:../Dave/Generated/CMSIS_DSP/FilteringFunctions/arm_conv_q15.c ****       {
 399:../Dave/Generated/CMSIS_DSP/FilteringFunctions/arm_conv_q15.c ****         /* Read y[srcBLen - 5], y[srcBLen - 6] */
 400:../Dave/Generated/CMSIS_DSP/FilteringFunctions/arm_conv_q15.c ****         c0 = _SIMD32_OFFSET(py);
 1187              	 .loc 1 400 0
 1188 0afc 07F5AA73 	 add r3,r7,#340
 1189 0b00 1B68     	 ldr r3,[r3]
 1190 0b02 1B68     	 ldr r3,[r3]
 1191 0b04 C7F8C033 	 str r3,[r7,#960]
 401:../Dave/Generated/CMSIS_DSP/FilteringFunctions/arm_conv_q15.c **** 
 402:../Dave/Generated/CMSIS_DSP/FilteringFunctions/arm_conv_q15.c ****         /* Read x[7], x[8] */
 403:../Dave/Generated/CMSIS_DSP/FilteringFunctions/arm_conv_q15.c ****         x3 = *__SIMD32(px);
 1192              	 .loc 1 403 0
 1193 0b08 07F5AC73 	 add r3,r7,#344
 1194 0b0c 1B68     	 ldr r3,[r3]
 1195 0b0e 1B68     	 ldr r3,[r3]
 1196 0b10 C7F8B833 	 str r3,[r7,#952]
 404:../Dave/Generated/CMSIS_DSP/FilteringFunctions/arm_conv_q15.c **** 
 405:../Dave/Generated/CMSIS_DSP/FilteringFunctions/arm_conv_q15.c ****         /* Read x[9] */
 406:../Dave/Generated/CMSIS_DSP/FilteringFunctions/arm_conv_q15.c ****         x2 = _SIMD32_OFFSET(px+1);
 1197              	 .loc 1 406 0
 1198 0b14 07F5AC73 	 add r3,r7,#344
 1199 0b18 1B68     	 ldr r3,[r3]
 1200 0b1a D3F80230 	 ldr r3,[r3,#2]
 1201 0b1e C7F8BC33 	 str r3,[r7,#956]
 407:../Dave/Generated/CMSIS_DSP/FilteringFunctions/arm_conv_q15.c **** 		px += 2u;
 1202              	 .loc 1 407 0
 1203 0b22 07F5AC73 	 add r3,r7,#344
 1204 0b26 1B68     	 ldr r3,[r3]
 1205 0b28 1A1D     	 adds r2,r3,#4
 1206 0b2a 07F5AC73 	 add r3,r7,#344
 1207 0b2e 1A60     	 str r2,[r3]
 408:../Dave/Generated/CMSIS_DSP/FilteringFunctions/arm_conv_q15.c **** 
 409:../Dave/Generated/CMSIS_DSP/FilteringFunctions/arm_conv_q15.c ****         /* Perform the multiply-accumulates */
 410:../Dave/Generated/CMSIS_DSP/FilteringFunctions/arm_conv_q15.c ****         acc0 = __SMLALDX(x0, c0, acc0);
 1208              	 .loc 1 410 0
 1209 0b30 D7F8F823 	 ldr r2,[r7,#1016]
 1210 0b34 D7F8C043 	 ldr r4,[r7,#960]
 1211 0b38 07F58363 	 add r3,r7,#1048
 1212 0b3c D3E90001 	 ldrd r0,[r3]
 1213 0b40 07F51773 	 add r3,r7,#604
 1214 0b44 1A60     	 str r2,[r3]
 1215 0b46 07F51673 	 add r3,r7,#600
 1216 0b4a 1C60     	 str r4,[r3]
 1217 0b4c 07F51473 	 add r3,r7,#592
 1218 0b50 C3E90001 	 strd r0,[r3]
 1219              	.LBB112:
 1220              	.LBB113:
 542:C:\Users\Depes Crystalline\Desktop\school\Active_Bike_Lighting_System\Radar_Core/Libraries/CMSIS/Include\core_cmSimd.h **** 
 1221              	 .loc 2 542 0
 1222 0b54 07F1D001 	 add r1,r7,#208
 1223 0b58 07F51473 	 add r3,r7,#592
 1224 0b5c D3E90023 	 ldrd r2,[r3]
 1225 0b60 C1E90023 	 strd r2,[r1]
 545:C:\Users\Depes Crystalline\Desktop\school\Active_Bike_Lighting_System\Radar_Core/Libraries/CMSIS/Include\core_cmSimd.h **** #else               // Big endian
 1226              	 .loc 2 545 0
 1227 0b64 07F1D003 	 add r3,r7,#208
 1228 0b68 1A68     	 ldr r2,[r3]
 1229 0b6a 07F1D003 	 add r3,r7,#208
 1230 0b6e 5968     	 ldr r1,[r3,#4]
 1231 0b70 07F51773 	 add r3,r7,#604
 1232 0b74 1868     	 ldr r0,[r3]
 1233 0b76 07F51673 	 add r3,r7,#600
 1234 0b7a 1B68     	 ldr r3,[r3]
 1235              	
 1236 0b7c C0FBD321 	 smlaldx r2,r1,r0,r3
 1237              	
 1238              	 .thumb
 1239 0b80 07F1D003 	 add r3,r7,#208
 1240 0b84 1A60     	 str r2,[r3]
 1241 0b86 07F1D003 	 add r3,r7,#208
 1242 0b8a 5960     	 str r1,[r3,#4]
 1243              	 .loc 2 550 0
 1244 0b8c 07F1D003 	 add r3,r7,#208
 1245 0b90 D3E90023 	 ldrd r2,[r3]
 1246              	.LBE113:
 1247              	.LBE112:
 1248              	 .loc 1 410 0
 1249 0b94 07F58361 	 add r1,r7,#1048
 1250 0b98 C1E90023 	 strd r2,[r1]
 411:../Dave/Generated/CMSIS_DSP/FilteringFunctions/arm_conv_q15.c ****         acc1 = __SMLALDX(x1, c0, acc1);
 1251              	 .loc 1 411 0
 1252 0b9c D7F8F423 	 ldr r2,[r7,#1012]
 1253 0ba0 D7F8C043 	 ldr r4,[r7,#960]
 1254 0ba4 07F58263 	 add r3,r7,#1040
 1255 0ba8 D3E90001 	 ldrd r0,[r3]
 1256 0bac 07F51373 	 add r3,r7,#588
 1257 0bb0 1A60     	 str r2,[r3]
 1258 0bb2 07F51273 	 add r3,r7,#584
 1259 0bb6 1C60     	 str r4,[r3]
 1260 0bb8 07F51073 	 add r3,r7,#576
 1261 0bbc C3E90001 	 strd r0,[r3]
 1262              	.LBB114:
 1263              	.LBB115:
 542:C:\Users\Depes Crystalline\Desktop\school\Active_Bike_Lighting_System\Radar_Core/Libraries/CMSIS/Include\core_cmSimd.h **** 
 1264              	 .loc 2 542 0
 1265 0bc0 07F1D801 	 add r1,r7,#216
 1266 0bc4 07F51073 	 add r3,r7,#576
 1267 0bc8 D3E90023 	 ldrd r2,[r3]
 1268 0bcc C1E90023 	 strd r2,[r1]
 545:C:\Users\Depes Crystalline\Desktop\school\Active_Bike_Lighting_System\Radar_Core/Libraries/CMSIS/Include\core_cmSimd.h **** #else               // Big endian
 1269              	 .loc 2 545 0
 1270 0bd0 07F1D803 	 add r3,r7,#216
 1271 0bd4 1A68     	 ldr r2,[r3]
 1272 0bd6 07F1D803 	 add r3,r7,#216
 1273 0bda 5968     	 ldr r1,[r3,#4]
 1274 0bdc 07F51373 	 add r3,r7,#588
 1275 0be0 1868     	 ldr r0,[r3]
 1276 0be2 07F51273 	 add r3,r7,#584
 1277 0be6 1B68     	 ldr r3,[r3]
 1278              	
 1279 0be8 C0FBD321 	 smlaldx r2,r1,r0,r3
 1280              	
 1281              	 .thumb
 1282 0bec 07F1D803 	 add r3,r7,#216
 1283 0bf0 1A60     	 str r2,[r3]
 1284 0bf2 07F1D803 	 add r3,r7,#216
 1285 0bf6 5960     	 str r1,[r3,#4]
 1286              	 .loc 2 550 0
 1287 0bf8 07F1D803 	 add r3,r7,#216
 1288 0bfc D3E90023 	 ldrd r2,[r3]
 1289              	.LBE115:
 1290              	.LBE114:
 1291              	 .loc 1 411 0
 1292 0c00 07F58261 	 add r1,r7,#1040
 1293 0c04 C1E90023 	 strd r2,[r1]
 412:../Dave/Generated/CMSIS_DSP/FilteringFunctions/arm_conv_q15.c ****         acc2 = __SMLALDX(x3, c0, acc2);
 1294              	 .loc 1 412 0
 1295 0c08 D7F8B823 	 ldr r2,[r7,#952]
 1296 0c0c D7F8C043 	 ldr r4,[r7,#960]
 1297 0c10 07F58163 	 add r3,r7,#1032
 1298 0c14 D3E90001 	 ldrd r0,[r3]
 1299 0c18 07F50F73 	 add r3,r7,#572
 1300 0c1c 1A60     	 str r2,[r3]
 1301 0c1e 07F50E73 	 add r3,r7,#568
 1302 0c22 1C60     	 str r4,[r3]
 1303 0c24 07F50C73 	 add r3,r7,#560
 1304 0c28 C3E90001 	 strd r0,[r3]
 1305              	.LBB116:
 1306              	.LBB117:
 542:C:\Users\Depes Crystalline\Desktop\school\Active_Bike_Lighting_System\Radar_Core/Libraries/CMSIS/Include\core_cmSimd.h **** 
 1307              	 .loc 2 542 0
 1308 0c2c 07F1E001 	 add r1,r7,#224
 1309 0c30 07F50C73 	 add r3,r7,#560
 1310 0c34 D3E90023 	 ldrd r2,[r3]
 1311 0c38 C1E90023 	 strd r2,[r1]
 545:C:\Users\Depes Crystalline\Desktop\school\Active_Bike_Lighting_System\Radar_Core/Libraries/CMSIS/Include\core_cmSimd.h **** #else               // Big endian
 1312              	 .loc 2 545 0
 1313 0c3c 07F1E003 	 add r3,r7,#224
 1314 0c40 1A68     	 ldr r2,[r3]
 1315 0c42 07F1E003 	 add r3,r7,#224
 1316 0c46 5968     	 ldr r1,[r3,#4]
 1317 0c48 07F50F73 	 add r3,r7,#572
 1318 0c4c 1868     	 ldr r0,[r3]
 1319 0c4e 07F50E73 	 add r3,r7,#568
 1320 0c52 1B68     	 ldr r3,[r3]
 1321              	
 1322 0c54 C0FBD321 	 smlaldx r2,r1,r0,r3
 1323              	
 1324              	 .thumb
 1325 0c58 07F1E003 	 add r3,r7,#224
 1326 0c5c 1A60     	 str r2,[r3]
 1327 0c5e 07F1E003 	 add r3,r7,#224
 1328 0c62 5960     	 str r1,[r3,#4]
 1329              	 .loc 2 550 0
 1330 0c64 07F1E003 	 add r3,r7,#224
 1331 0c68 D3E90023 	 ldrd r2,[r3]
 1332              	.LBE117:
 1333              	.LBE116:
 1334              	 .loc 1 412 0
 1335 0c6c 07F58161 	 add r1,r7,#1032
 1336 0c70 C1E90023 	 strd r2,[r1]
 413:../Dave/Generated/CMSIS_DSP/FilteringFunctions/arm_conv_q15.c ****         acc3 = __SMLALDX(x2, c0, acc3);
 1337              	 .loc 1 413 0
 1338 0c74 D7F8BC23 	 ldr r2,[r7,#956]
 1339 0c78 D7F8C043 	 ldr r4,[r7,#960]
 1340 0c7c 07F58063 	 add r3,r7,#1024
 1341 0c80 D3E90001 	 ldrd r0,[r3]
 1342 0c84 07F50B73 	 add r3,r7,#556
 1343 0c88 1A60     	 str r2,[r3]
 1344 0c8a 07F50A73 	 add r3,r7,#552
 1345 0c8e 1C60     	 str r4,[r3]
 1346 0c90 07F50873 	 add r3,r7,#544
 1347 0c94 C3E90001 	 strd r0,[r3]
 1348              	.LBB118:
 1349              	.LBB119:
 542:C:\Users\Depes Crystalline\Desktop\school\Active_Bike_Lighting_System\Radar_Core/Libraries/CMSIS/Include\core_cmSimd.h **** 
 1350              	 .loc 2 542 0
 1351 0c98 07F1E801 	 add r1,r7,#232
 1352 0c9c 07F50873 	 add r3,r7,#544
 1353 0ca0 D3E90023 	 ldrd r2,[r3]
 1354 0ca4 C1E90023 	 strd r2,[r1]
 545:C:\Users\Depes Crystalline\Desktop\school\Active_Bike_Lighting_System\Radar_Core/Libraries/CMSIS/Include\core_cmSimd.h **** #else               // Big endian
 1355              	 .loc 2 545 0
 1356 0ca8 07F1E803 	 add r3,r7,#232
 1357 0cac 1A68     	 ldr r2,[r3]
 1358 0cae 07F1E803 	 add r3,r7,#232
 1359 0cb2 5968     	 ldr r1,[r3,#4]
 1360 0cb4 07F50B73 	 add r3,r7,#556
 1361 0cb8 1868     	 ldr r0,[r3]
 1362 0cba 07F50A73 	 add r3,r7,#552
 1363 0cbe 1B68     	 ldr r3,[r3]
 1364              	
 1365 0cc0 C0FBD321 	 smlaldx r2,r1,r0,r3
 1366              	
 1367              	 .thumb
 1368 0cc4 07F1E803 	 add r3,r7,#232
 1369 0cc8 1A60     	 str r2,[r3]
 1370 0cca 07F1E803 	 add r3,r7,#232
 1371 0cce 5960     	 str r1,[r3,#4]
 1372              	 .loc 2 550 0
 1373 0cd0 07F1E803 	 add r3,r7,#232
 1374 0cd4 D3E90023 	 ldrd r2,[r3]
 1375              	.LBE119:
 1376              	.LBE118:
 1377              	 .loc 1 413 0
 1378 0cd8 07F58061 	 add r1,r7,#1024
 1379 0cdc C1E90023 	 strd r2,[r1]
 1380              	.L35:
 414:../Dave/Generated/CMSIS_DSP/FilteringFunctions/arm_conv_q15.c ****       }
 415:../Dave/Generated/CMSIS_DSP/FilteringFunctions/arm_conv_q15.c **** 
 416:../Dave/Generated/CMSIS_DSP/FilteringFunctions/arm_conv_q15.c ****       if(k == 3u)
 1381              	 .loc 1 416 0
 1382 0ce0 D7F8E433 	 ldr r3,[r7,#996]
 1383 0ce4 032B     	 cmp r3,#3
 1384 0ce6 40F0DD81 	 bne .L40
 417:../Dave/Generated/CMSIS_DSP/FilteringFunctions/arm_conv_q15.c ****       {
 418:../Dave/Generated/CMSIS_DSP/FilteringFunctions/arm_conv_q15.c ****         /* Read y[srcBLen - 5], y[srcBLen - 6] */
 419:../Dave/Generated/CMSIS_DSP/FilteringFunctions/arm_conv_q15.c ****         c0 = _SIMD32_OFFSET(py);
 1385              	 .loc 1 419 0
 1386 0cea 07F5AA73 	 add r3,r7,#340
 1387 0cee 1B68     	 ldr r3,[r3]
 1388 0cf0 1B68     	 ldr r3,[r3]
 1389 0cf2 C7F8C033 	 str r3,[r7,#960]
 420:../Dave/Generated/CMSIS_DSP/FilteringFunctions/arm_conv_q15.c **** 
 421:../Dave/Generated/CMSIS_DSP/FilteringFunctions/arm_conv_q15.c ****         /* Read x[7], x[8] */
 422:../Dave/Generated/CMSIS_DSP/FilteringFunctions/arm_conv_q15.c ****         x3 = *__SIMD32(px);
 1390              	 .loc 1 422 0
 1391 0cf6 07F5AC73 	 add r3,r7,#344
 1392 0cfa 1B68     	 ldr r3,[r3]
 1393 0cfc 1B68     	 ldr r3,[r3]
 1394 0cfe C7F8B833 	 str r3,[r7,#952]
 423:../Dave/Generated/CMSIS_DSP/FilteringFunctions/arm_conv_q15.c **** 
 424:../Dave/Generated/CMSIS_DSP/FilteringFunctions/arm_conv_q15.c ****         /* Read x[9] */
 425:../Dave/Generated/CMSIS_DSP/FilteringFunctions/arm_conv_q15.c ****         x2 = _SIMD32_OFFSET(px+1);
 1395              	 .loc 1 425 0
 1396 0d02 07F5AC73 	 add r3,r7,#344
 1397 0d06 1B68     	 ldr r3,[r3]
 1398 0d08 D3F80230 	 ldr r3,[r3,#2]
 1399 0d0c C7F8BC33 	 str r3,[r7,#956]
 426:../Dave/Generated/CMSIS_DSP/FilteringFunctions/arm_conv_q15.c **** 
 427:../Dave/Generated/CMSIS_DSP/FilteringFunctions/arm_conv_q15.c ****         /* Perform the multiply-accumulates */
 428:../Dave/Generated/CMSIS_DSP/FilteringFunctions/arm_conv_q15.c ****         acc0 = __SMLALDX(x0, c0, acc0);
 1400              	 .loc 1 428 0
 1401 0d10 D7F8F823 	 ldr r2,[r7,#1016]
 1402 0d14 D7F8C043 	 ldr r4,[r7,#960]
 1403 0d18 07F58363 	 add r3,r7,#1048
 1404 0d1c D3E90001 	 ldrd r0,[r3]
 1405 0d20 07F50773 	 add r3,r7,#540
 1406 0d24 1A60     	 str r2,[r3]
 1407 0d26 07F50673 	 add r3,r7,#536
 1408 0d2a 1C60     	 str r4,[r3]
 1409 0d2c 07F50473 	 add r3,r7,#528
 1410 0d30 C3E90001 	 strd r0,[r3]
 1411              	.LBB120:
 1412              	.LBB121:
 542:C:\Users\Depes Crystalline\Desktop\school\Active_Bike_Lighting_System\Radar_Core/Libraries/CMSIS/Include\core_cmSimd.h **** 
 1413              	 .loc 2 542 0
 1414 0d34 07F1F001 	 add r1,r7,#240
 1415 0d38 07F50473 	 add r3,r7,#528
 1416 0d3c D3E90023 	 ldrd r2,[r3]
 1417 0d40 C1E90023 	 strd r2,[r1]
 545:C:\Users\Depes Crystalline\Desktop\school\Active_Bike_Lighting_System\Radar_Core/Libraries/CMSIS/Include\core_cmSimd.h **** #else               // Big endian
 1418              	 .loc 2 545 0
 1419 0d44 07F1F003 	 add r3,r7,#240
 1420 0d48 1A68     	 ldr r2,[r3]
 1421 0d4a 07F1F003 	 add r3,r7,#240
 1422 0d4e 5968     	 ldr r1,[r3,#4]
 1423 0d50 07F50773 	 add r3,r7,#540
 1424 0d54 1868     	 ldr r0,[r3]
 1425 0d56 07F50673 	 add r3,r7,#536
 1426 0d5a 1B68     	 ldr r3,[r3]
 1427              	
 1428 0d5c C0FBD321 	 smlaldx r2,r1,r0,r3
 1429              	
 1430              	 .thumb
 1431 0d60 07F1F003 	 add r3,r7,#240
 1432 0d64 1A60     	 str r2,[r3]
 1433 0d66 07F1F003 	 add r3,r7,#240
 1434 0d6a 5960     	 str r1,[r3,#4]
 1435              	 .loc 2 550 0
 1436 0d6c 07F1F003 	 add r3,r7,#240
 1437 0d70 D3E90023 	 ldrd r2,[r3]
 1438              	.LBE121:
 1439              	.LBE120:
 1440              	 .loc 1 428 0
 1441 0d74 07F58361 	 add r1,r7,#1048
 1442 0d78 C1E90023 	 strd r2,[r1]
 429:../Dave/Generated/CMSIS_DSP/FilteringFunctions/arm_conv_q15.c ****         acc1 = __SMLALDX(x1, c0, acc1);
 1443              	 .loc 1 429 0
 1444 0d7c D7F8F423 	 ldr r2,[r7,#1012]
 1445 0d80 D7F8C043 	 ldr r4,[r7,#960]
 1446 0d84 07F58263 	 add r3,r7,#1040
 1447 0d88 D3E90001 	 ldrd r0,[r3]
 1448 0d8c 07F50373 	 add r3,r7,#524
 1449 0d90 1A60     	 str r2,[r3]
 1450 0d92 07F50273 	 add r3,r7,#520
 1451 0d96 1C60     	 str r4,[r3]
 1452 0d98 07F50073 	 add r3,r7,#512
 1453 0d9c C3E90001 	 strd r0,[r3]
 1454              	.LBB122:
 1455              	.LBB123:
 542:C:\Users\Depes Crystalline\Desktop\school\Active_Bike_Lighting_System\Radar_Core/Libraries/CMSIS/Include\core_cmSimd.h **** 
 1456              	 .loc 2 542 0
 1457 0da0 07F1F801 	 add r1,r7,#248
 1458 0da4 07F50073 	 add r3,r7,#512
 1459 0da8 D3E90023 	 ldrd r2,[r3]
 1460 0dac C1E90023 	 strd r2,[r1]
 545:C:\Users\Depes Crystalline\Desktop\school\Active_Bike_Lighting_System\Radar_Core/Libraries/CMSIS/Include\core_cmSimd.h **** #else               // Big endian
 1461              	 .loc 2 545 0
 1462 0db0 07F1F803 	 add r3,r7,#248
 1463 0db4 1A68     	 ldr r2,[r3]
 1464 0db6 07F1F803 	 add r3,r7,#248
 1465 0dba 5968     	 ldr r1,[r3,#4]
 1466 0dbc 07F50373 	 add r3,r7,#524
 1467 0dc0 1868     	 ldr r0,[r3]
 1468 0dc2 07F50273 	 add r3,r7,#520
 1469 0dc6 1B68     	 ldr r3,[r3]
 1470              	
 1471 0dc8 C0FBD321 	 smlaldx r2,r1,r0,r3
 1472              	
 1473              	 .thumb
 1474 0dcc 07F1F803 	 add r3,r7,#248
 1475 0dd0 1A60     	 str r2,[r3]
 1476 0dd2 07F1F803 	 add r3,r7,#248
 1477 0dd6 5960     	 str r1,[r3,#4]
 1478              	 .loc 2 550 0
 1479 0dd8 07F1F803 	 add r3,r7,#248
 1480 0ddc D3E90023 	 ldrd r2,[r3]
 1481              	.LBE123:
 1482              	.LBE122:
 1483              	 .loc 1 429 0
 1484 0de0 07F58261 	 add r1,r7,#1040
 1485 0de4 C1E90023 	 strd r2,[r1]
 430:../Dave/Generated/CMSIS_DSP/FilteringFunctions/arm_conv_q15.c ****         acc2 = __SMLALDX(x3, c0, acc2);
 1486              	 .loc 1 430 0
 1487 0de8 D7F8B823 	 ldr r2,[r7,#952]
 1488 0dec D7F8C043 	 ldr r4,[r7,#960]
 1489 0df0 07F58163 	 add r3,r7,#1032
 1490 0df4 D3E90001 	 ldrd r0,[r3]
 1491 0df8 07F5FE73 	 add r3,r7,#508
 1492 0dfc 1A60     	 str r2,[r3]
 1493 0dfe 07F5FC73 	 add r3,r7,#504
 1494 0e02 1C60     	 str r4,[r3]
 1495 0e04 07F5F873 	 add r3,r7,#496
 1496 0e08 C3E90001 	 strd r0,[r3]
 1497              	.LBB124:
 1498              	.LBB125:
 542:C:\Users\Depes Crystalline\Desktop\school\Active_Bike_Lighting_System\Radar_Core/Libraries/CMSIS/Include\core_cmSimd.h **** 
 1499              	 .loc 2 542 0
 1500 0e0c 07F58071 	 add r1,r7,#256
 1501 0e10 07F5F873 	 add r3,r7,#496
 1502 0e14 D3E90023 	 ldrd r2,[r3]
 1503 0e18 C1E90023 	 strd r2,[r1]
 545:C:\Users\Depes Crystalline\Desktop\school\Active_Bike_Lighting_System\Radar_Core/Libraries/CMSIS/Include\core_cmSimd.h **** #else               // Big endian
 1504              	 .loc 2 545 0
 1505 0e1c 07F58073 	 add r3,r7,#256
 1506 0e20 1A68     	 ldr r2,[r3]
 1507 0e22 07F58073 	 add r3,r7,#256
 1508 0e26 5968     	 ldr r1,[r3,#4]
 1509 0e28 07F5FE73 	 add r3,r7,#508
 1510 0e2c 1868     	 ldr r0,[r3]
 1511 0e2e 07F5FC73 	 add r3,r7,#504
 1512 0e32 1B68     	 ldr r3,[r3]
 1513              	
 1514 0e34 C0FBD321 	 smlaldx r2,r1,r0,r3
 1515              	
 1516              	 .thumb
 1517 0e38 07F58073 	 add r3,r7,#256
 1518 0e3c 1A60     	 str r2,[r3]
 1519 0e3e 07F58073 	 add r3,r7,#256
 1520 0e42 5960     	 str r1,[r3,#4]
 1521              	 .loc 2 550 0
 1522 0e44 07F58073 	 add r3,r7,#256
 1523 0e48 D3E90023 	 ldrd r2,[r3]
 1524              	.LBE125:
 1525              	.LBE124:
 1526              	 .loc 1 430 0
 1527 0e4c 07F58161 	 add r1,r7,#1032
 1528 0e50 C1E90023 	 strd r2,[r1]
 431:../Dave/Generated/CMSIS_DSP/FilteringFunctions/arm_conv_q15.c ****         acc3 = __SMLALDX(x2, c0, acc3);
 1529              	 .loc 1 431 0
 1530 0e54 D7F8BC23 	 ldr r2,[r7,#956]
 1531 0e58 D7F8C043 	 ldr r4,[r7,#960]
 1532 0e5c 07F58063 	 add r3,r7,#1024
 1533 0e60 D3E90001 	 ldrd r0,[r3]
 1534 0e64 07F5F673 	 add r3,r7,#492
 1535 0e68 1A60     	 str r2,[r3]
 1536 0e6a 07F5F473 	 add r3,r7,#488
 1537 0e6e 1C60     	 str r4,[r3]
 1538 0e70 07F5F073 	 add r3,r7,#480
 1539 0e74 C3E90001 	 strd r0,[r3]
 1540              	.LBB126:
 1541              	.LBB127:
 542:C:\Users\Depes Crystalline\Desktop\school\Active_Bike_Lighting_System\Radar_Core/Libraries/CMSIS/Include\core_cmSimd.h **** 
 1542              	 .loc 2 542 0
 1543 0e78 07F58471 	 add r1,r7,#264
 1544 0e7c 07F5F073 	 add r3,r7,#480
 1545 0e80 D3E90023 	 ldrd r2,[r3]
 1546 0e84 C1E90023 	 strd r2,[r1]
 545:C:\Users\Depes Crystalline\Desktop\school\Active_Bike_Lighting_System\Radar_Core/Libraries/CMSIS/Include\core_cmSimd.h **** #else               // Big endian
 1547              	 .loc 2 545 0
 1548 0e88 07F58473 	 add r3,r7,#264
 1549 0e8c 1A68     	 ldr r2,[r3]
 1550 0e8e 07F58473 	 add r3,r7,#264
 1551 0e92 5968     	 ldr r1,[r3,#4]
 1552 0e94 07F5F673 	 add r3,r7,#492
 1553 0e98 1868     	 ldr r0,[r3]
 1554 0e9a 07F5F473 	 add r3,r7,#488
 1555 0e9e 1B68     	 ldr r3,[r3]
 1556              	
 1557 0ea0 C0FBD321 	 smlaldx r2,r1,r0,r3
 1558              	
 1559              	 .thumb
 1560 0ea4 07F58473 	 add r3,r7,#264
 1561 0ea8 1A60     	 str r2,[r3]
 1562 0eaa 07F58473 	 add r3,r7,#264
 1563 0eae 5960     	 str r1,[r3,#4]
 1564              	 .loc 2 550 0
 1565 0eb0 07F58473 	 add r3,r7,#264
 1566 0eb4 D3E90023 	 ldrd r2,[r3]
 1567              	.LBE127:
 1568              	.LBE126:
 1569              	 .loc 1 431 0
 1570 0eb8 07F58061 	 add r1,r7,#1024
 1571 0ebc C1E90023 	 strd r2,[r1]
 432:../Dave/Generated/CMSIS_DSP/FilteringFunctions/arm_conv_q15.c **** 
 433:../Dave/Generated/CMSIS_DSP/FilteringFunctions/arm_conv_q15.c **** 		c0 = *(py-1);
 1572              	 .loc 1 433 0
 1573 0ec0 07F5AA73 	 add r3,r7,#340
 1574 0ec4 1B68     	 ldr r3,[r3]
 1575 0ec6 023B     	 subs r3,r3,#2
 1576 0ec8 1B88     	 ldrh r3,[r3]
 1577 0eca 1BB2     	 sxth r3,r3
 1578 0ecc C7F8C033 	 str r3,[r7,#960]
 434:../Dave/Generated/CMSIS_DSP/FilteringFunctions/arm_conv_q15.c **** 
 435:../Dave/Generated/CMSIS_DSP/FilteringFunctions/arm_conv_q15.c **** #ifdef  ARM_MATH_BIG_ENDIAN
 436:../Dave/Generated/CMSIS_DSP/FilteringFunctions/arm_conv_q15.c **** 
 437:../Dave/Generated/CMSIS_DSP/FilteringFunctions/arm_conv_q15.c ****         c0 = c0 << 16u;
 438:../Dave/Generated/CMSIS_DSP/FilteringFunctions/arm_conv_q15.c **** #else
 439:../Dave/Generated/CMSIS_DSP/FilteringFunctions/arm_conv_q15.c **** 
 440:../Dave/Generated/CMSIS_DSP/FilteringFunctions/arm_conv_q15.c ****         c0 = c0 & 0x0000FFFF;
 1579              	 .loc 1 440 0
 1580 0ed0 D7F8C033 	 ldr r3,[r7,#960]
 1581 0ed4 9BB2     	 uxth r3,r3
 1582 0ed6 C7F8C033 	 str r3,[r7,#960]
 441:../Dave/Generated/CMSIS_DSP/FilteringFunctions/arm_conv_q15.c **** #endif /*      #ifdef  ARM_MATH_BIG_ENDIAN     */
 442:../Dave/Generated/CMSIS_DSP/FilteringFunctions/arm_conv_q15.c ****         /* Read x[10] */
 443:../Dave/Generated/CMSIS_DSP/FilteringFunctions/arm_conv_q15.c ****         x3 =  _SIMD32_OFFSET(px+2);
 1583              	 .loc 1 443 0
 1584 0eda 07F5AC73 	 add r3,r7,#344
 1585 0ede 1B68     	 ldr r3,[r3]
 1586 0ee0 5B68     	 ldr r3,[r3,#4]
 1587 0ee2 C7F8B833 	 str r3,[r7,#952]
 444:../Dave/Generated/CMSIS_DSP/FilteringFunctions/arm_conv_q15.c **** 		px += 3u;
 1588              	 .loc 1 444 0
 1589 0ee6 07F5AC73 	 add r3,r7,#344
 1590 0eea 1B68     	 ldr r3,[r3]
 1591 0eec 9A1D     	 adds r2,r3,#6
 1592 0eee 07F5AC73 	 add r3,r7,#344
 1593 0ef2 1A60     	 str r2,[r3]
 445:../Dave/Generated/CMSIS_DSP/FilteringFunctions/arm_conv_q15.c **** 
 446:../Dave/Generated/CMSIS_DSP/FilteringFunctions/arm_conv_q15.c ****         /* Perform the multiply-accumulates */
 447:../Dave/Generated/CMSIS_DSP/FilteringFunctions/arm_conv_q15.c ****         acc0 = __SMLALDX(x1, c0, acc0);
 1594              	 .loc 1 447 0
 1595 0ef4 D7F8F423 	 ldr r2,[r7,#1012]
 1596 0ef8 D7F8C043 	 ldr r4,[r7,#960]
 1597 0efc 07F58363 	 add r3,r7,#1048
 1598 0f00 D3E90001 	 ldrd r0,[r3]
 1599 0f04 07F5EE73 	 add r3,r7,#476
 1600 0f08 1A60     	 str r2,[r3]
 1601 0f0a 07F5EC73 	 add r3,r7,#472
 1602 0f0e 1C60     	 str r4,[r3]
 1603 0f10 07F5E873 	 add r3,r7,#464
 1604 0f14 C3E90001 	 strd r0,[r3]
 1605              	.LBB128:
 1606              	.LBB129:
 542:C:\Users\Depes Crystalline\Desktop\school\Active_Bike_Lighting_System\Radar_Core/Libraries/CMSIS/Include\core_cmSimd.h **** 
 1607              	 .loc 2 542 0
 1608 0f18 07F58871 	 add r1,r7,#272
 1609 0f1c 07F5E873 	 add r3,r7,#464
 1610 0f20 D3E90023 	 ldrd r2,[r3]
 1611 0f24 C1E90023 	 strd r2,[r1]
 545:C:\Users\Depes Crystalline\Desktop\school\Active_Bike_Lighting_System\Radar_Core/Libraries/CMSIS/Include\core_cmSimd.h **** #else               // Big endian
 1612              	 .loc 2 545 0
 1613 0f28 07F58873 	 add r3,r7,#272
 1614 0f2c 1A68     	 ldr r2,[r3]
 1615 0f2e 07F58873 	 add r3,r7,#272
 1616 0f32 5968     	 ldr r1,[r3,#4]
 1617 0f34 07F5EE73 	 add r3,r7,#476
 1618 0f38 1868     	 ldr r0,[r3]
 1619 0f3a 07F5EC73 	 add r3,r7,#472
 1620 0f3e 1B68     	 ldr r3,[r3]
 1621              	
 1622 0f40 C0FBD321 	 smlaldx r2,r1,r0,r3
 1623              	
 1624              	 .thumb
 1625 0f44 07F58873 	 add r3,r7,#272
 1626 0f48 1A60     	 str r2,[r3]
 1627 0f4a 07F58873 	 add r3,r7,#272
 1628 0f4e 5960     	 str r1,[r3,#4]
 1629              	 .loc 2 550 0
 1630 0f50 07F58873 	 add r3,r7,#272
 1631 0f54 D3E90023 	 ldrd r2,[r3]
 1632              	.LBE129:
 1633              	.LBE128:
 1634              	 .loc 1 447 0
 1635 0f58 07F58361 	 add r1,r7,#1048
 1636 0f5c C1E90023 	 strd r2,[r1]
 448:../Dave/Generated/CMSIS_DSP/FilteringFunctions/arm_conv_q15.c ****         acc1 = __SMLALD(x2, c0, acc1);
 1637              	 .loc 1 448 0
 1638 0f60 D7F8BC23 	 ldr r2,[r7,#956]
 1639 0f64 D7F8C043 	 ldr r4,[r7,#960]
 1640 0f68 07F58263 	 add r3,r7,#1040
 1641 0f6c D3E90001 	 ldrd r0,[r3]
 1642 0f70 07F5E673 	 add r3,r7,#460
 1643 0f74 1A60     	 str r2,[r3]
 1644 0f76 07F5E473 	 add r3,r7,#456
 1645 0f7a 1C60     	 str r4,[r3]
 1646 0f7c 07F5E073 	 add r3,r7,#448
 1647 0f80 C3E90001 	 strd r0,[r3]
 1648              	.LBB130:
 1649              	.LBB131:
 525:C:\Users\Depes Crystalline\Desktop\school\Active_Bike_Lighting_System\Radar_Core/Libraries/CMSIS/Include\core_cmSimd.h **** 
 1650              	 .loc 2 525 0
 1651 0f84 07F58C71 	 add r1,r7,#280
 1652 0f88 07F5E073 	 add r3,r7,#448
 1653 0f8c D3E90023 	 ldrd r2,[r3]
 1654 0f90 C1E90023 	 strd r2,[r1]
 528:C:\Users\Depes Crystalline\Desktop\school\Active_Bike_Lighting_System\Radar_Core/Libraries/CMSIS/Include\core_cmSimd.h **** #else               // Big endian
 1655              	 .loc 2 528 0
 1656 0f94 07F58C73 	 add r3,r7,#280
 1657 0f98 1A68     	 ldr r2,[r3]
 1658 0f9a 07F58C73 	 add r3,r7,#280
 1659 0f9e 5968     	 ldr r1,[r3,#4]
 1660 0fa0 07F5E673 	 add r3,r7,#460
 1661 0fa4 1868     	 ldr r0,[r3]
 1662 0fa6 07F5E473 	 add r3,r7,#456
 1663 0faa 1B68     	 ldr r3,[r3]
 1664              	
 1665 0fac C0FBC321 	 smlald r2,r1,r0,r3
 1666              	
 1667              	 .thumb
 1668 0fb0 07F58C73 	 add r3,r7,#280
 1669 0fb4 1A60     	 str r2,[r3]
 1670 0fb6 07F58C73 	 add r3,r7,#280
 1671 0fba 5960     	 str r1,[r3,#4]
 533:C:\Users\Depes Crystalline\Desktop\school\Active_Bike_Lighting_System\Radar_Core/Libraries/CMSIS/Include\core_cmSimd.h **** }
 1672              	 .loc 2 533 0
 1673 0fbc 07F58C73 	 add r3,r7,#280
 1674 0fc0 D3E90023 	 ldrd r2,[r3]
 1675              	.LBE131:
 1676              	.LBE130:
 1677              	 .loc 1 448 0
 1678 0fc4 07F58261 	 add r1,r7,#1040
 1679 0fc8 C1E90023 	 strd r2,[r1]
 449:../Dave/Generated/CMSIS_DSP/FilteringFunctions/arm_conv_q15.c ****         acc2 = __SMLALDX(x2, c0, acc2);
 1680              	 .loc 1 449 0
 1681 0fcc D7F8BC23 	 ldr r2,[r7,#956]
 1682 0fd0 D7F8C043 	 ldr r4,[r7,#960]
 1683 0fd4 07F58163 	 add r3,r7,#1032
 1684 0fd8 D3E90001 	 ldrd r0,[r3]
 1685 0fdc 07F5DE73 	 add r3,r7,#444
 1686 0fe0 1A60     	 str r2,[r3]
 1687 0fe2 07F5DC73 	 add r3,r7,#440
 1688 0fe6 1C60     	 str r4,[r3]
 1689 0fe8 07F5D873 	 add r3,r7,#432
 1690 0fec C3E90001 	 strd r0,[r3]
 1691              	.LBB132:
 1692              	.LBB133:
 542:C:\Users\Depes Crystalline\Desktop\school\Active_Bike_Lighting_System\Radar_Core/Libraries/CMSIS/Include\core_cmSimd.h **** 
 1693              	 .loc 2 542 0
 1694 0ff0 07F59071 	 add r1,r7,#288
 1695 0ff4 07F5D873 	 add r3,r7,#432
 1696 0ff8 D3E90023 	 ldrd r2,[r3]
 1697 0ffc C1E90023 	 strd r2,[r1]
 545:C:\Users\Depes Crystalline\Desktop\school\Active_Bike_Lighting_System\Radar_Core/Libraries/CMSIS/Include\core_cmSimd.h **** #else               // Big endian
 1698              	 .loc 2 545 0
 1699 1000 07F59073 	 add r3,r7,#288
 1700 1004 1A68     	 ldr r2,[r3]
 1701 1006 07F59073 	 add r3,r7,#288
 1702 100a 5968     	 ldr r1,[r3,#4]
 1703 100c 07F5DE73 	 add r3,r7,#444
 1704 1010 1868     	 ldr r0,[r3]
 1705 1012 07F5DC73 	 add r3,r7,#440
 1706 1016 1B68     	 ldr r3,[r3]
 1707              	
 1708 1018 C0FBD321 	 smlaldx r2,r1,r0,r3
 1709              	
 1710              	 .thumb
 1711 101c 07F59073 	 add r3,r7,#288
 1712 1020 1A60     	 str r2,[r3]
 1713 1022 07F59073 	 add r3,r7,#288
 1714 1026 5960     	 str r1,[r3,#4]
 1715              	 .loc 2 550 0
 1716 1028 07F59073 	 add r3,r7,#288
 1717 102c D3E90023 	 ldrd r2,[r3]
 1718              	.LBE133:
 1719              	.LBE132:
 1720              	 .loc 1 449 0
 1721 1030 07F58161 	 add r1,r7,#1032
 1722 1034 C1E90023 	 strd r2,[r1]
 450:../Dave/Generated/CMSIS_DSP/FilteringFunctions/arm_conv_q15.c ****         acc3 = __SMLALDX(x3, c0, acc3);
 1723              	 .loc 1 450 0
 1724 1038 D7F8B823 	 ldr r2,[r7,#952]
 1725 103c D7F8C043 	 ldr r4,[r7,#960]
 1726 1040 07F58063 	 add r3,r7,#1024
 1727 1044 D3E90001 	 ldrd r0,[r3]
 1728 1048 07F5D673 	 add r3,r7,#428
 1729 104c 1A60     	 str r2,[r3]
 1730 104e 07F5D473 	 add r3,r7,#424
 1731 1052 1C60     	 str r4,[r3]
 1732 1054 07F5D073 	 add r3,r7,#416
 1733 1058 C3E90001 	 strd r0,[r3]
 1734              	.LBB134:
 1735              	.LBB135:
 542:C:\Users\Depes Crystalline\Desktop\school\Active_Bike_Lighting_System\Radar_Core/Libraries/CMSIS/Include\core_cmSimd.h **** 
 1736              	 .loc 2 542 0
 1737 105c 07F59471 	 add r1,r7,#296
 1738 1060 07F5D073 	 add r3,r7,#416
 1739 1064 D3E90023 	 ldrd r2,[r3]
 1740 1068 C1E90023 	 strd r2,[r1]
 545:C:\Users\Depes Crystalline\Desktop\school\Active_Bike_Lighting_System\Radar_Core/Libraries/CMSIS/Include\core_cmSimd.h **** #else               // Big endian
 1741              	 .loc 2 545 0
 1742 106c 07F59473 	 add r3,r7,#296
 1743 1070 1A68     	 ldr r2,[r3]
 1744 1072 07F59473 	 add r3,r7,#296
 1745 1076 5968     	 ldr r1,[r3,#4]
 1746 1078 07F5D673 	 add r3,r7,#428
 1747 107c 1868     	 ldr r0,[r3]
 1748 107e 07F5D473 	 add r3,r7,#424
 1749 1082 1B68     	 ldr r3,[r3]
 1750              	
 1751 1084 C0FBD321 	 smlaldx r2,r1,r0,r3
 1752              	
 1753              	 .thumb
 1754 1088 07F59473 	 add r3,r7,#296
 1755 108c 1A60     	 str r2,[r3]
 1756 108e 07F59473 	 add r3,r7,#296
 1757 1092 5960     	 str r1,[r3,#4]
 1758              	 .loc 2 550 0
 1759 1094 07F59473 	 add r3,r7,#296
 1760 1098 D3E90023 	 ldrd r2,[r3]
 1761              	.LBE135:
 1762              	.LBE134:
 1763              	 .loc 1 450 0
 1764 109c 07F58061 	 add r1,r7,#1024
 1765 10a0 C1E90023 	 strd r2,[r1]
 1766              	.L40:
 451:../Dave/Generated/CMSIS_DSP/FilteringFunctions/arm_conv_q15.c ****       }
 452:../Dave/Generated/CMSIS_DSP/FilteringFunctions/arm_conv_q15.c **** 
 453:../Dave/Generated/CMSIS_DSP/FilteringFunctions/arm_conv_q15.c **** 
 454:../Dave/Generated/CMSIS_DSP/FilteringFunctions/arm_conv_q15.c ****       /* Store the results in the accumulators in the destination buffer. */
 455:../Dave/Generated/CMSIS_DSP/FilteringFunctions/arm_conv_q15.c **** 
 456:../Dave/Generated/CMSIS_DSP/FilteringFunctions/arm_conv_q15.c **** #ifndef  ARM_MATH_BIG_ENDIAN
 457:../Dave/Generated/CMSIS_DSP/FilteringFunctions/arm_conv_q15.c **** 
 458:../Dave/Generated/CMSIS_DSP/FilteringFunctions/arm_conv_q15.c ****       *__SIMD32(pOut)++ =
 1767              	 .loc 1 458 0
 1768 10a4 07F5AE72 	 add r2,r7,#348
 1769 10a8 1168     	 ldr r1,[r2]
 1770 10aa 0B1D     	 adds r3,r1,#4
 1771 10ac 1360     	 str r3,[r2]
 1772              	.LBB136:
 1773              	.LBB137:
 459:../Dave/Generated/CMSIS_DSP/FilteringFunctions/arm_conv_q15.c ****         __PKHBT(__SSAT((acc0 >> 15), 16), __SSAT((acc1 >> 15), 16), 16);
 1774              	 .loc 1 459 0
 1775 10ae 07F58363 	 add r3,r7,#1048
 1776 10b2 D3E90023 	 ldrd r2,[r3]
 1777 10b6 D00B     	 lsrs r0,r2,#15
 1778 10b8 3863     	 str r0,[r7,#48]
 1779 10ba 386B     	 ldr r0,[r7,#48]
 1780 10bc 40EA4340 	 orr r0,r0,r3,lsl#17
 1781 10c0 3863     	 str r0,[r7,#48]
 1782 10c2 DB13     	 asrs r3,r3,#15
 1783 10c4 7B63     	 str r3,[r7,#52]
 1784 10c6 3B6B     	 ldr r3,[r7,#48]
 1785 10c8 C7F8B433 	 str r3,[r7,#948]
 1786 10cc D7F8B433 	 ldr r3,[r7,#948]
 1787              	
 1788 10d0 03F30F03 	 ssat r3,#16,r3
 1789              	
 1790              	 .thumb
 1791 10d4 C7F8B033 	 str r3,[r7,#944]
 1792 10d8 D7F8B033 	 ldr r3,[r7,#944]
 1793              	.LBE137:
 1794 10dc C7F8AC33 	 str r3,[r7,#940]
 1795              	.LBB138:
 1796 10e0 07F58263 	 add r3,r7,#1040
 1797 10e4 D3E90023 	 ldrd r2,[r3]
 1798 10e8 D00B     	 lsrs r0,r2,#15
 1799 10ea B862     	 str r0,[r7,#40]
 1800 10ec B86A     	 ldr r0,[r7,#40]
 1801 10ee 40EA4340 	 orr r0,r0,r3,lsl#17
 1802 10f2 B862     	 str r0,[r7,#40]
 1803 10f4 DB13     	 asrs r3,r3,#15
 1804 10f6 FB62     	 str r3,[r7,#44]
 1805 10f8 BB6A     	 ldr r3,[r7,#40]
 1806 10fa C7F8A833 	 str r3,[r7,#936]
 1807 10fe D7F8A833 	 ldr r3,[r7,#936]
 1808              	
 1809 1102 03F30F03 	 ssat r3,#16,r3
 1810              	
 1811              	 .thumb
 1812 1106 C7F8A433 	 str r3,[r7,#932]
 1813 110a D7F8A433 	 ldr r3,[r7,#932]
 1814              	.LBE138:
 1815 110e C7F8A033 	 str r3,[r7,#928]
 1816 1112 D7F8AC23 	 ldr r2,[r7,#940]
 1817 1116 D7F8A033 	 ldr r3,[r7,#928]
 1818              	
 1819 111a C2EA0343 	 pkhbt r3,r2,r3,lsl#16
 1820              	
 1821              	 .thumb
 1822 111e C7F89C33 	 str r3,[r7,#924]
 1823 1122 D7F89C33 	 ldr r3,[r7,#924]
 1824              	.LBE136:
 458:../Dave/Generated/CMSIS_DSP/FilteringFunctions/arm_conv_q15.c ****         __PKHBT(__SSAT((acc0 >> 15), 16), __SSAT((acc1 >> 15), 16), 16);
 1825              	 .loc 1 458 0
 1826 1126 0B60     	 str r3,[r1]
 460:../Dave/Generated/CMSIS_DSP/FilteringFunctions/arm_conv_q15.c ****       *__SIMD32(pOut)++ =
 1827              	 .loc 1 460 0
 1828 1128 07F5AE72 	 add r2,r7,#348
 1829 112c 1168     	 ldr r1,[r2]
 1830 112e 0B1D     	 adds r3,r1,#4
 1831 1130 1360     	 str r3,[r2]
 1832              	.LBB139:
 1833              	.LBB140:
 461:../Dave/Generated/CMSIS_DSP/FilteringFunctions/arm_conv_q15.c ****         __PKHBT(__SSAT((acc2 >> 15), 16), __SSAT((acc3 >> 15), 16), 16);
 1834              	 .loc 1 461 0
 1835 1132 07F58163 	 add r3,r7,#1032
 1836 1136 D3E90023 	 ldrd r2,[r3]
 1837 113a D00B     	 lsrs r0,r2,#15
 1838 113c 3862     	 str r0,[r7,#32]
 1839 113e 386A     	 ldr r0,[r7,#32]
 1840 1140 40EA4340 	 orr r0,r0,r3,lsl#17
 1841 1144 3862     	 str r0,[r7,#32]
 1842 1146 DB13     	 asrs r3,r3,#15
 1843 1148 7B62     	 str r3,[r7,#36]
 1844 114a 3B6A     	 ldr r3,[r7,#32]
 1845 114c C7F89833 	 str r3,[r7,#920]
 1846 1150 D7F89833 	 ldr r3,[r7,#920]
 1847              	
 1848 1154 03F30F03 	 ssat r3,#16,r3
 1849              	
 1850              	 .thumb
 1851 1158 C7F89433 	 str r3,[r7,#916]
 1852 115c D7F89433 	 ldr r3,[r7,#916]
 1853              	.LBE140:
 1854 1160 C7F89033 	 str r3,[r7,#912]
 1855              	.LBB141:
 1856 1164 07F58063 	 add r3,r7,#1024
 1857 1168 D3E90023 	 ldrd r2,[r3]
 1858 116c D00B     	 lsrs r0,r2,#15
 1859 116e B861     	 str r0,[r7,#24]
 1860 1170 B869     	 ldr r0,[r7,#24]
 1861 1172 40EA4340 	 orr r0,r0,r3,lsl#17
 1862 1176 B861     	 str r0,[r7,#24]
 1863 1178 DB13     	 asrs r3,r3,#15
 1864 117a FB61     	 str r3,[r7,#28]
 1865 117c BB69     	 ldr r3,[r7,#24]
 1866 117e C7F88C33 	 str r3,[r7,#908]
 1867 1182 D7F88C33 	 ldr r3,[r7,#908]
 1868              	
 1869 1186 03F30F03 	 ssat r3,#16,r3
 1870              	
 1871              	 .thumb
 1872 118a C7F88833 	 str r3,[r7,#904]
 1873 118e D7F88833 	 ldr r3,[r7,#904]
 1874              	.LBE141:
 1875 1192 C7F88433 	 str r3,[r7,#900]
 1876 1196 D7F89023 	 ldr r2,[r7,#912]
 1877 119a D7F88433 	 ldr r3,[r7,#900]
 1878              	
 1879 119e C2EA0343 	 pkhbt r3,r2,r3,lsl#16
 1880              	
 1881              	 .thumb
 1882 11a2 C7F88033 	 str r3,[r7,#896]
 1883 11a6 D7F88033 	 ldr r3,[r7,#896]
 1884              	.LBE139:
 460:../Dave/Generated/CMSIS_DSP/FilteringFunctions/arm_conv_q15.c ****       *__SIMD32(pOut)++ =
 1885              	 .loc 1 460 0
 1886 11aa 0B60     	 str r3,[r1]
 462:../Dave/Generated/CMSIS_DSP/FilteringFunctions/arm_conv_q15.c **** 
 463:../Dave/Generated/CMSIS_DSP/FilteringFunctions/arm_conv_q15.c **** #else
 464:../Dave/Generated/CMSIS_DSP/FilteringFunctions/arm_conv_q15.c **** 
 465:../Dave/Generated/CMSIS_DSP/FilteringFunctions/arm_conv_q15.c ****       *__SIMD32(pOut)++ =
 466:../Dave/Generated/CMSIS_DSP/FilteringFunctions/arm_conv_q15.c ****         __PKHBT(__SSAT((acc1 >> 15), 16), __SSAT((acc0 >> 15), 16), 16);
 467:../Dave/Generated/CMSIS_DSP/FilteringFunctions/arm_conv_q15.c ****       *__SIMD32(pOut)++ =
 468:../Dave/Generated/CMSIS_DSP/FilteringFunctions/arm_conv_q15.c ****         __PKHBT(__SSAT((acc3 >> 15), 16), __SSAT((acc2 >> 15), 16), 16);
 469:../Dave/Generated/CMSIS_DSP/FilteringFunctions/arm_conv_q15.c **** 
 470:../Dave/Generated/CMSIS_DSP/FilteringFunctions/arm_conv_q15.c **** #endif /*      #ifndef  ARM_MATH_BIG_ENDIAN    */
 471:../Dave/Generated/CMSIS_DSP/FilteringFunctions/arm_conv_q15.c **** 
 472:../Dave/Generated/CMSIS_DSP/FilteringFunctions/arm_conv_q15.c ****       /* Increment the pointer pIn1 index, count by 4 */
 473:../Dave/Generated/CMSIS_DSP/FilteringFunctions/arm_conv_q15.c ****       count += 4u;
 1887              	 .loc 1 473 0
 1888 11ac D7F8E033 	 ldr r3,[r7,#992]
 1889 11b0 0433     	 adds r3,r3,#4
 1890 11b2 C7F8E033 	 str r3,[r7,#992]
 474:../Dave/Generated/CMSIS_DSP/FilteringFunctions/arm_conv_q15.c **** 
 475:../Dave/Generated/CMSIS_DSP/FilteringFunctions/arm_conv_q15.c ****       /* Update the inputA and inputB pointers for next MAC calculation */
 476:../Dave/Generated/CMSIS_DSP/FilteringFunctions/arm_conv_q15.c ****       px = pIn1 + count;
 1891              	 .loc 1 476 0
 1892 11b6 D7F8E033 	 ldr r3,[r7,#992]
 1893 11ba 5A00     	 lsls r2,r3,#1
 1894 11bc D7F82C34 	 ldr r3,[r7,#1068]
 1895 11c0 1A44     	 add r2,r2,r3
 1896 11c2 07F5AC73 	 add r3,r7,#344
 1897 11c6 1A60     	 str r2,[r3]
 477:../Dave/Generated/CMSIS_DSP/FilteringFunctions/arm_conv_q15.c ****       py = pSrc2;
 1898              	 .loc 1 477 0
 1899 11c8 07F5AA72 	 add r2,r7,#340
 1900 11cc D7F8C433 	 ldr r3,[r7,#964]
 1901 11d0 1360     	 str r3,[r2]
 478:../Dave/Generated/CMSIS_DSP/FilteringFunctions/arm_conv_q15.c **** 
 479:../Dave/Generated/CMSIS_DSP/FilteringFunctions/arm_conv_q15.c ****        /* Decrement the loop counter */
 480:../Dave/Generated/CMSIS_DSP/FilteringFunctions/arm_conv_q15.c ****       blkCnt--;
 1902              	 .loc 1 480 0
 1903 11d2 D7F8DC33 	 ldr r3,[r7,#988]
 1904 11d6 013B     	 subs r3,r3,#1
 1905 11d8 C7F8DC33 	 str r3,[r7,#988]
 1906              	.L20:
 294:../Dave/Generated/CMSIS_DSP/FilteringFunctions/arm_conv_q15.c ****     {
 1907              	 .loc 1 294 0
 1908 11dc D7F8DC33 	 ldr r3,[r7,#988]
 1909 11e0 002B     	 cmp r3,#0
 1910 11e2 7FF45BA9 	 bne .L49
 481:../Dave/Generated/CMSIS_DSP/FilteringFunctions/arm_conv_q15.c ****     }
 482:../Dave/Generated/CMSIS_DSP/FilteringFunctions/arm_conv_q15.c **** 
 483:../Dave/Generated/CMSIS_DSP/FilteringFunctions/arm_conv_q15.c ****     /* If the blockSize2 is not a multiple of 4, compute any remaining output samples here.   
 484:../Dave/Generated/CMSIS_DSP/FilteringFunctions/arm_conv_q15.c ****      ** No loop unrolling is used. */
 485:../Dave/Generated/CMSIS_DSP/FilteringFunctions/arm_conv_q15.c ****     blkCnt = blockSize2 % 0x4u;
 1911              	 .loc 1 485 0
 1912 11e6 D7F8D833 	 ldr r3,[r7,#984]
 1913 11ea 03F00303 	 and r3,r3,#3
 1914 11ee C7F8DC33 	 str r3,[r7,#988]
 486:../Dave/Generated/CMSIS_DSP/FilteringFunctions/arm_conv_q15.c **** 
 487:../Dave/Generated/CMSIS_DSP/FilteringFunctions/arm_conv_q15.c ****     while(blkCnt > 0u)
 1915              	 .loc 1 487 0
 1916 11f2 0BE1     	 b .L50
 1917              	.L55:
 488:../Dave/Generated/CMSIS_DSP/FilteringFunctions/arm_conv_q15.c ****     {
 489:../Dave/Generated/CMSIS_DSP/FilteringFunctions/arm_conv_q15.c ****       /* Accumulator is made zero for every iteration */
 490:../Dave/Generated/CMSIS_DSP/FilteringFunctions/arm_conv_q15.c ****       sum = 0;
 1918              	 .loc 1 490 0
 1919 11f4 4FF00002 	 mov r2,#0
 1920 11f8 4FF00003 	 mov r3,#0
 1921 11fc 07F58461 	 add r1,r7,#1056
 1922 1200 C1E90023 	 strd r2,[r1]
 491:../Dave/Generated/CMSIS_DSP/FilteringFunctions/arm_conv_q15.c **** 
 492:../Dave/Generated/CMSIS_DSP/FilteringFunctions/arm_conv_q15.c ****       /* Apply loop unrolling and compute 4 MACs simultaneously. */
 493:../Dave/Generated/CMSIS_DSP/FilteringFunctions/arm_conv_q15.c ****       k = srcBLen >> 2u;
 1923              	 .loc 1 493 0
 1924 1204 07F14003 	 add r3,r7,#64
 1925 1208 1B68     	 ldr r3,[r3]
 1926 120a 9B08     	 lsrs r3,r3,#2
 1927 120c C7F8E433 	 str r3,[r7,#996]
 494:../Dave/Generated/CMSIS_DSP/FilteringFunctions/arm_conv_q15.c **** 
 495:../Dave/Generated/CMSIS_DSP/FilteringFunctions/arm_conv_q15.c ****       /* First part of the processing with loop unrolling.  Compute 4 MACs at a time.   
 496:../Dave/Generated/CMSIS_DSP/FilteringFunctions/arm_conv_q15.c ****        ** a second loop below computes MACs for the remaining 1 to 3 samples. */
 497:../Dave/Generated/CMSIS_DSP/FilteringFunctions/arm_conv_q15.c ****       while(k > 0u)
 1928              	 .loc 1 497 0
 1929 1210 8CE0     	 b .L51
 1930              	.L52:
 498:../Dave/Generated/CMSIS_DSP/FilteringFunctions/arm_conv_q15.c ****       {
 499:../Dave/Generated/CMSIS_DSP/FilteringFunctions/arm_conv_q15.c ****         /* Perform the multiply-accumulates */
 500:../Dave/Generated/CMSIS_DSP/FilteringFunctions/arm_conv_q15.c ****         sum += (q63_t) ((q31_t) * px++ * *py--);
 1931              	 .loc 1 500 0
 1932 1212 07F5AC73 	 add r3,r7,#344
 1933 1216 1B68     	 ldr r3,[r3]
 1934 1218 991C     	 adds r1,r3,#2
 1935 121a 07F5AC72 	 add r2,r7,#344
 1936 121e 1160     	 str r1,[r2]
 1937 1220 1B88     	 ldrh r3,[r3]
 1938 1222 1AB2     	 sxth r2,r3
 1939 1224 07F5AA73 	 add r3,r7,#340
 1940 1228 1B68     	 ldr r3,[r3]
 1941 122a 981E     	 subs r0,r3,#2
 1942 122c 07F5AA71 	 add r1,r7,#340
 1943 1230 0860     	 str r0,[r1]
 1944 1232 1B88     	 ldrh r3,[r3]
 1945 1234 1BB2     	 sxth r3,r3
 1946 1236 03FB02F3 	 mul r3,r3,r2
 1947 123a 1A46     	 mov r2,r3
 1948 123c 4FEAE273 	 asr r3,r2,#31
 1949 1240 07F58461 	 add r1,r7,#1056
 1950 1244 D1E90001 	 ldrd r0,[r1]
 1951 1248 1218     	 adds r2,r2,r0
 1952 124a 43EB0103 	 adc r3,r3,r1
 1953 124e 07F58461 	 add r1,r7,#1056
 1954 1252 C1E90023 	 strd r2,[r1]
 501:../Dave/Generated/CMSIS_DSP/FilteringFunctions/arm_conv_q15.c ****         sum += (q63_t) ((q31_t) * px++ * *py--);
 1955              	 .loc 1 501 0
 1956 1256 07F5AC73 	 add r3,r7,#344
 1957 125a 1B68     	 ldr r3,[r3]
 1958 125c 991C     	 adds r1,r3,#2
 1959 125e 07F5AC72 	 add r2,r7,#344
 1960 1262 1160     	 str r1,[r2]
 1961 1264 1B88     	 ldrh r3,[r3]
 1962 1266 1AB2     	 sxth r2,r3
 1963 1268 07F5AA73 	 add r3,r7,#340
 1964 126c 1B68     	 ldr r3,[r3]
 1965 126e 981E     	 subs r0,r3,#2
 1966 1270 07F5AA71 	 add r1,r7,#340
 1967 1274 0860     	 str r0,[r1]
 1968 1276 1B88     	 ldrh r3,[r3]
 1969 1278 1BB2     	 sxth r3,r3
 1970 127a 03FB02F3 	 mul r3,r3,r2
 1971 127e 1A46     	 mov r2,r3
 1972 1280 4FEAE273 	 asr r3,r2,#31
 1973 1284 07F58461 	 add r1,r7,#1056
 1974 1288 D1E90001 	 ldrd r0,[r1]
 1975 128c 1218     	 adds r2,r2,r0
 1976 128e 43EB0103 	 adc r3,r3,r1
 1977 1292 07F58461 	 add r1,r7,#1056
 1978 1296 C1E90023 	 strd r2,[r1]
 502:../Dave/Generated/CMSIS_DSP/FilteringFunctions/arm_conv_q15.c ****         sum += (q63_t) ((q31_t) * px++ * *py--);
 1979              	 .loc 1 502 0
 1980 129a 07F5AC73 	 add r3,r7,#344
 1981 129e 1B68     	 ldr r3,[r3]
 1982 12a0 991C     	 adds r1,r3,#2
 1983 12a2 07F5AC72 	 add r2,r7,#344
 1984 12a6 1160     	 str r1,[r2]
 1985 12a8 1B88     	 ldrh r3,[r3]
 1986 12aa 1AB2     	 sxth r2,r3
 1987 12ac 07F5AA73 	 add r3,r7,#340
 1988 12b0 1B68     	 ldr r3,[r3]
 1989 12b2 981E     	 subs r0,r3,#2
 1990 12b4 07F5AA71 	 add r1,r7,#340
 1991 12b8 0860     	 str r0,[r1]
 1992 12ba 1B88     	 ldrh r3,[r3]
 1993 12bc 1BB2     	 sxth r3,r3
 1994 12be 03FB02F3 	 mul r3,r3,r2
 1995 12c2 1A46     	 mov r2,r3
 1996 12c4 4FEAE273 	 asr r3,r2,#31
 1997 12c8 07F58461 	 add r1,r7,#1056
 1998 12cc D1E90001 	 ldrd r0,[r1]
 1999 12d0 1218     	 adds r2,r2,r0
 2000 12d2 43EB0103 	 adc r3,r3,r1
 2001 12d6 07F58461 	 add r1,r7,#1056
 2002 12da C1E90023 	 strd r2,[r1]
 503:../Dave/Generated/CMSIS_DSP/FilteringFunctions/arm_conv_q15.c ****         sum += (q63_t) ((q31_t) * px++ * *py--);
 2003              	 .loc 1 503 0
 2004 12de 07F5AC73 	 add r3,r7,#344
 2005 12e2 1B68     	 ldr r3,[r3]
 2006 12e4 991C     	 adds r1,r3,#2
 2007 12e6 07F5AC72 	 add r2,r7,#344
 2008 12ea 1160     	 str r1,[r2]
 2009 12ec 1B88     	 ldrh r3,[r3]
 2010 12ee 1AB2     	 sxth r2,r3
 2011 12f0 07F5AA73 	 add r3,r7,#340
 2012 12f4 1B68     	 ldr r3,[r3]
 2013 12f6 981E     	 subs r0,r3,#2
 2014 12f8 07F5AA71 	 add r1,r7,#340
 2015 12fc 0860     	 str r0,[r1]
 2016 12fe 1B88     	 ldrh r3,[r3]
 2017 1300 1BB2     	 sxth r3,r3
 2018 1302 03FB02F3 	 mul r3,r3,r2
 2019 1306 1A46     	 mov r2,r3
 2020 1308 4FEAE273 	 asr r3,r2,#31
 2021 130c 07F58461 	 add r1,r7,#1056
 2022 1310 D1E90001 	 ldrd r0,[r1]
 2023 1314 1218     	 adds r2,r2,r0
 2024 1316 43EB0103 	 adc r3,r3,r1
 2025 131a 07F58461 	 add r1,r7,#1056
 2026 131e C1E90023 	 strd r2,[r1]
 504:../Dave/Generated/CMSIS_DSP/FilteringFunctions/arm_conv_q15.c **** 
 505:../Dave/Generated/CMSIS_DSP/FilteringFunctions/arm_conv_q15.c ****         /* Decrement the loop counter */
 506:../Dave/Generated/CMSIS_DSP/FilteringFunctions/arm_conv_q15.c ****         k--;
 2027              	 .loc 1 506 0
 2028 1322 D7F8E433 	 ldr r3,[r7,#996]
 2029 1326 013B     	 subs r3,r3,#1
 2030 1328 C7F8E433 	 str r3,[r7,#996]
 2031              	.L51:
 497:../Dave/Generated/CMSIS_DSP/FilteringFunctions/arm_conv_q15.c ****       {
 2032              	 .loc 1 497 0
 2033 132c D7F8E433 	 ldr r3,[r7,#996]
 2034 1330 002B     	 cmp r3,#0
 2035 1332 7FF46EAF 	 bne .L52
 507:../Dave/Generated/CMSIS_DSP/FilteringFunctions/arm_conv_q15.c ****       }
 508:../Dave/Generated/CMSIS_DSP/FilteringFunctions/arm_conv_q15.c **** 
 509:../Dave/Generated/CMSIS_DSP/FilteringFunctions/arm_conv_q15.c ****       /* If the srcBLen is not a multiple of 4, compute any remaining MACs here.   
 510:../Dave/Generated/CMSIS_DSP/FilteringFunctions/arm_conv_q15.c ****        ** No loop unrolling is used. */
 511:../Dave/Generated/CMSIS_DSP/FilteringFunctions/arm_conv_q15.c ****       k = srcBLen % 0x4u;
 2036              	 .loc 1 511 0
 2037 1336 07F14003 	 add r3,r7,#64
 2038 133a 1B68     	 ldr r3,[r3]
 2039 133c 03F00303 	 and r3,r3,#3
 2040 1340 C7F8E433 	 str r3,[r7,#996]
 512:../Dave/Generated/CMSIS_DSP/FilteringFunctions/arm_conv_q15.c **** 
 513:../Dave/Generated/CMSIS_DSP/FilteringFunctions/arm_conv_q15.c ****       while(k > 0u)
 2041              	 .loc 1 513 0
 2042 1344 26E0     	 b .L53
 2043              	.L54:
 514:../Dave/Generated/CMSIS_DSP/FilteringFunctions/arm_conv_q15.c ****       {
 515:../Dave/Generated/CMSIS_DSP/FilteringFunctions/arm_conv_q15.c ****         /* Perform the multiply-accumulates */
 516:../Dave/Generated/CMSIS_DSP/FilteringFunctions/arm_conv_q15.c ****         sum += (q63_t) ((q31_t) * px++ * *py--);
 2044              	 .loc 1 516 0
 2045 1346 07F5AC73 	 add r3,r7,#344
 2046 134a 1B68     	 ldr r3,[r3]
 2047 134c 991C     	 adds r1,r3,#2
 2048 134e 07F5AC72 	 add r2,r7,#344
 2049 1352 1160     	 str r1,[r2]
 2050 1354 1B88     	 ldrh r3,[r3]
 2051 1356 1AB2     	 sxth r2,r3
 2052 1358 07F5AA73 	 add r3,r7,#340
 2053 135c 1B68     	 ldr r3,[r3]
 2054 135e 981E     	 subs r0,r3,#2
 2055 1360 07F5AA71 	 add r1,r7,#340
 2056 1364 0860     	 str r0,[r1]
 2057 1366 1B88     	 ldrh r3,[r3]
 2058 1368 1BB2     	 sxth r3,r3
 2059 136a 03FB02F3 	 mul r3,r3,r2
 2060 136e 1A46     	 mov r2,r3
 2061 1370 4FEAE273 	 asr r3,r2,#31
 2062 1374 07F58461 	 add r1,r7,#1056
 2063 1378 D1E90001 	 ldrd r0,[r1]
 2064 137c 1218     	 adds r2,r2,r0
 2065 137e 43EB0103 	 adc r3,r3,r1
 2066 1382 07F58461 	 add r1,r7,#1056
 2067 1386 C1E90023 	 strd r2,[r1]
 517:../Dave/Generated/CMSIS_DSP/FilteringFunctions/arm_conv_q15.c **** 
 518:../Dave/Generated/CMSIS_DSP/FilteringFunctions/arm_conv_q15.c ****         /* Decrement the loop counter */
 519:../Dave/Generated/CMSIS_DSP/FilteringFunctions/arm_conv_q15.c ****         k--;
 2068              	 .loc 1 519 0
 2069 138a D7F8E433 	 ldr r3,[r7,#996]
 2070 138e 013B     	 subs r3,r3,#1
 2071 1390 C7F8E433 	 str r3,[r7,#996]
 2072              	.L53:
 513:../Dave/Generated/CMSIS_DSP/FilteringFunctions/arm_conv_q15.c ****       {
 2073              	 .loc 1 513 0
 2074 1394 D7F8E433 	 ldr r3,[r7,#996]
 2075 1398 002B     	 cmp r3,#0
 2076 139a D4D1     	 bne .L54
 520:../Dave/Generated/CMSIS_DSP/FilteringFunctions/arm_conv_q15.c ****       }
 521:../Dave/Generated/CMSIS_DSP/FilteringFunctions/arm_conv_q15.c **** 
 522:../Dave/Generated/CMSIS_DSP/FilteringFunctions/arm_conv_q15.c ****       /* Store the result in the accumulator in the destination buffer. */
 523:../Dave/Generated/CMSIS_DSP/FilteringFunctions/arm_conv_q15.c ****       *pOut++ = (q15_t) (__SSAT(sum >> 15, 16));
 2077              	 .loc 1 523 0
 2078 139c 07F5AE73 	 add r3,r7,#348
 2079 13a0 1968     	 ldr r1,[r3]
 2080 13a2 8A1C     	 adds r2,r1,#2
 2081 13a4 07F5AE73 	 add r3,r7,#348
 2082 13a8 1A60     	 str r2,[r3]
 2083              	.LBB142:
 2084 13aa 07F58463 	 add r3,r7,#1056
 2085 13ae D3E90023 	 ldrd r2,[r3]
 2086 13b2 D00B     	 lsrs r0,r2,#15
 2087 13b4 3861     	 str r0,[r7,#16]
 2088 13b6 3869     	 ldr r0,[r7,#16]
 2089 13b8 40EA4340 	 orr r0,r0,r3,lsl#17
 2090 13bc 3861     	 str r0,[r7,#16]
 2091 13be DB13     	 asrs r3,r3,#15
 2092 13c0 7B61     	 str r3,[r7,#20]
 2093 13c2 3B69     	 ldr r3,[r7,#16]
 2094 13c4 C7F87C33 	 str r3,[r7,#892]
 2095 13c8 D7F87C33 	 ldr r3,[r7,#892]
 2096              	
 2097 13cc 03F30F03 	 ssat r3,#16,r3
 2098              	
 2099              	 .thumb
 2100 13d0 C7F87833 	 str r3,[r7,#888]
 2101 13d4 D7F87833 	 ldr r3,[r7,#888]
 2102              	.LBE142:
 2103 13d8 9BB2     	 uxth r3,r3
 2104 13da 0B80     	 strh r3,[r1]
 524:../Dave/Generated/CMSIS_DSP/FilteringFunctions/arm_conv_q15.c **** 
 525:../Dave/Generated/CMSIS_DSP/FilteringFunctions/arm_conv_q15.c ****       /* Increment the pointer pIn1 index, count by 1 */
 526:../Dave/Generated/CMSIS_DSP/FilteringFunctions/arm_conv_q15.c ****       count++;
 2105              	 .loc 1 526 0
 2106 13dc D7F8E033 	 ldr r3,[r7,#992]
 2107 13e0 0133     	 adds r3,r3,#1
 2108 13e2 C7F8E033 	 str r3,[r7,#992]
 527:../Dave/Generated/CMSIS_DSP/FilteringFunctions/arm_conv_q15.c **** 
 528:../Dave/Generated/CMSIS_DSP/FilteringFunctions/arm_conv_q15.c ****       /* Update the inputA and inputB pointers for next MAC calculation */
 529:../Dave/Generated/CMSIS_DSP/FilteringFunctions/arm_conv_q15.c ****       px = pIn1 + count;
 2109              	 .loc 1 529 0
 2110 13e6 D7F8E033 	 ldr r3,[r7,#992]
 2111 13ea 5B00     	 lsls r3,r3,#1
 2112 13ec D7F82C24 	 ldr r2,[r7,#1068]
 2113 13f0 1A44     	 add r2,r2,r3
 2114 13f2 07F5AC73 	 add r3,r7,#344
 2115 13f6 1A60     	 str r2,[r3]
 530:../Dave/Generated/CMSIS_DSP/FilteringFunctions/arm_conv_q15.c ****       py = pSrc2;
 2116              	 .loc 1 530 0
 2117 13f8 07F5AA73 	 add r3,r7,#340
 2118 13fc D7F8C423 	 ldr r2,[r7,#964]
 2119 1400 1A60     	 str r2,[r3]
 531:../Dave/Generated/CMSIS_DSP/FilteringFunctions/arm_conv_q15.c **** 
 532:../Dave/Generated/CMSIS_DSP/FilteringFunctions/arm_conv_q15.c ****       /* Decrement the loop counter */
 533:../Dave/Generated/CMSIS_DSP/FilteringFunctions/arm_conv_q15.c ****       blkCnt--;
 2120              	 .loc 1 533 0
 2121 1402 D7F8DC33 	 ldr r3,[r7,#988]
 2122 1406 013B     	 subs r3,r3,#1
 2123 1408 C7F8DC33 	 str r3,[r7,#988]
 2124              	.L50:
 487:../Dave/Generated/CMSIS_DSP/FilteringFunctions/arm_conv_q15.c ****     {
 2125              	 .loc 1 487 0
 2126 140c D7F8DC33 	 ldr r3,[r7,#988]
 2127 1410 002B     	 cmp r3,#0
 2128 1412 7FF4EFAE 	 bne .L55
 2129 1416 77E0     	 b .L56
 2130              	.L19:
 534:../Dave/Generated/CMSIS_DSP/FilteringFunctions/arm_conv_q15.c ****     }
 535:../Dave/Generated/CMSIS_DSP/FilteringFunctions/arm_conv_q15.c ****   }
 536:../Dave/Generated/CMSIS_DSP/FilteringFunctions/arm_conv_q15.c ****   else
 537:../Dave/Generated/CMSIS_DSP/FilteringFunctions/arm_conv_q15.c ****   {
 538:../Dave/Generated/CMSIS_DSP/FilteringFunctions/arm_conv_q15.c ****     /* If the srcBLen is not a multiple of 4,   
 539:../Dave/Generated/CMSIS_DSP/FilteringFunctions/arm_conv_q15.c ****      * the blockSize2 loop cannot be unrolled by 4 */
 540:../Dave/Generated/CMSIS_DSP/FilteringFunctions/arm_conv_q15.c ****     blkCnt = blockSize2;
 2131              	 .loc 1 540 0
 2132 1418 D7F8D833 	 ldr r3,[r7,#984]
 2133 141c C7F8DC33 	 str r3,[r7,#988]
 541:../Dave/Generated/CMSIS_DSP/FilteringFunctions/arm_conv_q15.c **** 
 542:../Dave/Generated/CMSIS_DSP/FilteringFunctions/arm_conv_q15.c ****     while(blkCnt > 0u)
 2134              	 .loc 1 542 0
 2135 1420 6EE0     	 b .L57
 2136              	.L60:
 543:../Dave/Generated/CMSIS_DSP/FilteringFunctions/arm_conv_q15.c ****     {
 544:../Dave/Generated/CMSIS_DSP/FilteringFunctions/arm_conv_q15.c ****       /* Accumulator is made zero for every iteration */
 545:../Dave/Generated/CMSIS_DSP/FilteringFunctions/arm_conv_q15.c ****       sum = 0;
 2137              	 .loc 1 545 0
 2138 1422 4FF00002 	 mov r2,#0
 2139 1426 4FF00003 	 mov r3,#0
 2140 142a 07F58461 	 add r1,r7,#1056
 2141 142e C1E90023 	 strd r2,[r1]
 546:../Dave/Generated/CMSIS_DSP/FilteringFunctions/arm_conv_q15.c **** 
 547:../Dave/Generated/CMSIS_DSP/FilteringFunctions/arm_conv_q15.c ****       /* srcBLen number of MACS should be performed */
 548:../Dave/Generated/CMSIS_DSP/FilteringFunctions/arm_conv_q15.c ****       k = srcBLen;
 2142              	 .loc 1 548 0
 2143 1432 07F14003 	 add r3,r7,#64
 2144 1436 1B68     	 ldr r3,[r3]
 2145 1438 C7F8E433 	 str r3,[r7,#996]
 549:../Dave/Generated/CMSIS_DSP/FilteringFunctions/arm_conv_q15.c **** 
 550:../Dave/Generated/CMSIS_DSP/FilteringFunctions/arm_conv_q15.c ****       while(k > 0u)
 2146              	 .loc 1 550 0
 2147 143c 26E0     	 b .L58
 2148              	.L59:
 551:../Dave/Generated/CMSIS_DSP/FilteringFunctions/arm_conv_q15.c ****       {
 552:../Dave/Generated/CMSIS_DSP/FilteringFunctions/arm_conv_q15.c ****         /* Perform the multiply-accumulate */
 553:../Dave/Generated/CMSIS_DSP/FilteringFunctions/arm_conv_q15.c ****         sum += (q63_t) ((q31_t) * px++ * *py--);
 2149              	 .loc 1 553 0
 2150 143e 07F5AC73 	 add r3,r7,#344
 2151 1442 1B68     	 ldr r3,[r3]
 2152 1444 991C     	 adds r1,r3,#2
 2153 1446 07F5AC72 	 add r2,r7,#344
 2154 144a 1160     	 str r1,[r2]
 2155 144c 1B88     	 ldrh r3,[r3]
 2156 144e 1AB2     	 sxth r2,r3
 2157 1450 07F5AA73 	 add r3,r7,#340
 2158 1454 1B68     	 ldr r3,[r3]
 2159 1456 981E     	 subs r0,r3,#2
 2160 1458 07F5AA71 	 add r1,r7,#340
 2161 145c 0860     	 str r0,[r1]
 2162 145e 1B88     	 ldrh r3,[r3]
 2163 1460 1BB2     	 sxth r3,r3
 2164 1462 03FB02F3 	 mul r3,r3,r2
 2165 1466 1A46     	 mov r2,r3
 2166 1468 4FEAE273 	 asr r3,r2,#31
 2167 146c 07F58461 	 add r1,r7,#1056
 2168 1470 D1E90001 	 ldrd r0,[r1]
 2169 1474 1218     	 adds r2,r2,r0
 2170 1476 43EB0103 	 adc r3,r3,r1
 2171 147a 07F58461 	 add r1,r7,#1056
 2172 147e C1E90023 	 strd r2,[r1]
 554:../Dave/Generated/CMSIS_DSP/FilteringFunctions/arm_conv_q15.c **** 
 555:../Dave/Generated/CMSIS_DSP/FilteringFunctions/arm_conv_q15.c ****         /* Decrement the loop counter */
 556:../Dave/Generated/CMSIS_DSP/FilteringFunctions/arm_conv_q15.c ****         k--;
 2173              	 .loc 1 556 0
 2174 1482 D7F8E433 	 ldr r3,[r7,#996]
 2175 1486 013B     	 subs r3,r3,#1
 2176 1488 C7F8E433 	 str r3,[r7,#996]
 2177              	.L58:
 550:../Dave/Generated/CMSIS_DSP/FilteringFunctions/arm_conv_q15.c ****       {
 2178              	 .loc 1 550 0
 2179 148c D7F8E433 	 ldr r3,[r7,#996]
 2180 1490 002B     	 cmp r3,#0
 2181 1492 D4D1     	 bne .L59
 557:../Dave/Generated/CMSIS_DSP/FilteringFunctions/arm_conv_q15.c ****       }
 558:../Dave/Generated/CMSIS_DSP/FilteringFunctions/arm_conv_q15.c **** 
 559:../Dave/Generated/CMSIS_DSP/FilteringFunctions/arm_conv_q15.c ****       /* Store the result in the accumulator in the destination buffer. */
 560:../Dave/Generated/CMSIS_DSP/FilteringFunctions/arm_conv_q15.c ****       *pOut++ = (q15_t) (__SSAT(sum >> 15, 16));
 2182              	 .loc 1 560 0
 2183 1494 07F5AE73 	 add r3,r7,#348
 2184 1498 1968     	 ldr r1,[r3]
 2185 149a 8A1C     	 adds r2,r1,#2
 2186 149c 07F5AE73 	 add r3,r7,#348
 2187 14a0 1A60     	 str r2,[r3]
 2188              	.LBB143:
 2189 14a2 07F58463 	 add r3,r7,#1056
 2190 14a6 D3E90023 	 ldrd r2,[r3]
 2191 14aa 4FEAD23A 	 lsr r10,r2,#15
 2192 14ae 4AEA434A 	 orr r10,r10,r3,lsl#17
 2193 14b2 4FEAE33B 	 asr fp,r3,#15
 2194 14b6 5346     	 mov r3,r10
 2195 14b8 C7F87433 	 str r3,[r7,#884]
 2196 14bc D7F87433 	 ldr r3,[r7,#884]
 2197              	
 2198 14c0 03F30F03 	 ssat r3,#16,r3
 2199              	
 2200              	 .thumb
 2201 14c4 C7F87033 	 str r3,[r7,#880]
 2202 14c8 D7F87033 	 ldr r3,[r7,#880]
 2203              	.LBE143:
 2204 14cc 9BB2     	 uxth r3,r3
 2205 14ce 0B80     	 strh r3,[r1]
 561:../Dave/Generated/CMSIS_DSP/FilteringFunctions/arm_conv_q15.c **** 
 562:../Dave/Generated/CMSIS_DSP/FilteringFunctions/arm_conv_q15.c ****       /* Increment the MAC count */
 563:../Dave/Generated/CMSIS_DSP/FilteringFunctions/arm_conv_q15.c ****       count++;
 2206              	 .loc 1 563 0
 2207 14d0 D7F8E033 	 ldr r3,[r7,#992]
 2208 14d4 0133     	 adds r3,r3,#1
 2209 14d6 C7F8E033 	 str r3,[r7,#992]
 564:../Dave/Generated/CMSIS_DSP/FilteringFunctions/arm_conv_q15.c **** 
 565:../Dave/Generated/CMSIS_DSP/FilteringFunctions/arm_conv_q15.c ****       /* Update the inputA and inputB pointers for next MAC calculation */
 566:../Dave/Generated/CMSIS_DSP/FilteringFunctions/arm_conv_q15.c ****       px = pIn1 + count;
 2210              	 .loc 1 566 0
 2211 14da D7F8E033 	 ldr r3,[r7,#992]
 2212 14de 5B00     	 lsls r3,r3,#1
 2213 14e0 D7F82C24 	 ldr r2,[r7,#1068]
 2214 14e4 1A44     	 add r2,r2,r3
 2215 14e6 07F5AC73 	 add r3,r7,#344
 2216 14ea 1A60     	 str r2,[r3]
 567:../Dave/Generated/CMSIS_DSP/FilteringFunctions/arm_conv_q15.c ****       py = pSrc2;
 2217              	 .loc 1 567 0
 2218 14ec 07F5AA73 	 add r3,r7,#340
 2219 14f0 D7F8C423 	 ldr r2,[r7,#964]
 2220 14f4 1A60     	 str r2,[r3]
 568:../Dave/Generated/CMSIS_DSP/FilteringFunctions/arm_conv_q15.c **** 
 569:../Dave/Generated/CMSIS_DSP/FilteringFunctions/arm_conv_q15.c ****       /* Decrement the loop counter */
 570:../Dave/Generated/CMSIS_DSP/FilteringFunctions/arm_conv_q15.c ****       blkCnt--;
 2221              	 .loc 1 570 0
 2222 14f6 D7F8DC33 	 ldr r3,[r7,#988]
 2223 14fa 013B     	 subs r3,r3,#1
 2224 14fc C7F8DC33 	 str r3,[r7,#988]
 2225              	.L57:
 542:../Dave/Generated/CMSIS_DSP/FilteringFunctions/arm_conv_q15.c ****     {
 2226              	 .loc 1 542 0
 2227 1500 D7F8DC33 	 ldr r3,[r7,#988]
 2228 1504 002B     	 cmp r3,#0
 2229 1506 8CD1     	 bne .L60
 2230              	.L56:
 571:../Dave/Generated/CMSIS_DSP/FilteringFunctions/arm_conv_q15.c ****     }
 572:../Dave/Generated/CMSIS_DSP/FilteringFunctions/arm_conv_q15.c ****   }
 573:../Dave/Generated/CMSIS_DSP/FilteringFunctions/arm_conv_q15.c **** 
 574:../Dave/Generated/CMSIS_DSP/FilteringFunctions/arm_conv_q15.c **** 
 575:../Dave/Generated/CMSIS_DSP/FilteringFunctions/arm_conv_q15.c ****   /* --------------------------   
 576:../Dave/Generated/CMSIS_DSP/FilteringFunctions/arm_conv_q15.c ****    * Initializations of stage3   
 577:../Dave/Generated/CMSIS_DSP/FilteringFunctions/arm_conv_q15.c ****    * -------------------------*/
 578:../Dave/Generated/CMSIS_DSP/FilteringFunctions/arm_conv_q15.c **** 
 579:../Dave/Generated/CMSIS_DSP/FilteringFunctions/arm_conv_q15.c ****   /* sum += x[srcALen-srcBLen+1] * y[srcBLen-1] + x[srcALen-srcBLen+2] * y[srcBLen-2] +...+ x[srcAL
 580:../Dave/Generated/CMSIS_DSP/FilteringFunctions/arm_conv_q15.c ****    * sum += x[srcALen-srcBLen+2] * y[srcBLen-1] + x[srcALen-srcBLen+3] * y[srcBLen-2] +...+ x[srcAL
 581:../Dave/Generated/CMSIS_DSP/FilteringFunctions/arm_conv_q15.c ****    * ....   
 582:../Dave/Generated/CMSIS_DSP/FilteringFunctions/arm_conv_q15.c ****    * sum +=  x[srcALen-2] * y[srcBLen-1] + x[srcALen-1] * y[srcBLen-2]   
 583:../Dave/Generated/CMSIS_DSP/FilteringFunctions/arm_conv_q15.c ****    * sum +=  x[srcALen-1] * y[srcBLen-1]   
 584:../Dave/Generated/CMSIS_DSP/FilteringFunctions/arm_conv_q15.c ****    */
 585:../Dave/Generated/CMSIS_DSP/FilteringFunctions/arm_conv_q15.c **** 
 586:../Dave/Generated/CMSIS_DSP/FilteringFunctions/arm_conv_q15.c ****   /* In this stage the MAC operations are decreased by 1 for every iteration.   
 587:../Dave/Generated/CMSIS_DSP/FilteringFunctions/arm_conv_q15.c ****      The blockSize3 variable holds the number of MAC operations performed */
 588:../Dave/Generated/CMSIS_DSP/FilteringFunctions/arm_conv_q15.c **** 
 589:../Dave/Generated/CMSIS_DSP/FilteringFunctions/arm_conv_q15.c ****   blockSize3 = srcBLen - 1u;
 2231              	 .loc 1 589 0
 2232 1508 07F14003 	 add r3,r7,#64
 2233 150c 1B68     	 ldr r3,[r3]
 2234 150e 013B     	 subs r3,r3,#1
 2235 1510 C7F8EC33 	 str r3,[r7,#1004]
 590:../Dave/Generated/CMSIS_DSP/FilteringFunctions/arm_conv_q15.c **** 
 591:../Dave/Generated/CMSIS_DSP/FilteringFunctions/arm_conv_q15.c ****   /* Working pointer of inputA */
 592:../Dave/Generated/CMSIS_DSP/FilteringFunctions/arm_conv_q15.c ****   pSrc1 = (pIn1 + srcALen) - (srcBLen - 1u);
 2236              	 .loc 1 592 0
 2237 1514 07F14802 	 add r2,r7,#72
 2238 1518 07F14003 	 add r3,r7,#64
 2239 151c 1268     	 ldr r2,[r2]
 2240 151e 1B68     	 ldr r3,[r3]
 2241 1520 D31A     	 subs r3,r2,r3
 2242 1522 0133     	 adds r3,r3,#1
 2243 1524 5B00     	 lsls r3,r3,#1
 2244 1526 D7F82C24 	 ldr r2,[r7,#1068]
 2245 152a 1344     	 add r3,r3,r2
 2246 152c C7F8FC33 	 str r3,[r7,#1020]
 593:../Dave/Generated/CMSIS_DSP/FilteringFunctions/arm_conv_q15.c ****   px = pSrc1;
 2247              	 .loc 1 593 0
 2248 1530 07F5AC73 	 add r3,r7,#344
 2249 1534 D7F8FC23 	 ldr r2,[r7,#1020]
 2250 1538 1A60     	 str r2,[r3]
 594:../Dave/Generated/CMSIS_DSP/FilteringFunctions/arm_conv_q15.c **** 
 595:../Dave/Generated/CMSIS_DSP/FilteringFunctions/arm_conv_q15.c ****   /* Working pointer of inputB */
 596:../Dave/Generated/CMSIS_DSP/FilteringFunctions/arm_conv_q15.c ****   pSrc2 = pIn2 + (srcBLen - 1u);
 2251              	 .loc 1 596 0
 2252 153a 07F14003 	 add r3,r7,#64
 2253 153e 1B68     	 ldr r3,[r3]
 2254 1540 03F10043 	 add r3,r3,#-2147483648
 2255 1544 013B     	 subs r3,r3,#1
 2256 1546 5B00     	 lsls r3,r3,#1
 2257 1548 D7F82824 	 ldr r2,[r7,#1064]
 2258 154c 1344     	 add r3,r3,r2
 2259 154e C7F8C433 	 str r3,[r7,#964]
 597:../Dave/Generated/CMSIS_DSP/FilteringFunctions/arm_conv_q15.c ****   pIn2 = pSrc2 - 1u;
 2260              	 .loc 1 597 0
 2261 1552 D7F8C433 	 ldr r3,[r7,#964]
 2262 1556 023B     	 subs r3,r3,#2
 2263 1558 C7F82834 	 str r3,[r7,#1064]
 598:../Dave/Generated/CMSIS_DSP/FilteringFunctions/arm_conv_q15.c ****   py = pIn2;
 2264              	 .loc 1 598 0
 2265 155c 07F5AA73 	 add r3,r7,#340
 2266 1560 D7F82824 	 ldr r2,[r7,#1064]
 2267 1564 1A60     	 str r2,[r3]
 599:../Dave/Generated/CMSIS_DSP/FilteringFunctions/arm_conv_q15.c **** 
 600:../Dave/Generated/CMSIS_DSP/FilteringFunctions/arm_conv_q15.c ****   /* -------------------   
 601:../Dave/Generated/CMSIS_DSP/FilteringFunctions/arm_conv_q15.c ****    * Stage3 process   
 602:../Dave/Generated/CMSIS_DSP/FilteringFunctions/arm_conv_q15.c ****    * ------------------*/
 603:../Dave/Generated/CMSIS_DSP/FilteringFunctions/arm_conv_q15.c **** 
 604:../Dave/Generated/CMSIS_DSP/FilteringFunctions/arm_conv_q15.c ****   /* For loop unrolling by 4, this stage is divided into two. */
 605:../Dave/Generated/CMSIS_DSP/FilteringFunctions/arm_conv_q15.c ****   /* First part of this stage computes the MAC operations greater than 4 */
 606:../Dave/Generated/CMSIS_DSP/FilteringFunctions/arm_conv_q15.c ****   /* Second part of this stage computes the MAC operations less than or equal to 4 */
 607:../Dave/Generated/CMSIS_DSP/FilteringFunctions/arm_conv_q15.c **** 
 608:../Dave/Generated/CMSIS_DSP/FilteringFunctions/arm_conv_q15.c ****   /* The first part of the stage starts here */
 609:../Dave/Generated/CMSIS_DSP/FilteringFunctions/arm_conv_q15.c ****   j = blockSize3 >> 2u;
 2268              	 .loc 1 609 0
 2269 1566 D7F8EC33 	 ldr r3,[r7,#1004]
 2270 156a 9B08     	 lsrs r3,r3,#2
 2271 156c C7F8E833 	 str r3,[r7,#1000]
 610:../Dave/Generated/CMSIS_DSP/FilteringFunctions/arm_conv_q15.c **** 
 611:../Dave/Generated/CMSIS_DSP/FilteringFunctions/arm_conv_q15.c ****   while((j > 0u) && (blockSize3 > 0u))
 2272              	 .loc 1 611 0
 2273 1570 2EE1     	 b .L61
 2274              	.L70:
 612:../Dave/Generated/CMSIS_DSP/FilteringFunctions/arm_conv_q15.c ****   {
 613:../Dave/Generated/CMSIS_DSP/FilteringFunctions/arm_conv_q15.c ****     /* Accumulator is made zero for every iteration */
 614:../Dave/Generated/CMSIS_DSP/FilteringFunctions/arm_conv_q15.c ****     sum = 0;
 2275              	 .loc 1 614 0
 2276 1572 4FF00002 	 mov r2,#0
 2277 1576 4FF00003 	 mov r3,#0
 2278 157a 07F58461 	 add r1,r7,#1056
 2279 157e C1E90023 	 strd r2,[r1]
 615:../Dave/Generated/CMSIS_DSP/FilteringFunctions/arm_conv_q15.c **** 
 616:../Dave/Generated/CMSIS_DSP/FilteringFunctions/arm_conv_q15.c ****     /* Apply loop unrolling and compute 4 MACs simultaneously. */
 617:../Dave/Generated/CMSIS_DSP/FilteringFunctions/arm_conv_q15.c ****     k = blockSize3 >> 2u;
 2280              	 .loc 1 617 0
 2281 1582 D7F8EC33 	 ldr r3,[r7,#1004]
 2282 1586 9B08     	 lsrs r3,r3,#2
 2283 1588 C7F8E433 	 str r3,[r7,#996]
 618:../Dave/Generated/CMSIS_DSP/FilteringFunctions/arm_conv_q15.c **** 
 619:../Dave/Generated/CMSIS_DSP/FilteringFunctions/arm_conv_q15.c ****     /* First part of the processing with loop unrolling.  Compute 4 MACs at a time.   
 620:../Dave/Generated/CMSIS_DSP/FilteringFunctions/arm_conv_q15.c ****      ** a second loop below computes MACs for the remaining 1 to 3 samples. */
 621:../Dave/Generated/CMSIS_DSP/FilteringFunctions/arm_conv_q15.c ****     while(k > 0u)
 2284              	 .loc 1 621 0
 2285 158c 86E0     	 b .L62
 2286              	.L65:
 622:../Dave/Generated/CMSIS_DSP/FilteringFunctions/arm_conv_q15.c ****     {
 623:../Dave/Generated/CMSIS_DSP/FilteringFunctions/arm_conv_q15.c ****       /* x[srcALen - srcBLen + 1], x[srcALen - srcBLen + 2] are multiplied   
 624:../Dave/Generated/CMSIS_DSP/FilteringFunctions/arm_conv_q15.c ****        * with y[srcBLen - 1], y[srcBLen - 2] respectively */
 625:../Dave/Generated/CMSIS_DSP/FilteringFunctions/arm_conv_q15.c ****       sum = __SMLALDX(*__SIMD32(px)++, *__SIMD32(py)--, sum);
 2287              	 .loc 1 625 0
 2288 158e 07F5AC72 	 add r2,r7,#344
 2289 1592 1368     	 ldr r3,[r2]
 2290 1594 191D     	 adds r1,r3,#4
 2291 1596 1160     	 str r1,[r2]
 2292 1598 1B68     	 ldr r3,[r3]
 2293 159a 1C46     	 mov r4,r3
 2294 159c 07F5AA72 	 add r2,r7,#340
 2295 15a0 1368     	 ldr r3,[r2]
 2296 15a2 191F     	 subs r1,r3,#4
 2297 15a4 1160     	 str r1,[r2]
 2298 15a6 1B68     	 ldr r3,[r3]
 2299 15a8 1846     	 mov r0,r3
 2300 15aa 07F58463 	 add r3,r7,#1056
 2301 15ae D3E90023 	 ldrd r2,[r3]
 2302 15b2 07F5CE71 	 add r1,r7,#412
 2303 15b6 0C60     	 str r4,[r1]
 2304 15b8 07F5CC71 	 add r1,r7,#408
 2305 15bc 0860     	 str r0,[r1]
 2306 15be 07F5C871 	 add r1,r7,#400
 2307 15c2 C1E90023 	 strd r2,[r1]
 2308              	.LBB144:
 2309              	.LBB145:
 542:C:\Users\Depes Crystalline\Desktop\school\Active_Bike_Lighting_System\Radar_Core/Libraries/CMSIS/Include\core_cmSimd.h **** 
 2310              	 .loc 2 542 0
 2311 15c6 07F59871 	 add r1,r7,#304
 2312 15ca 07F5C873 	 add r3,r7,#400
 2313 15ce D3E90023 	 ldrd r2,[r3]
 2314 15d2 C1E90023 	 strd r2,[r1]
 545:C:\Users\Depes Crystalline\Desktop\school\Active_Bike_Lighting_System\Radar_Core/Libraries/CMSIS/Include\core_cmSimd.h **** #else               // Big endian
 2315              	 .loc 2 545 0
 2316 15d6 07F59873 	 add r3,r7,#304
 2317 15da 1A68     	 ldr r2,[r3]
 2318 15dc 07F59873 	 add r3,r7,#304
 2319 15e0 5C68     	 ldr r4,[r3,#4]
 2320 15e2 07F5CE73 	 add r3,r7,#412
 2321 15e6 1968     	 ldr r1,[r3]
 2322 15e8 07F5CC73 	 add r3,r7,#408
 2323 15ec 1868     	 ldr r0,[r3]
 2324 15ee 2346     	 mov r3,r4
 2325              	
 2326 15f0 C1FBD023 	 smlaldx r2,r3,r1,r0
 2327              	
 2328              	 .thumb
 2329 15f4 07F59871 	 add r1,r7,#304
 2330 15f8 0A60     	 str r2,[r1]
 2331 15fa 07F59872 	 add r2,r7,#304
 2332 15fe 5360     	 str r3,[r2,#4]
 2333              	 .loc 2 550 0
 2334 1600 07F59873 	 add r3,r7,#304
 2335 1604 D3E90023 	 ldrd r2,[r3]
 2336              	.LBE145:
 2337              	.LBE144:
 2338              	 .loc 1 625 0
 2339 1608 07F58461 	 add r1,r7,#1056
 2340 160c C1E90023 	 strd r2,[r1]
 626:../Dave/Generated/CMSIS_DSP/FilteringFunctions/arm_conv_q15.c ****       /* x[srcALen - srcBLen + 3], x[srcALen - srcBLen + 4] are multiplied   
 627:../Dave/Generated/CMSIS_DSP/FilteringFunctions/arm_conv_q15.c ****        * with y[srcBLen - 3], y[srcBLen - 4] respectively */
 628:../Dave/Generated/CMSIS_DSP/FilteringFunctions/arm_conv_q15.c ****       sum = __SMLALDX(*__SIMD32(px)++, *__SIMD32(py)--, sum);
 2341              	 .loc 1 628 0
 2342 1610 07F5AC72 	 add r2,r7,#344
 2343 1614 1368     	 ldr r3,[r2]
 2344 1616 191D     	 adds r1,r3,#4
 2345 1618 1160     	 str r1,[r2]
 2346 161a 1B68     	 ldr r3,[r3]
 2347 161c 1C46     	 mov r4,r3
 2348 161e 07F5AA72 	 add r2,r7,#340
 2349 1622 1368     	 ldr r3,[r2]
 2350 1624 191F     	 subs r1,r3,#4
 2351 1626 1160     	 str r1,[r2]
 2352 1628 1B68     	 ldr r3,[r3]
 2353 162a 1846     	 mov r0,r3
 2354 162c 07F58463 	 add r3,r7,#1056
 2355 1630 D3E90023 	 ldrd r2,[r3]
 2356 1634 07F5C671 	 add r1,r7,#396
 2357 1638 0C60     	 str r4,[r1]
 2358 163a 07F5C471 	 add r1,r7,#392
 2359 163e 0860     	 str r0,[r1]
 2360 1640 07F5C071 	 add r1,r7,#384
 2361 1644 C1E90023 	 strd r2,[r1]
 2362              	.LBB146:
 2363              	.LBB147:
 542:C:\Users\Depes Crystalline\Desktop\school\Active_Bike_Lighting_System\Radar_Core/Libraries/CMSIS/Include\core_cmSimd.h **** 
 2364              	 .loc 2 542 0
 2365 1648 07F59C71 	 add r1,r7,#312
 2366 164c 07F5C073 	 add r3,r7,#384
 2367 1650 D3E90023 	 ldrd r2,[r3]
 2368 1654 C1E90023 	 strd r2,[r1]
 545:C:\Users\Depes Crystalline\Desktop\school\Active_Bike_Lighting_System\Radar_Core/Libraries/CMSIS/Include\core_cmSimd.h **** #else               // Big endian
 2369              	 .loc 2 545 0
 2370 1658 07F59C73 	 add r3,r7,#312
 2371 165c 1A68     	 ldr r2,[r3]
 2372 165e 07F59C73 	 add r3,r7,#312
 2373 1662 5C68     	 ldr r4,[r3,#4]
 2374 1664 07F5C673 	 add r3,r7,#396
 2375 1668 1968     	 ldr r1,[r3]
 2376 166a 07F5C473 	 add r3,r7,#392
 2377 166e 1868     	 ldr r0,[r3]
 2378 1670 2346     	 mov r3,r4
 2379              	
 2380 1672 C1FBD023 	 smlaldx r2,r3,r1,r0
 2381              	
 2382              	 .thumb
 2383 1676 07F59C71 	 add r1,r7,#312
 2384 167a 0A60     	 str r2,[r1]
 2385 167c 07F59C72 	 add r2,r7,#312
 2386 1680 5360     	 str r3,[r2,#4]
 2387              	 .loc 2 550 0
 2388 1682 07F59C73 	 add r3,r7,#312
 2389 1686 D3E90023 	 ldrd r2,[r3]
 2390              	.LBE147:
 2391              	.LBE146:
 2392              	 .loc 1 628 0
 2393 168a 07F58461 	 add r1,r7,#1056
 2394 168e C1E90023 	 strd r2,[r1]
 629:../Dave/Generated/CMSIS_DSP/FilteringFunctions/arm_conv_q15.c **** 
 630:../Dave/Generated/CMSIS_DSP/FilteringFunctions/arm_conv_q15.c ****       /* Decrement the loop counter */
 631:../Dave/Generated/CMSIS_DSP/FilteringFunctions/arm_conv_q15.c ****       k--;
 2395              	 .loc 1 631 0
 2396 1692 D7F8E433 	 ldr r3,[r7,#996]
 2397 1696 013B     	 subs r3,r3,#1
 2398 1698 C7F8E433 	 str r3,[r7,#996]
 2399              	.L62:
 621:../Dave/Generated/CMSIS_DSP/FilteringFunctions/arm_conv_q15.c ****     {
 2400              	 .loc 1 621 0
 2401 169c D7F8E433 	 ldr r3,[r7,#996]
 2402 16a0 002B     	 cmp r3,#0
 2403 16a2 7FF474AF 	 bne .L65
 632:../Dave/Generated/CMSIS_DSP/FilteringFunctions/arm_conv_q15.c ****     }
 633:../Dave/Generated/CMSIS_DSP/FilteringFunctions/arm_conv_q15.c **** 
 634:../Dave/Generated/CMSIS_DSP/FilteringFunctions/arm_conv_q15.c ****     /* For the next MAC operations, the pointer py is used without SIMD   
 635:../Dave/Generated/CMSIS_DSP/FilteringFunctions/arm_conv_q15.c ****      * So, py is incremented by 1 */
 636:../Dave/Generated/CMSIS_DSP/FilteringFunctions/arm_conv_q15.c ****     py = py + 1u;
 2404              	 .loc 1 636 0
 2405 16a6 07F5AA73 	 add r3,r7,#340
 2406 16aa 1B68     	 ldr r3,[r3]
 2407 16ac 9A1C     	 adds r2,r3,#2
 2408 16ae 07F5AA73 	 add r3,r7,#340
 2409 16b2 1A60     	 str r2,[r3]
 637:../Dave/Generated/CMSIS_DSP/FilteringFunctions/arm_conv_q15.c **** 
 638:../Dave/Generated/CMSIS_DSP/FilteringFunctions/arm_conv_q15.c ****     /* If the blockSize3 is not a multiple of 4, compute any remaining MACs here.   
 639:../Dave/Generated/CMSIS_DSP/FilteringFunctions/arm_conv_q15.c ****      ** No loop unrolling is used. */
 640:../Dave/Generated/CMSIS_DSP/FilteringFunctions/arm_conv_q15.c ****     k = blockSize3 % 0x4u;
 2410              	 .loc 1 640 0
 2411 16b4 D7F8EC33 	 ldr r3,[r7,#1004]
 2412 16b8 03F00303 	 and r3,r3,#3
 2413 16bc C7F8E433 	 str r3,[r7,#996]
 641:../Dave/Generated/CMSIS_DSP/FilteringFunctions/arm_conv_q15.c **** 
 642:../Dave/Generated/CMSIS_DSP/FilteringFunctions/arm_conv_q15.c ****     while(k > 0u)
 2414              	 .loc 1 642 0
 2415 16c0 49E0     	 b .L66
 2416              	.L68:
 643:../Dave/Generated/CMSIS_DSP/FilteringFunctions/arm_conv_q15.c ****     {
 644:../Dave/Generated/CMSIS_DSP/FilteringFunctions/arm_conv_q15.c ****       /* sum += x[srcALen - srcBLen + 5] * y[srcBLen - 5] */
 645:../Dave/Generated/CMSIS_DSP/FilteringFunctions/arm_conv_q15.c ****       sum = __SMLALD(*px++, *py--, sum);
 2417              	 .loc 1 645 0
 2418 16c2 07F5AC73 	 add r3,r7,#344
 2419 16c6 1B68     	 ldr r3,[r3]
 2420 16c8 991C     	 adds r1,r3,#2
 2421 16ca 07F5AC72 	 add r2,r7,#344
 2422 16ce 1160     	 str r1,[r2]
 2423 16d0 1B88     	 ldrh r3,[r3]
 2424 16d2 1CB2     	 sxth r4,r3
 2425 16d4 07F5AA73 	 add r3,r7,#340
 2426 16d8 1B68     	 ldr r3,[r3]
 2427 16da 991E     	 subs r1,r3,#2
 2428 16dc 07F5AA72 	 add r2,r7,#340
 2429 16e0 1160     	 str r1,[r2]
 2430 16e2 1B88     	 ldrh r3,[r3]
 2431 16e4 18B2     	 sxth r0,r3
 2432 16e6 07F58463 	 add r3,r7,#1056
 2433 16ea D3E90023 	 ldrd r2,[r3]
 2434 16ee 07F5BE71 	 add r1,r7,#380
 2435 16f2 0C60     	 str r4,[r1]
 2436 16f4 07F5BC71 	 add r1,r7,#376
 2437 16f8 0860     	 str r0,[r1]
 2438 16fa 07F5B871 	 add r1,r7,#368
 2439 16fe C1E90023 	 strd r2,[r1]
 2440              	.LBB148:
 2441              	.LBB149:
 525:C:\Users\Depes Crystalline\Desktop\school\Active_Bike_Lighting_System\Radar_Core/Libraries/CMSIS/Include\core_cmSimd.h **** 
 2442              	 .loc 2 525 0
 2443 1702 07F5A071 	 add r1,r7,#320
 2444 1706 07F5B873 	 add r3,r7,#368
 2445 170a D3E90023 	 ldrd r2,[r3]
