   1              	 .syntax unified
   2              	 .cpu cortex-m4
   3              	 .fpu softvfp
   4              	 .eabi_attribute 20,1
   5              	 .eabi_attribute 21,1
   6              	 .eabi_attribute 23,3
   7              	 .eabi_attribute 24,1
   8              	 .eabi_attribute 25,1
   9              	 .eabi_attribute 26,1
  10              	 .eabi_attribute 30,6
  11              	 .eabi_attribute 34,1
  12              	 .eabi_attribute 18,4
  13              	 .thumb
  14              	 .file "arm_conv_opt_q7.c"
  15              	 .text
  16              	.Ltext0:
  17              	 .cfi_sections .debug_frame
  18              	 .section .text.arm_conv_opt_q7,"ax",%progbits
  19              	 .align 2
  20              	 .global arm_conv_opt_q7
  21              	 .thumb
  22              	 .thumb_func
  24              	arm_conv_opt_q7:
  25              	.LFB139:
  26              	 .file 1 "../Dave/Generated/CMSIS_DSP/FilteringFunctions/arm_conv_opt_q7.c"
   1:../Dave/Generated/CMSIS_DSP/FilteringFunctions/arm_conv_opt_q7.c **** /* ----------------------------------------------------------------------    
   2:../Dave/Generated/CMSIS_DSP/FilteringFunctions/arm_conv_opt_q7.c **** * Copyright (C) 2010-2014 ARM Limited. All rights reserved.    
   3:../Dave/Generated/CMSIS_DSP/FilteringFunctions/arm_conv_opt_q7.c **** *    
   4:../Dave/Generated/CMSIS_DSP/FilteringFunctions/arm_conv_opt_q7.c **** * $Date:        12. March 2014
   5:../Dave/Generated/CMSIS_DSP/FilteringFunctions/arm_conv_opt_q7.c **** * $Revision: 	V1.4.4
   6:../Dave/Generated/CMSIS_DSP/FilteringFunctions/arm_conv_opt_q7.c **** *    
   7:../Dave/Generated/CMSIS_DSP/FilteringFunctions/arm_conv_opt_q7.c **** * Project: 	    CMSIS DSP Library    
   8:../Dave/Generated/CMSIS_DSP/FilteringFunctions/arm_conv_opt_q7.c **** * Title:		arm_conv_opt_q7.c    
   9:../Dave/Generated/CMSIS_DSP/FilteringFunctions/arm_conv_opt_q7.c **** *    
  10:../Dave/Generated/CMSIS_DSP/FilteringFunctions/arm_conv_opt_q7.c **** * Description:	Convolution of Q7 sequences.  
  11:../Dave/Generated/CMSIS_DSP/FilteringFunctions/arm_conv_opt_q7.c **** *    
  12:../Dave/Generated/CMSIS_DSP/FilteringFunctions/arm_conv_opt_q7.c **** * Target Processor: Cortex-M4/Cortex-M3/Cortex-M0
  13:../Dave/Generated/CMSIS_DSP/FilteringFunctions/arm_conv_opt_q7.c **** *  
  14:../Dave/Generated/CMSIS_DSP/FilteringFunctions/arm_conv_opt_q7.c **** * Redistribution and use in source and binary forms, with or without 
  15:../Dave/Generated/CMSIS_DSP/FilteringFunctions/arm_conv_opt_q7.c **** * modification, are permitted provided that the following conditions
  16:../Dave/Generated/CMSIS_DSP/FilteringFunctions/arm_conv_opt_q7.c **** * are met:
  17:../Dave/Generated/CMSIS_DSP/FilteringFunctions/arm_conv_opt_q7.c **** *   - Redistributions of source code must retain the above copyright
  18:../Dave/Generated/CMSIS_DSP/FilteringFunctions/arm_conv_opt_q7.c **** *     notice, this list of conditions and the following disclaimer.
  19:../Dave/Generated/CMSIS_DSP/FilteringFunctions/arm_conv_opt_q7.c **** *   - Redistributions in binary form must reproduce the above copyright
  20:../Dave/Generated/CMSIS_DSP/FilteringFunctions/arm_conv_opt_q7.c **** *     notice, this list of conditions and the following disclaimer in
  21:../Dave/Generated/CMSIS_DSP/FilteringFunctions/arm_conv_opt_q7.c **** *     the documentation and/or other materials provided with the 
  22:../Dave/Generated/CMSIS_DSP/FilteringFunctions/arm_conv_opt_q7.c **** *     distribution.
  23:../Dave/Generated/CMSIS_DSP/FilteringFunctions/arm_conv_opt_q7.c **** *   - Neither the name of ARM LIMITED nor the names of its contributors
  24:../Dave/Generated/CMSIS_DSP/FilteringFunctions/arm_conv_opt_q7.c **** *     may be used to endorse or promote products derived from this
  25:../Dave/Generated/CMSIS_DSP/FilteringFunctions/arm_conv_opt_q7.c **** *     software without specific prior written permission.
  26:../Dave/Generated/CMSIS_DSP/FilteringFunctions/arm_conv_opt_q7.c **** *
  27:../Dave/Generated/CMSIS_DSP/FilteringFunctions/arm_conv_opt_q7.c **** * THIS SOFTWARE IS PROVIDED BY THE COPYRIGHT HOLDERS AND CONTRIBUTORS
  28:../Dave/Generated/CMSIS_DSP/FilteringFunctions/arm_conv_opt_q7.c **** * "AS IS" AND ANY EXPRESS OR IMPLIED WARRANTIES, INCLUDING, BUT NOT
  29:../Dave/Generated/CMSIS_DSP/FilteringFunctions/arm_conv_opt_q7.c **** * LIMITED TO, THE IMPLIED WARRANTIES OF MERCHANTABILITY AND FITNESS
  30:../Dave/Generated/CMSIS_DSP/FilteringFunctions/arm_conv_opt_q7.c **** * FOR A PARTICULAR PURPOSE ARE DISCLAIMED. IN NO EVENT SHALL THE 
  31:../Dave/Generated/CMSIS_DSP/FilteringFunctions/arm_conv_opt_q7.c **** * COPYRIGHT OWNER OR CONTRIBUTORS BE LIABLE FOR ANY DIRECT, INDIRECT,
  32:../Dave/Generated/CMSIS_DSP/FilteringFunctions/arm_conv_opt_q7.c **** * INCIDENTAL, SPECIAL, EXEMPLARY, OR CONSEQUENTIAL DAMAGES (INCLUDING,
  33:../Dave/Generated/CMSIS_DSP/FilteringFunctions/arm_conv_opt_q7.c **** * BUT NOT LIMITED TO, PROCUREMENT OF SUBSTITUTE GOODS OR SERVICES;
  34:../Dave/Generated/CMSIS_DSP/FilteringFunctions/arm_conv_opt_q7.c **** * LOSS OF USE, DATA, OR PROFITS; OR BUSINESS INTERRUPTION) HOWEVER
  35:../Dave/Generated/CMSIS_DSP/FilteringFunctions/arm_conv_opt_q7.c **** * CAUSED AND ON ANY THEORY OF LIABILITY, WHETHER IN CONTRACT, STRICT
  36:../Dave/Generated/CMSIS_DSP/FilteringFunctions/arm_conv_opt_q7.c **** * LIABILITY, OR TORT (INCLUDING NEGLIGENCE OR OTHERWISE) ARISING IN
  37:../Dave/Generated/CMSIS_DSP/FilteringFunctions/arm_conv_opt_q7.c **** * ANY WAY OUT OF THE USE OF THIS SOFTWARE, EVEN IF ADVISED OF THE
  38:../Dave/Generated/CMSIS_DSP/FilteringFunctions/arm_conv_opt_q7.c **** * POSSIBILITY OF SUCH DAMAGE.  
  39:../Dave/Generated/CMSIS_DSP/FilteringFunctions/arm_conv_opt_q7.c **** * -------------------------------------------------------------------- */
  40:../Dave/Generated/CMSIS_DSP/FilteringFunctions/arm_conv_opt_q7.c **** 
  41:../Dave/Generated/CMSIS_DSP/FilteringFunctions/arm_conv_opt_q7.c **** #include "CMSIS_DSP/cmsis_dsp.h"
  42:../Dave/Generated/CMSIS_DSP/FilteringFunctions/arm_conv_opt_q7.c **** 
  43:../Dave/Generated/CMSIS_DSP/FilteringFunctions/arm_conv_opt_q7.c **** /**    
  44:../Dave/Generated/CMSIS_DSP/FilteringFunctions/arm_conv_opt_q7.c ****  * @ingroup groupFilters    
  45:../Dave/Generated/CMSIS_DSP/FilteringFunctions/arm_conv_opt_q7.c ****  */
  46:../Dave/Generated/CMSIS_DSP/FilteringFunctions/arm_conv_opt_q7.c **** 
  47:../Dave/Generated/CMSIS_DSP/FilteringFunctions/arm_conv_opt_q7.c **** /**    
  48:../Dave/Generated/CMSIS_DSP/FilteringFunctions/arm_conv_opt_q7.c ****  * @addtogroup Conv    
  49:../Dave/Generated/CMSIS_DSP/FilteringFunctions/arm_conv_opt_q7.c ****  * @{    
  50:../Dave/Generated/CMSIS_DSP/FilteringFunctions/arm_conv_opt_q7.c ****  */
  51:../Dave/Generated/CMSIS_DSP/FilteringFunctions/arm_conv_opt_q7.c **** 
  52:../Dave/Generated/CMSIS_DSP/FilteringFunctions/arm_conv_opt_q7.c **** /**    
  53:../Dave/Generated/CMSIS_DSP/FilteringFunctions/arm_conv_opt_q7.c ****  * @brief Convolution of Q7 sequences.    
  54:../Dave/Generated/CMSIS_DSP/FilteringFunctions/arm_conv_opt_q7.c ****  * @param[in] *pSrcA points to the first input sequence.    
  55:../Dave/Generated/CMSIS_DSP/FilteringFunctions/arm_conv_opt_q7.c ****  * @param[in] srcALen length of the first input sequence.    
  56:../Dave/Generated/CMSIS_DSP/FilteringFunctions/arm_conv_opt_q7.c ****  * @param[in] *pSrcB points to the second input sequence.    
  57:../Dave/Generated/CMSIS_DSP/FilteringFunctions/arm_conv_opt_q7.c ****  * @param[in] srcBLen length of the second input sequence.    
  58:../Dave/Generated/CMSIS_DSP/FilteringFunctions/arm_conv_opt_q7.c ****  * @param[out] *pDst points to the location where the output result is written.  Length srcALen+src
  59:../Dave/Generated/CMSIS_DSP/FilteringFunctions/arm_conv_opt_q7.c ****  * @param[in]  *pScratch1 points to scratch buffer(of type q15_t) of size max(srcALen, srcBLen) + 2
  60:../Dave/Generated/CMSIS_DSP/FilteringFunctions/arm_conv_opt_q7.c ****  * @param[in]  *pScratch2 points to scratch buffer (of type q15_t) of size min(srcALen, srcBLen).  
  61:../Dave/Generated/CMSIS_DSP/FilteringFunctions/arm_conv_opt_q7.c ****  * @return none.    
  62:../Dave/Generated/CMSIS_DSP/FilteringFunctions/arm_conv_opt_q7.c ****  *    
  63:../Dave/Generated/CMSIS_DSP/FilteringFunctions/arm_conv_opt_q7.c ****  * \par Restrictions    
  64:../Dave/Generated/CMSIS_DSP/FilteringFunctions/arm_conv_opt_q7.c ****  *  If the silicon does not support unaligned memory access enable the macro UNALIGNED_SUPPORT_DISA
  65:../Dave/Generated/CMSIS_DSP/FilteringFunctions/arm_conv_opt_q7.c ****  *	In this case input, output, scratch1 and scratch2 buffers should be aligned by 32-bit     
  66:../Dave/Generated/CMSIS_DSP/FilteringFunctions/arm_conv_opt_q7.c ****  *       
  67:../Dave/Generated/CMSIS_DSP/FilteringFunctions/arm_conv_opt_q7.c ****  * @details    
  68:../Dave/Generated/CMSIS_DSP/FilteringFunctions/arm_conv_opt_q7.c ****  * <b>Scaling and Overflow Behavior:</b>    
  69:../Dave/Generated/CMSIS_DSP/FilteringFunctions/arm_conv_opt_q7.c ****  *    
  70:../Dave/Generated/CMSIS_DSP/FilteringFunctions/arm_conv_opt_q7.c ****  * \par    
  71:../Dave/Generated/CMSIS_DSP/FilteringFunctions/arm_conv_opt_q7.c ****  * The function is implemented using a 32-bit internal accumulator.    
  72:../Dave/Generated/CMSIS_DSP/FilteringFunctions/arm_conv_opt_q7.c ****  * Both the inputs are represented in 1.7 format and multiplications yield a 2.14 result.    
  73:../Dave/Generated/CMSIS_DSP/FilteringFunctions/arm_conv_opt_q7.c ****  * The 2.14 intermediate results are accumulated in a 32-bit accumulator in 18.14 format.    
  74:../Dave/Generated/CMSIS_DSP/FilteringFunctions/arm_conv_opt_q7.c ****  * This approach provides 17 guard bits and there is no risk of overflow as long as <code>max(srcAL
  75:../Dave/Generated/CMSIS_DSP/FilteringFunctions/arm_conv_opt_q7.c ****  * The 18.14 result is then truncated to 18.7 format by discarding the low 7 bits and then saturate
  76:../Dave/Generated/CMSIS_DSP/FilteringFunctions/arm_conv_opt_q7.c ****  *
  77:../Dave/Generated/CMSIS_DSP/FilteringFunctions/arm_conv_opt_q7.c ****  */
  78:../Dave/Generated/CMSIS_DSP/FilteringFunctions/arm_conv_opt_q7.c **** 
  79:../Dave/Generated/CMSIS_DSP/FilteringFunctions/arm_conv_opt_q7.c **** void arm_conv_opt_q7(
  80:../Dave/Generated/CMSIS_DSP/FilteringFunctions/arm_conv_opt_q7.c ****   q7_t * pSrcA,
  81:../Dave/Generated/CMSIS_DSP/FilteringFunctions/arm_conv_opt_q7.c ****   uint32_t srcALen,
  82:../Dave/Generated/CMSIS_DSP/FilteringFunctions/arm_conv_opt_q7.c ****   q7_t * pSrcB,
  83:../Dave/Generated/CMSIS_DSP/FilteringFunctions/arm_conv_opt_q7.c ****   uint32_t srcBLen,
  84:../Dave/Generated/CMSIS_DSP/FilteringFunctions/arm_conv_opt_q7.c ****   q7_t * pDst,
  85:../Dave/Generated/CMSIS_DSP/FilteringFunctions/arm_conv_opt_q7.c ****   q15_t * pScratch1,
  86:../Dave/Generated/CMSIS_DSP/FilteringFunctions/arm_conv_opt_q7.c ****   q15_t * pScratch2)
  87:../Dave/Generated/CMSIS_DSP/FilteringFunctions/arm_conv_opt_q7.c **** {
  27              	 .loc 1 87 0
  28              	 .cfi_startproc
  29              	 
  30              	 
  31 0000 90B5     	 push {r4,r7,lr}
  32              	.LCFI0:
  33              	 .cfi_def_cfa_offset 12
  34              	 .cfi_offset 4,-12
  35              	 .cfi_offset 7,-8
  36              	 .cfi_offset 14,-4
  37 0002 D1B0     	 sub sp,sp,#324
  38              	.LCFI1:
  39              	 .cfi_def_cfa_offset 336
  40 0004 00AF     	 add r7,sp,#0
  41              	.LCFI2:
  42              	 .cfi_def_cfa_register 7
  43 0006 07F10C04 	 add r4,r7,#12
  44 000a 2060     	 str r0,[r4]
  45 000c 07F10800 	 add r0,r7,#8
  46 0010 0160     	 str r1,[r0]
  47 0012 391D     	 adds r1,r7,#4
  48 0014 0A60     	 str r2,[r1]
  49 0016 3A46     	 mov r2,r7
  50 0018 1360     	 str r3,[r2]
  88:../Dave/Generated/CMSIS_DSP/FilteringFunctions/arm_conv_opt_q7.c **** 
  89:../Dave/Generated/CMSIS_DSP/FilteringFunctions/arm_conv_opt_q7.c ****   q15_t *pScr2, *pScr1;                          /* Intermediate pointers for scratch pointers */
  90:../Dave/Generated/CMSIS_DSP/FilteringFunctions/arm_conv_opt_q7.c ****   q15_t x4;                                      /* Temporary input variable */
  91:../Dave/Generated/CMSIS_DSP/FilteringFunctions/arm_conv_opt_q7.c ****   q7_t *pIn1, *pIn2;                             /* inputA and inputB pointer */
  92:../Dave/Generated/CMSIS_DSP/FilteringFunctions/arm_conv_opt_q7.c ****   uint32_t j, k, blkCnt, tapCnt;                 /* loop counter */
  93:../Dave/Generated/CMSIS_DSP/FilteringFunctions/arm_conv_opt_q7.c ****   q7_t *px;                                      /* Temporary input1 pointer */
  94:../Dave/Generated/CMSIS_DSP/FilteringFunctions/arm_conv_opt_q7.c ****   q15_t *py;                                     /* Temporary input2 pointer */
  95:../Dave/Generated/CMSIS_DSP/FilteringFunctions/arm_conv_opt_q7.c ****   q31_t acc0, acc1, acc2, acc3;                  /* Accumulator */
  96:../Dave/Generated/CMSIS_DSP/FilteringFunctions/arm_conv_opt_q7.c ****   q31_t x1, x2, x3, y1;                          /* Temporary input variables */
  97:../Dave/Generated/CMSIS_DSP/FilteringFunctions/arm_conv_opt_q7.c ****   q7_t *pOut = pDst;                             /* output pointer */
  51              	 .loc 1 97 0
  52 001a 07F11403 	 add r3,r7,#20
  53 001e D7F85021 	 ldr r2,[r7,#336]
  54 0022 1A60     	 str r2,[r3]
  98:../Dave/Generated/CMSIS_DSP/FilteringFunctions/arm_conv_opt_q7.c ****   q7_t out0, out1, out2, out3;                   /* temporary variables */
  99:../Dave/Generated/CMSIS_DSP/FilteringFunctions/arm_conv_opt_q7.c **** 
 100:../Dave/Generated/CMSIS_DSP/FilteringFunctions/arm_conv_opt_q7.c ****   /* The algorithm implementation is based on the lengths of the inputs. */
 101:../Dave/Generated/CMSIS_DSP/FilteringFunctions/arm_conv_opt_q7.c ****   /* srcB is always made to slide across srcA. */
 102:../Dave/Generated/CMSIS_DSP/FilteringFunctions/arm_conv_opt_q7.c ****   /* So srcBLen is always considered as shorter or equal to srcALen */
 103:../Dave/Generated/CMSIS_DSP/FilteringFunctions/arm_conv_opt_q7.c ****   if(srcALen >= srcBLen)
  55              	 .loc 1 103 0
  56 0024 07F10802 	 add r2,r7,#8
  57 0028 3B46     	 mov r3,r7
  58 002a 1268     	 ldr r2,[r2]
  59 002c 1B68     	 ldr r3,[r3]
  60 002e 9A42     	 cmp r2,r3
  61 0030 09D3     	 bcc .L2
 104:../Dave/Generated/CMSIS_DSP/FilteringFunctions/arm_conv_opt_q7.c ****   {
 105:../Dave/Generated/CMSIS_DSP/FilteringFunctions/arm_conv_opt_q7.c ****     /* Initialization of inputA pointer */
 106:../Dave/Generated/CMSIS_DSP/FilteringFunctions/arm_conv_opt_q7.c ****     pIn1 = pSrcA;
  62              	 .loc 1 106 0
  63 0032 07F10C03 	 add r3,r7,#12
  64 0036 1B68     	 ldr r3,[r3]
  65 0038 C7F83831 	 str r3,[r7,#312]
 107:../Dave/Generated/CMSIS_DSP/FilteringFunctions/arm_conv_opt_q7.c **** 
 108:../Dave/Generated/CMSIS_DSP/FilteringFunctions/arm_conv_opt_q7.c ****     /* Initialization of inputB pointer */
 109:../Dave/Generated/CMSIS_DSP/FilteringFunctions/arm_conv_opt_q7.c ****     pIn2 = pSrcB;
  66              	 .loc 1 109 0
  67 003c 3B1D     	 adds r3,r7,#4
  68 003e 1B68     	 ldr r3,[r3]
  69 0040 C7F83431 	 str r3,[r7,#308]
  70 0044 16E0     	 b .L3
  71              	.L2:
 110:../Dave/Generated/CMSIS_DSP/FilteringFunctions/arm_conv_opt_q7.c ****   }
 111:../Dave/Generated/CMSIS_DSP/FilteringFunctions/arm_conv_opt_q7.c ****   else
 112:../Dave/Generated/CMSIS_DSP/FilteringFunctions/arm_conv_opt_q7.c ****   {
 113:../Dave/Generated/CMSIS_DSP/FilteringFunctions/arm_conv_opt_q7.c ****     /* Initialization of inputA pointer */
 114:../Dave/Generated/CMSIS_DSP/FilteringFunctions/arm_conv_opt_q7.c ****     pIn1 = pSrcB;
  72              	 .loc 1 114 0
  73 0046 3B1D     	 adds r3,r7,#4
  74 0048 1B68     	 ldr r3,[r3]
  75 004a C7F83831 	 str r3,[r7,#312]
 115:../Dave/Generated/CMSIS_DSP/FilteringFunctions/arm_conv_opt_q7.c **** 
 116:../Dave/Generated/CMSIS_DSP/FilteringFunctions/arm_conv_opt_q7.c ****     /* Initialization of inputB pointer */
 117:../Dave/Generated/CMSIS_DSP/FilteringFunctions/arm_conv_opt_q7.c ****     pIn2 = pSrcA;
  76              	 .loc 1 117 0
  77 004e 07F10C03 	 add r3,r7,#12
  78 0052 1B68     	 ldr r3,[r3]
  79 0054 C7F83431 	 str r3,[r7,#308]
 118:../Dave/Generated/CMSIS_DSP/FilteringFunctions/arm_conv_opt_q7.c **** 
 119:../Dave/Generated/CMSIS_DSP/FilteringFunctions/arm_conv_opt_q7.c ****     /* srcBLen is always considered as shorter or equal to srcALen */
 120:../Dave/Generated/CMSIS_DSP/FilteringFunctions/arm_conv_opt_q7.c ****     j = srcBLen;
  80              	 .loc 1 120 0
  81 0058 3B46     	 mov r3,r7
  82 005a 1B68     	 ldr r3,[r3]
  83 005c C7F80831 	 str r3,[r7,#264]
 121:../Dave/Generated/CMSIS_DSP/FilteringFunctions/arm_conv_opt_q7.c ****     srcBLen = srcALen;
  84              	 .loc 1 121 0
  85 0060 3B46     	 mov r3,r7
  86 0062 07F10802 	 add r2,r7,#8
  87 0066 1268     	 ldr r2,[r2]
  88 0068 1A60     	 str r2,[r3]
 122:../Dave/Generated/CMSIS_DSP/FilteringFunctions/arm_conv_opt_q7.c ****     srcALen = j;
  89              	 .loc 1 122 0
  90 006a 07F10803 	 add r3,r7,#8
  91 006e D7F80821 	 ldr r2,[r7,#264]
  92 0072 1A60     	 str r2,[r3]
  93              	.L3:
 123:../Dave/Generated/CMSIS_DSP/FilteringFunctions/arm_conv_opt_q7.c ****   }
 124:../Dave/Generated/CMSIS_DSP/FilteringFunctions/arm_conv_opt_q7.c **** 
 125:../Dave/Generated/CMSIS_DSP/FilteringFunctions/arm_conv_opt_q7.c ****   /* pointer to take end of scratch2 buffer */
 126:../Dave/Generated/CMSIS_DSP/FilteringFunctions/arm_conv_opt_q7.c ****   pScr2 = pScratch2;
  94              	 .loc 1 126 0
  95 0074 D7F85831 	 ldr r3,[r7,#344]
  96 0078 C7F83C31 	 str r3,[r7,#316]
 127:../Dave/Generated/CMSIS_DSP/FilteringFunctions/arm_conv_opt_q7.c **** 
 128:../Dave/Generated/CMSIS_DSP/FilteringFunctions/arm_conv_opt_q7.c ****   /* points to smaller length sequence */
 129:../Dave/Generated/CMSIS_DSP/FilteringFunctions/arm_conv_opt_q7.c ****   px = pIn2 + srcBLen - 1;
  97              	 .loc 1 129 0
  98 007c 3B46     	 mov r3,r7
  99 007e 1B68     	 ldr r3,[r3]
 100 0080 013B     	 subs r3,r3,#1
 101 0082 D7F83421 	 ldr r2,[r7,#308]
 102 0086 1344     	 add r3,r3,r2
 103 0088 C7F82431 	 str r3,[r7,#292]
 130:../Dave/Generated/CMSIS_DSP/FilteringFunctions/arm_conv_opt_q7.c **** 
 131:../Dave/Generated/CMSIS_DSP/FilteringFunctions/arm_conv_opt_q7.c ****   /* Apply loop unrolling and do 4 Copies simultaneously. */
 132:../Dave/Generated/CMSIS_DSP/FilteringFunctions/arm_conv_opt_q7.c ****   k = srcBLen >> 2u;
 104              	 .loc 1 132 0
 105 008c 3B46     	 mov r3,r7
 106 008e 1B68     	 ldr r3,[r3]
 107 0090 9B08     	 lsrs r3,r3,#2
 108 0092 C7F83031 	 str r3,[r7,#304]
 133:../Dave/Generated/CMSIS_DSP/FilteringFunctions/arm_conv_opt_q7.c **** 
 134:../Dave/Generated/CMSIS_DSP/FilteringFunctions/arm_conv_opt_q7.c ****   /* First part of the processing with loop unrolling copies 4 data points at a time.       
 135:../Dave/Generated/CMSIS_DSP/FilteringFunctions/arm_conv_opt_q7.c ****    ** a second loop below copies for the remaining 1 to 3 samples. */
 136:../Dave/Generated/CMSIS_DSP/FilteringFunctions/arm_conv_opt_q7.c ****   while(k > 0u)
 109              	 .loc 1 136 0
 110 0096 48E0     	 b .L4
 111              	.L5:
 137:../Dave/Generated/CMSIS_DSP/FilteringFunctions/arm_conv_opt_q7.c ****   {
 138:../Dave/Generated/CMSIS_DSP/FilteringFunctions/arm_conv_opt_q7.c ****     /* copy second buffer in reversal manner */
 139:../Dave/Generated/CMSIS_DSP/FilteringFunctions/arm_conv_opt_q7.c ****     x4 = (q15_t) * px--;
 112              	 .loc 1 139 0
 113 0098 D7F82431 	 ldr r3,[r7,#292]
 114 009c 5A1E     	 subs r2,r3,#1
 115 009e C7F82421 	 str r2,[r7,#292]
 116 00a2 1B78     	 ldrb r3,[r3]
 117 00a4 5BB2     	 sxtb r3,r3
 118 00a6 A7F80631 	 strh r3,[r7,#262]
 140:../Dave/Generated/CMSIS_DSP/FilteringFunctions/arm_conv_opt_q7.c ****     *pScr2++ = x4;
 119              	 .loc 1 140 0
 120 00aa D7F83C31 	 ldr r3,[r7,#316]
 121 00ae 9A1C     	 adds r2,r3,#2
 122 00b0 C7F83C21 	 str r2,[r7,#316]
 123 00b4 B7F80621 	 ldrh r2,[r7,#262]
 124 00b8 1A80     	 strh r2,[r3]
 141:../Dave/Generated/CMSIS_DSP/FilteringFunctions/arm_conv_opt_q7.c ****     x4 = (q15_t) * px--;
 125              	 .loc 1 141 0
 126 00ba D7F82431 	 ldr r3,[r7,#292]
 127 00be 5A1E     	 subs r2,r3,#1
 128 00c0 C7F82421 	 str r2,[r7,#292]
 129 00c4 1B78     	 ldrb r3,[r3]
 130 00c6 5BB2     	 sxtb r3,r3
 131 00c8 A7F80631 	 strh r3,[r7,#262]
 142:../Dave/Generated/CMSIS_DSP/FilteringFunctions/arm_conv_opt_q7.c ****     *pScr2++ = x4;
 132              	 .loc 1 142 0
 133 00cc D7F83C31 	 ldr r3,[r7,#316]
 134 00d0 9A1C     	 adds r2,r3,#2
 135 00d2 C7F83C21 	 str r2,[r7,#316]
 136 00d6 B7F80621 	 ldrh r2,[r7,#262]
 137 00da 1A80     	 strh r2,[r3]
 143:../Dave/Generated/CMSIS_DSP/FilteringFunctions/arm_conv_opt_q7.c ****     x4 = (q15_t) * px--;
 138              	 .loc 1 143 0
 139 00dc D7F82431 	 ldr r3,[r7,#292]
 140 00e0 5A1E     	 subs r2,r3,#1
 141 00e2 C7F82421 	 str r2,[r7,#292]
 142 00e6 1B78     	 ldrb r3,[r3]
 143 00e8 5BB2     	 sxtb r3,r3
 144 00ea A7F80631 	 strh r3,[r7,#262]
 144:../Dave/Generated/CMSIS_DSP/FilteringFunctions/arm_conv_opt_q7.c ****     *pScr2++ = x4;
 145              	 .loc 1 144 0
 146 00ee D7F83C31 	 ldr r3,[r7,#316]
 147 00f2 9A1C     	 adds r2,r3,#2
 148 00f4 C7F83C21 	 str r2,[r7,#316]
 149 00f8 B7F80621 	 ldrh r2,[r7,#262]
 150 00fc 1A80     	 strh r2,[r3]
 145:../Dave/Generated/CMSIS_DSP/FilteringFunctions/arm_conv_opt_q7.c ****     x4 = (q15_t) * px--;
 151              	 .loc 1 145 0
 152 00fe D7F82431 	 ldr r3,[r7,#292]
 153 0102 5A1E     	 subs r2,r3,#1
 154 0104 C7F82421 	 str r2,[r7,#292]
 155 0108 1B78     	 ldrb r3,[r3]
 156 010a 5BB2     	 sxtb r3,r3
 157 010c A7F80631 	 strh r3,[r7,#262]
 146:../Dave/Generated/CMSIS_DSP/FilteringFunctions/arm_conv_opt_q7.c ****     *pScr2++ = x4;
 158              	 .loc 1 146 0
 159 0110 D7F83C31 	 ldr r3,[r7,#316]
 160 0114 9A1C     	 adds r2,r3,#2
 161 0116 C7F83C21 	 str r2,[r7,#316]
 162 011a B7F80621 	 ldrh r2,[r7,#262]
 163 011e 1A80     	 strh r2,[r3]
 147:../Dave/Generated/CMSIS_DSP/FilteringFunctions/arm_conv_opt_q7.c **** 
 148:../Dave/Generated/CMSIS_DSP/FilteringFunctions/arm_conv_opt_q7.c ****     /* Decrement the loop counter */
 149:../Dave/Generated/CMSIS_DSP/FilteringFunctions/arm_conv_opt_q7.c ****     k--;
 164              	 .loc 1 149 0
 165 0120 D7F83031 	 ldr r3,[r7,#304]
 166 0124 013B     	 subs r3,r3,#1
 167 0126 C7F83031 	 str r3,[r7,#304]
 168              	.L4:
 136:../Dave/Generated/CMSIS_DSP/FilteringFunctions/arm_conv_opt_q7.c ****   {
 169              	 .loc 1 136 0
 170 012a D7F83031 	 ldr r3,[r7,#304]
 171 012e 002B     	 cmp r3,#0
 172 0130 B2D1     	 bne .L5
 150:../Dave/Generated/CMSIS_DSP/FilteringFunctions/arm_conv_opt_q7.c ****   }
 151:../Dave/Generated/CMSIS_DSP/FilteringFunctions/arm_conv_opt_q7.c **** 
 152:../Dave/Generated/CMSIS_DSP/FilteringFunctions/arm_conv_opt_q7.c ****   /* If the count is not a multiple of 4, copy remaining samples here.       
 153:../Dave/Generated/CMSIS_DSP/FilteringFunctions/arm_conv_opt_q7.c ****    ** No loop unrolling is used. */
 154:../Dave/Generated/CMSIS_DSP/FilteringFunctions/arm_conv_opt_q7.c ****   k = srcBLen % 0x4u;
 173              	 .loc 1 154 0
 174 0132 3B46     	 mov r3,r7
 175 0134 1B68     	 ldr r3,[r3]
 176 0136 03F00303 	 and r3,r3,#3
 177 013a C7F83031 	 str r3,[r7,#304]
 155:../Dave/Generated/CMSIS_DSP/FilteringFunctions/arm_conv_opt_q7.c **** 
 156:../Dave/Generated/CMSIS_DSP/FilteringFunctions/arm_conv_opt_q7.c ****   while(k > 0u)
 178              	 .loc 1 156 0
 179 013e 15E0     	 b .L6
 180              	.L7:
 157:../Dave/Generated/CMSIS_DSP/FilteringFunctions/arm_conv_opt_q7.c ****   {
 158:../Dave/Generated/CMSIS_DSP/FilteringFunctions/arm_conv_opt_q7.c ****     /* copy second buffer in reversal manner for remaining samples */
 159:../Dave/Generated/CMSIS_DSP/FilteringFunctions/arm_conv_opt_q7.c ****     x4 = (q15_t) * px--;
 181              	 .loc 1 159 0
 182 0140 D7F82431 	 ldr r3,[r7,#292]
 183 0144 5A1E     	 subs r2,r3,#1
 184 0146 C7F82421 	 str r2,[r7,#292]
 185 014a 1B78     	 ldrb r3,[r3]
 186 014c 5BB2     	 sxtb r3,r3
 187 014e A7F80631 	 strh r3,[r7,#262]
 160:../Dave/Generated/CMSIS_DSP/FilteringFunctions/arm_conv_opt_q7.c ****     *pScr2++ = x4;
 188              	 .loc 1 160 0
 189 0152 D7F83C31 	 ldr r3,[r7,#316]
 190 0156 9A1C     	 adds r2,r3,#2
 191 0158 C7F83C21 	 str r2,[r7,#316]
 192 015c B7F80621 	 ldrh r2,[r7,#262]
 193 0160 1A80     	 strh r2,[r3]
 161:../Dave/Generated/CMSIS_DSP/FilteringFunctions/arm_conv_opt_q7.c **** 
 162:../Dave/Generated/CMSIS_DSP/FilteringFunctions/arm_conv_opt_q7.c ****     /* Decrement the loop counter */
 163:../Dave/Generated/CMSIS_DSP/FilteringFunctions/arm_conv_opt_q7.c ****     k--;
 194              	 .loc 1 163 0
 195 0162 D7F83031 	 ldr r3,[r7,#304]
 196 0166 013B     	 subs r3,r3,#1
 197 0168 C7F83031 	 str r3,[r7,#304]
 198              	.L6:
 156:../Dave/Generated/CMSIS_DSP/FilteringFunctions/arm_conv_opt_q7.c ****   {
 199              	 .loc 1 156 0
 200 016c D7F83031 	 ldr r3,[r7,#304]
 201 0170 002B     	 cmp r3,#0
 202 0172 E5D1     	 bne .L7
 164:../Dave/Generated/CMSIS_DSP/FilteringFunctions/arm_conv_opt_q7.c ****   }
 165:../Dave/Generated/CMSIS_DSP/FilteringFunctions/arm_conv_opt_q7.c **** 
 166:../Dave/Generated/CMSIS_DSP/FilteringFunctions/arm_conv_opt_q7.c ****   /* Initialze temporary scratch pointer */
 167:../Dave/Generated/CMSIS_DSP/FilteringFunctions/arm_conv_opt_q7.c ****   pScr1 = pScratch1;
 203              	 .loc 1 167 0
 204 0174 07F11803 	 add r3,r7,#24
 205 0178 D7F85421 	 ldr r2,[r7,#340]
 206 017c 1A60     	 str r2,[r3]
 168:../Dave/Generated/CMSIS_DSP/FilteringFunctions/arm_conv_opt_q7.c **** 
 169:../Dave/Generated/CMSIS_DSP/FilteringFunctions/arm_conv_opt_q7.c ****   /* Fill (srcBLen - 1u) zeros in scratch buffer */
 170:../Dave/Generated/CMSIS_DSP/FilteringFunctions/arm_conv_opt_q7.c ****   arm_fill_q15(0, pScr1, (srcBLen - 1u));
 207              	 .loc 1 170 0
 208 017e 07F11803 	 add r3,r7,#24
 209 0182 1A68     	 ldr r2,[r3]
 210 0184 3B46     	 mov r3,r7
 211 0186 1B68     	 ldr r3,[r3]
 212 0188 013B     	 subs r3,r3,#1
 213 018a 0020     	 movs r0,#0
 214 018c 1146     	 mov r1,r2
 215 018e 1A46     	 mov r2,r3
 216 0190 FFF7FEFF 	 bl arm_fill_q15
 171:../Dave/Generated/CMSIS_DSP/FilteringFunctions/arm_conv_opt_q7.c **** 
 172:../Dave/Generated/CMSIS_DSP/FilteringFunctions/arm_conv_opt_q7.c ****   /* Update temporary scratch pointer */
 173:../Dave/Generated/CMSIS_DSP/FilteringFunctions/arm_conv_opt_q7.c ****   pScr1 += (srcBLen - 1u);
 217              	 .loc 1 173 0
 218 0194 07F11803 	 add r3,r7,#24
 219 0198 1A68     	 ldr r2,[r3]
 220 019a 3B46     	 mov r3,r7
 221 019c 1B68     	 ldr r3,[r3]
 222 019e 03F10043 	 add r3,r3,#-2147483648
 223 01a2 013B     	 subs r3,r3,#1
 224 01a4 5B00     	 lsls r3,r3,#1
 225 01a6 1A44     	 add r2,r2,r3
 226 01a8 07F11803 	 add r3,r7,#24
 227 01ac 1A60     	 str r2,[r3]
 174:../Dave/Generated/CMSIS_DSP/FilteringFunctions/arm_conv_opt_q7.c **** 
 175:../Dave/Generated/CMSIS_DSP/FilteringFunctions/arm_conv_opt_q7.c ****   /* Copy (srcALen) samples in scratch buffer */
 176:../Dave/Generated/CMSIS_DSP/FilteringFunctions/arm_conv_opt_q7.c ****   /* Apply loop unrolling and do 4 Copies simultaneously. */
 177:../Dave/Generated/CMSIS_DSP/FilteringFunctions/arm_conv_opt_q7.c ****   k = srcALen >> 2u;
 228              	 .loc 1 177 0
 229 01ae 07F10803 	 add r3,r7,#8
 230 01b2 1B68     	 ldr r3,[r3]
 231 01b4 9B08     	 lsrs r3,r3,#2
 232 01b6 C7F83031 	 str r3,[r7,#304]
 178:../Dave/Generated/CMSIS_DSP/FilteringFunctions/arm_conv_opt_q7.c **** 
 179:../Dave/Generated/CMSIS_DSP/FilteringFunctions/arm_conv_opt_q7.c ****   /* First part of the processing with loop unrolling copies 4 data points at a time.       
 180:../Dave/Generated/CMSIS_DSP/FilteringFunctions/arm_conv_opt_q7.c ****    ** a second loop below copies for the remaining 1 to 3 samples. */
 181:../Dave/Generated/CMSIS_DSP/FilteringFunctions/arm_conv_opt_q7.c ****   while(k > 0u)
 233              	 .loc 1 181 0
 234 01ba 50E0     	 b .L8
 235              	.L9:
 182:../Dave/Generated/CMSIS_DSP/FilteringFunctions/arm_conv_opt_q7.c ****   {
 183:../Dave/Generated/CMSIS_DSP/FilteringFunctions/arm_conv_opt_q7.c ****     /* copy second buffer in reversal manner */
 184:../Dave/Generated/CMSIS_DSP/FilteringFunctions/arm_conv_opt_q7.c ****     x4 = (q15_t) * pIn1++;
 236              	 .loc 1 184 0
 237 01bc D7F83831 	 ldr r3,[r7,#312]
 238 01c0 5A1C     	 adds r2,r3,#1
 239 01c2 C7F83821 	 str r2,[r7,#312]
 240 01c6 1B78     	 ldrb r3,[r3]
 241 01c8 5BB2     	 sxtb r3,r3
 242 01ca A7F80631 	 strh r3,[r7,#262]
 185:../Dave/Generated/CMSIS_DSP/FilteringFunctions/arm_conv_opt_q7.c ****     *pScr1++ = x4;
 243              	 .loc 1 185 0
 244 01ce 07F11803 	 add r3,r7,#24
 245 01d2 1B68     	 ldr r3,[r3]
 246 01d4 991C     	 adds r1,r3,#2
 247 01d6 07F11802 	 add r2,r7,#24
 248 01da 1160     	 str r1,[r2]
 249 01dc B7F80621 	 ldrh r2,[r7,#262]
 250 01e0 1A80     	 strh r2,[r3]
 186:../Dave/Generated/CMSIS_DSP/FilteringFunctions/arm_conv_opt_q7.c ****     x4 = (q15_t) * pIn1++;
 251              	 .loc 1 186 0
 252 01e2 D7F83831 	 ldr r3,[r7,#312]
 253 01e6 5A1C     	 adds r2,r3,#1
 254 01e8 C7F83821 	 str r2,[r7,#312]
 255 01ec 1B78     	 ldrb r3,[r3]
 256 01ee 5BB2     	 sxtb r3,r3
 257 01f0 A7F80631 	 strh r3,[r7,#262]
 187:../Dave/Generated/CMSIS_DSP/FilteringFunctions/arm_conv_opt_q7.c ****     *pScr1++ = x4;
 258              	 .loc 1 187 0
 259 01f4 07F11803 	 add r3,r7,#24
 260 01f8 1B68     	 ldr r3,[r3]
 261 01fa 991C     	 adds r1,r3,#2
 262 01fc 07F11802 	 add r2,r7,#24
 263 0200 1160     	 str r1,[r2]
 264 0202 B7F80621 	 ldrh r2,[r7,#262]
 265 0206 1A80     	 strh r2,[r3]
 188:../Dave/Generated/CMSIS_DSP/FilteringFunctions/arm_conv_opt_q7.c ****     x4 = (q15_t) * pIn1++;
 266              	 .loc 1 188 0
 267 0208 D7F83831 	 ldr r3,[r7,#312]
 268 020c 5A1C     	 adds r2,r3,#1
 269 020e C7F83821 	 str r2,[r7,#312]
 270 0212 1B78     	 ldrb r3,[r3]
 271 0214 5BB2     	 sxtb r3,r3
 272 0216 A7F80631 	 strh r3,[r7,#262]
 189:../Dave/Generated/CMSIS_DSP/FilteringFunctions/arm_conv_opt_q7.c ****     *pScr1++ = x4;
 273              	 .loc 1 189 0
 274 021a 07F11803 	 add r3,r7,#24
 275 021e 1B68     	 ldr r3,[r3]
 276 0220 991C     	 adds r1,r3,#2
 277 0222 07F11802 	 add r2,r7,#24
 278 0226 1160     	 str r1,[r2]
 279 0228 B7F80621 	 ldrh r2,[r7,#262]
 280 022c 1A80     	 strh r2,[r3]
 190:../Dave/Generated/CMSIS_DSP/FilteringFunctions/arm_conv_opt_q7.c ****     x4 = (q15_t) * pIn1++;
 281              	 .loc 1 190 0
 282 022e D7F83831 	 ldr r3,[r7,#312]
 283 0232 5A1C     	 adds r2,r3,#1
 284 0234 C7F83821 	 str r2,[r7,#312]
 285 0238 1B78     	 ldrb r3,[r3]
 286 023a 5BB2     	 sxtb r3,r3
 287 023c A7F80631 	 strh r3,[r7,#262]
 191:../Dave/Generated/CMSIS_DSP/FilteringFunctions/arm_conv_opt_q7.c ****     *pScr1++ = x4;
 288              	 .loc 1 191 0
 289 0240 07F11803 	 add r3,r7,#24
 290 0244 1B68     	 ldr r3,[r3]
 291 0246 991C     	 adds r1,r3,#2
 292 0248 07F11802 	 add r2,r7,#24
 293 024c 1160     	 str r1,[r2]
 294 024e B7F80621 	 ldrh r2,[r7,#262]
 295 0252 1A80     	 strh r2,[r3]
 192:../Dave/Generated/CMSIS_DSP/FilteringFunctions/arm_conv_opt_q7.c **** 
 193:../Dave/Generated/CMSIS_DSP/FilteringFunctions/arm_conv_opt_q7.c ****     /* Decrement the loop counter */
 194:../Dave/Generated/CMSIS_DSP/FilteringFunctions/arm_conv_opt_q7.c ****     k--;
 296              	 .loc 1 194 0
 297 0254 D7F83031 	 ldr r3,[r7,#304]
 298 0258 013B     	 subs r3,r3,#1
 299 025a C7F83031 	 str r3,[r7,#304]
 300              	.L8:
 181:../Dave/Generated/CMSIS_DSP/FilteringFunctions/arm_conv_opt_q7.c ****   {
 301              	 .loc 1 181 0
 302 025e D7F83031 	 ldr r3,[r7,#304]
 303 0262 002B     	 cmp r3,#0
 304 0264 AAD1     	 bne .L9
 195:../Dave/Generated/CMSIS_DSP/FilteringFunctions/arm_conv_opt_q7.c ****   }
 196:../Dave/Generated/CMSIS_DSP/FilteringFunctions/arm_conv_opt_q7.c **** 
 197:../Dave/Generated/CMSIS_DSP/FilteringFunctions/arm_conv_opt_q7.c ****   /* If the count is not a multiple of 4, copy remaining samples here.       
 198:../Dave/Generated/CMSIS_DSP/FilteringFunctions/arm_conv_opt_q7.c ****    ** No loop unrolling is used. */
 199:../Dave/Generated/CMSIS_DSP/FilteringFunctions/arm_conv_opt_q7.c ****   k = srcALen % 0x4u;
 305              	 .loc 1 199 0
 306 0266 07F10803 	 add r3,r7,#8
 307 026a 1B68     	 ldr r3,[r3]
 308 026c 03F00303 	 and r3,r3,#3
 309 0270 C7F83031 	 str r3,[r7,#304]
 200:../Dave/Generated/CMSIS_DSP/FilteringFunctions/arm_conv_opt_q7.c **** 
 201:../Dave/Generated/CMSIS_DSP/FilteringFunctions/arm_conv_opt_q7.c ****   while(k > 0u)
 310              	 .loc 1 201 0
 311 0274 17E0     	 b .L10
 312              	.L11:
 202:../Dave/Generated/CMSIS_DSP/FilteringFunctions/arm_conv_opt_q7.c ****   {
 203:../Dave/Generated/CMSIS_DSP/FilteringFunctions/arm_conv_opt_q7.c ****     /* copy second buffer in reversal manner for remaining samples */
 204:../Dave/Generated/CMSIS_DSP/FilteringFunctions/arm_conv_opt_q7.c ****     x4 = (q15_t) * pIn1++;
 313              	 .loc 1 204 0
 314 0276 D7F83831 	 ldr r3,[r7,#312]
 315 027a 5A1C     	 adds r2,r3,#1
 316 027c C7F83821 	 str r2,[r7,#312]
 317 0280 1B78     	 ldrb r3,[r3]
 318 0282 5BB2     	 sxtb r3,r3
 319 0284 A7F80631 	 strh r3,[r7,#262]
 205:../Dave/Generated/CMSIS_DSP/FilteringFunctions/arm_conv_opt_q7.c ****     *pScr1++ = x4;
 320              	 .loc 1 205 0
 321 0288 07F11803 	 add r3,r7,#24
 322 028c 1B68     	 ldr r3,[r3]
 323 028e 991C     	 adds r1,r3,#2
 324 0290 07F11802 	 add r2,r7,#24
 325 0294 1160     	 str r1,[r2]
 326 0296 B7F80621 	 ldrh r2,[r7,#262]
 327 029a 1A80     	 strh r2,[r3]
 206:../Dave/Generated/CMSIS_DSP/FilteringFunctions/arm_conv_opt_q7.c **** 
 207:../Dave/Generated/CMSIS_DSP/FilteringFunctions/arm_conv_opt_q7.c ****     /* Decrement the loop counter */
 208:../Dave/Generated/CMSIS_DSP/FilteringFunctions/arm_conv_opt_q7.c ****     k--;
 328              	 .loc 1 208 0
 329 029c D7F83031 	 ldr r3,[r7,#304]
 330 02a0 013B     	 subs r3,r3,#1
 331 02a2 C7F83031 	 str r3,[r7,#304]
 332              	.L10:
 201:../Dave/Generated/CMSIS_DSP/FilteringFunctions/arm_conv_opt_q7.c ****   {
 333              	 .loc 1 201 0
 334 02a6 D7F83031 	 ldr r3,[r7,#304]
 335 02aa 002B     	 cmp r3,#0
 336 02ac E3D1     	 bne .L11
 209:../Dave/Generated/CMSIS_DSP/FilteringFunctions/arm_conv_opt_q7.c ****   }
 210:../Dave/Generated/CMSIS_DSP/FilteringFunctions/arm_conv_opt_q7.c **** 
 211:../Dave/Generated/CMSIS_DSP/FilteringFunctions/arm_conv_opt_q7.c **** #ifndef UNALIGNED_SUPPORT_DISABLE
 212:../Dave/Generated/CMSIS_DSP/FilteringFunctions/arm_conv_opt_q7.c **** 
 213:../Dave/Generated/CMSIS_DSP/FilteringFunctions/arm_conv_opt_q7.c ****   /* Fill (srcBLen - 1u) zeros at end of scratch buffer */
 214:../Dave/Generated/CMSIS_DSP/FilteringFunctions/arm_conv_opt_q7.c ****   arm_fill_q15(0, pScr1, (srcBLen - 1u));
 337              	 .loc 1 214 0
 338 02ae 07F11803 	 add r3,r7,#24
 339 02b2 1A68     	 ldr r2,[r3]
 340 02b4 3B46     	 mov r3,r7
 341 02b6 1B68     	 ldr r3,[r3]
 342 02b8 013B     	 subs r3,r3,#1
 343 02ba 0020     	 movs r0,#0
 344 02bc 1146     	 mov r1,r2
 345 02be 1A46     	 mov r2,r3
 346 02c0 FFF7FEFF 	 bl arm_fill_q15
 215:../Dave/Generated/CMSIS_DSP/FilteringFunctions/arm_conv_opt_q7.c **** 
 216:../Dave/Generated/CMSIS_DSP/FilteringFunctions/arm_conv_opt_q7.c ****   /* Update pointer */
 217:../Dave/Generated/CMSIS_DSP/FilteringFunctions/arm_conv_opt_q7.c ****   pScr1 += (srcBLen - 1u);
 347              	 .loc 1 217 0
 348 02c4 07F11803 	 add r3,r7,#24
 349 02c8 1A68     	 ldr r2,[r3]
 350 02ca 3B46     	 mov r3,r7
 351 02cc 1B68     	 ldr r3,[r3]
 352 02ce 03F10043 	 add r3,r3,#-2147483648
 353 02d2 013B     	 subs r3,r3,#1
 354 02d4 5B00     	 lsls r3,r3,#1
 355 02d6 1A44     	 add r2,r2,r3
 356 02d8 07F11803 	 add r3,r7,#24
 357 02dc 1A60     	 str r2,[r3]
 218:../Dave/Generated/CMSIS_DSP/FilteringFunctions/arm_conv_opt_q7.c **** 
 219:../Dave/Generated/CMSIS_DSP/FilteringFunctions/arm_conv_opt_q7.c **** #else
 220:../Dave/Generated/CMSIS_DSP/FilteringFunctions/arm_conv_opt_q7.c **** 
 221:../Dave/Generated/CMSIS_DSP/FilteringFunctions/arm_conv_opt_q7.c ****   /* Apply loop unrolling and do 4 Copies simultaneously. */
 222:../Dave/Generated/CMSIS_DSP/FilteringFunctions/arm_conv_opt_q7.c ****   k = (srcBLen - 1u) >> 2u;
 223:../Dave/Generated/CMSIS_DSP/FilteringFunctions/arm_conv_opt_q7.c **** 
 224:../Dave/Generated/CMSIS_DSP/FilteringFunctions/arm_conv_opt_q7.c ****   /* First part of the processing with loop unrolling copies 4 data points at a time.       
 225:../Dave/Generated/CMSIS_DSP/FilteringFunctions/arm_conv_opt_q7.c ****    ** a second loop below copies for the remaining 1 to 3 samples. */
 226:../Dave/Generated/CMSIS_DSP/FilteringFunctions/arm_conv_opt_q7.c ****   while(k > 0u)
 227:../Dave/Generated/CMSIS_DSP/FilteringFunctions/arm_conv_opt_q7.c ****   {
 228:../Dave/Generated/CMSIS_DSP/FilteringFunctions/arm_conv_opt_q7.c ****     /* copy second buffer in reversal manner */
 229:../Dave/Generated/CMSIS_DSP/FilteringFunctions/arm_conv_opt_q7.c ****     *pScr1++ = 0;
 230:../Dave/Generated/CMSIS_DSP/FilteringFunctions/arm_conv_opt_q7.c ****     *pScr1++ = 0;
 231:../Dave/Generated/CMSIS_DSP/FilteringFunctions/arm_conv_opt_q7.c ****     *pScr1++ = 0;
 232:../Dave/Generated/CMSIS_DSP/FilteringFunctions/arm_conv_opt_q7.c ****     *pScr1++ = 0;
 233:../Dave/Generated/CMSIS_DSP/FilteringFunctions/arm_conv_opt_q7.c **** 
 234:../Dave/Generated/CMSIS_DSP/FilteringFunctions/arm_conv_opt_q7.c ****     /* Decrement the loop counter */
 235:../Dave/Generated/CMSIS_DSP/FilteringFunctions/arm_conv_opt_q7.c ****     k--;
 236:../Dave/Generated/CMSIS_DSP/FilteringFunctions/arm_conv_opt_q7.c ****   }
 237:../Dave/Generated/CMSIS_DSP/FilteringFunctions/arm_conv_opt_q7.c **** 
 238:../Dave/Generated/CMSIS_DSP/FilteringFunctions/arm_conv_opt_q7.c ****   /* If the count is not a multiple of 4, copy remaining samples here.       
 239:../Dave/Generated/CMSIS_DSP/FilteringFunctions/arm_conv_opt_q7.c ****    ** No loop unrolling is used. */
 240:../Dave/Generated/CMSIS_DSP/FilteringFunctions/arm_conv_opt_q7.c ****   k = (srcBLen - 1u) % 0x4u;
 241:../Dave/Generated/CMSIS_DSP/FilteringFunctions/arm_conv_opt_q7.c **** 
 242:../Dave/Generated/CMSIS_DSP/FilteringFunctions/arm_conv_opt_q7.c ****   while(k > 0u)
 243:../Dave/Generated/CMSIS_DSP/FilteringFunctions/arm_conv_opt_q7.c ****   {
 244:../Dave/Generated/CMSIS_DSP/FilteringFunctions/arm_conv_opt_q7.c ****     /* copy second buffer in reversal manner for remaining samples */
 245:../Dave/Generated/CMSIS_DSP/FilteringFunctions/arm_conv_opt_q7.c ****     *pScr1++ = 0;
 246:../Dave/Generated/CMSIS_DSP/FilteringFunctions/arm_conv_opt_q7.c **** 
 247:../Dave/Generated/CMSIS_DSP/FilteringFunctions/arm_conv_opt_q7.c ****     /* Decrement the loop counter */
 248:../Dave/Generated/CMSIS_DSP/FilteringFunctions/arm_conv_opt_q7.c ****     k--;
 249:../Dave/Generated/CMSIS_DSP/FilteringFunctions/arm_conv_opt_q7.c ****   }
 250:../Dave/Generated/CMSIS_DSP/FilteringFunctions/arm_conv_opt_q7.c **** 
 251:../Dave/Generated/CMSIS_DSP/FilteringFunctions/arm_conv_opt_q7.c **** #endif
 252:../Dave/Generated/CMSIS_DSP/FilteringFunctions/arm_conv_opt_q7.c **** 
 253:../Dave/Generated/CMSIS_DSP/FilteringFunctions/arm_conv_opt_q7.c ****   /* Temporary pointer for scratch2 */
 254:../Dave/Generated/CMSIS_DSP/FilteringFunctions/arm_conv_opt_q7.c ****   py = pScratch2;
 358              	 .loc 1 254 0
 359 02de D7F85831 	 ldr r3,[r7,#344]
 360 02e2 C7F80031 	 str r3,[r7,#256]
 255:../Dave/Generated/CMSIS_DSP/FilteringFunctions/arm_conv_opt_q7.c **** 
 256:../Dave/Generated/CMSIS_DSP/FilteringFunctions/arm_conv_opt_q7.c ****   /* Initialization of pIn2 pointer */
 257:../Dave/Generated/CMSIS_DSP/FilteringFunctions/arm_conv_opt_q7.c ****   pIn2 = (q7_t *) py;
 361              	 .loc 1 257 0
 362 02e6 D7F80031 	 ldr r3,[r7,#256]
 363 02ea C7F83431 	 str r3,[r7,#308]
 258:../Dave/Generated/CMSIS_DSP/FilteringFunctions/arm_conv_opt_q7.c **** 
 259:../Dave/Generated/CMSIS_DSP/FilteringFunctions/arm_conv_opt_q7.c ****   pScr2 = py;
 364              	 .loc 1 259 0
 365 02ee D7F80031 	 ldr r3,[r7,#256]
 366 02f2 C7F83C31 	 str r3,[r7,#316]
 260:../Dave/Generated/CMSIS_DSP/FilteringFunctions/arm_conv_opt_q7.c **** 
 261:../Dave/Generated/CMSIS_DSP/FilteringFunctions/arm_conv_opt_q7.c ****   /* Actual convolution process starts here */
 262:../Dave/Generated/CMSIS_DSP/FilteringFunctions/arm_conv_opt_q7.c ****   blkCnt = (srcALen + srcBLen - 1u) >> 2;
 367              	 .loc 1 262 0
 368 02f6 07F10802 	 add r2,r7,#8
 369 02fa 3B46     	 mov r3,r7
 370 02fc 1268     	 ldr r2,[r2]
 371 02fe 1B68     	 ldr r3,[r3]
 372 0300 1344     	 add r3,r3,r2
 373 0302 013B     	 subs r3,r3,#1
 374 0304 9B08     	 lsrs r3,r3,#2
 375 0306 C7F82C31 	 str r3,[r7,#300]
 263:../Dave/Generated/CMSIS_DSP/FilteringFunctions/arm_conv_opt_q7.c **** 
 264:../Dave/Generated/CMSIS_DSP/FilteringFunctions/arm_conv_opt_q7.c ****   while(blkCnt > 0)
 376              	 .loc 1 264 0
 377 030a 25E2     	 b .L12
 378              	.L25:
 265:../Dave/Generated/CMSIS_DSP/FilteringFunctions/arm_conv_opt_q7.c ****   {
 266:../Dave/Generated/CMSIS_DSP/FilteringFunctions/arm_conv_opt_q7.c ****     /* Initialze temporary scratch pointer as scratch1 */
 267:../Dave/Generated/CMSIS_DSP/FilteringFunctions/arm_conv_opt_q7.c ****     pScr1 = pScratch1;
 379              	 .loc 1 267 0
 380 030c 07F11803 	 add r3,r7,#24
 381 0310 D7F85421 	 ldr r2,[r7,#340]
 382 0314 1A60     	 str r2,[r3]
 268:../Dave/Generated/CMSIS_DSP/FilteringFunctions/arm_conv_opt_q7.c **** 
 269:../Dave/Generated/CMSIS_DSP/FilteringFunctions/arm_conv_opt_q7.c ****     /* Clear Accumlators */
 270:../Dave/Generated/CMSIS_DSP/FilteringFunctions/arm_conv_opt_q7.c ****     acc0 = 0;
 383              	 .loc 1 270 0
 384 0316 0023     	 movs r3,#0
 385 0318 C7F82031 	 str r3,[r7,#288]
 271:../Dave/Generated/CMSIS_DSP/FilteringFunctions/arm_conv_opt_q7.c ****     acc1 = 0;
 386              	 .loc 1 271 0
 387 031c 0023     	 movs r3,#0
 388 031e C7F81C31 	 str r3,[r7,#284]
 272:../Dave/Generated/CMSIS_DSP/FilteringFunctions/arm_conv_opt_q7.c ****     acc2 = 0;
 389              	 .loc 1 272 0
 390 0322 0023     	 movs r3,#0
 391 0324 C7F81831 	 str r3,[r7,#280]
 273:../Dave/Generated/CMSIS_DSP/FilteringFunctions/arm_conv_opt_q7.c ****     acc3 = 0;
 392              	 .loc 1 273 0
 393 0328 0023     	 movs r3,#0
 394 032a C7F81431 	 str r3,[r7,#276]
 274:../Dave/Generated/CMSIS_DSP/FilteringFunctions/arm_conv_opt_q7.c **** 
 275:../Dave/Generated/CMSIS_DSP/FilteringFunctions/arm_conv_opt_q7.c ****     /* Read two samples from scratch1 buffer */
 276:../Dave/Generated/CMSIS_DSP/FilteringFunctions/arm_conv_opt_q7.c ****     x1 = *__SIMD32(pScr1)++;
 395              	 .loc 1 276 0
 396 032e 07F11802 	 add r2,r7,#24
 397 0332 1368     	 ldr r3,[r2]
 398 0334 191D     	 adds r1,r3,#4
 399 0336 1160     	 str r1,[r2]
 400 0338 1B68     	 ldr r3,[r3]
 401 033a C7F81031 	 str r3,[r7,#272]
 277:../Dave/Generated/CMSIS_DSP/FilteringFunctions/arm_conv_opt_q7.c **** 
 278:../Dave/Generated/CMSIS_DSP/FilteringFunctions/arm_conv_opt_q7.c ****     /* Read next two samples from scratch1 buffer */
 279:../Dave/Generated/CMSIS_DSP/FilteringFunctions/arm_conv_opt_q7.c ****     x2 = *__SIMD32(pScr1)++;
 402              	 .loc 1 279 0
 403 033e 07F11802 	 add r2,r7,#24
 404 0342 1368     	 ldr r3,[r2]
 405 0344 191D     	 adds r1,r3,#4
 406 0346 1160     	 str r1,[r2]
 407 0348 1B68     	 ldr r3,[r3]
 408 034a C7F80C31 	 str r3,[r7,#268]
 280:../Dave/Generated/CMSIS_DSP/FilteringFunctions/arm_conv_opt_q7.c **** 
 281:../Dave/Generated/CMSIS_DSP/FilteringFunctions/arm_conv_opt_q7.c ****     tapCnt = (srcBLen) >> 2u;
 409              	 .loc 1 281 0
 410 034e 3B46     	 mov r3,r7
 411 0350 1B68     	 ldr r3,[r3]
 412 0352 9B08     	 lsrs r3,r3,#2
 413 0354 C7F82831 	 str r3,[r7,#296]
 282:../Dave/Generated/CMSIS_DSP/FilteringFunctions/arm_conv_opt_q7.c **** 
 283:../Dave/Generated/CMSIS_DSP/FilteringFunctions/arm_conv_opt_q7.c ****     while(tapCnt > 0u)
 414              	 .loc 1 283 0
 415 0358 25E1     	 b .L13
 416              	.L22:
 284:../Dave/Generated/CMSIS_DSP/FilteringFunctions/arm_conv_opt_q7.c ****     {
 285:../Dave/Generated/CMSIS_DSP/FilteringFunctions/arm_conv_opt_q7.c **** 
 286:../Dave/Generated/CMSIS_DSP/FilteringFunctions/arm_conv_opt_q7.c ****       /* Read four samples from smaller buffer */
 287:../Dave/Generated/CMSIS_DSP/FilteringFunctions/arm_conv_opt_q7.c ****       y1 = _SIMD32_OFFSET(pScr2);
 417              	 .loc 1 287 0
 418 035a D7F83C31 	 ldr r3,[r7,#316]
 419 035e 1B68     	 ldr r3,[r3]
 420 0360 C7F8FC30 	 str r3,[r7,#252]
 288:../Dave/Generated/CMSIS_DSP/FilteringFunctions/arm_conv_opt_q7.c **** 
 289:../Dave/Generated/CMSIS_DSP/FilteringFunctions/arm_conv_opt_q7.c ****       /* multiply and accumlate */
 290:../Dave/Generated/CMSIS_DSP/FilteringFunctions/arm_conv_opt_q7.c ****       acc0 = __SMLAD(x1, y1, acc0);
 421              	 .loc 1 290 0
 422 0364 D7F81011 	 ldr r1,[r7,#272]
 423 0368 D7F8FC20 	 ldr r2,[r7,#252]
 424 036c D7F82031 	 ldr r3,[r7,#288]
 425 0370 C7F89810 	 str r1,[r7,#152]
 426 0374 C7F89420 	 str r2,[r7,#148]
 427 0378 C7F89030 	 str r3,[r7,#144]
 428              	.LBB26:
 429              	.LBB27:
 430              	 .file 2 "C:\\Users\\Depes Crystalline\\Desktop\\school\\Active_Bike_Lighting_System\\Radar_Core/Libraries/CMSIS/Include/core_cmSimd.h"
   1:C:\Users\Depes Crystalline\Desktop\school\Active_Bike_Lighting_System\Radar_Core/Libraries/CMSIS/Include\core_cmSimd.h **** /**************************************************************************//**
   2:C:\Users\Depes Crystalline\Desktop\school\Active_Bike_Lighting_System\Radar_Core/Libraries/CMSIS/Include\core_cmSimd.h ****  * @file     core_cmSimd.h
   3:C:\Users\Depes Crystalline\Desktop\school\Active_Bike_Lighting_System\Radar_Core/Libraries/CMSIS/Include\core_cmSimd.h ****  * @brief    CMSIS Cortex-M SIMD Header File
   4:C:\Users\Depes Crystalline\Desktop\school\Active_Bike_Lighting_System\Radar_Core/Libraries/CMSIS/Include\core_cmSimd.h ****  * @version  V4.00
   5:C:\Users\Depes Crystalline\Desktop\school\Active_Bike_Lighting_System\Radar_Core/Libraries/CMSIS/Include\core_cmSimd.h ****  * @date     22. August 2014
   6:C:\Users\Depes Crystalline\Desktop\school\Active_Bike_Lighting_System\Radar_Core/Libraries/CMSIS/Include\core_cmSimd.h ****  *
   7:C:\Users\Depes Crystalline\Desktop\school\Active_Bike_Lighting_System\Radar_Core/Libraries/CMSIS/Include\core_cmSimd.h ****  * @note
   8:C:\Users\Depes Crystalline\Desktop\school\Active_Bike_Lighting_System\Radar_Core/Libraries/CMSIS/Include\core_cmSimd.h ****  *
   9:C:\Users\Depes Crystalline\Desktop\school\Active_Bike_Lighting_System\Radar_Core/Libraries/CMSIS/Include\core_cmSimd.h ****  ******************************************************************************/
  10:C:\Users\Depes Crystalline\Desktop\school\Active_Bike_Lighting_System\Radar_Core/Libraries/CMSIS/Include\core_cmSimd.h **** /* Copyright (c) 2009 - 2014 ARM LIMITED
  11:C:\Users\Depes Crystalline\Desktop\school\Active_Bike_Lighting_System\Radar_Core/Libraries/CMSIS/Include\core_cmSimd.h **** 
  12:C:\Users\Depes Crystalline\Desktop\school\Active_Bike_Lighting_System\Radar_Core/Libraries/CMSIS/Include\core_cmSimd.h ****    All rights reserved.
  13:C:\Users\Depes Crystalline\Desktop\school\Active_Bike_Lighting_System\Radar_Core/Libraries/CMSIS/Include\core_cmSimd.h ****    Redistribution and use in source and binary forms, with or without
  14:C:\Users\Depes Crystalline\Desktop\school\Active_Bike_Lighting_System\Radar_Core/Libraries/CMSIS/Include\core_cmSimd.h ****    modification, are permitted provided that the following conditions are met:
  15:C:\Users\Depes Crystalline\Desktop\school\Active_Bike_Lighting_System\Radar_Core/Libraries/CMSIS/Include\core_cmSimd.h ****    - Redistributions of source code must retain the above copyright
  16:C:\Users\Depes Crystalline\Desktop\school\Active_Bike_Lighting_System\Radar_Core/Libraries/CMSIS/Include\core_cmSimd.h ****      notice, this list of conditions and the following disclaimer.
  17:C:\Users\Depes Crystalline\Desktop\school\Active_Bike_Lighting_System\Radar_Core/Libraries/CMSIS/Include\core_cmSimd.h ****    - Redistributions in binary form must reproduce the above copyright
  18:C:\Users\Depes Crystalline\Desktop\school\Active_Bike_Lighting_System\Radar_Core/Libraries/CMSIS/Include\core_cmSimd.h ****      notice, this list of conditions and the following disclaimer in the
  19:C:\Users\Depes Crystalline\Desktop\school\Active_Bike_Lighting_System\Radar_Core/Libraries/CMSIS/Include\core_cmSimd.h ****      documentation and/or other materials provided with the distribution.
  20:C:\Users\Depes Crystalline\Desktop\school\Active_Bike_Lighting_System\Radar_Core/Libraries/CMSIS/Include\core_cmSimd.h ****    - Neither the name of ARM nor the names of its contributors may be used
  21:C:\Users\Depes Crystalline\Desktop\school\Active_Bike_Lighting_System\Radar_Core/Libraries/CMSIS/Include\core_cmSimd.h ****      to endorse or promote products derived from this software without
  22:C:\Users\Depes Crystalline\Desktop\school\Active_Bike_Lighting_System\Radar_Core/Libraries/CMSIS/Include\core_cmSimd.h ****      specific prior written permission.
  23:C:\Users\Depes Crystalline\Desktop\school\Active_Bike_Lighting_System\Radar_Core/Libraries/CMSIS/Include\core_cmSimd.h ****    *
  24:C:\Users\Depes Crystalline\Desktop\school\Active_Bike_Lighting_System\Radar_Core/Libraries/CMSIS/Include\core_cmSimd.h ****    THIS SOFTWARE IS PROVIDED BY THE COPYRIGHT HOLDERS AND CONTRIBUTORS "AS IS"
  25:C:\Users\Depes Crystalline\Desktop\school\Active_Bike_Lighting_System\Radar_Core/Libraries/CMSIS/Include\core_cmSimd.h ****    AND ANY EXPRESS OR IMPLIED WARRANTIES, INCLUDING, BUT NOT LIMITED TO, THE
  26:C:\Users\Depes Crystalline\Desktop\school\Active_Bike_Lighting_System\Radar_Core/Libraries/CMSIS/Include\core_cmSimd.h ****    IMPLIED WARRANTIES OF MERCHANTABILITY AND FITNESS FOR A PARTICULAR PURPOSE
  27:C:\Users\Depes Crystalline\Desktop\school\Active_Bike_Lighting_System\Radar_Core/Libraries/CMSIS/Include\core_cmSimd.h ****    ARE DISCLAIMED. IN NO EVENT SHALL COPYRIGHT HOLDERS AND CONTRIBUTORS BE
  28:C:\Users\Depes Crystalline\Desktop\school\Active_Bike_Lighting_System\Radar_Core/Libraries/CMSIS/Include\core_cmSimd.h ****    LIABLE FOR ANY DIRECT, INDIRECT, INCIDENTAL, SPECIAL, EXEMPLARY, OR
  29:C:\Users\Depes Crystalline\Desktop\school\Active_Bike_Lighting_System\Radar_Core/Libraries/CMSIS/Include\core_cmSimd.h ****    CONSEQUENTIAL DAMAGES (INCLUDING, BUT NOT LIMITED TO, PROCUREMENT OF
  30:C:\Users\Depes Crystalline\Desktop\school\Active_Bike_Lighting_System\Radar_Core/Libraries/CMSIS/Include\core_cmSimd.h ****    SUBSTITUTE GOODS OR SERVICES; LOSS OF USE, DATA, OR PROFITS; OR BUSINESS
  31:C:\Users\Depes Crystalline\Desktop\school\Active_Bike_Lighting_System\Radar_Core/Libraries/CMSIS/Include\core_cmSimd.h ****    INTERRUPTION) HOWEVER CAUSED AND ON ANY THEORY OF LIABILITY, WHETHER IN
  32:C:\Users\Depes Crystalline\Desktop\school\Active_Bike_Lighting_System\Radar_Core/Libraries/CMSIS/Include\core_cmSimd.h ****    CONTRACT, STRICT LIABILITY, OR TORT (INCLUDING NEGLIGENCE OR OTHERWISE)
  33:C:\Users\Depes Crystalline\Desktop\school\Active_Bike_Lighting_System\Radar_Core/Libraries/CMSIS/Include\core_cmSimd.h ****    ARISING IN ANY WAY OUT OF THE USE OF THIS SOFTWARE, EVEN IF ADVISED OF THE
  34:C:\Users\Depes Crystalline\Desktop\school\Active_Bike_Lighting_System\Radar_Core/Libraries/CMSIS/Include\core_cmSimd.h ****    POSSIBILITY OF SUCH DAMAGE.
  35:C:\Users\Depes Crystalline\Desktop\school\Active_Bike_Lighting_System\Radar_Core/Libraries/CMSIS/Include\core_cmSimd.h ****    ---------------------------------------------------------------------------*/
  36:C:\Users\Depes Crystalline\Desktop\school\Active_Bike_Lighting_System\Radar_Core/Libraries/CMSIS/Include\core_cmSimd.h **** 
  37:C:\Users\Depes Crystalline\Desktop\school\Active_Bike_Lighting_System\Radar_Core/Libraries/CMSIS/Include\core_cmSimd.h **** 
  38:C:\Users\Depes Crystalline\Desktop\school\Active_Bike_Lighting_System\Radar_Core/Libraries/CMSIS/Include\core_cmSimd.h **** #if defined ( __ICCARM__ )
  39:C:\Users\Depes Crystalline\Desktop\school\Active_Bike_Lighting_System\Radar_Core/Libraries/CMSIS/Include\core_cmSimd.h ****  #pragma system_include  /* treat file as system include file for MISRA check */
  40:C:\Users\Depes Crystalline\Desktop\school\Active_Bike_Lighting_System\Radar_Core/Libraries/CMSIS/Include\core_cmSimd.h **** #endif
  41:C:\Users\Depes Crystalline\Desktop\school\Active_Bike_Lighting_System\Radar_Core/Libraries/CMSIS/Include\core_cmSimd.h **** 
  42:C:\Users\Depes Crystalline\Desktop\school\Active_Bike_Lighting_System\Radar_Core/Libraries/CMSIS/Include\core_cmSimd.h **** #ifndef __CORE_CMSIMD_H
  43:C:\Users\Depes Crystalline\Desktop\school\Active_Bike_Lighting_System\Radar_Core/Libraries/CMSIS/Include\core_cmSimd.h **** #define __CORE_CMSIMD_H
  44:C:\Users\Depes Crystalline\Desktop\school\Active_Bike_Lighting_System\Radar_Core/Libraries/CMSIS/Include\core_cmSimd.h **** 
  45:C:\Users\Depes Crystalline\Desktop\school\Active_Bike_Lighting_System\Radar_Core/Libraries/CMSIS/Include\core_cmSimd.h **** #ifdef __cplusplus
  46:C:\Users\Depes Crystalline\Desktop\school\Active_Bike_Lighting_System\Radar_Core/Libraries/CMSIS/Include\core_cmSimd.h ****  extern "C" {
  47:C:\Users\Depes Crystalline\Desktop\school\Active_Bike_Lighting_System\Radar_Core/Libraries/CMSIS/Include\core_cmSimd.h **** #endif
  48:C:\Users\Depes Crystalline\Desktop\school\Active_Bike_Lighting_System\Radar_Core/Libraries/CMSIS/Include\core_cmSimd.h **** 
  49:C:\Users\Depes Crystalline\Desktop\school\Active_Bike_Lighting_System\Radar_Core/Libraries/CMSIS/Include\core_cmSimd.h **** 
  50:C:\Users\Depes Crystalline\Desktop\school\Active_Bike_Lighting_System\Radar_Core/Libraries/CMSIS/Include\core_cmSimd.h **** /*******************************************************************************
  51:C:\Users\Depes Crystalline\Desktop\school\Active_Bike_Lighting_System\Radar_Core/Libraries/CMSIS/Include\core_cmSimd.h ****  *                Hardware Abstraction Layer
  52:C:\Users\Depes Crystalline\Desktop\school\Active_Bike_Lighting_System\Radar_Core/Libraries/CMSIS/Include\core_cmSimd.h ****  ******************************************************************************/
  53:C:\Users\Depes Crystalline\Desktop\school\Active_Bike_Lighting_System\Radar_Core/Libraries/CMSIS/Include\core_cmSimd.h **** 
  54:C:\Users\Depes Crystalline\Desktop\school\Active_Bike_Lighting_System\Radar_Core/Libraries/CMSIS/Include\core_cmSimd.h **** 
  55:C:\Users\Depes Crystalline\Desktop\school\Active_Bike_Lighting_System\Radar_Core/Libraries/CMSIS/Include\core_cmSimd.h **** /* ###################  Compiler specific Intrinsics  ########################### */
  56:C:\Users\Depes Crystalline\Desktop\school\Active_Bike_Lighting_System\Radar_Core/Libraries/CMSIS/Include\core_cmSimd.h **** /** \defgroup CMSIS_SIMD_intrinsics CMSIS SIMD Intrinsics
  57:C:\Users\Depes Crystalline\Desktop\school\Active_Bike_Lighting_System\Radar_Core/Libraries/CMSIS/Include\core_cmSimd.h ****   Access to dedicated SIMD instructions
  58:C:\Users\Depes Crystalline\Desktop\school\Active_Bike_Lighting_System\Radar_Core/Libraries/CMSIS/Include\core_cmSimd.h ****   @{
  59:C:\Users\Depes Crystalline\Desktop\school\Active_Bike_Lighting_System\Radar_Core/Libraries/CMSIS/Include\core_cmSimd.h **** */
  60:C:\Users\Depes Crystalline\Desktop\school\Active_Bike_Lighting_System\Radar_Core/Libraries/CMSIS/Include\core_cmSimd.h **** 
  61:C:\Users\Depes Crystalline\Desktop\school\Active_Bike_Lighting_System\Radar_Core/Libraries/CMSIS/Include\core_cmSimd.h **** #if   defined ( __CC_ARM ) /*------------------RealView Compiler -----------------*/
  62:C:\Users\Depes Crystalline\Desktop\school\Active_Bike_Lighting_System\Radar_Core/Libraries/CMSIS/Include\core_cmSimd.h **** /* ARM armcc specific functions */
  63:C:\Users\Depes Crystalline\Desktop\school\Active_Bike_Lighting_System\Radar_Core/Libraries/CMSIS/Include\core_cmSimd.h **** #define __SADD8                           __sadd8
  64:C:\Users\Depes Crystalline\Desktop\school\Active_Bike_Lighting_System\Radar_Core/Libraries/CMSIS/Include\core_cmSimd.h **** #define __QADD8                           __qadd8
  65:C:\Users\Depes Crystalline\Desktop\school\Active_Bike_Lighting_System\Radar_Core/Libraries/CMSIS/Include\core_cmSimd.h **** #define __SHADD8                          __shadd8
  66:C:\Users\Depes Crystalline\Desktop\school\Active_Bike_Lighting_System\Radar_Core/Libraries/CMSIS/Include\core_cmSimd.h **** #define __UADD8                           __uadd8
  67:C:\Users\Depes Crystalline\Desktop\school\Active_Bike_Lighting_System\Radar_Core/Libraries/CMSIS/Include\core_cmSimd.h **** #define __UQADD8                          __uqadd8
  68:C:\Users\Depes Crystalline\Desktop\school\Active_Bike_Lighting_System\Radar_Core/Libraries/CMSIS/Include\core_cmSimd.h **** #define __UHADD8                          __uhadd8
  69:C:\Users\Depes Crystalline\Desktop\school\Active_Bike_Lighting_System\Radar_Core/Libraries/CMSIS/Include\core_cmSimd.h **** #define __SSUB8                           __ssub8
  70:C:\Users\Depes Crystalline\Desktop\school\Active_Bike_Lighting_System\Radar_Core/Libraries/CMSIS/Include\core_cmSimd.h **** #define __QSUB8                           __qsub8
  71:C:\Users\Depes Crystalline\Desktop\school\Active_Bike_Lighting_System\Radar_Core/Libraries/CMSIS/Include\core_cmSimd.h **** #define __SHSUB8                          __shsub8
  72:C:\Users\Depes Crystalline\Desktop\school\Active_Bike_Lighting_System\Radar_Core/Libraries/CMSIS/Include\core_cmSimd.h **** #define __USUB8                           __usub8
  73:C:\Users\Depes Crystalline\Desktop\school\Active_Bike_Lighting_System\Radar_Core/Libraries/CMSIS/Include\core_cmSimd.h **** #define __UQSUB8                          __uqsub8
  74:C:\Users\Depes Crystalline\Desktop\school\Active_Bike_Lighting_System\Radar_Core/Libraries/CMSIS/Include\core_cmSimd.h **** #define __UHSUB8                          __uhsub8
  75:C:\Users\Depes Crystalline\Desktop\school\Active_Bike_Lighting_System\Radar_Core/Libraries/CMSIS/Include\core_cmSimd.h **** #define __SADD16                          __sadd16
  76:C:\Users\Depes Crystalline\Desktop\school\Active_Bike_Lighting_System\Radar_Core/Libraries/CMSIS/Include\core_cmSimd.h **** #define __QADD16                          __qadd16
  77:C:\Users\Depes Crystalline\Desktop\school\Active_Bike_Lighting_System\Radar_Core/Libraries/CMSIS/Include\core_cmSimd.h **** #define __SHADD16                         __shadd16
  78:C:\Users\Depes Crystalline\Desktop\school\Active_Bike_Lighting_System\Radar_Core/Libraries/CMSIS/Include\core_cmSimd.h **** #define __UADD16                          __uadd16
  79:C:\Users\Depes Crystalline\Desktop\school\Active_Bike_Lighting_System\Radar_Core/Libraries/CMSIS/Include\core_cmSimd.h **** #define __UQADD16                         __uqadd16
  80:C:\Users\Depes Crystalline\Desktop\school\Active_Bike_Lighting_System\Radar_Core/Libraries/CMSIS/Include\core_cmSimd.h **** #define __UHADD16                         __uhadd16
  81:C:\Users\Depes Crystalline\Desktop\school\Active_Bike_Lighting_System\Radar_Core/Libraries/CMSIS/Include\core_cmSimd.h **** #define __SSUB16                          __ssub16
  82:C:\Users\Depes Crystalline\Desktop\school\Active_Bike_Lighting_System\Radar_Core/Libraries/CMSIS/Include\core_cmSimd.h **** #define __QSUB16                          __qsub16
  83:C:\Users\Depes Crystalline\Desktop\school\Active_Bike_Lighting_System\Radar_Core/Libraries/CMSIS/Include\core_cmSimd.h **** #define __SHSUB16                         __shsub16
  84:C:\Users\Depes Crystalline\Desktop\school\Active_Bike_Lighting_System\Radar_Core/Libraries/CMSIS/Include\core_cmSimd.h **** #define __USUB16                          __usub16
  85:C:\Users\Depes Crystalline\Desktop\school\Active_Bike_Lighting_System\Radar_Core/Libraries/CMSIS/Include\core_cmSimd.h **** #define __UQSUB16                         __uqsub16
  86:C:\Users\Depes Crystalline\Desktop\school\Active_Bike_Lighting_System\Radar_Core/Libraries/CMSIS/Include\core_cmSimd.h **** #define __UHSUB16                         __uhsub16
  87:C:\Users\Depes Crystalline\Desktop\school\Active_Bike_Lighting_System\Radar_Core/Libraries/CMSIS/Include\core_cmSimd.h **** #define __SASX                            __sasx
  88:C:\Users\Depes Crystalline\Desktop\school\Active_Bike_Lighting_System\Radar_Core/Libraries/CMSIS/Include\core_cmSimd.h **** #define __QASX                            __qasx
  89:C:\Users\Depes Crystalline\Desktop\school\Active_Bike_Lighting_System\Radar_Core/Libraries/CMSIS/Include\core_cmSimd.h **** #define __SHASX                           __shasx
  90:C:\Users\Depes Crystalline\Desktop\school\Active_Bike_Lighting_System\Radar_Core/Libraries/CMSIS/Include\core_cmSimd.h **** #define __UASX                            __uasx
  91:C:\Users\Depes Crystalline\Desktop\school\Active_Bike_Lighting_System\Radar_Core/Libraries/CMSIS/Include\core_cmSimd.h **** #define __UQASX                           __uqasx
  92:C:\Users\Depes Crystalline\Desktop\school\Active_Bike_Lighting_System\Radar_Core/Libraries/CMSIS/Include\core_cmSimd.h **** #define __UHASX                           __uhasx
  93:C:\Users\Depes Crystalline\Desktop\school\Active_Bike_Lighting_System\Radar_Core/Libraries/CMSIS/Include\core_cmSimd.h **** #define __SSAX                            __ssax
  94:C:\Users\Depes Crystalline\Desktop\school\Active_Bike_Lighting_System\Radar_Core/Libraries/CMSIS/Include\core_cmSimd.h **** #define __QSAX                            __qsax
  95:C:\Users\Depes Crystalline\Desktop\school\Active_Bike_Lighting_System\Radar_Core/Libraries/CMSIS/Include\core_cmSimd.h **** #define __SHSAX                           __shsax
  96:C:\Users\Depes Crystalline\Desktop\school\Active_Bike_Lighting_System\Radar_Core/Libraries/CMSIS/Include\core_cmSimd.h **** #define __USAX                            __usax
  97:C:\Users\Depes Crystalline\Desktop\school\Active_Bike_Lighting_System\Radar_Core/Libraries/CMSIS/Include\core_cmSimd.h **** #define __UQSAX                           __uqsax
  98:C:\Users\Depes Crystalline\Desktop\school\Active_Bike_Lighting_System\Radar_Core/Libraries/CMSIS/Include\core_cmSimd.h **** #define __UHSAX                           __uhsax
  99:C:\Users\Depes Crystalline\Desktop\school\Active_Bike_Lighting_System\Radar_Core/Libraries/CMSIS/Include\core_cmSimd.h **** #define __USAD8                           __usad8
 100:C:\Users\Depes Crystalline\Desktop\school\Active_Bike_Lighting_System\Radar_Core/Libraries/CMSIS/Include\core_cmSimd.h **** #define __USADA8                          __usada8
 101:C:\Users\Depes Crystalline\Desktop\school\Active_Bike_Lighting_System\Radar_Core/Libraries/CMSIS/Include\core_cmSimd.h **** #define __SSAT16                          __ssat16
 102:C:\Users\Depes Crystalline\Desktop\school\Active_Bike_Lighting_System\Radar_Core/Libraries/CMSIS/Include\core_cmSimd.h **** #define __USAT16                          __usat16
 103:C:\Users\Depes Crystalline\Desktop\school\Active_Bike_Lighting_System\Radar_Core/Libraries/CMSIS/Include\core_cmSimd.h **** #define __UXTB16                          __uxtb16
 104:C:\Users\Depes Crystalline\Desktop\school\Active_Bike_Lighting_System\Radar_Core/Libraries/CMSIS/Include\core_cmSimd.h **** #define __UXTAB16                         __uxtab16
 105:C:\Users\Depes Crystalline\Desktop\school\Active_Bike_Lighting_System\Radar_Core/Libraries/CMSIS/Include\core_cmSimd.h **** #define __SXTB16                          __sxtb16
 106:C:\Users\Depes Crystalline\Desktop\school\Active_Bike_Lighting_System\Radar_Core/Libraries/CMSIS/Include\core_cmSimd.h **** #define __SXTAB16                         __sxtab16
 107:C:\Users\Depes Crystalline\Desktop\school\Active_Bike_Lighting_System\Radar_Core/Libraries/CMSIS/Include\core_cmSimd.h **** #define __SMUAD                           __smuad
 108:C:\Users\Depes Crystalline\Desktop\school\Active_Bike_Lighting_System\Radar_Core/Libraries/CMSIS/Include\core_cmSimd.h **** #define __SMUADX                          __smuadx
 109:C:\Users\Depes Crystalline\Desktop\school\Active_Bike_Lighting_System\Radar_Core/Libraries/CMSIS/Include\core_cmSimd.h **** #define __SMLAD                           __smlad
 110:C:\Users\Depes Crystalline\Desktop\school\Active_Bike_Lighting_System\Radar_Core/Libraries/CMSIS/Include\core_cmSimd.h **** #define __SMLADX                          __smladx
 111:C:\Users\Depes Crystalline\Desktop\school\Active_Bike_Lighting_System\Radar_Core/Libraries/CMSIS/Include\core_cmSimd.h **** #define __SMLALD                          __smlald
 112:C:\Users\Depes Crystalline\Desktop\school\Active_Bike_Lighting_System\Radar_Core/Libraries/CMSIS/Include\core_cmSimd.h **** #define __SMLALDX                         __smlaldx
 113:C:\Users\Depes Crystalline\Desktop\school\Active_Bike_Lighting_System\Radar_Core/Libraries/CMSIS/Include\core_cmSimd.h **** #define __SMUSD                           __smusd
 114:C:\Users\Depes Crystalline\Desktop\school\Active_Bike_Lighting_System\Radar_Core/Libraries/CMSIS/Include\core_cmSimd.h **** #define __SMUSDX                          __smusdx
 115:C:\Users\Depes Crystalline\Desktop\school\Active_Bike_Lighting_System\Radar_Core/Libraries/CMSIS/Include\core_cmSimd.h **** #define __SMLSD                           __smlsd
 116:C:\Users\Depes Crystalline\Desktop\school\Active_Bike_Lighting_System\Radar_Core/Libraries/CMSIS/Include\core_cmSimd.h **** #define __SMLSDX                          __smlsdx
 117:C:\Users\Depes Crystalline\Desktop\school\Active_Bike_Lighting_System\Radar_Core/Libraries/CMSIS/Include\core_cmSimd.h **** #define __SMLSLD                          __smlsld
 118:C:\Users\Depes Crystalline\Desktop\school\Active_Bike_Lighting_System\Radar_Core/Libraries/CMSIS/Include\core_cmSimd.h **** #define __SMLSLDX                         __smlsldx
 119:C:\Users\Depes Crystalline\Desktop\school\Active_Bike_Lighting_System\Radar_Core/Libraries/CMSIS/Include\core_cmSimd.h **** #define __SEL                             __sel
 120:C:\Users\Depes Crystalline\Desktop\school\Active_Bike_Lighting_System\Radar_Core/Libraries/CMSIS/Include\core_cmSimd.h **** #define __QADD                            __qadd
 121:C:\Users\Depes Crystalline\Desktop\school\Active_Bike_Lighting_System\Radar_Core/Libraries/CMSIS/Include\core_cmSimd.h **** #define __QSUB                            __qsub
 122:C:\Users\Depes Crystalline\Desktop\school\Active_Bike_Lighting_System\Radar_Core/Libraries/CMSIS/Include\core_cmSimd.h **** 
 123:C:\Users\Depes Crystalline\Desktop\school\Active_Bike_Lighting_System\Radar_Core/Libraries/CMSIS/Include\core_cmSimd.h **** #define __PKHBT(ARG1,ARG2,ARG3)          ( ((((uint32_t)(ARG1))          ) & 0x0000FFFFUL) |  \
 124:C:\Users\Depes Crystalline\Desktop\school\Active_Bike_Lighting_System\Radar_Core/Libraries/CMSIS/Include\core_cmSimd.h ****                                            ((((uint32_t)(ARG2)) << (ARG3)) & 0xFFFF0000UL)  )
 125:C:\Users\Depes Crystalline\Desktop\school\Active_Bike_Lighting_System\Radar_Core/Libraries/CMSIS/Include\core_cmSimd.h **** 
 126:C:\Users\Depes Crystalline\Desktop\school\Active_Bike_Lighting_System\Radar_Core/Libraries/CMSIS/Include\core_cmSimd.h **** #define __PKHTB(ARG1,ARG2,ARG3)          ( ((((uint32_t)(ARG1))          ) & 0xFFFF0000UL) |  \
 127:C:\Users\Depes Crystalline\Desktop\school\Active_Bike_Lighting_System\Radar_Core/Libraries/CMSIS/Include\core_cmSimd.h ****                                            ((((uint32_t)(ARG2)) >> (ARG3)) & 0x0000FFFFUL)  )
 128:C:\Users\Depes Crystalline\Desktop\school\Active_Bike_Lighting_System\Radar_Core/Libraries/CMSIS/Include\core_cmSimd.h **** 
 129:C:\Users\Depes Crystalline\Desktop\school\Active_Bike_Lighting_System\Radar_Core/Libraries/CMSIS/Include\core_cmSimd.h **** #define __SMMLA(ARG1,ARG2,ARG3)          ( (int32_t)((((int64_t)(ARG1) * (ARG2)) + \
 130:C:\Users\Depes Crystalline\Desktop\school\Active_Bike_Lighting_System\Radar_Core/Libraries/CMSIS/Include\core_cmSimd.h ****                                                       ((int64_t)(ARG3) << 32)      ) >> 32))
 131:C:\Users\Depes Crystalline\Desktop\school\Active_Bike_Lighting_System\Radar_Core/Libraries/CMSIS/Include\core_cmSimd.h **** 
 132:C:\Users\Depes Crystalline\Desktop\school\Active_Bike_Lighting_System\Radar_Core/Libraries/CMSIS/Include\core_cmSimd.h **** 
 133:C:\Users\Depes Crystalline\Desktop\school\Active_Bike_Lighting_System\Radar_Core/Libraries/CMSIS/Include\core_cmSimd.h **** #elif defined ( __GNUC__ ) /*------------------ GNU Compiler ---------------------*/
 134:C:\Users\Depes Crystalline\Desktop\school\Active_Bike_Lighting_System\Radar_Core/Libraries/CMSIS/Include\core_cmSimd.h **** /* GNU gcc specific functions */
 135:C:\Users\Depes Crystalline\Desktop\school\Active_Bike_Lighting_System\Radar_Core/Libraries/CMSIS/Include\core_cmSimd.h **** __attribute__( ( always_inline ) ) __STATIC_INLINE uint32_t __SADD8(uint32_t op1, uint32_t op2)
 136:C:\Users\Depes Crystalline\Desktop\school\Active_Bike_Lighting_System\Radar_Core/Libraries/CMSIS/Include\core_cmSimd.h **** {
 137:C:\Users\Depes Crystalline\Desktop\school\Active_Bike_Lighting_System\Radar_Core/Libraries/CMSIS/Include\core_cmSimd.h ****   uint32_t result;
 138:C:\Users\Depes Crystalline\Desktop\school\Active_Bike_Lighting_System\Radar_Core/Libraries/CMSIS/Include\core_cmSimd.h **** 
 139:C:\Users\Depes Crystalline\Desktop\school\Active_Bike_Lighting_System\Radar_Core/Libraries/CMSIS/Include\core_cmSimd.h ****   __ASM volatile ("sadd8 %0, %1, %2" : "=r" (result) : "r" (op1), "r" (op2) );
 140:C:\Users\Depes Crystalline\Desktop\school\Active_Bike_Lighting_System\Radar_Core/Libraries/CMSIS/Include\core_cmSimd.h ****   return(result);
 141:C:\Users\Depes Crystalline\Desktop\school\Active_Bike_Lighting_System\Radar_Core/Libraries/CMSIS/Include\core_cmSimd.h **** }
 142:C:\Users\Depes Crystalline\Desktop\school\Active_Bike_Lighting_System\Radar_Core/Libraries/CMSIS/Include\core_cmSimd.h **** 
 143:C:\Users\Depes Crystalline\Desktop\school\Active_Bike_Lighting_System\Radar_Core/Libraries/CMSIS/Include\core_cmSimd.h **** __attribute__( ( always_inline ) ) __STATIC_INLINE uint32_t __QADD8(uint32_t op1, uint32_t op2)
 144:C:\Users\Depes Crystalline\Desktop\school\Active_Bike_Lighting_System\Radar_Core/Libraries/CMSIS/Include\core_cmSimd.h **** {
 145:C:\Users\Depes Crystalline\Desktop\school\Active_Bike_Lighting_System\Radar_Core/Libraries/CMSIS/Include\core_cmSimd.h ****   uint32_t result;
 146:C:\Users\Depes Crystalline\Desktop\school\Active_Bike_Lighting_System\Radar_Core/Libraries/CMSIS/Include\core_cmSimd.h **** 
 147:C:\Users\Depes Crystalline\Desktop\school\Active_Bike_Lighting_System\Radar_Core/Libraries/CMSIS/Include\core_cmSimd.h ****   __ASM volatile ("qadd8 %0, %1, %2" : "=r" (result) : "r" (op1), "r" (op2) );
 148:C:\Users\Depes Crystalline\Desktop\school\Active_Bike_Lighting_System\Radar_Core/Libraries/CMSIS/Include\core_cmSimd.h ****   return(result);
 149:C:\Users\Depes Crystalline\Desktop\school\Active_Bike_Lighting_System\Radar_Core/Libraries/CMSIS/Include\core_cmSimd.h **** }
 150:C:\Users\Depes Crystalline\Desktop\school\Active_Bike_Lighting_System\Radar_Core/Libraries/CMSIS/Include\core_cmSimd.h **** 
 151:C:\Users\Depes Crystalline\Desktop\school\Active_Bike_Lighting_System\Radar_Core/Libraries/CMSIS/Include\core_cmSimd.h **** __attribute__( ( always_inline ) ) __STATIC_INLINE uint32_t __SHADD8(uint32_t op1, uint32_t op2)
 152:C:\Users\Depes Crystalline\Desktop\school\Active_Bike_Lighting_System\Radar_Core/Libraries/CMSIS/Include\core_cmSimd.h **** {
 153:C:\Users\Depes Crystalline\Desktop\school\Active_Bike_Lighting_System\Radar_Core/Libraries/CMSIS/Include\core_cmSimd.h ****   uint32_t result;
 154:C:\Users\Depes Crystalline\Desktop\school\Active_Bike_Lighting_System\Radar_Core/Libraries/CMSIS/Include\core_cmSimd.h **** 
 155:C:\Users\Depes Crystalline\Desktop\school\Active_Bike_Lighting_System\Radar_Core/Libraries/CMSIS/Include\core_cmSimd.h ****   __ASM volatile ("shadd8 %0, %1, %2" : "=r" (result) : "r" (op1), "r" (op2) );
 156:C:\Users\Depes Crystalline\Desktop\school\Active_Bike_Lighting_System\Radar_Core/Libraries/CMSIS/Include\core_cmSimd.h ****   return(result);
 157:C:\Users\Depes Crystalline\Desktop\school\Active_Bike_Lighting_System\Radar_Core/Libraries/CMSIS/Include\core_cmSimd.h **** }
 158:C:\Users\Depes Crystalline\Desktop\school\Active_Bike_Lighting_System\Radar_Core/Libraries/CMSIS/Include\core_cmSimd.h **** 
 159:C:\Users\Depes Crystalline\Desktop\school\Active_Bike_Lighting_System\Radar_Core/Libraries/CMSIS/Include\core_cmSimd.h **** __attribute__( ( always_inline ) ) __STATIC_INLINE uint32_t __UADD8(uint32_t op1, uint32_t op2)
 160:C:\Users\Depes Crystalline\Desktop\school\Active_Bike_Lighting_System\Radar_Core/Libraries/CMSIS/Include\core_cmSimd.h **** {
 161:C:\Users\Depes Crystalline\Desktop\school\Active_Bike_Lighting_System\Radar_Core/Libraries/CMSIS/Include\core_cmSimd.h ****   uint32_t result;
 162:C:\Users\Depes Crystalline\Desktop\school\Active_Bike_Lighting_System\Radar_Core/Libraries/CMSIS/Include\core_cmSimd.h **** 
 163:C:\Users\Depes Crystalline\Desktop\school\Active_Bike_Lighting_System\Radar_Core/Libraries/CMSIS/Include\core_cmSimd.h ****   __ASM volatile ("uadd8 %0, %1, %2" : "=r" (result) : "r" (op1), "r" (op2) );
 164:C:\Users\Depes Crystalline\Desktop\school\Active_Bike_Lighting_System\Radar_Core/Libraries/CMSIS/Include\core_cmSimd.h ****   return(result);
 165:C:\Users\Depes Crystalline\Desktop\school\Active_Bike_Lighting_System\Radar_Core/Libraries/CMSIS/Include\core_cmSimd.h **** }
 166:C:\Users\Depes Crystalline\Desktop\school\Active_Bike_Lighting_System\Radar_Core/Libraries/CMSIS/Include\core_cmSimd.h **** 
 167:C:\Users\Depes Crystalline\Desktop\school\Active_Bike_Lighting_System\Radar_Core/Libraries/CMSIS/Include\core_cmSimd.h **** __attribute__( ( always_inline ) ) __STATIC_INLINE uint32_t __UQADD8(uint32_t op1, uint32_t op2)
 168:C:\Users\Depes Crystalline\Desktop\school\Active_Bike_Lighting_System\Radar_Core/Libraries/CMSIS/Include\core_cmSimd.h **** {
 169:C:\Users\Depes Crystalline\Desktop\school\Active_Bike_Lighting_System\Radar_Core/Libraries/CMSIS/Include\core_cmSimd.h ****   uint32_t result;
 170:C:\Users\Depes Crystalline\Desktop\school\Active_Bike_Lighting_System\Radar_Core/Libraries/CMSIS/Include\core_cmSimd.h **** 
 171:C:\Users\Depes Crystalline\Desktop\school\Active_Bike_Lighting_System\Radar_Core/Libraries/CMSIS/Include\core_cmSimd.h ****   __ASM volatile ("uqadd8 %0, %1, %2" : "=r" (result) : "r" (op1), "r" (op2) );
 172:C:\Users\Depes Crystalline\Desktop\school\Active_Bike_Lighting_System\Radar_Core/Libraries/CMSIS/Include\core_cmSimd.h ****   return(result);
 173:C:\Users\Depes Crystalline\Desktop\school\Active_Bike_Lighting_System\Radar_Core/Libraries/CMSIS/Include\core_cmSimd.h **** }
 174:C:\Users\Depes Crystalline\Desktop\school\Active_Bike_Lighting_System\Radar_Core/Libraries/CMSIS/Include\core_cmSimd.h **** 
 175:C:\Users\Depes Crystalline\Desktop\school\Active_Bike_Lighting_System\Radar_Core/Libraries/CMSIS/Include\core_cmSimd.h **** __attribute__( ( always_inline ) ) __STATIC_INLINE uint32_t __UHADD8(uint32_t op1, uint32_t op2)
 176:C:\Users\Depes Crystalline\Desktop\school\Active_Bike_Lighting_System\Radar_Core/Libraries/CMSIS/Include\core_cmSimd.h **** {
 177:C:\Users\Depes Crystalline\Desktop\school\Active_Bike_Lighting_System\Radar_Core/Libraries/CMSIS/Include\core_cmSimd.h ****   uint32_t result;
 178:C:\Users\Depes Crystalline\Desktop\school\Active_Bike_Lighting_System\Radar_Core/Libraries/CMSIS/Include\core_cmSimd.h **** 
 179:C:\Users\Depes Crystalline\Desktop\school\Active_Bike_Lighting_System\Radar_Core/Libraries/CMSIS/Include\core_cmSimd.h ****   __ASM volatile ("uhadd8 %0, %1, %2" : "=r" (result) : "r" (op1), "r" (op2) );
 180:C:\Users\Depes Crystalline\Desktop\school\Active_Bike_Lighting_System\Radar_Core/Libraries/CMSIS/Include\core_cmSimd.h ****   return(result);
 181:C:\Users\Depes Crystalline\Desktop\school\Active_Bike_Lighting_System\Radar_Core/Libraries/CMSIS/Include\core_cmSimd.h **** }
 182:C:\Users\Depes Crystalline\Desktop\school\Active_Bike_Lighting_System\Radar_Core/Libraries/CMSIS/Include\core_cmSimd.h **** 
 183:C:\Users\Depes Crystalline\Desktop\school\Active_Bike_Lighting_System\Radar_Core/Libraries/CMSIS/Include\core_cmSimd.h **** 
 184:C:\Users\Depes Crystalline\Desktop\school\Active_Bike_Lighting_System\Radar_Core/Libraries/CMSIS/Include\core_cmSimd.h **** __attribute__( ( always_inline ) ) __STATIC_INLINE uint32_t __SSUB8(uint32_t op1, uint32_t op2)
 185:C:\Users\Depes Crystalline\Desktop\school\Active_Bike_Lighting_System\Radar_Core/Libraries/CMSIS/Include\core_cmSimd.h **** {
 186:C:\Users\Depes Crystalline\Desktop\school\Active_Bike_Lighting_System\Radar_Core/Libraries/CMSIS/Include\core_cmSimd.h ****   uint32_t result;
 187:C:\Users\Depes Crystalline\Desktop\school\Active_Bike_Lighting_System\Radar_Core/Libraries/CMSIS/Include\core_cmSimd.h **** 
 188:C:\Users\Depes Crystalline\Desktop\school\Active_Bike_Lighting_System\Radar_Core/Libraries/CMSIS/Include\core_cmSimd.h ****   __ASM volatile ("ssub8 %0, %1, %2" : "=r" (result) : "r" (op1), "r" (op2) );
 189:C:\Users\Depes Crystalline\Desktop\school\Active_Bike_Lighting_System\Radar_Core/Libraries/CMSIS/Include\core_cmSimd.h ****   return(result);
 190:C:\Users\Depes Crystalline\Desktop\school\Active_Bike_Lighting_System\Radar_Core/Libraries/CMSIS/Include\core_cmSimd.h **** }
 191:C:\Users\Depes Crystalline\Desktop\school\Active_Bike_Lighting_System\Radar_Core/Libraries/CMSIS/Include\core_cmSimd.h **** 
 192:C:\Users\Depes Crystalline\Desktop\school\Active_Bike_Lighting_System\Radar_Core/Libraries/CMSIS/Include\core_cmSimd.h **** __attribute__( ( always_inline ) ) __STATIC_INLINE uint32_t __QSUB8(uint32_t op1, uint32_t op2)
 193:C:\Users\Depes Crystalline\Desktop\school\Active_Bike_Lighting_System\Radar_Core/Libraries/CMSIS/Include\core_cmSimd.h **** {
 194:C:\Users\Depes Crystalline\Desktop\school\Active_Bike_Lighting_System\Radar_Core/Libraries/CMSIS/Include\core_cmSimd.h ****   uint32_t result;
 195:C:\Users\Depes Crystalline\Desktop\school\Active_Bike_Lighting_System\Radar_Core/Libraries/CMSIS/Include\core_cmSimd.h **** 
 196:C:\Users\Depes Crystalline\Desktop\school\Active_Bike_Lighting_System\Radar_Core/Libraries/CMSIS/Include\core_cmSimd.h ****   __ASM volatile ("qsub8 %0, %1, %2" : "=r" (result) : "r" (op1), "r" (op2) );
 197:C:\Users\Depes Crystalline\Desktop\school\Active_Bike_Lighting_System\Radar_Core/Libraries/CMSIS/Include\core_cmSimd.h ****   return(result);
 198:C:\Users\Depes Crystalline\Desktop\school\Active_Bike_Lighting_System\Radar_Core/Libraries/CMSIS/Include\core_cmSimd.h **** }
 199:C:\Users\Depes Crystalline\Desktop\school\Active_Bike_Lighting_System\Radar_Core/Libraries/CMSIS/Include\core_cmSimd.h **** 
 200:C:\Users\Depes Crystalline\Desktop\school\Active_Bike_Lighting_System\Radar_Core/Libraries/CMSIS/Include\core_cmSimd.h **** __attribute__( ( always_inline ) ) __STATIC_INLINE uint32_t __SHSUB8(uint32_t op1, uint32_t op2)
 201:C:\Users\Depes Crystalline\Desktop\school\Active_Bike_Lighting_System\Radar_Core/Libraries/CMSIS/Include\core_cmSimd.h **** {
 202:C:\Users\Depes Crystalline\Desktop\school\Active_Bike_Lighting_System\Radar_Core/Libraries/CMSIS/Include\core_cmSimd.h ****   uint32_t result;
 203:C:\Users\Depes Crystalline\Desktop\school\Active_Bike_Lighting_System\Radar_Core/Libraries/CMSIS/Include\core_cmSimd.h **** 
 204:C:\Users\Depes Crystalline\Desktop\school\Active_Bike_Lighting_System\Radar_Core/Libraries/CMSIS/Include\core_cmSimd.h ****   __ASM volatile ("shsub8 %0, %1, %2" : "=r" (result) : "r" (op1), "r" (op2) );
 205:C:\Users\Depes Crystalline\Desktop\school\Active_Bike_Lighting_System\Radar_Core/Libraries/CMSIS/Include\core_cmSimd.h ****   return(result);
 206:C:\Users\Depes Crystalline\Desktop\school\Active_Bike_Lighting_System\Radar_Core/Libraries/CMSIS/Include\core_cmSimd.h **** }
 207:C:\Users\Depes Crystalline\Desktop\school\Active_Bike_Lighting_System\Radar_Core/Libraries/CMSIS/Include\core_cmSimd.h **** 
 208:C:\Users\Depes Crystalline\Desktop\school\Active_Bike_Lighting_System\Radar_Core/Libraries/CMSIS/Include\core_cmSimd.h **** __attribute__( ( always_inline ) ) __STATIC_INLINE uint32_t __USUB8(uint32_t op1, uint32_t op2)
 209:C:\Users\Depes Crystalline\Desktop\school\Active_Bike_Lighting_System\Radar_Core/Libraries/CMSIS/Include\core_cmSimd.h **** {
 210:C:\Users\Depes Crystalline\Desktop\school\Active_Bike_Lighting_System\Radar_Core/Libraries/CMSIS/Include\core_cmSimd.h ****   uint32_t result;
 211:C:\Users\Depes Crystalline\Desktop\school\Active_Bike_Lighting_System\Radar_Core/Libraries/CMSIS/Include\core_cmSimd.h **** 
 212:C:\Users\Depes Crystalline\Desktop\school\Active_Bike_Lighting_System\Radar_Core/Libraries/CMSIS/Include\core_cmSimd.h ****   __ASM volatile ("usub8 %0, %1, %2" : "=r" (result) : "r" (op1), "r" (op2) );
 213:C:\Users\Depes Crystalline\Desktop\school\Active_Bike_Lighting_System\Radar_Core/Libraries/CMSIS/Include\core_cmSimd.h ****   return(result);
 214:C:\Users\Depes Crystalline\Desktop\school\Active_Bike_Lighting_System\Radar_Core/Libraries/CMSIS/Include\core_cmSimd.h **** }
 215:C:\Users\Depes Crystalline\Desktop\school\Active_Bike_Lighting_System\Radar_Core/Libraries/CMSIS/Include\core_cmSimd.h **** 
 216:C:\Users\Depes Crystalline\Desktop\school\Active_Bike_Lighting_System\Radar_Core/Libraries/CMSIS/Include\core_cmSimd.h **** __attribute__( ( always_inline ) ) __STATIC_INLINE uint32_t __UQSUB8(uint32_t op1, uint32_t op2)
 217:C:\Users\Depes Crystalline\Desktop\school\Active_Bike_Lighting_System\Radar_Core/Libraries/CMSIS/Include\core_cmSimd.h **** {
 218:C:\Users\Depes Crystalline\Desktop\school\Active_Bike_Lighting_System\Radar_Core/Libraries/CMSIS/Include\core_cmSimd.h ****   uint32_t result;
 219:C:\Users\Depes Crystalline\Desktop\school\Active_Bike_Lighting_System\Radar_Core/Libraries/CMSIS/Include\core_cmSimd.h **** 
 220:C:\Users\Depes Crystalline\Desktop\school\Active_Bike_Lighting_System\Radar_Core/Libraries/CMSIS/Include\core_cmSimd.h ****   __ASM volatile ("uqsub8 %0, %1, %2" : "=r" (result) : "r" (op1), "r" (op2) );
 221:C:\Users\Depes Crystalline\Desktop\school\Active_Bike_Lighting_System\Radar_Core/Libraries/CMSIS/Include\core_cmSimd.h ****   return(result);
 222:C:\Users\Depes Crystalline\Desktop\school\Active_Bike_Lighting_System\Radar_Core/Libraries/CMSIS/Include\core_cmSimd.h **** }
 223:C:\Users\Depes Crystalline\Desktop\school\Active_Bike_Lighting_System\Radar_Core/Libraries/CMSIS/Include\core_cmSimd.h **** 
 224:C:\Users\Depes Crystalline\Desktop\school\Active_Bike_Lighting_System\Radar_Core/Libraries/CMSIS/Include\core_cmSimd.h **** __attribute__( ( always_inline ) ) __STATIC_INLINE uint32_t __UHSUB8(uint32_t op1, uint32_t op2)
 225:C:\Users\Depes Crystalline\Desktop\school\Active_Bike_Lighting_System\Radar_Core/Libraries/CMSIS/Include\core_cmSimd.h **** {
 226:C:\Users\Depes Crystalline\Desktop\school\Active_Bike_Lighting_System\Radar_Core/Libraries/CMSIS/Include\core_cmSimd.h ****   uint32_t result;
 227:C:\Users\Depes Crystalline\Desktop\school\Active_Bike_Lighting_System\Radar_Core/Libraries/CMSIS/Include\core_cmSimd.h **** 
 228:C:\Users\Depes Crystalline\Desktop\school\Active_Bike_Lighting_System\Radar_Core/Libraries/CMSIS/Include\core_cmSimd.h ****   __ASM volatile ("uhsub8 %0, %1, %2" : "=r" (result) : "r" (op1), "r" (op2) );
 229:C:\Users\Depes Crystalline\Desktop\school\Active_Bike_Lighting_System\Radar_Core/Libraries/CMSIS/Include\core_cmSimd.h ****   return(result);
 230:C:\Users\Depes Crystalline\Desktop\school\Active_Bike_Lighting_System\Radar_Core/Libraries/CMSIS/Include\core_cmSimd.h **** }
 231:C:\Users\Depes Crystalline\Desktop\school\Active_Bike_Lighting_System\Radar_Core/Libraries/CMSIS/Include\core_cmSimd.h **** 
 232:C:\Users\Depes Crystalline\Desktop\school\Active_Bike_Lighting_System\Radar_Core/Libraries/CMSIS/Include\core_cmSimd.h **** 
 233:C:\Users\Depes Crystalline\Desktop\school\Active_Bike_Lighting_System\Radar_Core/Libraries/CMSIS/Include\core_cmSimd.h **** __attribute__( ( always_inline ) ) __STATIC_INLINE uint32_t __SADD16(uint32_t op1, uint32_t op2)
 234:C:\Users\Depes Crystalline\Desktop\school\Active_Bike_Lighting_System\Radar_Core/Libraries/CMSIS/Include\core_cmSimd.h **** {
 235:C:\Users\Depes Crystalline\Desktop\school\Active_Bike_Lighting_System\Radar_Core/Libraries/CMSIS/Include\core_cmSimd.h ****   uint32_t result;
 236:C:\Users\Depes Crystalline\Desktop\school\Active_Bike_Lighting_System\Radar_Core/Libraries/CMSIS/Include\core_cmSimd.h **** 
 237:C:\Users\Depes Crystalline\Desktop\school\Active_Bike_Lighting_System\Radar_Core/Libraries/CMSIS/Include\core_cmSimd.h ****   __ASM volatile ("sadd16 %0, %1, %2" : "=r" (result) : "r" (op1), "r" (op2) );
 238:C:\Users\Depes Crystalline\Desktop\school\Active_Bike_Lighting_System\Radar_Core/Libraries/CMSIS/Include\core_cmSimd.h ****   return(result);
 239:C:\Users\Depes Crystalline\Desktop\school\Active_Bike_Lighting_System\Radar_Core/Libraries/CMSIS/Include\core_cmSimd.h **** }
 240:C:\Users\Depes Crystalline\Desktop\school\Active_Bike_Lighting_System\Radar_Core/Libraries/CMSIS/Include\core_cmSimd.h **** 
 241:C:\Users\Depes Crystalline\Desktop\school\Active_Bike_Lighting_System\Radar_Core/Libraries/CMSIS/Include\core_cmSimd.h **** __attribute__( ( always_inline ) ) __STATIC_INLINE uint32_t __QADD16(uint32_t op1, uint32_t op2)
 242:C:\Users\Depes Crystalline\Desktop\school\Active_Bike_Lighting_System\Radar_Core/Libraries/CMSIS/Include\core_cmSimd.h **** {
 243:C:\Users\Depes Crystalline\Desktop\school\Active_Bike_Lighting_System\Radar_Core/Libraries/CMSIS/Include\core_cmSimd.h ****   uint32_t result;
 244:C:\Users\Depes Crystalline\Desktop\school\Active_Bike_Lighting_System\Radar_Core/Libraries/CMSIS/Include\core_cmSimd.h **** 
 245:C:\Users\Depes Crystalline\Desktop\school\Active_Bike_Lighting_System\Radar_Core/Libraries/CMSIS/Include\core_cmSimd.h ****   __ASM volatile ("qadd16 %0, %1, %2" : "=r" (result) : "r" (op1), "r" (op2) );
 246:C:\Users\Depes Crystalline\Desktop\school\Active_Bike_Lighting_System\Radar_Core/Libraries/CMSIS/Include\core_cmSimd.h ****   return(result);
 247:C:\Users\Depes Crystalline\Desktop\school\Active_Bike_Lighting_System\Radar_Core/Libraries/CMSIS/Include\core_cmSimd.h **** }
 248:C:\Users\Depes Crystalline\Desktop\school\Active_Bike_Lighting_System\Radar_Core/Libraries/CMSIS/Include\core_cmSimd.h **** 
 249:C:\Users\Depes Crystalline\Desktop\school\Active_Bike_Lighting_System\Radar_Core/Libraries/CMSIS/Include\core_cmSimd.h **** __attribute__( ( always_inline ) ) __STATIC_INLINE uint32_t __SHADD16(uint32_t op1, uint32_t op2)
 250:C:\Users\Depes Crystalline\Desktop\school\Active_Bike_Lighting_System\Radar_Core/Libraries/CMSIS/Include\core_cmSimd.h **** {
 251:C:\Users\Depes Crystalline\Desktop\school\Active_Bike_Lighting_System\Radar_Core/Libraries/CMSIS/Include\core_cmSimd.h ****   uint32_t result;
 252:C:\Users\Depes Crystalline\Desktop\school\Active_Bike_Lighting_System\Radar_Core/Libraries/CMSIS/Include\core_cmSimd.h **** 
 253:C:\Users\Depes Crystalline\Desktop\school\Active_Bike_Lighting_System\Radar_Core/Libraries/CMSIS/Include\core_cmSimd.h ****   __ASM volatile ("shadd16 %0, %1, %2" : "=r" (result) : "r" (op1), "r" (op2) );
 254:C:\Users\Depes Crystalline\Desktop\school\Active_Bike_Lighting_System\Radar_Core/Libraries/CMSIS/Include\core_cmSimd.h ****   return(result);
 255:C:\Users\Depes Crystalline\Desktop\school\Active_Bike_Lighting_System\Radar_Core/Libraries/CMSIS/Include\core_cmSimd.h **** }
 256:C:\Users\Depes Crystalline\Desktop\school\Active_Bike_Lighting_System\Radar_Core/Libraries/CMSIS/Include\core_cmSimd.h **** 
 257:C:\Users\Depes Crystalline\Desktop\school\Active_Bike_Lighting_System\Radar_Core/Libraries/CMSIS/Include\core_cmSimd.h **** __attribute__( ( always_inline ) ) __STATIC_INLINE uint32_t __UADD16(uint32_t op1, uint32_t op2)
 258:C:\Users\Depes Crystalline\Desktop\school\Active_Bike_Lighting_System\Radar_Core/Libraries/CMSIS/Include\core_cmSimd.h **** {
 259:C:\Users\Depes Crystalline\Desktop\school\Active_Bike_Lighting_System\Radar_Core/Libraries/CMSIS/Include\core_cmSimd.h ****   uint32_t result;
 260:C:\Users\Depes Crystalline\Desktop\school\Active_Bike_Lighting_System\Radar_Core/Libraries/CMSIS/Include\core_cmSimd.h **** 
 261:C:\Users\Depes Crystalline\Desktop\school\Active_Bike_Lighting_System\Radar_Core/Libraries/CMSIS/Include\core_cmSimd.h ****   __ASM volatile ("uadd16 %0, %1, %2" : "=r" (result) : "r" (op1), "r" (op2) );
 262:C:\Users\Depes Crystalline\Desktop\school\Active_Bike_Lighting_System\Radar_Core/Libraries/CMSIS/Include\core_cmSimd.h ****   return(result);
 263:C:\Users\Depes Crystalline\Desktop\school\Active_Bike_Lighting_System\Radar_Core/Libraries/CMSIS/Include\core_cmSimd.h **** }
 264:C:\Users\Depes Crystalline\Desktop\school\Active_Bike_Lighting_System\Radar_Core/Libraries/CMSIS/Include\core_cmSimd.h **** 
 265:C:\Users\Depes Crystalline\Desktop\school\Active_Bike_Lighting_System\Radar_Core/Libraries/CMSIS/Include\core_cmSimd.h **** __attribute__( ( always_inline ) ) __STATIC_INLINE uint32_t __UQADD16(uint32_t op1, uint32_t op2)
 266:C:\Users\Depes Crystalline\Desktop\school\Active_Bike_Lighting_System\Radar_Core/Libraries/CMSIS/Include\core_cmSimd.h **** {
 267:C:\Users\Depes Crystalline\Desktop\school\Active_Bike_Lighting_System\Radar_Core/Libraries/CMSIS/Include\core_cmSimd.h ****   uint32_t result;
 268:C:\Users\Depes Crystalline\Desktop\school\Active_Bike_Lighting_System\Radar_Core/Libraries/CMSIS/Include\core_cmSimd.h **** 
 269:C:\Users\Depes Crystalline\Desktop\school\Active_Bike_Lighting_System\Radar_Core/Libraries/CMSIS/Include\core_cmSimd.h ****   __ASM volatile ("uqadd16 %0, %1, %2" : "=r" (result) : "r" (op1), "r" (op2) );
 270:C:\Users\Depes Crystalline\Desktop\school\Active_Bike_Lighting_System\Radar_Core/Libraries/CMSIS/Include\core_cmSimd.h ****   return(result);
 271:C:\Users\Depes Crystalline\Desktop\school\Active_Bike_Lighting_System\Radar_Core/Libraries/CMSIS/Include\core_cmSimd.h **** }
 272:C:\Users\Depes Crystalline\Desktop\school\Active_Bike_Lighting_System\Radar_Core/Libraries/CMSIS/Include\core_cmSimd.h **** 
 273:C:\Users\Depes Crystalline\Desktop\school\Active_Bike_Lighting_System\Radar_Core/Libraries/CMSIS/Include\core_cmSimd.h **** __attribute__( ( always_inline ) ) __STATIC_INLINE uint32_t __UHADD16(uint32_t op1, uint32_t op2)
 274:C:\Users\Depes Crystalline\Desktop\school\Active_Bike_Lighting_System\Radar_Core/Libraries/CMSIS/Include\core_cmSimd.h **** {
 275:C:\Users\Depes Crystalline\Desktop\school\Active_Bike_Lighting_System\Radar_Core/Libraries/CMSIS/Include\core_cmSimd.h ****   uint32_t result;
 276:C:\Users\Depes Crystalline\Desktop\school\Active_Bike_Lighting_System\Radar_Core/Libraries/CMSIS/Include\core_cmSimd.h **** 
 277:C:\Users\Depes Crystalline\Desktop\school\Active_Bike_Lighting_System\Radar_Core/Libraries/CMSIS/Include\core_cmSimd.h ****   __ASM volatile ("uhadd16 %0, %1, %2" : "=r" (result) : "r" (op1), "r" (op2) );
 278:C:\Users\Depes Crystalline\Desktop\school\Active_Bike_Lighting_System\Radar_Core/Libraries/CMSIS/Include\core_cmSimd.h ****   return(result);
 279:C:\Users\Depes Crystalline\Desktop\school\Active_Bike_Lighting_System\Radar_Core/Libraries/CMSIS/Include\core_cmSimd.h **** }
 280:C:\Users\Depes Crystalline\Desktop\school\Active_Bike_Lighting_System\Radar_Core/Libraries/CMSIS/Include\core_cmSimd.h **** 
 281:C:\Users\Depes Crystalline\Desktop\school\Active_Bike_Lighting_System\Radar_Core/Libraries/CMSIS/Include\core_cmSimd.h **** __attribute__( ( always_inline ) ) __STATIC_INLINE uint32_t __SSUB16(uint32_t op1, uint32_t op2)
 282:C:\Users\Depes Crystalline\Desktop\school\Active_Bike_Lighting_System\Radar_Core/Libraries/CMSIS/Include\core_cmSimd.h **** {
 283:C:\Users\Depes Crystalline\Desktop\school\Active_Bike_Lighting_System\Radar_Core/Libraries/CMSIS/Include\core_cmSimd.h ****   uint32_t result;
 284:C:\Users\Depes Crystalline\Desktop\school\Active_Bike_Lighting_System\Radar_Core/Libraries/CMSIS/Include\core_cmSimd.h **** 
 285:C:\Users\Depes Crystalline\Desktop\school\Active_Bike_Lighting_System\Radar_Core/Libraries/CMSIS/Include\core_cmSimd.h ****   __ASM volatile ("ssub16 %0, %1, %2" : "=r" (result) : "r" (op1), "r" (op2) );
 286:C:\Users\Depes Crystalline\Desktop\school\Active_Bike_Lighting_System\Radar_Core/Libraries/CMSIS/Include\core_cmSimd.h ****   return(result);
 287:C:\Users\Depes Crystalline\Desktop\school\Active_Bike_Lighting_System\Radar_Core/Libraries/CMSIS/Include\core_cmSimd.h **** }
 288:C:\Users\Depes Crystalline\Desktop\school\Active_Bike_Lighting_System\Radar_Core/Libraries/CMSIS/Include\core_cmSimd.h **** 
 289:C:\Users\Depes Crystalline\Desktop\school\Active_Bike_Lighting_System\Radar_Core/Libraries/CMSIS/Include\core_cmSimd.h **** __attribute__( ( always_inline ) ) __STATIC_INLINE uint32_t __QSUB16(uint32_t op1, uint32_t op2)
 290:C:\Users\Depes Crystalline\Desktop\school\Active_Bike_Lighting_System\Radar_Core/Libraries/CMSIS/Include\core_cmSimd.h **** {
 291:C:\Users\Depes Crystalline\Desktop\school\Active_Bike_Lighting_System\Radar_Core/Libraries/CMSIS/Include\core_cmSimd.h ****   uint32_t result;
 292:C:\Users\Depes Crystalline\Desktop\school\Active_Bike_Lighting_System\Radar_Core/Libraries/CMSIS/Include\core_cmSimd.h **** 
 293:C:\Users\Depes Crystalline\Desktop\school\Active_Bike_Lighting_System\Radar_Core/Libraries/CMSIS/Include\core_cmSimd.h ****   __ASM volatile ("qsub16 %0, %1, %2" : "=r" (result) : "r" (op1), "r" (op2) );
 294:C:\Users\Depes Crystalline\Desktop\school\Active_Bike_Lighting_System\Radar_Core/Libraries/CMSIS/Include\core_cmSimd.h ****   return(result);
 295:C:\Users\Depes Crystalline\Desktop\school\Active_Bike_Lighting_System\Radar_Core/Libraries/CMSIS/Include\core_cmSimd.h **** }
 296:C:\Users\Depes Crystalline\Desktop\school\Active_Bike_Lighting_System\Radar_Core/Libraries/CMSIS/Include\core_cmSimd.h **** 
 297:C:\Users\Depes Crystalline\Desktop\school\Active_Bike_Lighting_System\Radar_Core/Libraries/CMSIS/Include\core_cmSimd.h **** __attribute__( ( always_inline ) ) __STATIC_INLINE uint32_t __SHSUB16(uint32_t op1, uint32_t op2)
 298:C:\Users\Depes Crystalline\Desktop\school\Active_Bike_Lighting_System\Radar_Core/Libraries/CMSIS/Include\core_cmSimd.h **** {
 299:C:\Users\Depes Crystalline\Desktop\school\Active_Bike_Lighting_System\Radar_Core/Libraries/CMSIS/Include\core_cmSimd.h ****   uint32_t result;
 300:C:\Users\Depes Crystalline\Desktop\school\Active_Bike_Lighting_System\Radar_Core/Libraries/CMSIS/Include\core_cmSimd.h **** 
 301:C:\Users\Depes Crystalline\Desktop\school\Active_Bike_Lighting_System\Radar_Core/Libraries/CMSIS/Include\core_cmSimd.h ****   __ASM volatile ("shsub16 %0, %1, %2" : "=r" (result) : "r" (op1), "r" (op2) );
 302:C:\Users\Depes Crystalline\Desktop\school\Active_Bike_Lighting_System\Radar_Core/Libraries/CMSIS/Include\core_cmSimd.h ****   return(result);
 303:C:\Users\Depes Crystalline\Desktop\school\Active_Bike_Lighting_System\Radar_Core/Libraries/CMSIS/Include\core_cmSimd.h **** }
 304:C:\Users\Depes Crystalline\Desktop\school\Active_Bike_Lighting_System\Radar_Core/Libraries/CMSIS/Include\core_cmSimd.h **** 
 305:C:\Users\Depes Crystalline\Desktop\school\Active_Bike_Lighting_System\Radar_Core/Libraries/CMSIS/Include\core_cmSimd.h **** __attribute__( ( always_inline ) ) __STATIC_INLINE uint32_t __USUB16(uint32_t op1, uint32_t op2)
 306:C:\Users\Depes Crystalline\Desktop\school\Active_Bike_Lighting_System\Radar_Core/Libraries/CMSIS/Include\core_cmSimd.h **** {
 307:C:\Users\Depes Crystalline\Desktop\school\Active_Bike_Lighting_System\Radar_Core/Libraries/CMSIS/Include\core_cmSimd.h ****   uint32_t result;
 308:C:\Users\Depes Crystalline\Desktop\school\Active_Bike_Lighting_System\Radar_Core/Libraries/CMSIS/Include\core_cmSimd.h **** 
 309:C:\Users\Depes Crystalline\Desktop\school\Active_Bike_Lighting_System\Radar_Core/Libraries/CMSIS/Include\core_cmSimd.h ****   __ASM volatile ("usub16 %0, %1, %2" : "=r" (result) : "r" (op1), "r" (op2) );
 310:C:\Users\Depes Crystalline\Desktop\school\Active_Bike_Lighting_System\Radar_Core/Libraries/CMSIS/Include\core_cmSimd.h ****   return(result);
 311:C:\Users\Depes Crystalline\Desktop\school\Active_Bike_Lighting_System\Radar_Core/Libraries/CMSIS/Include\core_cmSimd.h **** }
 312:C:\Users\Depes Crystalline\Desktop\school\Active_Bike_Lighting_System\Radar_Core/Libraries/CMSIS/Include\core_cmSimd.h **** 
 313:C:\Users\Depes Crystalline\Desktop\school\Active_Bike_Lighting_System\Radar_Core/Libraries/CMSIS/Include\core_cmSimd.h **** __attribute__( ( always_inline ) ) __STATIC_INLINE uint32_t __UQSUB16(uint32_t op1, uint32_t op2)
 314:C:\Users\Depes Crystalline\Desktop\school\Active_Bike_Lighting_System\Radar_Core/Libraries/CMSIS/Include\core_cmSimd.h **** {
 315:C:\Users\Depes Crystalline\Desktop\school\Active_Bike_Lighting_System\Radar_Core/Libraries/CMSIS/Include\core_cmSimd.h ****   uint32_t result;
 316:C:\Users\Depes Crystalline\Desktop\school\Active_Bike_Lighting_System\Radar_Core/Libraries/CMSIS/Include\core_cmSimd.h **** 
 317:C:\Users\Depes Crystalline\Desktop\school\Active_Bike_Lighting_System\Radar_Core/Libraries/CMSIS/Include\core_cmSimd.h ****   __ASM volatile ("uqsub16 %0, %1, %2" : "=r" (result) : "r" (op1), "r" (op2) );
 318:C:\Users\Depes Crystalline\Desktop\school\Active_Bike_Lighting_System\Radar_Core/Libraries/CMSIS/Include\core_cmSimd.h ****   return(result);
 319:C:\Users\Depes Crystalline\Desktop\school\Active_Bike_Lighting_System\Radar_Core/Libraries/CMSIS/Include\core_cmSimd.h **** }
 320:C:\Users\Depes Crystalline\Desktop\school\Active_Bike_Lighting_System\Radar_Core/Libraries/CMSIS/Include\core_cmSimd.h **** 
 321:C:\Users\Depes Crystalline\Desktop\school\Active_Bike_Lighting_System\Radar_Core/Libraries/CMSIS/Include\core_cmSimd.h **** __attribute__( ( always_inline ) ) __STATIC_INLINE uint32_t __UHSUB16(uint32_t op1, uint32_t op2)
 322:C:\Users\Depes Crystalline\Desktop\school\Active_Bike_Lighting_System\Radar_Core/Libraries/CMSIS/Include\core_cmSimd.h **** {
 323:C:\Users\Depes Crystalline\Desktop\school\Active_Bike_Lighting_System\Radar_Core/Libraries/CMSIS/Include\core_cmSimd.h ****   uint32_t result;
 324:C:\Users\Depes Crystalline\Desktop\school\Active_Bike_Lighting_System\Radar_Core/Libraries/CMSIS/Include\core_cmSimd.h **** 
 325:C:\Users\Depes Crystalline\Desktop\school\Active_Bike_Lighting_System\Radar_Core/Libraries/CMSIS/Include\core_cmSimd.h ****   __ASM volatile ("uhsub16 %0, %1, %2" : "=r" (result) : "r" (op1), "r" (op2) );
 326:C:\Users\Depes Crystalline\Desktop\school\Active_Bike_Lighting_System\Radar_Core/Libraries/CMSIS/Include\core_cmSimd.h ****   return(result);
 327:C:\Users\Depes Crystalline\Desktop\school\Active_Bike_Lighting_System\Radar_Core/Libraries/CMSIS/Include\core_cmSimd.h **** }
 328:C:\Users\Depes Crystalline\Desktop\school\Active_Bike_Lighting_System\Radar_Core/Libraries/CMSIS/Include\core_cmSimd.h **** 
 329:C:\Users\Depes Crystalline\Desktop\school\Active_Bike_Lighting_System\Radar_Core/Libraries/CMSIS/Include\core_cmSimd.h **** __attribute__( ( always_inline ) ) __STATIC_INLINE uint32_t __SASX(uint32_t op1, uint32_t op2)
 330:C:\Users\Depes Crystalline\Desktop\school\Active_Bike_Lighting_System\Radar_Core/Libraries/CMSIS/Include\core_cmSimd.h **** {
 331:C:\Users\Depes Crystalline\Desktop\school\Active_Bike_Lighting_System\Radar_Core/Libraries/CMSIS/Include\core_cmSimd.h ****   uint32_t result;
 332:C:\Users\Depes Crystalline\Desktop\school\Active_Bike_Lighting_System\Radar_Core/Libraries/CMSIS/Include\core_cmSimd.h **** 
 333:C:\Users\Depes Crystalline\Desktop\school\Active_Bike_Lighting_System\Radar_Core/Libraries/CMSIS/Include\core_cmSimd.h ****   __ASM volatile ("sasx %0, %1, %2" : "=r" (result) : "r" (op1), "r" (op2) );
 334:C:\Users\Depes Crystalline\Desktop\school\Active_Bike_Lighting_System\Radar_Core/Libraries/CMSIS/Include\core_cmSimd.h ****   return(result);
 335:C:\Users\Depes Crystalline\Desktop\school\Active_Bike_Lighting_System\Radar_Core/Libraries/CMSIS/Include\core_cmSimd.h **** }
 336:C:\Users\Depes Crystalline\Desktop\school\Active_Bike_Lighting_System\Radar_Core/Libraries/CMSIS/Include\core_cmSimd.h **** 
 337:C:\Users\Depes Crystalline\Desktop\school\Active_Bike_Lighting_System\Radar_Core/Libraries/CMSIS/Include\core_cmSimd.h **** __attribute__( ( always_inline ) ) __STATIC_INLINE uint32_t __QASX(uint32_t op1, uint32_t op2)
 338:C:\Users\Depes Crystalline\Desktop\school\Active_Bike_Lighting_System\Radar_Core/Libraries/CMSIS/Include\core_cmSimd.h **** {
 339:C:\Users\Depes Crystalline\Desktop\school\Active_Bike_Lighting_System\Radar_Core/Libraries/CMSIS/Include\core_cmSimd.h ****   uint32_t result;
 340:C:\Users\Depes Crystalline\Desktop\school\Active_Bike_Lighting_System\Radar_Core/Libraries/CMSIS/Include\core_cmSimd.h **** 
 341:C:\Users\Depes Crystalline\Desktop\school\Active_Bike_Lighting_System\Radar_Core/Libraries/CMSIS/Include\core_cmSimd.h ****   __ASM volatile ("qasx %0, %1, %2" : "=r" (result) : "r" (op1), "r" (op2) );
 342:C:\Users\Depes Crystalline\Desktop\school\Active_Bike_Lighting_System\Radar_Core/Libraries/CMSIS/Include\core_cmSimd.h ****   return(result);
 343:C:\Users\Depes Crystalline\Desktop\school\Active_Bike_Lighting_System\Radar_Core/Libraries/CMSIS/Include\core_cmSimd.h **** }
 344:C:\Users\Depes Crystalline\Desktop\school\Active_Bike_Lighting_System\Radar_Core/Libraries/CMSIS/Include\core_cmSimd.h **** 
 345:C:\Users\Depes Crystalline\Desktop\school\Active_Bike_Lighting_System\Radar_Core/Libraries/CMSIS/Include\core_cmSimd.h **** __attribute__( ( always_inline ) ) __STATIC_INLINE uint32_t __SHASX(uint32_t op1, uint32_t op2)
 346:C:\Users\Depes Crystalline\Desktop\school\Active_Bike_Lighting_System\Radar_Core/Libraries/CMSIS/Include\core_cmSimd.h **** {
 347:C:\Users\Depes Crystalline\Desktop\school\Active_Bike_Lighting_System\Radar_Core/Libraries/CMSIS/Include\core_cmSimd.h ****   uint32_t result;
 348:C:\Users\Depes Crystalline\Desktop\school\Active_Bike_Lighting_System\Radar_Core/Libraries/CMSIS/Include\core_cmSimd.h **** 
 349:C:\Users\Depes Crystalline\Desktop\school\Active_Bike_Lighting_System\Radar_Core/Libraries/CMSIS/Include\core_cmSimd.h ****   __ASM volatile ("shasx %0, %1, %2" : "=r" (result) : "r" (op1), "r" (op2) );
 350:C:\Users\Depes Crystalline\Desktop\school\Active_Bike_Lighting_System\Radar_Core/Libraries/CMSIS/Include\core_cmSimd.h ****   return(result);
 351:C:\Users\Depes Crystalline\Desktop\school\Active_Bike_Lighting_System\Radar_Core/Libraries/CMSIS/Include\core_cmSimd.h **** }
 352:C:\Users\Depes Crystalline\Desktop\school\Active_Bike_Lighting_System\Radar_Core/Libraries/CMSIS/Include\core_cmSimd.h **** 
 353:C:\Users\Depes Crystalline\Desktop\school\Active_Bike_Lighting_System\Radar_Core/Libraries/CMSIS/Include\core_cmSimd.h **** __attribute__( ( always_inline ) ) __STATIC_INLINE uint32_t __UASX(uint32_t op1, uint32_t op2)
 354:C:\Users\Depes Crystalline\Desktop\school\Active_Bike_Lighting_System\Radar_Core/Libraries/CMSIS/Include\core_cmSimd.h **** {
 355:C:\Users\Depes Crystalline\Desktop\school\Active_Bike_Lighting_System\Radar_Core/Libraries/CMSIS/Include\core_cmSimd.h ****   uint32_t result;
 356:C:\Users\Depes Crystalline\Desktop\school\Active_Bike_Lighting_System\Radar_Core/Libraries/CMSIS/Include\core_cmSimd.h **** 
 357:C:\Users\Depes Crystalline\Desktop\school\Active_Bike_Lighting_System\Radar_Core/Libraries/CMSIS/Include\core_cmSimd.h ****   __ASM volatile ("uasx %0, %1, %2" : "=r" (result) : "r" (op1), "r" (op2) );
 358:C:\Users\Depes Crystalline\Desktop\school\Active_Bike_Lighting_System\Radar_Core/Libraries/CMSIS/Include\core_cmSimd.h ****   return(result);
 359:C:\Users\Depes Crystalline\Desktop\school\Active_Bike_Lighting_System\Radar_Core/Libraries/CMSIS/Include\core_cmSimd.h **** }
 360:C:\Users\Depes Crystalline\Desktop\school\Active_Bike_Lighting_System\Radar_Core/Libraries/CMSIS/Include\core_cmSimd.h **** 
 361:C:\Users\Depes Crystalline\Desktop\school\Active_Bike_Lighting_System\Radar_Core/Libraries/CMSIS/Include\core_cmSimd.h **** __attribute__( ( always_inline ) ) __STATIC_INLINE uint32_t __UQASX(uint32_t op1, uint32_t op2)
 362:C:\Users\Depes Crystalline\Desktop\school\Active_Bike_Lighting_System\Radar_Core/Libraries/CMSIS/Include\core_cmSimd.h **** {
 363:C:\Users\Depes Crystalline\Desktop\school\Active_Bike_Lighting_System\Radar_Core/Libraries/CMSIS/Include\core_cmSimd.h ****   uint32_t result;
 364:C:\Users\Depes Crystalline\Desktop\school\Active_Bike_Lighting_System\Radar_Core/Libraries/CMSIS/Include\core_cmSimd.h **** 
 365:C:\Users\Depes Crystalline\Desktop\school\Active_Bike_Lighting_System\Radar_Core/Libraries/CMSIS/Include\core_cmSimd.h ****   __ASM volatile ("uqasx %0, %1, %2" : "=r" (result) : "r" (op1), "r" (op2) );
 366:C:\Users\Depes Crystalline\Desktop\school\Active_Bike_Lighting_System\Radar_Core/Libraries/CMSIS/Include\core_cmSimd.h ****   return(result);
 367:C:\Users\Depes Crystalline\Desktop\school\Active_Bike_Lighting_System\Radar_Core/Libraries/CMSIS/Include\core_cmSimd.h **** }
 368:C:\Users\Depes Crystalline\Desktop\school\Active_Bike_Lighting_System\Radar_Core/Libraries/CMSIS/Include\core_cmSimd.h **** 
 369:C:\Users\Depes Crystalline\Desktop\school\Active_Bike_Lighting_System\Radar_Core/Libraries/CMSIS/Include\core_cmSimd.h **** __attribute__( ( always_inline ) ) __STATIC_INLINE uint32_t __UHASX(uint32_t op1, uint32_t op2)
 370:C:\Users\Depes Crystalline\Desktop\school\Active_Bike_Lighting_System\Radar_Core/Libraries/CMSIS/Include\core_cmSimd.h **** {
 371:C:\Users\Depes Crystalline\Desktop\school\Active_Bike_Lighting_System\Radar_Core/Libraries/CMSIS/Include\core_cmSimd.h ****   uint32_t result;
 372:C:\Users\Depes Crystalline\Desktop\school\Active_Bike_Lighting_System\Radar_Core/Libraries/CMSIS/Include\core_cmSimd.h **** 
 373:C:\Users\Depes Crystalline\Desktop\school\Active_Bike_Lighting_System\Radar_Core/Libraries/CMSIS/Include\core_cmSimd.h ****   __ASM volatile ("uhasx %0, %1, %2" : "=r" (result) : "r" (op1), "r" (op2) );
 374:C:\Users\Depes Crystalline\Desktop\school\Active_Bike_Lighting_System\Radar_Core/Libraries/CMSIS/Include\core_cmSimd.h ****   return(result);
 375:C:\Users\Depes Crystalline\Desktop\school\Active_Bike_Lighting_System\Radar_Core/Libraries/CMSIS/Include\core_cmSimd.h **** }
 376:C:\Users\Depes Crystalline\Desktop\school\Active_Bike_Lighting_System\Radar_Core/Libraries/CMSIS/Include\core_cmSimd.h **** 
 377:C:\Users\Depes Crystalline\Desktop\school\Active_Bike_Lighting_System\Radar_Core/Libraries/CMSIS/Include\core_cmSimd.h **** __attribute__( ( always_inline ) ) __STATIC_INLINE uint32_t __SSAX(uint32_t op1, uint32_t op2)
 378:C:\Users\Depes Crystalline\Desktop\school\Active_Bike_Lighting_System\Radar_Core/Libraries/CMSIS/Include\core_cmSimd.h **** {
 379:C:\Users\Depes Crystalline\Desktop\school\Active_Bike_Lighting_System\Radar_Core/Libraries/CMSIS/Include\core_cmSimd.h ****   uint32_t result;
 380:C:\Users\Depes Crystalline\Desktop\school\Active_Bike_Lighting_System\Radar_Core/Libraries/CMSIS/Include\core_cmSimd.h **** 
 381:C:\Users\Depes Crystalline\Desktop\school\Active_Bike_Lighting_System\Radar_Core/Libraries/CMSIS/Include\core_cmSimd.h ****   __ASM volatile ("ssax %0, %1, %2" : "=r" (result) : "r" (op1), "r" (op2) );
 382:C:\Users\Depes Crystalline\Desktop\school\Active_Bike_Lighting_System\Radar_Core/Libraries/CMSIS/Include\core_cmSimd.h ****   return(result);
 383:C:\Users\Depes Crystalline\Desktop\school\Active_Bike_Lighting_System\Radar_Core/Libraries/CMSIS/Include\core_cmSimd.h **** }
 384:C:\Users\Depes Crystalline\Desktop\school\Active_Bike_Lighting_System\Radar_Core/Libraries/CMSIS/Include\core_cmSimd.h **** 
 385:C:\Users\Depes Crystalline\Desktop\school\Active_Bike_Lighting_System\Radar_Core/Libraries/CMSIS/Include\core_cmSimd.h **** __attribute__( ( always_inline ) ) __STATIC_INLINE uint32_t __QSAX(uint32_t op1, uint32_t op2)
 386:C:\Users\Depes Crystalline\Desktop\school\Active_Bike_Lighting_System\Radar_Core/Libraries/CMSIS/Include\core_cmSimd.h **** {
 387:C:\Users\Depes Crystalline\Desktop\school\Active_Bike_Lighting_System\Radar_Core/Libraries/CMSIS/Include\core_cmSimd.h ****   uint32_t result;
 388:C:\Users\Depes Crystalline\Desktop\school\Active_Bike_Lighting_System\Radar_Core/Libraries/CMSIS/Include\core_cmSimd.h **** 
 389:C:\Users\Depes Crystalline\Desktop\school\Active_Bike_Lighting_System\Radar_Core/Libraries/CMSIS/Include\core_cmSimd.h ****   __ASM volatile ("qsax %0, %1, %2" : "=r" (result) : "r" (op1), "r" (op2) );
 390:C:\Users\Depes Crystalline\Desktop\school\Active_Bike_Lighting_System\Radar_Core/Libraries/CMSIS/Include\core_cmSimd.h ****   return(result);
 391:C:\Users\Depes Crystalline\Desktop\school\Active_Bike_Lighting_System\Radar_Core/Libraries/CMSIS/Include\core_cmSimd.h **** }
 392:C:\Users\Depes Crystalline\Desktop\school\Active_Bike_Lighting_System\Radar_Core/Libraries/CMSIS/Include\core_cmSimd.h **** 
 393:C:\Users\Depes Crystalline\Desktop\school\Active_Bike_Lighting_System\Radar_Core/Libraries/CMSIS/Include\core_cmSimd.h **** __attribute__( ( always_inline ) ) __STATIC_INLINE uint32_t __SHSAX(uint32_t op1, uint32_t op2)
 394:C:\Users\Depes Crystalline\Desktop\school\Active_Bike_Lighting_System\Radar_Core/Libraries/CMSIS/Include\core_cmSimd.h **** {
 395:C:\Users\Depes Crystalline\Desktop\school\Active_Bike_Lighting_System\Radar_Core/Libraries/CMSIS/Include\core_cmSimd.h ****   uint32_t result;
 396:C:\Users\Depes Crystalline\Desktop\school\Active_Bike_Lighting_System\Radar_Core/Libraries/CMSIS/Include\core_cmSimd.h **** 
 397:C:\Users\Depes Crystalline\Desktop\school\Active_Bike_Lighting_System\Radar_Core/Libraries/CMSIS/Include\core_cmSimd.h ****   __ASM volatile ("shsax %0, %1, %2" : "=r" (result) : "r" (op1), "r" (op2) );
 398:C:\Users\Depes Crystalline\Desktop\school\Active_Bike_Lighting_System\Radar_Core/Libraries/CMSIS/Include\core_cmSimd.h ****   return(result);
 399:C:\Users\Depes Crystalline\Desktop\school\Active_Bike_Lighting_System\Radar_Core/Libraries/CMSIS/Include\core_cmSimd.h **** }
 400:C:\Users\Depes Crystalline\Desktop\school\Active_Bike_Lighting_System\Radar_Core/Libraries/CMSIS/Include\core_cmSimd.h **** 
 401:C:\Users\Depes Crystalline\Desktop\school\Active_Bike_Lighting_System\Radar_Core/Libraries/CMSIS/Include\core_cmSimd.h **** __attribute__( ( always_inline ) ) __STATIC_INLINE uint32_t __USAX(uint32_t op1, uint32_t op2)
 402:C:\Users\Depes Crystalline\Desktop\school\Active_Bike_Lighting_System\Radar_Core/Libraries/CMSIS/Include\core_cmSimd.h **** {
 403:C:\Users\Depes Crystalline\Desktop\school\Active_Bike_Lighting_System\Radar_Core/Libraries/CMSIS/Include\core_cmSimd.h ****   uint32_t result;
 404:C:\Users\Depes Crystalline\Desktop\school\Active_Bike_Lighting_System\Radar_Core/Libraries/CMSIS/Include\core_cmSimd.h **** 
 405:C:\Users\Depes Crystalline\Desktop\school\Active_Bike_Lighting_System\Radar_Core/Libraries/CMSIS/Include\core_cmSimd.h ****   __ASM volatile ("usax %0, %1, %2" : "=r" (result) : "r" (op1), "r" (op2) );
 406:C:\Users\Depes Crystalline\Desktop\school\Active_Bike_Lighting_System\Radar_Core/Libraries/CMSIS/Include\core_cmSimd.h ****   return(result);
 407:C:\Users\Depes Crystalline\Desktop\school\Active_Bike_Lighting_System\Radar_Core/Libraries/CMSIS/Include\core_cmSimd.h **** }
 408:C:\Users\Depes Crystalline\Desktop\school\Active_Bike_Lighting_System\Radar_Core/Libraries/CMSIS/Include\core_cmSimd.h **** 
 409:C:\Users\Depes Crystalline\Desktop\school\Active_Bike_Lighting_System\Radar_Core/Libraries/CMSIS/Include\core_cmSimd.h **** __attribute__( ( always_inline ) ) __STATIC_INLINE uint32_t __UQSAX(uint32_t op1, uint32_t op2)
 410:C:\Users\Depes Crystalline\Desktop\school\Active_Bike_Lighting_System\Radar_Core/Libraries/CMSIS/Include\core_cmSimd.h **** {
 411:C:\Users\Depes Crystalline\Desktop\school\Active_Bike_Lighting_System\Radar_Core/Libraries/CMSIS/Include\core_cmSimd.h ****   uint32_t result;
 412:C:\Users\Depes Crystalline\Desktop\school\Active_Bike_Lighting_System\Radar_Core/Libraries/CMSIS/Include\core_cmSimd.h **** 
 413:C:\Users\Depes Crystalline\Desktop\school\Active_Bike_Lighting_System\Radar_Core/Libraries/CMSIS/Include\core_cmSimd.h ****   __ASM volatile ("uqsax %0, %1, %2" : "=r" (result) : "r" (op1), "r" (op2) );
 414:C:\Users\Depes Crystalline\Desktop\school\Active_Bike_Lighting_System\Radar_Core/Libraries/CMSIS/Include\core_cmSimd.h ****   return(result);
 415:C:\Users\Depes Crystalline\Desktop\school\Active_Bike_Lighting_System\Radar_Core/Libraries/CMSIS/Include\core_cmSimd.h **** }
 416:C:\Users\Depes Crystalline\Desktop\school\Active_Bike_Lighting_System\Radar_Core/Libraries/CMSIS/Include\core_cmSimd.h **** 
 417:C:\Users\Depes Crystalline\Desktop\school\Active_Bike_Lighting_System\Radar_Core/Libraries/CMSIS/Include\core_cmSimd.h **** __attribute__( ( always_inline ) ) __STATIC_INLINE uint32_t __UHSAX(uint32_t op1, uint32_t op2)
 418:C:\Users\Depes Crystalline\Desktop\school\Active_Bike_Lighting_System\Radar_Core/Libraries/CMSIS/Include\core_cmSimd.h **** {
 419:C:\Users\Depes Crystalline\Desktop\school\Active_Bike_Lighting_System\Radar_Core/Libraries/CMSIS/Include\core_cmSimd.h ****   uint32_t result;
 420:C:\Users\Depes Crystalline\Desktop\school\Active_Bike_Lighting_System\Radar_Core/Libraries/CMSIS/Include\core_cmSimd.h **** 
 421:C:\Users\Depes Crystalline\Desktop\school\Active_Bike_Lighting_System\Radar_Core/Libraries/CMSIS/Include\core_cmSimd.h ****   __ASM volatile ("uhsax %0, %1, %2" : "=r" (result) : "r" (op1), "r" (op2) );
 422:C:\Users\Depes Crystalline\Desktop\school\Active_Bike_Lighting_System\Radar_Core/Libraries/CMSIS/Include\core_cmSimd.h ****   return(result);
 423:C:\Users\Depes Crystalline\Desktop\school\Active_Bike_Lighting_System\Radar_Core/Libraries/CMSIS/Include\core_cmSimd.h **** }
 424:C:\Users\Depes Crystalline\Desktop\school\Active_Bike_Lighting_System\Radar_Core/Libraries/CMSIS/Include\core_cmSimd.h **** 
 425:C:\Users\Depes Crystalline\Desktop\school\Active_Bike_Lighting_System\Radar_Core/Libraries/CMSIS/Include\core_cmSimd.h **** __attribute__( ( always_inline ) ) __STATIC_INLINE uint32_t __USAD8(uint32_t op1, uint32_t op2)
 426:C:\Users\Depes Crystalline\Desktop\school\Active_Bike_Lighting_System\Radar_Core/Libraries/CMSIS/Include\core_cmSimd.h **** {
 427:C:\Users\Depes Crystalline\Desktop\school\Active_Bike_Lighting_System\Radar_Core/Libraries/CMSIS/Include\core_cmSimd.h ****   uint32_t result;
 428:C:\Users\Depes Crystalline\Desktop\school\Active_Bike_Lighting_System\Radar_Core/Libraries/CMSIS/Include\core_cmSimd.h **** 
 429:C:\Users\Depes Crystalline\Desktop\school\Active_Bike_Lighting_System\Radar_Core/Libraries/CMSIS/Include\core_cmSimd.h ****   __ASM volatile ("usad8 %0, %1, %2" : "=r" (result) : "r" (op1), "r" (op2) );
 430:C:\Users\Depes Crystalline\Desktop\school\Active_Bike_Lighting_System\Radar_Core/Libraries/CMSIS/Include\core_cmSimd.h ****   return(result);
 431:C:\Users\Depes Crystalline\Desktop\school\Active_Bike_Lighting_System\Radar_Core/Libraries/CMSIS/Include\core_cmSimd.h **** }
 432:C:\Users\Depes Crystalline\Desktop\school\Active_Bike_Lighting_System\Radar_Core/Libraries/CMSIS/Include\core_cmSimd.h **** 
 433:C:\Users\Depes Crystalline\Desktop\school\Active_Bike_Lighting_System\Radar_Core/Libraries/CMSIS/Include\core_cmSimd.h **** __attribute__( ( always_inline ) ) __STATIC_INLINE uint32_t __USADA8(uint32_t op1, uint32_t op2, ui
 434:C:\Users\Depes Crystalline\Desktop\school\Active_Bike_Lighting_System\Radar_Core/Libraries/CMSIS/Include\core_cmSimd.h **** {
 435:C:\Users\Depes Crystalline\Desktop\school\Active_Bike_Lighting_System\Radar_Core/Libraries/CMSIS/Include\core_cmSimd.h ****   uint32_t result;
 436:C:\Users\Depes Crystalline\Desktop\school\Active_Bike_Lighting_System\Radar_Core/Libraries/CMSIS/Include\core_cmSimd.h **** 
 437:C:\Users\Depes Crystalline\Desktop\school\Active_Bike_Lighting_System\Radar_Core/Libraries/CMSIS/Include\core_cmSimd.h ****   __ASM volatile ("usada8 %0, %1, %2, %3" : "=r" (result) : "r" (op1), "r" (op2), "r" (op3) );
 438:C:\Users\Depes Crystalline\Desktop\school\Active_Bike_Lighting_System\Radar_Core/Libraries/CMSIS/Include\core_cmSimd.h ****   return(result);
 439:C:\Users\Depes Crystalline\Desktop\school\Active_Bike_Lighting_System\Radar_Core/Libraries/CMSIS/Include\core_cmSimd.h **** }
 440:C:\Users\Depes Crystalline\Desktop\school\Active_Bike_Lighting_System\Radar_Core/Libraries/CMSIS/Include\core_cmSimd.h **** 
 441:C:\Users\Depes Crystalline\Desktop\school\Active_Bike_Lighting_System\Radar_Core/Libraries/CMSIS/Include\core_cmSimd.h **** #define __SSAT16(ARG1,ARG2) \
 442:C:\Users\Depes Crystalline\Desktop\school\Active_Bike_Lighting_System\Radar_Core/Libraries/CMSIS/Include\core_cmSimd.h **** ({                          \
 443:C:\Users\Depes Crystalline\Desktop\school\Active_Bike_Lighting_System\Radar_Core/Libraries/CMSIS/Include\core_cmSimd.h ****   uint32_t __RES, __ARG1 = (ARG1); \
 444:C:\Users\Depes Crystalline\Desktop\school\Active_Bike_Lighting_System\Radar_Core/Libraries/CMSIS/Include\core_cmSimd.h ****   __ASM ("ssat16 %0, %1, %2" : "=r" (__RES) :  "I" (ARG2), "r" (__ARG1) ); \
 445:C:\Users\Depes Crystalline\Desktop\school\Active_Bike_Lighting_System\Radar_Core/Libraries/CMSIS/Include\core_cmSimd.h ****   __RES; \
 446:C:\Users\Depes Crystalline\Desktop\school\Active_Bike_Lighting_System\Radar_Core/Libraries/CMSIS/Include\core_cmSimd.h ****  })
 447:C:\Users\Depes Crystalline\Desktop\school\Active_Bike_Lighting_System\Radar_Core/Libraries/CMSIS/Include\core_cmSimd.h **** 
 448:C:\Users\Depes Crystalline\Desktop\school\Active_Bike_Lighting_System\Radar_Core/Libraries/CMSIS/Include\core_cmSimd.h **** #define __USAT16(ARG1,ARG2) \
 449:C:\Users\Depes Crystalline\Desktop\school\Active_Bike_Lighting_System\Radar_Core/Libraries/CMSIS/Include\core_cmSimd.h **** ({                          \
 450:C:\Users\Depes Crystalline\Desktop\school\Active_Bike_Lighting_System\Radar_Core/Libraries/CMSIS/Include\core_cmSimd.h ****   uint32_t __RES, __ARG1 = (ARG1); \
 451:C:\Users\Depes Crystalline\Desktop\school\Active_Bike_Lighting_System\Radar_Core/Libraries/CMSIS/Include\core_cmSimd.h ****   __ASM ("usat16 %0, %1, %2" : "=r" (__RES) :  "I" (ARG2), "r" (__ARG1) ); \
 452:C:\Users\Depes Crystalline\Desktop\school\Active_Bike_Lighting_System\Radar_Core/Libraries/CMSIS/Include\core_cmSimd.h ****   __RES; \
 453:C:\Users\Depes Crystalline\Desktop\school\Active_Bike_Lighting_System\Radar_Core/Libraries/CMSIS/Include\core_cmSimd.h ****  })
 454:C:\Users\Depes Crystalline\Desktop\school\Active_Bike_Lighting_System\Radar_Core/Libraries/CMSIS/Include\core_cmSimd.h **** 
 455:C:\Users\Depes Crystalline\Desktop\school\Active_Bike_Lighting_System\Radar_Core/Libraries/CMSIS/Include\core_cmSimd.h **** __attribute__( ( always_inline ) ) __STATIC_INLINE uint32_t __UXTB16(uint32_t op1)
 456:C:\Users\Depes Crystalline\Desktop\school\Active_Bike_Lighting_System\Radar_Core/Libraries/CMSIS/Include\core_cmSimd.h **** {
 457:C:\Users\Depes Crystalline\Desktop\school\Active_Bike_Lighting_System\Radar_Core/Libraries/CMSIS/Include\core_cmSimd.h ****   uint32_t result;
 458:C:\Users\Depes Crystalline\Desktop\school\Active_Bike_Lighting_System\Radar_Core/Libraries/CMSIS/Include\core_cmSimd.h **** 
 459:C:\Users\Depes Crystalline\Desktop\school\Active_Bike_Lighting_System\Radar_Core/Libraries/CMSIS/Include\core_cmSimd.h ****   __ASM volatile ("uxtb16 %0, %1" : "=r" (result) : "r" (op1));
 460:C:\Users\Depes Crystalline\Desktop\school\Active_Bike_Lighting_System\Radar_Core/Libraries/CMSIS/Include\core_cmSimd.h ****   return(result);
 461:C:\Users\Depes Crystalline\Desktop\school\Active_Bike_Lighting_System\Radar_Core/Libraries/CMSIS/Include\core_cmSimd.h **** }
 462:C:\Users\Depes Crystalline\Desktop\school\Active_Bike_Lighting_System\Radar_Core/Libraries/CMSIS/Include\core_cmSimd.h **** 
 463:C:\Users\Depes Crystalline\Desktop\school\Active_Bike_Lighting_System\Radar_Core/Libraries/CMSIS/Include\core_cmSimd.h **** __attribute__( ( always_inline ) ) __STATIC_INLINE uint32_t __UXTAB16(uint32_t op1, uint32_t op2)
 464:C:\Users\Depes Crystalline\Desktop\school\Active_Bike_Lighting_System\Radar_Core/Libraries/CMSIS/Include\core_cmSimd.h **** {
 465:C:\Users\Depes Crystalline\Desktop\school\Active_Bike_Lighting_System\Radar_Core/Libraries/CMSIS/Include\core_cmSimd.h ****   uint32_t result;
 466:C:\Users\Depes Crystalline\Desktop\school\Active_Bike_Lighting_System\Radar_Core/Libraries/CMSIS/Include\core_cmSimd.h **** 
 467:C:\Users\Depes Crystalline\Desktop\school\Active_Bike_Lighting_System\Radar_Core/Libraries/CMSIS/Include\core_cmSimd.h ****   __ASM volatile ("uxtab16 %0, %1, %2" : "=r" (result) : "r" (op1), "r" (op2) );
 468:C:\Users\Depes Crystalline\Desktop\school\Active_Bike_Lighting_System\Radar_Core/Libraries/CMSIS/Include\core_cmSimd.h ****   return(result);
 469:C:\Users\Depes Crystalline\Desktop\school\Active_Bike_Lighting_System\Radar_Core/Libraries/CMSIS/Include\core_cmSimd.h **** }
 470:C:\Users\Depes Crystalline\Desktop\school\Active_Bike_Lighting_System\Radar_Core/Libraries/CMSIS/Include\core_cmSimd.h **** 
 471:C:\Users\Depes Crystalline\Desktop\school\Active_Bike_Lighting_System\Radar_Core/Libraries/CMSIS/Include\core_cmSimd.h **** __attribute__( ( always_inline ) ) __STATIC_INLINE uint32_t __SXTB16(uint32_t op1)
 472:C:\Users\Depes Crystalline\Desktop\school\Active_Bike_Lighting_System\Radar_Core/Libraries/CMSIS/Include\core_cmSimd.h **** {
 473:C:\Users\Depes Crystalline\Desktop\school\Active_Bike_Lighting_System\Radar_Core/Libraries/CMSIS/Include\core_cmSimd.h ****   uint32_t result;
 474:C:\Users\Depes Crystalline\Desktop\school\Active_Bike_Lighting_System\Radar_Core/Libraries/CMSIS/Include\core_cmSimd.h **** 
 475:C:\Users\Depes Crystalline\Desktop\school\Active_Bike_Lighting_System\Radar_Core/Libraries/CMSIS/Include\core_cmSimd.h ****   __ASM volatile ("sxtb16 %0, %1" : "=r" (result) : "r" (op1));
 476:C:\Users\Depes Crystalline\Desktop\school\Active_Bike_Lighting_System\Radar_Core/Libraries/CMSIS/Include\core_cmSimd.h ****   return(result);
 477:C:\Users\Depes Crystalline\Desktop\school\Active_Bike_Lighting_System\Radar_Core/Libraries/CMSIS/Include\core_cmSimd.h **** }
 478:C:\Users\Depes Crystalline\Desktop\school\Active_Bike_Lighting_System\Radar_Core/Libraries/CMSIS/Include\core_cmSimd.h **** 
 479:C:\Users\Depes Crystalline\Desktop\school\Active_Bike_Lighting_System\Radar_Core/Libraries/CMSIS/Include\core_cmSimd.h **** __attribute__( ( always_inline ) ) __STATIC_INLINE uint32_t __SXTAB16(uint32_t op1, uint32_t op2)
 480:C:\Users\Depes Crystalline\Desktop\school\Active_Bike_Lighting_System\Radar_Core/Libraries/CMSIS/Include\core_cmSimd.h **** {
 481:C:\Users\Depes Crystalline\Desktop\school\Active_Bike_Lighting_System\Radar_Core/Libraries/CMSIS/Include\core_cmSimd.h ****   uint32_t result;
 482:C:\Users\Depes Crystalline\Desktop\school\Active_Bike_Lighting_System\Radar_Core/Libraries/CMSIS/Include\core_cmSimd.h **** 
 483:C:\Users\Depes Crystalline\Desktop\school\Active_Bike_Lighting_System\Radar_Core/Libraries/CMSIS/Include\core_cmSimd.h ****   __ASM volatile ("sxtab16 %0, %1, %2" : "=r" (result) : "r" (op1), "r" (op2) );
 484:C:\Users\Depes Crystalline\Desktop\school\Active_Bike_Lighting_System\Radar_Core/Libraries/CMSIS/Include\core_cmSimd.h ****   return(result);
 485:C:\Users\Depes Crystalline\Desktop\school\Active_Bike_Lighting_System\Radar_Core/Libraries/CMSIS/Include\core_cmSimd.h **** }
 486:C:\Users\Depes Crystalline\Desktop\school\Active_Bike_Lighting_System\Radar_Core/Libraries/CMSIS/Include\core_cmSimd.h **** 
 487:C:\Users\Depes Crystalline\Desktop\school\Active_Bike_Lighting_System\Radar_Core/Libraries/CMSIS/Include\core_cmSimd.h **** __attribute__( ( always_inline ) ) __STATIC_INLINE uint32_t __SMUAD  (uint32_t op1, uint32_t op2)
 488:C:\Users\Depes Crystalline\Desktop\school\Active_Bike_Lighting_System\Radar_Core/Libraries/CMSIS/Include\core_cmSimd.h **** {
 489:C:\Users\Depes Crystalline\Desktop\school\Active_Bike_Lighting_System\Radar_Core/Libraries/CMSIS/Include\core_cmSimd.h ****   uint32_t result;
 490:C:\Users\Depes Crystalline\Desktop\school\Active_Bike_Lighting_System\Radar_Core/Libraries/CMSIS/Include\core_cmSimd.h **** 
 491:C:\Users\Depes Crystalline\Desktop\school\Active_Bike_Lighting_System\Radar_Core/Libraries/CMSIS/Include\core_cmSimd.h ****   __ASM volatile ("smuad %0, %1, %2" : "=r" (result) : "r" (op1), "r" (op2) );
 492:C:\Users\Depes Crystalline\Desktop\school\Active_Bike_Lighting_System\Radar_Core/Libraries/CMSIS/Include\core_cmSimd.h ****   return(result);
 493:C:\Users\Depes Crystalline\Desktop\school\Active_Bike_Lighting_System\Radar_Core/Libraries/CMSIS/Include\core_cmSimd.h **** }
 494:C:\Users\Depes Crystalline\Desktop\school\Active_Bike_Lighting_System\Radar_Core/Libraries/CMSIS/Include\core_cmSimd.h **** 
 495:C:\Users\Depes Crystalline\Desktop\school\Active_Bike_Lighting_System\Radar_Core/Libraries/CMSIS/Include\core_cmSimd.h **** __attribute__( ( always_inline ) ) __STATIC_INLINE uint32_t __SMUADX (uint32_t op1, uint32_t op2)
 496:C:\Users\Depes Crystalline\Desktop\school\Active_Bike_Lighting_System\Radar_Core/Libraries/CMSIS/Include\core_cmSimd.h **** {
 497:C:\Users\Depes Crystalline\Desktop\school\Active_Bike_Lighting_System\Radar_Core/Libraries/CMSIS/Include\core_cmSimd.h ****   uint32_t result;
 498:C:\Users\Depes Crystalline\Desktop\school\Active_Bike_Lighting_System\Radar_Core/Libraries/CMSIS/Include\core_cmSimd.h **** 
 499:C:\Users\Depes Crystalline\Desktop\school\Active_Bike_Lighting_System\Radar_Core/Libraries/CMSIS/Include\core_cmSimd.h ****   __ASM volatile ("smuadx %0, %1, %2" : "=r" (result) : "r" (op1), "r" (op2) );
 500:C:\Users\Depes Crystalline\Desktop\school\Active_Bike_Lighting_System\Radar_Core/Libraries/CMSIS/Include\core_cmSimd.h ****   return(result);
 501:C:\Users\Depes Crystalline\Desktop\school\Active_Bike_Lighting_System\Radar_Core/Libraries/CMSIS/Include\core_cmSimd.h **** }
 502:C:\Users\Depes Crystalline\Desktop\school\Active_Bike_Lighting_System\Radar_Core/Libraries/CMSIS/Include\core_cmSimd.h **** 
 503:C:\Users\Depes Crystalline\Desktop\school\Active_Bike_Lighting_System\Radar_Core/Libraries/CMSIS/Include\core_cmSimd.h **** __attribute__( ( always_inline ) ) __STATIC_INLINE uint32_t __SMLAD (uint32_t op1, uint32_t op2, ui
 504:C:\Users\Depes Crystalline\Desktop\school\Active_Bike_Lighting_System\Radar_Core/Libraries/CMSIS/Include\core_cmSimd.h **** {
 505:C:\Users\Depes Crystalline\Desktop\school\Active_Bike_Lighting_System\Radar_Core/Libraries/CMSIS/Include\core_cmSimd.h ****   uint32_t result;
 506:C:\Users\Depes Crystalline\Desktop\school\Active_Bike_Lighting_System\Radar_Core/Libraries/CMSIS/Include\core_cmSimd.h **** 
 507:C:\Users\Depes Crystalline\Desktop\school\Active_Bike_Lighting_System\Radar_Core/Libraries/CMSIS/Include\core_cmSimd.h ****   __ASM volatile ("smlad %0, %1, %2, %3" : "=r" (result) : "r" (op1), "r" (op2), "r" (op3) );
 431              	 .loc 2 507 0
 432 037c D7F89830 	 ldr r3,[r7,#152]
 433 0380 D7F89420 	 ldr r2,[r7,#148]
 434 0384 D7F89010 	 ldr r1,[r7,#144]
 435              	
 436 0388 23FB0213 	 smlad r3,r3,r2,r1
 437              	
 438              	 .thumb
 439 038c C7F88C30 	 str r3,[r7,#140]
 508:C:\Users\Depes Crystalline\Desktop\school\Active_Bike_Lighting_System\Radar_Core/Libraries/CMSIS/Include\core_cmSimd.h ****   return(result);
 440              	 .loc 2 508 0
 441 0390 D7F88C30 	 ldr r3,[r7,#140]
 442              	.LBE27:
 443              	.LBE26:
 444              	 .loc 1 290 0
 445 0394 C7F82031 	 str r3,[r7,#288]
 291:../Dave/Generated/CMSIS_DSP/FilteringFunctions/arm_conv_opt_q7.c ****       acc2 = __SMLAD(x2, y1, acc2);
 446              	 .loc 1 291 0
 447 0398 D7F80C11 	 ldr r1,[r7,#268]
 448 039c D7F8FC20 	 ldr r2,[r7,#252]
 449 03a0 D7F81831 	 ldr r3,[r7,#280]
 450 03a4 C7F88810 	 str r1,[r7,#136]
 451 03a8 C7F88420 	 str r2,[r7,#132]
 452 03ac C7F88030 	 str r3,[r7,#128]
 453              	.LBB28:
 454              	.LBB29:
 507:C:\Users\Depes Crystalline\Desktop\school\Active_Bike_Lighting_System\Radar_Core/Libraries/CMSIS/Include\core_cmSimd.h ****   return(result);
 455              	 .loc 2 507 0
 456 03b0 D7F88830 	 ldr r3,[r7,#136]
 457 03b4 D7F88420 	 ldr r2,[r7,#132]
 458 03b8 D7F88010 	 ldr r1,[r7,#128]
 459              	
 460 03bc 23FB0213 	 smlad r3,r3,r2,r1
 461              	
 462              	 .thumb
 463 03c0 FB67     	 str r3,[r7,#124]
 464              	 .loc 2 508 0
 465 03c2 FB6F     	 ldr r3,[r7,#124]
 466              	.LBE29:
 467              	.LBE28:
 468              	 .loc 1 291 0
 469 03c4 C7F81831 	 str r3,[r7,#280]
 470              	.LBB30:
 292:../Dave/Generated/CMSIS_DSP/FilteringFunctions/arm_conv_opt_q7.c **** 
 293:../Dave/Generated/CMSIS_DSP/FilteringFunctions/arm_conv_opt_q7.c ****       /* pack input data */
 294:../Dave/Generated/CMSIS_DSP/FilteringFunctions/arm_conv_opt_q7.c **** #ifndef ARM_MATH_BIG_ENDIAN
 295:../Dave/Generated/CMSIS_DSP/FilteringFunctions/arm_conv_opt_q7.c ****       x3 = __PKHBT(x2, x1, 0);
 471              	 .loc 1 295 0
 472 03c8 D7F80C31 	 ldr r3,[r7,#268]
 473 03cc C7F8F830 	 str r3,[r7,#248]
 474 03d0 D7F81031 	 ldr r3,[r7,#272]
 475 03d4 C7F8F430 	 str r3,[r7,#244]
 476 03d8 D7F8F830 	 ldr r3,[r7,#248]
 477 03dc D7F8F420 	 ldr r2,[r7,#244]
 478              	
 479 03e0 C3EA0203 	 pkhbt r3,r3,r2,lsl#0
 480              	
 481              	 .thumb
 482 03e4 C7F8F030 	 str r3,[r7,#240]
 483 03e8 D7F8F030 	 ldr r3,[r7,#240]
 484              	.LBE30:
 485 03ec C7F8EC30 	 str r3,[r7,#236]
 296:../Dave/Generated/CMSIS_DSP/FilteringFunctions/arm_conv_opt_q7.c **** #else
 297:../Dave/Generated/CMSIS_DSP/FilteringFunctions/arm_conv_opt_q7.c ****       x3 = __PKHBT(x1, x2, 0);
 298:../Dave/Generated/CMSIS_DSP/FilteringFunctions/arm_conv_opt_q7.c **** #endif
 299:../Dave/Generated/CMSIS_DSP/FilteringFunctions/arm_conv_opt_q7.c **** 
 300:../Dave/Generated/CMSIS_DSP/FilteringFunctions/arm_conv_opt_q7.c ****       /* multiply and accumlate */
 301:../Dave/Generated/CMSIS_DSP/FilteringFunctions/arm_conv_opt_q7.c ****       acc1 = __SMLADX(x3, y1, acc1);
 486              	 .loc 1 301 0
 487 03f0 D7F8EC10 	 ldr r1,[r7,#236]
 488 03f4 D7F8FC20 	 ldr r2,[r7,#252]
 489 03f8 D7F81C31 	 ldr r3,[r7,#284]
 490 03fc B967     	 str r1,[r7,#120]
 491 03fe 7A67     	 str r2,[r7,#116]
 492 0400 3B67     	 str r3,[r7,#112]
 493              	.LBB31:
 494              	.LBB32:
 509:C:\Users\Depes Crystalline\Desktop\school\Active_Bike_Lighting_System\Radar_Core/Libraries/CMSIS/Include\core_cmSimd.h **** }
 510:C:\Users\Depes Crystalline\Desktop\school\Active_Bike_Lighting_System\Radar_Core/Libraries/CMSIS/Include\core_cmSimd.h **** 
 511:C:\Users\Depes Crystalline\Desktop\school\Active_Bike_Lighting_System\Radar_Core/Libraries/CMSIS/Include\core_cmSimd.h **** __attribute__( ( always_inline ) ) __STATIC_INLINE uint32_t __SMLADX (uint32_t op1, uint32_t op2, u
 512:C:\Users\Depes Crystalline\Desktop\school\Active_Bike_Lighting_System\Radar_Core/Libraries/CMSIS/Include\core_cmSimd.h **** {
 513:C:\Users\Depes Crystalline\Desktop\school\Active_Bike_Lighting_System\Radar_Core/Libraries/CMSIS/Include\core_cmSimd.h ****   uint32_t result;
 514:C:\Users\Depes Crystalline\Desktop\school\Active_Bike_Lighting_System\Radar_Core/Libraries/CMSIS/Include\core_cmSimd.h **** 
 515:C:\Users\Depes Crystalline\Desktop\school\Active_Bike_Lighting_System\Radar_Core/Libraries/CMSIS/Include\core_cmSimd.h ****   __ASM volatile ("smladx %0, %1, %2, %3" : "=r" (result) : "r" (op1), "r" (op2), "r" (op3) );
 495              	 .loc 2 515 0
 496 0402 BB6F     	 ldr r3,[r7,#120]
 497 0404 7A6F     	 ldr r2,[r7,#116]
 498 0406 396F     	 ldr r1,[r7,#112]
 499              	
 500 0408 23FB1213 	 smladx r3,r3,r2,r1
 501              	
 502              	 .thumb
 503 040c FB66     	 str r3,[r7,#108]
 516:C:\Users\Depes Crystalline\Desktop\school\Active_Bike_Lighting_System\Radar_Core/Libraries/CMSIS/Include\core_cmSimd.h ****   return(result);
 504              	 .loc 2 516 0
 505 040e FB6E     	 ldr r3,[r7,#108]
 506              	.LBE32:
 507              	.LBE31:
 508              	 .loc 1 301 0
 509 0410 C7F81C31 	 str r3,[r7,#284]
 302:../Dave/Generated/CMSIS_DSP/FilteringFunctions/arm_conv_opt_q7.c **** 
 303:../Dave/Generated/CMSIS_DSP/FilteringFunctions/arm_conv_opt_q7.c ****       /* Read next two samples from scratch1 buffer */
 304:../Dave/Generated/CMSIS_DSP/FilteringFunctions/arm_conv_opt_q7.c ****       x1 = *__SIMD32(pScr1)++;
 510              	 .loc 1 304 0
 511 0414 07F11802 	 add r2,r7,#24
 512 0418 1368     	 ldr r3,[r2]
 513 041a 191D     	 adds r1,r3,#4
 514 041c 1160     	 str r1,[r2]
 515 041e 1B68     	 ldr r3,[r3]
 516 0420 C7F81031 	 str r3,[r7,#272]
 517              	.LBB33:
 305:../Dave/Generated/CMSIS_DSP/FilteringFunctions/arm_conv_opt_q7.c **** 
 306:../Dave/Generated/CMSIS_DSP/FilteringFunctions/arm_conv_opt_q7.c ****       /* pack input data */
 307:../Dave/Generated/CMSIS_DSP/FilteringFunctions/arm_conv_opt_q7.c **** #ifndef ARM_MATH_BIG_ENDIAN
 308:../Dave/Generated/CMSIS_DSP/FilteringFunctions/arm_conv_opt_q7.c ****       x3 = __PKHBT(x1, x2, 0);
 518              	 .loc 1 308 0
 519 0424 D7F81031 	 ldr r3,[r7,#272]
 520 0428 C7F8E830 	 str r3,[r7,#232]
 521 042c D7F80C31 	 ldr r3,[r7,#268]
 522 0430 C7F8E430 	 str r3,[r7,#228]
 523 0434 D7F8E830 	 ldr r3,[r7,#232]
 524 0438 D7F8E420 	 ldr r2,[r7,#228]
 525              	
 526 043c C3EA0203 	 pkhbt r3,r3,r2,lsl#0
 527              	
 528              	 .thumb
 529 0440 C7F8E030 	 str r3,[r7,#224]
 530 0444 D7F8E030 	 ldr r3,[r7,#224]
 531              	.LBE33:
 532 0448 C7F8EC30 	 str r3,[r7,#236]
 309:../Dave/Generated/CMSIS_DSP/FilteringFunctions/arm_conv_opt_q7.c **** #else
 310:../Dave/Generated/CMSIS_DSP/FilteringFunctions/arm_conv_opt_q7.c ****       x3 = __PKHBT(x2, x1, 0);
 311:../Dave/Generated/CMSIS_DSP/FilteringFunctions/arm_conv_opt_q7.c **** #endif
 312:../Dave/Generated/CMSIS_DSP/FilteringFunctions/arm_conv_opt_q7.c **** 
 313:../Dave/Generated/CMSIS_DSP/FilteringFunctions/arm_conv_opt_q7.c ****       acc3 = __SMLADX(x3, y1, acc3);
 533              	 .loc 1 313 0
 534 044c D7F8EC10 	 ldr r1,[r7,#236]
 535 0450 D7F8FC20 	 ldr r2,[r7,#252]
 536 0454 D7F81431 	 ldr r3,[r7,#276]
 537 0458 B966     	 str r1,[r7,#104]
 538 045a 7A66     	 str r2,[r7,#100]
 539 045c 3B66     	 str r3,[r7,#96]
 540              	.LBB34:
 541              	.LBB35:
 515:C:\Users\Depes Crystalline\Desktop\school\Active_Bike_Lighting_System\Radar_Core/Libraries/CMSIS/Include\core_cmSimd.h ****   return(result);
 542              	 .loc 2 515 0
 543 045e BB6E     	 ldr r3,[r7,#104]
 544 0460 7A6E     	 ldr r2,[r7,#100]
 545 0462 396E     	 ldr r1,[r7,#96]
 546              	
 547 0464 23FB1213 	 smladx r3,r3,r2,r1
 548              	
 549              	 .thumb
 550 0468 FB65     	 str r3,[r7,#92]
 551              	 .loc 2 516 0
 552 046a FB6D     	 ldr r3,[r7,#92]
 553              	.LBE35:
 554              	.LBE34:
 555              	 .loc 1 313 0
 556 046c C7F81431 	 str r3,[r7,#276]
 314:../Dave/Generated/CMSIS_DSP/FilteringFunctions/arm_conv_opt_q7.c **** 
 315:../Dave/Generated/CMSIS_DSP/FilteringFunctions/arm_conv_opt_q7.c ****       /* Read four samples from smaller buffer */
 316:../Dave/Generated/CMSIS_DSP/FilteringFunctions/arm_conv_opt_q7.c ****       y1 = _SIMD32_OFFSET(pScr2 + 2u);
 557              	 .loc 1 316 0
 558 0470 D7F83C31 	 ldr r3,[r7,#316]
 559 0474 5B68     	 ldr r3,[r3,#4]
 560 0476 C7F8FC30 	 str r3,[r7,#252]
 317:../Dave/Generated/CMSIS_DSP/FilteringFunctions/arm_conv_opt_q7.c **** 
 318:../Dave/Generated/CMSIS_DSP/FilteringFunctions/arm_conv_opt_q7.c ****       acc0 = __SMLAD(x2, y1, acc0);
 561              	 .loc 1 318 0
 562 047a D7F80C11 	 ldr r1,[r7,#268]
 563 047e D7F8FC20 	 ldr r2,[r7,#252]
 564 0482 D7F82031 	 ldr r3,[r7,#288]
 565 0486 B965     	 str r1,[r7,#88]
 566 0488 7A65     	 str r2,[r7,#84]
 567 048a 3B65     	 str r3,[r7,#80]
 568              	.LBB36:
 569              	.LBB37:
 507:C:\Users\Depes Crystalline\Desktop\school\Active_Bike_Lighting_System\Radar_Core/Libraries/CMSIS/Include\core_cmSimd.h ****   return(result);
 570              	 .loc 2 507 0
 571 048c BB6D     	 ldr r3,[r7,#88]
 572 048e 7A6D     	 ldr r2,[r7,#84]
 573 0490 396D     	 ldr r1,[r7,#80]
 574              	
 575 0492 23FB0213 	 smlad r3,r3,r2,r1
 576              	
 577              	 .thumb
 578 0496 FB64     	 str r3,[r7,#76]
 508:C:\Users\Depes Crystalline\Desktop\school\Active_Bike_Lighting_System\Radar_Core/Libraries/CMSIS/Include\core_cmSimd.h **** }
 579              	 .loc 2 508 0
 580 0498 FB6C     	 ldr r3,[r7,#76]
 581              	.LBE37:
 582              	.LBE36:
 583              	 .loc 1 318 0
 584 049a C7F82031 	 str r3,[r7,#288]
 319:../Dave/Generated/CMSIS_DSP/FilteringFunctions/arm_conv_opt_q7.c **** 
 320:../Dave/Generated/CMSIS_DSP/FilteringFunctions/arm_conv_opt_q7.c ****       acc2 = __SMLAD(x1, y1, acc2);
 585              	 .loc 1 320 0
 586 049e D7F81011 	 ldr r1,[r7,#272]
 587 04a2 D7F8FC30 	 ldr r3,[r7,#252]
 588 04a6 D7F81821 	 ldr r2,[r7,#280]
 589 04aa B964     	 str r1,[r7,#72]
 590 04ac 7B64     	 str r3,[r7,#68]
 591 04ae 07F14003 	 add r3,r7,#64
 592 04b2 1A60     	 str r2,[r3]
 593              	.LBB38:
 594              	.LBB39:
 507:C:\Users\Depes Crystalline\Desktop\school\Active_Bike_Lighting_System\Radar_Core/Libraries/CMSIS/Include\core_cmSimd.h ****   return(result);
 595              	 .loc 2 507 0
 596 04b4 BB6C     	 ldr r3,[r7,#72]
 597 04b6 7A6C     	 ldr r2,[r7,#68]
 598 04b8 07F14001 	 add r1,r7,#64
 599 04bc 0968     	 ldr r1,[r1]
 600              	
 601 04be 23FB0212 	 smlad r2,r3,r2,r1
 602              	
 603              	 .thumb
 604 04c2 07F13C03 	 add r3,r7,#60
 605 04c6 1A60     	 str r2,[r3]
 508:C:\Users\Depes Crystalline\Desktop\school\Active_Bike_Lighting_System\Radar_Core/Libraries/CMSIS/Include\core_cmSimd.h **** }
 606              	 .loc 2 508 0
 607 04c8 07F13C03 	 add r3,r7,#60
 608 04cc 1B68     	 ldr r3,[r3]
 609              	.LBE39:
 610              	.LBE38:
 611              	 .loc 1 320 0
 612 04ce C7F81831 	 str r3,[r7,#280]
 321:../Dave/Generated/CMSIS_DSP/FilteringFunctions/arm_conv_opt_q7.c **** 
 322:../Dave/Generated/CMSIS_DSP/FilteringFunctions/arm_conv_opt_q7.c ****       acc1 = __SMLADX(x3, y1, acc1);
 613              	 .loc 1 322 0
 614 04d2 D7F8EC00 	 ldr r0,[r7,#236]
 615 04d6 D7F8FC10 	 ldr r1,[r7,#252]
 616 04da D7F81C21 	 ldr r2,[r7,#284]
 617 04de 07F13803 	 add r3,r7,#56
 618 04e2 1860     	 str r0,[r3]
 619 04e4 07F13403 	 add r3,r7,#52
 620 04e8 1960     	 str r1,[r3]
 621 04ea 07F13003 	 add r3,r7,#48
 622 04ee 1A60     	 str r2,[r3]
 623              	.LBB40:
 624              	.LBB41:
 515:C:\Users\Depes Crystalline\Desktop\school\Active_Bike_Lighting_System\Radar_Core/Libraries/CMSIS/Include\core_cmSimd.h ****   return(result);
 625              	 .loc 2 515 0
 626 04f0 07F13803 	 add r3,r7,#56
 627 04f4 1B68     	 ldr r3,[r3]
 628 04f6 07F13402 	 add r2,r7,#52
 629 04fa 1268     	 ldr r2,[r2]
 630 04fc 07F13001 	 add r1,r7,#48
 631 0500 0968     	 ldr r1,[r1]
 632              	
 633 0502 23FB1212 	 smladx r2,r3,r2,r1
 634              	
 635              	 .thumb
 636 0506 07F12C03 	 add r3,r7,#44
 637 050a 1A60     	 str r2,[r3]
 638              	 .loc 2 516 0
 639 050c 07F12C03 	 add r3,r7,#44
 640 0510 1B68     	 ldr r3,[r3]
 641              	.LBE41:
 642              	.LBE40:
 643              	 .loc 1 322 0
 644 0512 C7F81C31 	 str r3,[r7,#284]
 323:../Dave/Generated/CMSIS_DSP/FilteringFunctions/arm_conv_opt_q7.c **** 
 324:../Dave/Generated/CMSIS_DSP/FilteringFunctions/arm_conv_opt_q7.c ****       x2 = *__SIMD32(pScr1)++;
 645              	 .loc 1 324 0
 646 0516 07F11802 	 add r2,r7,#24
 647 051a 1368     	 ldr r3,[r2]
 648 051c 191D     	 adds r1,r3,#4
 649 051e 1160     	 str r1,[r2]
 650 0520 1B68     	 ldr r3,[r3]
 651 0522 C7F80C31 	 str r3,[r7,#268]
 652              	.LBB42:
 325:../Dave/Generated/CMSIS_DSP/FilteringFunctions/arm_conv_opt_q7.c **** 
 326:../Dave/Generated/CMSIS_DSP/FilteringFunctions/arm_conv_opt_q7.c **** #ifndef ARM_MATH_BIG_ENDIAN
 327:../Dave/Generated/CMSIS_DSP/FilteringFunctions/arm_conv_opt_q7.c ****       x3 = __PKHBT(x2, x1, 0);
 653              	 .loc 1 327 0
 654 0526 D7F80C31 	 ldr r3,[r7,#268]
 655 052a C7F8DC30 	 str r3,[r7,#220]
 656 052e D7F81031 	 ldr r3,[r7,#272]
 657 0532 C7F8D830 	 str r3,[r7,#216]
 658 0536 D7F8DC30 	 ldr r3,[r7,#220]
 659 053a D7F8D820 	 ldr r2,[r7,#216]
 660              	
 661 053e C3EA0203 	 pkhbt r3,r3,r2,lsl#0
 662              	
 663              	 .thumb
 664 0542 C7F8D430 	 str r3,[r7,#212]
 665 0546 D7F8D430 	 ldr r3,[r7,#212]
 666              	.LBE42:
 667 054a C7F8EC30 	 str r3,[r7,#236]
 328:../Dave/Generated/CMSIS_DSP/FilteringFunctions/arm_conv_opt_q7.c **** #else
 329:../Dave/Generated/CMSIS_DSP/FilteringFunctions/arm_conv_opt_q7.c ****       x3 = __PKHBT(x1, x2, 0);
 330:../Dave/Generated/CMSIS_DSP/FilteringFunctions/arm_conv_opt_q7.c **** #endif
 331:../Dave/Generated/CMSIS_DSP/FilteringFunctions/arm_conv_opt_q7.c **** 
 332:../Dave/Generated/CMSIS_DSP/FilteringFunctions/arm_conv_opt_q7.c ****       acc3 = __SMLADX(x3, y1, acc3);
 668              	 .loc 1 332 0
 669 054e D7F8EC00 	 ldr r0,[r7,#236]
 670 0552 D7F8FC10 	 ldr r1,[r7,#252]
 671 0556 D7F81421 	 ldr r2,[r7,#276]
 672 055a 07F12803 	 add r3,r7,#40
 673 055e 1860     	 str r0,[r3]
 674 0560 07F12403 	 add r3,r7,#36
 675 0564 1960     	 str r1,[r3]
 676 0566 07F12003 	 add r3,r7,#32
 677 056a 1A60     	 str r2,[r3]
 678              	.LBB43:
 679              	.LBB44:
 515:C:\Users\Depes Crystalline\Desktop\school\Active_Bike_Lighting_System\Radar_Core/Libraries/CMSIS/Include\core_cmSimd.h ****   return(result);
 680              	 .loc 2 515 0
 681 056c 07F12803 	 add r3,r7,#40
 682 0570 1B68     	 ldr r3,[r3]
 683 0572 07F12402 	 add r2,r7,#36
 684 0576 1268     	 ldr r2,[r2]
 685 0578 07F12001 	 add r1,r7,#32
 686 057c 0968     	 ldr r1,[r1]
 687              	
 688 057e 23FB1212 	 smladx r2,r3,r2,r1
 689              	
 690              	 .thumb
 691 0582 07F11C03 	 add r3,r7,#28
 692 0586 1A60     	 str r2,[r3]
 693              	 .loc 2 516 0
 694 0588 07F11C03 	 add r3,r7,#28
 695 058c 1B68     	 ldr r3,[r3]
 696              	.LBE44:
 697              	.LBE43:
 698              	 .loc 1 332 0
 699 058e C7F81431 	 str r3,[r7,#276]
 333:../Dave/Generated/CMSIS_DSP/FilteringFunctions/arm_conv_opt_q7.c **** 
 334:../Dave/Generated/CMSIS_DSP/FilteringFunctions/arm_conv_opt_q7.c ****       pScr2 += 4u;
 700              	 .loc 1 334 0
 701 0592 D7F83C31 	 ldr r3,[r7,#316]
 702 0596 0833     	 adds r3,r3,#8
 703 0598 C7F83C31 	 str r3,[r7,#316]
 335:../Dave/Generated/CMSIS_DSP/FilteringFunctions/arm_conv_opt_q7.c **** 
 336:../Dave/Generated/CMSIS_DSP/FilteringFunctions/arm_conv_opt_q7.c **** 
 337:../Dave/Generated/CMSIS_DSP/FilteringFunctions/arm_conv_opt_q7.c ****       /* Decrement the loop counter */
 338:../Dave/Generated/CMSIS_DSP/FilteringFunctions/arm_conv_opt_q7.c ****       tapCnt--;
 704              	 .loc 1 338 0
 705 059c D7F82831 	 ldr r3,[r7,#296]
 706 05a0 013B     	 subs r3,r3,#1
 707 05a2 C7F82831 	 str r3,[r7,#296]
 708              	.L13:
 283:../Dave/Generated/CMSIS_DSP/FilteringFunctions/arm_conv_opt_q7.c ****     {
 709              	 .loc 1 283 0
 710 05a6 D7F82831 	 ldr r3,[r7,#296]
 711 05aa 002B     	 cmp r3,#0
 712 05ac 7FF4D5AE 	 bne .L22
 339:../Dave/Generated/CMSIS_DSP/FilteringFunctions/arm_conv_opt_q7.c ****     }
 340:../Dave/Generated/CMSIS_DSP/FilteringFunctions/arm_conv_opt_q7.c **** 
 341:../Dave/Generated/CMSIS_DSP/FilteringFunctions/arm_conv_opt_q7.c **** 
 342:../Dave/Generated/CMSIS_DSP/FilteringFunctions/arm_conv_opt_q7.c **** 
 343:../Dave/Generated/CMSIS_DSP/FilteringFunctions/arm_conv_opt_q7.c ****     /* Update scratch pointer for remaining samples of smaller length sequence */
 344:../Dave/Generated/CMSIS_DSP/FilteringFunctions/arm_conv_opt_q7.c ****     pScr1 -= 4u;
 713              	 .loc 1 344 0
 714 05b0 07F11803 	 add r3,r7,#24
 715 05b4 1B68     	 ldr r3,[r3]
 716 05b6 A3F10802 	 sub r2,r3,#8
 717 05ba 07F11803 	 add r3,r7,#24
 718 05be 1A60     	 str r2,[r3]
 345:../Dave/Generated/CMSIS_DSP/FilteringFunctions/arm_conv_opt_q7.c **** 
 346:../Dave/Generated/CMSIS_DSP/FilteringFunctions/arm_conv_opt_q7.c **** 
 347:../Dave/Generated/CMSIS_DSP/FilteringFunctions/arm_conv_opt_q7.c ****     /* apply same above for remaining samples of smaller length sequence */
 348:../Dave/Generated/CMSIS_DSP/FilteringFunctions/arm_conv_opt_q7.c ****     tapCnt = (srcBLen) & 3u;
 719              	 .loc 1 348 0
 720 05c0 3B46     	 mov r3,r7
 721 05c2 1B68     	 ldr r3,[r3]
 722 05c4 03F00303 	 and r3,r3,#3
 723 05c8 C7F82831 	 str r3,[r7,#296]
 349:../Dave/Generated/CMSIS_DSP/FilteringFunctions/arm_conv_opt_q7.c **** 
 350:../Dave/Generated/CMSIS_DSP/FilteringFunctions/arm_conv_opt_q7.c ****     while(tapCnt > 0u)
 724              	 .loc 1 350 0
 725 05cc 5EE0     	 b .L23
 726              	.L24:
 351:../Dave/Generated/CMSIS_DSP/FilteringFunctions/arm_conv_opt_q7.c ****     {
 352:../Dave/Generated/CMSIS_DSP/FilteringFunctions/arm_conv_opt_q7.c **** 
 353:../Dave/Generated/CMSIS_DSP/FilteringFunctions/arm_conv_opt_q7.c ****       /* accumlate the results */
 354:../Dave/Generated/CMSIS_DSP/FilteringFunctions/arm_conv_opt_q7.c ****       acc0 += (*pScr1++ * *pScr2);
 727              	 .loc 1 354 0
 728 05ce 07F11803 	 add r3,r7,#24
 729 05d2 1B68     	 ldr r3,[r3]
 730 05d4 991C     	 adds r1,r3,#2
 731 05d6 07F11802 	 add r2,r7,#24
 732 05da 1160     	 str r1,[r2]
 733 05dc 1B88     	 ldrh r3,[r3]
 734 05de 1BB2     	 sxth r3,r3
 735 05e0 D7F83C21 	 ldr r2,[r7,#316]
 736 05e4 1288     	 ldrh r2,[r2]
 737 05e6 12B2     	 sxth r2,r2
 738 05e8 02FB03F3 	 mul r3,r2,r3
 739 05ec D7F82021 	 ldr r2,[r7,#288]
 740 05f0 1344     	 add r3,r3,r2
 741 05f2 C7F82031 	 str r3,[r7,#288]
 355:../Dave/Generated/CMSIS_DSP/FilteringFunctions/arm_conv_opt_q7.c ****       acc1 += (*pScr1++ * *pScr2);
 742              	 .loc 1 355 0
 743 05f6 07F11803 	 add r3,r7,#24
 744 05fa 1B68     	 ldr r3,[r3]
 745 05fc 991C     	 adds r1,r3,#2
 746 05fe 07F11802 	 add r2,r7,#24
 747 0602 1160     	 str r1,[r2]
 748 0604 1B88     	 ldrh r3,[r3]
 749 0606 1BB2     	 sxth r3,r3
 750 0608 D7F83C21 	 ldr r2,[r7,#316]
 751 060c 1288     	 ldrh r2,[r2]
 752 060e 12B2     	 sxth r2,r2
 753 0610 02FB03F3 	 mul r3,r2,r3
 754 0614 D7F81C21 	 ldr r2,[r7,#284]
 755 0618 1344     	 add r3,r3,r2
 756 061a C7F81C31 	 str r3,[r7,#284]
 356:../Dave/Generated/CMSIS_DSP/FilteringFunctions/arm_conv_opt_q7.c ****       acc2 += (*pScr1++ * *pScr2);
 757              	 .loc 1 356 0
 758 061e 07F11803 	 add r3,r7,#24
 759 0622 1B68     	 ldr r3,[r3]
 760 0624 991C     	 adds r1,r3,#2
 761 0626 07F11802 	 add r2,r7,#24
 762 062a 1160     	 str r1,[r2]
 763 062c 1B88     	 ldrh r3,[r3]
 764 062e 1BB2     	 sxth r3,r3
 765 0630 D7F83C21 	 ldr r2,[r7,#316]
 766 0634 1288     	 ldrh r2,[r2]
 767 0636 12B2     	 sxth r2,r2
 768 0638 02FB03F3 	 mul r3,r2,r3
 769 063c D7F81821 	 ldr r2,[r7,#280]
 770 0640 1344     	 add r3,r3,r2
 771 0642 C7F81831 	 str r3,[r7,#280]
 357:../Dave/Generated/CMSIS_DSP/FilteringFunctions/arm_conv_opt_q7.c ****       acc3 += (*pScr1++ * *pScr2++);
 772              	 .loc 1 357 0
 773 0646 07F11803 	 add r3,r7,#24
 774 064a 1B68     	 ldr r3,[r3]
 775 064c 991C     	 adds r1,r3,#2
 776 064e 07F11802 	 add r2,r7,#24
 777 0652 1160     	 str r1,[r2]
 778 0654 1B88     	 ldrh r3,[r3]
 779 0656 1AB2     	 sxth r2,r3
 780 0658 D7F83C31 	 ldr r3,[r7,#316]
 781 065c 991C     	 adds r1,r3,#2
 782 065e C7F83C11 	 str r1,[r7,#316]
 783 0662 1B88     	 ldrh r3,[r3]
 784 0664 1BB2     	 sxth r3,r3
 785 0666 03FB02F3 	 mul r3,r3,r2
 786 066a D7F81421 	 ldr r2,[r7,#276]
 787 066e 1344     	 add r3,r3,r2
 788 0670 C7F81431 	 str r3,[r7,#276]
 358:../Dave/Generated/CMSIS_DSP/FilteringFunctions/arm_conv_opt_q7.c **** 
 359:../Dave/Generated/CMSIS_DSP/FilteringFunctions/arm_conv_opt_q7.c ****       pScr1 -= 3u;
 789              	 .loc 1 359 0
 790 0674 07F11803 	 add r3,r7,#24
 791 0678 1B68     	 ldr r3,[r3]
 792 067a 9A1F     	 subs r2,r3,#6
 793 067c 07F11803 	 add r3,r7,#24
 794 0680 1A60     	 str r2,[r3]
 360:../Dave/Generated/CMSIS_DSP/FilteringFunctions/arm_conv_opt_q7.c **** 
 361:../Dave/Generated/CMSIS_DSP/FilteringFunctions/arm_conv_opt_q7.c ****       /* Decrement the loop counter */
 362:../Dave/Generated/CMSIS_DSP/FilteringFunctions/arm_conv_opt_q7.c ****       tapCnt--;
 795              	 .loc 1 362 0
 796 0682 D7F82831 	 ldr r3,[r7,#296]
 797 0686 013B     	 subs r3,r3,#1
 798 0688 C7F82831 	 str r3,[r7,#296]
 799              	.L23:
 350:../Dave/Generated/CMSIS_DSP/FilteringFunctions/arm_conv_opt_q7.c ****     {
 800              	 .loc 1 350 0
 801 068c D7F82831 	 ldr r3,[r7,#296]
 802 0690 002B     	 cmp r3,#0
 803 0692 9CD1     	 bne .L24
 363:../Dave/Generated/CMSIS_DSP/FilteringFunctions/arm_conv_opt_q7.c ****     }
 364:../Dave/Generated/CMSIS_DSP/FilteringFunctions/arm_conv_opt_q7.c **** 
 365:../Dave/Generated/CMSIS_DSP/FilteringFunctions/arm_conv_opt_q7.c ****     blkCnt--;
 804              	 .loc 1 365 0
 805 0694 D7F82C31 	 ldr r3,[r7,#300]
 806 0698 013B     	 subs r3,r3,#1
 807 069a C7F82C31 	 str r3,[r7,#300]
 808              	.LBB45:
 366:../Dave/Generated/CMSIS_DSP/FilteringFunctions/arm_conv_opt_q7.c **** 
 367:../Dave/Generated/CMSIS_DSP/FilteringFunctions/arm_conv_opt_q7.c ****     /* Store the result in the accumulator in the destination buffer. */
 368:../Dave/Generated/CMSIS_DSP/FilteringFunctions/arm_conv_opt_q7.c ****     out0 = (q7_t) (__SSAT(acc0 >> 7u, 8));
 809              	 .loc 1 368 0
 810 069e D7F82031 	 ldr r3,[r7,#288]
 811 06a2 DB11     	 asrs r3,r3,#7
 812 06a4 C7F8D030 	 str r3,[r7,#208]
 813 06a8 D7F8D030 	 ldr r3,[r7,#208]
 814              	
 815 06ac 03F30703 	 ssat r3,#8,r3
 816              	
 817              	 .thumb
 818 06b0 C7F8CC30 	 str r3,[r7,#204]
 819 06b4 D7F8CC30 	 ldr r3,[r7,#204]
 820              	.LBE45:
 821 06b8 87F8CB30 	 strb r3,[r7,#203]
 822              	.LBB46:
 369:../Dave/Generated/CMSIS_DSP/FilteringFunctions/arm_conv_opt_q7.c ****     out1 = (q7_t) (__SSAT(acc1 >> 7u, 8));
 823              	 .loc 1 369 0
 824 06bc D7F81C31 	 ldr r3,[r7,#284]
 825 06c0 DB11     	 asrs r3,r3,#7
 826 06c2 C7F8C430 	 str r3,[r7,#196]
 827 06c6 D7F8C430 	 ldr r3,[r7,#196]
 828              	
 829 06ca 03F30703 	 ssat r3,#8,r3
 830              	
 831              	 .thumb
 832 06ce C7F8C030 	 str r3,[r7,#192]
 833 06d2 D7F8C030 	 ldr r3,[r7,#192]
 834              	.LBE46:
 835 06d6 87F8BF30 	 strb r3,[r7,#191]
 836              	.LBB47:
 370:../Dave/Generated/CMSIS_DSP/FilteringFunctions/arm_conv_opt_q7.c ****     out2 = (q7_t) (__SSAT(acc2 >> 7u, 8));
 837              	 .loc 1 370 0
 838 06da D7F81831 	 ldr r3,[r7,#280]
 839 06de DB11     	 asrs r3,r3,#7
 840 06e0 C7F8B830 	 str r3,[r7,#184]
 841 06e4 D7F8B830 	 ldr r3,[r7,#184]
 842              	
 843 06e8 03F30703 	 ssat r3,#8,r3
 844              	
 845              	 .thumb
 846 06ec C7F8B430 	 str r3,[r7,#180]
 847 06f0 D7F8B430 	 ldr r3,[r7,#180]
 848              	.LBE47:
 849 06f4 87F8B330 	 strb r3,[r7,#179]
 850              	.LBB48:
 371:../Dave/Generated/CMSIS_DSP/FilteringFunctions/arm_conv_opt_q7.c ****     out3 = (q7_t) (__SSAT(acc3 >> 7u, 8));
 851              	 .loc 1 371 0
 852 06f8 D7F81431 	 ldr r3,[r7,#276]
 853 06fc DB11     	 asrs r3,r3,#7
 854 06fe C7F8AC30 	 str r3,[r7,#172]
 855 0702 D7F8AC30 	 ldr r3,[r7,#172]
 856              	
 857 0706 03F30703 	 ssat r3,#8,r3
 858              	
 859              	 .thumb
 860 070a C7F8A830 	 str r3,[r7,#168]
 861 070e D7F8A830 	 ldr r3,[r7,#168]
 862              	.LBE48:
 863 0712 87F8A730 	 strb r3,[r7,#167]
 372:../Dave/Generated/CMSIS_DSP/FilteringFunctions/arm_conv_opt_q7.c **** 
 373:../Dave/Generated/CMSIS_DSP/FilteringFunctions/arm_conv_opt_q7.c ****     *__SIMD32(pOut)++ = __PACKq7(out0, out1, out2, out3);
 864              	 .loc 1 373 0
 865 0716 07F11402 	 add r2,r7,#20
 866 071a 1368     	 ldr r3,[r2]
 867 071c 191D     	 adds r1,r3,#4
 868 071e 1160     	 str r1,[r2]
 869 0720 97F9CB20 	 ldrsb r2,[r7,#203]
 870 0724 D1B2     	 uxtb r1,r2
 871 0726 97F9BF20 	 ldrsb r2,[r7,#191]
 872 072a 1202     	 lsls r2,r2,#8
 873 072c 92B2     	 uxth r2,r2
 874 072e 1143     	 orrs r1,r1,r2
 875 0730 97F9B320 	 ldrsb r2,[r7,#179]
 876 0734 1204     	 lsls r2,r2,#16
 877 0736 02F47F02 	 and r2,r2,#16711680
 878 073a 1143     	 orrs r1,r1,r2
 879 073c 97F9A720 	 ldrsb r2,[r7,#167]
 880 0740 1206     	 lsls r2,r2,#24
 881 0742 0A43     	 orrs r2,r2,r1
 882 0744 1A60     	 str r2,[r3]
 374:../Dave/Generated/CMSIS_DSP/FilteringFunctions/arm_conv_opt_q7.c **** 
 375:../Dave/Generated/CMSIS_DSP/FilteringFunctions/arm_conv_opt_q7.c ****     /* Initialization of inputB pointer */
 376:../Dave/Generated/CMSIS_DSP/FilteringFunctions/arm_conv_opt_q7.c ****     pScr2 = py;
 883              	 .loc 1 376 0
 884 0746 D7F80031 	 ldr r3,[r7,#256]
 885 074a C7F83C31 	 str r3,[r7,#316]
 377:../Dave/Generated/CMSIS_DSP/FilteringFunctions/arm_conv_opt_q7.c **** 
 378:../Dave/Generated/CMSIS_DSP/FilteringFunctions/arm_conv_opt_q7.c ****     pScratch1 += 4u;
 886              	 .loc 1 378 0
 887 074e D7F85431 	 ldr r3,[r7,#340]
 888 0752 0833     	 adds r3,r3,#8
 889 0754 C7F85431 	 str r3,[r7,#340]
 890              	.L12:
 264:../Dave/Generated/CMSIS_DSP/FilteringFunctions/arm_conv_opt_q7.c ****   {
 891              	 .loc 1 264 0
 892 0758 D7F82C31 	 ldr r3,[r7,#300]
 893 075c 002B     	 cmp r3,#0
 894 075e 7FF4D5AD 	 bne .L25
 379:../Dave/Generated/CMSIS_DSP/FilteringFunctions/arm_conv_opt_q7.c **** 
 380:../Dave/Generated/CMSIS_DSP/FilteringFunctions/arm_conv_opt_q7.c ****   }
 381:../Dave/Generated/CMSIS_DSP/FilteringFunctions/arm_conv_opt_q7.c **** 
 382:../Dave/Generated/CMSIS_DSP/FilteringFunctions/arm_conv_opt_q7.c **** 
 383:../Dave/Generated/CMSIS_DSP/FilteringFunctions/arm_conv_opt_q7.c ****   blkCnt = (srcALen + srcBLen - 1u) & 0x3;
 895              	 .loc 1 383 0
 896 0762 07F10802 	 add r2,r7,#8
 897 0766 3B46     	 mov r3,r7
 898 0768 1268     	 ldr r2,[r2]
 899 076a 1B68     	 ldr r3,[r3]
 900 076c 1344     	 add r3,r3,r2
 901 076e 013B     	 subs r3,r3,#1
 902 0770 03F00303 	 and r3,r3,#3
 903 0774 C7F82C31 	 str r3,[r7,#300]
 384:../Dave/Generated/CMSIS_DSP/FilteringFunctions/arm_conv_opt_q7.c **** 
 385:../Dave/Generated/CMSIS_DSP/FilteringFunctions/arm_conv_opt_q7.c ****   /* Calculate convolution for remaining samples of Bigger length sequence */
 386:../Dave/Generated/CMSIS_DSP/FilteringFunctions/arm_conv_opt_q7.c ****   while(blkCnt > 0)
 904              	 .loc 1 386 0
 905 0778 8FE0     	 b .L26
 906              	.L31:
 387:../Dave/Generated/CMSIS_DSP/FilteringFunctions/arm_conv_opt_q7.c ****   {
 388:../Dave/Generated/CMSIS_DSP/FilteringFunctions/arm_conv_opt_q7.c ****     /* Initialze temporary scratch pointer as scratch1 */
 389:../Dave/Generated/CMSIS_DSP/FilteringFunctions/arm_conv_opt_q7.c ****     pScr1 = pScratch1;
 907              	 .loc 1 389 0
 908 077a 07F11803 	 add r3,r7,#24
 909 077e D7F85421 	 ldr r2,[r7,#340]
 910 0782 1A60     	 str r2,[r3]
 390:../Dave/Generated/CMSIS_DSP/FilteringFunctions/arm_conv_opt_q7.c **** 
 391:../Dave/Generated/CMSIS_DSP/FilteringFunctions/arm_conv_opt_q7.c ****     /* Clear Accumlators */
 392:../Dave/Generated/CMSIS_DSP/FilteringFunctions/arm_conv_opt_q7.c ****     acc0 = 0;
 911              	 .loc 1 392 0
 912 0784 0023     	 movs r3,#0
 913 0786 C7F82031 	 str r3,[r7,#288]
 393:../Dave/Generated/CMSIS_DSP/FilteringFunctions/arm_conv_opt_q7.c **** 
 394:../Dave/Generated/CMSIS_DSP/FilteringFunctions/arm_conv_opt_q7.c ****     tapCnt = (srcBLen) >> 1u;
 914              	 .loc 1 394 0
 915 078a 3B46     	 mov r3,r7
 916 078c 1B68     	 ldr r3,[r3]
 917 078e 5B08     	 lsrs r3,r3,#1
 918 0790 C7F82831 	 str r3,[r7,#296]
 395:../Dave/Generated/CMSIS_DSP/FilteringFunctions/arm_conv_opt_q7.c **** 
 396:../Dave/Generated/CMSIS_DSP/FilteringFunctions/arm_conv_opt_q7.c ****     while(tapCnt > 0u)
 919              	 .loc 1 396 0
 920 0794 32E0     	 b .L27
 921              	.L28:
 397:../Dave/Generated/CMSIS_DSP/FilteringFunctions/arm_conv_opt_q7.c ****     {
 398:../Dave/Generated/CMSIS_DSP/FilteringFunctions/arm_conv_opt_q7.c ****       acc0 += (*pScr1++ * *pScr2++);
 922              	 .loc 1 398 0
 923 0796 07F11803 	 add r3,r7,#24
 924 079a 1B68     	 ldr r3,[r3]
 925 079c 991C     	 adds r1,r3,#2
 926 079e 07F11802 	 add r2,r7,#24
 927 07a2 1160     	 str r1,[r2]
 928 07a4 1B88     	 ldrh r3,[r3]
 929 07a6 1AB2     	 sxth r2,r3
 930 07a8 D7F83C31 	 ldr r3,[r7,#316]
 931 07ac 991C     	 adds r1,r3,#2
 932 07ae C7F83C11 	 str r1,[r7,#316]
 933 07b2 1B88     	 ldrh r3,[r3]
 934 07b4 1BB2     	 sxth r3,r3
 935 07b6 03FB02F3 	 mul r3,r3,r2
 936 07ba D7F82021 	 ldr r2,[r7,#288]
 937 07be 1344     	 add r3,r3,r2
 938 07c0 C7F82031 	 str r3,[r7,#288]
 399:../Dave/Generated/CMSIS_DSP/FilteringFunctions/arm_conv_opt_q7.c ****       acc0 += (*pScr1++ * *pScr2++);
 939              	 .loc 1 399 0
 940 07c4 07F11803 	 add r3,r7,#24
 941 07c8 1B68     	 ldr r3,[r3]
 942 07ca 991C     	 adds r1,r3,#2
 943 07cc 07F11802 	 add r2,r7,#24
 944 07d0 1160     	 str r1,[r2]
 945 07d2 1B88     	 ldrh r3,[r3]
 946 07d4 1AB2     	 sxth r2,r3
 947 07d6 D7F83C31 	 ldr r3,[r7,#316]
 948 07da 991C     	 adds r1,r3,#2
 949 07dc C7F83C11 	 str r1,[r7,#316]
 950 07e0 1B88     	 ldrh r3,[r3]
 951 07e2 1BB2     	 sxth r3,r3
 952 07e4 03FB02F3 	 mul r3,r3,r2
 953 07e8 D7F82021 	 ldr r2,[r7,#288]
 954 07ec 1344     	 add r3,r3,r2
 955 07ee C7F82031 	 str r3,[r7,#288]
 400:../Dave/Generated/CMSIS_DSP/FilteringFunctions/arm_conv_opt_q7.c **** 
 401:../Dave/Generated/CMSIS_DSP/FilteringFunctions/arm_conv_opt_q7.c ****       /* Decrement the loop counter */
 402:../Dave/Generated/CMSIS_DSP/FilteringFunctions/arm_conv_opt_q7.c ****       tapCnt--;
 956              	 .loc 1 402 0
 957 07f2 D7F82831 	 ldr r3,[r7,#296]
 958 07f6 013B     	 subs r3,r3,#1
 959 07f8 C7F82831 	 str r3,[r7,#296]
 960              	.L27:
 396:../Dave/Generated/CMSIS_DSP/FilteringFunctions/arm_conv_opt_q7.c ****     {
 961              	 .loc 1 396 0
 962 07fc D7F82831 	 ldr r3,[r7,#296]
 963 0800 002B     	 cmp r3,#0
 964 0802 C8D1     	 bne .L28
 403:../Dave/Generated/CMSIS_DSP/FilteringFunctions/arm_conv_opt_q7.c ****     }
 404:../Dave/Generated/CMSIS_DSP/FilteringFunctions/arm_conv_opt_q7.c **** 
 405:../Dave/Generated/CMSIS_DSP/FilteringFunctions/arm_conv_opt_q7.c ****     tapCnt = (srcBLen) & 1u;
 965              	 .loc 1 405 0
 966 0804 3B46     	 mov r3,r7
 967 0806 1B68     	 ldr r3,[r3]
 968 0808 03F00103 	 and r3,r3,#1
 969 080c C7F82831 	 str r3,[r7,#296]
 406:../Dave/Generated/CMSIS_DSP/FilteringFunctions/arm_conv_opt_q7.c **** 
 407:../Dave/Generated/CMSIS_DSP/FilteringFunctions/arm_conv_opt_q7.c ****     /* apply same above for remaining samples of smaller length sequence */
 408:../Dave/Generated/CMSIS_DSP/FilteringFunctions/arm_conv_opt_q7.c ****     while(tapCnt > 0u)
 970              	 .loc 1 408 0
 971 0810 1BE0     	 b .L29
 972              	.L30:
 409:../Dave/Generated/CMSIS_DSP/FilteringFunctions/arm_conv_opt_q7.c ****     {
 410:../Dave/Generated/CMSIS_DSP/FilteringFunctions/arm_conv_opt_q7.c **** 
 411:../Dave/Generated/CMSIS_DSP/FilteringFunctions/arm_conv_opt_q7.c ****       /* accumlate the results */
 412:../Dave/Generated/CMSIS_DSP/FilteringFunctions/arm_conv_opt_q7.c ****       acc0 += (*pScr1++ * *pScr2++);
 973              	 .loc 1 412 0
 974 0812 07F11803 	 add r3,r7,#24
 975 0816 1B68     	 ldr r3,[r3]
 976 0818 991C     	 adds r1,r3,#2
 977 081a 07F11802 	 add r2,r7,#24
 978 081e 1160     	 str r1,[r2]
 979 0820 1B88     	 ldrh r3,[r3]
 980 0822 1AB2     	 sxth r2,r3
 981 0824 D7F83C31 	 ldr r3,[r7,#316]
 982 0828 991C     	 adds r1,r3,#2
 983 082a C7F83C11 	 str r1,[r7,#316]
 984 082e 1B88     	 ldrh r3,[r3]
 985 0830 1BB2     	 sxth r3,r3
 986 0832 03FB02F3 	 mul r3,r3,r2
 987 0836 D7F82021 	 ldr r2,[r7,#288]
 988 083a 1344     	 add r3,r3,r2
 989 083c C7F82031 	 str r3,[r7,#288]
 413:../Dave/Generated/CMSIS_DSP/FilteringFunctions/arm_conv_opt_q7.c **** 
 414:../Dave/Generated/CMSIS_DSP/FilteringFunctions/arm_conv_opt_q7.c ****       /* Decrement the loop counter */
 415:../Dave/Generated/CMSIS_DSP/FilteringFunctions/arm_conv_opt_q7.c ****       tapCnt--;
 990              	 .loc 1 415 0
 991 0840 D7F82831 	 ldr r3,[r7,#296]
 992 0844 013B     	 subs r3,r3,#1
 993 0846 C7F82831 	 str r3,[r7,#296]
 994              	.L29:
 408:../Dave/Generated/CMSIS_DSP/FilteringFunctions/arm_conv_opt_q7.c ****     {
 995              	 .loc 1 408 0
 996 084a D7F82831 	 ldr r3,[r7,#296]
 997 084e 002B     	 cmp r3,#0
 998 0850 DFD1     	 bne .L30
 416:../Dave/Generated/CMSIS_DSP/FilteringFunctions/arm_conv_opt_q7.c ****     }
 417:../Dave/Generated/CMSIS_DSP/FilteringFunctions/arm_conv_opt_q7.c **** 
 418:../Dave/Generated/CMSIS_DSP/FilteringFunctions/arm_conv_opt_q7.c ****     blkCnt--;
 999              	 .loc 1 418 0
 1000 0852 D7F82C31 	 ldr r3,[r7,#300]
 1001 0856 013B     	 subs r3,r3,#1
 1002 0858 C7F82C31 	 str r3,[r7,#300]
 419:../Dave/Generated/CMSIS_DSP/FilteringFunctions/arm_conv_opt_q7.c **** 
 420:../Dave/Generated/CMSIS_DSP/FilteringFunctions/arm_conv_opt_q7.c ****     /* Store the result in the accumulator in the destination buffer. */
 421:../Dave/Generated/CMSIS_DSP/FilteringFunctions/arm_conv_opt_q7.c ****     *pOut++ = (q7_t) (__SSAT(acc0 >> 7u, 8));
 1003              	 .loc 1 421 0
 1004 085c 07F11403 	 add r3,r7,#20
 1005 0860 1B68     	 ldr r3,[r3]
 1006 0862 591C     	 adds r1,r3,#1
 1007 0864 07F11402 	 add r2,r7,#20
 1008 0868 1160     	 str r1,[r2]
 1009              	.LBB49:
 1010 086a D7F82021 	 ldr r2,[r7,#288]
 1011 086e D211     	 asrs r2,r2,#7
 1012 0870 C7F8A020 	 str r2,[r7,#160]
 1013 0874 D7F8A020 	 ldr r2,[r7,#160]
 1014              	
 1015 0878 02F30702 	 ssat r2,#8,r2
 1016              	
 1017              	 .thumb
 1018 087c C7F89C20 	 str r2,[r7,#156]
 1019 0880 D7F89C20 	 ldr r2,[r7,#156]
 1020              	.LBE49:
 1021 0884 D2B2     	 uxtb r2,r2
 1022 0886 1A70     	 strb r2,[r3]
 422:../Dave/Generated/CMSIS_DSP/FilteringFunctions/arm_conv_opt_q7.c **** 
 423:../Dave/Generated/CMSIS_DSP/FilteringFunctions/arm_conv_opt_q7.c ****     /* Initialization of inputB pointer */
 424:../Dave/Generated/CMSIS_DSP/FilteringFunctions/arm_conv_opt_q7.c ****     pScr2 = py;
 1023              	 .loc 1 424 0
 1024 0888 D7F80031 	 ldr r3,[r7,#256]
 1025 088c C7F83C31 	 str r3,[r7,#316]
 425:../Dave/Generated/CMSIS_DSP/FilteringFunctions/arm_conv_opt_q7.c **** 
 426:../Dave/Generated/CMSIS_DSP/FilteringFunctions/arm_conv_opt_q7.c ****     pScratch1 += 1u;
 1026              	 .loc 1 426 0
 1027 0890 D7F85431 	 ldr r3,[r7,#340]
 1028 0894 0233     	 adds r3,r3,#2
 1029 0896 C7F85431 	 str r3,[r7,#340]
 1030              	.L26:
 386:../Dave/Generated/CMSIS_DSP/FilteringFunctions/arm_conv_opt_q7.c ****   {
 1031              	 .loc 1 386 0
 1032 089a D7F82C31 	 ldr r3,[r7,#300]
 1033 089e 002B     	 cmp r3,#0
 1034 08a0 7FF46BAF 	 bne .L31
 427:../Dave/Generated/CMSIS_DSP/FilteringFunctions/arm_conv_opt_q7.c **** 
 428:../Dave/Generated/CMSIS_DSP/FilteringFunctions/arm_conv_opt_q7.c ****   }
 429:../Dave/Generated/CMSIS_DSP/FilteringFunctions/arm_conv_opt_q7.c **** 
 430:../Dave/Generated/CMSIS_DSP/FilteringFunctions/arm_conv_opt_q7.c **** }
 1035              	 .loc 1 430 0
 1036 08a4 07F5A277 	 add r7,r7,#324
 1037              	.LCFI3:
 1038              	 .cfi_def_cfa_offset 12
 1039 08a8 BD46     	 mov sp,r7
 1040              	.LCFI4:
 1041              	 .cfi_def_cfa_register 13
 1042              	 
 1043 08aa 90BD     	 pop {r4,r7,pc}
 1044              	 .cfi_endproc
 1045              	.LFE139:
 1047              	 .text
 1048              	.Letext0:
 1049              	 .file 3 "c:\\davev4-64bit\\dave-4.2.6\\eclipse\\arm-gcc-49\\arm-none-eabi\\include\\machine\\_default_types.h"
 1050              	 .file 4 "c:\\davev4-64bit\\dave-4.2.6\\eclipse\\arm-gcc-49\\arm-none-eabi\\include\\stdint.h"
 1051              	 .file 5 "C:\\Users\\Depes Crystalline\\Desktop\\school\\Active_Bike_Lighting_System\\Radar_Core\\Dave\\Generated/CMSIS_DSP/arm_math.h"