   1              	 .syntax unified
   2              	 .cpu cortex-m4
   3              	 .fpu softvfp
   4              	 .eabi_attribute 20,1
   5              	 .eabi_attribute 21,1
   6              	 .eabi_attribute 23,3
   7              	 .eabi_attribute 24,1
   8              	 .eabi_attribute 25,1
   9              	 .eabi_attribute 26,1
  10              	 .eabi_attribute 30,6
  11              	 .eabi_attribute 34,1
  12              	 .eabi_attribute 18,4
  13              	 .thumb
  14              	 .file "arm_conv_partial_fast_opt_q15.c"
  15              	 .text
  16              	.Ltext0:
  17              	 .cfi_sections .debug_frame
  18              	 .section .text.arm_conv_partial_fast_opt_q15,"ax",%progbits
  19              	 .align 2
  20              	 .global arm_conv_partial_fast_opt_q15
  21              	 .thumb
  22              	 .thumb_func
  24              	arm_conv_partial_fast_opt_q15:
  25              	.LFB139:
  26              	 .file 1 "../Dave/Generated/CMSIS_DSP/FilteringFunctions/arm_conv_partial_fast_opt_q15.c"
   1:../Dave/Generated/CMSIS_DSP/FilteringFunctions/arm_conv_partial_fast_opt_q15.c **** /* ----------------------------------------------------------------------    
   2:../Dave/Generated/CMSIS_DSP/FilteringFunctions/arm_conv_partial_fast_opt_q15.c **** * Copyright (C) 2010-2014 ARM Limited. All rights reserved.    
   3:../Dave/Generated/CMSIS_DSP/FilteringFunctions/arm_conv_partial_fast_opt_q15.c **** *    
   4:../Dave/Generated/CMSIS_DSP/FilteringFunctions/arm_conv_partial_fast_opt_q15.c **** * $Date:        12. March 2014
   5:../Dave/Generated/CMSIS_DSP/FilteringFunctions/arm_conv_partial_fast_opt_q15.c **** * $Revision: 	V1.4.4
   6:../Dave/Generated/CMSIS_DSP/FilteringFunctions/arm_conv_partial_fast_opt_q15.c **** *    
   7:../Dave/Generated/CMSIS_DSP/FilteringFunctions/arm_conv_partial_fast_opt_q15.c **** * Project: 	    CMSIS DSP Library    
   8:../Dave/Generated/CMSIS_DSP/FilteringFunctions/arm_conv_partial_fast_opt_q15.c **** * Title:		arm_conv_partial_fast_opt_q15.c    
   9:../Dave/Generated/CMSIS_DSP/FilteringFunctions/arm_conv_partial_fast_opt_q15.c **** *    
  10:../Dave/Generated/CMSIS_DSP/FilteringFunctions/arm_conv_partial_fast_opt_q15.c **** * Description:	Fast Q15 Partial convolution.    
  11:../Dave/Generated/CMSIS_DSP/FilteringFunctions/arm_conv_partial_fast_opt_q15.c **** *    
  12:../Dave/Generated/CMSIS_DSP/FilteringFunctions/arm_conv_partial_fast_opt_q15.c **** * Target Processor: Cortex-M4/Cortex-M3
  13:../Dave/Generated/CMSIS_DSP/FilteringFunctions/arm_conv_partial_fast_opt_q15.c **** *  
  14:../Dave/Generated/CMSIS_DSP/FilteringFunctions/arm_conv_partial_fast_opt_q15.c **** * Redistribution and use in source and binary forms, with or without 
  15:../Dave/Generated/CMSIS_DSP/FilteringFunctions/arm_conv_partial_fast_opt_q15.c **** * modification, are permitted provided that the following conditions
  16:../Dave/Generated/CMSIS_DSP/FilteringFunctions/arm_conv_partial_fast_opt_q15.c **** * are met:
  17:../Dave/Generated/CMSIS_DSP/FilteringFunctions/arm_conv_partial_fast_opt_q15.c **** *   - Redistributions of source code must retain the above copyright
  18:../Dave/Generated/CMSIS_DSP/FilteringFunctions/arm_conv_partial_fast_opt_q15.c **** *     notice, this list of conditions and the following disclaimer.
  19:../Dave/Generated/CMSIS_DSP/FilteringFunctions/arm_conv_partial_fast_opt_q15.c **** *   - Redistributions in binary form must reproduce the above copyright
  20:../Dave/Generated/CMSIS_DSP/FilteringFunctions/arm_conv_partial_fast_opt_q15.c **** *     notice, this list of conditions and the following disclaimer in
  21:../Dave/Generated/CMSIS_DSP/FilteringFunctions/arm_conv_partial_fast_opt_q15.c **** *     the documentation and/or other materials provided with the 
  22:../Dave/Generated/CMSIS_DSP/FilteringFunctions/arm_conv_partial_fast_opt_q15.c **** *     distribution.
  23:../Dave/Generated/CMSIS_DSP/FilteringFunctions/arm_conv_partial_fast_opt_q15.c **** *   - Neither the name of ARM LIMITED nor the names of its contributors
  24:../Dave/Generated/CMSIS_DSP/FilteringFunctions/arm_conv_partial_fast_opt_q15.c **** *     may be used to endorse or promote products derived from this
  25:../Dave/Generated/CMSIS_DSP/FilteringFunctions/arm_conv_partial_fast_opt_q15.c **** *     software without specific prior written permission.
  26:../Dave/Generated/CMSIS_DSP/FilteringFunctions/arm_conv_partial_fast_opt_q15.c **** *
  27:../Dave/Generated/CMSIS_DSP/FilteringFunctions/arm_conv_partial_fast_opt_q15.c **** * THIS SOFTWARE IS PROVIDED BY THE COPYRIGHT HOLDERS AND CONTRIBUTORS
  28:../Dave/Generated/CMSIS_DSP/FilteringFunctions/arm_conv_partial_fast_opt_q15.c **** * "AS IS" AND ANY EXPRESS OR IMPLIED WARRANTIES, INCLUDING, BUT NOT
  29:../Dave/Generated/CMSIS_DSP/FilteringFunctions/arm_conv_partial_fast_opt_q15.c **** * LIMITED TO, THE IMPLIED WARRANTIES OF MERCHANTABILITY AND FITNESS
  30:../Dave/Generated/CMSIS_DSP/FilteringFunctions/arm_conv_partial_fast_opt_q15.c **** * FOR A PARTICULAR PURPOSE ARE DISCLAIMED. IN NO EVENT SHALL THE 
  31:../Dave/Generated/CMSIS_DSP/FilteringFunctions/arm_conv_partial_fast_opt_q15.c **** * COPYRIGHT OWNER OR CONTRIBUTORS BE LIABLE FOR ANY DIRECT, INDIRECT,
  32:../Dave/Generated/CMSIS_DSP/FilteringFunctions/arm_conv_partial_fast_opt_q15.c **** * INCIDENTAL, SPECIAL, EXEMPLARY, OR CONSEQUENTIAL DAMAGES (INCLUDING,
  33:../Dave/Generated/CMSIS_DSP/FilteringFunctions/arm_conv_partial_fast_opt_q15.c **** * BUT NOT LIMITED TO, PROCUREMENT OF SUBSTITUTE GOODS OR SERVICES;
  34:../Dave/Generated/CMSIS_DSP/FilteringFunctions/arm_conv_partial_fast_opt_q15.c **** * LOSS OF USE, DATA, OR PROFITS; OR BUSINESS INTERRUPTION) HOWEVER
  35:../Dave/Generated/CMSIS_DSP/FilteringFunctions/arm_conv_partial_fast_opt_q15.c **** * CAUSED AND ON ANY THEORY OF LIABILITY, WHETHER IN CONTRACT, STRICT
  36:../Dave/Generated/CMSIS_DSP/FilteringFunctions/arm_conv_partial_fast_opt_q15.c **** * LIABILITY, OR TORT (INCLUDING NEGLIGENCE OR OTHERWISE) ARISING IN
  37:../Dave/Generated/CMSIS_DSP/FilteringFunctions/arm_conv_partial_fast_opt_q15.c **** * ANY WAY OUT OF THE USE OF THIS SOFTWARE, EVEN IF ADVISED OF THE
  38:../Dave/Generated/CMSIS_DSP/FilteringFunctions/arm_conv_partial_fast_opt_q15.c **** * POSSIBILITY OF SUCH DAMAGE.     
  39:../Dave/Generated/CMSIS_DSP/FilteringFunctions/arm_conv_partial_fast_opt_q15.c **** * -------------------------------------------------------------------- */
  40:../Dave/Generated/CMSIS_DSP/FilteringFunctions/arm_conv_partial_fast_opt_q15.c **** 
  41:../Dave/Generated/CMSIS_DSP/FilteringFunctions/arm_conv_partial_fast_opt_q15.c **** #include "CMSIS_DSP/cmsis_dsp.h"
  42:../Dave/Generated/CMSIS_DSP/FilteringFunctions/arm_conv_partial_fast_opt_q15.c **** 
  43:../Dave/Generated/CMSIS_DSP/FilteringFunctions/arm_conv_partial_fast_opt_q15.c **** /**    
  44:../Dave/Generated/CMSIS_DSP/FilteringFunctions/arm_conv_partial_fast_opt_q15.c ****  * @ingroup groupFilters    
  45:../Dave/Generated/CMSIS_DSP/FilteringFunctions/arm_conv_partial_fast_opt_q15.c ****  */
  46:../Dave/Generated/CMSIS_DSP/FilteringFunctions/arm_conv_partial_fast_opt_q15.c **** 
  47:../Dave/Generated/CMSIS_DSP/FilteringFunctions/arm_conv_partial_fast_opt_q15.c **** /**    
  48:../Dave/Generated/CMSIS_DSP/FilteringFunctions/arm_conv_partial_fast_opt_q15.c ****  * @addtogroup PartialConv    
  49:../Dave/Generated/CMSIS_DSP/FilteringFunctions/arm_conv_partial_fast_opt_q15.c ****  * @{    
  50:../Dave/Generated/CMSIS_DSP/FilteringFunctions/arm_conv_partial_fast_opt_q15.c ****  */
  51:../Dave/Generated/CMSIS_DSP/FilteringFunctions/arm_conv_partial_fast_opt_q15.c **** 
  52:../Dave/Generated/CMSIS_DSP/FilteringFunctions/arm_conv_partial_fast_opt_q15.c **** /**    
  53:../Dave/Generated/CMSIS_DSP/FilteringFunctions/arm_conv_partial_fast_opt_q15.c ****  * @brief Partial convolution of Q15 sequences (fast version) for Cortex-M3 and Cortex-M4.    
  54:../Dave/Generated/CMSIS_DSP/FilteringFunctions/arm_conv_partial_fast_opt_q15.c ****  * @param[in]       *pSrcA points to the first input sequence.    
  55:../Dave/Generated/CMSIS_DSP/FilteringFunctions/arm_conv_partial_fast_opt_q15.c ****  * @param[in]       srcALen length of the first input sequence.    
  56:../Dave/Generated/CMSIS_DSP/FilteringFunctions/arm_conv_partial_fast_opt_q15.c ****  * @param[in]       *pSrcB points to the second input sequence.    
  57:../Dave/Generated/CMSIS_DSP/FilteringFunctions/arm_conv_partial_fast_opt_q15.c ****  * @param[in]       srcBLen length of the second input sequence.    
  58:../Dave/Generated/CMSIS_DSP/FilteringFunctions/arm_conv_partial_fast_opt_q15.c ****  * @param[out]      *pDst points to the location where the output result is written.    
  59:../Dave/Generated/CMSIS_DSP/FilteringFunctions/arm_conv_partial_fast_opt_q15.c ****  * @param[in]       firstIndex is the first output sample to start with.    
  60:../Dave/Generated/CMSIS_DSP/FilteringFunctions/arm_conv_partial_fast_opt_q15.c ****  * @param[in]       numPoints is the number of output points to be computed.    
  61:../Dave/Generated/CMSIS_DSP/FilteringFunctions/arm_conv_partial_fast_opt_q15.c ****  * @param[in]       *pScratch1 points to scratch buffer of size max(srcALen, srcBLen) + 2*min(srcAL
  62:../Dave/Generated/CMSIS_DSP/FilteringFunctions/arm_conv_partial_fast_opt_q15.c ****  * @param[in]       *pScratch2 points to scratch buffer of size min(srcALen, srcBLen).   
  63:../Dave/Generated/CMSIS_DSP/FilteringFunctions/arm_conv_partial_fast_opt_q15.c ****  * @return Returns either ARM_MATH_SUCCESS if the function completed correctly or ARM_MATH_ARGUMENT
  64:../Dave/Generated/CMSIS_DSP/FilteringFunctions/arm_conv_partial_fast_opt_q15.c ****  *    
  65:../Dave/Generated/CMSIS_DSP/FilteringFunctions/arm_conv_partial_fast_opt_q15.c ****  * See <code>arm_conv_partial_q15()</code> for a slower implementation of this function which uses 
  66:../Dave/Generated/CMSIS_DSP/FilteringFunctions/arm_conv_partial_fast_opt_q15.c ****  *    
  67:../Dave/Generated/CMSIS_DSP/FilteringFunctions/arm_conv_partial_fast_opt_q15.c ****  * \par Restrictions    
  68:../Dave/Generated/CMSIS_DSP/FilteringFunctions/arm_conv_partial_fast_opt_q15.c ****  *  If the silicon does not support unaligned memory access enable the macro UNALIGNED_SUPPORT_DISA
  69:../Dave/Generated/CMSIS_DSP/FilteringFunctions/arm_conv_partial_fast_opt_q15.c ****  *	In this case input, output, scratch1 and scratch2 buffers should be aligned by 32-bit    
  70:../Dave/Generated/CMSIS_DSP/FilteringFunctions/arm_conv_partial_fast_opt_q15.c ****  *     
  71:../Dave/Generated/CMSIS_DSP/FilteringFunctions/arm_conv_partial_fast_opt_q15.c ****  */
  72:../Dave/Generated/CMSIS_DSP/FilteringFunctions/arm_conv_partial_fast_opt_q15.c **** 
  73:../Dave/Generated/CMSIS_DSP/FilteringFunctions/arm_conv_partial_fast_opt_q15.c **** #ifndef UNALIGNED_SUPPORT_DISABLE
  74:../Dave/Generated/CMSIS_DSP/FilteringFunctions/arm_conv_partial_fast_opt_q15.c **** 
  75:../Dave/Generated/CMSIS_DSP/FilteringFunctions/arm_conv_partial_fast_opt_q15.c **** arm_status arm_conv_partial_fast_opt_q15(
  76:../Dave/Generated/CMSIS_DSP/FilteringFunctions/arm_conv_partial_fast_opt_q15.c ****   q15_t * pSrcA,
  77:../Dave/Generated/CMSIS_DSP/FilteringFunctions/arm_conv_partial_fast_opt_q15.c ****   uint32_t srcALen,
  78:../Dave/Generated/CMSIS_DSP/FilteringFunctions/arm_conv_partial_fast_opt_q15.c ****   q15_t * pSrcB,
  79:../Dave/Generated/CMSIS_DSP/FilteringFunctions/arm_conv_partial_fast_opt_q15.c ****   uint32_t srcBLen,
  80:../Dave/Generated/CMSIS_DSP/FilteringFunctions/arm_conv_partial_fast_opt_q15.c ****   q15_t * pDst,
  81:../Dave/Generated/CMSIS_DSP/FilteringFunctions/arm_conv_partial_fast_opt_q15.c ****   uint32_t firstIndex,
  82:../Dave/Generated/CMSIS_DSP/FilteringFunctions/arm_conv_partial_fast_opt_q15.c ****   uint32_t numPoints,
  83:../Dave/Generated/CMSIS_DSP/FilteringFunctions/arm_conv_partial_fast_opt_q15.c ****   q15_t * pScratch1,
  84:../Dave/Generated/CMSIS_DSP/FilteringFunctions/arm_conv_partial_fast_opt_q15.c ****   q15_t * pScratch2)
  85:../Dave/Generated/CMSIS_DSP/FilteringFunctions/arm_conv_partial_fast_opt_q15.c **** {
  27              	 .loc 1 85 0
  28              	 .cfi_startproc
  29              	 
  30              	 
  31 0000 90B5     	 push {r4,r7,lr}
  32              	.LCFI0:
  33              	 .cfi_def_cfa_offset 12
  34              	 .cfi_offset 4,-12
  35              	 .cfi_offset 7,-8
  36              	 .cfi_offset 14,-4
  37 0002 D7B0     	 sub sp,sp,#348
  38              	.LCFI1:
  39              	 .cfi_def_cfa_offset 360
  40 0004 00AF     	 add r7,sp,#0
  41              	.LCFI2:
  42              	 .cfi_def_cfa_register 7
  43 0006 07F10C04 	 add r4,r7,#12
  44 000a 2060     	 str r0,[r4]
  45 000c 07F10800 	 add r0,r7,#8
  46 0010 0160     	 str r1,[r0]
  47 0012 391D     	 adds r1,r7,#4
  48 0014 0A60     	 str r2,[r1]
  49 0016 3A46     	 mov r2,r7
  50 0018 1360     	 str r3,[r2]
  86:../Dave/Generated/CMSIS_DSP/FilteringFunctions/arm_conv_partial_fast_opt_q15.c **** 
  87:../Dave/Generated/CMSIS_DSP/FilteringFunctions/arm_conv_partial_fast_opt_q15.c ****   q15_t *pOut = pDst;                            /* output pointer */
  51              	 .loc 1 87 0
  52 001a 07F11803 	 add r3,r7,#24
  53 001e D7F86821 	 ldr r2,[r7,#360]
  54 0022 1A60     	 str r2,[r3]
  88:../Dave/Generated/CMSIS_DSP/FilteringFunctions/arm_conv_partial_fast_opt_q15.c ****   q15_t *pScr1 = pScratch1;                      /* Temporary pointer for scratch1 */
  55              	 .loc 1 88 0
  56 0024 07F11403 	 add r3,r7,#20
  57 0028 D7F87421 	 ldr r2,[r7,#372]
  58 002c 1A60     	 str r2,[r3]
  89:../Dave/Generated/CMSIS_DSP/FilteringFunctions/arm_conv_partial_fast_opt_q15.c ****   q15_t *pScr2 = pScratch2;                      /* Temporary pointer for scratch1 */
  59              	 .loc 1 89 0
  60 002e D7F87831 	 ldr r3,[r7,#376]
  61 0032 C7F85431 	 str r3,[r7,#340]
  90:../Dave/Generated/CMSIS_DSP/FilteringFunctions/arm_conv_partial_fast_opt_q15.c ****   q31_t acc0, acc1, acc2, acc3;                  /* Accumulator */
  91:../Dave/Generated/CMSIS_DSP/FilteringFunctions/arm_conv_partial_fast_opt_q15.c ****   q31_t x1, x2, x3;                              /* Temporary variables to hold state and coefficie
  92:../Dave/Generated/CMSIS_DSP/FilteringFunctions/arm_conv_partial_fast_opt_q15.c ****   q31_t y1, y2;                                  /* State variables */
  93:../Dave/Generated/CMSIS_DSP/FilteringFunctions/arm_conv_partial_fast_opt_q15.c ****   q15_t *pIn1;                                   /* inputA pointer */
  94:../Dave/Generated/CMSIS_DSP/FilteringFunctions/arm_conv_partial_fast_opt_q15.c ****   q15_t *pIn2;                                   /* inputB pointer */
  95:../Dave/Generated/CMSIS_DSP/FilteringFunctions/arm_conv_partial_fast_opt_q15.c ****   q15_t *px;                                     /* Intermediate inputA pointer  */
  96:../Dave/Generated/CMSIS_DSP/FilteringFunctions/arm_conv_partial_fast_opt_q15.c ****   q15_t *py;                                     /* Intermediate inputB pointer  */
  97:../Dave/Generated/CMSIS_DSP/FilteringFunctions/arm_conv_partial_fast_opt_q15.c ****   uint32_t j, k, blkCnt;                         /* loop counter */
  98:../Dave/Generated/CMSIS_DSP/FilteringFunctions/arm_conv_partial_fast_opt_q15.c ****   arm_status status;
  99:../Dave/Generated/CMSIS_DSP/FilteringFunctions/arm_conv_partial_fast_opt_q15.c **** 
 100:../Dave/Generated/CMSIS_DSP/FilteringFunctions/arm_conv_partial_fast_opt_q15.c ****   uint32_t tapCnt;                               /* loop count */
 101:../Dave/Generated/CMSIS_DSP/FilteringFunctions/arm_conv_partial_fast_opt_q15.c **** 
 102:../Dave/Generated/CMSIS_DSP/FilteringFunctions/arm_conv_partial_fast_opt_q15.c ****   /* Check for range of output samples to be calculated */
 103:../Dave/Generated/CMSIS_DSP/FilteringFunctions/arm_conv_partial_fast_opt_q15.c ****   if((firstIndex + numPoints) > ((srcALen + (srcBLen - 1u))))
  62              	 .loc 1 103 0
  63 0036 D7F86C21 	 ldr r2,[r7,#364]
  64 003a D7F87031 	 ldr r3,[r7,#368]
  65 003e 1A44     	 add r2,r2,r3
  66 0040 3946     	 mov r1,r7
  67 0042 07F10803 	 add r3,r7,#8
  68 0046 0968     	 ldr r1,[r1]
  69 0048 1B68     	 ldr r3,[r3]
  70 004a 0B44     	 add r3,r3,r1
  71 004c 013B     	 subs r3,r3,#1
  72 004e 9A42     	 cmp r2,r3
  73 0050 03D9     	 bls .L2
 104:../Dave/Generated/CMSIS_DSP/FilteringFunctions/arm_conv_partial_fast_opt_q15.c ****   {
 105:../Dave/Generated/CMSIS_DSP/FilteringFunctions/arm_conv_partial_fast_opt_q15.c ****     /* Set status as ARM_MATH_ARGUMENT_ERROR */
 106:../Dave/Generated/CMSIS_DSP/FilteringFunctions/arm_conv_partial_fast_opt_q15.c ****     status = ARM_MATH_ARGUMENT_ERROR;
  74              	 .loc 1 106 0
  75 0052 FF23     	 movs r3,#255
  76 0054 87F82B31 	 strb r3,[r7,#299]
  77 0058 F7E3     	 b .L3
  78              	.L2:
 107:../Dave/Generated/CMSIS_DSP/FilteringFunctions/arm_conv_partial_fast_opt_q15.c ****   }
 108:../Dave/Generated/CMSIS_DSP/FilteringFunctions/arm_conv_partial_fast_opt_q15.c ****   else
 109:../Dave/Generated/CMSIS_DSP/FilteringFunctions/arm_conv_partial_fast_opt_q15.c ****   {
 110:../Dave/Generated/CMSIS_DSP/FilteringFunctions/arm_conv_partial_fast_opt_q15.c **** 
 111:../Dave/Generated/CMSIS_DSP/FilteringFunctions/arm_conv_partial_fast_opt_q15.c ****     /* The algorithm implementation is based on the lengths of the inputs. */
 112:../Dave/Generated/CMSIS_DSP/FilteringFunctions/arm_conv_partial_fast_opt_q15.c ****     /* srcB is always made to slide across srcA. */
 113:../Dave/Generated/CMSIS_DSP/FilteringFunctions/arm_conv_partial_fast_opt_q15.c ****     /* So srcBLen is always considered as shorter or equal to srcALen */
 114:../Dave/Generated/CMSIS_DSP/FilteringFunctions/arm_conv_partial_fast_opt_q15.c ****     if(srcALen >= srcBLen)
  79              	 .loc 1 114 0
  80 005a 07F10802 	 add r2,r7,#8
  81 005e 3B46     	 mov r3,r7
  82 0060 1268     	 ldr r2,[r2]
  83 0062 1B68     	 ldr r3,[r3]
  84 0064 9A42     	 cmp r2,r3
  85 0066 0AD3     	 bcc .L4
 115:../Dave/Generated/CMSIS_DSP/FilteringFunctions/arm_conv_partial_fast_opt_q15.c ****     {
 116:../Dave/Generated/CMSIS_DSP/FilteringFunctions/arm_conv_partial_fast_opt_q15.c ****       /* Initialization of inputA pointer */
 117:../Dave/Generated/CMSIS_DSP/FilteringFunctions/arm_conv_partial_fast_opt_q15.c ****       pIn1 = pSrcA;
  86              	 .loc 1 117 0
  87 0068 07F10C03 	 add r3,r7,#12
  88 006c 1B68     	 ldr r3,[r3]
  89 006e C7F83831 	 str r3,[r7,#312]
 118:../Dave/Generated/CMSIS_DSP/FilteringFunctions/arm_conv_partial_fast_opt_q15.c **** 
 119:../Dave/Generated/CMSIS_DSP/FilteringFunctions/arm_conv_partial_fast_opt_q15.c ****       /* Initialization of inputB pointer */
 120:../Dave/Generated/CMSIS_DSP/FilteringFunctions/arm_conv_partial_fast_opt_q15.c ****       pIn2 = pSrcB;
  90              	 .loc 1 120 0
  91 0072 07F11003 	 add r3,r7,#16
  92 0076 3A1D     	 adds r2,r7,#4
  93 0078 1268     	 ldr r2,[r2]
  94 007a 1A60     	 str r2,[r3]
  95 007c 17E0     	 b .L5
  96              	.L4:
 121:../Dave/Generated/CMSIS_DSP/FilteringFunctions/arm_conv_partial_fast_opt_q15.c ****     }
 122:../Dave/Generated/CMSIS_DSP/FilteringFunctions/arm_conv_partial_fast_opt_q15.c ****     else
 123:../Dave/Generated/CMSIS_DSP/FilteringFunctions/arm_conv_partial_fast_opt_q15.c ****     {
 124:../Dave/Generated/CMSIS_DSP/FilteringFunctions/arm_conv_partial_fast_opt_q15.c ****       /* Initialization of inputA pointer */
 125:../Dave/Generated/CMSIS_DSP/FilteringFunctions/arm_conv_partial_fast_opt_q15.c ****       pIn1 = pSrcB;
  97              	 .loc 1 125 0
  98 007e 3B1D     	 adds r3,r7,#4
  99 0080 1B68     	 ldr r3,[r3]
 100 0082 C7F83831 	 str r3,[r7,#312]
 126:../Dave/Generated/CMSIS_DSP/FilteringFunctions/arm_conv_partial_fast_opt_q15.c **** 
 127:../Dave/Generated/CMSIS_DSP/FilteringFunctions/arm_conv_partial_fast_opt_q15.c ****       /* Initialization of inputB pointer */
 128:../Dave/Generated/CMSIS_DSP/FilteringFunctions/arm_conv_partial_fast_opt_q15.c ****       pIn2 = pSrcA;
 101              	 .loc 1 128 0
 102 0086 07F11003 	 add r3,r7,#16
 103 008a 07F10C02 	 add r2,r7,#12
 104 008e 1268     	 ldr r2,[r2]
 105 0090 1A60     	 str r2,[r3]
 129:../Dave/Generated/CMSIS_DSP/FilteringFunctions/arm_conv_partial_fast_opt_q15.c **** 
 130:../Dave/Generated/CMSIS_DSP/FilteringFunctions/arm_conv_partial_fast_opt_q15.c ****       /* srcBLen is always considered as shorter or equal to srcALen */
 131:../Dave/Generated/CMSIS_DSP/FilteringFunctions/arm_conv_partial_fast_opt_q15.c ****       j = srcBLen;
 106              	 .loc 1 131 0
 107 0092 3B46     	 mov r3,r7
 108 0094 1B68     	 ldr r3,[r3]
 109 0096 C7F82031 	 str r3,[r7,#288]
 132:../Dave/Generated/CMSIS_DSP/FilteringFunctions/arm_conv_partial_fast_opt_q15.c ****       srcBLen = srcALen;
 110              	 .loc 1 132 0
 111 009a 3B46     	 mov r3,r7
 112 009c 07F10802 	 add r2,r7,#8
 113 00a0 1268     	 ldr r2,[r2]
 114 00a2 1A60     	 str r2,[r3]
 133:../Dave/Generated/CMSIS_DSP/FilteringFunctions/arm_conv_partial_fast_opt_q15.c ****       srcALen = j;
 115              	 .loc 1 133 0
 116 00a4 07F10803 	 add r3,r7,#8
 117 00a8 D7F82021 	 ldr r2,[r7,#288]
 118 00ac 1A60     	 str r2,[r3]
 119              	.L5:
 134:../Dave/Generated/CMSIS_DSP/FilteringFunctions/arm_conv_partial_fast_opt_q15.c ****     }
 135:../Dave/Generated/CMSIS_DSP/FilteringFunctions/arm_conv_partial_fast_opt_q15.c **** 
 136:../Dave/Generated/CMSIS_DSP/FilteringFunctions/arm_conv_partial_fast_opt_q15.c ****     /* Temporary pointer for scratch2 */
 137:../Dave/Generated/CMSIS_DSP/FilteringFunctions/arm_conv_partial_fast_opt_q15.c ****     py = pScratch2;
 120              	 .loc 1 137 0
 121 00ae D7F87831 	 ldr r3,[r7,#376]
 122 00b2 C7F81C31 	 str r3,[r7,#284]
 138:../Dave/Generated/CMSIS_DSP/FilteringFunctions/arm_conv_partial_fast_opt_q15.c **** 
 139:../Dave/Generated/CMSIS_DSP/FilteringFunctions/arm_conv_partial_fast_opt_q15.c ****     /* pointer to take end of scratch2 buffer */
 140:../Dave/Generated/CMSIS_DSP/FilteringFunctions/arm_conv_partial_fast_opt_q15.c ****     pScr2 = pScratch2 + srcBLen - 1;
 123              	 .loc 1 140 0
 124 00b6 3B46     	 mov r3,r7
 125 00b8 1B68     	 ldr r3,[r3]
 126 00ba 03F10043 	 add r3,r3,#-2147483648
 127 00be 013B     	 subs r3,r3,#1
 128 00c0 5B00     	 lsls r3,r3,#1
 129 00c2 D7F87821 	 ldr r2,[r7,#376]
 130 00c6 1344     	 add r3,r3,r2
 131 00c8 C7F85431 	 str r3,[r7,#340]
 141:../Dave/Generated/CMSIS_DSP/FilteringFunctions/arm_conv_partial_fast_opt_q15.c **** 
 142:../Dave/Generated/CMSIS_DSP/FilteringFunctions/arm_conv_partial_fast_opt_q15.c ****     /* points to smaller length sequence */
 143:../Dave/Generated/CMSIS_DSP/FilteringFunctions/arm_conv_partial_fast_opt_q15.c ****     px = pIn2;
 132              	 .loc 1 143 0
 133 00cc 07F11003 	 add r3,r7,#16
 134 00d0 1B68     	 ldr r3,[r3]
 135 00d2 C7F83431 	 str r3,[r7,#308]
 144:../Dave/Generated/CMSIS_DSP/FilteringFunctions/arm_conv_partial_fast_opt_q15.c **** 
 145:../Dave/Generated/CMSIS_DSP/FilteringFunctions/arm_conv_partial_fast_opt_q15.c ****     /* Apply loop unrolling and do 4 Copies simultaneously. */
 146:../Dave/Generated/CMSIS_DSP/FilteringFunctions/arm_conv_partial_fast_opt_q15.c ****     k = srcBLen >> 2u;
 136              	 .loc 1 146 0
 137 00d6 3B46     	 mov r3,r7
 138 00d8 1B68     	 ldr r3,[r3]
 139 00da 9B08     	 lsrs r3,r3,#2
 140 00dc C7F83031 	 str r3,[r7,#304]
 147:../Dave/Generated/CMSIS_DSP/FilteringFunctions/arm_conv_partial_fast_opt_q15.c **** 
 148:../Dave/Generated/CMSIS_DSP/FilteringFunctions/arm_conv_partial_fast_opt_q15.c ****     /* First part of the processing with loop unrolling copies 4 data points at a time.       
 149:../Dave/Generated/CMSIS_DSP/FilteringFunctions/arm_conv_partial_fast_opt_q15.c ****      ** a second loop below copies for the remaining 1 to 3 samples. */
 150:../Dave/Generated/CMSIS_DSP/FilteringFunctions/arm_conv_partial_fast_opt_q15.c **** 
 151:../Dave/Generated/CMSIS_DSP/FilteringFunctions/arm_conv_partial_fast_opt_q15.c ****     /* Copy smaller length input sequence in reverse order into second scratch buffer */
 152:../Dave/Generated/CMSIS_DSP/FilteringFunctions/arm_conv_partial_fast_opt_q15.c ****     while(k > 0u)
 141              	 .loc 1 152 0
 142 00e0 34E0     	 b .L6
 143              	.L7:
 153:../Dave/Generated/CMSIS_DSP/FilteringFunctions/arm_conv_partial_fast_opt_q15.c ****     {
 154:../Dave/Generated/CMSIS_DSP/FilteringFunctions/arm_conv_partial_fast_opt_q15.c ****       /* copy second buffer in reversal manner */
 155:../Dave/Generated/CMSIS_DSP/FilteringFunctions/arm_conv_partial_fast_opt_q15.c ****       *pScr2-- = *px++;
 144              	 .loc 1 155 0
 145 00e2 D7F85431 	 ldr r3,[r7,#340]
 146 00e6 9A1E     	 subs r2,r3,#2
 147 00e8 C7F85421 	 str r2,[r7,#340]
 148 00ec D7F83421 	 ldr r2,[r7,#308]
 149 00f0 911C     	 adds r1,r2,#2
 150 00f2 C7F83411 	 str r1,[r7,#308]
 151 00f6 1288     	 ldrh r2,[r2]
 152 00f8 1A80     	 strh r2,[r3]
 156:../Dave/Generated/CMSIS_DSP/FilteringFunctions/arm_conv_partial_fast_opt_q15.c ****       *pScr2-- = *px++;
 153              	 .loc 1 156 0
 154 00fa D7F85431 	 ldr r3,[r7,#340]
 155 00fe 9A1E     	 subs r2,r3,#2
 156 0100 C7F85421 	 str r2,[r7,#340]
 157 0104 D7F83421 	 ldr r2,[r7,#308]
 158 0108 911C     	 adds r1,r2,#2
 159 010a C7F83411 	 str r1,[r7,#308]
 160 010e 1288     	 ldrh r2,[r2]
 161 0110 1A80     	 strh r2,[r3]
 157:../Dave/Generated/CMSIS_DSP/FilteringFunctions/arm_conv_partial_fast_opt_q15.c ****       *pScr2-- = *px++;
 162              	 .loc 1 157 0
 163 0112 D7F85431 	 ldr r3,[r7,#340]
 164 0116 9A1E     	 subs r2,r3,#2
 165 0118 C7F85421 	 str r2,[r7,#340]
 166 011c D7F83421 	 ldr r2,[r7,#308]
 167 0120 911C     	 adds r1,r2,#2
 168 0122 C7F83411 	 str r1,[r7,#308]
 169 0126 1288     	 ldrh r2,[r2]
 170 0128 1A80     	 strh r2,[r3]
 158:../Dave/Generated/CMSIS_DSP/FilteringFunctions/arm_conv_partial_fast_opt_q15.c ****       *pScr2-- = *px++;
 171              	 .loc 1 158 0
 172 012a D7F85431 	 ldr r3,[r7,#340]
 173 012e 9A1E     	 subs r2,r3,#2
 174 0130 C7F85421 	 str r2,[r7,#340]
 175 0134 D7F83421 	 ldr r2,[r7,#308]
 176 0138 911C     	 adds r1,r2,#2
 177 013a C7F83411 	 str r1,[r7,#308]
 178 013e 1288     	 ldrh r2,[r2]
 179 0140 1A80     	 strh r2,[r3]
 159:../Dave/Generated/CMSIS_DSP/FilteringFunctions/arm_conv_partial_fast_opt_q15.c **** 
 160:../Dave/Generated/CMSIS_DSP/FilteringFunctions/arm_conv_partial_fast_opt_q15.c ****       /* Decrement the loop counter */
 161:../Dave/Generated/CMSIS_DSP/FilteringFunctions/arm_conv_partial_fast_opt_q15.c ****       k--;
 180              	 .loc 1 161 0
 181 0142 D7F83031 	 ldr r3,[r7,#304]
 182 0146 013B     	 subs r3,r3,#1
 183 0148 C7F83031 	 str r3,[r7,#304]
 184              	.L6:
 152:../Dave/Generated/CMSIS_DSP/FilteringFunctions/arm_conv_partial_fast_opt_q15.c ****     {
 185              	 .loc 1 152 0
 186 014c D7F83031 	 ldr r3,[r7,#304]
 187 0150 002B     	 cmp r3,#0
 188 0152 C6D1     	 bne .L7
 162:../Dave/Generated/CMSIS_DSP/FilteringFunctions/arm_conv_partial_fast_opt_q15.c ****     }
 163:../Dave/Generated/CMSIS_DSP/FilteringFunctions/arm_conv_partial_fast_opt_q15.c **** 
 164:../Dave/Generated/CMSIS_DSP/FilteringFunctions/arm_conv_partial_fast_opt_q15.c ****     /* If the count is not a multiple of 4, copy remaining samples here.       
 165:../Dave/Generated/CMSIS_DSP/FilteringFunctions/arm_conv_partial_fast_opt_q15.c ****      ** No loop unrolling is used. */
 166:../Dave/Generated/CMSIS_DSP/FilteringFunctions/arm_conv_partial_fast_opt_q15.c ****     k = srcBLen % 0x4u;
 189              	 .loc 1 166 0
 190 0154 3B46     	 mov r3,r7
 191 0156 1B68     	 ldr r3,[r3]
 192 0158 03F00303 	 and r3,r3,#3
 193 015c C7F83031 	 str r3,[r7,#304]
 167:../Dave/Generated/CMSIS_DSP/FilteringFunctions/arm_conv_partial_fast_opt_q15.c **** 
 168:../Dave/Generated/CMSIS_DSP/FilteringFunctions/arm_conv_partial_fast_opt_q15.c ****     while(k > 0u)
 194              	 .loc 1 168 0
 195 0160 10E0     	 b .L8
 196              	.L9:
 169:../Dave/Generated/CMSIS_DSP/FilteringFunctions/arm_conv_partial_fast_opt_q15.c ****     {
 170:../Dave/Generated/CMSIS_DSP/FilteringFunctions/arm_conv_partial_fast_opt_q15.c ****       /* copy second buffer in reversal manner for remaining samples */
 171:../Dave/Generated/CMSIS_DSP/FilteringFunctions/arm_conv_partial_fast_opt_q15.c ****       *pScr2-- = *px++;
 197              	 .loc 1 171 0
 198 0162 D7F85431 	 ldr r3,[r7,#340]
 199 0166 9A1E     	 subs r2,r3,#2
 200 0168 C7F85421 	 str r2,[r7,#340]
 201 016c D7F83421 	 ldr r2,[r7,#308]
 202 0170 911C     	 adds r1,r2,#2
 203 0172 C7F83411 	 str r1,[r7,#308]
 204 0176 1288     	 ldrh r2,[r2]
 205 0178 1A80     	 strh r2,[r3]
 172:../Dave/Generated/CMSIS_DSP/FilteringFunctions/arm_conv_partial_fast_opt_q15.c **** 
 173:../Dave/Generated/CMSIS_DSP/FilteringFunctions/arm_conv_partial_fast_opt_q15.c ****       /* Decrement the loop counter */
 174:../Dave/Generated/CMSIS_DSP/FilteringFunctions/arm_conv_partial_fast_opt_q15.c ****       k--;
 206              	 .loc 1 174 0
 207 017a D7F83031 	 ldr r3,[r7,#304]
 208 017e 013B     	 subs r3,r3,#1
 209 0180 C7F83031 	 str r3,[r7,#304]
 210              	.L8:
 168:../Dave/Generated/CMSIS_DSP/FilteringFunctions/arm_conv_partial_fast_opt_q15.c ****     {
 211              	 .loc 1 168 0
 212 0184 D7F83031 	 ldr r3,[r7,#304]
 213 0188 002B     	 cmp r3,#0
 214 018a EAD1     	 bne .L9
 175:../Dave/Generated/CMSIS_DSP/FilteringFunctions/arm_conv_partial_fast_opt_q15.c ****     }
 176:../Dave/Generated/CMSIS_DSP/FilteringFunctions/arm_conv_partial_fast_opt_q15.c **** 
 177:../Dave/Generated/CMSIS_DSP/FilteringFunctions/arm_conv_partial_fast_opt_q15.c ****     /* Initialze temporary scratch pointer */
 178:../Dave/Generated/CMSIS_DSP/FilteringFunctions/arm_conv_partial_fast_opt_q15.c ****     pScr1 = pScratch1;
 215              	 .loc 1 178 0
 216 018c 07F11403 	 add r3,r7,#20
 217 0190 D7F87421 	 ldr r2,[r7,#372]
 218 0194 1A60     	 str r2,[r3]
 179:../Dave/Generated/CMSIS_DSP/FilteringFunctions/arm_conv_partial_fast_opt_q15.c **** 
 180:../Dave/Generated/CMSIS_DSP/FilteringFunctions/arm_conv_partial_fast_opt_q15.c ****     /* Assuming scratch1 buffer is aligned by 32-bit */
 181:../Dave/Generated/CMSIS_DSP/FilteringFunctions/arm_conv_partial_fast_opt_q15.c ****     /* Fill (srcBLen - 1u) zeros in scratch buffer */
 182:../Dave/Generated/CMSIS_DSP/FilteringFunctions/arm_conv_partial_fast_opt_q15.c ****     arm_fill_q15(0, pScr1, (srcBLen - 1u));
 219              	 .loc 1 182 0
 220 0196 07F11403 	 add r3,r7,#20
 221 019a 1A68     	 ldr r2,[r3]
 222 019c 3B46     	 mov r3,r7
 223 019e 1B68     	 ldr r3,[r3]
 224 01a0 013B     	 subs r3,r3,#1
 225 01a2 0020     	 movs r0,#0
 226 01a4 1146     	 mov r1,r2
 227 01a6 1A46     	 mov r2,r3
 228 01a8 FFF7FEFF 	 bl arm_fill_q15
 183:../Dave/Generated/CMSIS_DSP/FilteringFunctions/arm_conv_partial_fast_opt_q15.c **** 
 184:../Dave/Generated/CMSIS_DSP/FilteringFunctions/arm_conv_partial_fast_opt_q15.c ****     /* Update temporary scratch pointer */
 185:../Dave/Generated/CMSIS_DSP/FilteringFunctions/arm_conv_partial_fast_opt_q15.c ****     pScr1 += (srcBLen - 1u);
 229              	 .loc 1 185 0
 230 01ac 07F11403 	 add r3,r7,#20
 231 01b0 1A68     	 ldr r2,[r3]
 232 01b2 3B46     	 mov r3,r7
 233 01b4 1B68     	 ldr r3,[r3]
 234 01b6 03F10043 	 add r3,r3,#-2147483648
 235 01ba 013B     	 subs r3,r3,#1
 236 01bc 5B00     	 lsls r3,r3,#1
 237 01be 1A44     	 add r2,r2,r3
 238 01c0 07F11403 	 add r3,r7,#20
 239 01c4 1A60     	 str r2,[r3]
 186:../Dave/Generated/CMSIS_DSP/FilteringFunctions/arm_conv_partial_fast_opt_q15.c **** 
 187:../Dave/Generated/CMSIS_DSP/FilteringFunctions/arm_conv_partial_fast_opt_q15.c ****     /* Copy bigger length sequence(srcALen) samples in scratch1 buffer */
 188:../Dave/Generated/CMSIS_DSP/FilteringFunctions/arm_conv_partial_fast_opt_q15.c **** 
 189:../Dave/Generated/CMSIS_DSP/FilteringFunctions/arm_conv_partial_fast_opt_q15.c ****     /* Copy (srcALen) samples in scratch buffer */
 190:../Dave/Generated/CMSIS_DSP/FilteringFunctions/arm_conv_partial_fast_opt_q15.c ****     arm_copy_q15(pIn1, pScr1, srcALen);
 240              	 .loc 1 190 0
 241 01c6 07F11403 	 add r3,r7,#20
 242 01ca 1A68     	 ldr r2,[r3]
 243 01cc 07F10803 	 add r3,r7,#8
 244 01d0 D7F83801 	 ldr r0,[r7,#312]
 245 01d4 1146     	 mov r1,r2
 246 01d6 1A68     	 ldr r2,[r3]
 247 01d8 FFF7FEFF 	 bl arm_copy_q15
 191:../Dave/Generated/CMSIS_DSP/FilteringFunctions/arm_conv_partial_fast_opt_q15.c **** 
 192:../Dave/Generated/CMSIS_DSP/FilteringFunctions/arm_conv_partial_fast_opt_q15.c ****     /* Update pointers */
 193:../Dave/Generated/CMSIS_DSP/FilteringFunctions/arm_conv_partial_fast_opt_q15.c ****     pScr1 += srcALen;
 248              	 .loc 1 193 0
 249 01dc 07F11403 	 add r3,r7,#20
 250 01e0 1A68     	 ldr r2,[r3]
 251 01e2 07F10803 	 add r3,r7,#8
 252 01e6 1B68     	 ldr r3,[r3]
 253 01e8 5B00     	 lsls r3,r3,#1
 254 01ea 1A44     	 add r2,r2,r3
 255 01ec 07F11403 	 add r3,r7,#20
 256 01f0 1A60     	 str r2,[r3]
 194:../Dave/Generated/CMSIS_DSP/FilteringFunctions/arm_conv_partial_fast_opt_q15.c **** 
 195:../Dave/Generated/CMSIS_DSP/FilteringFunctions/arm_conv_partial_fast_opt_q15.c ****     /* Fill (srcBLen - 1u) zeros at end of scratch buffer */
 196:../Dave/Generated/CMSIS_DSP/FilteringFunctions/arm_conv_partial_fast_opt_q15.c ****     arm_fill_q15(0, pScr1, (srcBLen - 1u));
 257              	 .loc 1 196 0
 258 01f2 07F11403 	 add r3,r7,#20
 259 01f6 1A68     	 ldr r2,[r3]
 260 01f8 3B46     	 mov r3,r7
 261 01fa 1B68     	 ldr r3,[r3]
 262 01fc 013B     	 subs r3,r3,#1
 263 01fe 0020     	 movs r0,#0
 264 0200 1146     	 mov r1,r2
 265 0202 1A46     	 mov r2,r3
 266 0204 FFF7FEFF 	 bl arm_fill_q15
 197:../Dave/Generated/CMSIS_DSP/FilteringFunctions/arm_conv_partial_fast_opt_q15.c **** 
 198:../Dave/Generated/CMSIS_DSP/FilteringFunctions/arm_conv_partial_fast_opt_q15.c ****     /* Update pointer */
 199:../Dave/Generated/CMSIS_DSP/FilteringFunctions/arm_conv_partial_fast_opt_q15.c ****     pScr1 += (srcBLen - 1u);
 267              	 .loc 1 199 0
 268 0208 07F11403 	 add r3,r7,#20
 269 020c 1A68     	 ldr r2,[r3]
 270 020e 3B46     	 mov r3,r7
 271 0210 1B68     	 ldr r3,[r3]
 272 0212 03F10043 	 add r3,r3,#-2147483648
 273 0216 013B     	 subs r3,r3,#1
 274 0218 5B00     	 lsls r3,r3,#1
 275 021a 1A44     	 add r2,r2,r3
 276 021c 07F11403 	 add r3,r7,#20
 277 0220 1A60     	 str r2,[r3]
 200:../Dave/Generated/CMSIS_DSP/FilteringFunctions/arm_conv_partial_fast_opt_q15.c **** 
 201:../Dave/Generated/CMSIS_DSP/FilteringFunctions/arm_conv_partial_fast_opt_q15.c ****     /* Initialization of pIn2 pointer */
 202:../Dave/Generated/CMSIS_DSP/FilteringFunctions/arm_conv_partial_fast_opt_q15.c ****     pIn2 = py;
 278              	 .loc 1 202 0
 279 0222 07F11003 	 add r3,r7,#16
 280 0226 D7F81C21 	 ldr r2,[r7,#284]
 281 022a 1A60     	 str r2,[r3]
 203:../Dave/Generated/CMSIS_DSP/FilteringFunctions/arm_conv_partial_fast_opt_q15.c **** 
 204:../Dave/Generated/CMSIS_DSP/FilteringFunctions/arm_conv_partial_fast_opt_q15.c ****     pScratch1 += firstIndex;
 282              	 .loc 1 204 0
 283 022c D7F86C31 	 ldr r3,[r7,#364]
 284 0230 5B00     	 lsls r3,r3,#1
 285 0232 D7F87421 	 ldr r2,[r7,#372]
 286 0236 1344     	 add r3,r3,r2
 287 0238 C7F87431 	 str r3,[r7,#372]
 205:../Dave/Generated/CMSIS_DSP/FilteringFunctions/arm_conv_partial_fast_opt_q15.c **** 
 206:../Dave/Generated/CMSIS_DSP/FilteringFunctions/arm_conv_partial_fast_opt_q15.c ****     pOut = pDst + firstIndex;
 288              	 .loc 1 206 0
 289 023c D7F86C31 	 ldr r3,[r7,#364]
 290 0240 5B00     	 lsls r3,r3,#1
 291 0242 D7F86821 	 ldr r2,[r7,#360]
 292 0246 1A44     	 add r2,r2,r3
 293 0248 07F11803 	 add r3,r7,#24
 294 024c 1A60     	 str r2,[r3]
 207:../Dave/Generated/CMSIS_DSP/FilteringFunctions/arm_conv_partial_fast_opt_q15.c **** 
 208:../Dave/Generated/CMSIS_DSP/FilteringFunctions/arm_conv_partial_fast_opt_q15.c ****     /* First part of the processing with loop unrolling process 4 data points at a time.       
 209:../Dave/Generated/CMSIS_DSP/FilteringFunctions/arm_conv_partial_fast_opt_q15.c ****      ** a second loop below process for the remaining 1 to 3 samples. */
 210:../Dave/Generated/CMSIS_DSP/FilteringFunctions/arm_conv_partial_fast_opt_q15.c **** 
 211:../Dave/Generated/CMSIS_DSP/FilteringFunctions/arm_conv_partial_fast_opt_q15.c ****     /* Actual convolution process starts here */
 212:../Dave/Generated/CMSIS_DSP/FilteringFunctions/arm_conv_partial_fast_opt_q15.c ****     blkCnt = (numPoints) >> 2;
 295              	 .loc 1 212 0
 296 024e D7F87031 	 ldr r3,[r7,#368]
 297 0252 9B08     	 lsrs r3,r3,#2
 298 0254 C7F82C31 	 str r3,[r7,#300]
 213:../Dave/Generated/CMSIS_DSP/FilteringFunctions/arm_conv_partial_fast_opt_q15.c **** 
 214:../Dave/Generated/CMSIS_DSP/FilteringFunctions/arm_conv_partial_fast_opt_q15.c ****     while(blkCnt > 0)
 299              	 .loc 1 214 0
 300 0258 4CE2     	 b .L10
 301              	.L23:
 215:../Dave/Generated/CMSIS_DSP/FilteringFunctions/arm_conv_partial_fast_opt_q15.c ****     {
 216:../Dave/Generated/CMSIS_DSP/FilteringFunctions/arm_conv_partial_fast_opt_q15.c ****       /* Initialze temporary scratch pointer as scratch1 */
 217:../Dave/Generated/CMSIS_DSP/FilteringFunctions/arm_conv_partial_fast_opt_q15.c ****       pScr1 = pScratch1;
 302              	 .loc 1 217 0
 303 025a 07F11403 	 add r3,r7,#20
 304 025e D7F87421 	 ldr r2,[r7,#372]
 305 0262 1A60     	 str r2,[r3]
 218:../Dave/Generated/CMSIS_DSP/FilteringFunctions/arm_conv_partial_fast_opt_q15.c **** 
 219:../Dave/Generated/CMSIS_DSP/FilteringFunctions/arm_conv_partial_fast_opt_q15.c ****       /* Clear Accumlators */
 220:../Dave/Generated/CMSIS_DSP/FilteringFunctions/arm_conv_partial_fast_opt_q15.c ****       acc0 = 0;
 306              	 .loc 1 220 0
 307 0264 0023     	 movs r3,#0
 308 0266 C7F85031 	 str r3,[r7,#336]
 221:../Dave/Generated/CMSIS_DSP/FilteringFunctions/arm_conv_partial_fast_opt_q15.c ****       acc1 = 0;
 309              	 .loc 1 221 0
 310 026a 0023     	 movs r3,#0
 311 026c C7F84C31 	 str r3,[r7,#332]
 222:../Dave/Generated/CMSIS_DSP/FilteringFunctions/arm_conv_partial_fast_opt_q15.c ****       acc2 = 0;
 312              	 .loc 1 222 0
 313 0270 0023     	 movs r3,#0
 314 0272 C7F84831 	 str r3,[r7,#328]
 223:../Dave/Generated/CMSIS_DSP/FilteringFunctions/arm_conv_partial_fast_opt_q15.c ****       acc3 = 0;
 315              	 .loc 1 223 0
 316 0276 0023     	 movs r3,#0
 317 0278 C7F84431 	 str r3,[r7,#324]
 224:../Dave/Generated/CMSIS_DSP/FilteringFunctions/arm_conv_partial_fast_opt_q15.c **** 
 225:../Dave/Generated/CMSIS_DSP/FilteringFunctions/arm_conv_partial_fast_opt_q15.c ****       /* Read two samples from scratch1 buffer */
 226:../Dave/Generated/CMSIS_DSP/FilteringFunctions/arm_conv_partial_fast_opt_q15.c ****       x1 = *__SIMD32(pScr1)++;
 318              	 .loc 1 226 0
 319 027c 07F11402 	 add r2,r7,#20
 320 0280 1368     	 ldr r3,[r2]
 321 0282 191D     	 adds r1,r3,#4
 322 0284 1160     	 str r1,[r2]
 323 0286 1B68     	 ldr r3,[r3]
 324 0288 C7F84031 	 str r3,[r7,#320]
 227:../Dave/Generated/CMSIS_DSP/FilteringFunctions/arm_conv_partial_fast_opt_q15.c **** 
 228:../Dave/Generated/CMSIS_DSP/FilteringFunctions/arm_conv_partial_fast_opt_q15.c ****       /* Read next two samples from scratch1 buffer */
 229:../Dave/Generated/CMSIS_DSP/FilteringFunctions/arm_conv_partial_fast_opt_q15.c ****       x2 = *__SIMD32(pScr1)++;
 325              	 .loc 1 229 0
 326 028c 07F11402 	 add r2,r7,#20
 327 0290 1368     	 ldr r3,[r2]
 328 0292 191D     	 adds r1,r3,#4
 329 0294 1160     	 str r1,[r2]
 330 0296 1B68     	 ldr r3,[r3]
 331 0298 C7F83C31 	 str r3,[r7,#316]
 230:../Dave/Generated/CMSIS_DSP/FilteringFunctions/arm_conv_partial_fast_opt_q15.c **** 
 231:../Dave/Generated/CMSIS_DSP/FilteringFunctions/arm_conv_partial_fast_opt_q15.c ****       tapCnt = (srcBLen) >> 2u;
 332              	 .loc 1 231 0
 333 029c 3B46     	 mov r3,r7
 334 029e 1B68     	 ldr r3,[r3]
 335 02a0 9B08     	 lsrs r3,r3,#2
 336 02a2 C7F82431 	 str r3,[r7,#292]
 232:../Dave/Generated/CMSIS_DSP/FilteringFunctions/arm_conv_partial_fast_opt_q15.c **** 
 233:../Dave/Generated/CMSIS_DSP/FilteringFunctions/arm_conv_partial_fast_opt_q15.c ****       while(tapCnt > 0u)
 337              	 .loc 1 233 0
 338 02a6 3EE1     	 b .L11
 339              	.L20:
 234:../Dave/Generated/CMSIS_DSP/FilteringFunctions/arm_conv_partial_fast_opt_q15.c ****       {
 235:../Dave/Generated/CMSIS_DSP/FilteringFunctions/arm_conv_partial_fast_opt_q15.c **** 
 236:../Dave/Generated/CMSIS_DSP/FilteringFunctions/arm_conv_partial_fast_opt_q15.c ****         /* Read four samples from smaller buffer */
 237:../Dave/Generated/CMSIS_DSP/FilteringFunctions/arm_conv_partial_fast_opt_q15.c ****         y1 = _SIMD32_OFFSET(pIn2);
 340              	 .loc 1 237 0
 341 02a8 07F11003 	 add r3,r7,#16
 342 02ac 1B68     	 ldr r3,[r3]
 343 02ae 1B68     	 ldr r3,[r3]
 344 02b0 C7F81831 	 str r3,[r7,#280]
 238:../Dave/Generated/CMSIS_DSP/FilteringFunctions/arm_conv_partial_fast_opt_q15.c ****         y2 = _SIMD32_OFFSET(pIn2 + 2u);
 345              	 .loc 1 238 0
 346 02b4 07F11003 	 add r3,r7,#16
 347 02b8 1B68     	 ldr r3,[r3]
 348 02ba 5B68     	 ldr r3,[r3,#4]
 349 02bc C7F81431 	 str r3,[r7,#276]
 239:../Dave/Generated/CMSIS_DSP/FilteringFunctions/arm_conv_partial_fast_opt_q15.c **** 
 240:../Dave/Generated/CMSIS_DSP/FilteringFunctions/arm_conv_partial_fast_opt_q15.c ****         /* multiply and accumlate */
 241:../Dave/Generated/CMSIS_DSP/FilteringFunctions/arm_conv_partial_fast_opt_q15.c ****         acc0 = __SMLAD(x1, y1, acc0);
 350              	 .loc 1 241 0
 351 02c0 D7F84011 	 ldr r1,[r7,#320]
 352 02c4 D7F81821 	 ldr r2,[r7,#280]
 353 02c8 D7F85031 	 ldr r3,[r7,#336]
 354 02cc C7F8A810 	 str r1,[r7,#168]
 355 02d0 C7F8A420 	 str r2,[r7,#164]
 356 02d4 C7F8A030 	 str r3,[r7,#160]
 357              	.LBB30:
 358              	.LBB31:
 359              	 .file 2 "C:\\Users\\Depes Crystalline\\Desktop\\school\\Active_Bike_Lighting_System\\Radar_Core/Libraries/CMSIS/Include/core_cmSimd.h"
   1:C:\Users\Depes Crystalline\Desktop\school\Active_Bike_Lighting_System\Radar_Core/Libraries/CMSIS/Include\core_cmSimd.h **** /**************************************************************************//**
   2:C:\Users\Depes Crystalline\Desktop\school\Active_Bike_Lighting_System\Radar_Core/Libraries/CMSIS/Include\core_cmSimd.h ****  * @file     core_cmSimd.h
   3:C:\Users\Depes Crystalline\Desktop\school\Active_Bike_Lighting_System\Radar_Core/Libraries/CMSIS/Include\core_cmSimd.h ****  * @brief    CMSIS Cortex-M SIMD Header File
   4:C:\Users\Depes Crystalline\Desktop\school\Active_Bike_Lighting_System\Radar_Core/Libraries/CMSIS/Include\core_cmSimd.h ****  * @version  V4.00
   5:C:\Users\Depes Crystalline\Desktop\school\Active_Bike_Lighting_System\Radar_Core/Libraries/CMSIS/Include\core_cmSimd.h ****  * @date     22. August 2014
   6:C:\Users\Depes Crystalline\Desktop\school\Active_Bike_Lighting_System\Radar_Core/Libraries/CMSIS/Include\core_cmSimd.h ****  *
   7:C:\Users\Depes Crystalline\Desktop\school\Active_Bike_Lighting_System\Radar_Core/Libraries/CMSIS/Include\core_cmSimd.h ****  * @note
   8:C:\Users\Depes Crystalline\Desktop\school\Active_Bike_Lighting_System\Radar_Core/Libraries/CMSIS/Include\core_cmSimd.h ****  *
   9:C:\Users\Depes Crystalline\Desktop\school\Active_Bike_Lighting_System\Radar_Core/Libraries/CMSIS/Include\core_cmSimd.h ****  ******************************************************************************/
  10:C:\Users\Depes Crystalline\Desktop\school\Active_Bike_Lighting_System\Radar_Core/Libraries/CMSIS/Include\core_cmSimd.h **** /* Copyright (c) 2009 - 2014 ARM LIMITED
  11:C:\Users\Depes Crystalline\Desktop\school\Active_Bike_Lighting_System\Radar_Core/Libraries/CMSIS/Include\core_cmSimd.h **** 
  12:C:\Users\Depes Crystalline\Desktop\school\Active_Bike_Lighting_System\Radar_Core/Libraries/CMSIS/Include\core_cmSimd.h ****    All rights reserved.
  13:C:\Users\Depes Crystalline\Desktop\school\Active_Bike_Lighting_System\Radar_Core/Libraries/CMSIS/Include\core_cmSimd.h ****    Redistribution and use in source and binary forms, with or without
  14:C:\Users\Depes Crystalline\Desktop\school\Active_Bike_Lighting_System\Radar_Core/Libraries/CMSIS/Include\core_cmSimd.h ****    modification, are permitted provided that the following conditions are met:
  15:C:\Users\Depes Crystalline\Desktop\school\Active_Bike_Lighting_System\Radar_Core/Libraries/CMSIS/Include\core_cmSimd.h ****    - Redistributions of source code must retain the above copyright
  16:C:\Users\Depes Crystalline\Desktop\school\Active_Bike_Lighting_System\Radar_Core/Libraries/CMSIS/Include\core_cmSimd.h ****      notice, this list of conditions and the following disclaimer.
  17:C:\Users\Depes Crystalline\Desktop\school\Active_Bike_Lighting_System\Radar_Core/Libraries/CMSIS/Include\core_cmSimd.h ****    - Redistributions in binary form must reproduce the above copyright
  18:C:\Users\Depes Crystalline\Desktop\school\Active_Bike_Lighting_System\Radar_Core/Libraries/CMSIS/Include\core_cmSimd.h ****      notice, this list of conditions and the following disclaimer in the
  19:C:\Users\Depes Crystalline\Desktop\school\Active_Bike_Lighting_System\Radar_Core/Libraries/CMSIS/Include\core_cmSimd.h ****      documentation and/or other materials provided with the distribution.
  20:C:\Users\Depes Crystalline\Desktop\school\Active_Bike_Lighting_System\Radar_Core/Libraries/CMSIS/Include\core_cmSimd.h ****    - Neither the name of ARM nor the names of its contributors may be used
  21:C:\Users\Depes Crystalline\Desktop\school\Active_Bike_Lighting_System\Radar_Core/Libraries/CMSIS/Include\core_cmSimd.h ****      to endorse or promote products derived from this software without
  22:C:\Users\Depes Crystalline\Desktop\school\Active_Bike_Lighting_System\Radar_Core/Libraries/CMSIS/Include\core_cmSimd.h ****      specific prior written permission.
  23:C:\Users\Depes Crystalline\Desktop\school\Active_Bike_Lighting_System\Radar_Core/Libraries/CMSIS/Include\core_cmSimd.h ****    *
  24:C:\Users\Depes Crystalline\Desktop\school\Active_Bike_Lighting_System\Radar_Core/Libraries/CMSIS/Include\core_cmSimd.h ****    THIS SOFTWARE IS PROVIDED BY THE COPYRIGHT HOLDERS AND CONTRIBUTORS "AS IS"
  25:C:\Users\Depes Crystalline\Desktop\school\Active_Bike_Lighting_System\Radar_Core/Libraries/CMSIS/Include\core_cmSimd.h ****    AND ANY EXPRESS OR IMPLIED WARRANTIES, INCLUDING, BUT NOT LIMITED TO, THE
  26:C:\Users\Depes Crystalline\Desktop\school\Active_Bike_Lighting_System\Radar_Core/Libraries/CMSIS/Include\core_cmSimd.h ****    IMPLIED WARRANTIES OF MERCHANTABILITY AND FITNESS FOR A PARTICULAR PURPOSE
  27:C:\Users\Depes Crystalline\Desktop\school\Active_Bike_Lighting_System\Radar_Core/Libraries/CMSIS/Include\core_cmSimd.h ****    ARE DISCLAIMED. IN NO EVENT SHALL COPYRIGHT HOLDERS AND CONTRIBUTORS BE
  28:C:\Users\Depes Crystalline\Desktop\school\Active_Bike_Lighting_System\Radar_Core/Libraries/CMSIS/Include\core_cmSimd.h ****    LIABLE FOR ANY DIRECT, INDIRECT, INCIDENTAL, SPECIAL, EXEMPLARY, OR
  29:C:\Users\Depes Crystalline\Desktop\school\Active_Bike_Lighting_System\Radar_Core/Libraries/CMSIS/Include\core_cmSimd.h ****    CONSEQUENTIAL DAMAGES (INCLUDING, BUT NOT LIMITED TO, PROCUREMENT OF
  30:C:\Users\Depes Crystalline\Desktop\school\Active_Bike_Lighting_System\Radar_Core/Libraries/CMSIS/Include\core_cmSimd.h ****    SUBSTITUTE GOODS OR SERVICES; LOSS OF USE, DATA, OR PROFITS; OR BUSINESS
  31:C:\Users\Depes Crystalline\Desktop\school\Active_Bike_Lighting_System\Radar_Core/Libraries/CMSIS/Include\core_cmSimd.h ****    INTERRUPTION) HOWEVER CAUSED AND ON ANY THEORY OF LIABILITY, WHETHER IN
  32:C:\Users\Depes Crystalline\Desktop\school\Active_Bike_Lighting_System\Radar_Core/Libraries/CMSIS/Include\core_cmSimd.h ****    CONTRACT, STRICT LIABILITY, OR TORT (INCLUDING NEGLIGENCE OR OTHERWISE)
  33:C:\Users\Depes Crystalline\Desktop\school\Active_Bike_Lighting_System\Radar_Core/Libraries/CMSIS/Include\core_cmSimd.h ****    ARISING IN ANY WAY OUT OF THE USE OF THIS SOFTWARE, EVEN IF ADVISED OF THE
  34:C:\Users\Depes Crystalline\Desktop\school\Active_Bike_Lighting_System\Radar_Core/Libraries/CMSIS/Include\core_cmSimd.h ****    POSSIBILITY OF SUCH DAMAGE.
  35:C:\Users\Depes Crystalline\Desktop\school\Active_Bike_Lighting_System\Radar_Core/Libraries/CMSIS/Include\core_cmSimd.h ****    ---------------------------------------------------------------------------*/
  36:C:\Users\Depes Crystalline\Desktop\school\Active_Bike_Lighting_System\Radar_Core/Libraries/CMSIS/Include\core_cmSimd.h **** 
  37:C:\Users\Depes Crystalline\Desktop\school\Active_Bike_Lighting_System\Radar_Core/Libraries/CMSIS/Include\core_cmSimd.h **** 
  38:C:\Users\Depes Crystalline\Desktop\school\Active_Bike_Lighting_System\Radar_Core/Libraries/CMSIS/Include\core_cmSimd.h **** #if defined ( __ICCARM__ )
  39:C:\Users\Depes Crystalline\Desktop\school\Active_Bike_Lighting_System\Radar_Core/Libraries/CMSIS/Include\core_cmSimd.h ****  #pragma system_include  /* treat file as system include file for MISRA check */
  40:C:\Users\Depes Crystalline\Desktop\school\Active_Bike_Lighting_System\Radar_Core/Libraries/CMSIS/Include\core_cmSimd.h **** #endif
  41:C:\Users\Depes Crystalline\Desktop\school\Active_Bike_Lighting_System\Radar_Core/Libraries/CMSIS/Include\core_cmSimd.h **** 
  42:C:\Users\Depes Crystalline\Desktop\school\Active_Bike_Lighting_System\Radar_Core/Libraries/CMSIS/Include\core_cmSimd.h **** #ifndef __CORE_CMSIMD_H
  43:C:\Users\Depes Crystalline\Desktop\school\Active_Bike_Lighting_System\Radar_Core/Libraries/CMSIS/Include\core_cmSimd.h **** #define __CORE_CMSIMD_H
  44:C:\Users\Depes Crystalline\Desktop\school\Active_Bike_Lighting_System\Radar_Core/Libraries/CMSIS/Include\core_cmSimd.h **** 
  45:C:\Users\Depes Crystalline\Desktop\school\Active_Bike_Lighting_System\Radar_Core/Libraries/CMSIS/Include\core_cmSimd.h **** #ifdef __cplusplus
  46:C:\Users\Depes Crystalline\Desktop\school\Active_Bike_Lighting_System\Radar_Core/Libraries/CMSIS/Include\core_cmSimd.h ****  extern "C" {
  47:C:\Users\Depes Crystalline\Desktop\school\Active_Bike_Lighting_System\Radar_Core/Libraries/CMSIS/Include\core_cmSimd.h **** #endif
  48:C:\Users\Depes Crystalline\Desktop\school\Active_Bike_Lighting_System\Radar_Core/Libraries/CMSIS/Include\core_cmSimd.h **** 
  49:C:\Users\Depes Crystalline\Desktop\school\Active_Bike_Lighting_System\Radar_Core/Libraries/CMSIS/Include\core_cmSimd.h **** 
  50:C:\Users\Depes Crystalline\Desktop\school\Active_Bike_Lighting_System\Radar_Core/Libraries/CMSIS/Include\core_cmSimd.h **** /*******************************************************************************
  51:C:\Users\Depes Crystalline\Desktop\school\Active_Bike_Lighting_System\Radar_Core/Libraries/CMSIS/Include\core_cmSimd.h ****  *                Hardware Abstraction Layer
  52:C:\Users\Depes Crystalline\Desktop\school\Active_Bike_Lighting_System\Radar_Core/Libraries/CMSIS/Include\core_cmSimd.h ****  ******************************************************************************/
  53:C:\Users\Depes Crystalline\Desktop\school\Active_Bike_Lighting_System\Radar_Core/Libraries/CMSIS/Include\core_cmSimd.h **** 
  54:C:\Users\Depes Crystalline\Desktop\school\Active_Bike_Lighting_System\Radar_Core/Libraries/CMSIS/Include\core_cmSimd.h **** 
  55:C:\Users\Depes Crystalline\Desktop\school\Active_Bike_Lighting_System\Radar_Core/Libraries/CMSIS/Include\core_cmSimd.h **** /* ###################  Compiler specific Intrinsics  ########################### */
  56:C:\Users\Depes Crystalline\Desktop\school\Active_Bike_Lighting_System\Radar_Core/Libraries/CMSIS/Include\core_cmSimd.h **** /** \defgroup CMSIS_SIMD_intrinsics CMSIS SIMD Intrinsics
  57:C:\Users\Depes Crystalline\Desktop\school\Active_Bike_Lighting_System\Radar_Core/Libraries/CMSIS/Include\core_cmSimd.h ****   Access to dedicated SIMD instructions
  58:C:\Users\Depes Crystalline\Desktop\school\Active_Bike_Lighting_System\Radar_Core/Libraries/CMSIS/Include\core_cmSimd.h ****   @{
  59:C:\Users\Depes Crystalline\Desktop\school\Active_Bike_Lighting_System\Radar_Core/Libraries/CMSIS/Include\core_cmSimd.h **** */
  60:C:\Users\Depes Crystalline\Desktop\school\Active_Bike_Lighting_System\Radar_Core/Libraries/CMSIS/Include\core_cmSimd.h **** 
  61:C:\Users\Depes Crystalline\Desktop\school\Active_Bike_Lighting_System\Radar_Core/Libraries/CMSIS/Include\core_cmSimd.h **** #if   defined ( __CC_ARM ) /*------------------RealView Compiler -----------------*/
  62:C:\Users\Depes Crystalline\Desktop\school\Active_Bike_Lighting_System\Radar_Core/Libraries/CMSIS/Include\core_cmSimd.h **** /* ARM armcc specific functions */
  63:C:\Users\Depes Crystalline\Desktop\school\Active_Bike_Lighting_System\Radar_Core/Libraries/CMSIS/Include\core_cmSimd.h **** #define __SADD8                           __sadd8
  64:C:\Users\Depes Crystalline\Desktop\school\Active_Bike_Lighting_System\Radar_Core/Libraries/CMSIS/Include\core_cmSimd.h **** #define __QADD8                           __qadd8
  65:C:\Users\Depes Crystalline\Desktop\school\Active_Bike_Lighting_System\Radar_Core/Libraries/CMSIS/Include\core_cmSimd.h **** #define __SHADD8                          __shadd8
  66:C:\Users\Depes Crystalline\Desktop\school\Active_Bike_Lighting_System\Radar_Core/Libraries/CMSIS/Include\core_cmSimd.h **** #define __UADD8                           __uadd8
  67:C:\Users\Depes Crystalline\Desktop\school\Active_Bike_Lighting_System\Radar_Core/Libraries/CMSIS/Include\core_cmSimd.h **** #define __UQADD8                          __uqadd8
  68:C:\Users\Depes Crystalline\Desktop\school\Active_Bike_Lighting_System\Radar_Core/Libraries/CMSIS/Include\core_cmSimd.h **** #define __UHADD8                          __uhadd8
  69:C:\Users\Depes Crystalline\Desktop\school\Active_Bike_Lighting_System\Radar_Core/Libraries/CMSIS/Include\core_cmSimd.h **** #define __SSUB8                           __ssub8
  70:C:\Users\Depes Crystalline\Desktop\school\Active_Bike_Lighting_System\Radar_Core/Libraries/CMSIS/Include\core_cmSimd.h **** #define __QSUB8                           __qsub8
  71:C:\Users\Depes Crystalline\Desktop\school\Active_Bike_Lighting_System\Radar_Core/Libraries/CMSIS/Include\core_cmSimd.h **** #define __SHSUB8                          __shsub8
  72:C:\Users\Depes Crystalline\Desktop\school\Active_Bike_Lighting_System\Radar_Core/Libraries/CMSIS/Include\core_cmSimd.h **** #define __USUB8                           __usub8
  73:C:\Users\Depes Crystalline\Desktop\school\Active_Bike_Lighting_System\Radar_Core/Libraries/CMSIS/Include\core_cmSimd.h **** #define __UQSUB8                          __uqsub8
  74:C:\Users\Depes Crystalline\Desktop\school\Active_Bike_Lighting_System\Radar_Core/Libraries/CMSIS/Include\core_cmSimd.h **** #define __UHSUB8                          __uhsub8
  75:C:\Users\Depes Crystalline\Desktop\school\Active_Bike_Lighting_System\Radar_Core/Libraries/CMSIS/Include\core_cmSimd.h **** #define __SADD16                          __sadd16
  76:C:\Users\Depes Crystalline\Desktop\school\Active_Bike_Lighting_System\Radar_Core/Libraries/CMSIS/Include\core_cmSimd.h **** #define __QADD16                          __qadd16
  77:C:\Users\Depes Crystalline\Desktop\school\Active_Bike_Lighting_System\Radar_Core/Libraries/CMSIS/Include\core_cmSimd.h **** #define __SHADD16                         __shadd16
  78:C:\Users\Depes Crystalline\Desktop\school\Active_Bike_Lighting_System\Radar_Core/Libraries/CMSIS/Include\core_cmSimd.h **** #define __UADD16                          __uadd16
  79:C:\Users\Depes Crystalline\Desktop\school\Active_Bike_Lighting_System\Radar_Core/Libraries/CMSIS/Include\core_cmSimd.h **** #define __UQADD16                         __uqadd16
  80:C:\Users\Depes Crystalline\Desktop\school\Active_Bike_Lighting_System\Radar_Core/Libraries/CMSIS/Include\core_cmSimd.h **** #define __UHADD16                         __uhadd16
  81:C:\Users\Depes Crystalline\Desktop\school\Active_Bike_Lighting_System\Radar_Core/Libraries/CMSIS/Include\core_cmSimd.h **** #define __SSUB16                          __ssub16
  82:C:\Users\Depes Crystalline\Desktop\school\Active_Bike_Lighting_System\Radar_Core/Libraries/CMSIS/Include\core_cmSimd.h **** #define __QSUB16                          __qsub16
  83:C:\Users\Depes Crystalline\Desktop\school\Active_Bike_Lighting_System\Radar_Core/Libraries/CMSIS/Include\core_cmSimd.h **** #define __SHSUB16                         __shsub16
  84:C:\Users\Depes Crystalline\Desktop\school\Active_Bike_Lighting_System\Radar_Core/Libraries/CMSIS/Include\core_cmSimd.h **** #define __USUB16                          __usub16
  85:C:\Users\Depes Crystalline\Desktop\school\Active_Bike_Lighting_System\Radar_Core/Libraries/CMSIS/Include\core_cmSimd.h **** #define __UQSUB16                         __uqsub16
  86:C:\Users\Depes Crystalline\Desktop\school\Active_Bike_Lighting_System\Radar_Core/Libraries/CMSIS/Include\core_cmSimd.h **** #define __UHSUB16                         __uhsub16
  87:C:\Users\Depes Crystalline\Desktop\school\Active_Bike_Lighting_System\Radar_Core/Libraries/CMSIS/Include\core_cmSimd.h **** #define __SASX                            __sasx
  88:C:\Users\Depes Crystalline\Desktop\school\Active_Bike_Lighting_System\Radar_Core/Libraries/CMSIS/Include\core_cmSimd.h **** #define __QASX                            __qasx
  89:C:\Users\Depes Crystalline\Desktop\school\Active_Bike_Lighting_System\Radar_Core/Libraries/CMSIS/Include\core_cmSimd.h **** #define __SHASX                           __shasx
  90:C:\Users\Depes Crystalline\Desktop\school\Active_Bike_Lighting_System\Radar_Core/Libraries/CMSIS/Include\core_cmSimd.h **** #define __UASX                            __uasx
  91:C:\Users\Depes Crystalline\Desktop\school\Active_Bike_Lighting_System\Radar_Core/Libraries/CMSIS/Include\core_cmSimd.h **** #define __UQASX                           __uqasx
  92:C:\Users\Depes Crystalline\Desktop\school\Active_Bike_Lighting_System\Radar_Core/Libraries/CMSIS/Include\core_cmSimd.h **** #define __UHASX                           __uhasx
  93:C:\Users\Depes Crystalline\Desktop\school\Active_Bike_Lighting_System\Radar_Core/Libraries/CMSIS/Include\core_cmSimd.h **** #define __SSAX                            __ssax
  94:C:\Users\Depes Crystalline\Desktop\school\Active_Bike_Lighting_System\Radar_Core/Libraries/CMSIS/Include\core_cmSimd.h **** #define __QSAX                            __qsax
  95:C:\Users\Depes Crystalline\Desktop\school\Active_Bike_Lighting_System\Radar_Core/Libraries/CMSIS/Include\core_cmSimd.h **** #define __SHSAX                           __shsax
  96:C:\Users\Depes Crystalline\Desktop\school\Active_Bike_Lighting_System\Radar_Core/Libraries/CMSIS/Include\core_cmSimd.h **** #define __USAX                            __usax
  97:C:\Users\Depes Crystalline\Desktop\school\Active_Bike_Lighting_System\Radar_Core/Libraries/CMSIS/Include\core_cmSimd.h **** #define __UQSAX                           __uqsax
  98:C:\Users\Depes Crystalline\Desktop\school\Active_Bike_Lighting_System\Radar_Core/Libraries/CMSIS/Include\core_cmSimd.h **** #define __UHSAX                           __uhsax
  99:C:\Users\Depes Crystalline\Desktop\school\Active_Bike_Lighting_System\Radar_Core/Libraries/CMSIS/Include\core_cmSimd.h **** #define __USAD8                           __usad8
 100:C:\Users\Depes Crystalline\Desktop\school\Active_Bike_Lighting_System\Radar_Core/Libraries/CMSIS/Include\core_cmSimd.h **** #define __USADA8                          __usada8
 101:C:\Users\Depes Crystalline\Desktop\school\Active_Bike_Lighting_System\Radar_Core/Libraries/CMSIS/Include\core_cmSimd.h **** #define __SSAT16                          __ssat16
 102:C:\Users\Depes Crystalline\Desktop\school\Active_Bike_Lighting_System\Radar_Core/Libraries/CMSIS/Include\core_cmSimd.h **** #define __USAT16                          __usat16
 103:C:\Users\Depes Crystalline\Desktop\school\Active_Bike_Lighting_System\Radar_Core/Libraries/CMSIS/Include\core_cmSimd.h **** #define __UXTB16                          __uxtb16
 104:C:\Users\Depes Crystalline\Desktop\school\Active_Bike_Lighting_System\Radar_Core/Libraries/CMSIS/Include\core_cmSimd.h **** #define __UXTAB16                         __uxtab16
 105:C:\Users\Depes Crystalline\Desktop\school\Active_Bike_Lighting_System\Radar_Core/Libraries/CMSIS/Include\core_cmSimd.h **** #define __SXTB16                          __sxtb16
 106:C:\Users\Depes Crystalline\Desktop\school\Active_Bike_Lighting_System\Radar_Core/Libraries/CMSIS/Include\core_cmSimd.h **** #define __SXTAB16                         __sxtab16
 107:C:\Users\Depes Crystalline\Desktop\school\Active_Bike_Lighting_System\Radar_Core/Libraries/CMSIS/Include\core_cmSimd.h **** #define __SMUAD                           __smuad
 108:C:\Users\Depes Crystalline\Desktop\school\Active_Bike_Lighting_System\Radar_Core/Libraries/CMSIS/Include\core_cmSimd.h **** #define __SMUADX                          __smuadx
 109:C:\Users\Depes Crystalline\Desktop\school\Active_Bike_Lighting_System\Radar_Core/Libraries/CMSIS/Include\core_cmSimd.h **** #define __SMLAD                           __smlad
 110:C:\Users\Depes Crystalline\Desktop\school\Active_Bike_Lighting_System\Radar_Core/Libraries/CMSIS/Include\core_cmSimd.h **** #define __SMLADX                          __smladx
 111:C:\Users\Depes Crystalline\Desktop\school\Active_Bike_Lighting_System\Radar_Core/Libraries/CMSIS/Include\core_cmSimd.h **** #define __SMLALD                          __smlald
 112:C:\Users\Depes Crystalline\Desktop\school\Active_Bike_Lighting_System\Radar_Core/Libraries/CMSIS/Include\core_cmSimd.h **** #define __SMLALDX                         __smlaldx
 113:C:\Users\Depes Crystalline\Desktop\school\Active_Bike_Lighting_System\Radar_Core/Libraries/CMSIS/Include\core_cmSimd.h **** #define __SMUSD                           __smusd
 114:C:\Users\Depes Crystalline\Desktop\school\Active_Bike_Lighting_System\Radar_Core/Libraries/CMSIS/Include\core_cmSimd.h **** #define __SMUSDX                          __smusdx
 115:C:\Users\Depes Crystalline\Desktop\school\Active_Bike_Lighting_System\Radar_Core/Libraries/CMSIS/Include\core_cmSimd.h **** #define __SMLSD                           __smlsd
 116:C:\Users\Depes Crystalline\Desktop\school\Active_Bike_Lighting_System\Radar_Core/Libraries/CMSIS/Include\core_cmSimd.h **** #define __SMLSDX                          __smlsdx
 117:C:\Users\Depes Crystalline\Desktop\school\Active_Bike_Lighting_System\Radar_Core/Libraries/CMSIS/Include\core_cmSimd.h **** #define __SMLSLD                          __smlsld
 118:C:\Users\Depes Crystalline\Desktop\school\Active_Bike_Lighting_System\Radar_Core/Libraries/CMSIS/Include\core_cmSimd.h **** #define __SMLSLDX                         __smlsldx
 119:C:\Users\Depes Crystalline\Desktop\school\Active_Bike_Lighting_System\Radar_Core/Libraries/CMSIS/Include\core_cmSimd.h **** #define __SEL                             __sel
 120:C:\Users\Depes Crystalline\Desktop\school\Active_Bike_Lighting_System\Radar_Core/Libraries/CMSIS/Include\core_cmSimd.h **** #define __QADD                            __qadd
 121:C:\Users\Depes Crystalline\Desktop\school\Active_Bike_Lighting_System\Radar_Core/Libraries/CMSIS/Include\core_cmSimd.h **** #define __QSUB                            __qsub
 122:C:\Users\Depes Crystalline\Desktop\school\Active_Bike_Lighting_System\Radar_Core/Libraries/CMSIS/Include\core_cmSimd.h **** 
 123:C:\Users\Depes Crystalline\Desktop\school\Active_Bike_Lighting_System\Radar_Core/Libraries/CMSIS/Include\core_cmSimd.h **** #define __PKHBT(ARG1,ARG2,ARG3)          ( ((((uint32_t)(ARG1))          ) & 0x0000FFFFUL) |  \
 124:C:\Users\Depes Crystalline\Desktop\school\Active_Bike_Lighting_System\Radar_Core/Libraries/CMSIS/Include\core_cmSimd.h ****                                            ((((uint32_t)(ARG2)) << (ARG3)) & 0xFFFF0000UL)  )
 125:C:\Users\Depes Crystalline\Desktop\school\Active_Bike_Lighting_System\Radar_Core/Libraries/CMSIS/Include\core_cmSimd.h **** 
 126:C:\Users\Depes Crystalline\Desktop\school\Active_Bike_Lighting_System\Radar_Core/Libraries/CMSIS/Include\core_cmSimd.h **** #define __PKHTB(ARG1,ARG2,ARG3)          ( ((((uint32_t)(ARG1))          ) & 0xFFFF0000UL) |  \
 127:C:\Users\Depes Crystalline\Desktop\school\Active_Bike_Lighting_System\Radar_Core/Libraries/CMSIS/Include\core_cmSimd.h ****                                            ((((uint32_t)(ARG2)) >> (ARG3)) & 0x0000FFFFUL)  )
 128:C:\Users\Depes Crystalline\Desktop\school\Active_Bike_Lighting_System\Radar_Core/Libraries/CMSIS/Include\core_cmSimd.h **** 
 129:C:\Users\Depes Crystalline\Desktop\school\Active_Bike_Lighting_System\Radar_Core/Libraries/CMSIS/Include\core_cmSimd.h **** #define __SMMLA(ARG1,ARG2,ARG3)          ( (int32_t)((((int64_t)(ARG1) * (ARG2)) + \
 130:C:\Users\Depes Crystalline\Desktop\school\Active_Bike_Lighting_System\Radar_Core/Libraries/CMSIS/Include\core_cmSimd.h ****                                                       ((int64_t)(ARG3) << 32)      ) >> 32))
 131:C:\Users\Depes Crystalline\Desktop\school\Active_Bike_Lighting_System\Radar_Core/Libraries/CMSIS/Include\core_cmSimd.h **** 
 132:C:\Users\Depes Crystalline\Desktop\school\Active_Bike_Lighting_System\Radar_Core/Libraries/CMSIS/Include\core_cmSimd.h **** 
 133:C:\Users\Depes Crystalline\Desktop\school\Active_Bike_Lighting_System\Radar_Core/Libraries/CMSIS/Include\core_cmSimd.h **** #elif defined ( __GNUC__ ) /*------------------ GNU Compiler ---------------------*/
 134:C:\Users\Depes Crystalline\Desktop\school\Active_Bike_Lighting_System\Radar_Core/Libraries/CMSIS/Include\core_cmSimd.h **** /* GNU gcc specific functions */
 135:C:\Users\Depes Crystalline\Desktop\school\Active_Bike_Lighting_System\Radar_Core/Libraries/CMSIS/Include\core_cmSimd.h **** __attribute__( ( always_inline ) ) __STATIC_INLINE uint32_t __SADD8(uint32_t op1, uint32_t op2)
 136:C:\Users\Depes Crystalline\Desktop\school\Active_Bike_Lighting_System\Radar_Core/Libraries/CMSIS/Include\core_cmSimd.h **** {
 137:C:\Users\Depes Crystalline\Desktop\school\Active_Bike_Lighting_System\Radar_Core/Libraries/CMSIS/Include\core_cmSimd.h ****   uint32_t result;
 138:C:\Users\Depes Crystalline\Desktop\school\Active_Bike_Lighting_System\Radar_Core/Libraries/CMSIS/Include\core_cmSimd.h **** 
 139:C:\Users\Depes Crystalline\Desktop\school\Active_Bike_Lighting_System\Radar_Core/Libraries/CMSIS/Include\core_cmSimd.h ****   __ASM volatile ("sadd8 %0, %1, %2" : "=r" (result) : "r" (op1), "r" (op2) );
 140:C:\Users\Depes Crystalline\Desktop\school\Active_Bike_Lighting_System\Radar_Core/Libraries/CMSIS/Include\core_cmSimd.h ****   return(result);
 141:C:\Users\Depes Crystalline\Desktop\school\Active_Bike_Lighting_System\Radar_Core/Libraries/CMSIS/Include\core_cmSimd.h **** }
 142:C:\Users\Depes Crystalline\Desktop\school\Active_Bike_Lighting_System\Radar_Core/Libraries/CMSIS/Include\core_cmSimd.h **** 
 143:C:\Users\Depes Crystalline\Desktop\school\Active_Bike_Lighting_System\Radar_Core/Libraries/CMSIS/Include\core_cmSimd.h **** __attribute__( ( always_inline ) ) __STATIC_INLINE uint32_t __QADD8(uint32_t op1, uint32_t op2)
 144:C:\Users\Depes Crystalline\Desktop\school\Active_Bike_Lighting_System\Radar_Core/Libraries/CMSIS/Include\core_cmSimd.h **** {
 145:C:\Users\Depes Crystalline\Desktop\school\Active_Bike_Lighting_System\Radar_Core/Libraries/CMSIS/Include\core_cmSimd.h ****   uint32_t result;
 146:C:\Users\Depes Crystalline\Desktop\school\Active_Bike_Lighting_System\Radar_Core/Libraries/CMSIS/Include\core_cmSimd.h **** 
 147:C:\Users\Depes Crystalline\Desktop\school\Active_Bike_Lighting_System\Radar_Core/Libraries/CMSIS/Include\core_cmSimd.h ****   __ASM volatile ("qadd8 %0, %1, %2" : "=r" (result) : "r" (op1), "r" (op2) );
 148:C:\Users\Depes Crystalline\Desktop\school\Active_Bike_Lighting_System\Radar_Core/Libraries/CMSIS/Include\core_cmSimd.h ****   return(result);
 149:C:\Users\Depes Crystalline\Desktop\school\Active_Bike_Lighting_System\Radar_Core/Libraries/CMSIS/Include\core_cmSimd.h **** }
 150:C:\Users\Depes Crystalline\Desktop\school\Active_Bike_Lighting_System\Radar_Core/Libraries/CMSIS/Include\core_cmSimd.h **** 
 151:C:\Users\Depes Crystalline\Desktop\school\Active_Bike_Lighting_System\Radar_Core/Libraries/CMSIS/Include\core_cmSimd.h **** __attribute__( ( always_inline ) ) __STATIC_INLINE uint32_t __SHADD8(uint32_t op1, uint32_t op2)
 152:C:\Users\Depes Crystalline\Desktop\school\Active_Bike_Lighting_System\Radar_Core/Libraries/CMSIS/Include\core_cmSimd.h **** {
 153:C:\Users\Depes Crystalline\Desktop\school\Active_Bike_Lighting_System\Radar_Core/Libraries/CMSIS/Include\core_cmSimd.h ****   uint32_t result;
 154:C:\Users\Depes Crystalline\Desktop\school\Active_Bike_Lighting_System\Radar_Core/Libraries/CMSIS/Include\core_cmSimd.h **** 
 155:C:\Users\Depes Crystalline\Desktop\school\Active_Bike_Lighting_System\Radar_Core/Libraries/CMSIS/Include\core_cmSimd.h ****   __ASM volatile ("shadd8 %0, %1, %2" : "=r" (result) : "r" (op1), "r" (op2) );
 156:C:\Users\Depes Crystalline\Desktop\school\Active_Bike_Lighting_System\Radar_Core/Libraries/CMSIS/Include\core_cmSimd.h ****   return(result);
 157:C:\Users\Depes Crystalline\Desktop\school\Active_Bike_Lighting_System\Radar_Core/Libraries/CMSIS/Include\core_cmSimd.h **** }
 158:C:\Users\Depes Crystalline\Desktop\school\Active_Bike_Lighting_System\Radar_Core/Libraries/CMSIS/Include\core_cmSimd.h **** 
 159:C:\Users\Depes Crystalline\Desktop\school\Active_Bike_Lighting_System\Radar_Core/Libraries/CMSIS/Include\core_cmSimd.h **** __attribute__( ( always_inline ) ) __STATIC_INLINE uint32_t __UADD8(uint32_t op1, uint32_t op2)
 160:C:\Users\Depes Crystalline\Desktop\school\Active_Bike_Lighting_System\Radar_Core/Libraries/CMSIS/Include\core_cmSimd.h **** {
 161:C:\Users\Depes Crystalline\Desktop\school\Active_Bike_Lighting_System\Radar_Core/Libraries/CMSIS/Include\core_cmSimd.h ****   uint32_t result;
 162:C:\Users\Depes Crystalline\Desktop\school\Active_Bike_Lighting_System\Radar_Core/Libraries/CMSIS/Include\core_cmSimd.h **** 
 163:C:\Users\Depes Crystalline\Desktop\school\Active_Bike_Lighting_System\Radar_Core/Libraries/CMSIS/Include\core_cmSimd.h ****   __ASM volatile ("uadd8 %0, %1, %2" : "=r" (result) : "r" (op1), "r" (op2) );
 164:C:\Users\Depes Crystalline\Desktop\school\Active_Bike_Lighting_System\Radar_Core/Libraries/CMSIS/Include\core_cmSimd.h ****   return(result);
 165:C:\Users\Depes Crystalline\Desktop\school\Active_Bike_Lighting_System\Radar_Core/Libraries/CMSIS/Include\core_cmSimd.h **** }
 166:C:\Users\Depes Crystalline\Desktop\school\Active_Bike_Lighting_System\Radar_Core/Libraries/CMSIS/Include\core_cmSimd.h **** 
 167:C:\Users\Depes Crystalline\Desktop\school\Active_Bike_Lighting_System\Radar_Core/Libraries/CMSIS/Include\core_cmSimd.h **** __attribute__( ( always_inline ) ) __STATIC_INLINE uint32_t __UQADD8(uint32_t op1, uint32_t op2)
 168:C:\Users\Depes Crystalline\Desktop\school\Active_Bike_Lighting_System\Radar_Core/Libraries/CMSIS/Include\core_cmSimd.h **** {
 169:C:\Users\Depes Crystalline\Desktop\school\Active_Bike_Lighting_System\Radar_Core/Libraries/CMSIS/Include\core_cmSimd.h ****   uint32_t result;
 170:C:\Users\Depes Crystalline\Desktop\school\Active_Bike_Lighting_System\Radar_Core/Libraries/CMSIS/Include\core_cmSimd.h **** 
 171:C:\Users\Depes Crystalline\Desktop\school\Active_Bike_Lighting_System\Radar_Core/Libraries/CMSIS/Include\core_cmSimd.h ****   __ASM volatile ("uqadd8 %0, %1, %2" : "=r" (result) : "r" (op1), "r" (op2) );
 172:C:\Users\Depes Crystalline\Desktop\school\Active_Bike_Lighting_System\Radar_Core/Libraries/CMSIS/Include\core_cmSimd.h ****   return(result);
 173:C:\Users\Depes Crystalline\Desktop\school\Active_Bike_Lighting_System\Radar_Core/Libraries/CMSIS/Include\core_cmSimd.h **** }
 174:C:\Users\Depes Crystalline\Desktop\school\Active_Bike_Lighting_System\Radar_Core/Libraries/CMSIS/Include\core_cmSimd.h **** 
 175:C:\Users\Depes Crystalline\Desktop\school\Active_Bike_Lighting_System\Radar_Core/Libraries/CMSIS/Include\core_cmSimd.h **** __attribute__( ( always_inline ) ) __STATIC_INLINE uint32_t __UHADD8(uint32_t op1, uint32_t op2)
 176:C:\Users\Depes Crystalline\Desktop\school\Active_Bike_Lighting_System\Radar_Core/Libraries/CMSIS/Include\core_cmSimd.h **** {
 177:C:\Users\Depes Crystalline\Desktop\school\Active_Bike_Lighting_System\Radar_Core/Libraries/CMSIS/Include\core_cmSimd.h ****   uint32_t result;
 178:C:\Users\Depes Crystalline\Desktop\school\Active_Bike_Lighting_System\Radar_Core/Libraries/CMSIS/Include\core_cmSimd.h **** 
 179:C:\Users\Depes Crystalline\Desktop\school\Active_Bike_Lighting_System\Radar_Core/Libraries/CMSIS/Include\core_cmSimd.h ****   __ASM volatile ("uhadd8 %0, %1, %2" : "=r" (result) : "r" (op1), "r" (op2) );
 180:C:\Users\Depes Crystalline\Desktop\school\Active_Bike_Lighting_System\Radar_Core/Libraries/CMSIS/Include\core_cmSimd.h ****   return(result);
 181:C:\Users\Depes Crystalline\Desktop\school\Active_Bike_Lighting_System\Radar_Core/Libraries/CMSIS/Include\core_cmSimd.h **** }
 182:C:\Users\Depes Crystalline\Desktop\school\Active_Bike_Lighting_System\Radar_Core/Libraries/CMSIS/Include\core_cmSimd.h **** 
 183:C:\Users\Depes Crystalline\Desktop\school\Active_Bike_Lighting_System\Radar_Core/Libraries/CMSIS/Include\core_cmSimd.h **** 
 184:C:\Users\Depes Crystalline\Desktop\school\Active_Bike_Lighting_System\Radar_Core/Libraries/CMSIS/Include\core_cmSimd.h **** __attribute__( ( always_inline ) ) __STATIC_INLINE uint32_t __SSUB8(uint32_t op1, uint32_t op2)
 185:C:\Users\Depes Crystalline\Desktop\school\Active_Bike_Lighting_System\Radar_Core/Libraries/CMSIS/Include\core_cmSimd.h **** {
 186:C:\Users\Depes Crystalline\Desktop\school\Active_Bike_Lighting_System\Radar_Core/Libraries/CMSIS/Include\core_cmSimd.h ****   uint32_t result;
 187:C:\Users\Depes Crystalline\Desktop\school\Active_Bike_Lighting_System\Radar_Core/Libraries/CMSIS/Include\core_cmSimd.h **** 
 188:C:\Users\Depes Crystalline\Desktop\school\Active_Bike_Lighting_System\Radar_Core/Libraries/CMSIS/Include\core_cmSimd.h ****   __ASM volatile ("ssub8 %0, %1, %2" : "=r" (result) : "r" (op1), "r" (op2) );
 189:C:\Users\Depes Crystalline\Desktop\school\Active_Bike_Lighting_System\Radar_Core/Libraries/CMSIS/Include\core_cmSimd.h ****   return(result);
 190:C:\Users\Depes Crystalline\Desktop\school\Active_Bike_Lighting_System\Radar_Core/Libraries/CMSIS/Include\core_cmSimd.h **** }
 191:C:\Users\Depes Crystalline\Desktop\school\Active_Bike_Lighting_System\Radar_Core/Libraries/CMSIS/Include\core_cmSimd.h **** 
 192:C:\Users\Depes Crystalline\Desktop\school\Active_Bike_Lighting_System\Radar_Core/Libraries/CMSIS/Include\core_cmSimd.h **** __attribute__( ( always_inline ) ) __STATIC_INLINE uint32_t __QSUB8(uint32_t op1, uint32_t op2)
 193:C:\Users\Depes Crystalline\Desktop\school\Active_Bike_Lighting_System\Radar_Core/Libraries/CMSIS/Include\core_cmSimd.h **** {
 194:C:\Users\Depes Crystalline\Desktop\school\Active_Bike_Lighting_System\Radar_Core/Libraries/CMSIS/Include\core_cmSimd.h ****   uint32_t result;
 195:C:\Users\Depes Crystalline\Desktop\school\Active_Bike_Lighting_System\Radar_Core/Libraries/CMSIS/Include\core_cmSimd.h **** 
 196:C:\Users\Depes Crystalline\Desktop\school\Active_Bike_Lighting_System\Radar_Core/Libraries/CMSIS/Include\core_cmSimd.h ****   __ASM volatile ("qsub8 %0, %1, %2" : "=r" (result) : "r" (op1), "r" (op2) );
 197:C:\Users\Depes Crystalline\Desktop\school\Active_Bike_Lighting_System\Radar_Core/Libraries/CMSIS/Include\core_cmSimd.h ****   return(result);
 198:C:\Users\Depes Crystalline\Desktop\school\Active_Bike_Lighting_System\Radar_Core/Libraries/CMSIS/Include\core_cmSimd.h **** }
 199:C:\Users\Depes Crystalline\Desktop\school\Active_Bike_Lighting_System\Radar_Core/Libraries/CMSIS/Include\core_cmSimd.h **** 
 200:C:\Users\Depes Crystalline\Desktop\school\Active_Bike_Lighting_System\Radar_Core/Libraries/CMSIS/Include\core_cmSimd.h **** __attribute__( ( always_inline ) ) __STATIC_INLINE uint32_t __SHSUB8(uint32_t op1, uint32_t op2)
 201:C:\Users\Depes Crystalline\Desktop\school\Active_Bike_Lighting_System\Radar_Core/Libraries/CMSIS/Include\core_cmSimd.h **** {
 202:C:\Users\Depes Crystalline\Desktop\school\Active_Bike_Lighting_System\Radar_Core/Libraries/CMSIS/Include\core_cmSimd.h ****   uint32_t result;
 203:C:\Users\Depes Crystalline\Desktop\school\Active_Bike_Lighting_System\Radar_Core/Libraries/CMSIS/Include\core_cmSimd.h **** 
 204:C:\Users\Depes Crystalline\Desktop\school\Active_Bike_Lighting_System\Radar_Core/Libraries/CMSIS/Include\core_cmSimd.h ****   __ASM volatile ("shsub8 %0, %1, %2" : "=r" (result) : "r" (op1), "r" (op2) );
 205:C:\Users\Depes Crystalline\Desktop\school\Active_Bike_Lighting_System\Radar_Core/Libraries/CMSIS/Include\core_cmSimd.h ****   return(result);
 206:C:\Users\Depes Crystalline\Desktop\school\Active_Bike_Lighting_System\Radar_Core/Libraries/CMSIS/Include\core_cmSimd.h **** }
 207:C:\Users\Depes Crystalline\Desktop\school\Active_Bike_Lighting_System\Radar_Core/Libraries/CMSIS/Include\core_cmSimd.h **** 
 208:C:\Users\Depes Crystalline\Desktop\school\Active_Bike_Lighting_System\Radar_Core/Libraries/CMSIS/Include\core_cmSimd.h **** __attribute__( ( always_inline ) ) __STATIC_INLINE uint32_t __USUB8(uint32_t op1, uint32_t op2)
 209:C:\Users\Depes Crystalline\Desktop\school\Active_Bike_Lighting_System\Radar_Core/Libraries/CMSIS/Include\core_cmSimd.h **** {
 210:C:\Users\Depes Crystalline\Desktop\school\Active_Bike_Lighting_System\Radar_Core/Libraries/CMSIS/Include\core_cmSimd.h ****   uint32_t result;
 211:C:\Users\Depes Crystalline\Desktop\school\Active_Bike_Lighting_System\Radar_Core/Libraries/CMSIS/Include\core_cmSimd.h **** 
 212:C:\Users\Depes Crystalline\Desktop\school\Active_Bike_Lighting_System\Radar_Core/Libraries/CMSIS/Include\core_cmSimd.h ****   __ASM volatile ("usub8 %0, %1, %2" : "=r" (result) : "r" (op1), "r" (op2) );
 213:C:\Users\Depes Crystalline\Desktop\school\Active_Bike_Lighting_System\Radar_Core/Libraries/CMSIS/Include\core_cmSimd.h ****   return(result);
 214:C:\Users\Depes Crystalline\Desktop\school\Active_Bike_Lighting_System\Radar_Core/Libraries/CMSIS/Include\core_cmSimd.h **** }
 215:C:\Users\Depes Crystalline\Desktop\school\Active_Bike_Lighting_System\Radar_Core/Libraries/CMSIS/Include\core_cmSimd.h **** 
 216:C:\Users\Depes Crystalline\Desktop\school\Active_Bike_Lighting_System\Radar_Core/Libraries/CMSIS/Include\core_cmSimd.h **** __attribute__( ( always_inline ) ) __STATIC_INLINE uint32_t __UQSUB8(uint32_t op1, uint32_t op2)
 217:C:\Users\Depes Crystalline\Desktop\school\Active_Bike_Lighting_System\Radar_Core/Libraries/CMSIS/Include\core_cmSimd.h **** {
 218:C:\Users\Depes Crystalline\Desktop\school\Active_Bike_Lighting_System\Radar_Core/Libraries/CMSIS/Include\core_cmSimd.h ****   uint32_t result;
 219:C:\Users\Depes Crystalline\Desktop\school\Active_Bike_Lighting_System\Radar_Core/Libraries/CMSIS/Include\core_cmSimd.h **** 
 220:C:\Users\Depes Crystalline\Desktop\school\Active_Bike_Lighting_System\Radar_Core/Libraries/CMSIS/Include\core_cmSimd.h ****   __ASM volatile ("uqsub8 %0, %1, %2" : "=r" (result) : "r" (op1), "r" (op2) );
 221:C:\Users\Depes Crystalline\Desktop\school\Active_Bike_Lighting_System\Radar_Core/Libraries/CMSIS/Include\core_cmSimd.h ****   return(result);
 222:C:\Users\Depes Crystalline\Desktop\school\Active_Bike_Lighting_System\Radar_Core/Libraries/CMSIS/Include\core_cmSimd.h **** }
 223:C:\Users\Depes Crystalline\Desktop\school\Active_Bike_Lighting_System\Radar_Core/Libraries/CMSIS/Include\core_cmSimd.h **** 
 224:C:\Users\Depes Crystalline\Desktop\school\Active_Bike_Lighting_System\Radar_Core/Libraries/CMSIS/Include\core_cmSimd.h **** __attribute__( ( always_inline ) ) __STATIC_INLINE uint32_t __UHSUB8(uint32_t op1, uint32_t op2)
 225:C:\Users\Depes Crystalline\Desktop\school\Active_Bike_Lighting_System\Radar_Core/Libraries/CMSIS/Include\core_cmSimd.h **** {
 226:C:\Users\Depes Crystalline\Desktop\school\Active_Bike_Lighting_System\Radar_Core/Libraries/CMSIS/Include\core_cmSimd.h ****   uint32_t result;
 227:C:\Users\Depes Crystalline\Desktop\school\Active_Bike_Lighting_System\Radar_Core/Libraries/CMSIS/Include\core_cmSimd.h **** 
 228:C:\Users\Depes Crystalline\Desktop\school\Active_Bike_Lighting_System\Radar_Core/Libraries/CMSIS/Include\core_cmSimd.h ****   __ASM volatile ("uhsub8 %0, %1, %2" : "=r" (result) : "r" (op1), "r" (op2) );
 229:C:\Users\Depes Crystalline\Desktop\school\Active_Bike_Lighting_System\Radar_Core/Libraries/CMSIS/Include\core_cmSimd.h ****   return(result);
 230:C:\Users\Depes Crystalline\Desktop\school\Active_Bike_Lighting_System\Radar_Core/Libraries/CMSIS/Include\core_cmSimd.h **** }
 231:C:\Users\Depes Crystalline\Desktop\school\Active_Bike_Lighting_System\Radar_Core/Libraries/CMSIS/Include\core_cmSimd.h **** 
 232:C:\Users\Depes Crystalline\Desktop\school\Active_Bike_Lighting_System\Radar_Core/Libraries/CMSIS/Include\core_cmSimd.h **** 
 233:C:\Users\Depes Crystalline\Desktop\school\Active_Bike_Lighting_System\Radar_Core/Libraries/CMSIS/Include\core_cmSimd.h **** __attribute__( ( always_inline ) ) __STATIC_INLINE uint32_t __SADD16(uint32_t op1, uint32_t op2)
 234:C:\Users\Depes Crystalline\Desktop\school\Active_Bike_Lighting_System\Radar_Core/Libraries/CMSIS/Include\core_cmSimd.h **** {
 235:C:\Users\Depes Crystalline\Desktop\school\Active_Bike_Lighting_System\Radar_Core/Libraries/CMSIS/Include\core_cmSimd.h ****   uint32_t result;
 236:C:\Users\Depes Crystalline\Desktop\school\Active_Bike_Lighting_System\Radar_Core/Libraries/CMSIS/Include\core_cmSimd.h **** 
 237:C:\Users\Depes Crystalline\Desktop\school\Active_Bike_Lighting_System\Radar_Core/Libraries/CMSIS/Include\core_cmSimd.h ****   __ASM volatile ("sadd16 %0, %1, %2" : "=r" (result) : "r" (op1), "r" (op2) );
 238:C:\Users\Depes Crystalline\Desktop\school\Active_Bike_Lighting_System\Radar_Core/Libraries/CMSIS/Include\core_cmSimd.h ****   return(result);
 239:C:\Users\Depes Crystalline\Desktop\school\Active_Bike_Lighting_System\Radar_Core/Libraries/CMSIS/Include\core_cmSimd.h **** }
 240:C:\Users\Depes Crystalline\Desktop\school\Active_Bike_Lighting_System\Radar_Core/Libraries/CMSIS/Include\core_cmSimd.h **** 
 241:C:\Users\Depes Crystalline\Desktop\school\Active_Bike_Lighting_System\Radar_Core/Libraries/CMSIS/Include\core_cmSimd.h **** __attribute__( ( always_inline ) ) __STATIC_INLINE uint32_t __QADD16(uint32_t op1, uint32_t op2)
 242:C:\Users\Depes Crystalline\Desktop\school\Active_Bike_Lighting_System\Radar_Core/Libraries/CMSIS/Include\core_cmSimd.h **** {
 243:C:\Users\Depes Crystalline\Desktop\school\Active_Bike_Lighting_System\Radar_Core/Libraries/CMSIS/Include\core_cmSimd.h ****   uint32_t result;
 244:C:\Users\Depes Crystalline\Desktop\school\Active_Bike_Lighting_System\Radar_Core/Libraries/CMSIS/Include\core_cmSimd.h **** 
 245:C:\Users\Depes Crystalline\Desktop\school\Active_Bike_Lighting_System\Radar_Core/Libraries/CMSIS/Include\core_cmSimd.h ****   __ASM volatile ("qadd16 %0, %1, %2" : "=r" (result) : "r" (op1), "r" (op2) );
 246:C:\Users\Depes Crystalline\Desktop\school\Active_Bike_Lighting_System\Radar_Core/Libraries/CMSIS/Include\core_cmSimd.h ****   return(result);
 247:C:\Users\Depes Crystalline\Desktop\school\Active_Bike_Lighting_System\Radar_Core/Libraries/CMSIS/Include\core_cmSimd.h **** }
 248:C:\Users\Depes Crystalline\Desktop\school\Active_Bike_Lighting_System\Radar_Core/Libraries/CMSIS/Include\core_cmSimd.h **** 
 249:C:\Users\Depes Crystalline\Desktop\school\Active_Bike_Lighting_System\Radar_Core/Libraries/CMSIS/Include\core_cmSimd.h **** __attribute__( ( always_inline ) ) __STATIC_INLINE uint32_t __SHADD16(uint32_t op1, uint32_t op2)
 250:C:\Users\Depes Crystalline\Desktop\school\Active_Bike_Lighting_System\Radar_Core/Libraries/CMSIS/Include\core_cmSimd.h **** {
 251:C:\Users\Depes Crystalline\Desktop\school\Active_Bike_Lighting_System\Radar_Core/Libraries/CMSIS/Include\core_cmSimd.h ****   uint32_t result;
 252:C:\Users\Depes Crystalline\Desktop\school\Active_Bike_Lighting_System\Radar_Core/Libraries/CMSIS/Include\core_cmSimd.h **** 
 253:C:\Users\Depes Crystalline\Desktop\school\Active_Bike_Lighting_System\Radar_Core/Libraries/CMSIS/Include\core_cmSimd.h ****   __ASM volatile ("shadd16 %0, %1, %2" : "=r" (result) : "r" (op1), "r" (op2) );
 254:C:\Users\Depes Crystalline\Desktop\school\Active_Bike_Lighting_System\Radar_Core/Libraries/CMSIS/Include\core_cmSimd.h ****   return(result);
 255:C:\Users\Depes Crystalline\Desktop\school\Active_Bike_Lighting_System\Radar_Core/Libraries/CMSIS/Include\core_cmSimd.h **** }
 256:C:\Users\Depes Crystalline\Desktop\school\Active_Bike_Lighting_System\Radar_Core/Libraries/CMSIS/Include\core_cmSimd.h **** 
 257:C:\Users\Depes Crystalline\Desktop\school\Active_Bike_Lighting_System\Radar_Core/Libraries/CMSIS/Include\core_cmSimd.h **** __attribute__( ( always_inline ) ) __STATIC_INLINE uint32_t __UADD16(uint32_t op1, uint32_t op2)
 258:C:\Users\Depes Crystalline\Desktop\school\Active_Bike_Lighting_System\Radar_Core/Libraries/CMSIS/Include\core_cmSimd.h **** {
 259:C:\Users\Depes Crystalline\Desktop\school\Active_Bike_Lighting_System\Radar_Core/Libraries/CMSIS/Include\core_cmSimd.h ****   uint32_t result;
 260:C:\Users\Depes Crystalline\Desktop\school\Active_Bike_Lighting_System\Radar_Core/Libraries/CMSIS/Include\core_cmSimd.h **** 
 261:C:\Users\Depes Crystalline\Desktop\school\Active_Bike_Lighting_System\Radar_Core/Libraries/CMSIS/Include\core_cmSimd.h ****   __ASM volatile ("uadd16 %0, %1, %2" : "=r" (result) : "r" (op1), "r" (op2) );
 262:C:\Users\Depes Crystalline\Desktop\school\Active_Bike_Lighting_System\Radar_Core/Libraries/CMSIS/Include\core_cmSimd.h ****   return(result);
 263:C:\Users\Depes Crystalline\Desktop\school\Active_Bike_Lighting_System\Radar_Core/Libraries/CMSIS/Include\core_cmSimd.h **** }
 264:C:\Users\Depes Crystalline\Desktop\school\Active_Bike_Lighting_System\Radar_Core/Libraries/CMSIS/Include\core_cmSimd.h **** 
 265:C:\Users\Depes Crystalline\Desktop\school\Active_Bike_Lighting_System\Radar_Core/Libraries/CMSIS/Include\core_cmSimd.h **** __attribute__( ( always_inline ) ) __STATIC_INLINE uint32_t __UQADD16(uint32_t op1, uint32_t op2)
 266:C:\Users\Depes Crystalline\Desktop\school\Active_Bike_Lighting_System\Radar_Core/Libraries/CMSIS/Include\core_cmSimd.h **** {
 267:C:\Users\Depes Crystalline\Desktop\school\Active_Bike_Lighting_System\Radar_Core/Libraries/CMSIS/Include\core_cmSimd.h ****   uint32_t result;
 268:C:\Users\Depes Crystalline\Desktop\school\Active_Bike_Lighting_System\Radar_Core/Libraries/CMSIS/Include\core_cmSimd.h **** 
 269:C:\Users\Depes Crystalline\Desktop\school\Active_Bike_Lighting_System\Radar_Core/Libraries/CMSIS/Include\core_cmSimd.h ****   __ASM volatile ("uqadd16 %0, %1, %2" : "=r" (result) : "r" (op1), "r" (op2) );
 270:C:\Users\Depes Crystalline\Desktop\school\Active_Bike_Lighting_System\Radar_Core/Libraries/CMSIS/Include\core_cmSimd.h ****   return(result);
 271:C:\Users\Depes Crystalline\Desktop\school\Active_Bike_Lighting_System\Radar_Core/Libraries/CMSIS/Include\core_cmSimd.h **** }
 272:C:\Users\Depes Crystalline\Desktop\school\Active_Bike_Lighting_System\Radar_Core/Libraries/CMSIS/Include\core_cmSimd.h **** 
 273:C:\Users\Depes Crystalline\Desktop\school\Active_Bike_Lighting_System\Radar_Core/Libraries/CMSIS/Include\core_cmSimd.h **** __attribute__( ( always_inline ) ) __STATIC_INLINE uint32_t __UHADD16(uint32_t op1, uint32_t op2)
 274:C:\Users\Depes Crystalline\Desktop\school\Active_Bike_Lighting_System\Radar_Core/Libraries/CMSIS/Include\core_cmSimd.h **** {
 275:C:\Users\Depes Crystalline\Desktop\school\Active_Bike_Lighting_System\Radar_Core/Libraries/CMSIS/Include\core_cmSimd.h ****   uint32_t result;
 276:C:\Users\Depes Crystalline\Desktop\school\Active_Bike_Lighting_System\Radar_Core/Libraries/CMSIS/Include\core_cmSimd.h **** 
 277:C:\Users\Depes Crystalline\Desktop\school\Active_Bike_Lighting_System\Radar_Core/Libraries/CMSIS/Include\core_cmSimd.h ****   __ASM volatile ("uhadd16 %0, %1, %2" : "=r" (result) : "r" (op1), "r" (op2) );
 278:C:\Users\Depes Crystalline\Desktop\school\Active_Bike_Lighting_System\Radar_Core/Libraries/CMSIS/Include\core_cmSimd.h ****   return(result);
 279:C:\Users\Depes Crystalline\Desktop\school\Active_Bike_Lighting_System\Radar_Core/Libraries/CMSIS/Include\core_cmSimd.h **** }
 280:C:\Users\Depes Crystalline\Desktop\school\Active_Bike_Lighting_System\Radar_Core/Libraries/CMSIS/Include\core_cmSimd.h **** 
 281:C:\Users\Depes Crystalline\Desktop\school\Active_Bike_Lighting_System\Radar_Core/Libraries/CMSIS/Include\core_cmSimd.h **** __attribute__( ( always_inline ) ) __STATIC_INLINE uint32_t __SSUB16(uint32_t op1, uint32_t op2)
 282:C:\Users\Depes Crystalline\Desktop\school\Active_Bike_Lighting_System\Radar_Core/Libraries/CMSIS/Include\core_cmSimd.h **** {
 283:C:\Users\Depes Crystalline\Desktop\school\Active_Bike_Lighting_System\Radar_Core/Libraries/CMSIS/Include\core_cmSimd.h ****   uint32_t result;
 284:C:\Users\Depes Crystalline\Desktop\school\Active_Bike_Lighting_System\Radar_Core/Libraries/CMSIS/Include\core_cmSimd.h **** 
 285:C:\Users\Depes Crystalline\Desktop\school\Active_Bike_Lighting_System\Radar_Core/Libraries/CMSIS/Include\core_cmSimd.h ****   __ASM volatile ("ssub16 %0, %1, %2" : "=r" (result) : "r" (op1), "r" (op2) );
 286:C:\Users\Depes Crystalline\Desktop\school\Active_Bike_Lighting_System\Radar_Core/Libraries/CMSIS/Include\core_cmSimd.h ****   return(result);
 287:C:\Users\Depes Crystalline\Desktop\school\Active_Bike_Lighting_System\Radar_Core/Libraries/CMSIS/Include\core_cmSimd.h **** }
 288:C:\Users\Depes Crystalline\Desktop\school\Active_Bike_Lighting_System\Radar_Core/Libraries/CMSIS/Include\core_cmSimd.h **** 
 289:C:\Users\Depes Crystalline\Desktop\school\Active_Bike_Lighting_System\Radar_Core/Libraries/CMSIS/Include\core_cmSimd.h **** __attribute__( ( always_inline ) ) __STATIC_INLINE uint32_t __QSUB16(uint32_t op1, uint32_t op2)
 290:C:\Users\Depes Crystalline\Desktop\school\Active_Bike_Lighting_System\Radar_Core/Libraries/CMSIS/Include\core_cmSimd.h **** {
 291:C:\Users\Depes Crystalline\Desktop\school\Active_Bike_Lighting_System\Radar_Core/Libraries/CMSIS/Include\core_cmSimd.h ****   uint32_t result;
 292:C:\Users\Depes Crystalline\Desktop\school\Active_Bike_Lighting_System\Radar_Core/Libraries/CMSIS/Include\core_cmSimd.h **** 
 293:C:\Users\Depes Crystalline\Desktop\school\Active_Bike_Lighting_System\Radar_Core/Libraries/CMSIS/Include\core_cmSimd.h ****   __ASM volatile ("qsub16 %0, %1, %2" : "=r" (result) : "r" (op1), "r" (op2) );
 294:C:\Users\Depes Crystalline\Desktop\school\Active_Bike_Lighting_System\Radar_Core/Libraries/CMSIS/Include\core_cmSimd.h ****   return(result);
 295:C:\Users\Depes Crystalline\Desktop\school\Active_Bike_Lighting_System\Radar_Core/Libraries/CMSIS/Include\core_cmSimd.h **** }
 296:C:\Users\Depes Crystalline\Desktop\school\Active_Bike_Lighting_System\Radar_Core/Libraries/CMSIS/Include\core_cmSimd.h **** 
 297:C:\Users\Depes Crystalline\Desktop\school\Active_Bike_Lighting_System\Radar_Core/Libraries/CMSIS/Include\core_cmSimd.h **** __attribute__( ( always_inline ) ) __STATIC_INLINE uint32_t __SHSUB16(uint32_t op1, uint32_t op2)
 298:C:\Users\Depes Crystalline\Desktop\school\Active_Bike_Lighting_System\Radar_Core/Libraries/CMSIS/Include\core_cmSimd.h **** {
 299:C:\Users\Depes Crystalline\Desktop\school\Active_Bike_Lighting_System\Radar_Core/Libraries/CMSIS/Include\core_cmSimd.h ****   uint32_t result;
 300:C:\Users\Depes Crystalline\Desktop\school\Active_Bike_Lighting_System\Radar_Core/Libraries/CMSIS/Include\core_cmSimd.h **** 
 301:C:\Users\Depes Crystalline\Desktop\school\Active_Bike_Lighting_System\Radar_Core/Libraries/CMSIS/Include\core_cmSimd.h ****   __ASM volatile ("shsub16 %0, %1, %2" : "=r" (result) : "r" (op1), "r" (op2) );
 302:C:\Users\Depes Crystalline\Desktop\school\Active_Bike_Lighting_System\Radar_Core/Libraries/CMSIS/Include\core_cmSimd.h ****   return(result);
 303:C:\Users\Depes Crystalline\Desktop\school\Active_Bike_Lighting_System\Radar_Core/Libraries/CMSIS/Include\core_cmSimd.h **** }
 304:C:\Users\Depes Crystalline\Desktop\school\Active_Bike_Lighting_System\Radar_Core/Libraries/CMSIS/Include\core_cmSimd.h **** 
 305:C:\Users\Depes Crystalline\Desktop\school\Active_Bike_Lighting_System\Radar_Core/Libraries/CMSIS/Include\core_cmSimd.h **** __attribute__( ( always_inline ) ) __STATIC_INLINE uint32_t __USUB16(uint32_t op1, uint32_t op2)
 306:C:\Users\Depes Crystalline\Desktop\school\Active_Bike_Lighting_System\Radar_Core/Libraries/CMSIS/Include\core_cmSimd.h **** {
 307:C:\Users\Depes Crystalline\Desktop\school\Active_Bike_Lighting_System\Radar_Core/Libraries/CMSIS/Include\core_cmSimd.h ****   uint32_t result;
 308:C:\Users\Depes Crystalline\Desktop\school\Active_Bike_Lighting_System\Radar_Core/Libraries/CMSIS/Include\core_cmSimd.h **** 
 309:C:\Users\Depes Crystalline\Desktop\school\Active_Bike_Lighting_System\Radar_Core/Libraries/CMSIS/Include\core_cmSimd.h ****   __ASM volatile ("usub16 %0, %1, %2" : "=r" (result) : "r" (op1), "r" (op2) );
 310:C:\Users\Depes Crystalline\Desktop\school\Active_Bike_Lighting_System\Radar_Core/Libraries/CMSIS/Include\core_cmSimd.h ****   return(result);
 311:C:\Users\Depes Crystalline\Desktop\school\Active_Bike_Lighting_System\Radar_Core/Libraries/CMSIS/Include\core_cmSimd.h **** }
 312:C:\Users\Depes Crystalline\Desktop\school\Active_Bike_Lighting_System\Radar_Core/Libraries/CMSIS/Include\core_cmSimd.h **** 
 313:C:\Users\Depes Crystalline\Desktop\school\Active_Bike_Lighting_System\Radar_Core/Libraries/CMSIS/Include\core_cmSimd.h **** __attribute__( ( always_inline ) ) __STATIC_INLINE uint32_t __UQSUB16(uint32_t op1, uint32_t op2)
 314:C:\Users\Depes Crystalline\Desktop\school\Active_Bike_Lighting_System\Radar_Core/Libraries/CMSIS/Include\core_cmSimd.h **** {
 315:C:\Users\Depes Crystalline\Desktop\school\Active_Bike_Lighting_System\Radar_Core/Libraries/CMSIS/Include\core_cmSimd.h ****   uint32_t result;
 316:C:\Users\Depes Crystalline\Desktop\school\Active_Bike_Lighting_System\Radar_Core/Libraries/CMSIS/Include\core_cmSimd.h **** 
 317:C:\Users\Depes Crystalline\Desktop\school\Active_Bike_Lighting_System\Radar_Core/Libraries/CMSIS/Include\core_cmSimd.h ****   __ASM volatile ("uqsub16 %0, %1, %2" : "=r" (result) : "r" (op1), "r" (op2) );
 318:C:\Users\Depes Crystalline\Desktop\school\Active_Bike_Lighting_System\Radar_Core/Libraries/CMSIS/Include\core_cmSimd.h ****   return(result);
 319:C:\Users\Depes Crystalline\Desktop\school\Active_Bike_Lighting_System\Radar_Core/Libraries/CMSIS/Include\core_cmSimd.h **** }
 320:C:\Users\Depes Crystalline\Desktop\school\Active_Bike_Lighting_System\Radar_Core/Libraries/CMSIS/Include\core_cmSimd.h **** 
 321:C:\Users\Depes Crystalline\Desktop\school\Active_Bike_Lighting_System\Radar_Core/Libraries/CMSIS/Include\core_cmSimd.h **** __attribute__( ( always_inline ) ) __STATIC_INLINE uint32_t __UHSUB16(uint32_t op1, uint32_t op2)
 322:C:\Users\Depes Crystalline\Desktop\school\Active_Bike_Lighting_System\Radar_Core/Libraries/CMSIS/Include\core_cmSimd.h **** {
 323:C:\Users\Depes Crystalline\Desktop\school\Active_Bike_Lighting_System\Radar_Core/Libraries/CMSIS/Include\core_cmSimd.h ****   uint32_t result;
 324:C:\Users\Depes Crystalline\Desktop\school\Active_Bike_Lighting_System\Radar_Core/Libraries/CMSIS/Include\core_cmSimd.h **** 
 325:C:\Users\Depes Crystalline\Desktop\school\Active_Bike_Lighting_System\Radar_Core/Libraries/CMSIS/Include\core_cmSimd.h ****   __ASM volatile ("uhsub16 %0, %1, %2" : "=r" (result) : "r" (op1), "r" (op2) );
 326:C:\Users\Depes Crystalline\Desktop\school\Active_Bike_Lighting_System\Radar_Core/Libraries/CMSIS/Include\core_cmSimd.h ****   return(result);
 327:C:\Users\Depes Crystalline\Desktop\school\Active_Bike_Lighting_System\Radar_Core/Libraries/CMSIS/Include\core_cmSimd.h **** }
 328:C:\Users\Depes Crystalline\Desktop\school\Active_Bike_Lighting_System\Radar_Core/Libraries/CMSIS/Include\core_cmSimd.h **** 
 329:C:\Users\Depes Crystalline\Desktop\school\Active_Bike_Lighting_System\Radar_Core/Libraries/CMSIS/Include\core_cmSimd.h **** __attribute__( ( always_inline ) ) __STATIC_INLINE uint32_t __SASX(uint32_t op1, uint32_t op2)
 330:C:\Users\Depes Crystalline\Desktop\school\Active_Bike_Lighting_System\Radar_Core/Libraries/CMSIS/Include\core_cmSimd.h **** {
 331:C:\Users\Depes Crystalline\Desktop\school\Active_Bike_Lighting_System\Radar_Core/Libraries/CMSIS/Include\core_cmSimd.h ****   uint32_t result;
 332:C:\Users\Depes Crystalline\Desktop\school\Active_Bike_Lighting_System\Radar_Core/Libraries/CMSIS/Include\core_cmSimd.h **** 
 333:C:\Users\Depes Crystalline\Desktop\school\Active_Bike_Lighting_System\Radar_Core/Libraries/CMSIS/Include\core_cmSimd.h ****   __ASM volatile ("sasx %0, %1, %2" : "=r" (result) : "r" (op1), "r" (op2) );
 334:C:\Users\Depes Crystalline\Desktop\school\Active_Bike_Lighting_System\Radar_Core/Libraries/CMSIS/Include\core_cmSimd.h ****   return(result);
 335:C:\Users\Depes Crystalline\Desktop\school\Active_Bike_Lighting_System\Radar_Core/Libraries/CMSIS/Include\core_cmSimd.h **** }
 336:C:\Users\Depes Crystalline\Desktop\school\Active_Bike_Lighting_System\Radar_Core/Libraries/CMSIS/Include\core_cmSimd.h **** 
 337:C:\Users\Depes Crystalline\Desktop\school\Active_Bike_Lighting_System\Radar_Core/Libraries/CMSIS/Include\core_cmSimd.h **** __attribute__( ( always_inline ) ) __STATIC_INLINE uint32_t __QASX(uint32_t op1, uint32_t op2)
 338:C:\Users\Depes Crystalline\Desktop\school\Active_Bike_Lighting_System\Radar_Core/Libraries/CMSIS/Include\core_cmSimd.h **** {
 339:C:\Users\Depes Crystalline\Desktop\school\Active_Bike_Lighting_System\Radar_Core/Libraries/CMSIS/Include\core_cmSimd.h ****   uint32_t result;
 340:C:\Users\Depes Crystalline\Desktop\school\Active_Bike_Lighting_System\Radar_Core/Libraries/CMSIS/Include\core_cmSimd.h **** 
 341:C:\Users\Depes Crystalline\Desktop\school\Active_Bike_Lighting_System\Radar_Core/Libraries/CMSIS/Include\core_cmSimd.h ****   __ASM volatile ("qasx %0, %1, %2" : "=r" (result) : "r" (op1), "r" (op2) );
 342:C:\Users\Depes Crystalline\Desktop\school\Active_Bike_Lighting_System\Radar_Core/Libraries/CMSIS/Include\core_cmSimd.h ****   return(result);
 343:C:\Users\Depes Crystalline\Desktop\school\Active_Bike_Lighting_System\Radar_Core/Libraries/CMSIS/Include\core_cmSimd.h **** }
 344:C:\Users\Depes Crystalline\Desktop\school\Active_Bike_Lighting_System\Radar_Core/Libraries/CMSIS/Include\core_cmSimd.h **** 
 345:C:\Users\Depes Crystalline\Desktop\school\Active_Bike_Lighting_System\Radar_Core/Libraries/CMSIS/Include\core_cmSimd.h **** __attribute__( ( always_inline ) ) __STATIC_INLINE uint32_t __SHASX(uint32_t op1, uint32_t op2)
 346:C:\Users\Depes Crystalline\Desktop\school\Active_Bike_Lighting_System\Radar_Core/Libraries/CMSIS/Include\core_cmSimd.h **** {
 347:C:\Users\Depes Crystalline\Desktop\school\Active_Bike_Lighting_System\Radar_Core/Libraries/CMSIS/Include\core_cmSimd.h ****   uint32_t result;
 348:C:\Users\Depes Crystalline\Desktop\school\Active_Bike_Lighting_System\Radar_Core/Libraries/CMSIS/Include\core_cmSimd.h **** 
 349:C:\Users\Depes Crystalline\Desktop\school\Active_Bike_Lighting_System\Radar_Core/Libraries/CMSIS/Include\core_cmSimd.h ****   __ASM volatile ("shasx %0, %1, %2" : "=r" (result) : "r" (op1), "r" (op2) );
 350:C:\Users\Depes Crystalline\Desktop\school\Active_Bike_Lighting_System\Radar_Core/Libraries/CMSIS/Include\core_cmSimd.h ****   return(result);
 351:C:\Users\Depes Crystalline\Desktop\school\Active_Bike_Lighting_System\Radar_Core/Libraries/CMSIS/Include\core_cmSimd.h **** }
 352:C:\Users\Depes Crystalline\Desktop\school\Active_Bike_Lighting_System\Radar_Core/Libraries/CMSIS/Include\core_cmSimd.h **** 
 353:C:\Users\Depes Crystalline\Desktop\school\Active_Bike_Lighting_System\Radar_Core/Libraries/CMSIS/Include\core_cmSimd.h **** __attribute__( ( always_inline ) ) __STATIC_INLINE uint32_t __UASX(uint32_t op1, uint32_t op2)
 354:C:\Users\Depes Crystalline\Desktop\school\Active_Bike_Lighting_System\Radar_Core/Libraries/CMSIS/Include\core_cmSimd.h **** {
 355:C:\Users\Depes Crystalline\Desktop\school\Active_Bike_Lighting_System\Radar_Core/Libraries/CMSIS/Include\core_cmSimd.h ****   uint32_t result;
 356:C:\Users\Depes Crystalline\Desktop\school\Active_Bike_Lighting_System\Radar_Core/Libraries/CMSIS/Include\core_cmSimd.h **** 
 357:C:\Users\Depes Crystalline\Desktop\school\Active_Bike_Lighting_System\Radar_Core/Libraries/CMSIS/Include\core_cmSimd.h ****   __ASM volatile ("uasx %0, %1, %2" : "=r" (result) : "r" (op1), "r" (op2) );
 358:C:\Users\Depes Crystalline\Desktop\school\Active_Bike_Lighting_System\Radar_Core/Libraries/CMSIS/Include\core_cmSimd.h ****   return(result);
 359:C:\Users\Depes Crystalline\Desktop\school\Active_Bike_Lighting_System\Radar_Core/Libraries/CMSIS/Include\core_cmSimd.h **** }
 360:C:\Users\Depes Crystalline\Desktop\school\Active_Bike_Lighting_System\Radar_Core/Libraries/CMSIS/Include\core_cmSimd.h **** 
 361:C:\Users\Depes Crystalline\Desktop\school\Active_Bike_Lighting_System\Radar_Core/Libraries/CMSIS/Include\core_cmSimd.h **** __attribute__( ( always_inline ) ) __STATIC_INLINE uint32_t __UQASX(uint32_t op1, uint32_t op2)
 362:C:\Users\Depes Crystalline\Desktop\school\Active_Bike_Lighting_System\Radar_Core/Libraries/CMSIS/Include\core_cmSimd.h **** {
 363:C:\Users\Depes Crystalline\Desktop\school\Active_Bike_Lighting_System\Radar_Core/Libraries/CMSIS/Include\core_cmSimd.h ****   uint32_t result;
 364:C:\Users\Depes Crystalline\Desktop\school\Active_Bike_Lighting_System\Radar_Core/Libraries/CMSIS/Include\core_cmSimd.h **** 
 365:C:\Users\Depes Crystalline\Desktop\school\Active_Bike_Lighting_System\Radar_Core/Libraries/CMSIS/Include\core_cmSimd.h ****   __ASM volatile ("uqasx %0, %1, %2" : "=r" (result) : "r" (op1), "r" (op2) );
 366:C:\Users\Depes Crystalline\Desktop\school\Active_Bike_Lighting_System\Radar_Core/Libraries/CMSIS/Include\core_cmSimd.h ****   return(result);
 367:C:\Users\Depes Crystalline\Desktop\school\Active_Bike_Lighting_System\Radar_Core/Libraries/CMSIS/Include\core_cmSimd.h **** }
 368:C:\Users\Depes Crystalline\Desktop\school\Active_Bike_Lighting_System\Radar_Core/Libraries/CMSIS/Include\core_cmSimd.h **** 
 369:C:\Users\Depes Crystalline\Desktop\school\Active_Bike_Lighting_System\Radar_Core/Libraries/CMSIS/Include\core_cmSimd.h **** __attribute__( ( always_inline ) ) __STATIC_INLINE uint32_t __UHASX(uint32_t op1, uint32_t op2)
 370:C:\Users\Depes Crystalline\Desktop\school\Active_Bike_Lighting_System\Radar_Core/Libraries/CMSIS/Include\core_cmSimd.h **** {
 371:C:\Users\Depes Crystalline\Desktop\school\Active_Bike_Lighting_System\Radar_Core/Libraries/CMSIS/Include\core_cmSimd.h ****   uint32_t result;
 372:C:\Users\Depes Crystalline\Desktop\school\Active_Bike_Lighting_System\Radar_Core/Libraries/CMSIS/Include\core_cmSimd.h **** 
 373:C:\Users\Depes Crystalline\Desktop\school\Active_Bike_Lighting_System\Radar_Core/Libraries/CMSIS/Include\core_cmSimd.h ****   __ASM volatile ("uhasx %0, %1, %2" : "=r" (result) : "r" (op1), "r" (op2) );
 374:C:\Users\Depes Crystalline\Desktop\school\Active_Bike_Lighting_System\Radar_Core/Libraries/CMSIS/Include\core_cmSimd.h ****   return(result);
 375:C:\Users\Depes Crystalline\Desktop\school\Active_Bike_Lighting_System\Radar_Core/Libraries/CMSIS/Include\core_cmSimd.h **** }
 376:C:\Users\Depes Crystalline\Desktop\school\Active_Bike_Lighting_System\Radar_Core/Libraries/CMSIS/Include\core_cmSimd.h **** 
 377:C:\Users\Depes Crystalline\Desktop\school\Active_Bike_Lighting_System\Radar_Core/Libraries/CMSIS/Include\core_cmSimd.h **** __attribute__( ( always_inline ) ) __STATIC_INLINE uint32_t __SSAX(uint32_t op1, uint32_t op2)
 378:C:\Users\Depes Crystalline\Desktop\school\Active_Bike_Lighting_System\Radar_Core/Libraries/CMSIS/Include\core_cmSimd.h **** {
 379:C:\Users\Depes Crystalline\Desktop\school\Active_Bike_Lighting_System\Radar_Core/Libraries/CMSIS/Include\core_cmSimd.h ****   uint32_t result;
 380:C:\Users\Depes Crystalline\Desktop\school\Active_Bike_Lighting_System\Radar_Core/Libraries/CMSIS/Include\core_cmSimd.h **** 
 381:C:\Users\Depes Crystalline\Desktop\school\Active_Bike_Lighting_System\Radar_Core/Libraries/CMSIS/Include\core_cmSimd.h ****   __ASM volatile ("ssax %0, %1, %2" : "=r" (result) : "r" (op1), "r" (op2) );
 382:C:\Users\Depes Crystalline\Desktop\school\Active_Bike_Lighting_System\Radar_Core/Libraries/CMSIS/Include\core_cmSimd.h ****   return(result);
 383:C:\Users\Depes Crystalline\Desktop\school\Active_Bike_Lighting_System\Radar_Core/Libraries/CMSIS/Include\core_cmSimd.h **** }
 384:C:\Users\Depes Crystalline\Desktop\school\Active_Bike_Lighting_System\Radar_Core/Libraries/CMSIS/Include\core_cmSimd.h **** 
 385:C:\Users\Depes Crystalline\Desktop\school\Active_Bike_Lighting_System\Radar_Core/Libraries/CMSIS/Include\core_cmSimd.h **** __attribute__( ( always_inline ) ) __STATIC_INLINE uint32_t __QSAX(uint32_t op1, uint32_t op2)
 386:C:\Users\Depes Crystalline\Desktop\school\Active_Bike_Lighting_System\Radar_Core/Libraries/CMSIS/Include\core_cmSimd.h **** {
 387:C:\Users\Depes Crystalline\Desktop\school\Active_Bike_Lighting_System\Radar_Core/Libraries/CMSIS/Include\core_cmSimd.h ****   uint32_t result;
 388:C:\Users\Depes Crystalline\Desktop\school\Active_Bike_Lighting_System\Radar_Core/Libraries/CMSIS/Include\core_cmSimd.h **** 
 389:C:\Users\Depes Crystalline\Desktop\school\Active_Bike_Lighting_System\Radar_Core/Libraries/CMSIS/Include\core_cmSimd.h ****   __ASM volatile ("qsax %0, %1, %2" : "=r" (result) : "r" (op1), "r" (op2) );
 390:C:\Users\Depes Crystalline\Desktop\school\Active_Bike_Lighting_System\Radar_Core/Libraries/CMSIS/Include\core_cmSimd.h ****   return(result);
 391:C:\Users\Depes Crystalline\Desktop\school\Active_Bike_Lighting_System\Radar_Core/Libraries/CMSIS/Include\core_cmSimd.h **** }
 392:C:\Users\Depes Crystalline\Desktop\school\Active_Bike_Lighting_System\Radar_Core/Libraries/CMSIS/Include\core_cmSimd.h **** 
 393:C:\Users\Depes Crystalline\Desktop\school\Active_Bike_Lighting_System\Radar_Core/Libraries/CMSIS/Include\core_cmSimd.h **** __attribute__( ( always_inline ) ) __STATIC_INLINE uint32_t __SHSAX(uint32_t op1, uint32_t op2)
 394:C:\Users\Depes Crystalline\Desktop\school\Active_Bike_Lighting_System\Radar_Core/Libraries/CMSIS/Include\core_cmSimd.h **** {
 395:C:\Users\Depes Crystalline\Desktop\school\Active_Bike_Lighting_System\Radar_Core/Libraries/CMSIS/Include\core_cmSimd.h ****   uint32_t result;
 396:C:\Users\Depes Crystalline\Desktop\school\Active_Bike_Lighting_System\Radar_Core/Libraries/CMSIS/Include\core_cmSimd.h **** 
 397:C:\Users\Depes Crystalline\Desktop\school\Active_Bike_Lighting_System\Radar_Core/Libraries/CMSIS/Include\core_cmSimd.h ****   __ASM volatile ("shsax %0, %1, %2" : "=r" (result) : "r" (op1), "r" (op2) );
 398:C:\Users\Depes Crystalline\Desktop\school\Active_Bike_Lighting_System\Radar_Core/Libraries/CMSIS/Include\core_cmSimd.h ****   return(result);
 399:C:\Users\Depes Crystalline\Desktop\school\Active_Bike_Lighting_System\Radar_Core/Libraries/CMSIS/Include\core_cmSimd.h **** }
 400:C:\Users\Depes Crystalline\Desktop\school\Active_Bike_Lighting_System\Radar_Core/Libraries/CMSIS/Include\core_cmSimd.h **** 
 401:C:\Users\Depes Crystalline\Desktop\school\Active_Bike_Lighting_System\Radar_Core/Libraries/CMSIS/Include\core_cmSimd.h **** __attribute__( ( always_inline ) ) __STATIC_INLINE uint32_t __USAX(uint32_t op1, uint32_t op2)
 402:C:\Users\Depes Crystalline\Desktop\school\Active_Bike_Lighting_System\Radar_Core/Libraries/CMSIS/Include\core_cmSimd.h **** {
 403:C:\Users\Depes Crystalline\Desktop\school\Active_Bike_Lighting_System\Radar_Core/Libraries/CMSIS/Include\core_cmSimd.h ****   uint32_t result;
 404:C:\Users\Depes Crystalline\Desktop\school\Active_Bike_Lighting_System\Radar_Core/Libraries/CMSIS/Include\core_cmSimd.h **** 
 405:C:\Users\Depes Crystalline\Desktop\school\Active_Bike_Lighting_System\Radar_Core/Libraries/CMSIS/Include\core_cmSimd.h ****   __ASM volatile ("usax %0, %1, %2" : "=r" (result) : "r" (op1), "r" (op2) );
 406:C:\Users\Depes Crystalline\Desktop\school\Active_Bike_Lighting_System\Radar_Core/Libraries/CMSIS/Include\core_cmSimd.h ****   return(result);
 407:C:\Users\Depes Crystalline\Desktop\school\Active_Bike_Lighting_System\Radar_Core/Libraries/CMSIS/Include\core_cmSimd.h **** }
 408:C:\Users\Depes Crystalline\Desktop\school\Active_Bike_Lighting_System\Radar_Core/Libraries/CMSIS/Include\core_cmSimd.h **** 
 409:C:\Users\Depes Crystalline\Desktop\school\Active_Bike_Lighting_System\Radar_Core/Libraries/CMSIS/Include\core_cmSimd.h **** __attribute__( ( always_inline ) ) __STATIC_INLINE uint32_t __UQSAX(uint32_t op1, uint32_t op2)
 410:C:\Users\Depes Crystalline\Desktop\school\Active_Bike_Lighting_System\Radar_Core/Libraries/CMSIS/Include\core_cmSimd.h **** {
 411:C:\Users\Depes Crystalline\Desktop\school\Active_Bike_Lighting_System\Radar_Core/Libraries/CMSIS/Include\core_cmSimd.h ****   uint32_t result;
 412:C:\Users\Depes Crystalline\Desktop\school\Active_Bike_Lighting_System\Radar_Core/Libraries/CMSIS/Include\core_cmSimd.h **** 
 413:C:\Users\Depes Crystalline\Desktop\school\Active_Bike_Lighting_System\Radar_Core/Libraries/CMSIS/Include\core_cmSimd.h ****   __ASM volatile ("uqsax %0, %1, %2" : "=r" (result) : "r" (op1), "r" (op2) );
 414:C:\Users\Depes Crystalline\Desktop\school\Active_Bike_Lighting_System\Radar_Core/Libraries/CMSIS/Include\core_cmSimd.h ****   return(result);
 415:C:\Users\Depes Crystalline\Desktop\school\Active_Bike_Lighting_System\Radar_Core/Libraries/CMSIS/Include\core_cmSimd.h **** }
 416:C:\Users\Depes Crystalline\Desktop\school\Active_Bike_Lighting_System\Radar_Core/Libraries/CMSIS/Include\core_cmSimd.h **** 
 417:C:\Users\Depes Crystalline\Desktop\school\Active_Bike_Lighting_System\Radar_Core/Libraries/CMSIS/Include\core_cmSimd.h **** __attribute__( ( always_inline ) ) __STATIC_INLINE uint32_t __UHSAX(uint32_t op1, uint32_t op2)
 418:C:\Users\Depes Crystalline\Desktop\school\Active_Bike_Lighting_System\Radar_Core/Libraries/CMSIS/Include\core_cmSimd.h **** {
 419:C:\Users\Depes Crystalline\Desktop\school\Active_Bike_Lighting_System\Radar_Core/Libraries/CMSIS/Include\core_cmSimd.h ****   uint32_t result;
 420:C:\Users\Depes Crystalline\Desktop\school\Active_Bike_Lighting_System\Radar_Core/Libraries/CMSIS/Include\core_cmSimd.h **** 
 421:C:\Users\Depes Crystalline\Desktop\school\Active_Bike_Lighting_System\Radar_Core/Libraries/CMSIS/Include\core_cmSimd.h ****   __ASM volatile ("uhsax %0, %1, %2" : "=r" (result) : "r" (op1), "r" (op2) );
 422:C:\Users\Depes Crystalline\Desktop\school\Active_Bike_Lighting_System\Radar_Core/Libraries/CMSIS/Include\core_cmSimd.h ****   return(result);
 423:C:\Users\Depes Crystalline\Desktop\school\Active_Bike_Lighting_System\Radar_Core/Libraries/CMSIS/Include\core_cmSimd.h **** }
 424:C:\Users\Depes Crystalline\Desktop\school\Active_Bike_Lighting_System\Radar_Core/Libraries/CMSIS/Include\core_cmSimd.h **** 
 425:C:\Users\Depes Crystalline\Desktop\school\Active_Bike_Lighting_System\Radar_Core/Libraries/CMSIS/Include\core_cmSimd.h **** __attribute__( ( always_inline ) ) __STATIC_INLINE uint32_t __USAD8(uint32_t op1, uint32_t op2)
 426:C:\Users\Depes Crystalline\Desktop\school\Active_Bike_Lighting_System\Radar_Core/Libraries/CMSIS/Include\core_cmSimd.h **** {
 427:C:\Users\Depes Crystalline\Desktop\school\Active_Bike_Lighting_System\Radar_Core/Libraries/CMSIS/Include\core_cmSimd.h ****   uint32_t result;
 428:C:\Users\Depes Crystalline\Desktop\school\Active_Bike_Lighting_System\Radar_Core/Libraries/CMSIS/Include\core_cmSimd.h **** 
 429:C:\Users\Depes Crystalline\Desktop\school\Active_Bike_Lighting_System\Radar_Core/Libraries/CMSIS/Include\core_cmSimd.h ****   __ASM volatile ("usad8 %0, %1, %2" : "=r" (result) : "r" (op1), "r" (op2) );
 430:C:\Users\Depes Crystalline\Desktop\school\Active_Bike_Lighting_System\Radar_Core/Libraries/CMSIS/Include\core_cmSimd.h ****   return(result);
 431:C:\Users\Depes Crystalline\Desktop\school\Active_Bike_Lighting_System\Radar_Core/Libraries/CMSIS/Include\core_cmSimd.h **** }
 432:C:\Users\Depes Crystalline\Desktop\school\Active_Bike_Lighting_System\Radar_Core/Libraries/CMSIS/Include\core_cmSimd.h **** 
 433:C:\Users\Depes Crystalline\Desktop\school\Active_Bike_Lighting_System\Radar_Core/Libraries/CMSIS/Include\core_cmSimd.h **** __attribute__( ( always_inline ) ) __STATIC_INLINE uint32_t __USADA8(uint32_t op1, uint32_t op2, ui
 434:C:\Users\Depes Crystalline\Desktop\school\Active_Bike_Lighting_System\Radar_Core/Libraries/CMSIS/Include\core_cmSimd.h **** {
 435:C:\Users\Depes Crystalline\Desktop\school\Active_Bike_Lighting_System\Radar_Core/Libraries/CMSIS/Include\core_cmSimd.h ****   uint32_t result;
 436:C:\Users\Depes Crystalline\Desktop\school\Active_Bike_Lighting_System\Radar_Core/Libraries/CMSIS/Include\core_cmSimd.h **** 
 437:C:\Users\Depes Crystalline\Desktop\school\Active_Bike_Lighting_System\Radar_Core/Libraries/CMSIS/Include\core_cmSimd.h ****   __ASM volatile ("usada8 %0, %1, %2, %3" : "=r" (result) : "r" (op1), "r" (op2), "r" (op3) );
 438:C:\Users\Depes Crystalline\Desktop\school\Active_Bike_Lighting_System\Radar_Core/Libraries/CMSIS/Include\core_cmSimd.h ****   return(result);
 439:C:\Users\Depes Crystalline\Desktop\school\Active_Bike_Lighting_System\Radar_Core/Libraries/CMSIS/Include\core_cmSimd.h **** }
 440:C:\Users\Depes Crystalline\Desktop\school\Active_Bike_Lighting_System\Radar_Core/Libraries/CMSIS/Include\core_cmSimd.h **** 
 441:C:\Users\Depes Crystalline\Desktop\school\Active_Bike_Lighting_System\Radar_Core/Libraries/CMSIS/Include\core_cmSimd.h **** #define __SSAT16(ARG1,ARG2) \
 442:C:\Users\Depes Crystalline\Desktop\school\Active_Bike_Lighting_System\Radar_Core/Libraries/CMSIS/Include\core_cmSimd.h **** ({                          \
 443:C:\Users\Depes Crystalline\Desktop\school\Active_Bike_Lighting_System\Radar_Core/Libraries/CMSIS/Include\core_cmSimd.h ****   uint32_t __RES, __ARG1 = (ARG1); \
 444:C:\Users\Depes Crystalline\Desktop\school\Active_Bike_Lighting_System\Radar_Core/Libraries/CMSIS/Include\core_cmSimd.h ****   __ASM ("ssat16 %0, %1, %2" : "=r" (__RES) :  "I" (ARG2), "r" (__ARG1) ); \
 445:C:\Users\Depes Crystalline\Desktop\school\Active_Bike_Lighting_System\Radar_Core/Libraries/CMSIS/Include\core_cmSimd.h ****   __RES; \
 446:C:\Users\Depes Crystalline\Desktop\school\Active_Bike_Lighting_System\Radar_Core/Libraries/CMSIS/Include\core_cmSimd.h ****  })
 447:C:\Users\Depes Crystalline\Desktop\school\Active_Bike_Lighting_System\Radar_Core/Libraries/CMSIS/Include\core_cmSimd.h **** 
 448:C:\Users\Depes Crystalline\Desktop\school\Active_Bike_Lighting_System\Radar_Core/Libraries/CMSIS/Include\core_cmSimd.h **** #define __USAT16(ARG1,ARG2) \
 449:C:\Users\Depes Crystalline\Desktop\school\Active_Bike_Lighting_System\Radar_Core/Libraries/CMSIS/Include\core_cmSimd.h **** ({                          \
 450:C:\Users\Depes Crystalline\Desktop\school\Active_Bike_Lighting_System\Radar_Core/Libraries/CMSIS/Include\core_cmSimd.h ****   uint32_t __RES, __ARG1 = (ARG1); \
 451:C:\Users\Depes Crystalline\Desktop\school\Active_Bike_Lighting_System\Radar_Core/Libraries/CMSIS/Include\core_cmSimd.h ****   __ASM ("usat16 %0, %1, %2" : "=r" (__RES) :  "I" (ARG2), "r" (__ARG1) ); \
 452:C:\Users\Depes Crystalline\Desktop\school\Active_Bike_Lighting_System\Radar_Core/Libraries/CMSIS/Include\core_cmSimd.h ****   __RES; \
 453:C:\Users\Depes Crystalline\Desktop\school\Active_Bike_Lighting_System\Radar_Core/Libraries/CMSIS/Include\core_cmSimd.h ****  })
 454:C:\Users\Depes Crystalline\Desktop\school\Active_Bike_Lighting_System\Radar_Core/Libraries/CMSIS/Include\core_cmSimd.h **** 
 455:C:\Users\Depes Crystalline\Desktop\school\Active_Bike_Lighting_System\Radar_Core/Libraries/CMSIS/Include\core_cmSimd.h **** __attribute__( ( always_inline ) ) __STATIC_INLINE uint32_t __UXTB16(uint32_t op1)
 456:C:\Users\Depes Crystalline\Desktop\school\Active_Bike_Lighting_System\Radar_Core/Libraries/CMSIS/Include\core_cmSimd.h **** {
 457:C:\Users\Depes Crystalline\Desktop\school\Active_Bike_Lighting_System\Radar_Core/Libraries/CMSIS/Include\core_cmSimd.h ****   uint32_t result;
 458:C:\Users\Depes Crystalline\Desktop\school\Active_Bike_Lighting_System\Radar_Core/Libraries/CMSIS/Include\core_cmSimd.h **** 
 459:C:\Users\Depes Crystalline\Desktop\school\Active_Bike_Lighting_System\Radar_Core/Libraries/CMSIS/Include\core_cmSimd.h ****   __ASM volatile ("uxtb16 %0, %1" : "=r" (result) : "r" (op1));
 460:C:\Users\Depes Crystalline\Desktop\school\Active_Bike_Lighting_System\Radar_Core/Libraries/CMSIS/Include\core_cmSimd.h ****   return(result);
 461:C:\Users\Depes Crystalline\Desktop\school\Active_Bike_Lighting_System\Radar_Core/Libraries/CMSIS/Include\core_cmSimd.h **** }
 462:C:\Users\Depes Crystalline\Desktop\school\Active_Bike_Lighting_System\Radar_Core/Libraries/CMSIS/Include\core_cmSimd.h **** 
 463:C:\Users\Depes Crystalline\Desktop\school\Active_Bike_Lighting_System\Radar_Core/Libraries/CMSIS/Include\core_cmSimd.h **** __attribute__( ( always_inline ) ) __STATIC_INLINE uint32_t __UXTAB16(uint32_t op1, uint32_t op2)
 464:C:\Users\Depes Crystalline\Desktop\school\Active_Bike_Lighting_System\Radar_Core/Libraries/CMSIS/Include\core_cmSimd.h **** {
 465:C:\Users\Depes Crystalline\Desktop\school\Active_Bike_Lighting_System\Radar_Core/Libraries/CMSIS/Include\core_cmSimd.h ****   uint32_t result;
 466:C:\Users\Depes Crystalline\Desktop\school\Active_Bike_Lighting_System\Radar_Core/Libraries/CMSIS/Include\core_cmSimd.h **** 
 467:C:\Users\Depes Crystalline\Desktop\school\Active_Bike_Lighting_System\Radar_Core/Libraries/CMSIS/Include\core_cmSimd.h ****   __ASM volatile ("uxtab16 %0, %1, %2" : "=r" (result) : "r" (op1), "r" (op2) );
 468:C:\Users\Depes Crystalline\Desktop\school\Active_Bike_Lighting_System\Radar_Core/Libraries/CMSIS/Include\core_cmSimd.h ****   return(result);
 469:C:\Users\Depes Crystalline\Desktop\school\Active_Bike_Lighting_System\Radar_Core/Libraries/CMSIS/Include\core_cmSimd.h **** }
 470:C:\Users\Depes Crystalline\Desktop\school\Active_Bike_Lighting_System\Radar_Core/Libraries/CMSIS/Include\core_cmSimd.h **** 
 471:C:\Users\Depes Crystalline\Desktop\school\Active_Bike_Lighting_System\Radar_Core/Libraries/CMSIS/Include\core_cmSimd.h **** __attribute__( ( always_inline ) ) __STATIC_INLINE uint32_t __SXTB16(uint32_t op1)
 472:C:\Users\Depes Crystalline\Desktop\school\Active_Bike_Lighting_System\Radar_Core/Libraries/CMSIS/Include\core_cmSimd.h **** {
 473:C:\Users\Depes Crystalline\Desktop\school\Active_Bike_Lighting_System\Radar_Core/Libraries/CMSIS/Include\core_cmSimd.h ****   uint32_t result;
 474:C:\Users\Depes Crystalline\Desktop\school\Active_Bike_Lighting_System\Radar_Core/Libraries/CMSIS/Include\core_cmSimd.h **** 
 475:C:\Users\Depes Crystalline\Desktop\school\Active_Bike_Lighting_System\Radar_Core/Libraries/CMSIS/Include\core_cmSimd.h ****   __ASM volatile ("sxtb16 %0, %1" : "=r" (result) : "r" (op1));
 476:C:\Users\Depes Crystalline\Desktop\school\Active_Bike_Lighting_System\Radar_Core/Libraries/CMSIS/Include\core_cmSimd.h ****   return(result);
 477:C:\Users\Depes Crystalline\Desktop\school\Active_Bike_Lighting_System\Radar_Core/Libraries/CMSIS/Include\core_cmSimd.h **** }
 478:C:\Users\Depes Crystalline\Desktop\school\Active_Bike_Lighting_System\Radar_Core/Libraries/CMSIS/Include\core_cmSimd.h **** 
 479:C:\Users\Depes Crystalline\Desktop\school\Active_Bike_Lighting_System\Radar_Core/Libraries/CMSIS/Include\core_cmSimd.h **** __attribute__( ( always_inline ) ) __STATIC_INLINE uint32_t __SXTAB16(uint32_t op1, uint32_t op2)
 480:C:\Users\Depes Crystalline\Desktop\school\Active_Bike_Lighting_System\Radar_Core/Libraries/CMSIS/Include\core_cmSimd.h **** {
 481:C:\Users\Depes Crystalline\Desktop\school\Active_Bike_Lighting_System\Radar_Core/Libraries/CMSIS/Include\core_cmSimd.h ****   uint32_t result;
 482:C:\Users\Depes Crystalline\Desktop\school\Active_Bike_Lighting_System\Radar_Core/Libraries/CMSIS/Include\core_cmSimd.h **** 
 483:C:\Users\Depes Crystalline\Desktop\school\Active_Bike_Lighting_System\Radar_Core/Libraries/CMSIS/Include\core_cmSimd.h ****   __ASM volatile ("sxtab16 %0, %1, %2" : "=r" (result) : "r" (op1), "r" (op2) );
 484:C:\Users\Depes Crystalline\Desktop\school\Active_Bike_Lighting_System\Radar_Core/Libraries/CMSIS/Include\core_cmSimd.h ****   return(result);
 485:C:\Users\Depes Crystalline\Desktop\school\Active_Bike_Lighting_System\Radar_Core/Libraries/CMSIS/Include\core_cmSimd.h **** }
 486:C:\Users\Depes Crystalline\Desktop\school\Active_Bike_Lighting_System\Radar_Core/Libraries/CMSIS/Include\core_cmSimd.h **** 
 487:C:\Users\Depes Crystalline\Desktop\school\Active_Bike_Lighting_System\Radar_Core/Libraries/CMSIS/Include\core_cmSimd.h **** __attribute__( ( always_inline ) ) __STATIC_INLINE uint32_t __SMUAD  (uint32_t op1, uint32_t op2)
 488:C:\Users\Depes Crystalline\Desktop\school\Active_Bike_Lighting_System\Radar_Core/Libraries/CMSIS/Include\core_cmSimd.h **** {
 489:C:\Users\Depes Crystalline\Desktop\school\Active_Bike_Lighting_System\Radar_Core/Libraries/CMSIS/Include\core_cmSimd.h ****   uint32_t result;
 490:C:\Users\Depes Crystalline\Desktop\school\Active_Bike_Lighting_System\Radar_Core/Libraries/CMSIS/Include\core_cmSimd.h **** 
 491:C:\Users\Depes Crystalline\Desktop\school\Active_Bike_Lighting_System\Radar_Core/Libraries/CMSIS/Include\core_cmSimd.h ****   __ASM volatile ("smuad %0, %1, %2" : "=r" (result) : "r" (op1), "r" (op2) );
 492:C:\Users\Depes Crystalline\Desktop\school\Active_Bike_Lighting_System\Radar_Core/Libraries/CMSIS/Include\core_cmSimd.h ****   return(result);
 493:C:\Users\Depes Crystalline\Desktop\school\Active_Bike_Lighting_System\Radar_Core/Libraries/CMSIS/Include\core_cmSimd.h **** }
 494:C:\Users\Depes Crystalline\Desktop\school\Active_Bike_Lighting_System\Radar_Core/Libraries/CMSIS/Include\core_cmSimd.h **** 
 495:C:\Users\Depes Crystalline\Desktop\school\Active_Bike_Lighting_System\Radar_Core/Libraries/CMSIS/Include\core_cmSimd.h **** __attribute__( ( always_inline ) ) __STATIC_INLINE uint32_t __SMUADX (uint32_t op1, uint32_t op2)
 496:C:\Users\Depes Crystalline\Desktop\school\Active_Bike_Lighting_System\Radar_Core/Libraries/CMSIS/Include\core_cmSimd.h **** {
 497:C:\Users\Depes Crystalline\Desktop\school\Active_Bike_Lighting_System\Radar_Core/Libraries/CMSIS/Include\core_cmSimd.h ****   uint32_t result;
 498:C:\Users\Depes Crystalline\Desktop\school\Active_Bike_Lighting_System\Radar_Core/Libraries/CMSIS/Include\core_cmSimd.h **** 
 499:C:\Users\Depes Crystalline\Desktop\school\Active_Bike_Lighting_System\Radar_Core/Libraries/CMSIS/Include\core_cmSimd.h ****   __ASM volatile ("smuadx %0, %1, %2" : "=r" (result) : "r" (op1), "r" (op2) );
 500:C:\Users\Depes Crystalline\Desktop\school\Active_Bike_Lighting_System\Radar_Core/Libraries/CMSIS/Include\core_cmSimd.h ****   return(result);
 501:C:\Users\Depes Crystalline\Desktop\school\Active_Bike_Lighting_System\Radar_Core/Libraries/CMSIS/Include\core_cmSimd.h **** }
 502:C:\Users\Depes Crystalline\Desktop\school\Active_Bike_Lighting_System\Radar_Core/Libraries/CMSIS/Include\core_cmSimd.h **** 
 503:C:\Users\Depes Crystalline\Desktop\school\Active_Bike_Lighting_System\Radar_Core/Libraries/CMSIS/Include\core_cmSimd.h **** __attribute__( ( always_inline ) ) __STATIC_INLINE uint32_t __SMLAD (uint32_t op1, uint32_t op2, ui
 504:C:\Users\Depes Crystalline\Desktop\school\Active_Bike_Lighting_System\Radar_Core/Libraries/CMSIS/Include\core_cmSimd.h **** {
 505:C:\Users\Depes Crystalline\Desktop\school\Active_Bike_Lighting_System\Radar_Core/Libraries/CMSIS/Include\core_cmSimd.h ****   uint32_t result;
 506:C:\Users\Depes Crystalline\Desktop\school\Active_Bike_Lighting_System\Radar_Core/Libraries/CMSIS/Include\core_cmSimd.h **** 
 507:C:\Users\Depes Crystalline\Desktop\school\Active_Bike_Lighting_System\Radar_Core/Libraries/CMSIS/Include\core_cmSimd.h ****   __ASM volatile ("smlad %0, %1, %2, %3" : "=r" (result) : "r" (op1), "r" (op2), "r" (op3) );
 360              	 .loc 2 507 0
 361 02d8 D7F8A830 	 ldr r3,[r7,#168]
 362 02dc D7F8A420 	 ldr r2,[r7,#164]
 363 02e0 D7F8A010 	 ldr r1,[r7,#160]
 364              	
 365 02e4 23FB0213 	 smlad r3,r3,r2,r1
 366              	
 367              	 .thumb
 368 02e8 C7F89C30 	 str r3,[r7,#156]
 508:C:\Users\Depes Crystalline\Desktop\school\Active_Bike_Lighting_System\Radar_Core/Libraries/CMSIS/Include\core_cmSimd.h ****   return(result);
 369              	 .loc 2 508 0
 370 02ec D7F89C30 	 ldr r3,[r7,#156]
 371              	.LBE31:
 372              	.LBE30:
 373              	 .loc 1 241 0
 374 02f0 C7F85031 	 str r3,[r7,#336]
 242:../Dave/Generated/CMSIS_DSP/FilteringFunctions/arm_conv_partial_fast_opt_q15.c ****         acc2 = __SMLAD(x2, y1, acc2);
 375              	 .loc 1 242 0
 376 02f4 D7F83C11 	 ldr r1,[r7,#316]
 377 02f8 D7F81821 	 ldr r2,[r7,#280]
 378 02fc D7F84831 	 ldr r3,[r7,#328]
 379 0300 C7F89810 	 str r1,[r7,#152]
 380 0304 C7F89420 	 str r2,[r7,#148]
 381 0308 C7F89030 	 str r3,[r7,#144]
 382              	.LBB32:
 383              	.LBB33:
 507:C:\Users\Depes Crystalline\Desktop\school\Active_Bike_Lighting_System\Radar_Core/Libraries/CMSIS/Include\core_cmSimd.h ****   return(result);
 384              	 .loc 2 507 0
 385 030c D7F89830 	 ldr r3,[r7,#152]
 386 0310 D7F89420 	 ldr r2,[r7,#148]
 387 0314 D7F89010 	 ldr r1,[r7,#144]
 388              	
 389 0318 23FB0213 	 smlad r3,r3,r2,r1
 390              	
 391              	 .thumb
 392 031c C7F88C30 	 str r3,[r7,#140]
 393              	 .loc 2 508 0
 394 0320 D7F88C30 	 ldr r3,[r7,#140]
 395              	.LBE33:
 396              	.LBE32:
 397              	 .loc 1 242 0
 398 0324 C7F84831 	 str r3,[r7,#328]
 399              	.LBB34:
 243:../Dave/Generated/CMSIS_DSP/FilteringFunctions/arm_conv_partial_fast_opt_q15.c **** 
 244:../Dave/Generated/CMSIS_DSP/FilteringFunctions/arm_conv_partial_fast_opt_q15.c ****         /* pack input data */
 245:../Dave/Generated/CMSIS_DSP/FilteringFunctions/arm_conv_partial_fast_opt_q15.c **** #ifndef ARM_MATH_BIG_ENDIAN
 246:../Dave/Generated/CMSIS_DSP/FilteringFunctions/arm_conv_partial_fast_opt_q15.c ****         x3 = __PKHBT(x2, x1, 0);
 400              	 .loc 1 246 0
 401 0328 D7F83C31 	 ldr r3,[r7,#316]
 402 032c C7F81031 	 str r3,[r7,#272]
 403 0330 D7F84031 	 ldr r3,[r7,#320]
 404 0334 C7F80C31 	 str r3,[r7,#268]
 405 0338 D7F81031 	 ldr r3,[r7,#272]
 406 033c D7F80C21 	 ldr r2,[r7,#268]
 407              	
 408 0340 C3EA0203 	 pkhbt r3,r3,r2,lsl#0
 409              	
 410              	 .thumb
 411 0344 C7F80831 	 str r3,[r7,#264]
 412 0348 D7F80831 	 ldr r3,[r7,#264]
 413              	.LBE34:
 414 034c C7F80431 	 str r3,[r7,#260]
 247:../Dave/Generated/CMSIS_DSP/FilteringFunctions/arm_conv_partial_fast_opt_q15.c **** #else
 248:../Dave/Generated/CMSIS_DSP/FilteringFunctions/arm_conv_partial_fast_opt_q15.c ****         x3 = __PKHBT(x1, x2, 0);
 249:../Dave/Generated/CMSIS_DSP/FilteringFunctions/arm_conv_partial_fast_opt_q15.c **** #endif
 250:../Dave/Generated/CMSIS_DSP/FilteringFunctions/arm_conv_partial_fast_opt_q15.c **** 
 251:../Dave/Generated/CMSIS_DSP/FilteringFunctions/arm_conv_partial_fast_opt_q15.c ****         /* multiply and accumlate */
 252:../Dave/Generated/CMSIS_DSP/FilteringFunctions/arm_conv_partial_fast_opt_q15.c ****         acc1 = __SMLADX(x3, y1, acc1);
 415              	 .loc 1 252 0
 416 0350 D7F80411 	 ldr r1,[r7,#260]
 417 0354 D7F81821 	 ldr r2,[r7,#280]
 418 0358 D7F84C31 	 ldr r3,[r7,#332]
 419 035c C7F88810 	 str r1,[r7,#136]
 420 0360 C7F88420 	 str r2,[r7,#132]
 421 0364 C7F88030 	 str r3,[r7,#128]
 422              	.LBB35:
 423              	.LBB36:
 509:C:\Users\Depes Crystalline\Desktop\school\Active_Bike_Lighting_System\Radar_Core/Libraries/CMSIS/Include\core_cmSimd.h **** }
 510:C:\Users\Depes Crystalline\Desktop\school\Active_Bike_Lighting_System\Radar_Core/Libraries/CMSIS/Include\core_cmSimd.h **** 
 511:C:\Users\Depes Crystalline\Desktop\school\Active_Bike_Lighting_System\Radar_Core/Libraries/CMSIS/Include\core_cmSimd.h **** __attribute__( ( always_inline ) ) __STATIC_INLINE uint32_t __SMLADX (uint32_t op1, uint32_t op2, u
 512:C:\Users\Depes Crystalline\Desktop\school\Active_Bike_Lighting_System\Radar_Core/Libraries/CMSIS/Include\core_cmSimd.h **** {
 513:C:\Users\Depes Crystalline\Desktop\school\Active_Bike_Lighting_System\Radar_Core/Libraries/CMSIS/Include\core_cmSimd.h ****   uint32_t result;
 514:C:\Users\Depes Crystalline\Desktop\school\Active_Bike_Lighting_System\Radar_Core/Libraries/CMSIS/Include\core_cmSimd.h **** 
 515:C:\Users\Depes Crystalline\Desktop\school\Active_Bike_Lighting_System\Radar_Core/Libraries/CMSIS/Include\core_cmSimd.h ****   __ASM volatile ("smladx %0, %1, %2, %3" : "=r" (result) : "r" (op1), "r" (op2), "r" (op3) );
 424              	 .loc 2 515 0
 425 0368 D7F88830 	 ldr r3,[r7,#136]
 426 036c D7F88420 	 ldr r2,[r7,#132]
 427 0370 D7F88010 	 ldr r1,[r7,#128]
 428              	
 429 0374 23FB1213 	 smladx r3,r3,r2,r1
 430              	
 431              	 .thumb
 432 0378 FB67     	 str r3,[r7,#124]
 516:C:\Users\Depes Crystalline\Desktop\school\Active_Bike_Lighting_System\Radar_Core/Libraries/CMSIS/Include\core_cmSimd.h ****   return(result);
 433              	 .loc 2 516 0
 434 037a FB6F     	 ldr r3,[r7,#124]
 435              	.LBE36:
 436              	.LBE35:
 437              	 .loc 1 252 0
 438 037c C7F84C31 	 str r3,[r7,#332]
 253:../Dave/Generated/CMSIS_DSP/FilteringFunctions/arm_conv_partial_fast_opt_q15.c **** 
 254:../Dave/Generated/CMSIS_DSP/FilteringFunctions/arm_conv_partial_fast_opt_q15.c ****         /* Read next two samples from scratch1 buffer */
 255:../Dave/Generated/CMSIS_DSP/FilteringFunctions/arm_conv_partial_fast_opt_q15.c ****         x1 = _SIMD32_OFFSET(pScr1);
 439              	 .loc 1 255 0
 440 0380 07F11403 	 add r3,r7,#20
 441 0384 1B68     	 ldr r3,[r3]
 442 0386 1B68     	 ldr r3,[r3]
 443 0388 C7F84031 	 str r3,[r7,#320]
 256:../Dave/Generated/CMSIS_DSP/FilteringFunctions/arm_conv_partial_fast_opt_q15.c **** 
 257:../Dave/Generated/CMSIS_DSP/FilteringFunctions/arm_conv_partial_fast_opt_q15.c ****         /* multiply and accumlate */
 258:../Dave/Generated/CMSIS_DSP/FilteringFunctions/arm_conv_partial_fast_opt_q15.c ****         acc0 = __SMLAD(x2, y2, acc0);
 444              	 .loc 1 258 0
 445 038c D7F83C11 	 ldr r1,[r7,#316]
 446 0390 D7F81421 	 ldr r2,[r7,#276]
 447 0394 D7F85031 	 ldr r3,[r7,#336]
 448 0398 B967     	 str r1,[r7,#120]
 449 039a 7A67     	 str r2,[r7,#116]
 450 039c 3B67     	 str r3,[r7,#112]
 451              	.LBB37:
 452              	.LBB38:
 507:C:\Users\Depes Crystalline\Desktop\school\Active_Bike_Lighting_System\Radar_Core/Libraries/CMSIS/Include\core_cmSimd.h ****   return(result);
 453              	 .loc 2 507 0
 454 039e BB6F     	 ldr r3,[r7,#120]
 455 03a0 7A6F     	 ldr r2,[r7,#116]
 456 03a2 396F     	 ldr r1,[r7,#112]
 457              	
 458 03a4 23FB0213 	 smlad r3,r3,r2,r1
 459              	
 460              	 .thumb
 461 03a8 FB66     	 str r3,[r7,#108]
 508:C:\Users\Depes Crystalline\Desktop\school\Active_Bike_Lighting_System\Radar_Core/Libraries/CMSIS/Include\core_cmSimd.h **** }
 462              	 .loc 2 508 0
 463 03aa FB6E     	 ldr r3,[r7,#108]
 464              	.LBE38:
 465              	.LBE37:
 466              	 .loc 1 258 0
 467 03ac C7F85031 	 str r3,[r7,#336]
 259:../Dave/Generated/CMSIS_DSP/FilteringFunctions/arm_conv_partial_fast_opt_q15.c **** 
 260:../Dave/Generated/CMSIS_DSP/FilteringFunctions/arm_conv_partial_fast_opt_q15.c ****         acc2 = __SMLAD(x1, y2, acc2);
 468              	 .loc 1 260 0
 469 03b0 D7F84011 	 ldr r1,[r7,#320]
 470 03b4 D7F81421 	 ldr r2,[r7,#276]
 471 03b8 D7F84831 	 ldr r3,[r7,#328]
 472 03bc B966     	 str r1,[r7,#104]
 473 03be 7A66     	 str r2,[r7,#100]
 474 03c0 3B66     	 str r3,[r7,#96]
 475              	.LBB39:
 476              	.LBB40:
 507:C:\Users\Depes Crystalline\Desktop\school\Active_Bike_Lighting_System\Radar_Core/Libraries/CMSIS/Include\core_cmSimd.h ****   return(result);
 477              	 .loc 2 507 0
 478 03c2 BB6E     	 ldr r3,[r7,#104]
 479 03c4 7A6E     	 ldr r2,[r7,#100]
 480 03c6 396E     	 ldr r1,[r7,#96]
 481              	
 482 03c8 23FB0213 	 smlad r3,r3,r2,r1
 483              	
 484              	 .thumb
 485 03cc FB65     	 str r3,[r7,#92]
 508:C:\Users\Depes Crystalline\Desktop\school\Active_Bike_Lighting_System\Radar_Core/Libraries/CMSIS/Include\core_cmSimd.h **** }
 486              	 .loc 2 508 0
 487 03ce FB6D     	 ldr r3,[r7,#92]
 488              	.LBE40:
 489              	.LBE39:
 490              	 .loc 1 260 0
 491 03d0 C7F84831 	 str r3,[r7,#328]
 492              	.LBB41:
 261:../Dave/Generated/CMSIS_DSP/FilteringFunctions/arm_conv_partial_fast_opt_q15.c **** 
 262:../Dave/Generated/CMSIS_DSP/FilteringFunctions/arm_conv_partial_fast_opt_q15.c ****         /* pack input data */
 263:../Dave/Generated/CMSIS_DSP/FilteringFunctions/arm_conv_partial_fast_opt_q15.c **** #ifndef ARM_MATH_BIG_ENDIAN
 264:../Dave/Generated/CMSIS_DSP/FilteringFunctions/arm_conv_partial_fast_opt_q15.c ****         x3 = __PKHBT(x1, x2, 0);
 493              	 .loc 1 264 0
 494 03d4 D7F84031 	 ldr r3,[r7,#320]
 495 03d8 C7F80031 	 str r3,[r7,#256]
 496 03dc D7F83C31 	 ldr r3,[r7,#316]
 497 03e0 C7F8FC30 	 str r3,[r7,#252]
 498 03e4 D7F80031 	 ldr r3,[r7,#256]
 499 03e8 D7F8FC20 	 ldr r2,[r7,#252]
 500              	
 501 03ec C3EA0203 	 pkhbt r3,r3,r2,lsl#0
 502              	
 503              	 .thumb
 504 03f0 C7F8F830 	 str r3,[r7,#248]
 505 03f4 D7F8F830 	 ldr r3,[r7,#248]
 506              	.LBE41:
 507 03f8 C7F80431 	 str r3,[r7,#260]
 265:../Dave/Generated/CMSIS_DSP/FilteringFunctions/arm_conv_partial_fast_opt_q15.c **** #else
 266:../Dave/Generated/CMSIS_DSP/FilteringFunctions/arm_conv_partial_fast_opt_q15.c ****         x3 = __PKHBT(x2, x1, 0);
 267:../Dave/Generated/CMSIS_DSP/FilteringFunctions/arm_conv_partial_fast_opt_q15.c **** #endif
 268:../Dave/Generated/CMSIS_DSP/FilteringFunctions/arm_conv_partial_fast_opt_q15.c **** 
 269:../Dave/Generated/CMSIS_DSP/FilteringFunctions/arm_conv_partial_fast_opt_q15.c ****         acc3 = __SMLADX(x3, y1, acc3);
 508              	 .loc 1 269 0
 509 03fc D7F80401 	 ldr r0,[r7,#260]
 510 0400 D7F81811 	 ldr r1,[r7,#280]
 511 0404 D7F84421 	 ldr r2,[r7,#324]
 512 0408 07F15803 	 add r3,r7,#88
 513 040c 1860     	 str r0,[r3]
 514 040e 07F15403 	 add r3,r7,#84
 515 0412 1960     	 str r1,[r3]
 516 0414 07F15003 	 add r3,r7,#80
 517 0418 1A60     	 str r2,[r3]
 518              	.LBB42:
 519              	.LBB43:
 515:C:\Users\Depes Crystalline\Desktop\school\Active_Bike_Lighting_System\Radar_Core/Libraries/CMSIS/Include\core_cmSimd.h ****   return(result);
 520              	 .loc 2 515 0
 521 041a 07F15803 	 add r3,r7,#88
 522 041e 1B68     	 ldr r3,[r3]
 523 0420 07F15402 	 add r2,r7,#84
 524 0424 1268     	 ldr r2,[r2]
 525 0426 07F15001 	 add r1,r7,#80
 526 042a 0968     	 ldr r1,[r1]
 527              	
 528 042c 23FB1212 	 smladx r2,r3,r2,r1
 529              	
 530              	 .thumb
 531 0430 07F14C03 	 add r3,r7,#76
 532 0434 1A60     	 str r2,[r3]
 533              	 .loc 2 516 0
 534 0436 07F14C03 	 add r3,r7,#76
 535 043a 1B68     	 ldr r3,[r3]
 536              	.LBE43:
 537              	.LBE42:
 538              	 .loc 1 269 0
 539 043c C7F84431 	 str r3,[r7,#324]
 270:../Dave/Generated/CMSIS_DSP/FilteringFunctions/arm_conv_partial_fast_opt_q15.c ****         acc1 = __SMLADX(x3, y2, acc1);
 540              	 .loc 1 270 0
 541 0440 D7F80401 	 ldr r0,[r7,#260]
 542 0444 D7F81411 	 ldr r1,[r7,#276]
 543 0448 D7F84C21 	 ldr r2,[r7,#332]
 544 044c 07F14803 	 add r3,r7,#72
 545 0450 1860     	 str r0,[r3]
 546 0452 07F14403 	 add r3,r7,#68
 547 0456 1960     	 str r1,[r3]
 548 0458 07F14003 	 add r3,r7,#64
 549 045c 1A60     	 str r2,[r3]
 550              	.LBB44:
 551              	.LBB45:
 515:C:\Users\Depes Crystalline\Desktop\school\Active_Bike_Lighting_System\Radar_Core/Libraries/CMSIS/Include\core_cmSimd.h ****   return(result);
 552              	 .loc 2 515 0
 553 045e 07F14803 	 add r3,r7,#72
 554 0462 1B68     	 ldr r3,[r3]
 555 0464 07F14402 	 add r2,r7,#68
 556 0468 1268     	 ldr r2,[r2]
 557 046a 07F14001 	 add r1,r7,#64
 558 046e 0968     	 ldr r1,[r1]
 559              	
 560 0470 23FB1212 	 smladx r2,r3,r2,r1
 561              	
 562              	 .thumb
 563 0474 07F13C03 	 add r3,r7,#60
 564 0478 1A60     	 str r2,[r3]
 565              	 .loc 2 516 0
 566 047a 07F13C03 	 add r3,r7,#60
 567 047e 1B68     	 ldr r3,[r3]
 568              	.LBE45:
 569              	.LBE44:
 570              	 .loc 1 270 0
 571 0480 C7F84C31 	 str r3,[r7,#332]
 271:../Dave/Generated/CMSIS_DSP/FilteringFunctions/arm_conv_partial_fast_opt_q15.c **** 
 272:../Dave/Generated/CMSIS_DSP/FilteringFunctions/arm_conv_partial_fast_opt_q15.c ****         x2 = _SIMD32_OFFSET(pScr1 + 2u);
 572              	 .loc 1 272 0
 573 0484 07F11403 	 add r3,r7,#20
 574 0488 1B68     	 ldr r3,[r3]
 575 048a 5B68     	 ldr r3,[r3,#4]
 576 048c C7F83C31 	 str r3,[r7,#316]
 577              	.LBB46:
 273:../Dave/Generated/CMSIS_DSP/FilteringFunctions/arm_conv_partial_fast_opt_q15.c **** 
 274:../Dave/Generated/CMSIS_DSP/FilteringFunctions/arm_conv_partial_fast_opt_q15.c **** #ifndef ARM_MATH_BIG_ENDIAN
 275:../Dave/Generated/CMSIS_DSP/FilteringFunctions/arm_conv_partial_fast_opt_q15.c ****         x3 = __PKHBT(x2, x1, 0);
 578              	 .loc 1 275 0
 579 0490 D7F83C31 	 ldr r3,[r7,#316]
 580 0494 C7F8F430 	 str r3,[r7,#244]
 581 0498 D7F84031 	 ldr r3,[r7,#320]
 582 049c C7F8F030 	 str r3,[r7,#240]
 583 04a0 D7F8F430 	 ldr r3,[r7,#244]
 584 04a4 D7F8F020 	 ldr r2,[r7,#240]
 585              	
 586 04a8 C3EA0203 	 pkhbt r3,r3,r2,lsl#0
 587              	
 588              	 .thumb
 589 04ac C7F8EC30 	 str r3,[r7,#236]
 590 04b0 D7F8EC30 	 ldr r3,[r7,#236]
 591              	.LBE46:
 592 04b4 C7F80431 	 str r3,[r7,#260]
 276:../Dave/Generated/CMSIS_DSP/FilteringFunctions/arm_conv_partial_fast_opt_q15.c **** #else
 277:../Dave/Generated/CMSIS_DSP/FilteringFunctions/arm_conv_partial_fast_opt_q15.c ****         x3 = __PKHBT(x1, x2, 0);
 278:../Dave/Generated/CMSIS_DSP/FilteringFunctions/arm_conv_partial_fast_opt_q15.c **** #endif
 279:../Dave/Generated/CMSIS_DSP/FilteringFunctions/arm_conv_partial_fast_opt_q15.c **** 
 280:../Dave/Generated/CMSIS_DSP/FilteringFunctions/arm_conv_partial_fast_opt_q15.c ****         acc3 = __SMLADX(x3, y2, acc3);
 593              	 .loc 1 280 0
 594 04b8 D7F80401 	 ldr r0,[r7,#260]
 595 04bc D7F81411 	 ldr r1,[r7,#276]
 596 04c0 D7F84421 	 ldr r2,[r7,#324]
 597 04c4 07F13803 	 add r3,r7,#56
 598 04c8 1860     	 str r0,[r3]
 599 04ca 07F13403 	 add r3,r7,#52
 600 04ce 1960     	 str r1,[r3]
 601 04d0 07F13003 	 add r3,r7,#48
 602 04d4 1A60     	 str r2,[r3]
 603              	.LBB47:
 604              	.LBB48:
 515:C:\Users\Depes Crystalline\Desktop\school\Active_Bike_Lighting_System\Radar_Core/Libraries/CMSIS/Include\core_cmSimd.h ****   return(result);
 605              	 .loc 2 515 0
 606 04d6 07F13803 	 add r3,r7,#56
 607 04da 1B68     	 ldr r3,[r3]
 608 04dc 07F13402 	 add r2,r7,#52
 609 04e0 1268     	 ldr r2,[r2]
 610 04e2 07F13001 	 add r1,r7,#48
 611 04e6 0968     	 ldr r1,[r1]
 612              	
 613 04e8 23FB1212 	 smladx r2,r3,r2,r1
 614              	
 615              	 .thumb
 616 04ec 07F12C03 	 add r3,r7,#44
 617 04f0 1A60     	 str r2,[r3]
 618              	 .loc 2 516 0
 619 04f2 07F12C03 	 add r3,r7,#44
 620 04f6 1B68     	 ldr r3,[r3]
 621              	.LBE48:
 622              	.LBE47:
 623              	 .loc 1 280 0
 624 04f8 C7F84431 	 str r3,[r7,#324]
 281:../Dave/Generated/CMSIS_DSP/FilteringFunctions/arm_conv_partial_fast_opt_q15.c **** 
 282:../Dave/Generated/CMSIS_DSP/FilteringFunctions/arm_conv_partial_fast_opt_q15.c ****         /* update scratch pointers */
 283:../Dave/Generated/CMSIS_DSP/FilteringFunctions/arm_conv_partial_fast_opt_q15.c ****         pIn2 += 4u;
 625              	 .loc 1 283 0
 626 04fc 07F11003 	 add r3,r7,#16
 627 0500 1B68     	 ldr r3,[r3]
 628 0502 03F10802 	 add r2,r3,#8
 629 0506 07F11003 	 add r3,r7,#16
 630 050a 1A60     	 str r2,[r3]
 284:../Dave/Generated/CMSIS_DSP/FilteringFunctions/arm_conv_partial_fast_opt_q15.c ****         pScr1 += 4u;
 631              	 .loc 1 284 0
 632 050c 07F11403 	 add r3,r7,#20
 633 0510 1B68     	 ldr r3,[r3]
 634 0512 03F10802 	 add r2,r3,#8
 635 0516 07F11403 	 add r3,r7,#20
 636 051a 1A60     	 str r2,[r3]
 285:../Dave/Generated/CMSIS_DSP/FilteringFunctions/arm_conv_partial_fast_opt_q15.c **** 
 286:../Dave/Generated/CMSIS_DSP/FilteringFunctions/arm_conv_partial_fast_opt_q15.c **** 
 287:../Dave/Generated/CMSIS_DSP/FilteringFunctions/arm_conv_partial_fast_opt_q15.c ****         /* Decrement the loop counter */
 288:../Dave/Generated/CMSIS_DSP/FilteringFunctions/arm_conv_partial_fast_opt_q15.c ****         tapCnt--;
 637              	 .loc 1 288 0
 638 051c D7F82431 	 ldr r3,[r7,#292]
 639 0520 013B     	 subs r3,r3,#1
 640 0522 C7F82431 	 str r3,[r7,#292]
 641              	.L11:
 233:../Dave/Generated/CMSIS_DSP/FilteringFunctions/arm_conv_partial_fast_opt_q15.c ****       {
 642              	 .loc 1 233 0
 643 0526 D7F82431 	 ldr r3,[r7,#292]
 644 052a 002B     	 cmp r3,#0
 645 052c 7FF4BCAE 	 bne .L20
 289:../Dave/Generated/CMSIS_DSP/FilteringFunctions/arm_conv_partial_fast_opt_q15.c ****       }
 290:../Dave/Generated/CMSIS_DSP/FilteringFunctions/arm_conv_partial_fast_opt_q15.c **** 
 291:../Dave/Generated/CMSIS_DSP/FilteringFunctions/arm_conv_partial_fast_opt_q15.c ****       /* Update scratch pointer for remaining samples of smaller length sequence */
 292:../Dave/Generated/CMSIS_DSP/FilteringFunctions/arm_conv_partial_fast_opt_q15.c ****       pScr1 -= 4u;
 646              	 .loc 1 292 0
 647 0530 07F11403 	 add r3,r7,#20
 648 0534 1B68     	 ldr r3,[r3]
 649 0536 A3F10802 	 sub r2,r3,#8
 650 053a 07F11403 	 add r3,r7,#20
 651 053e 1A60     	 str r2,[r3]
 293:../Dave/Generated/CMSIS_DSP/FilteringFunctions/arm_conv_partial_fast_opt_q15.c **** 
 294:../Dave/Generated/CMSIS_DSP/FilteringFunctions/arm_conv_partial_fast_opt_q15.c ****       /* apply same above for remaining samples of smaller length sequence */
 295:../Dave/Generated/CMSIS_DSP/FilteringFunctions/arm_conv_partial_fast_opt_q15.c ****       tapCnt = (srcBLen) & 3u;
 652              	 .loc 1 295 0
 653 0540 3B46     	 mov r3,r7
 654 0542 1B68     	 ldr r3,[r3]
 655 0544 03F00303 	 and r3,r3,#3
 656 0548 C7F82431 	 str r3,[r7,#292]
 296:../Dave/Generated/CMSIS_DSP/FilteringFunctions/arm_conv_partial_fast_opt_q15.c **** 
 297:../Dave/Generated/CMSIS_DSP/FilteringFunctions/arm_conv_partial_fast_opt_q15.c ****       while(tapCnt > 0u)
 657              	 .loc 1 297 0
 658 054c 63E0     	 b .L21
 659              	.L22:
 298:../Dave/Generated/CMSIS_DSP/FilteringFunctions/arm_conv_partial_fast_opt_q15.c ****       {
 299:../Dave/Generated/CMSIS_DSP/FilteringFunctions/arm_conv_partial_fast_opt_q15.c **** 
 300:../Dave/Generated/CMSIS_DSP/FilteringFunctions/arm_conv_partial_fast_opt_q15.c ****         /* accumlate the results */
 301:../Dave/Generated/CMSIS_DSP/FilteringFunctions/arm_conv_partial_fast_opt_q15.c ****         acc0 += (*pScr1++ * *pIn2);
 660              	 .loc 1 301 0
 661 054e 07F11403 	 add r3,r7,#20
 662 0552 1B68     	 ldr r3,[r3]
 663 0554 991C     	 adds r1,r3,#2
 664 0556 07F11402 	 add r2,r7,#20
 665 055a 1160     	 str r1,[r2]
 666 055c 1B88     	 ldrh r3,[r3]
 667 055e 1BB2     	 sxth r3,r3
 668 0560 07F11002 	 add r2,r7,#16
 669 0564 1268     	 ldr r2,[r2]
 670 0566 1288     	 ldrh r2,[r2]
 671 0568 12B2     	 sxth r2,r2
 672 056a 02FB03F3 	 mul r3,r2,r3
 673 056e D7F85021 	 ldr r2,[r7,#336]
 674 0572 1344     	 add r3,r3,r2
 675 0574 C7F85031 	 str r3,[r7,#336]
 302:../Dave/Generated/CMSIS_DSP/FilteringFunctions/arm_conv_partial_fast_opt_q15.c ****         acc1 += (*pScr1++ * *pIn2);
 676              	 .loc 1 302 0
 677 0578 07F11403 	 add r3,r7,#20
 678 057c 1B68     	 ldr r3,[r3]
 679 057e 991C     	 adds r1,r3,#2
 680 0580 07F11402 	 add r2,r7,#20
 681 0584 1160     	 str r1,[r2]
 682 0586 1B88     	 ldrh r3,[r3]
 683 0588 1BB2     	 sxth r3,r3
 684 058a 07F11002 	 add r2,r7,#16
 685 058e 1268     	 ldr r2,[r2]
 686 0590 1288     	 ldrh r2,[r2]
 687 0592 12B2     	 sxth r2,r2
 688 0594 02FB03F3 	 mul r3,r2,r3
 689 0598 D7F84C21 	 ldr r2,[r7,#332]
 690 059c 1344     	 add r3,r3,r2
 691 059e C7F84C31 	 str r3,[r7,#332]
 303:../Dave/Generated/CMSIS_DSP/FilteringFunctions/arm_conv_partial_fast_opt_q15.c ****         acc2 += (*pScr1++ * *pIn2);
 692              	 .loc 1 303 0
 693 05a2 07F11403 	 add r3,r7,#20
 694 05a6 1B68     	 ldr r3,[r3]
 695 05a8 991C     	 adds r1,r3,#2
 696 05aa 07F11402 	 add r2,r7,#20
 697 05ae 1160     	 str r1,[r2]
 698 05b0 1B88     	 ldrh r3,[r3]
 699 05b2 1BB2     	 sxth r3,r3
 700 05b4 07F11002 	 add r2,r7,#16
 701 05b8 1268     	 ldr r2,[r2]
 702 05ba 1288     	 ldrh r2,[r2]
 703 05bc 12B2     	 sxth r2,r2
 704 05be 02FB03F3 	 mul r3,r2,r3
 705 05c2 D7F84821 	 ldr r2,[r7,#328]
 706 05c6 1344     	 add r3,r3,r2
 707 05c8 C7F84831 	 str r3,[r7,#328]
 304:../Dave/Generated/CMSIS_DSP/FilteringFunctions/arm_conv_partial_fast_opt_q15.c ****         acc3 += (*pScr1++ * *pIn2++);
 708              	 .loc 1 304 0
 709 05cc 07F11403 	 add r3,r7,#20
 710 05d0 1B68     	 ldr r3,[r3]
 711 05d2 991C     	 adds r1,r3,#2
 712 05d4 07F11402 	 add r2,r7,#20
 713 05d8 1160     	 str r1,[r2]
 714 05da 1B88     	 ldrh r3,[r3]
 715 05dc 1AB2     	 sxth r2,r3
 716 05de 07F11003 	 add r3,r7,#16
 717 05e2 1B68     	 ldr r3,[r3]
 718 05e4 981C     	 adds r0,r3,#2
 719 05e6 07F11001 	 add r1,r7,#16
 720 05ea 0860     	 str r0,[r1]
 721 05ec 1B88     	 ldrh r3,[r3]
 722 05ee 1BB2     	 sxth r3,r3
 723 05f0 03FB02F3 	 mul r3,r3,r2
 724 05f4 D7F84421 	 ldr r2,[r7,#324]
 725 05f8 1344     	 add r3,r3,r2
 726 05fa C7F84431 	 str r3,[r7,#324]
 305:../Dave/Generated/CMSIS_DSP/FilteringFunctions/arm_conv_partial_fast_opt_q15.c **** 
 306:../Dave/Generated/CMSIS_DSP/FilteringFunctions/arm_conv_partial_fast_opt_q15.c ****         pScr1 -= 3u;
 727              	 .loc 1 306 0
 728 05fe 07F11403 	 add r3,r7,#20
 729 0602 1B68     	 ldr r3,[r3]
 730 0604 9A1F     	 subs r2,r3,#6
 731 0606 07F11403 	 add r3,r7,#20
 732 060a 1A60     	 str r2,[r3]
 307:../Dave/Generated/CMSIS_DSP/FilteringFunctions/arm_conv_partial_fast_opt_q15.c **** 
 308:../Dave/Generated/CMSIS_DSP/FilteringFunctions/arm_conv_partial_fast_opt_q15.c ****         /* Decrement the loop counter */
 309:../Dave/Generated/CMSIS_DSP/FilteringFunctions/arm_conv_partial_fast_opt_q15.c ****         tapCnt--;
 733              	 .loc 1 309 0
 734 060c D7F82431 	 ldr r3,[r7,#292]
 735 0610 013B     	 subs r3,r3,#1
 736 0612 C7F82431 	 str r3,[r7,#292]
 737              	.L21:
 297:../Dave/Generated/CMSIS_DSP/FilteringFunctions/arm_conv_partial_fast_opt_q15.c ****       {
 738              	 .loc 1 297 0
 739 0616 D7F82431 	 ldr r3,[r7,#292]
 740 061a 002B     	 cmp r3,#0
 741 061c 97D1     	 bne .L22
 310:../Dave/Generated/CMSIS_DSP/FilteringFunctions/arm_conv_partial_fast_opt_q15.c ****       }
 311:../Dave/Generated/CMSIS_DSP/FilteringFunctions/arm_conv_partial_fast_opt_q15.c **** 
 312:../Dave/Generated/CMSIS_DSP/FilteringFunctions/arm_conv_partial_fast_opt_q15.c ****       blkCnt--;
 742              	 .loc 1 312 0
 743 061e D7F82C31 	 ldr r3,[r7,#300]
 744 0622 013B     	 subs r3,r3,#1
 745 0624 C7F82C31 	 str r3,[r7,#300]
 313:../Dave/Generated/CMSIS_DSP/FilteringFunctions/arm_conv_partial_fast_opt_q15.c **** 
 314:../Dave/Generated/CMSIS_DSP/FilteringFunctions/arm_conv_partial_fast_opt_q15.c **** 
 315:../Dave/Generated/CMSIS_DSP/FilteringFunctions/arm_conv_partial_fast_opt_q15.c ****       /* Store the results in the accumulators in the destination buffer. */
 316:../Dave/Generated/CMSIS_DSP/FilteringFunctions/arm_conv_partial_fast_opt_q15.c **** 
 317:../Dave/Generated/CMSIS_DSP/FilteringFunctions/arm_conv_partial_fast_opt_q15.c **** #ifndef  ARM_MATH_BIG_ENDIAN
 318:../Dave/Generated/CMSIS_DSP/FilteringFunctions/arm_conv_partial_fast_opt_q15.c **** 
 319:../Dave/Generated/CMSIS_DSP/FilteringFunctions/arm_conv_partial_fast_opt_q15.c ****       *__SIMD32(pOut)++ =
 746              	 .loc 1 319 0
 747 0628 07F11802 	 add r2,r7,#24
 748 062c 1368     	 ldr r3,[r2]
 749 062e 191D     	 adds r1,r3,#4
 750 0630 1160     	 str r1,[r2]
 751              	.LBB49:
 752              	.LBB50:
 320:../Dave/Generated/CMSIS_DSP/FilteringFunctions/arm_conv_partial_fast_opt_q15.c ****         __PKHBT(__SSAT((acc0 >> 15), 16), __SSAT((acc1 >> 15), 16), 16);
 753              	 .loc 1 320 0
 754 0632 D7F85021 	 ldr r2,[r7,#336]
 755 0636 D213     	 asrs r2,r2,#15
 756 0638 C7F8E820 	 str r2,[r7,#232]
 757 063c D7F8E820 	 ldr r2,[r7,#232]
 758              	
 759 0640 02F30F02 	 ssat r2,#16,r2
 760              	
 761              	 .thumb
 762 0644 C7F8E420 	 str r2,[r7,#228]
 763 0648 D7F8E420 	 ldr r2,[r7,#228]
 764              	.LBE50:
 765 064c C7F8E020 	 str r2,[r7,#224]
 766              	.LBB51:
 767 0650 D7F84C21 	 ldr r2,[r7,#332]
 768 0654 D213     	 asrs r2,r2,#15
 769 0656 C7F8DC20 	 str r2,[r7,#220]
 770 065a D7F8DC20 	 ldr r2,[r7,#220]
 771              	
 772 065e 02F30F02 	 ssat r2,#16,r2
 773              	
 774              	 .thumb
 775 0662 C7F8D820 	 str r2,[r7,#216]
 776 0666 D7F8D820 	 ldr r2,[r7,#216]
 777              	.LBE51:
 778 066a C7F8D420 	 str r2,[r7,#212]
 779 066e D7F8E020 	 ldr r2,[r7,#224]
 780 0672 D7F8D410 	 ldr r1,[r7,#212]
 781              	
 782 0676 C2EA0142 	 pkhbt r2,r2,r1,lsl#16
 783              	
 784              	 .thumb
 785 067a C7F8D020 	 str r2,[r7,#208]
 786 067e D7F8D020 	 ldr r2,[r7,#208]
 787              	.LBE49:
 319:../Dave/Generated/CMSIS_DSP/FilteringFunctions/arm_conv_partial_fast_opt_q15.c ****         __PKHBT(__SSAT((acc0 >> 15), 16), __SSAT((acc1 >> 15), 16), 16);
 788              	 .loc 1 319 0
 789 0682 1A60     	 str r2,[r3]
 321:../Dave/Generated/CMSIS_DSP/FilteringFunctions/arm_conv_partial_fast_opt_q15.c ****       *__SIMD32(pOut)++ =
 790              	 .loc 1 321 0
 791 0684 07F11802 	 add r2,r7,#24
 792 0688 1368     	 ldr r3,[r2]
 793 068a 191D     	 adds r1,r3,#4
 794 068c 1160     	 str r1,[r2]
 795              	.LBB52:
 796              	.LBB53:
 322:../Dave/Generated/CMSIS_DSP/FilteringFunctions/arm_conv_partial_fast_opt_q15.c ****         __PKHBT(__SSAT((acc2 >> 15), 16), __SSAT((acc3 >> 15), 16), 16);
 797              	 .loc 1 322 0
 798 068e D7F84821 	 ldr r2,[r7,#328]
 799 0692 D213     	 asrs r2,r2,#15
 800 0694 C7F8CC20 	 str r2,[r7,#204]
 801 0698 D7F8CC20 	 ldr r2,[r7,#204]
 802              	
 803 069c 02F30F02 	 ssat r2,#16,r2
 804              	
 805              	 .thumb
 806 06a0 C7F8C820 	 str r2,[r7,#200]
 807 06a4 D7F8C820 	 ldr r2,[r7,#200]
 808              	.LBE53:
 809 06a8 C7F8C420 	 str r2,[r7,#196]
 810              	.LBB54:
 811 06ac D7F84421 	 ldr r2,[r7,#324]
 812 06b0 D213     	 asrs r2,r2,#15
 813 06b2 C7F8C020 	 str r2,[r7,#192]
 814 06b6 D7F8C020 	 ldr r2,[r7,#192]
 815              	
 816 06ba 02F30F02 	 ssat r2,#16,r2
 817              	
 818              	 .thumb
 819 06be C7F8BC20 	 str r2,[r7,#188]
 820 06c2 D7F8BC20 	 ldr r2,[r7,#188]
 821              	.LBE54:
 822 06c6 C7F8B820 	 str r2,[r7,#184]
 823 06ca D7F8C420 	 ldr r2,[r7,#196]
 824 06ce D7F8B810 	 ldr r1,[r7,#184]
 825              	
 826 06d2 C2EA0142 	 pkhbt r2,r2,r1,lsl#16
 827              	
 828              	 .thumb
 829 06d6 C7F8B420 	 str r2,[r7,#180]
 830 06da D7F8B420 	 ldr r2,[r7,#180]
 831              	.LBE52:
 321:../Dave/Generated/CMSIS_DSP/FilteringFunctions/arm_conv_partial_fast_opt_q15.c ****       *__SIMD32(pOut)++ =
 832              	 .loc 1 321 0
 833 06de 1A60     	 str r2,[r3]
 323:../Dave/Generated/CMSIS_DSP/FilteringFunctions/arm_conv_partial_fast_opt_q15.c **** 
 324:../Dave/Generated/CMSIS_DSP/FilteringFunctions/arm_conv_partial_fast_opt_q15.c **** #else
 325:../Dave/Generated/CMSIS_DSP/FilteringFunctions/arm_conv_partial_fast_opt_q15.c **** 
 326:../Dave/Generated/CMSIS_DSP/FilteringFunctions/arm_conv_partial_fast_opt_q15.c ****       *__SIMD32(pOut)++ =
 327:../Dave/Generated/CMSIS_DSP/FilteringFunctions/arm_conv_partial_fast_opt_q15.c ****         __PKHBT(__SSAT((acc1 >> 15), 16), __SSAT((acc0 >> 15), 16), 16);
 328:../Dave/Generated/CMSIS_DSP/FilteringFunctions/arm_conv_partial_fast_opt_q15.c ****       *__SIMD32(pOut)++ =
 329:../Dave/Generated/CMSIS_DSP/FilteringFunctions/arm_conv_partial_fast_opt_q15.c ****         __PKHBT(__SSAT((acc3 >> 15), 16), __SSAT((acc2 >> 15), 16), 16);
 330:../Dave/Generated/CMSIS_DSP/FilteringFunctions/arm_conv_partial_fast_opt_q15.c **** 
 331:../Dave/Generated/CMSIS_DSP/FilteringFunctions/arm_conv_partial_fast_opt_q15.c **** #endif /*      #ifndef  ARM_MATH_BIG_ENDIAN    */
 332:../Dave/Generated/CMSIS_DSP/FilteringFunctions/arm_conv_partial_fast_opt_q15.c **** 
 333:../Dave/Generated/CMSIS_DSP/FilteringFunctions/arm_conv_partial_fast_opt_q15.c ****       /* Initialization of inputB pointer */
 334:../Dave/Generated/CMSIS_DSP/FilteringFunctions/arm_conv_partial_fast_opt_q15.c ****       pIn2 = py;
 834              	 .loc 1 334 0
 835 06e0 07F11003 	 add r3,r7,#16
 836 06e4 D7F81C21 	 ldr r2,[r7,#284]
 837 06e8 1A60     	 str r2,[r3]
 335:../Dave/Generated/CMSIS_DSP/FilteringFunctions/arm_conv_partial_fast_opt_q15.c **** 
 336:../Dave/Generated/CMSIS_DSP/FilteringFunctions/arm_conv_partial_fast_opt_q15.c ****       pScratch1 += 4u;
 838              	 .loc 1 336 0
 839 06ea D7F87431 	 ldr r3,[r7,#372]
 840 06ee 0833     	 adds r3,r3,#8
 841 06f0 C7F87431 	 str r3,[r7,#372]
 842              	.L10:
 214:../Dave/Generated/CMSIS_DSP/FilteringFunctions/arm_conv_partial_fast_opt_q15.c ****     {
 843              	 .loc 1 214 0
 844 06f4 D7F82C31 	 ldr r3,[r7,#300]
 845 06f8 002B     	 cmp r3,#0
 846 06fa 7FF4AEAD 	 bne .L23
 337:../Dave/Generated/CMSIS_DSP/FilteringFunctions/arm_conv_partial_fast_opt_q15.c **** 
 338:../Dave/Generated/CMSIS_DSP/FilteringFunctions/arm_conv_partial_fast_opt_q15.c ****     }
 339:../Dave/Generated/CMSIS_DSP/FilteringFunctions/arm_conv_partial_fast_opt_q15.c **** 
 340:../Dave/Generated/CMSIS_DSP/FilteringFunctions/arm_conv_partial_fast_opt_q15.c **** 
 341:../Dave/Generated/CMSIS_DSP/FilteringFunctions/arm_conv_partial_fast_opt_q15.c ****     blkCnt = numPoints & 0x3;
 847              	 .loc 1 341 0
 848 06fe D7F87031 	 ldr r3,[r7,#368]
 849 0702 03F00303 	 and r3,r3,#3
 850 0706 C7F82C31 	 str r3,[r7,#300]
 342:../Dave/Generated/CMSIS_DSP/FilteringFunctions/arm_conv_partial_fast_opt_q15.c **** 
 343:../Dave/Generated/CMSIS_DSP/FilteringFunctions/arm_conv_partial_fast_opt_q15.c ****     /* Calculate convolution for remaining samples of Bigger length sequence */
 344:../Dave/Generated/CMSIS_DSP/FilteringFunctions/arm_conv_partial_fast_opt_q15.c ****     while(blkCnt > 0)
 851              	 .loc 1 344 0
 852 070a 96E0     	 b .L24
 853              	.L30:
 345:../Dave/Generated/CMSIS_DSP/FilteringFunctions/arm_conv_partial_fast_opt_q15.c ****     {
 346:../Dave/Generated/CMSIS_DSP/FilteringFunctions/arm_conv_partial_fast_opt_q15.c ****       /* Initialze temporary scratch pointer as scratch1 */
 347:../Dave/Generated/CMSIS_DSP/FilteringFunctions/arm_conv_partial_fast_opt_q15.c ****       pScr1 = pScratch1;
 854              	 .loc 1 347 0
 855 070c 07F11403 	 add r3,r7,#20
 856 0710 D7F87421 	 ldr r2,[r7,#372]
 857 0714 1A60     	 str r2,[r3]
 348:../Dave/Generated/CMSIS_DSP/FilteringFunctions/arm_conv_partial_fast_opt_q15.c **** 
 349:../Dave/Generated/CMSIS_DSP/FilteringFunctions/arm_conv_partial_fast_opt_q15.c ****       /* Clear Accumlators */
 350:../Dave/Generated/CMSIS_DSP/FilteringFunctions/arm_conv_partial_fast_opt_q15.c ****       acc0 = 0;
 858              	 .loc 1 350 0
 859 0716 0023     	 movs r3,#0
 860 0718 C7F85031 	 str r3,[r7,#336]
 351:../Dave/Generated/CMSIS_DSP/FilteringFunctions/arm_conv_partial_fast_opt_q15.c **** 
 352:../Dave/Generated/CMSIS_DSP/FilteringFunctions/arm_conv_partial_fast_opt_q15.c ****       tapCnt = (srcBLen) >> 1u;
 861              	 .loc 1 352 0
 862 071c 3B46     	 mov r3,r7
 863 071e 1B68     	 ldr r3,[r3]
 864 0720 5B08     	 lsrs r3,r3,#1
 865 0722 C7F82431 	 str r3,[r7,#292]
 353:../Dave/Generated/CMSIS_DSP/FilteringFunctions/arm_conv_partial_fast_opt_q15.c **** 
 354:../Dave/Generated/CMSIS_DSP/FilteringFunctions/arm_conv_partial_fast_opt_q15.c ****       while(tapCnt > 0u)
 866              	 .loc 1 354 0
 867 0726 36E0     	 b .L25
 868              	.L27:
 355:../Dave/Generated/CMSIS_DSP/FilteringFunctions/arm_conv_partial_fast_opt_q15.c ****       {
 356:../Dave/Generated/CMSIS_DSP/FilteringFunctions/arm_conv_partial_fast_opt_q15.c **** 
 357:../Dave/Generated/CMSIS_DSP/FilteringFunctions/arm_conv_partial_fast_opt_q15.c ****         /* Read next two samples from scratch1 buffer */
 358:../Dave/Generated/CMSIS_DSP/FilteringFunctions/arm_conv_partial_fast_opt_q15.c ****         x1 = *__SIMD32(pScr1)++;
 869              	 .loc 1 358 0
 870 0728 07F11402 	 add r2,r7,#20
 871 072c 1368     	 ldr r3,[r2]
 872 072e 191D     	 adds r1,r3,#4
 873 0730 1160     	 str r1,[r2]
 874 0732 1B68     	 ldr r3,[r3]
 875 0734 C7F84031 	 str r3,[r7,#320]
 359:../Dave/Generated/CMSIS_DSP/FilteringFunctions/arm_conv_partial_fast_opt_q15.c **** 
 360:../Dave/Generated/CMSIS_DSP/FilteringFunctions/arm_conv_partial_fast_opt_q15.c ****         /* Read two samples from smaller buffer */
 361:../Dave/Generated/CMSIS_DSP/FilteringFunctions/arm_conv_partial_fast_opt_q15.c ****         y1 = *__SIMD32(pIn2)++;
 876              	 .loc 1 361 0
 877 0738 07F11002 	 add r2,r7,#16
 878 073c 1368     	 ldr r3,[r2]
 879 073e 191D     	 adds r1,r3,#4
 880 0740 1160     	 str r1,[r2]
 881 0742 1B68     	 ldr r3,[r3]
 882 0744 C7F81831 	 str r3,[r7,#280]
 362:../Dave/Generated/CMSIS_DSP/FilteringFunctions/arm_conv_partial_fast_opt_q15.c **** 
 363:../Dave/Generated/CMSIS_DSP/FilteringFunctions/arm_conv_partial_fast_opt_q15.c ****         acc0 = __SMLAD(x1, y1, acc0);
 883              	 .loc 1 363 0
 884 0748 D7F84001 	 ldr r0,[r7,#320]
 885 074c D7F81811 	 ldr r1,[r7,#280]
 886 0750 D7F85021 	 ldr r2,[r7,#336]
 887 0754 07F12803 	 add r3,r7,#40
 888 0758 1860     	 str r0,[r3]
 889 075a 07F12403 	 add r3,r7,#36
 890 075e 1960     	 str r1,[r3]
 891 0760 07F12003 	 add r3,r7,#32
 892 0764 1A60     	 str r2,[r3]
 893              	.LBB55:
 894              	.LBB56:
 507:C:\Users\Depes Crystalline\Desktop\school\Active_Bike_Lighting_System\Radar_Core/Libraries/CMSIS/Include\core_cmSimd.h ****   return(result);
 895              	 .loc 2 507 0
 896 0766 07F12803 	 add r3,r7,#40
 897 076a 1B68     	 ldr r3,[r3]
 898 076c 07F12402 	 add r2,r7,#36
 899 0770 1268     	 ldr r2,[r2]
 900 0772 07F12001 	 add r1,r7,#32
 901 0776 0968     	 ldr r1,[r1]
 902              	
 903 0778 23FB0212 	 smlad r2,r3,r2,r1
 904              	
 905              	 .thumb
 906 077c 07F11C03 	 add r3,r7,#28
 907 0780 1A60     	 str r2,[r3]
 508:C:\Users\Depes Crystalline\Desktop\school\Active_Bike_Lighting_System\Radar_Core/Libraries/CMSIS/Include\core_cmSimd.h **** }
 908              	 .loc 2 508 0
 909 0782 07F11C03 	 add r3,r7,#28
 910 0786 1B68     	 ldr r3,[r3]
 911              	.LBE56:
 912              	.LBE55:
 913              	 .loc 1 363 0
 914 0788 C7F85031 	 str r3,[r7,#336]
 364:../Dave/Generated/CMSIS_DSP/FilteringFunctions/arm_conv_partial_fast_opt_q15.c **** 
 365:../Dave/Generated/CMSIS_DSP/FilteringFunctions/arm_conv_partial_fast_opt_q15.c ****         /* Decrement the loop counter */
 366:../Dave/Generated/CMSIS_DSP/FilteringFunctions/arm_conv_partial_fast_opt_q15.c ****         tapCnt--;
 915              	 .loc 1 366 0
 916 078c D7F82431 	 ldr r3,[r7,#292]
 917 0790 013B     	 subs r3,r3,#1
 918 0792 C7F82431 	 str r3,[r7,#292]
 919              	.L25:
 354:../Dave/Generated/CMSIS_DSP/FilteringFunctions/arm_conv_partial_fast_opt_q15.c ****       {
 920              	 .loc 1 354 0
 921 0796 D7F82431 	 ldr r3,[r7,#292]
 922 079a 002B     	 cmp r3,#0
 923 079c C4D1     	 bne .L27
 367:../Dave/Generated/CMSIS_DSP/FilteringFunctions/arm_conv_partial_fast_opt_q15.c ****       }
 368:../Dave/Generated/CMSIS_DSP/FilteringFunctions/arm_conv_partial_fast_opt_q15.c **** 
 369:../Dave/Generated/CMSIS_DSP/FilteringFunctions/arm_conv_partial_fast_opt_q15.c ****       tapCnt = (srcBLen) & 1u;
 924              	 .loc 1 369 0
 925 079e 3B46     	 mov r3,r7
 926 07a0 1B68     	 ldr r3,[r3]
 927 07a2 03F00103 	 and r3,r3,#1
 928 07a6 C7F82431 	 str r3,[r7,#292]
 370:../Dave/Generated/CMSIS_DSP/FilteringFunctions/arm_conv_partial_fast_opt_q15.c **** 
 371:../Dave/Generated/CMSIS_DSP/FilteringFunctions/arm_conv_partial_fast_opt_q15.c ****       /* apply same above for remaining samples of smaller length sequence */
 372:../Dave/Generated/CMSIS_DSP/FilteringFunctions/arm_conv_partial_fast_opt_q15.c ****       while(tapCnt > 0u)
 929              	 .loc 1 372 0
 930 07aa 1DE0     	 b .L28
 931              	.L29:
 373:../Dave/Generated/CMSIS_DSP/FilteringFunctions/arm_conv_partial_fast_opt_q15.c ****       {
 374:../Dave/Generated/CMSIS_DSP/FilteringFunctions/arm_conv_partial_fast_opt_q15.c **** 
 375:../Dave/Generated/CMSIS_DSP/FilteringFunctions/arm_conv_partial_fast_opt_q15.c ****         /* accumlate the results */
 376:../Dave/Generated/CMSIS_DSP/FilteringFunctions/arm_conv_partial_fast_opt_q15.c ****         acc0 += (*pScr1++ * *pIn2++);
 932              	 .loc 1 376 0
 933 07ac 07F11403 	 add r3,r7,#20
 934 07b0 1B68     	 ldr r3,[r3]
 935 07b2 991C     	 adds r1,r3,#2
 936 07b4 07F11402 	 add r2,r7,#20
 937 07b8 1160     	 str r1,[r2]
 938 07ba 1B88     	 ldrh r3,[r3]
 939 07bc 1AB2     	 sxth r2,r3
 940 07be 07F11003 	 add r3,r7,#16
 941 07c2 1B68     	 ldr r3,[r3]
 942 07c4 981C     	 adds r0,r3,#2
 943 07c6 07F11001 	 add r1,r7,#16
 944 07ca 0860     	 str r0,[r1]
 945 07cc 1B88     	 ldrh r3,[r3]
 946 07ce 1BB2     	 sxth r3,r3
 947 07d0 03FB02F3 	 mul r3,r3,r2
 948 07d4 D7F85021 	 ldr r2,[r7,#336]
 949 07d8 1344     	 add r3,r3,r2
 950 07da C7F85031 	 str r3,[r7,#336]
 377:../Dave/Generated/CMSIS_DSP/FilteringFunctions/arm_conv_partial_fast_opt_q15.c **** 
 378:../Dave/Generated/CMSIS_DSP/FilteringFunctions/arm_conv_partial_fast_opt_q15.c ****         /* Decrement the loop counter */
 379:../Dave/Generated/CMSIS_DSP/FilteringFunctions/arm_conv_partial_fast_opt_q15.c ****         tapCnt--;
 951              	 .loc 1 379 0
 952 07de D7F82431 	 ldr r3,[r7,#292]
 953 07e2 013B     	 subs r3,r3,#1
 954 07e4 C7F82431 	 str r3,[r7,#292]
 955              	.L28:
 372:../Dave/Generated/CMSIS_DSP/FilteringFunctions/arm_conv_partial_fast_opt_q15.c ****       {
 956              	 .loc 1 372 0
 957 07e8 D7F82431 	 ldr r3,[r7,#292]
 958 07ec 002B     	 cmp r3,#0
 959 07ee DDD1     	 bne .L29
 380:../Dave/Generated/CMSIS_DSP/FilteringFunctions/arm_conv_partial_fast_opt_q15.c ****       }
 381:../Dave/Generated/CMSIS_DSP/FilteringFunctions/arm_conv_partial_fast_opt_q15.c **** 
 382:../Dave/Generated/CMSIS_DSP/FilteringFunctions/arm_conv_partial_fast_opt_q15.c ****       blkCnt--;
 960              	 .loc 1 382 0
 961 07f0 D7F82C31 	 ldr r3,[r7,#300]
 962 07f4 013B     	 subs r3,r3,#1
 963 07f6 C7F82C31 	 str r3,[r7,#300]
 383:../Dave/Generated/CMSIS_DSP/FilteringFunctions/arm_conv_partial_fast_opt_q15.c **** 
 384:../Dave/Generated/CMSIS_DSP/FilteringFunctions/arm_conv_partial_fast_opt_q15.c ****       /* The result is in 2.30 format.  Convert to 1.15 with saturation.       
 385:../Dave/Generated/CMSIS_DSP/FilteringFunctions/arm_conv_partial_fast_opt_q15.c ****        ** Then store the output in the destination buffer. */
 386:../Dave/Generated/CMSIS_DSP/FilteringFunctions/arm_conv_partial_fast_opt_q15.c ****       *pOut++ = (q15_t) (__SSAT((acc0 >> 15), 16));
 964              	 .loc 1 386 0
 965 07fa 07F11803 	 add r3,r7,#24
 966 07fe 1B68     	 ldr r3,[r3]
 967 0800 991C     	 adds r1,r3,#2
 968 0802 07F11802 	 add r2,r7,#24
 969 0806 1160     	 str r1,[r2]
 970              	.LBB57:
 971 0808 D7F85021 	 ldr r2,[r7,#336]
 972 080c D213     	 asrs r2,r2,#15
 973 080e C7F8B020 	 str r2,[r7,#176]
 974 0812 D7F8B020 	 ldr r2,[r7,#176]
 975              	
 976 0816 02F30F02 	 ssat r2,#16,r2
 977              	
 978              	 .thumb
 979 081a C7F8AC20 	 str r2,[r7,#172]
 980 081e D7F8AC20 	 ldr r2,[r7,#172]
 981              	.LBE57:
 982 0822 92B2     	 uxth r2,r2
 983 0824 1A80     	 strh r2,[r3]
 387:../Dave/Generated/CMSIS_DSP/FilteringFunctions/arm_conv_partial_fast_opt_q15.c **** 
 388:../Dave/Generated/CMSIS_DSP/FilteringFunctions/arm_conv_partial_fast_opt_q15.c ****       /* Initialization of inputB pointer */
 389:../Dave/Generated/CMSIS_DSP/FilteringFunctions/arm_conv_partial_fast_opt_q15.c ****       pIn2 = py;
 984              	 .loc 1 389 0
 985 0826 07F11003 	 add r3,r7,#16
 986 082a D7F81C21 	 ldr r2,[r7,#284]
 987 082e 1A60     	 str r2,[r3]
 390:../Dave/Generated/CMSIS_DSP/FilteringFunctions/arm_conv_partial_fast_opt_q15.c **** 
 391:../Dave/Generated/CMSIS_DSP/FilteringFunctions/arm_conv_partial_fast_opt_q15.c ****       pScratch1 += 1u;
 988              	 .loc 1 391 0
 989 0830 D7F87431 	 ldr r3,[r7,#372]
 990 0834 0233     	 adds r3,r3,#2
 991 0836 C7F87431 	 str r3,[r7,#372]
 992              	.L24:
 344:../Dave/Generated/CMSIS_DSP/FilteringFunctions/arm_conv_partial_fast_opt_q15.c ****     {
 993              	 .loc 1 344 0
 994 083a D7F82C31 	 ldr r3,[r7,#300]
 995 083e 002B     	 cmp r3,#0
 996 0840 7FF464AF 	 bne .L30
 392:../Dave/Generated/CMSIS_DSP/FilteringFunctions/arm_conv_partial_fast_opt_q15.c **** 
 393:../Dave/Generated/CMSIS_DSP/FilteringFunctions/arm_conv_partial_fast_opt_q15.c ****     }
 394:../Dave/Generated/CMSIS_DSP/FilteringFunctions/arm_conv_partial_fast_opt_q15.c ****     /* set status as ARM_MATH_SUCCESS */
 395:../Dave/Generated/CMSIS_DSP/FilteringFunctions/arm_conv_partial_fast_opt_q15.c ****     status = ARM_MATH_SUCCESS;
 997              	 .loc 1 395 0
 998 0844 0023     	 movs r3,#0
 999 0846 87F82B31 	 strb r3,[r7,#299]
 1000              	.L3:
 396:../Dave/Generated/CMSIS_DSP/FilteringFunctions/arm_conv_partial_fast_opt_q15.c ****   }
 397:../Dave/Generated/CMSIS_DSP/FilteringFunctions/arm_conv_partial_fast_opt_q15.c ****   /* Return to application */
 398:../Dave/Generated/CMSIS_DSP/FilteringFunctions/arm_conv_partial_fast_opt_q15.c ****   return (status);
 1001              	 .loc 1 398 0
 1002 084a 97F82B31 	 ldrb r3,[r7,#299]
 1003 084e 5BB2     	 sxtb r3,r3
 399:../Dave/Generated/CMSIS_DSP/FilteringFunctions/arm_conv_partial_fast_opt_q15.c **** }
 1004              	 .loc 1 399 0
 1005 0850 1846     	 mov r0,r3
 1006 0852 07F5AE77 	 add r7,r7,#348
 1007              	.LCFI3:
 1008              	 .cfi_def_cfa_offset 12
 1009 0856 BD46     	 mov sp,r7
 1010              	.LCFI4:
 1011              	 .cfi_def_cfa_register 13
 1012              	 
 1013 0858 90BD     	 pop {r4,r7,pc}
 1014              	 .cfi_endproc
 1015              	.LFE139:
 1017 085a 00BF     	 .text
 1018              	.Letext0:
 1019              	 .file 3 "c:\\davev4-64bit\\dave-4.2.6\\eclipse\\arm-gcc-49\\arm-none-eabi\\include\\machine\\_default_types.h"
 1020              	 .file 4 "c:\\davev4-64bit\\dave-4.2.6\\eclipse\\arm-gcc-49\\arm-none-eabi\\include\\stdint.h"
 1021              	 .file 5 "C:\\Users\\Depes Crystalline\\Desktop\\school\\Active_Bike_Lighting_System\\Radar_Core\\Dave\\Generated/CMSIS_DSP/arm_math.h"