   1              	 .syntax unified
   2              	 .cpu cortex-m4
   3              	 .fpu softvfp
   4              	 .eabi_attribute 20,1
   5              	 .eabi_attribute 21,1
   6              	 .eabi_attribute 23,3
   7              	 .eabi_attribute 24,1
   8              	 .eabi_attribute 25,1
   9              	 .eabi_attribute 26,1
  10              	 .eabi_attribute 30,6
  11              	 .eabi_attribute 34,1
  12              	 .eabi_attribute 18,4
  13              	 .thumb
  14              	 .file "arm_fir_lattice_q31.c"
  15              	 .text
  16              	.Ltext0:
  17              	 .cfi_sections .debug_frame
  18              	 .section .text.arm_fir_lattice_q31,"ax",%progbits
  19              	 .align 2
  20              	 .global arm_fir_lattice_q31
  21              	 .thumb
  22              	 .thumb_func
  24              	arm_fir_lattice_q31:
  25              	.LFB139:
  26              	 .file 1 "../Dave/Generated/CMSIS_DSP/FilteringFunctions/arm_fir_lattice_q31.c"
   1:../Dave/Generated/CMSIS_DSP/FilteringFunctions/arm_fir_lattice_q31.c **** /* ----------------------------------------------------------------------    
   2:../Dave/Generated/CMSIS_DSP/FilteringFunctions/arm_fir_lattice_q31.c **** * Copyright (C) 2010-2014 ARM Limited. All rights reserved.    
   3:../Dave/Generated/CMSIS_DSP/FilteringFunctions/arm_fir_lattice_q31.c **** *    
   4:../Dave/Generated/CMSIS_DSP/FilteringFunctions/arm_fir_lattice_q31.c **** * $Date:        12. March 2014
   5:../Dave/Generated/CMSIS_DSP/FilteringFunctions/arm_fir_lattice_q31.c **** * $Revision: 	V1.4.4
   6:../Dave/Generated/CMSIS_DSP/FilteringFunctions/arm_fir_lattice_q31.c **** *    
   7:../Dave/Generated/CMSIS_DSP/FilteringFunctions/arm_fir_lattice_q31.c **** * Project: 	    CMSIS DSP Library    
   8:../Dave/Generated/CMSIS_DSP/FilteringFunctions/arm_fir_lattice_q31.c **** * Title:	    arm_fir_lattice_q31.c    
   9:../Dave/Generated/CMSIS_DSP/FilteringFunctions/arm_fir_lattice_q31.c **** *    
  10:../Dave/Generated/CMSIS_DSP/FilteringFunctions/arm_fir_lattice_q31.c **** * Description:	Q31 FIR lattice filter processing function.    
  11:../Dave/Generated/CMSIS_DSP/FilteringFunctions/arm_fir_lattice_q31.c **** *    
  12:../Dave/Generated/CMSIS_DSP/FilteringFunctions/arm_fir_lattice_q31.c **** * Target Processor: Cortex-M4/Cortex-M3/Cortex-M0
  13:../Dave/Generated/CMSIS_DSP/FilteringFunctions/arm_fir_lattice_q31.c **** *  
  14:../Dave/Generated/CMSIS_DSP/FilteringFunctions/arm_fir_lattice_q31.c **** * Redistribution and use in source and binary forms, with or without 
  15:../Dave/Generated/CMSIS_DSP/FilteringFunctions/arm_fir_lattice_q31.c **** * modification, are permitted provided that the following conditions
  16:../Dave/Generated/CMSIS_DSP/FilteringFunctions/arm_fir_lattice_q31.c **** * are met:
  17:../Dave/Generated/CMSIS_DSP/FilteringFunctions/arm_fir_lattice_q31.c **** *   - Redistributions of source code must retain the above copyright
  18:../Dave/Generated/CMSIS_DSP/FilteringFunctions/arm_fir_lattice_q31.c **** *     notice, this list of conditions and the following disclaimer.
  19:../Dave/Generated/CMSIS_DSP/FilteringFunctions/arm_fir_lattice_q31.c **** *   - Redistributions in binary form must reproduce the above copyright
  20:../Dave/Generated/CMSIS_DSP/FilteringFunctions/arm_fir_lattice_q31.c **** *     notice, this list of conditions and the following disclaimer in
  21:../Dave/Generated/CMSIS_DSP/FilteringFunctions/arm_fir_lattice_q31.c **** *     the documentation and/or other materials provided with the 
  22:../Dave/Generated/CMSIS_DSP/FilteringFunctions/arm_fir_lattice_q31.c **** *     distribution.
  23:../Dave/Generated/CMSIS_DSP/FilteringFunctions/arm_fir_lattice_q31.c **** *   - Neither the name of ARM LIMITED nor the names of its contributors
  24:../Dave/Generated/CMSIS_DSP/FilteringFunctions/arm_fir_lattice_q31.c **** *     may be used to endorse or promote products derived from this
  25:../Dave/Generated/CMSIS_DSP/FilteringFunctions/arm_fir_lattice_q31.c **** *     software without specific prior written permission.
  26:../Dave/Generated/CMSIS_DSP/FilteringFunctions/arm_fir_lattice_q31.c **** *
  27:../Dave/Generated/CMSIS_DSP/FilteringFunctions/arm_fir_lattice_q31.c **** * THIS SOFTWARE IS PROVIDED BY THE COPYRIGHT HOLDERS AND CONTRIBUTORS
  28:../Dave/Generated/CMSIS_DSP/FilteringFunctions/arm_fir_lattice_q31.c **** * "AS IS" AND ANY EXPRESS OR IMPLIED WARRANTIES, INCLUDING, BUT NOT
  29:../Dave/Generated/CMSIS_DSP/FilteringFunctions/arm_fir_lattice_q31.c **** * LIMITED TO, THE IMPLIED WARRANTIES OF MERCHANTABILITY AND FITNESS
  30:../Dave/Generated/CMSIS_DSP/FilteringFunctions/arm_fir_lattice_q31.c **** * FOR A PARTICULAR PURPOSE ARE DISCLAIMED. IN NO EVENT SHALL THE 
  31:../Dave/Generated/CMSIS_DSP/FilteringFunctions/arm_fir_lattice_q31.c **** * COPYRIGHT OWNER OR CONTRIBUTORS BE LIABLE FOR ANY DIRECT, INDIRECT,
  32:../Dave/Generated/CMSIS_DSP/FilteringFunctions/arm_fir_lattice_q31.c **** * INCIDENTAL, SPECIAL, EXEMPLARY, OR CONSEQUENTIAL DAMAGES (INCLUDING,
  33:../Dave/Generated/CMSIS_DSP/FilteringFunctions/arm_fir_lattice_q31.c **** * BUT NOT LIMITED TO, PROCUREMENT OF SUBSTITUTE GOODS OR SERVICES;
  34:../Dave/Generated/CMSIS_DSP/FilteringFunctions/arm_fir_lattice_q31.c **** * LOSS OF USE, DATA, OR PROFITS; OR BUSINESS INTERRUPTION) HOWEVER
  35:../Dave/Generated/CMSIS_DSP/FilteringFunctions/arm_fir_lattice_q31.c **** * CAUSED AND ON ANY THEORY OF LIABILITY, WHETHER IN CONTRACT, STRICT
  36:../Dave/Generated/CMSIS_DSP/FilteringFunctions/arm_fir_lattice_q31.c **** * LIABILITY, OR TORT (INCLUDING NEGLIGENCE OR OTHERWISE) ARISING IN
  37:../Dave/Generated/CMSIS_DSP/FilteringFunctions/arm_fir_lattice_q31.c **** * ANY WAY OUT OF THE USE OF THIS SOFTWARE, EVEN IF ADVISED OF THE
  38:../Dave/Generated/CMSIS_DSP/FilteringFunctions/arm_fir_lattice_q31.c **** * POSSIBILITY OF SUCH DAMAGE.  
  39:../Dave/Generated/CMSIS_DSP/FilteringFunctions/arm_fir_lattice_q31.c **** * -------------------------------------------------------------------- */
  40:../Dave/Generated/CMSIS_DSP/FilteringFunctions/arm_fir_lattice_q31.c **** 
  41:../Dave/Generated/CMSIS_DSP/FilteringFunctions/arm_fir_lattice_q31.c **** #include "CMSIS_DSP/cmsis_dsp.h"
  42:../Dave/Generated/CMSIS_DSP/FilteringFunctions/arm_fir_lattice_q31.c **** 
  43:../Dave/Generated/CMSIS_DSP/FilteringFunctions/arm_fir_lattice_q31.c **** /**    
  44:../Dave/Generated/CMSIS_DSP/FilteringFunctions/arm_fir_lattice_q31.c ****  * @ingroup groupFilters    
  45:../Dave/Generated/CMSIS_DSP/FilteringFunctions/arm_fir_lattice_q31.c ****  */
  46:../Dave/Generated/CMSIS_DSP/FilteringFunctions/arm_fir_lattice_q31.c **** 
  47:../Dave/Generated/CMSIS_DSP/FilteringFunctions/arm_fir_lattice_q31.c **** /**    
  48:../Dave/Generated/CMSIS_DSP/FilteringFunctions/arm_fir_lattice_q31.c ****  * @addtogroup FIR_Lattice    
  49:../Dave/Generated/CMSIS_DSP/FilteringFunctions/arm_fir_lattice_q31.c ****  * @{    
  50:../Dave/Generated/CMSIS_DSP/FilteringFunctions/arm_fir_lattice_q31.c ****  */
  51:../Dave/Generated/CMSIS_DSP/FilteringFunctions/arm_fir_lattice_q31.c **** 
  52:../Dave/Generated/CMSIS_DSP/FilteringFunctions/arm_fir_lattice_q31.c **** 
  53:../Dave/Generated/CMSIS_DSP/FilteringFunctions/arm_fir_lattice_q31.c **** /**    
  54:../Dave/Generated/CMSIS_DSP/FilteringFunctions/arm_fir_lattice_q31.c ****  * @brief Processing function for the Q31 FIR lattice filter.    
  55:../Dave/Generated/CMSIS_DSP/FilteringFunctions/arm_fir_lattice_q31.c ****  * @param[in]  *S        points to an instance of the Q31 FIR lattice structure.    
  56:../Dave/Generated/CMSIS_DSP/FilteringFunctions/arm_fir_lattice_q31.c ****  * @param[in]  *pSrc     points to the block of input data.    
  57:../Dave/Generated/CMSIS_DSP/FilteringFunctions/arm_fir_lattice_q31.c ****  * @param[out] *pDst     points to the block of output data    
  58:../Dave/Generated/CMSIS_DSP/FilteringFunctions/arm_fir_lattice_q31.c ****  * @param[in]  blockSize number of samples to process.    
  59:../Dave/Generated/CMSIS_DSP/FilteringFunctions/arm_fir_lattice_q31.c ****  * @return none.    
  60:../Dave/Generated/CMSIS_DSP/FilteringFunctions/arm_fir_lattice_q31.c ****  *    
  61:../Dave/Generated/CMSIS_DSP/FilteringFunctions/arm_fir_lattice_q31.c ****  * @details    
  62:../Dave/Generated/CMSIS_DSP/FilteringFunctions/arm_fir_lattice_q31.c ****  * <b>Scaling and Overflow Behavior:</b>    
  63:../Dave/Generated/CMSIS_DSP/FilteringFunctions/arm_fir_lattice_q31.c ****  * In order to avoid overflows the input signal must be scaled down by 2*log2(numStages) bits.    
  64:../Dave/Generated/CMSIS_DSP/FilteringFunctions/arm_fir_lattice_q31.c ****  */
  65:../Dave/Generated/CMSIS_DSP/FilteringFunctions/arm_fir_lattice_q31.c **** 
  66:../Dave/Generated/CMSIS_DSP/FilteringFunctions/arm_fir_lattice_q31.c **** #ifndef ARM_MATH_CM0_FAMILY
  67:../Dave/Generated/CMSIS_DSP/FilteringFunctions/arm_fir_lattice_q31.c **** 
  68:../Dave/Generated/CMSIS_DSP/FilteringFunctions/arm_fir_lattice_q31.c ****   /* Run the below code for Cortex-M4 and Cortex-M3 */
  69:../Dave/Generated/CMSIS_DSP/FilteringFunctions/arm_fir_lattice_q31.c **** 
  70:../Dave/Generated/CMSIS_DSP/FilteringFunctions/arm_fir_lattice_q31.c **** void arm_fir_lattice_q31(
  71:../Dave/Generated/CMSIS_DSP/FilteringFunctions/arm_fir_lattice_q31.c ****   const arm_fir_lattice_instance_q31 * S,
  72:../Dave/Generated/CMSIS_DSP/FilteringFunctions/arm_fir_lattice_q31.c ****   q31_t * pSrc,
  73:../Dave/Generated/CMSIS_DSP/FilteringFunctions/arm_fir_lattice_q31.c ****   q31_t * pDst,
  74:../Dave/Generated/CMSIS_DSP/FilteringFunctions/arm_fir_lattice_q31.c ****   uint32_t blockSize)
  75:../Dave/Generated/CMSIS_DSP/FilteringFunctions/arm_fir_lattice_q31.c **** {
  27              	 .loc 1 75 0
  28              	 .cfi_startproc
  29              	 
  30              	 
  31              	 
  32 0000 2DE9B00F 	 push {r4,r5,r7,r8,r9,r10,fp}
  33              	.LCFI0:
  34              	 .cfi_def_cfa_offset 28
  35              	 .cfi_offset 4,-28
  36              	 .cfi_offset 5,-24
  37              	 .cfi_offset 7,-20
  38              	 .cfi_offset 8,-16
  39              	 .cfi_offset 9,-12
  40              	 .cfi_offset 10,-8
  41              	 .cfi_offset 11,-4
  42 0004 A9B0     	 sub sp,sp,#164
  43              	.LCFI1:
  44              	 .cfi_def_cfa_offset 192
  45 0006 00AF     	 add r7,sp,#0
  46              	.LCFI2:
  47              	 .cfi_def_cfa_register 7
  48 0008 F865     	 str r0,[r7,#92]
  49 000a B965     	 str r1,[r7,#88]
  50 000c 7A65     	 str r2,[r7,#84]
  51 000e 3B65     	 str r3,[r7,#80]
  76:../Dave/Generated/CMSIS_DSP/FilteringFunctions/arm_fir_lattice_q31.c ****   q31_t *pState;                                 /* State pointer */
  77:../Dave/Generated/CMSIS_DSP/FilteringFunctions/arm_fir_lattice_q31.c ****   q31_t *pCoeffs = S->pCoeffs;                   /* Coefficient pointer */
  52              	 .loc 1 77 0
  53 0010 FB6D     	 ldr r3,[r7,#92]
  54 0012 9B68     	 ldr r3,[r3,#8]
  55 0014 FB67     	 str r3,[r7,#124]
  78:../Dave/Generated/CMSIS_DSP/FilteringFunctions/arm_fir_lattice_q31.c ****   q31_t *px;                                     /* temporary state pointer */
  79:../Dave/Generated/CMSIS_DSP/FilteringFunctions/arm_fir_lattice_q31.c ****   q31_t *pk;                                     /* temporary coefficient pointer */
  80:../Dave/Generated/CMSIS_DSP/FilteringFunctions/arm_fir_lattice_q31.c ****   q31_t fcurr1, fnext1, gcurr1 = 0, gnext1;      /* temporary variables for first sample in loop un
  56              	 .loc 1 80 0
  57 0016 0023     	 movs r3,#0
  58 0018 BB67     	 str r3,[r7,#120]
  81:../Dave/Generated/CMSIS_DSP/FilteringFunctions/arm_fir_lattice_q31.c ****   q31_t fcurr2, fnext2, gnext2;                  /* temporary variables for second sample in loop u
  82:../Dave/Generated/CMSIS_DSP/FilteringFunctions/arm_fir_lattice_q31.c ****   uint32_t numStages = S->numStages;             /* Length of the filter */
  59              	 .loc 1 82 0
  60 001a FB6D     	 ldr r3,[r7,#92]
  61 001c 1B88     	 ldrh r3,[r3]
  62 001e 7B67     	 str r3,[r7,#116]
  83:../Dave/Generated/CMSIS_DSP/FilteringFunctions/arm_fir_lattice_q31.c ****   uint32_t blkCnt, stageCnt;                     /* temporary variables for counts */
  84:../Dave/Generated/CMSIS_DSP/FilteringFunctions/arm_fir_lattice_q31.c ****   q31_t k;
  85:../Dave/Generated/CMSIS_DSP/FilteringFunctions/arm_fir_lattice_q31.c **** 
  86:../Dave/Generated/CMSIS_DSP/FilteringFunctions/arm_fir_lattice_q31.c ****   pState = &S->pState[0];
  63              	 .loc 1 86 0
  64 0020 FB6D     	 ldr r3,[r7,#92]
  65 0022 5B68     	 ldr r3,[r3,#4]
  66 0024 3B67     	 str r3,[r7,#112]
  87:../Dave/Generated/CMSIS_DSP/FilteringFunctions/arm_fir_lattice_q31.c **** 
  88:../Dave/Generated/CMSIS_DSP/FilteringFunctions/arm_fir_lattice_q31.c ****   blkCnt = blockSize >> 1u;
  67              	 .loc 1 88 0
  68 0026 3B6D     	 ldr r3,[r7,#80]
  69 0028 5B08     	 lsrs r3,r3,#1
  70 002a C7F88430 	 str r3,[r7,#132]
  89:../Dave/Generated/CMSIS_DSP/FilteringFunctions/arm_fir_lattice_q31.c **** 
  90:../Dave/Generated/CMSIS_DSP/FilteringFunctions/arm_fir_lattice_q31.c ****   /* First part of the processing with loop unrolling.  Compute 2 outputs at a time.        
  91:../Dave/Generated/CMSIS_DSP/FilteringFunctions/arm_fir_lattice_q31.c ****      a second loop below computes the remaining 1 sample. */
  92:../Dave/Generated/CMSIS_DSP/FilteringFunctions/arm_fir_lattice_q31.c ****   while(blkCnt > 0u)
  71              	 .loc 1 92 0
  72 002e 5BE1     	 b .L2
  73              	.L5:
  93:../Dave/Generated/CMSIS_DSP/FilteringFunctions/arm_fir_lattice_q31.c ****   {
  94:../Dave/Generated/CMSIS_DSP/FilteringFunctions/arm_fir_lattice_q31.c ****     /* f0(n) = x(n) */
  95:../Dave/Generated/CMSIS_DSP/FilteringFunctions/arm_fir_lattice_q31.c ****     fcurr1 = *pSrc++;
  74              	 .loc 1 95 0
  75 0030 BA6D     	 ldr r2,[r7,#88]
  76 0032 131D     	 adds r3,r2,#4
  77 0034 BB65     	 str r3,[r7,#88]
  78 0036 1368     	 ldr r3,[r2]
  79 0038 C7F89430 	 str r3,[r7,#148]
  96:../Dave/Generated/CMSIS_DSP/FilteringFunctions/arm_fir_lattice_q31.c **** 
  97:../Dave/Generated/CMSIS_DSP/FilteringFunctions/arm_fir_lattice_q31.c ****     /* f0(n) = x(n) */
  98:../Dave/Generated/CMSIS_DSP/FilteringFunctions/arm_fir_lattice_q31.c ****     fcurr2 = *pSrc++;
  80              	 .loc 1 98 0
  81 003c BA6D     	 ldr r2,[r7,#88]
  82 003e 131D     	 adds r3,r2,#4
  83 0040 BB65     	 str r3,[r7,#88]
  84 0042 1368     	 ldr r3,[r2]
  85 0044 C7F88C30 	 str r3,[r7,#140]
  99:../Dave/Generated/CMSIS_DSP/FilteringFunctions/arm_fir_lattice_q31.c **** 
 100:../Dave/Generated/CMSIS_DSP/FilteringFunctions/arm_fir_lattice_q31.c ****     /* Initialize coeff pointer */
 101:../Dave/Generated/CMSIS_DSP/FilteringFunctions/arm_fir_lattice_q31.c ****     pk = (pCoeffs);
  86              	 .loc 1 101 0
  87 0048 FB6F     	 ldr r3,[r7,#124]
  88 004a C7F89830 	 str r3,[r7,#152]
 102:../Dave/Generated/CMSIS_DSP/FilteringFunctions/arm_fir_lattice_q31.c **** 
 103:../Dave/Generated/CMSIS_DSP/FilteringFunctions/arm_fir_lattice_q31.c ****     /* Initialize state pointer */
 104:../Dave/Generated/CMSIS_DSP/FilteringFunctions/arm_fir_lattice_q31.c ****     px = pState;
  89              	 .loc 1 104 0
  90 004e 3B6F     	 ldr r3,[r7,#112]
  91 0050 C7F89C30 	 str r3,[r7,#156]
 105:../Dave/Generated/CMSIS_DSP/FilteringFunctions/arm_fir_lattice_q31.c **** 
 106:../Dave/Generated/CMSIS_DSP/FilteringFunctions/arm_fir_lattice_q31.c ****     /* read g0(n - 1) from state buffer */
 107:../Dave/Generated/CMSIS_DSP/FilteringFunctions/arm_fir_lattice_q31.c ****     gcurr1 = *px;
  92              	 .loc 1 107 0
  93 0054 D7F89C30 	 ldr r3,[r7,#156]
  94 0058 1B68     	 ldr r3,[r3]
  95 005a BB67     	 str r3,[r7,#120]
 108:../Dave/Generated/CMSIS_DSP/FilteringFunctions/arm_fir_lattice_q31.c **** 
 109:../Dave/Generated/CMSIS_DSP/FilteringFunctions/arm_fir_lattice_q31.c ****     /* Read the reflection coefficient */
 110:../Dave/Generated/CMSIS_DSP/FilteringFunctions/arm_fir_lattice_q31.c ****     k = *pk++;
  96              	 .loc 1 110 0
  97 005c D7F89820 	 ldr r2,[r7,#152]
  98 0060 131D     	 adds r3,r2,#4
  99 0062 C7F89830 	 str r3,[r7,#152]
 100 0066 1368     	 ldr r3,[r2]
 101 0068 FB66     	 str r3,[r7,#108]
 111:../Dave/Generated/CMSIS_DSP/FilteringFunctions/arm_fir_lattice_q31.c **** 
 112:../Dave/Generated/CMSIS_DSP/FilteringFunctions/arm_fir_lattice_q31.c ****     /* for sample 1 processing */
 113:../Dave/Generated/CMSIS_DSP/FilteringFunctions/arm_fir_lattice_q31.c ****     /* f1(n) = f0(n) +  K1 * g0(n-1) */
 114:../Dave/Generated/CMSIS_DSP/FilteringFunctions/arm_fir_lattice_q31.c ****     fnext1 = (q31_t) (((q63_t) gcurr1 * k) >> 32);
 102              	 .loc 1 114 0
 103 006a BB6F     	 ldr r3,[r7,#120]
 104 006c 1846     	 mov r0,r3
 105 006e 4FEAE071 	 asr r1,r0,#31
 106 0072 FB6E     	 ldr r3,[r7,#108]
 107 0074 1A46     	 mov r2,r3
 108 0076 4FEAE273 	 asr r3,r2,#31
 109 007a 02FB01F5 	 mul r5,r2,r1
 110 007e 00FB03F4 	 mul r4,r0,r3
 111 0082 2C44     	 add r4,r4,r5
 112 0084 A0FB0223 	 umull r2,r3,r0,r2
 113 0088 E118     	 adds r1,r4,r3
 114 008a 0B46     	 mov r3,r1
 115 008c 1900     	 movs r1,r3
 116 008e B964     	 str r1,[r7,#72]
 117 0090 DB17     	 asrs r3,r3,#31
 118 0092 FB64     	 str r3,[r7,#76]
 119 0094 BB6C     	 ldr r3,[r7,#72]
 120 0096 BB66     	 str r3,[r7,#104]
 115:../Dave/Generated/CMSIS_DSP/FilteringFunctions/arm_fir_lattice_q31.c **** 
 116:../Dave/Generated/CMSIS_DSP/FilteringFunctions/arm_fir_lattice_q31.c ****     /* g1(n) = f0(n) * K1  +  g0(n-1) */
 117:../Dave/Generated/CMSIS_DSP/FilteringFunctions/arm_fir_lattice_q31.c ****     gnext1 = (q31_t) (((q63_t) fcurr1 * (k)) >> 32);
 121              	 .loc 1 117 0
 122 0098 D7F89430 	 ldr r3,[r7,#148]
 123 009c 1846     	 mov r0,r3
 124 009e 4FEAE071 	 asr r1,r0,#31
 125 00a2 FB6E     	 ldr r3,[r7,#108]
 126 00a4 1A46     	 mov r2,r3
 127 00a6 4FEAE273 	 asr r3,r2,#31
 128 00aa 02FB01F5 	 mul r5,r2,r1
 129 00ae 00FB03F4 	 mul r4,r0,r3
 130 00b2 2C44     	 add r4,r4,r5
 131 00b4 A0FB0223 	 umull r2,r3,r0,r2
 132 00b8 E118     	 adds r1,r4,r3
 133 00ba 0B46     	 mov r3,r1
 134 00bc 1900     	 movs r1,r3
 135 00be 3964     	 str r1,[r7,#64]
 136 00c0 DB17     	 asrs r3,r3,#31
 137 00c2 7B64     	 str r3,[r7,#68]
 138 00c4 3B6C     	 ldr r3,[r7,#64]
 139 00c6 C7F89030 	 str r3,[r7,#144]
 118:../Dave/Generated/CMSIS_DSP/FilteringFunctions/arm_fir_lattice_q31.c ****     fnext1 = fcurr1 + (fnext1 << 1u);
 140              	 .loc 1 118 0
 141 00ca BB6E     	 ldr r3,[r7,#104]
 142 00cc 5A00     	 lsls r2,r3,#1
 143 00ce D7F89430 	 ldr r3,[r7,#148]
 144 00d2 1344     	 add r3,r3,r2
 145 00d4 BB66     	 str r3,[r7,#104]
 119:../Dave/Generated/CMSIS_DSP/FilteringFunctions/arm_fir_lattice_q31.c ****     gnext1 = gcurr1 + (gnext1 << 1u);
 146              	 .loc 1 119 0
 147 00d6 D7F89030 	 ldr r3,[r7,#144]
 148 00da 5A00     	 lsls r2,r3,#1
 149 00dc BB6F     	 ldr r3,[r7,#120]
 150 00de 1344     	 add r3,r3,r2
 151 00e0 C7F89030 	 str r3,[r7,#144]
 120:../Dave/Generated/CMSIS_DSP/FilteringFunctions/arm_fir_lattice_q31.c **** 
 121:../Dave/Generated/CMSIS_DSP/FilteringFunctions/arm_fir_lattice_q31.c ****     /* for sample 1 processing */
 122:../Dave/Generated/CMSIS_DSP/FilteringFunctions/arm_fir_lattice_q31.c ****     /* f1(n) = f0(n) +  K1 * g0(n-1) */
 123:../Dave/Generated/CMSIS_DSP/FilteringFunctions/arm_fir_lattice_q31.c ****     fnext2 = (q31_t) (((q63_t) fcurr1 * k) >> 32);
 152              	 .loc 1 123 0
 153 00e4 D7F89430 	 ldr r3,[r7,#148]
 154 00e8 1846     	 mov r0,r3
 155 00ea 4FEAE071 	 asr r1,r0,#31
 156 00ee FB6E     	 ldr r3,[r7,#108]
 157 00f0 1A46     	 mov r2,r3
 158 00f2 4FEAE273 	 asr r3,r2,#31
 159 00f6 02FB01F5 	 mul r5,r2,r1
 160 00fa 00FB03F4 	 mul r4,r0,r3
 161 00fe 2C44     	 add r4,r4,r5
 162 0100 A0FB0223 	 umull r2,r3,r0,r2
 163 0104 E118     	 adds r1,r4,r3
 164 0106 0B46     	 mov r3,r1
 165 0108 1900     	 movs r1,r3
 166 010a B963     	 str r1,[r7,#56]
 167 010c DB17     	 asrs r3,r3,#31
 168 010e FB63     	 str r3,[r7,#60]
 169 0110 BB6B     	 ldr r3,[r7,#56]
 170 0112 7B66     	 str r3,[r7,#100]
 124:../Dave/Generated/CMSIS_DSP/FilteringFunctions/arm_fir_lattice_q31.c **** 
 125:../Dave/Generated/CMSIS_DSP/FilteringFunctions/arm_fir_lattice_q31.c ****     /* g1(n) = f0(n) * K1  +  g0(n-1) */
 126:../Dave/Generated/CMSIS_DSP/FilteringFunctions/arm_fir_lattice_q31.c ****     gnext2 = (q31_t) (((q63_t) fcurr2 * (k)) >> 32);
 171              	 .loc 1 126 0
 172 0114 D7F88C30 	 ldr r3,[r7,#140]
 173 0118 1846     	 mov r0,r3
 174 011a 4FEAE071 	 asr r1,r0,#31
 175 011e FB6E     	 ldr r3,[r7,#108]
 176 0120 1A46     	 mov r2,r3
 177 0122 4FEAE273 	 asr r3,r2,#31
 178 0126 02FB01F5 	 mul r5,r2,r1
 179 012a 00FB03F4 	 mul r4,r0,r3
 180 012e 2C44     	 add r4,r4,r5
 181 0130 A0FB0223 	 umull r2,r3,r0,r2
 182 0134 E118     	 adds r1,r4,r3
 183 0136 0B46     	 mov r3,r1
 184 0138 1900     	 movs r1,r3
 185 013a 3963     	 str r1,[r7,#48]
 186 013c DB17     	 asrs r3,r3,#31
 187 013e 7B63     	 str r3,[r7,#52]
 188 0140 3B6B     	 ldr r3,[r7,#48]
 189 0142 C7F88830 	 str r3,[r7,#136]
 127:../Dave/Generated/CMSIS_DSP/FilteringFunctions/arm_fir_lattice_q31.c ****     fnext2 = fcurr2 + (fnext2 << 1u);
 190              	 .loc 1 127 0
 191 0146 7B6E     	 ldr r3,[r7,#100]
 192 0148 5A00     	 lsls r2,r3,#1
 193 014a D7F88C30 	 ldr r3,[r7,#140]
 194 014e 1344     	 add r3,r3,r2
 195 0150 7B66     	 str r3,[r7,#100]
 128:../Dave/Generated/CMSIS_DSP/FilteringFunctions/arm_fir_lattice_q31.c ****     gnext2 = fcurr1 + (gnext2 << 1u);
 196              	 .loc 1 128 0
 197 0152 D7F88830 	 ldr r3,[r7,#136]
 198 0156 5A00     	 lsls r2,r3,#1
 199 0158 D7F89430 	 ldr r3,[r7,#148]
 200 015c 1344     	 add r3,r3,r2
 201 015e C7F88830 	 str r3,[r7,#136]
 129:../Dave/Generated/CMSIS_DSP/FilteringFunctions/arm_fir_lattice_q31.c **** 
 130:../Dave/Generated/CMSIS_DSP/FilteringFunctions/arm_fir_lattice_q31.c ****     /* save g1(n) in state buffer */
 131:../Dave/Generated/CMSIS_DSP/FilteringFunctions/arm_fir_lattice_q31.c ****     *px++ = fcurr2;
 202              	 .loc 1 131 0
 203 0162 D7F89C20 	 ldr r2,[r7,#156]
 204 0166 131D     	 adds r3,r2,#4
 205 0168 C7F89C30 	 str r3,[r7,#156]
 206 016c D7F88C30 	 ldr r3,[r7,#140]
 207 0170 1360     	 str r3,[r2]
 132:../Dave/Generated/CMSIS_DSP/FilteringFunctions/arm_fir_lattice_q31.c **** 
 133:../Dave/Generated/CMSIS_DSP/FilteringFunctions/arm_fir_lattice_q31.c ****     /* f1(n) is saved in fcurr1        
 134:../Dave/Generated/CMSIS_DSP/FilteringFunctions/arm_fir_lattice_q31.c ****        for next stage processing */
 135:../Dave/Generated/CMSIS_DSP/FilteringFunctions/arm_fir_lattice_q31.c ****     fcurr1 = fnext1;
 208              	 .loc 1 135 0
 209 0172 BB6E     	 ldr r3,[r7,#104]
 210 0174 C7F89430 	 str r3,[r7,#148]
 136:../Dave/Generated/CMSIS_DSP/FilteringFunctions/arm_fir_lattice_q31.c ****     fcurr2 = fnext2;
 211              	 .loc 1 136 0
 212 0178 7B6E     	 ldr r3,[r7,#100]
 213 017a C7F88C30 	 str r3,[r7,#140]
 137:../Dave/Generated/CMSIS_DSP/FilteringFunctions/arm_fir_lattice_q31.c **** 
 138:../Dave/Generated/CMSIS_DSP/FilteringFunctions/arm_fir_lattice_q31.c ****     stageCnt = (numStages - 1u);
 214              	 .loc 1 138 0
 215 017e 7B6F     	 ldr r3,[r7,#116]
 216 0180 013B     	 subs r3,r3,#1
 217 0182 C7F88030 	 str r3,[r7,#128]
 139:../Dave/Generated/CMSIS_DSP/FilteringFunctions/arm_fir_lattice_q31.c **** 
 140:../Dave/Generated/CMSIS_DSP/FilteringFunctions/arm_fir_lattice_q31.c ****     /* stage loop */
 141:../Dave/Generated/CMSIS_DSP/FilteringFunctions/arm_fir_lattice_q31.c ****     while(stageCnt > 0u)
 218              	 .loc 1 141 0
 219 0186 99E0     	 b .L3
 220              	.L4:
 142:../Dave/Generated/CMSIS_DSP/FilteringFunctions/arm_fir_lattice_q31.c ****     {
 143:../Dave/Generated/CMSIS_DSP/FilteringFunctions/arm_fir_lattice_q31.c **** 
 144:../Dave/Generated/CMSIS_DSP/FilteringFunctions/arm_fir_lattice_q31.c ****       /* Read the reflection coefficient */
 145:../Dave/Generated/CMSIS_DSP/FilteringFunctions/arm_fir_lattice_q31.c ****       k = *pk++;
 221              	 .loc 1 145 0
 222 0188 D7F89820 	 ldr r2,[r7,#152]
 223 018c 131D     	 adds r3,r2,#4
 224 018e C7F89830 	 str r3,[r7,#152]
 225 0192 1368     	 ldr r3,[r2]
 226 0194 FB66     	 str r3,[r7,#108]
 146:../Dave/Generated/CMSIS_DSP/FilteringFunctions/arm_fir_lattice_q31.c **** 
 147:../Dave/Generated/CMSIS_DSP/FilteringFunctions/arm_fir_lattice_q31.c ****       /* read g2(n) from state buffer */
 148:../Dave/Generated/CMSIS_DSP/FilteringFunctions/arm_fir_lattice_q31.c ****       gcurr1 = *px;
 227              	 .loc 1 148 0
 228 0196 D7F89C30 	 ldr r3,[r7,#156]
 229 019a 1B68     	 ldr r3,[r3]
 230 019c BB67     	 str r3,[r7,#120]
 149:../Dave/Generated/CMSIS_DSP/FilteringFunctions/arm_fir_lattice_q31.c **** 
 150:../Dave/Generated/CMSIS_DSP/FilteringFunctions/arm_fir_lattice_q31.c ****       /* save g1(n) in state buffer */
 151:../Dave/Generated/CMSIS_DSP/FilteringFunctions/arm_fir_lattice_q31.c ****       *px++ = gnext2;
 231              	 .loc 1 151 0
 232 019e D7F89C20 	 ldr r2,[r7,#156]
 233 01a2 131D     	 adds r3,r2,#4
 234 01a4 C7F89C30 	 str r3,[r7,#156]
 235 01a8 D7F88830 	 ldr r3,[r7,#136]
 236 01ac 1360     	 str r3,[r2]
 152:../Dave/Generated/CMSIS_DSP/FilteringFunctions/arm_fir_lattice_q31.c **** 
 153:../Dave/Generated/CMSIS_DSP/FilteringFunctions/arm_fir_lattice_q31.c ****       /* Sample processing for K2, K3.... */
 154:../Dave/Generated/CMSIS_DSP/FilteringFunctions/arm_fir_lattice_q31.c ****       /* f2(n) = f1(n) +  K2 * g1(n-1) */
 155:../Dave/Generated/CMSIS_DSP/FilteringFunctions/arm_fir_lattice_q31.c ****       fnext1 = (q31_t) (((q63_t) gcurr1 * k) >> 32);
 237              	 .loc 1 155 0
 238 01ae BB6F     	 ldr r3,[r7,#120]
 239 01b0 1846     	 mov r0,r3
 240 01b2 4FEAE071 	 asr r1,r0,#31
 241 01b6 FB6E     	 ldr r3,[r7,#108]
 242 01b8 1A46     	 mov r2,r3
 243 01ba 4FEAE273 	 asr r3,r2,#31
 244 01be 02FB01F5 	 mul r5,r2,r1
 245 01c2 00FB03F4 	 mul r4,r0,r3
 246 01c6 2C44     	 add r4,r4,r5
 247 01c8 A0FB0223 	 umull r2,r3,r0,r2
 248 01cc E118     	 adds r1,r4,r3
 249 01ce 0B46     	 mov r3,r1
 250 01d0 1900     	 movs r1,r3
 251 01d2 B962     	 str r1,[r7,#40]
 252 01d4 DB17     	 asrs r3,r3,#31
 253 01d6 FB62     	 str r3,[r7,#44]
 254 01d8 BB6A     	 ldr r3,[r7,#40]
 255 01da BB66     	 str r3,[r7,#104]
 156:../Dave/Generated/CMSIS_DSP/FilteringFunctions/arm_fir_lattice_q31.c ****       fnext2 = (q31_t) (((q63_t) gnext1 * k) >> 32);
 256              	 .loc 1 156 0
 257 01dc D7F89030 	 ldr r3,[r7,#144]
 258 01e0 1846     	 mov r0,r3
 259 01e2 4FEAE071 	 asr r1,r0,#31
 260 01e6 FB6E     	 ldr r3,[r7,#108]
 261 01e8 1A46     	 mov r2,r3
 262 01ea 4FEAE273 	 asr r3,r2,#31
 263 01ee 02FB01F5 	 mul r5,r2,r1
 264 01f2 00FB03F4 	 mul r4,r0,r3
 265 01f6 2C44     	 add r4,r4,r5
 266 01f8 A0FB0223 	 umull r2,r3,r0,r2
 267 01fc E118     	 adds r1,r4,r3
 268 01fe 0B46     	 mov r3,r1
 269 0200 1900     	 movs r1,r3
 270 0202 3962     	 str r1,[r7,#32]
 271 0204 DB17     	 asrs r3,r3,#31
 272 0206 7B62     	 str r3,[r7,#36]
 273 0208 3B6A     	 ldr r3,[r7,#32]
 274 020a 7B66     	 str r3,[r7,#100]
 157:../Dave/Generated/CMSIS_DSP/FilteringFunctions/arm_fir_lattice_q31.c **** 
 158:../Dave/Generated/CMSIS_DSP/FilteringFunctions/arm_fir_lattice_q31.c ****       fnext1 = fcurr1 + (fnext1 << 1u);
 275              	 .loc 1 158 0
 276 020c BB6E     	 ldr r3,[r7,#104]
 277 020e 5A00     	 lsls r2,r3,#1
 278 0210 D7F89430 	 ldr r3,[r7,#148]
 279 0214 1344     	 add r3,r3,r2
 280 0216 BB66     	 str r3,[r7,#104]
 159:../Dave/Generated/CMSIS_DSP/FilteringFunctions/arm_fir_lattice_q31.c ****       fnext2 = fcurr2 + (fnext2 << 1u);
 281              	 .loc 1 159 0
 282 0218 7B6E     	 ldr r3,[r7,#100]
 283 021a 5A00     	 lsls r2,r3,#1
 284 021c D7F88C30 	 ldr r3,[r7,#140]
 285 0220 1344     	 add r3,r3,r2
 286 0222 7B66     	 str r3,[r7,#100]
 160:../Dave/Generated/CMSIS_DSP/FilteringFunctions/arm_fir_lattice_q31.c **** 
 161:../Dave/Generated/CMSIS_DSP/FilteringFunctions/arm_fir_lattice_q31.c ****       /* g2(n) = f1(n) * K2  +  g1(n-1) */
 162:../Dave/Generated/CMSIS_DSP/FilteringFunctions/arm_fir_lattice_q31.c ****       gnext2 = (q31_t) (((q63_t) fcurr2 * (k)) >> 32);
 287              	 .loc 1 162 0
 288 0224 D7F88C30 	 ldr r3,[r7,#140]
 289 0228 1846     	 mov r0,r3
 290 022a 4FEAE071 	 asr r1,r0,#31
 291 022e FB6E     	 ldr r3,[r7,#108]
 292 0230 1A46     	 mov r2,r3
 293 0232 4FEAE273 	 asr r3,r2,#31
 294 0236 02FB01F5 	 mul r5,r2,r1
 295 023a 00FB03F4 	 mul r4,r0,r3
 296 023e 2C44     	 add r4,r4,r5
 297 0240 A0FB0223 	 umull r2,r3,r0,r2
 298 0244 E118     	 adds r1,r4,r3
 299 0246 0B46     	 mov r3,r1
 300 0248 1900     	 movs r1,r3
 301 024a B961     	 str r1,[r7,#24]
 302 024c DB17     	 asrs r3,r3,#31
 303 024e FB61     	 str r3,[r7,#28]
 304 0250 BB69     	 ldr r3,[r7,#24]
 305 0252 C7F88830 	 str r3,[r7,#136]
 163:../Dave/Generated/CMSIS_DSP/FilteringFunctions/arm_fir_lattice_q31.c ****       gnext2 = gnext1 + (gnext2 << 1u);
 306              	 .loc 1 163 0
 307 0256 D7F88830 	 ldr r3,[r7,#136]
 308 025a 5A00     	 lsls r2,r3,#1
 309 025c D7F89030 	 ldr r3,[r7,#144]
 310 0260 1344     	 add r3,r3,r2
 311 0262 C7F88830 	 str r3,[r7,#136]
 164:../Dave/Generated/CMSIS_DSP/FilteringFunctions/arm_fir_lattice_q31.c **** 
 165:../Dave/Generated/CMSIS_DSP/FilteringFunctions/arm_fir_lattice_q31.c ****       /* g2(n) = f1(n) * K2  +  g1(n-1) */
 166:../Dave/Generated/CMSIS_DSP/FilteringFunctions/arm_fir_lattice_q31.c ****       gnext1 = (q31_t) (((q63_t) fcurr1 * (k)) >> 32);
 312              	 .loc 1 166 0
 313 0266 D7F89430 	 ldr r3,[r7,#148]
 314 026a 1846     	 mov r0,r3
 315 026c 4FEAE071 	 asr r1,r0,#31
 316 0270 FB6E     	 ldr r3,[r7,#108]
 317 0272 1A46     	 mov r2,r3
 318 0274 4FEAE273 	 asr r3,r2,#31
 319 0278 02FB01F5 	 mul r5,r2,r1
 320 027c 00FB03F4 	 mul r4,r0,r3
 321 0280 2C44     	 add r4,r4,r5
 322 0282 A0FB0223 	 umull r2,r3,r0,r2
 323 0286 E118     	 adds r1,r4,r3
 324 0288 0B46     	 mov r3,r1
 325 028a 1900     	 movs r1,r3
 326 028c 3961     	 str r1,[r7,#16]
 327 028e DB17     	 asrs r3,r3,#31
 328 0290 7B61     	 str r3,[r7,#20]
 329 0292 3B69     	 ldr r3,[r7,#16]
 330 0294 C7F89030 	 str r3,[r7,#144]
 167:../Dave/Generated/CMSIS_DSP/FilteringFunctions/arm_fir_lattice_q31.c ****       gnext1 = gcurr1 + (gnext1 << 1u);
 331              	 .loc 1 167 0
 332 0298 D7F89030 	 ldr r3,[r7,#144]
 333 029c 5A00     	 lsls r2,r3,#1
 334 029e BB6F     	 ldr r3,[r7,#120]
 335 02a0 1344     	 add r3,r3,r2
 336 02a2 C7F89030 	 str r3,[r7,#144]
 168:../Dave/Generated/CMSIS_DSP/FilteringFunctions/arm_fir_lattice_q31.c **** 
 169:../Dave/Generated/CMSIS_DSP/FilteringFunctions/arm_fir_lattice_q31.c ****       /* f1(n) is saved in fcurr1        
 170:../Dave/Generated/CMSIS_DSP/FilteringFunctions/arm_fir_lattice_q31.c ****          for next stage processing */
 171:../Dave/Generated/CMSIS_DSP/FilteringFunctions/arm_fir_lattice_q31.c ****       fcurr1 = fnext1;
 337              	 .loc 1 171 0
 338 02a6 BB6E     	 ldr r3,[r7,#104]
 339 02a8 C7F89430 	 str r3,[r7,#148]
 172:../Dave/Generated/CMSIS_DSP/FilteringFunctions/arm_fir_lattice_q31.c ****       fcurr2 = fnext2;
 340              	 .loc 1 172 0
 341 02ac 7B6E     	 ldr r3,[r7,#100]
 342 02ae C7F88C30 	 str r3,[r7,#140]
 173:../Dave/Generated/CMSIS_DSP/FilteringFunctions/arm_fir_lattice_q31.c **** 
 174:../Dave/Generated/CMSIS_DSP/FilteringFunctions/arm_fir_lattice_q31.c ****       stageCnt--;
 343              	 .loc 1 174 0
 344 02b2 D7F88030 	 ldr r3,[r7,#128]
 345 02b6 013B     	 subs r3,r3,#1
 346 02b8 C7F88030 	 str r3,[r7,#128]
 347              	.L3:
 141:../Dave/Generated/CMSIS_DSP/FilteringFunctions/arm_fir_lattice_q31.c ****     {
 348              	 .loc 1 141 0
 349 02bc D7F88030 	 ldr r3,[r7,#128]
 350 02c0 002B     	 cmp r3,#0
 351 02c2 7FF461AF 	 bne .L4
 175:../Dave/Generated/CMSIS_DSP/FilteringFunctions/arm_fir_lattice_q31.c **** 
 176:../Dave/Generated/CMSIS_DSP/FilteringFunctions/arm_fir_lattice_q31.c ****     }
 177:../Dave/Generated/CMSIS_DSP/FilteringFunctions/arm_fir_lattice_q31.c **** 
 178:../Dave/Generated/CMSIS_DSP/FilteringFunctions/arm_fir_lattice_q31.c ****     /* y(n) = fN(n) */
 179:../Dave/Generated/CMSIS_DSP/FilteringFunctions/arm_fir_lattice_q31.c ****     *pDst++ = fcurr1;
 352              	 .loc 1 179 0
 353 02c6 7A6D     	 ldr r2,[r7,#84]
 354 02c8 131D     	 adds r3,r2,#4
 355 02ca 7B65     	 str r3,[r7,#84]
 356 02cc D7F89430 	 ldr r3,[r7,#148]
 357 02d0 1360     	 str r3,[r2]
 180:../Dave/Generated/CMSIS_DSP/FilteringFunctions/arm_fir_lattice_q31.c ****     *pDst++ = fcurr2;
 358              	 .loc 1 180 0
 359 02d2 7A6D     	 ldr r2,[r7,#84]
 360 02d4 131D     	 adds r3,r2,#4
 361 02d6 7B65     	 str r3,[r7,#84]
 362 02d8 D7F88C30 	 ldr r3,[r7,#140]
 363 02dc 1360     	 str r3,[r2]
 181:../Dave/Generated/CMSIS_DSP/FilteringFunctions/arm_fir_lattice_q31.c **** 
 182:../Dave/Generated/CMSIS_DSP/FilteringFunctions/arm_fir_lattice_q31.c ****     blkCnt--;
 364              	 .loc 1 182 0
 365 02de D7F88430 	 ldr r3,[r7,#132]
 366 02e2 013B     	 subs r3,r3,#1
 367 02e4 C7F88430 	 str r3,[r7,#132]
 368              	.L2:
  92:../Dave/Generated/CMSIS_DSP/FilteringFunctions/arm_fir_lattice_q31.c ****   {
 369              	 .loc 1 92 0
 370 02e8 D7F88430 	 ldr r3,[r7,#132]
 371 02ec 002B     	 cmp r3,#0
 372 02ee 7FF49FAE 	 bne .L5
 183:../Dave/Generated/CMSIS_DSP/FilteringFunctions/arm_fir_lattice_q31.c **** 
 184:../Dave/Generated/CMSIS_DSP/FilteringFunctions/arm_fir_lattice_q31.c ****   }
 185:../Dave/Generated/CMSIS_DSP/FilteringFunctions/arm_fir_lattice_q31.c **** 
 186:../Dave/Generated/CMSIS_DSP/FilteringFunctions/arm_fir_lattice_q31.c ****   /* If the blockSize is not a multiple of 4, compute any remaining output samples here.        
 187:../Dave/Generated/CMSIS_DSP/FilteringFunctions/arm_fir_lattice_q31.c ****    ** No loop unrolling is used. */
 188:../Dave/Generated/CMSIS_DSP/FilteringFunctions/arm_fir_lattice_q31.c ****   blkCnt = blockSize % 0x2u;
 373              	 .loc 1 188 0
 374 02f2 3B6D     	 ldr r3,[r7,#80]
 375 02f4 03F00103 	 and r3,r3,#1
 376 02f8 C7F88430 	 str r3,[r7,#132]
 189:../Dave/Generated/CMSIS_DSP/FilteringFunctions/arm_fir_lattice_q31.c **** 
 190:../Dave/Generated/CMSIS_DSP/FilteringFunctions/arm_fir_lattice_q31.c ****   while(blkCnt > 0u)
 377              	 .loc 1 190 0
 378 02fc C8E0     	 b .L6
 379              	.L9:
 191:../Dave/Generated/CMSIS_DSP/FilteringFunctions/arm_fir_lattice_q31.c ****   {
 192:../Dave/Generated/CMSIS_DSP/FilteringFunctions/arm_fir_lattice_q31.c ****     /* f0(n) = x(n) */
 193:../Dave/Generated/CMSIS_DSP/FilteringFunctions/arm_fir_lattice_q31.c ****     fcurr1 = *pSrc++;
 380              	 .loc 1 193 0
 381 02fe BB6D     	 ldr r3,[r7,#88]
 382 0300 1A1D     	 adds r2,r3,#4
 383 0302 BA65     	 str r2,[r7,#88]
 384 0304 1B68     	 ldr r3,[r3]
 385 0306 C7F89430 	 str r3,[r7,#148]
 194:../Dave/Generated/CMSIS_DSP/FilteringFunctions/arm_fir_lattice_q31.c **** 
 195:../Dave/Generated/CMSIS_DSP/FilteringFunctions/arm_fir_lattice_q31.c ****     /* Initialize coeff pointer */
 196:../Dave/Generated/CMSIS_DSP/FilteringFunctions/arm_fir_lattice_q31.c ****     pk = (pCoeffs);
 386              	 .loc 1 196 0
 387 030a FB6F     	 ldr r3,[r7,#124]
 388 030c C7F89830 	 str r3,[r7,#152]
 197:../Dave/Generated/CMSIS_DSP/FilteringFunctions/arm_fir_lattice_q31.c **** 
 198:../Dave/Generated/CMSIS_DSP/FilteringFunctions/arm_fir_lattice_q31.c ****     /* Initialize state pointer */
 199:../Dave/Generated/CMSIS_DSP/FilteringFunctions/arm_fir_lattice_q31.c ****     px = pState;
 389              	 .loc 1 199 0
 390 0310 3B6F     	 ldr r3,[r7,#112]
 391 0312 C7F89C30 	 str r3,[r7,#156]
 200:../Dave/Generated/CMSIS_DSP/FilteringFunctions/arm_fir_lattice_q31.c **** 
 201:../Dave/Generated/CMSIS_DSP/FilteringFunctions/arm_fir_lattice_q31.c ****     /* read g0(n - 1) from state buffer */
 202:../Dave/Generated/CMSIS_DSP/FilteringFunctions/arm_fir_lattice_q31.c ****     gcurr1 = *px;
 392              	 .loc 1 202 0
 393 0316 D7F89C30 	 ldr r3,[r7,#156]
 394 031a 1B68     	 ldr r3,[r3]
 395 031c BB67     	 str r3,[r7,#120]
 203:../Dave/Generated/CMSIS_DSP/FilteringFunctions/arm_fir_lattice_q31.c **** 
 204:../Dave/Generated/CMSIS_DSP/FilteringFunctions/arm_fir_lattice_q31.c ****     /* Read the reflection coefficient */
 205:../Dave/Generated/CMSIS_DSP/FilteringFunctions/arm_fir_lattice_q31.c ****     k = *pk++;
 396              	 .loc 1 205 0
 397 031e D7F89830 	 ldr r3,[r7,#152]
 398 0322 1A1D     	 adds r2,r3,#4
 399 0324 C7F89820 	 str r2,[r7,#152]
 400 0328 1B68     	 ldr r3,[r3]
 401 032a FB66     	 str r3,[r7,#108]
 206:../Dave/Generated/CMSIS_DSP/FilteringFunctions/arm_fir_lattice_q31.c **** 
 207:../Dave/Generated/CMSIS_DSP/FilteringFunctions/arm_fir_lattice_q31.c ****     /* for sample 1 processing */
 208:../Dave/Generated/CMSIS_DSP/FilteringFunctions/arm_fir_lattice_q31.c ****     /* f1(n) = f0(n) +  K1 * g0(n-1) */
 209:../Dave/Generated/CMSIS_DSP/FilteringFunctions/arm_fir_lattice_q31.c ****     fnext1 = (q31_t) (((q63_t) gcurr1 * k) >> 32);
 402              	 .loc 1 209 0
 403 032c BB6F     	 ldr r3,[r7,#120]
 404 032e 1846     	 mov r0,r3
 405 0330 4FEAE071 	 asr r1,r0,#31
 406 0334 FB6E     	 ldr r3,[r7,#108]
 407 0336 1A46     	 mov r2,r3
 408 0338 4FEAE273 	 asr r3,r2,#31
 409 033c 02FB01F5 	 mul r5,r2,r1
 410 0340 00FB03F4 	 mul r4,r0,r3
 411 0344 2C44     	 add r4,r4,r5
 412 0346 A0FB0223 	 umull r2,r3,r0,r2
 413 034a E118     	 adds r1,r4,r3
 414 034c 0B46     	 mov r3,r1
 415 034e 9846     	 mov r8,r3
 416 0350 4FEAE379 	 asr r9,r3,#31
 417 0354 4346     	 mov r3,r8
 418 0356 BB66     	 str r3,[r7,#104]
 210:../Dave/Generated/CMSIS_DSP/FilteringFunctions/arm_fir_lattice_q31.c ****     fnext1 = fcurr1 + (fnext1 << 1u);
 419              	 .loc 1 210 0
 420 0358 BB6E     	 ldr r3,[r7,#104]
 421 035a 5A00     	 lsls r2,r3,#1
 422 035c D7F89430 	 ldr r3,[r7,#148]
 423 0360 1344     	 add r3,r3,r2
 424 0362 BB66     	 str r3,[r7,#104]
 211:../Dave/Generated/CMSIS_DSP/FilteringFunctions/arm_fir_lattice_q31.c **** 
 212:../Dave/Generated/CMSIS_DSP/FilteringFunctions/arm_fir_lattice_q31.c ****     /* g1(n) = f0(n) * K1  +  g0(n-1) */
 213:../Dave/Generated/CMSIS_DSP/FilteringFunctions/arm_fir_lattice_q31.c ****     gnext1 = (q31_t) (((q63_t) fcurr1 * (k)) >> 32);
 425              	 .loc 1 213 0
 426 0364 D7F89430 	 ldr r3,[r7,#148]
 427 0368 1846     	 mov r0,r3
 428 036a 4FEAE071 	 asr r1,r0,#31
 429 036e FB6E     	 ldr r3,[r7,#108]
 430 0370 1A46     	 mov r2,r3
 431 0372 4FEAE273 	 asr r3,r2,#31
 432 0376 02FB01F5 	 mul r5,r2,r1
 433 037a 00FB03F4 	 mul r4,r0,r3
 434 037e 2C44     	 add r4,r4,r5
 435 0380 A0FB0223 	 umull r2,r3,r0,r2
 436 0384 E118     	 adds r1,r4,r3
 437 0386 0B46     	 mov r3,r1
 438 0388 9A46     	 mov r10,r3
 439 038a 4FEAE37B 	 asr fp,r3,#31
 440 038e 5346     	 mov r3,r10
 441 0390 C7F89030 	 str r3,[r7,#144]
 214:../Dave/Generated/CMSIS_DSP/FilteringFunctions/arm_fir_lattice_q31.c ****     gnext1 = gcurr1 + (gnext1 << 1u);
 442              	 .loc 1 214 0
 443 0394 D7F89030 	 ldr r3,[r7,#144]
 444 0398 5A00     	 lsls r2,r3,#1
 445 039a BB6F     	 ldr r3,[r7,#120]
 446 039c 1344     	 add r3,r3,r2
 447 039e C7F89030 	 str r3,[r7,#144]
 215:../Dave/Generated/CMSIS_DSP/FilteringFunctions/arm_fir_lattice_q31.c **** 
 216:../Dave/Generated/CMSIS_DSP/FilteringFunctions/arm_fir_lattice_q31.c ****     /* save g1(n) in state buffer */
 217:../Dave/Generated/CMSIS_DSP/FilteringFunctions/arm_fir_lattice_q31.c ****     *px++ = fcurr1;
 448              	 .loc 1 217 0
 449 03a2 D7F89C30 	 ldr r3,[r7,#156]
 450 03a6 1A1D     	 adds r2,r3,#4
 451 03a8 C7F89C20 	 str r2,[r7,#156]
 452 03ac D7F89420 	 ldr r2,[r7,#148]
 453 03b0 1A60     	 str r2,[r3]
 218:../Dave/Generated/CMSIS_DSP/FilteringFunctions/arm_fir_lattice_q31.c **** 
 219:../Dave/Generated/CMSIS_DSP/FilteringFunctions/arm_fir_lattice_q31.c ****     /* f1(n) is saved in fcurr1        
 220:../Dave/Generated/CMSIS_DSP/FilteringFunctions/arm_fir_lattice_q31.c ****        for next stage processing */
 221:../Dave/Generated/CMSIS_DSP/FilteringFunctions/arm_fir_lattice_q31.c ****     fcurr1 = fnext1;
 454              	 .loc 1 221 0
 455 03b2 BB6E     	 ldr r3,[r7,#104]
 456 03b4 C7F89430 	 str r3,[r7,#148]
 222:../Dave/Generated/CMSIS_DSP/FilteringFunctions/arm_fir_lattice_q31.c **** 
 223:../Dave/Generated/CMSIS_DSP/FilteringFunctions/arm_fir_lattice_q31.c ****     stageCnt = (numStages - 1u);
 457              	 .loc 1 223 0
 458 03b8 7B6F     	 ldr r3,[r7,#116]
 459 03ba 013B     	 subs r3,r3,#1
 460 03bc C7F88030 	 str r3,[r7,#128]
 224:../Dave/Generated/CMSIS_DSP/FilteringFunctions/arm_fir_lattice_q31.c **** 
 225:../Dave/Generated/CMSIS_DSP/FilteringFunctions/arm_fir_lattice_q31.c ****     /* stage loop */
 226:../Dave/Generated/CMSIS_DSP/FilteringFunctions/arm_fir_lattice_q31.c ****     while(stageCnt > 0u)
 461              	 .loc 1 226 0
 462 03c0 57E0     	 b .L7
 463              	.L8:
 227:../Dave/Generated/CMSIS_DSP/FilteringFunctions/arm_fir_lattice_q31.c ****     {
 228:../Dave/Generated/CMSIS_DSP/FilteringFunctions/arm_fir_lattice_q31.c ****       /* Read the reflection coefficient */
 229:../Dave/Generated/CMSIS_DSP/FilteringFunctions/arm_fir_lattice_q31.c ****       k = *pk++;
 464              	 .loc 1 229 0
 465 03c2 D7F89830 	 ldr r3,[r7,#152]
 466 03c6 1A1D     	 adds r2,r3,#4
 467 03c8 C7F89820 	 str r2,[r7,#152]
 468 03cc 1B68     	 ldr r3,[r3]
 469 03ce FB66     	 str r3,[r7,#108]
 230:../Dave/Generated/CMSIS_DSP/FilteringFunctions/arm_fir_lattice_q31.c **** 
 231:../Dave/Generated/CMSIS_DSP/FilteringFunctions/arm_fir_lattice_q31.c ****       /* read g2(n) from state buffer */
 232:../Dave/Generated/CMSIS_DSP/FilteringFunctions/arm_fir_lattice_q31.c ****       gcurr1 = *px;
 470              	 .loc 1 232 0
 471 03d0 D7F89C30 	 ldr r3,[r7,#156]
 472 03d4 1B68     	 ldr r3,[r3]
 473 03d6 BB67     	 str r3,[r7,#120]
 233:../Dave/Generated/CMSIS_DSP/FilteringFunctions/arm_fir_lattice_q31.c **** 
 234:../Dave/Generated/CMSIS_DSP/FilteringFunctions/arm_fir_lattice_q31.c ****       /* save g1(n) in state buffer */
 235:../Dave/Generated/CMSIS_DSP/FilteringFunctions/arm_fir_lattice_q31.c ****       *px++ = gnext1;
 474              	 .loc 1 235 0
 475 03d8 D7F89C30 	 ldr r3,[r7,#156]
 476 03dc 1A1D     	 adds r2,r3,#4
 477 03de C7F89C20 	 str r2,[r7,#156]
 478 03e2 D7F89020 	 ldr r2,[r7,#144]
 479 03e6 1A60     	 str r2,[r3]
 236:../Dave/Generated/CMSIS_DSP/FilteringFunctions/arm_fir_lattice_q31.c **** 
 237:../Dave/Generated/CMSIS_DSP/FilteringFunctions/arm_fir_lattice_q31.c ****       /* Sample processing for K2, K3.... */
 238:../Dave/Generated/CMSIS_DSP/FilteringFunctions/arm_fir_lattice_q31.c ****       /* f2(n) = f1(n) +  K2 * g1(n-1) */
 239:../Dave/Generated/CMSIS_DSP/FilteringFunctions/arm_fir_lattice_q31.c ****       fnext1 = (q31_t) (((q63_t) gcurr1 * k) >> 32);
 480              	 .loc 1 239 0
 481 03e8 BB6F     	 ldr r3,[r7,#120]
 482 03ea 1846     	 mov r0,r3
 483 03ec 4FEAE071 	 asr r1,r0,#31
 484 03f0 FB6E     	 ldr r3,[r7,#108]
 485 03f2 1A46     	 mov r2,r3
 486 03f4 4FEAE273 	 asr r3,r2,#31
 487 03f8 02FB01F5 	 mul r5,r2,r1
 488 03fc 00FB03F4 	 mul r4,r0,r3
 489 0400 2C44     	 add r4,r4,r5
 490 0402 A0FB0223 	 umull r2,r3,r0,r2
 491 0406 E118     	 adds r1,r4,r3
 492 0408 0B46     	 mov r3,r1
 493 040a 1900     	 movs r1,r3
 494 040c B960     	 str r1,[r7,#8]
 495 040e DB17     	 asrs r3,r3,#31
 496 0410 FB60     	 str r3,[r7,#12]
 497 0412 BB68     	 ldr r3,[r7,#8]
 498 0414 BB66     	 str r3,[r7,#104]
 240:../Dave/Generated/CMSIS_DSP/FilteringFunctions/arm_fir_lattice_q31.c ****       fnext1 = fcurr1 + (fnext1 << 1u);
 499              	 .loc 1 240 0
 500 0416 BB6E     	 ldr r3,[r7,#104]
 501 0418 5A00     	 lsls r2,r3,#1
 502 041a D7F89430 	 ldr r3,[r7,#148]
 503 041e 1344     	 add r3,r3,r2
 504 0420 BB66     	 str r3,[r7,#104]
 241:../Dave/Generated/CMSIS_DSP/FilteringFunctions/arm_fir_lattice_q31.c **** 
 242:../Dave/Generated/CMSIS_DSP/FilteringFunctions/arm_fir_lattice_q31.c ****       /* g2(n) = f1(n) * K2  +  g1(n-1) */
 243:../Dave/Generated/CMSIS_DSP/FilteringFunctions/arm_fir_lattice_q31.c ****       gnext1 = (q31_t) (((q63_t) fcurr1 * (k)) >> 32);
 505              	 .loc 1 243 0
 506 0422 D7F89430 	 ldr r3,[r7,#148]
 507 0426 1846     	 mov r0,r3
 508 0428 4FEAE071 	 asr r1,r0,#31
 509 042c FB6E     	 ldr r3,[r7,#108]
 510 042e 1A46     	 mov r2,r3
 511 0430 4FEAE273 	 asr r3,r2,#31
 512 0434 02FB01F5 	 mul r5,r2,r1
 513 0438 00FB03F4 	 mul r4,r0,r3
 514 043c 2C44     	 add r4,r4,r5
 515 043e A0FB0223 	 umull r2,r3,r0,r2
 516 0442 E118     	 adds r1,r4,r3
 517 0444 0B46     	 mov r3,r1
 518 0446 1900     	 movs r1,r3
 519 0448 3960     	 str r1,[r7]
 520 044a DB17     	 asrs r3,r3,#31
 521 044c 7B60     	 str r3,[r7,#4]
 522 044e 3B68     	 ldr r3,[r7]
 523 0450 C7F89030 	 str r3,[r7,#144]
 244:../Dave/Generated/CMSIS_DSP/FilteringFunctions/arm_fir_lattice_q31.c ****       gnext1 = gcurr1 + (gnext1 << 1u);
 524              	 .loc 1 244 0
 525 0454 D7F89030 	 ldr r3,[r7,#144]
 526 0458 5A00     	 lsls r2,r3,#1
 527 045a BB6F     	 ldr r3,[r7,#120]
 528 045c 1344     	 add r3,r3,r2
 529 045e C7F89030 	 str r3,[r7,#144]
 245:../Dave/Generated/CMSIS_DSP/FilteringFunctions/arm_fir_lattice_q31.c **** 
 246:../Dave/Generated/CMSIS_DSP/FilteringFunctions/arm_fir_lattice_q31.c ****       /* f1(n) is saved in fcurr1        
 247:../Dave/Generated/CMSIS_DSP/FilteringFunctions/arm_fir_lattice_q31.c ****          for next stage processing */
 248:../Dave/Generated/CMSIS_DSP/FilteringFunctions/arm_fir_lattice_q31.c ****       fcurr1 = fnext1;
 530              	 .loc 1 248 0
 531 0462 BB6E     	 ldr r3,[r7,#104]
 532 0464 C7F89430 	 str r3,[r7,#148]
 249:../Dave/Generated/CMSIS_DSP/FilteringFunctions/arm_fir_lattice_q31.c **** 
 250:../Dave/Generated/CMSIS_DSP/FilteringFunctions/arm_fir_lattice_q31.c ****       stageCnt--;
 533              	 .loc 1 250 0
 534 0468 D7F88030 	 ldr r3,[r7,#128]
 535 046c 013B     	 subs r3,r3,#1
 536 046e C7F88030 	 str r3,[r7,#128]
 537              	.L7:
 226:../Dave/Generated/CMSIS_DSP/FilteringFunctions/arm_fir_lattice_q31.c ****     {
 538              	 .loc 1 226 0
 539 0472 D7F88030 	 ldr r3,[r7,#128]
 540 0476 002B     	 cmp r3,#0
 541 0478 A3D1     	 bne .L8
 251:../Dave/Generated/CMSIS_DSP/FilteringFunctions/arm_fir_lattice_q31.c **** 
 252:../Dave/Generated/CMSIS_DSP/FilteringFunctions/arm_fir_lattice_q31.c ****     }
 253:../Dave/Generated/CMSIS_DSP/FilteringFunctions/arm_fir_lattice_q31.c **** 
 254:../Dave/Generated/CMSIS_DSP/FilteringFunctions/arm_fir_lattice_q31.c **** 
 255:../Dave/Generated/CMSIS_DSP/FilteringFunctions/arm_fir_lattice_q31.c ****     /* y(n) = fN(n) */
 256:../Dave/Generated/CMSIS_DSP/FilteringFunctions/arm_fir_lattice_q31.c ****     *pDst++ = fcurr1;
 542              	 .loc 1 256 0
 543 047a 7B6D     	 ldr r3,[r7,#84]
 544 047c 1A1D     	 adds r2,r3,#4
 545 047e 7A65     	 str r2,[r7,#84]
 546 0480 D7F89420 	 ldr r2,[r7,#148]
 547 0484 1A60     	 str r2,[r3]
 257:../Dave/Generated/CMSIS_DSP/FilteringFunctions/arm_fir_lattice_q31.c **** 
 258:../Dave/Generated/CMSIS_DSP/FilteringFunctions/arm_fir_lattice_q31.c ****     blkCnt--;
 548              	 .loc 1 258 0
 549 0486 D7F88430 	 ldr r3,[r7,#132]
 550 048a 013B     	 subs r3,r3,#1
 551 048c C7F88430 	 str r3,[r7,#132]
 552              	.L6:
 190:../Dave/Generated/CMSIS_DSP/FilteringFunctions/arm_fir_lattice_q31.c ****   {
 553              	 .loc 1 190 0
 554 0490 D7F88430 	 ldr r3,[r7,#132]
 555 0494 002B     	 cmp r3,#0
 556 0496 7FF432AF 	 bne .L9
 259:../Dave/Generated/CMSIS_DSP/FilteringFunctions/arm_fir_lattice_q31.c **** 
 260:../Dave/Generated/CMSIS_DSP/FilteringFunctions/arm_fir_lattice_q31.c ****   }
 261:../Dave/Generated/CMSIS_DSP/FilteringFunctions/arm_fir_lattice_q31.c **** 
 262:../Dave/Generated/CMSIS_DSP/FilteringFunctions/arm_fir_lattice_q31.c **** 
 263:../Dave/Generated/CMSIS_DSP/FilteringFunctions/arm_fir_lattice_q31.c **** }
 557              	 .loc 1 263 0
 558 049a A437     	 adds r7,r7,#164
 559              	.LCFI3:
 560              	 .cfi_def_cfa_offset 28
 561 049c BD46     	 mov sp,r7
 562              	.LCFI4:
 563              	 .cfi_def_cfa_register 13
 564              	 
 565 049e BDE8B00F 	 pop {r4,r5,r7,r8,r9,r10,fp}
 566              	.LCFI5:
 567              	 .cfi_restore 11
 568              	 .cfi_restore 10
 569              	 .cfi_restore 9
 570              	 .cfi_restore 8
 571              	 .cfi_restore 7
 572              	 .cfi_restore 5
 573              	 .cfi_restore 4
 574              	 .cfi_def_cfa_offset 0
 575 04a2 7047     	 bx lr
 576              	 .cfi_endproc
 577              	.LFE139:
 579              	 .text
 580              	.Letext0:
 581              	 .file 2 "c:\\davev4-64bit\\dave-4.2.6\\eclipse\\arm-gcc-49\\arm-none-eabi\\include\\machine\\_default_types.h"
 582              	 .file 3 "c:\\davev4-64bit\\dave-4.2.6\\eclipse\\arm-gcc-49\\arm-none-eabi\\include\\stdint.h"
 583              	 .file 4 "C:\\Users\\Depes Crystalline\\Desktop\\school\\Active_Bike_Lighting_System\\Radar_Core\\Dave\\Generated/CMSIS_DSP/arm_math.h"