   1              	 .syntax unified
   2              	 .cpu cortex-m4
   3              	 .fpu softvfp
   4              	 .eabi_attribute 20,1
   5              	 .eabi_attribute 21,1
   6              	 .eabi_attribute 23,3
   7              	 .eabi_attribute 24,1
   8              	 .eabi_attribute 25,1
   9              	 .eabi_attribute 26,1
  10              	 .eabi_attribute 30,6
  11              	 .eabi_attribute 34,1
  12              	 .eabi_attribute 18,4
  13              	 .thumb
  14              	 .file "arm_correlate_q15.c"
  15              	 .text
  16              	.Ltext0:
  17              	 .cfi_sections .debug_frame
  18              	 .section .text.arm_correlate_q15,"ax",%progbits
  19              	 .align 2
  20              	 .global arm_correlate_q15
  21              	 .thumb
  22              	 .thumb_func
  24              	arm_correlate_q15:
  25              	.LFB139:
  26              	 .file 1 "../Dave/Generated/CMSIS_DSP/FilteringFunctions/arm_correlate_q15.c"
   1:../Dave/Generated/CMSIS_DSP/FilteringFunctions/arm_correlate_q15.c **** /* ----------------------------------------------------------------------   
   2:../Dave/Generated/CMSIS_DSP/FilteringFunctions/arm_correlate_q15.c **** * Copyright (C) 2010-2014 ARM Limited. All rights reserved.   
   3:../Dave/Generated/CMSIS_DSP/FilteringFunctions/arm_correlate_q15.c **** *   
   4:../Dave/Generated/CMSIS_DSP/FilteringFunctions/arm_correlate_q15.c **** * $Date:        12. March 2014
   5:../Dave/Generated/CMSIS_DSP/FilteringFunctions/arm_correlate_q15.c **** * $Revision: 	V1.4.4
   6:../Dave/Generated/CMSIS_DSP/FilteringFunctions/arm_correlate_q15.c **** *   
   7:../Dave/Generated/CMSIS_DSP/FilteringFunctions/arm_correlate_q15.c **** * Project: 	    CMSIS DSP Library   
   8:../Dave/Generated/CMSIS_DSP/FilteringFunctions/arm_correlate_q15.c **** * Title:		arm_correlate_q15.c   
   9:../Dave/Generated/CMSIS_DSP/FilteringFunctions/arm_correlate_q15.c **** *   
  10:../Dave/Generated/CMSIS_DSP/FilteringFunctions/arm_correlate_q15.c **** * Description:	Correlation of Q15 sequences. 
  11:../Dave/Generated/CMSIS_DSP/FilteringFunctions/arm_correlate_q15.c **** *   
  12:../Dave/Generated/CMSIS_DSP/FilteringFunctions/arm_correlate_q15.c **** * Target Processor: Cortex-M4/Cortex-M3/Cortex-M0
  13:../Dave/Generated/CMSIS_DSP/FilteringFunctions/arm_correlate_q15.c **** *  
  14:../Dave/Generated/CMSIS_DSP/FilteringFunctions/arm_correlate_q15.c **** * Redistribution and use in source and binary forms, with or without 
  15:../Dave/Generated/CMSIS_DSP/FilteringFunctions/arm_correlate_q15.c **** * modification, are permitted provided that the following conditions
  16:../Dave/Generated/CMSIS_DSP/FilteringFunctions/arm_correlate_q15.c **** * are met:
  17:../Dave/Generated/CMSIS_DSP/FilteringFunctions/arm_correlate_q15.c **** *   - Redistributions of source code must retain the above copyright
  18:../Dave/Generated/CMSIS_DSP/FilteringFunctions/arm_correlate_q15.c **** *     notice, this list of conditions and the following disclaimer.
  19:../Dave/Generated/CMSIS_DSP/FilteringFunctions/arm_correlate_q15.c **** *   - Redistributions in binary form must reproduce the above copyright
  20:../Dave/Generated/CMSIS_DSP/FilteringFunctions/arm_correlate_q15.c **** *     notice, this list of conditions and the following disclaimer in
  21:../Dave/Generated/CMSIS_DSP/FilteringFunctions/arm_correlate_q15.c **** *     the documentation and/or other materials provided with the 
  22:../Dave/Generated/CMSIS_DSP/FilteringFunctions/arm_correlate_q15.c **** *     distribution.
  23:../Dave/Generated/CMSIS_DSP/FilteringFunctions/arm_correlate_q15.c **** *   - Neither the name of ARM LIMITED nor the names of its contributors
  24:../Dave/Generated/CMSIS_DSP/FilteringFunctions/arm_correlate_q15.c **** *     may be used to endorse or promote products derived from this
  25:../Dave/Generated/CMSIS_DSP/FilteringFunctions/arm_correlate_q15.c **** *     software without specific prior written permission.
  26:../Dave/Generated/CMSIS_DSP/FilteringFunctions/arm_correlate_q15.c **** *
  27:../Dave/Generated/CMSIS_DSP/FilteringFunctions/arm_correlate_q15.c **** * THIS SOFTWARE IS PROVIDED BY THE COPYRIGHT HOLDERS AND CONTRIBUTORS
  28:../Dave/Generated/CMSIS_DSP/FilteringFunctions/arm_correlate_q15.c **** * "AS IS" AND ANY EXPRESS OR IMPLIED WARRANTIES, INCLUDING, BUT NOT
  29:../Dave/Generated/CMSIS_DSP/FilteringFunctions/arm_correlate_q15.c **** * LIMITED TO, THE IMPLIED WARRANTIES OF MERCHANTABILITY AND FITNESS
  30:../Dave/Generated/CMSIS_DSP/FilteringFunctions/arm_correlate_q15.c **** * FOR A PARTICULAR PURPOSE ARE DISCLAIMED. IN NO EVENT SHALL THE 
  31:../Dave/Generated/CMSIS_DSP/FilteringFunctions/arm_correlate_q15.c **** * COPYRIGHT OWNER OR CONTRIBUTORS BE LIABLE FOR ANY DIRECT, INDIRECT,
  32:../Dave/Generated/CMSIS_DSP/FilteringFunctions/arm_correlate_q15.c **** * INCIDENTAL, SPECIAL, EXEMPLARY, OR CONSEQUENTIAL DAMAGES (INCLUDING,
  33:../Dave/Generated/CMSIS_DSP/FilteringFunctions/arm_correlate_q15.c **** * BUT NOT LIMITED TO, PROCUREMENT OF SUBSTITUTE GOODS OR SERVICES;
  34:../Dave/Generated/CMSIS_DSP/FilteringFunctions/arm_correlate_q15.c **** * LOSS OF USE, DATA, OR PROFITS; OR BUSINESS INTERRUPTION) HOWEVER
  35:../Dave/Generated/CMSIS_DSP/FilteringFunctions/arm_correlate_q15.c **** * CAUSED AND ON ANY THEORY OF LIABILITY, WHETHER IN CONTRACT, STRICT
  36:../Dave/Generated/CMSIS_DSP/FilteringFunctions/arm_correlate_q15.c **** * LIABILITY, OR TORT (INCLUDING NEGLIGENCE OR OTHERWISE) ARISING IN
  37:../Dave/Generated/CMSIS_DSP/FilteringFunctions/arm_correlate_q15.c **** * ANY WAY OUT OF THE USE OF THIS SOFTWARE, EVEN IF ADVISED OF THE
  38:../Dave/Generated/CMSIS_DSP/FilteringFunctions/arm_correlate_q15.c **** * POSSIBILITY OF SUCH DAMAGE.  
  39:../Dave/Generated/CMSIS_DSP/FilteringFunctions/arm_correlate_q15.c **** * -------------------------------------------------------------------- */
  40:../Dave/Generated/CMSIS_DSP/FilteringFunctions/arm_correlate_q15.c **** 
  41:../Dave/Generated/CMSIS_DSP/FilteringFunctions/arm_correlate_q15.c **** #include "CMSIS_DSP/cmsis_dsp.h"
  42:../Dave/Generated/CMSIS_DSP/FilteringFunctions/arm_correlate_q15.c **** 
  43:../Dave/Generated/CMSIS_DSP/FilteringFunctions/arm_correlate_q15.c **** /**   
  44:../Dave/Generated/CMSIS_DSP/FilteringFunctions/arm_correlate_q15.c ****  * @ingroup groupFilters   
  45:../Dave/Generated/CMSIS_DSP/FilteringFunctions/arm_correlate_q15.c ****  */
  46:../Dave/Generated/CMSIS_DSP/FilteringFunctions/arm_correlate_q15.c **** 
  47:../Dave/Generated/CMSIS_DSP/FilteringFunctions/arm_correlate_q15.c **** /**   
  48:../Dave/Generated/CMSIS_DSP/FilteringFunctions/arm_correlate_q15.c ****  * @addtogroup Corr   
  49:../Dave/Generated/CMSIS_DSP/FilteringFunctions/arm_correlate_q15.c ****  * @{   
  50:../Dave/Generated/CMSIS_DSP/FilteringFunctions/arm_correlate_q15.c ****  */
  51:../Dave/Generated/CMSIS_DSP/FilteringFunctions/arm_correlate_q15.c **** 
  52:../Dave/Generated/CMSIS_DSP/FilteringFunctions/arm_correlate_q15.c **** /**   
  53:../Dave/Generated/CMSIS_DSP/FilteringFunctions/arm_correlate_q15.c ****  * @brief Correlation of Q15 sequences. 
  54:../Dave/Generated/CMSIS_DSP/FilteringFunctions/arm_correlate_q15.c ****  * @param[in] *pSrcA points to the first input sequence.   
  55:../Dave/Generated/CMSIS_DSP/FilteringFunctions/arm_correlate_q15.c ****  * @param[in] srcALen length of the first input sequence.   
  56:../Dave/Generated/CMSIS_DSP/FilteringFunctions/arm_correlate_q15.c ****  * @param[in] *pSrcB points to the second input sequence.   
  57:../Dave/Generated/CMSIS_DSP/FilteringFunctions/arm_correlate_q15.c ****  * @param[in] srcBLen length of the second input sequence.   
  58:../Dave/Generated/CMSIS_DSP/FilteringFunctions/arm_correlate_q15.c ****  * @param[out] *pDst points to the location where the output result is written.  Length 2 * max(src
  59:../Dave/Generated/CMSIS_DSP/FilteringFunctions/arm_correlate_q15.c ****  * @return none.   
  60:../Dave/Generated/CMSIS_DSP/FilteringFunctions/arm_correlate_q15.c ****  *   
  61:../Dave/Generated/CMSIS_DSP/FilteringFunctions/arm_correlate_q15.c ****  * @details   
  62:../Dave/Generated/CMSIS_DSP/FilteringFunctions/arm_correlate_q15.c ****  * <b>Scaling and Overflow Behavior:</b>   
  63:../Dave/Generated/CMSIS_DSP/FilteringFunctions/arm_correlate_q15.c ****  *   
  64:../Dave/Generated/CMSIS_DSP/FilteringFunctions/arm_correlate_q15.c ****  * \par   
  65:../Dave/Generated/CMSIS_DSP/FilteringFunctions/arm_correlate_q15.c ****  * The function is implemented using a 64-bit internal accumulator.   
  66:../Dave/Generated/CMSIS_DSP/FilteringFunctions/arm_correlate_q15.c ****  * Both inputs are in 1.15 format and multiplications yield a 2.30 result.   
  67:../Dave/Generated/CMSIS_DSP/FilteringFunctions/arm_correlate_q15.c ****  * The 2.30 intermediate results are accumulated in a 64-bit accumulator in 34.30 format.   
  68:../Dave/Generated/CMSIS_DSP/FilteringFunctions/arm_correlate_q15.c ****  * This approach provides 33 guard bits and there is no risk of overflow.   
  69:../Dave/Generated/CMSIS_DSP/FilteringFunctions/arm_correlate_q15.c ****  * The 34.30 result is then truncated to 34.15 format by discarding the low 15 bits and then satura
  70:../Dave/Generated/CMSIS_DSP/FilteringFunctions/arm_correlate_q15.c ****  *   
  71:../Dave/Generated/CMSIS_DSP/FilteringFunctions/arm_correlate_q15.c ****  * \par   
  72:../Dave/Generated/CMSIS_DSP/FilteringFunctions/arm_correlate_q15.c ****  * Refer to <code>arm_correlate_fast_q15()</code> for a faster but less precise version of this fun
  73:../Dave/Generated/CMSIS_DSP/FilteringFunctions/arm_correlate_q15.c ****  *
  74:../Dave/Generated/CMSIS_DSP/FilteringFunctions/arm_correlate_q15.c ****  * \par    
  75:../Dave/Generated/CMSIS_DSP/FilteringFunctions/arm_correlate_q15.c ****  * Refer the function <code>arm_correlate_opt_q15()</code> for a faster implementation of this func
  76:../Dave/Generated/CMSIS_DSP/FilteringFunctions/arm_correlate_q15.c ****  * 
  77:../Dave/Generated/CMSIS_DSP/FilteringFunctions/arm_correlate_q15.c ****  */
  78:../Dave/Generated/CMSIS_DSP/FilteringFunctions/arm_correlate_q15.c **** 
  79:../Dave/Generated/CMSIS_DSP/FilteringFunctions/arm_correlate_q15.c **** void arm_correlate_q15(
  80:../Dave/Generated/CMSIS_DSP/FilteringFunctions/arm_correlate_q15.c ****   q15_t * pSrcA,
  81:../Dave/Generated/CMSIS_DSP/FilteringFunctions/arm_correlate_q15.c ****   uint32_t srcALen,
  82:../Dave/Generated/CMSIS_DSP/FilteringFunctions/arm_correlate_q15.c ****   q15_t * pSrcB,
  83:../Dave/Generated/CMSIS_DSP/FilteringFunctions/arm_correlate_q15.c ****   uint32_t srcBLen,
  84:../Dave/Generated/CMSIS_DSP/FilteringFunctions/arm_correlate_q15.c ****   q15_t * pDst)
  85:../Dave/Generated/CMSIS_DSP/FilteringFunctions/arm_correlate_q15.c **** {
  27              	 .loc 1 85 0
  28              	 .cfi_startproc
  29              	 
  30              	 
  31              	 
  32 0000 2DE9B00F 	 push {r4,r5,r7,r8,r9,r10,fp}
  33              	.LCFI0:
  34              	 .cfi_def_cfa_offset 28
  35              	 .cfi_offset 4,-28
  36              	 .cfi_offset 5,-24
  37              	 .cfi_offset 7,-20
  38              	 .cfi_offset 8,-16
  39              	 .cfi_offset 9,-12
  40              	 .cfi_offset 10,-8
  41              	 .cfi_offset 11,-4
  42 0004 ADF5757D 	 sub sp,sp,#980
  43              	.LCFI1:
  44              	 .cfi_def_cfa_offset 1008
  45 0008 00AF     	 add r7,sp,#0
  46              	.LCFI2:
  47              	 .cfi_def_cfa_register 7
  48 000a 07F13C04 	 add r4,r7,#60
  49 000e 2060     	 str r0,[r4]
  50 0010 07F13800 	 add r0,r7,#56
  51 0014 0160     	 str r1,[r0]
  52 0016 07F13401 	 add r1,r7,#52
  53 001a 0A60     	 str r2,[r1]
  54 001c 07F13002 	 add r2,r7,#48
  55 0020 1360     	 str r3,[r2]
  86:../Dave/Generated/CMSIS_DSP/FilteringFunctions/arm_correlate_q15.c **** 
  87:../Dave/Generated/CMSIS_DSP/FilteringFunctions/arm_correlate_q15.c **** #if (defined(ARM_MATH_CM4) || defined(ARM_MATH_CM3)) && !defined(UNALIGNED_SUPPORT_DISABLE)
  88:../Dave/Generated/CMSIS_DSP/FilteringFunctions/arm_correlate_q15.c **** 
  89:../Dave/Generated/CMSIS_DSP/FilteringFunctions/arm_correlate_q15.c ****   /* Run the below code for Cortex-M4 and Cortex-M3 */
  90:../Dave/Generated/CMSIS_DSP/FilteringFunctions/arm_correlate_q15.c **** 
  91:../Dave/Generated/CMSIS_DSP/FilteringFunctions/arm_correlate_q15.c ****   q15_t *pIn1;                                   /* inputA pointer               */
  92:../Dave/Generated/CMSIS_DSP/FilteringFunctions/arm_correlate_q15.c ****   q15_t *pIn2;                                   /* inputB pointer               */
  93:../Dave/Generated/CMSIS_DSP/FilteringFunctions/arm_correlate_q15.c ****   q15_t *pOut = pDst;                            /* output pointer               */
  56              	 .loc 1 93 0
  57 0022 D7F8F033 	 ldr r3,[r7,#1008]
  58 0026 C7F8C433 	 str r3,[r7,#964]
  94:../Dave/Generated/CMSIS_DSP/FilteringFunctions/arm_correlate_q15.c ****   q63_t sum, acc0, acc1, acc2, acc3;             /* Accumulators                  */
  95:../Dave/Generated/CMSIS_DSP/FilteringFunctions/arm_correlate_q15.c ****   q15_t *px;                                     /* Intermediate inputA pointer  */
  96:../Dave/Generated/CMSIS_DSP/FilteringFunctions/arm_correlate_q15.c ****   q15_t *py;                                     /* Intermediate inputB pointer  */
  97:../Dave/Generated/CMSIS_DSP/FilteringFunctions/arm_correlate_q15.c ****   q15_t *pSrc1;                                  /* Intermediate pointers        */
  98:../Dave/Generated/CMSIS_DSP/FilteringFunctions/arm_correlate_q15.c ****   q31_t x0, x1, x2, x3, c0;                      /* temporary variables for holding input and coeff
  99:../Dave/Generated/CMSIS_DSP/FilteringFunctions/arm_correlate_q15.c ****   uint32_t j, k = 0u, count, blkCnt, outBlockSize, blockSize1, blockSize2, blockSize3;  /* loop cou
  59              	 .loc 1 99 0
  60 002a 0023     	 movs r3,#0
  61 002c C7F88833 	 str r3,[r7,#904]
 100:../Dave/Generated/CMSIS_DSP/FilteringFunctions/arm_correlate_q15.c ****   int32_t inc = 1;                               /* Destination address modifier */
  62              	 .loc 1 100 0
  63 0030 0123     	 movs r3,#1
  64 0032 C7F87433 	 str r3,[r7,#884]
 101:../Dave/Generated/CMSIS_DSP/FilteringFunctions/arm_correlate_q15.c **** 
 102:../Dave/Generated/CMSIS_DSP/FilteringFunctions/arm_correlate_q15.c **** 
 103:../Dave/Generated/CMSIS_DSP/FilteringFunctions/arm_correlate_q15.c ****   /* The algorithm implementation is based on the lengths of the inputs. */
 104:../Dave/Generated/CMSIS_DSP/FilteringFunctions/arm_correlate_q15.c ****   /* srcB is always made to slide across srcA. */
 105:../Dave/Generated/CMSIS_DSP/FilteringFunctions/arm_correlate_q15.c ****   /* So srcBLen is always considered as shorter or equal to srcALen */
 106:../Dave/Generated/CMSIS_DSP/FilteringFunctions/arm_correlate_q15.c ****   /* But CORR(x, y) is reverse of CORR(y, x) */
 107:../Dave/Generated/CMSIS_DSP/FilteringFunctions/arm_correlate_q15.c ****   /* So, when srcBLen > srcALen, output pointer is made to point to the end of the output buffer */
 108:../Dave/Generated/CMSIS_DSP/FilteringFunctions/arm_correlate_q15.c ****   /* and the destination pointer modifier, inc is set to -1 */
 109:../Dave/Generated/CMSIS_DSP/FilteringFunctions/arm_correlate_q15.c ****   /* If srcALen > srcBLen, zero pad has to be done to srcB to make the two inputs of same length */
 110:../Dave/Generated/CMSIS_DSP/FilteringFunctions/arm_correlate_q15.c ****   /* But to improve the performance,   
 111:../Dave/Generated/CMSIS_DSP/FilteringFunctions/arm_correlate_q15.c ****    * we include zeroes in the output instead of zero padding either of the the inputs*/
 112:../Dave/Generated/CMSIS_DSP/FilteringFunctions/arm_correlate_q15.c ****   /* If srcALen > srcBLen,   
 113:../Dave/Generated/CMSIS_DSP/FilteringFunctions/arm_correlate_q15.c ****    * (srcALen - srcBLen) zeroes has to included in the starting of the output buffer */
 114:../Dave/Generated/CMSIS_DSP/FilteringFunctions/arm_correlate_q15.c ****   /* If srcALen < srcBLen,   
 115:../Dave/Generated/CMSIS_DSP/FilteringFunctions/arm_correlate_q15.c ****    * (srcALen - srcBLen) zeroes has to included in the ending of the output buffer */
 116:../Dave/Generated/CMSIS_DSP/FilteringFunctions/arm_correlate_q15.c ****   if(srcALen >= srcBLen)
  65              	 .loc 1 116 0
  66 0036 07F13802 	 add r2,r7,#56
  67 003a 07F13003 	 add r3,r7,#48
  68 003e 1268     	 ldr r2,[r2]
  69 0040 1B68     	 ldr r3,[r3]
  70 0042 9A42     	 cmp r2,r3
  71 0044 26D3     	 bcc .L2
 117:../Dave/Generated/CMSIS_DSP/FilteringFunctions/arm_correlate_q15.c ****   {
 118:../Dave/Generated/CMSIS_DSP/FilteringFunctions/arm_correlate_q15.c ****     /* Initialization of inputA pointer */
 119:../Dave/Generated/CMSIS_DSP/FilteringFunctions/arm_correlate_q15.c ****     pIn1 = (pSrcA);
  72              	 .loc 1 119 0
  73 0046 07F13C03 	 add r3,r7,#60
  74 004a 1B68     	 ldr r3,[r3]
  75 004c C7F8CC33 	 str r3,[r7,#972]
 120:../Dave/Generated/CMSIS_DSP/FilteringFunctions/arm_correlate_q15.c **** 
 121:../Dave/Generated/CMSIS_DSP/FilteringFunctions/arm_correlate_q15.c ****     /* Initialization of inputB pointer */
 122:../Dave/Generated/CMSIS_DSP/FilteringFunctions/arm_correlate_q15.c ****     pIn2 = (pSrcB);
  76              	 .loc 1 122 0
  77 0050 07F13403 	 add r3,r7,#52
  78 0054 1B68     	 ldr r3,[r3]
  79 0056 C7F8C833 	 str r3,[r7,#968]
 123:../Dave/Generated/CMSIS_DSP/FilteringFunctions/arm_correlate_q15.c **** 
 124:../Dave/Generated/CMSIS_DSP/FilteringFunctions/arm_correlate_q15.c ****     /* Number of output samples is calculated */
 125:../Dave/Generated/CMSIS_DSP/FilteringFunctions/arm_correlate_q15.c ****     outBlockSize = (2u * srcALen) - 1u;
  80              	 .loc 1 125 0
  81 005a 07F13803 	 add r3,r7,#56
  82 005e 1B68     	 ldr r3,[r3]
  83 0060 5B00     	 lsls r3,r3,#1
  84 0062 013B     	 subs r3,r3,#1
  85 0064 C7F87033 	 str r3,[r7,#880]
 126:../Dave/Generated/CMSIS_DSP/FilteringFunctions/arm_correlate_q15.c **** 
 127:../Dave/Generated/CMSIS_DSP/FilteringFunctions/arm_correlate_q15.c ****     /* When srcALen > srcBLen, zero padding is done to srcB   
 128:../Dave/Generated/CMSIS_DSP/FilteringFunctions/arm_correlate_q15.c ****      * to make their lengths equal.   
 129:../Dave/Generated/CMSIS_DSP/FilteringFunctions/arm_correlate_q15.c ****      * Instead, (outBlockSize - (srcALen + srcBLen - 1))   
 130:../Dave/Generated/CMSIS_DSP/FilteringFunctions/arm_correlate_q15.c ****      * number of output samples are made zero */
 131:../Dave/Generated/CMSIS_DSP/FilteringFunctions/arm_correlate_q15.c ****     j = outBlockSize - (srcALen + (srcBLen - 1u));
  86              	 .loc 1 131 0
  87 0068 07F13002 	 add r2,r7,#48
  88 006c 07F13803 	 add r3,r7,#56
  89 0070 1268     	 ldr r2,[r2]
  90 0072 1B68     	 ldr r3,[r3]
  91 0074 1A44     	 add r2,r2,r3
  92 0076 D7F87033 	 ldr r3,[r7,#880]
  93 007a 9B1A     	 subs r3,r3,r2
  94 007c 0133     	 adds r3,r3,#1
  95 007e C7F86C33 	 str r3,[r7,#876]
 132:../Dave/Generated/CMSIS_DSP/FilteringFunctions/arm_correlate_q15.c **** 
 133:../Dave/Generated/CMSIS_DSP/FilteringFunctions/arm_correlate_q15.c ****     /* Updating the pointer position to non zero value */
 134:../Dave/Generated/CMSIS_DSP/FilteringFunctions/arm_correlate_q15.c ****     pOut += j;
  96              	 .loc 1 134 0
  97 0082 D7F86C33 	 ldr r3,[r7,#876]
  98 0086 5A00     	 lsls r2,r3,#1
  99 0088 D7F8C433 	 ldr r3,[r7,#964]
 100 008c 1344     	 add r3,r3,r2
 101 008e C7F8C433 	 str r3,[r7,#964]
 102 0092 2DE0     	 b .L3
 103              	.L2:
 135:../Dave/Generated/CMSIS_DSP/FilteringFunctions/arm_correlate_q15.c **** 
 136:../Dave/Generated/CMSIS_DSP/FilteringFunctions/arm_correlate_q15.c ****   }
 137:../Dave/Generated/CMSIS_DSP/FilteringFunctions/arm_correlate_q15.c ****   else
 138:../Dave/Generated/CMSIS_DSP/FilteringFunctions/arm_correlate_q15.c ****   {
 139:../Dave/Generated/CMSIS_DSP/FilteringFunctions/arm_correlate_q15.c ****     /* Initialization of inputA pointer */
 140:../Dave/Generated/CMSIS_DSP/FilteringFunctions/arm_correlate_q15.c ****     pIn1 = (pSrcB);
 104              	 .loc 1 140 0
 105 0094 07F13403 	 add r3,r7,#52
 106 0098 1B68     	 ldr r3,[r3]
 107 009a C7F8CC33 	 str r3,[r7,#972]
 141:../Dave/Generated/CMSIS_DSP/FilteringFunctions/arm_correlate_q15.c **** 
 142:../Dave/Generated/CMSIS_DSP/FilteringFunctions/arm_correlate_q15.c ****     /* Initialization of inputB pointer */
 143:../Dave/Generated/CMSIS_DSP/FilteringFunctions/arm_correlate_q15.c ****     pIn2 = (pSrcA);
 108              	 .loc 1 143 0
 109 009e 07F13C03 	 add r3,r7,#60
 110 00a2 1B68     	 ldr r3,[r3]
 111 00a4 C7F8C833 	 str r3,[r7,#968]
 144:../Dave/Generated/CMSIS_DSP/FilteringFunctions/arm_correlate_q15.c **** 
 145:../Dave/Generated/CMSIS_DSP/FilteringFunctions/arm_correlate_q15.c ****     /* srcBLen is always considered as shorter or equal to srcALen */
 146:../Dave/Generated/CMSIS_DSP/FilteringFunctions/arm_correlate_q15.c ****     j = srcBLen;
 112              	 .loc 1 146 0
 113 00a8 07F13003 	 add r3,r7,#48
 114 00ac 1B68     	 ldr r3,[r3]
 115 00ae C7F86C33 	 str r3,[r7,#876]
 147:../Dave/Generated/CMSIS_DSP/FilteringFunctions/arm_correlate_q15.c ****     srcBLen = srcALen;
 116              	 .loc 1 147 0
 117 00b2 07F13002 	 add r2,r7,#48
 118 00b6 07F13803 	 add r3,r7,#56
 119 00ba 1B68     	 ldr r3,[r3]
 120 00bc 1360     	 str r3,[r2]
 148:../Dave/Generated/CMSIS_DSP/FilteringFunctions/arm_correlate_q15.c ****     srcALen = j;
 121              	 .loc 1 148 0
 122 00be 07F13802 	 add r2,r7,#56
 123 00c2 D7F86C33 	 ldr r3,[r7,#876]
 124 00c6 1360     	 str r3,[r2]
 149:../Dave/Generated/CMSIS_DSP/FilteringFunctions/arm_correlate_q15.c **** 
 150:../Dave/Generated/CMSIS_DSP/FilteringFunctions/arm_correlate_q15.c ****     /* CORR(x, y) = Reverse order(CORR(y, x)) */
 151:../Dave/Generated/CMSIS_DSP/FilteringFunctions/arm_correlate_q15.c ****     /* Hence set the destination pointer to point to the last output sample */
 152:../Dave/Generated/CMSIS_DSP/FilteringFunctions/arm_correlate_q15.c ****     pOut = pDst + ((srcALen + srcBLen) - 2u);
 125              	 .loc 1 152 0
 126 00c8 07F13802 	 add r2,r7,#56
 127 00cc 07F13003 	 add r3,r7,#48
 128 00d0 1268     	 ldr r2,[r2]
 129 00d2 1B68     	 ldr r3,[r3]
 130 00d4 1344     	 add r3,r3,r2
 131 00d6 03F10043 	 add r3,r3,#-2147483648
 132 00da 023B     	 subs r3,r3,#2
 133 00dc 5A00     	 lsls r2,r3,#1
 134 00de D7F8F033 	 ldr r3,[r7,#1008]
 135 00e2 1344     	 add r3,r3,r2
 136 00e4 C7F8C433 	 str r3,[r7,#964]
 153:../Dave/Generated/CMSIS_DSP/FilteringFunctions/arm_correlate_q15.c **** 
 154:../Dave/Generated/CMSIS_DSP/FilteringFunctions/arm_correlate_q15.c ****     /* Destination address modifier is set to -1 */
 155:../Dave/Generated/CMSIS_DSP/FilteringFunctions/arm_correlate_q15.c ****     inc = -1;
 137              	 .loc 1 155 0
 138 00e8 4FF0FF33 	 mov r3,#-1
 139 00ec C7F87433 	 str r3,[r7,#884]
 140              	.L3:
 156:../Dave/Generated/CMSIS_DSP/FilteringFunctions/arm_correlate_q15.c **** 
 157:../Dave/Generated/CMSIS_DSP/FilteringFunctions/arm_correlate_q15.c ****   }
 158:../Dave/Generated/CMSIS_DSP/FilteringFunctions/arm_correlate_q15.c **** 
 159:../Dave/Generated/CMSIS_DSP/FilteringFunctions/arm_correlate_q15.c ****   /* The function is internally   
 160:../Dave/Generated/CMSIS_DSP/FilteringFunctions/arm_correlate_q15.c ****    * divided into three parts according to the number of multiplications that has to be   
 161:../Dave/Generated/CMSIS_DSP/FilteringFunctions/arm_correlate_q15.c ****    * taken place between inputA samples and inputB samples. In the first part of the   
 162:../Dave/Generated/CMSIS_DSP/FilteringFunctions/arm_correlate_q15.c ****    * algorithm, the multiplications increase by one for every iteration.   
 163:../Dave/Generated/CMSIS_DSP/FilteringFunctions/arm_correlate_q15.c ****    * In the second part of the algorithm, srcBLen number of multiplications are done.   
 164:../Dave/Generated/CMSIS_DSP/FilteringFunctions/arm_correlate_q15.c ****    * In the third part of the algorithm, the multiplications decrease by one   
 165:../Dave/Generated/CMSIS_DSP/FilteringFunctions/arm_correlate_q15.c ****    * for every iteration.*/
 166:../Dave/Generated/CMSIS_DSP/FilteringFunctions/arm_correlate_q15.c ****   /* The algorithm is implemented in three stages.   
 167:../Dave/Generated/CMSIS_DSP/FilteringFunctions/arm_correlate_q15.c ****    * The loop counters of each stage is initiated here. */
 168:../Dave/Generated/CMSIS_DSP/FilteringFunctions/arm_correlate_q15.c ****   blockSize1 = srcBLen - 1u;
 141              	 .loc 1 168 0
 142 00f0 07F13003 	 add r3,r7,#48
 143 00f4 1B68     	 ldr r3,[r3]
 144 00f6 013B     	 subs r3,r3,#1
 145 00f8 C7F87C33 	 str r3,[r7,#892]
 169:../Dave/Generated/CMSIS_DSP/FilteringFunctions/arm_correlate_q15.c ****   blockSize2 = srcALen - (srcBLen - 1u);
 146              	 .loc 1 169 0
 147 00fc 07F13802 	 add r2,r7,#56
 148 0100 07F13003 	 add r3,r7,#48
 149 0104 1268     	 ldr r2,[r2]
 150 0106 1B68     	 ldr r3,[r3]
 151 0108 D31A     	 subs r3,r2,r3
 152 010a 0133     	 adds r3,r3,#1
 153 010c C7F86833 	 str r3,[r7,#872]
 170:../Dave/Generated/CMSIS_DSP/FilteringFunctions/arm_correlate_q15.c ****   blockSize3 = blockSize1;
 154              	 .loc 1 170 0
 155 0110 D7F87C33 	 ldr r3,[r7,#892]
 156 0114 C7F87833 	 str r3,[r7,#888]
 171:../Dave/Generated/CMSIS_DSP/FilteringFunctions/arm_correlate_q15.c **** 
 172:../Dave/Generated/CMSIS_DSP/FilteringFunctions/arm_correlate_q15.c ****   /* --------------------------   
 173:../Dave/Generated/CMSIS_DSP/FilteringFunctions/arm_correlate_q15.c ****    * Initializations of stage1   
 174:../Dave/Generated/CMSIS_DSP/FilteringFunctions/arm_correlate_q15.c ****    * -------------------------*/
 175:../Dave/Generated/CMSIS_DSP/FilteringFunctions/arm_correlate_q15.c **** 
 176:../Dave/Generated/CMSIS_DSP/FilteringFunctions/arm_correlate_q15.c ****   /* sum = x[0] * y[srcBlen - 1]   
 177:../Dave/Generated/CMSIS_DSP/FilteringFunctions/arm_correlate_q15.c ****    * sum = x[0] * y[srcBlen - 2] + x[1] * y[srcBlen - 1]   
 178:../Dave/Generated/CMSIS_DSP/FilteringFunctions/arm_correlate_q15.c ****    * ....   
 179:../Dave/Generated/CMSIS_DSP/FilteringFunctions/arm_correlate_q15.c ****    * sum = x[0] * y[0] + x[1] * y[1] +...+ x[srcBLen - 1] * y[srcBLen - 1]   
 180:../Dave/Generated/CMSIS_DSP/FilteringFunctions/arm_correlate_q15.c ****    */
 181:../Dave/Generated/CMSIS_DSP/FilteringFunctions/arm_correlate_q15.c **** 
 182:../Dave/Generated/CMSIS_DSP/FilteringFunctions/arm_correlate_q15.c ****   /* In this stage the MAC operations are increased by 1 for every iteration.   
 183:../Dave/Generated/CMSIS_DSP/FilteringFunctions/arm_correlate_q15.c ****      The count variable holds the number of MAC operations performed */
 184:../Dave/Generated/CMSIS_DSP/FilteringFunctions/arm_correlate_q15.c ****   count = 1u;
 157              	 .loc 1 184 0
 158 0118 0123     	 movs r3,#1
 159 011a C7F88433 	 str r3,[r7,#900]
 185:../Dave/Generated/CMSIS_DSP/FilteringFunctions/arm_correlate_q15.c **** 
 186:../Dave/Generated/CMSIS_DSP/FilteringFunctions/arm_correlate_q15.c ****   /* Working pointer of inputA */
 187:../Dave/Generated/CMSIS_DSP/FilteringFunctions/arm_correlate_q15.c ****   px = pIn1;
 160              	 .loc 1 187 0
 161 011e 07F59A72 	 add r2,r7,#308
 162 0122 D7F8CC33 	 ldr r3,[r7,#972]
 163 0126 1360     	 str r3,[r2]
 188:../Dave/Generated/CMSIS_DSP/FilteringFunctions/arm_correlate_q15.c **** 
 189:../Dave/Generated/CMSIS_DSP/FilteringFunctions/arm_correlate_q15.c ****   /* Working pointer of inputB */
 190:../Dave/Generated/CMSIS_DSP/FilteringFunctions/arm_correlate_q15.c ****   pSrc1 = pIn2 + (srcBLen - 1u);
 164              	 .loc 1 190 0
 165 0128 07F13003 	 add r3,r7,#48
 166 012c 1B68     	 ldr r3,[r3]
 167 012e 03F10043 	 add r3,r3,#-2147483648
 168 0132 013B     	 subs r3,r3,#1
 169 0134 5A00     	 lsls r2,r3,#1
 170 0136 D7F8C833 	 ldr r3,[r7,#968]
 171 013a 1344     	 add r3,r3,r2
 172 013c C7F89433 	 str r3,[r7,#916]
 191:../Dave/Generated/CMSIS_DSP/FilteringFunctions/arm_correlate_q15.c ****   py = pSrc1;
 173              	 .loc 1 191 0
 174 0140 07F59872 	 add r2,r7,#304
 175 0144 D7F89433 	 ldr r3,[r7,#916]
 176 0148 1360     	 str r3,[r2]
 192:../Dave/Generated/CMSIS_DSP/FilteringFunctions/arm_correlate_q15.c **** 
 193:../Dave/Generated/CMSIS_DSP/FilteringFunctions/arm_correlate_q15.c ****   /* ------------------------   
 194:../Dave/Generated/CMSIS_DSP/FilteringFunctions/arm_correlate_q15.c ****    * Stage1 process   
 195:../Dave/Generated/CMSIS_DSP/FilteringFunctions/arm_correlate_q15.c ****    * ----------------------*/
 196:../Dave/Generated/CMSIS_DSP/FilteringFunctions/arm_correlate_q15.c **** 
 197:../Dave/Generated/CMSIS_DSP/FilteringFunctions/arm_correlate_q15.c ****   /* The first loop starts here */
 198:../Dave/Generated/CMSIS_DSP/FilteringFunctions/arm_correlate_q15.c ****   while(blockSize1 > 0u)
 177              	 .loc 1 198 0
 178 014a 19E1     	 b .L4
 179              	.L12:
 199:../Dave/Generated/CMSIS_DSP/FilteringFunctions/arm_correlate_q15.c ****   {
 200:../Dave/Generated/CMSIS_DSP/FilteringFunctions/arm_correlate_q15.c ****     /* Accumulator is made zero for every iteration */
 201:../Dave/Generated/CMSIS_DSP/FilteringFunctions/arm_correlate_q15.c ****     sum = 0;
 180              	 .loc 1 201 0
 181 014c 4FF00002 	 mov r2,#0
 182 0150 4FF00003 	 mov r3,#0
 183 0154 07F56E71 	 add r1,r7,#952
 184 0158 C1E90023 	 strd r2,[r1]
 202:../Dave/Generated/CMSIS_DSP/FilteringFunctions/arm_correlate_q15.c **** 
 203:../Dave/Generated/CMSIS_DSP/FilteringFunctions/arm_correlate_q15.c ****     /* Apply loop unrolling and compute 4 MACs simultaneously. */
 204:../Dave/Generated/CMSIS_DSP/FilteringFunctions/arm_correlate_q15.c ****     k = count >> 2;
 185              	 .loc 1 204 0
 186 015c D7F88433 	 ldr r3,[r7,#900]
 187 0160 9B08     	 lsrs r3,r3,#2
 188 0162 C7F88833 	 str r3,[r7,#904]
 205:../Dave/Generated/CMSIS_DSP/FilteringFunctions/arm_correlate_q15.c **** 
 206:../Dave/Generated/CMSIS_DSP/FilteringFunctions/arm_correlate_q15.c ****     /* First part of the processing with loop unrolling.  Compute 4 MACs at a time.   
 207:../Dave/Generated/CMSIS_DSP/FilteringFunctions/arm_correlate_q15.c ****      ** a second loop below computes MACs for the remaining 1 to 3 samples. */
 208:../Dave/Generated/CMSIS_DSP/FilteringFunctions/arm_correlate_q15.c ****     while(k > 0u)
 189              	 .loc 1 208 0
 190 0166 7CE0     	 b .L5
 191              	.L8:
 209:../Dave/Generated/CMSIS_DSP/FilteringFunctions/arm_correlate_q15.c ****     {
 210:../Dave/Generated/CMSIS_DSP/FilteringFunctions/arm_correlate_q15.c ****       /* x[0] * y[srcBLen - 4] , x[1] * y[srcBLen - 3] */
 211:../Dave/Generated/CMSIS_DSP/FilteringFunctions/arm_correlate_q15.c ****       sum = __SMLALD(*__SIMD32(px)++, *__SIMD32(py)++, sum);
 192              	 .loc 1 211 0
 193 0168 07F59A71 	 add r1,r7,#308
 194 016c 0A68     	 ldr r2,[r1]
 195 016e 131D     	 adds r3,r2,#4
 196 0170 0B60     	 str r3,[r1]
 197 0172 1368     	 ldr r3,[r2]
 198 0174 1846     	 mov r0,r3
 199 0176 07F59871 	 add r1,r7,#304
 200 017a 0A68     	 ldr r2,[r1]
 201 017c 131D     	 adds r3,r2,#4
 202 017e 0B60     	 str r3,[r1]
 203 0180 1368     	 ldr r3,[r2]
 204 0182 1946     	 mov r1,r3
 205 0184 07F56E73 	 add r3,r7,#952
 206 0188 D3E90023 	 ldrd r2,[r3]
 207 018c C7F81803 	 str r0,[r7,#792]
 208 0190 C7F81413 	 str r1,[r7,#788]
 209 0194 07F54271 	 add r1,r7,#776
 210 0198 C1E90023 	 strd r2,[r1]
 211              	.LBB70:
 212              	.LBB71:
 213              	 .file 2 "C:\\Users\\Depes Crystalline\\Desktop\\school\\Active_Bike_Lighting_System\\Radar_Core/Libraries/CMSIS/Include/core_cmSimd.h"
   1:C:\Users\Depes Crystalline\Desktop\school\Active_Bike_Lighting_System\Radar_Core/Libraries/CMSIS/Include\core_cmSimd.h **** /**************************************************************************//**
   2:C:\Users\Depes Crystalline\Desktop\school\Active_Bike_Lighting_System\Radar_Core/Libraries/CMSIS/Include\core_cmSimd.h ****  * @file     core_cmSimd.h
   3:C:\Users\Depes Crystalline\Desktop\school\Active_Bike_Lighting_System\Radar_Core/Libraries/CMSIS/Include\core_cmSimd.h ****  * @brief    CMSIS Cortex-M SIMD Header File
   4:C:\Users\Depes Crystalline\Desktop\school\Active_Bike_Lighting_System\Radar_Core/Libraries/CMSIS/Include\core_cmSimd.h ****  * @version  V4.00
   5:C:\Users\Depes Crystalline\Desktop\school\Active_Bike_Lighting_System\Radar_Core/Libraries/CMSIS/Include\core_cmSimd.h ****  * @date     22. August 2014
   6:C:\Users\Depes Crystalline\Desktop\school\Active_Bike_Lighting_System\Radar_Core/Libraries/CMSIS/Include\core_cmSimd.h ****  *
   7:C:\Users\Depes Crystalline\Desktop\school\Active_Bike_Lighting_System\Radar_Core/Libraries/CMSIS/Include\core_cmSimd.h ****  * @note
   8:C:\Users\Depes Crystalline\Desktop\school\Active_Bike_Lighting_System\Radar_Core/Libraries/CMSIS/Include\core_cmSimd.h ****  *
   9:C:\Users\Depes Crystalline\Desktop\school\Active_Bike_Lighting_System\Radar_Core/Libraries/CMSIS/Include\core_cmSimd.h ****  ******************************************************************************/
  10:C:\Users\Depes Crystalline\Desktop\school\Active_Bike_Lighting_System\Radar_Core/Libraries/CMSIS/Include\core_cmSimd.h **** /* Copyright (c) 2009 - 2014 ARM LIMITED
  11:C:\Users\Depes Crystalline\Desktop\school\Active_Bike_Lighting_System\Radar_Core/Libraries/CMSIS/Include\core_cmSimd.h **** 
  12:C:\Users\Depes Crystalline\Desktop\school\Active_Bike_Lighting_System\Radar_Core/Libraries/CMSIS/Include\core_cmSimd.h ****    All rights reserved.
  13:C:\Users\Depes Crystalline\Desktop\school\Active_Bike_Lighting_System\Radar_Core/Libraries/CMSIS/Include\core_cmSimd.h ****    Redistribution and use in source and binary forms, with or without
  14:C:\Users\Depes Crystalline\Desktop\school\Active_Bike_Lighting_System\Radar_Core/Libraries/CMSIS/Include\core_cmSimd.h ****    modification, are permitted provided that the following conditions are met:
  15:C:\Users\Depes Crystalline\Desktop\school\Active_Bike_Lighting_System\Radar_Core/Libraries/CMSIS/Include\core_cmSimd.h ****    - Redistributions of source code must retain the above copyright
  16:C:\Users\Depes Crystalline\Desktop\school\Active_Bike_Lighting_System\Radar_Core/Libraries/CMSIS/Include\core_cmSimd.h ****      notice, this list of conditions and the following disclaimer.
  17:C:\Users\Depes Crystalline\Desktop\school\Active_Bike_Lighting_System\Radar_Core/Libraries/CMSIS/Include\core_cmSimd.h ****    - Redistributions in binary form must reproduce the above copyright
  18:C:\Users\Depes Crystalline\Desktop\school\Active_Bike_Lighting_System\Radar_Core/Libraries/CMSIS/Include\core_cmSimd.h ****      notice, this list of conditions and the following disclaimer in the
  19:C:\Users\Depes Crystalline\Desktop\school\Active_Bike_Lighting_System\Radar_Core/Libraries/CMSIS/Include\core_cmSimd.h ****      documentation and/or other materials provided with the distribution.
  20:C:\Users\Depes Crystalline\Desktop\school\Active_Bike_Lighting_System\Radar_Core/Libraries/CMSIS/Include\core_cmSimd.h ****    - Neither the name of ARM nor the names of its contributors may be used
  21:C:\Users\Depes Crystalline\Desktop\school\Active_Bike_Lighting_System\Radar_Core/Libraries/CMSIS/Include\core_cmSimd.h ****      to endorse or promote products derived from this software without
  22:C:\Users\Depes Crystalline\Desktop\school\Active_Bike_Lighting_System\Radar_Core/Libraries/CMSIS/Include\core_cmSimd.h ****      specific prior written permission.
  23:C:\Users\Depes Crystalline\Desktop\school\Active_Bike_Lighting_System\Radar_Core/Libraries/CMSIS/Include\core_cmSimd.h ****    *
  24:C:\Users\Depes Crystalline\Desktop\school\Active_Bike_Lighting_System\Radar_Core/Libraries/CMSIS/Include\core_cmSimd.h ****    THIS SOFTWARE IS PROVIDED BY THE COPYRIGHT HOLDERS AND CONTRIBUTORS "AS IS"
  25:C:\Users\Depes Crystalline\Desktop\school\Active_Bike_Lighting_System\Radar_Core/Libraries/CMSIS/Include\core_cmSimd.h ****    AND ANY EXPRESS OR IMPLIED WARRANTIES, INCLUDING, BUT NOT LIMITED TO, THE
  26:C:\Users\Depes Crystalline\Desktop\school\Active_Bike_Lighting_System\Radar_Core/Libraries/CMSIS/Include\core_cmSimd.h ****    IMPLIED WARRANTIES OF MERCHANTABILITY AND FITNESS FOR A PARTICULAR PURPOSE
  27:C:\Users\Depes Crystalline\Desktop\school\Active_Bike_Lighting_System\Radar_Core/Libraries/CMSIS/Include\core_cmSimd.h ****    ARE DISCLAIMED. IN NO EVENT SHALL COPYRIGHT HOLDERS AND CONTRIBUTORS BE
  28:C:\Users\Depes Crystalline\Desktop\school\Active_Bike_Lighting_System\Radar_Core/Libraries/CMSIS/Include\core_cmSimd.h ****    LIABLE FOR ANY DIRECT, INDIRECT, INCIDENTAL, SPECIAL, EXEMPLARY, OR
  29:C:\Users\Depes Crystalline\Desktop\school\Active_Bike_Lighting_System\Radar_Core/Libraries/CMSIS/Include\core_cmSimd.h ****    CONSEQUENTIAL DAMAGES (INCLUDING, BUT NOT LIMITED TO, PROCUREMENT OF
  30:C:\Users\Depes Crystalline\Desktop\school\Active_Bike_Lighting_System\Radar_Core/Libraries/CMSIS/Include\core_cmSimd.h ****    SUBSTITUTE GOODS OR SERVICES; LOSS OF USE, DATA, OR PROFITS; OR BUSINESS
  31:C:\Users\Depes Crystalline\Desktop\school\Active_Bike_Lighting_System\Radar_Core/Libraries/CMSIS/Include\core_cmSimd.h ****    INTERRUPTION) HOWEVER CAUSED AND ON ANY THEORY OF LIABILITY, WHETHER IN
  32:C:\Users\Depes Crystalline\Desktop\school\Active_Bike_Lighting_System\Radar_Core/Libraries/CMSIS/Include\core_cmSimd.h ****    CONTRACT, STRICT LIABILITY, OR TORT (INCLUDING NEGLIGENCE OR OTHERWISE)
  33:C:\Users\Depes Crystalline\Desktop\school\Active_Bike_Lighting_System\Radar_Core/Libraries/CMSIS/Include\core_cmSimd.h ****    ARISING IN ANY WAY OUT OF THE USE OF THIS SOFTWARE, EVEN IF ADVISED OF THE
  34:C:\Users\Depes Crystalline\Desktop\school\Active_Bike_Lighting_System\Radar_Core/Libraries/CMSIS/Include\core_cmSimd.h ****    POSSIBILITY OF SUCH DAMAGE.
  35:C:\Users\Depes Crystalline\Desktop\school\Active_Bike_Lighting_System\Radar_Core/Libraries/CMSIS/Include\core_cmSimd.h ****    ---------------------------------------------------------------------------*/
  36:C:\Users\Depes Crystalline\Desktop\school\Active_Bike_Lighting_System\Radar_Core/Libraries/CMSIS/Include\core_cmSimd.h **** 
  37:C:\Users\Depes Crystalline\Desktop\school\Active_Bike_Lighting_System\Radar_Core/Libraries/CMSIS/Include\core_cmSimd.h **** 
  38:C:\Users\Depes Crystalline\Desktop\school\Active_Bike_Lighting_System\Radar_Core/Libraries/CMSIS/Include\core_cmSimd.h **** #if defined ( __ICCARM__ )
  39:C:\Users\Depes Crystalline\Desktop\school\Active_Bike_Lighting_System\Radar_Core/Libraries/CMSIS/Include\core_cmSimd.h ****  #pragma system_include  /* treat file as system include file for MISRA check */
  40:C:\Users\Depes Crystalline\Desktop\school\Active_Bike_Lighting_System\Radar_Core/Libraries/CMSIS/Include\core_cmSimd.h **** #endif
  41:C:\Users\Depes Crystalline\Desktop\school\Active_Bike_Lighting_System\Radar_Core/Libraries/CMSIS/Include\core_cmSimd.h **** 
  42:C:\Users\Depes Crystalline\Desktop\school\Active_Bike_Lighting_System\Radar_Core/Libraries/CMSIS/Include\core_cmSimd.h **** #ifndef __CORE_CMSIMD_H
  43:C:\Users\Depes Crystalline\Desktop\school\Active_Bike_Lighting_System\Radar_Core/Libraries/CMSIS/Include\core_cmSimd.h **** #define __CORE_CMSIMD_H
  44:C:\Users\Depes Crystalline\Desktop\school\Active_Bike_Lighting_System\Radar_Core/Libraries/CMSIS/Include\core_cmSimd.h **** 
  45:C:\Users\Depes Crystalline\Desktop\school\Active_Bike_Lighting_System\Radar_Core/Libraries/CMSIS/Include\core_cmSimd.h **** #ifdef __cplusplus
  46:C:\Users\Depes Crystalline\Desktop\school\Active_Bike_Lighting_System\Radar_Core/Libraries/CMSIS/Include\core_cmSimd.h ****  extern "C" {
  47:C:\Users\Depes Crystalline\Desktop\school\Active_Bike_Lighting_System\Radar_Core/Libraries/CMSIS/Include\core_cmSimd.h **** #endif
  48:C:\Users\Depes Crystalline\Desktop\school\Active_Bike_Lighting_System\Radar_Core/Libraries/CMSIS/Include\core_cmSimd.h **** 
  49:C:\Users\Depes Crystalline\Desktop\school\Active_Bike_Lighting_System\Radar_Core/Libraries/CMSIS/Include\core_cmSimd.h **** 
  50:C:\Users\Depes Crystalline\Desktop\school\Active_Bike_Lighting_System\Radar_Core/Libraries/CMSIS/Include\core_cmSimd.h **** /*******************************************************************************
  51:C:\Users\Depes Crystalline\Desktop\school\Active_Bike_Lighting_System\Radar_Core/Libraries/CMSIS/Include\core_cmSimd.h ****  *                Hardware Abstraction Layer
  52:C:\Users\Depes Crystalline\Desktop\school\Active_Bike_Lighting_System\Radar_Core/Libraries/CMSIS/Include\core_cmSimd.h ****  ******************************************************************************/
  53:C:\Users\Depes Crystalline\Desktop\school\Active_Bike_Lighting_System\Radar_Core/Libraries/CMSIS/Include\core_cmSimd.h **** 
  54:C:\Users\Depes Crystalline\Desktop\school\Active_Bike_Lighting_System\Radar_Core/Libraries/CMSIS/Include\core_cmSimd.h **** 
  55:C:\Users\Depes Crystalline\Desktop\school\Active_Bike_Lighting_System\Radar_Core/Libraries/CMSIS/Include\core_cmSimd.h **** /* ###################  Compiler specific Intrinsics  ########################### */
  56:C:\Users\Depes Crystalline\Desktop\school\Active_Bike_Lighting_System\Radar_Core/Libraries/CMSIS/Include\core_cmSimd.h **** /** \defgroup CMSIS_SIMD_intrinsics CMSIS SIMD Intrinsics
  57:C:\Users\Depes Crystalline\Desktop\school\Active_Bike_Lighting_System\Radar_Core/Libraries/CMSIS/Include\core_cmSimd.h ****   Access to dedicated SIMD instructions
  58:C:\Users\Depes Crystalline\Desktop\school\Active_Bike_Lighting_System\Radar_Core/Libraries/CMSIS/Include\core_cmSimd.h ****   @{
  59:C:\Users\Depes Crystalline\Desktop\school\Active_Bike_Lighting_System\Radar_Core/Libraries/CMSIS/Include\core_cmSimd.h **** */
  60:C:\Users\Depes Crystalline\Desktop\school\Active_Bike_Lighting_System\Radar_Core/Libraries/CMSIS/Include\core_cmSimd.h **** 
  61:C:\Users\Depes Crystalline\Desktop\school\Active_Bike_Lighting_System\Radar_Core/Libraries/CMSIS/Include\core_cmSimd.h **** #if   defined ( __CC_ARM ) /*------------------RealView Compiler -----------------*/
  62:C:\Users\Depes Crystalline\Desktop\school\Active_Bike_Lighting_System\Radar_Core/Libraries/CMSIS/Include\core_cmSimd.h **** /* ARM armcc specific functions */
  63:C:\Users\Depes Crystalline\Desktop\school\Active_Bike_Lighting_System\Radar_Core/Libraries/CMSIS/Include\core_cmSimd.h **** #define __SADD8                           __sadd8
  64:C:\Users\Depes Crystalline\Desktop\school\Active_Bike_Lighting_System\Radar_Core/Libraries/CMSIS/Include\core_cmSimd.h **** #define __QADD8                           __qadd8
  65:C:\Users\Depes Crystalline\Desktop\school\Active_Bike_Lighting_System\Radar_Core/Libraries/CMSIS/Include\core_cmSimd.h **** #define __SHADD8                          __shadd8
  66:C:\Users\Depes Crystalline\Desktop\school\Active_Bike_Lighting_System\Radar_Core/Libraries/CMSIS/Include\core_cmSimd.h **** #define __UADD8                           __uadd8
  67:C:\Users\Depes Crystalline\Desktop\school\Active_Bike_Lighting_System\Radar_Core/Libraries/CMSIS/Include\core_cmSimd.h **** #define __UQADD8                          __uqadd8
  68:C:\Users\Depes Crystalline\Desktop\school\Active_Bike_Lighting_System\Radar_Core/Libraries/CMSIS/Include\core_cmSimd.h **** #define __UHADD8                          __uhadd8
  69:C:\Users\Depes Crystalline\Desktop\school\Active_Bike_Lighting_System\Radar_Core/Libraries/CMSIS/Include\core_cmSimd.h **** #define __SSUB8                           __ssub8
  70:C:\Users\Depes Crystalline\Desktop\school\Active_Bike_Lighting_System\Radar_Core/Libraries/CMSIS/Include\core_cmSimd.h **** #define __QSUB8                           __qsub8
  71:C:\Users\Depes Crystalline\Desktop\school\Active_Bike_Lighting_System\Radar_Core/Libraries/CMSIS/Include\core_cmSimd.h **** #define __SHSUB8                          __shsub8
  72:C:\Users\Depes Crystalline\Desktop\school\Active_Bike_Lighting_System\Radar_Core/Libraries/CMSIS/Include\core_cmSimd.h **** #define __USUB8                           __usub8
  73:C:\Users\Depes Crystalline\Desktop\school\Active_Bike_Lighting_System\Radar_Core/Libraries/CMSIS/Include\core_cmSimd.h **** #define __UQSUB8                          __uqsub8
  74:C:\Users\Depes Crystalline\Desktop\school\Active_Bike_Lighting_System\Radar_Core/Libraries/CMSIS/Include\core_cmSimd.h **** #define __UHSUB8                          __uhsub8
  75:C:\Users\Depes Crystalline\Desktop\school\Active_Bike_Lighting_System\Radar_Core/Libraries/CMSIS/Include\core_cmSimd.h **** #define __SADD16                          __sadd16
  76:C:\Users\Depes Crystalline\Desktop\school\Active_Bike_Lighting_System\Radar_Core/Libraries/CMSIS/Include\core_cmSimd.h **** #define __QADD16                          __qadd16
  77:C:\Users\Depes Crystalline\Desktop\school\Active_Bike_Lighting_System\Radar_Core/Libraries/CMSIS/Include\core_cmSimd.h **** #define __SHADD16                         __shadd16
  78:C:\Users\Depes Crystalline\Desktop\school\Active_Bike_Lighting_System\Radar_Core/Libraries/CMSIS/Include\core_cmSimd.h **** #define __UADD16                          __uadd16
  79:C:\Users\Depes Crystalline\Desktop\school\Active_Bike_Lighting_System\Radar_Core/Libraries/CMSIS/Include\core_cmSimd.h **** #define __UQADD16                         __uqadd16
  80:C:\Users\Depes Crystalline\Desktop\school\Active_Bike_Lighting_System\Radar_Core/Libraries/CMSIS/Include\core_cmSimd.h **** #define __UHADD16                         __uhadd16
  81:C:\Users\Depes Crystalline\Desktop\school\Active_Bike_Lighting_System\Radar_Core/Libraries/CMSIS/Include\core_cmSimd.h **** #define __SSUB16                          __ssub16
  82:C:\Users\Depes Crystalline\Desktop\school\Active_Bike_Lighting_System\Radar_Core/Libraries/CMSIS/Include\core_cmSimd.h **** #define __QSUB16                          __qsub16
  83:C:\Users\Depes Crystalline\Desktop\school\Active_Bike_Lighting_System\Radar_Core/Libraries/CMSIS/Include\core_cmSimd.h **** #define __SHSUB16                         __shsub16
  84:C:\Users\Depes Crystalline\Desktop\school\Active_Bike_Lighting_System\Radar_Core/Libraries/CMSIS/Include\core_cmSimd.h **** #define __USUB16                          __usub16
  85:C:\Users\Depes Crystalline\Desktop\school\Active_Bike_Lighting_System\Radar_Core/Libraries/CMSIS/Include\core_cmSimd.h **** #define __UQSUB16                         __uqsub16
  86:C:\Users\Depes Crystalline\Desktop\school\Active_Bike_Lighting_System\Radar_Core/Libraries/CMSIS/Include\core_cmSimd.h **** #define __UHSUB16                         __uhsub16
  87:C:\Users\Depes Crystalline\Desktop\school\Active_Bike_Lighting_System\Radar_Core/Libraries/CMSIS/Include\core_cmSimd.h **** #define __SASX                            __sasx
  88:C:\Users\Depes Crystalline\Desktop\school\Active_Bike_Lighting_System\Radar_Core/Libraries/CMSIS/Include\core_cmSimd.h **** #define __QASX                            __qasx
  89:C:\Users\Depes Crystalline\Desktop\school\Active_Bike_Lighting_System\Radar_Core/Libraries/CMSIS/Include\core_cmSimd.h **** #define __SHASX                           __shasx
  90:C:\Users\Depes Crystalline\Desktop\school\Active_Bike_Lighting_System\Radar_Core/Libraries/CMSIS/Include\core_cmSimd.h **** #define __UASX                            __uasx
  91:C:\Users\Depes Crystalline\Desktop\school\Active_Bike_Lighting_System\Radar_Core/Libraries/CMSIS/Include\core_cmSimd.h **** #define __UQASX                           __uqasx
  92:C:\Users\Depes Crystalline\Desktop\school\Active_Bike_Lighting_System\Radar_Core/Libraries/CMSIS/Include\core_cmSimd.h **** #define __UHASX                           __uhasx
  93:C:\Users\Depes Crystalline\Desktop\school\Active_Bike_Lighting_System\Radar_Core/Libraries/CMSIS/Include\core_cmSimd.h **** #define __SSAX                            __ssax
  94:C:\Users\Depes Crystalline\Desktop\school\Active_Bike_Lighting_System\Radar_Core/Libraries/CMSIS/Include\core_cmSimd.h **** #define __QSAX                            __qsax
  95:C:\Users\Depes Crystalline\Desktop\school\Active_Bike_Lighting_System\Radar_Core/Libraries/CMSIS/Include\core_cmSimd.h **** #define __SHSAX                           __shsax
  96:C:\Users\Depes Crystalline\Desktop\school\Active_Bike_Lighting_System\Radar_Core/Libraries/CMSIS/Include\core_cmSimd.h **** #define __USAX                            __usax
  97:C:\Users\Depes Crystalline\Desktop\school\Active_Bike_Lighting_System\Radar_Core/Libraries/CMSIS/Include\core_cmSimd.h **** #define __UQSAX                           __uqsax
  98:C:\Users\Depes Crystalline\Desktop\school\Active_Bike_Lighting_System\Radar_Core/Libraries/CMSIS/Include\core_cmSimd.h **** #define __UHSAX                           __uhsax
  99:C:\Users\Depes Crystalline\Desktop\school\Active_Bike_Lighting_System\Radar_Core/Libraries/CMSIS/Include\core_cmSimd.h **** #define __USAD8                           __usad8
 100:C:\Users\Depes Crystalline\Desktop\school\Active_Bike_Lighting_System\Radar_Core/Libraries/CMSIS/Include\core_cmSimd.h **** #define __USADA8                          __usada8
 101:C:\Users\Depes Crystalline\Desktop\school\Active_Bike_Lighting_System\Radar_Core/Libraries/CMSIS/Include\core_cmSimd.h **** #define __SSAT16                          __ssat16
 102:C:\Users\Depes Crystalline\Desktop\school\Active_Bike_Lighting_System\Radar_Core/Libraries/CMSIS/Include\core_cmSimd.h **** #define __USAT16                          __usat16
 103:C:\Users\Depes Crystalline\Desktop\school\Active_Bike_Lighting_System\Radar_Core/Libraries/CMSIS/Include\core_cmSimd.h **** #define __UXTB16                          __uxtb16
 104:C:\Users\Depes Crystalline\Desktop\school\Active_Bike_Lighting_System\Radar_Core/Libraries/CMSIS/Include\core_cmSimd.h **** #define __UXTAB16                         __uxtab16
 105:C:\Users\Depes Crystalline\Desktop\school\Active_Bike_Lighting_System\Radar_Core/Libraries/CMSIS/Include\core_cmSimd.h **** #define __SXTB16                          __sxtb16
 106:C:\Users\Depes Crystalline\Desktop\school\Active_Bike_Lighting_System\Radar_Core/Libraries/CMSIS/Include\core_cmSimd.h **** #define __SXTAB16                         __sxtab16
 107:C:\Users\Depes Crystalline\Desktop\school\Active_Bike_Lighting_System\Radar_Core/Libraries/CMSIS/Include\core_cmSimd.h **** #define __SMUAD                           __smuad
 108:C:\Users\Depes Crystalline\Desktop\school\Active_Bike_Lighting_System\Radar_Core/Libraries/CMSIS/Include\core_cmSimd.h **** #define __SMUADX                          __smuadx
 109:C:\Users\Depes Crystalline\Desktop\school\Active_Bike_Lighting_System\Radar_Core/Libraries/CMSIS/Include\core_cmSimd.h **** #define __SMLAD                           __smlad
 110:C:\Users\Depes Crystalline\Desktop\school\Active_Bike_Lighting_System\Radar_Core/Libraries/CMSIS/Include\core_cmSimd.h **** #define __SMLADX                          __smladx
 111:C:\Users\Depes Crystalline\Desktop\school\Active_Bike_Lighting_System\Radar_Core/Libraries/CMSIS/Include\core_cmSimd.h **** #define __SMLALD                          __smlald
 112:C:\Users\Depes Crystalline\Desktop\school\Active_Bike_Lighting_System\Radar_Core/Libraries/CMSIS/Include\core_cmSimd.h **** #define __SMLALDX                         __smlaldx
 113:C:\Users\Depes Crystalline\Desktop\school\Active_Bike_Lighting_System\Radar_Core/Libraries/CMSIS/Include\core_cmSimd.h **** #define __SMUSD                           __smusd
 114:C:\Users\Depes Crystalline\Desktop\school\Active_Bike_Lighting_System\Radar_Core/Libraries/CMSIS/Include\core_cmSimd.h **** #define __SMUSDX                          __smusdx
 115:C:\Users\Depes Crystalline\Desktop\school\Active_Bike_Lighting_System\Radar_Core/Libraries/CMSIS/Include\core_cmSimd.h **** #define __SMLSD                           __smlsd
 116:C:\Users\Depes Crystalline\Desktop\school\Active_Bike_Lighting_System\Radar_Core/Libraries/CMSIS/Include\core_cmSimd.h **** #define __SMLSDX                          __smlsdx
 117:C:\Users\Depes Crystalline\Desktop\school\Active_Bike_Lighting_System\Radar_Core/Libraries/CMSIS/Include\core_cmSimd.h **** #define __SMLSLD                          __smlsld
 118:C:\Users\Depes Crystalline\Desktop\school\Active_Bike_Lighting_System\Radar_Core/Libraries/CMSIS/Include\core_cmSimd.h **** #define __SMLSLDX                         __smlsldx
 119:C:\Users\Depes Crystalline\Desktop\school\Active_Bike_Lighting_System\Radar_Core/Libraries/CMSIS/Include\core_cmSimd.h **** #define __SEL                             __sel
 120:C:\Users\Depes Crystalline\Desktop\school\Active_Bike_Lighting_System\Radar_Core/Libraries/CMSIS/Include\core_cmSimd.h **** #define __QADD                            __qadd
 121:C:\Users\Depes Crystalline\Desktop\school\Active_Bike_Lighting_System\Radar_Core/Libraries/CMSIS/Include\core_cmSimd.h **** #define __QSUB                            __qsub
 122:C:\Users\Depes Crystalline\Desktop\school\Active_Bike_Lighting_System\Radar_Core/Libraries/CMSIS/Include\core_cmSimd.h **** 
 123:C:\Users\Depes Crystalline\Desktop\school\Active_Bike_Lighting_System\Radar_Core/Libraries/CMSIS/Include\core_cmSimd.h **** #define __PKHBT(ARG1,ARG2,ARG3)          ( ((((uint32_t)(ARG1))          ) & 0x0000FFFFUL) |  \
 124:C:\Users\Depes Crystalline\Desktop\school\Active_Bike_Lighting_System\Radar_Core/Libraries/CMSIS/Include\core_cmSimd.h ****                                            ((((uint32_t)(ARG2)) << (ARG3)) & 0xFFFF0000UL)  )
 125:C:\Users\Depes Crystalline\Desktop\school\Active_Bike_Lighting_System\Radar_Core/Libraries/CMSIS/Include\core_cmSimd.h **** 
 126:C:\Users\Depes Crystalline\Desktop\school\Active_Bike_Lighting_System\Radar_Core/Libraries/CMSIS/Include\core_cmSimd.h **** #define __PKHTB(ARG1,ARG2,ARG3)          ( ((((uint32_t)(ARG1))          ) & 0xFFFF0000UL) |  \
 127:C:\Users\Depes Crystalline\Desktop\school\Active_Bike_Lighting_System\Radar_Core/Libraries/CMSIS/Include\core_cmSimd.h ****                                            ((((uint32_t)(ARG2)) >> (ARG3)) & 0x0000FFFFUL)  )
 128:C:\Users\Depes Crystalline\Desktop\school\Active_Bike_Lighting_System\Radar_Core/Libraries/CMSIS/Include\core_cmSimd.h **** 
 129:C:\Users\Depes Crystalline\Desktop\school\Active_Bike_Lighting_System\Radar_Core/Libraries/CMSIS/Include\core_cmSimd.h **** #define __SMMLA(ARG1,ARG2,ARG3)          ( (int32_t)((((int64_t)(ARG1) * (ARG2)) + \
 130:C:\Users\Depes Crystalline\Desktop\school\Active_Bike_Lighting_System\Radar_Core/Libraries/CMSIS/Include\core_cmSimd.h ****                                                       ((int64_t)(ARG3) << 32)      ) >> 32))
 131:C:\Users\Depes Crystalline\Desktop\school\Active_Bike_Lighting_System\Radar_Core/Libraries/CMSIS/Include\core_cmSimd.h **** 
 132:C:\Users\Depes Crystalline\Desktop\school\Active_Bike_Lighting_System\Radar_Core/Libraries/CMSIS/Include\core_cmSimd.h **** 
 133:C:\Users\Depes Crystalline\Desktop\school\Active_Bike_Lighting_System\Radar_Core/Libraries/CMSIS/Include\core_cmSimd.h **** #elif defined ( __GNUC__ ) /*------------------ GNU Compiler ---------------------*/
 134:C:\Users\Depes Crystalline\Desktop\school\Active_Bike_Lighting_System\Radar_Core/Libraries/CMSIS/Include\core_cmSimd.h **** /* GNU gcc specific functions */
 135:C:\Users\Depes Crystalline\Desktop\school\Active_Bike_Lighting_System\Radar_Core/Libraries/CMSIS/Include\core_cmSimd.h **** __attribute__( ( always_inline ) ) __STATIC_INLINE uint32_t __SADD8(uint32_t op1, uint32_t op2)
 136:C:\Users\Depes Crystalline\Desktop\school\Active_Bike_Lighting_System\Radar_Core/Libraries/CMSIS/Include\core_cmSimd.h **** {
 137:C:\Users\Depes Crystalline\Desktop\school\Active_Bike_Lighting_System\Radar_Core/Libraries/CMSIS/Include\core_cmSimd.h ****   uint32_t result;
 138:C:\Users\Depes Crystalline\Desktop\school\Active_Bike_Lighting_System\Radar_Core/Libraries/CMSIS/Include\core_cmSimd.h **** 
 139:C:\Users\Depes Crystalline\Desktop\school\Active_Bike_Lighting_System\Radar_Core/Libraries/CMSIS/Include\core_cmSimd.h ****   __ASM volatile ("sadd8 %0, %1, %2" : "=r" (result) : "r" (op1), "r" (op2) );
 140:C:\Users\Depes Crystalline\Desktop\school\Active_Bike_Lighting_System\Radar_Core/Libraries/CMSIS/Include\core_cmSimd.h ****   return(result);
 141:C:\Users\Depes Crystalline\Desktop\school\Active_Bike_Lighting_System\Radar_Core/Libraries/CMSIS/Include\core_cmSimd.h **** }
 142:C:\Users\Depes Crystalline\Desktop\school\Active_Bike_Lighting_System\Radar_Core/Libraries/CMSIS/Include\core_cmSimd.h **** 
 143:C:\Users\Depes Crystalline\Desktop\school\Active_Bike_Lighting_System\Radar_Core/Libraries/CMSIS/Include\core_cmSimd.h **** __attribute__( ( always_inline ) ) __STATIC_INLINE uint32_t __QADD8(uint32_t op1, uint32_t op2)
 144:C:\Users\Depes Crystalline\Desktop\school\Active_Bike_Lighting_System\Radar_Core/Libraries/CMSIS/Include\core_cmSimd.h **** {
 145:C:\Users\Depes Crystalline\Desktop\school\Active_Bike_Lighting_System\Radar_Core/Libraries/CMSIS/Include\core_cmSimd.h ****   uint32_t result;
 146:C:\Users\Depes Crystalline\Desktop\school\Active_Bike_Lighting_System\Radar_Core/Libraries/CMSIS/Include\core_cmSimd.h **** 
 147:C:\Users\Depes Crystalline\Desktop\school\Active_Bike_Lighting_System\Radar_Core/Libraries/CMSIS/Include\core_cmSimd.h ****   __ASM volatile ("qadd8 %0, %1, %2" : "=r" (result) : "r" (op1), "r" (op2) );
 148:C:\Users\Depes Crystalline\Desktop\school\Active_Bike_Lighting_System\Radar_Core/Libraries/CMSIS/Include\core_cmSimd.h ****   return(result);
 149:C:\Users\Depes Crystalline\Desktop\school\Active_Bike_Lighting_System\Radar_Core/Libraries/CMSIS/Include\core_cmSimd.h **** }
 150:C:\Users\Depes Crystalline\Desktop\school\Active_Bike_Lighting_System\Radar_Core/Libraries/CMSIS/Include\core_cmSimd.h **** 
 151:C:\Users\Depes Crystalline\Desktop\school\Active_Bike_Lighting_System\Radar_Core/Libraries/CMSIS/Include\core_cmSimd.h **** __attribute__( ( always_inline ) ) __STATIC_INLINE uint32_t __SHADD8(uint32_t op1, uint32_t op2)
 152:C:\Users\Depes Crystalline\Desktop\school\Active_Bike_Lighting_System\Radar_Core/Libraries/CMSIS/Include\core_cmSimd.h **** {
 153:C:\Users\Depes Crystalline\Desktop\school\Active_Bike_Lighting_System\Radar_Core/Libraries/CMSIS/Include\core_cmSimd.h ****   uint32_t result;
 154:C:\Users\Depes Crystalline\Desktop\school\Active_Bike_Lighting_System\Radar_Core/Libraries/CMSIS/Include\core_cmSimd.h **** 
 155:C:\Users\Depes Crystalline\Desktop\school\Active_Bike_Lighting_System\Radar_Core/Libraries/CMSIS/Include\core_cmSimd.h ****   __ASM volatile ("shadd8 %0, %1, %2" : "=r" (result) : "r" (op1), "r" (op2) );
 156:C:\Users\Depes Crystalline\Desktop\school\Active_Bike_Lighting_System\Radar_Core/Libraries/CMSIS/Include\core_cmSimd.h ****   return(result);
 157:C:\Users\Depes Crystalline\Desktop\school\Active_Bike_Lighting_System\Radar_Core/Libraries/CMSIS/Include\core_cmSimd.h **** }
 158:C:\Users\Depes Crystalline\Desktop\school\Active_Bike_Lighting_System\Radar_Core/Libraries/CMSIS/Include\core_cmSimd.h **** 
 159:C:\Users\Depes Crystalline\Desktop\school\Active_Bike_Lighting_System\Radar_Core/Libraries/CMSIS/Include\core_cmSimd.h **** __attribute__( ( always_inline ) ) __STATIC_INLINE uint32_t __UADD8(uint32_t op1, uint32_t op2)
 160:C:\Users\Depes Crystalline\Desktop\school\Active_Bike_Lighting_System\Radar_Core/Libraries/CMSIS/Include\core_cmSimd.h **** {
 161:C:\Users\Depes Crystalline\Desktop\school\Active_Bike_Lighting_System\Radar_Core/Libraries/CMSIS/Include\core_cmSimd.h ****   uint32_t result;
 162:C:\Users\Depes Crystalline\Desktop\school\Active_Bike_Lighting_System\Radar_Core/Libraries/CMSIS/Include\core_cmSimd.h **** 
 163:C:\Users\Depes Crystalline\Desktop\school\Active_Bike_Lighting_System\Radar_Core/Libraries/CMSIS/Include\core_cmSimd.h ****   __ASM volatile ("uadd8 %0, %1, %2" : "=r" (result) : "r" (op1), "r" (op2) );
 164:C:\Users\Depes Crystalline\Desktop\school\Active_Bike_Lighting_System\Radar_Core/Libraries/CMSIS/Include\core_cmSimd.h ****   return(result);
 165:C:\Users\Depes Crystalline\Desktop\school\Active_Bike_Lighting_System\Radar_Core/Libraries/CMSIS/Include\core_cmSimd.h **** }
 166:C:\Users\Depes Crystalline\Desktop\school\Active_Bike_Lighting_System\Radar_Core/Libraries/CMSIS/Include\core_cmSimd.h **** 
 167:C:\Users\Depes Crystalline\Desktop\school\Active_Bike_Lighting_System\Radar_Core/Libraries/CMSIS/Include\core_cmSimd.h **** __attribute__( ( always_inline ) ) __STATIC_INLINE uint32_t __UQADD8(uint32_t op1, uint32_t op2)
 168:C:\Users\Depes Crystalline\Desktop\school\Active_Bike_Lighting_System\Radar_Core/Libraries/CMSIS/Include\core_cmSimd.h **** {
 169:C:\Users\Depes Crystalline\Desktop\school\Active_Bike_Lighting_System\Radar_Core/Libraries/CMSIS/Include\core_cmSimd.h ****   uint32_t result;
 170:C:\Users\Depes Crystalline\Desktop\school\Active_Bike_Lighting_System\Radar_Core/Libraries/CMSIS/Include\core_cmSimd.h **** 
 171:C:\Users\Depes Crystalline\Desktop\school\Active_Bike_Lighting_System\Radar_Core/Libraries/CMSIS/Include\core_cmSimd.h ****   __ASM volatile ("uqadd8 %0, %1, %2" : "=r" (result) : "r" (op1), "r" (op2) );
 172:C:\Users\Depes Crystalline\Desktop\school\Active_Bike_Lighting_System\Radar_Core/Libraries/CMSIS/Include\core_cmSimd.h ****   return(result);
 173:C:\Users\Depes Crystalline\Desktop\school\Active_Bike_Lighting_System\Radar_Core/Libraries/CMSIS/Include\core_cmSimd.h **** }
 174:C:\Users\Depes Crystalline\Desktop\school\Active_Bike_Lighting_System\Radar_Core/Libraries/CMSIS/Include\core_cmSimd.h **** 
 175:C:\Users\Depes Crystalline\Desktop\school\Active_Bike_Lighting_System\Radar_Core/Libraries/CMSIS/Include\core_cmSimd.h **** __attribute__( ( always_inline ) ) __STATIC_INLINE uint32_t __UHADD8(uint32_t op1, uint32_t op2)
 176:C:\Users\Depes Crystalline\Desktop\school\Active_Bike_Lighting_System\Radar_Core/Libraries/CMSIS/Include\core_cmSimd.h **** {
 177:C:\Users\Depes Crystalline\Desktop\school\Active_Bike_Lighting_System\Radar_Core/Libraries/CMSIS/Include\core_cmSimd.h ****   uint32_t result;
 178:C:\Users\Depes Crystalline\Desktop\school\Active_Bike_Lighting_System\Radar_Core/Libraries/CMSIS/Include\core_cmSimd.h **** 
 179:C:\Users\Depes Crystalline\Desktop\school\Active_Bike_Lighting_System\Radar_Core/Libraries/CMSIS/Include\core_cmSimd.h ****   __ASM volatile ("uhadd8 %0, %1, %2" : "=r" (result) : "r" (op1), "r" (op2) );
 180:C:\Users\Depes Crystalline\Desktop\school\Active_Bike_Lighting_System\Radar_Core/Libraries/CMSIS/Include\core_cmSimd.h ****   return(result);
 181:C:\Users\Depes Crystalline\Desktop\school\Active_Bike_Lighting_System\Radar_Core/Libraries/CMSIS/Include\core_cmSimd.h **** }
 182:C:\Users\Depes Crystalline\Desktop\school\Active_Bike_Lighting_System\Radar_Core/Libraries/CMSIS/Include\core_cmSimd.h **** 
 183:C:\Users\Depes Crystalline\Desktop\school\Active_Bike_Lighting_System\Radar_Core/Libraries/CMSIS/Include\core_cmSimd.h **** 
 184:C:\Users\Depes Crystalline\Desktop\school\Active_Bike_Lighting_System\Radar_Core/Libraries/CMSIS/Include\core_cmSimd.h **** __attribute__( ( always_inline ) ) __STATIC_INLINE uint32_t __SSUB8(uint32_t op1, uint32_t op2)
 185:C:\Users\Depes Crystalline\Desktop\school\Active_Bike_Lighting_System\Radar_Core/Libraries/CMSIS/Include\core_cmSimd.h **** {
 186:C:\Users\Depes Crystalline\Desktop\school\Active_Bike_Lighting_System\Radar_Core/Libraries/CMSIS/Include\core_cmSimd.h ****   uint32_t result;
 187:C:\Users\Depes Crystalline\Desktop\school\Active_Bike_Lighting_System\Radar_Core/Libraries/CMSIS/Include\core_cmSimd.h **** 
 188:C:\Users\Depes Crystalline\Desktop\school\Active_Bike_Lighting_System\Radar_Core/Libraries/CMSIS/Include\core_cmSimd.h ****   __ASM volatile ("ssub8 %0, %1, %2" : "=r" (result) : "r" (op1), "r" (op2) );
 189:C:\Users\Depes Crystalline\Desktop\school\Active_Bike_Lighting_System\Radar_Core/Libraries/CMSIS/Include\core_cmSimd.h ****   return(result);
 190:C:\Users\Depes Crystalline\Desktop\school\Active_Bike_Lighting_System\Radar_Core/Libraries/CMSIS/Include\core_cmSimd.h **** }
 191:C:\Users\Depes Crystalline\Desktop\school\Active_Bike_Lighting_System\Radar_Core/Libraries/CMSIS/Include\core_cmSimd.h **** 
 192:C:\Users\Depes Crystalline\Desktop\school\Active_Bike_Lighting_System\Radar_Core/Libraries/CMSIS/Include\core_cmSimd.h **** __attribute__( ( always_inline ) ) __STATIC_INLINE uint32_t __QSUB8(uint32_t op1, uint32_t op2)
 193:C:\Users\Depes Crystalline\Desktop\school\Active_Bike_Lighting_System\Radar_Core/Libraries/CMSIS/Include\core_cmSimd.h **** {
 194:C:\Users\Depes Crystalline\Desktop\school\Active_Bike_Lighting_System\Radar_Core/Libraries/CMSIS/Include\core_cmSimd.h ****   uint32_t result;
 195:C:\Users\Depes Crystalline\Desktop\school\Active_Bike_Lighting_System\Radar_Core/Libraries/CMSIS/Include\core_cmSimd.h **** 
 196:C:\Users\Depes Crystalline\Desktop\school\Active_Bike_Lighting_System\Radar_Core/Libraries/CMSIS/Include\core_cmSimd.h ****   __ASM volatile ("qsub8 %0, %1, %2" : "=r" (result) : "r" (op1), "r" (op2) );
 197:C:\Users\Depes Crystalline\Desktop\school\Active_Bike_Lighting_System\Radar_Core/Libraries/CMSIS/Include\core_cmSimd.h ****   return(result);
 198:C:\Users\Depes Crystalline\Desktop\school\Active_Bike_Lighting_System\Radar_Core/Libraries/CMSIS/Include\core_cmSimd.h **** }
 199:C:\Users\Depes Crystalline\Desktop\school\Active_Bike_Lighting_System\Radar_Core/Libraries/CMSIS/Include\core_cmSimd.h **** 
 200:C:\Users\Depes Crystalline\Desktop\school\Active_Bike_Lighting_System\Radar_Core/Libraries/CMSIS/Include\core_cmSimd.h **** __attribute__( ( always_inline ) ) __STATIC_INLINE uint32_t __SHSUB8(uint32_t op1, uint32_t op2)
 201:C:\Users\Depes Crystalline\Desktop\school\Active_Bike_Lighting_System\Radar_Core/Libraries/CMSIS/Include\core_cmSimd.h **** {
 202:C:\Users\Depes Crystalline\Desktop\school\Active_Bike_Lighting_System\Radar_Core/Libraries/CMSIS/Include\core_cmSimd.h ****   uint32_t result;
 203:C:\Users\Depes Crystalline\Desktop\school\Active_Bike_Lighting_System\Radar_Core/Libraries/CMSIS/Include\core_cmSimd.h **** 
 204:C:\Users\Depes Crystalline\Desktop\school\Active_Bike_Lighting_System\Radar_Core/Libraries/CMSIS/Include\core_cmSimd.h ****   __ASM volatile ("shsub8 %0, %1, %2" : "=r" (result) : "r" (op1), "r" (op2) );
 205:C:\Users\Depes Crystalline\Desktop\school\Active_Bike_Lighting_System\Radar_Core/Libraries/CMSIS/Include\core_cmSimd.h ****   return(result);
 206:C:\Users\Depes Crystalline\Desktop\school\Active_Bike_Lighting_System\Radar_Core/Libraries/CMSIS/Include\core_cmSimd.h **** }
 207:C:\Users\Depes Crystalline\Desktop\school\Active_Bike_Lighting_System\Radar_Core/Libraries/CMSIS/Include\core_cmSimd.h **** 
 208:C:\Users\Depes Crystalline\Desktop\school\Active_Bike_Lighting_System\Radar_Core/Libraries/CMSIS/Include\core_cmSimd.h **** __attribute__( ( always_inline ) ) __STATIC_INLINE uint32_t __USUB8(uint32_t op1, uint32_t op2)
 209:C:\Users\Depes Crystalline\Desktop\school\Active_Bike_Lighting_System\Radar_Core/Libraries/CMSIS/Include\core_cmSimd.h **** {
 210:C:\Users\Depes Crystalline\Desktop\school\Active_Bike_Lighting_System\Radar_Core/Libraries/CMSIS/Include\core_cmSimd.h ****   uint32_t result;
 211:C:\Users\Depes Crystalline\Desktop\school\Active_Bike_Lighting_System\Radar_Core/Libraries/CMSIS/Include\core_cmSimd.h **** 
 212:C:\Users\Depes Crystalline\Desktop\school\Active_Bike_Lighting_System\Radar_Core/Libraries/CMSIS/Include\core_cmSimd.h ****   __ASM volatile ("usub8 %0, %1, %2" : "=r" (result) : "r" (op1), "r" (op2) );
 213:C:\Users\Depes Crystalline\Desktop\school\Active_Bike_Lighting_System\Radar_Core/Libraries/CMSIS/Include\core_cmSimd.h ****   return(result);
 214:C:\Users\Depes Crystalline\Desktop\school\Active_Bike_Lighting_System\Radar_Core/Libraries/CMSIS/Include\core_cmSimd.h **** }
 215:C:\Users\Depes Crystalline\Desktop\school\Active_Bike_Lighting_System\Radar_Core/Libraries/CMSIS/Include\core_cmSimd.h **** 
 216:C:\Users\Depes Crystalline\Desktop\school\Active_Bike_Lighting_System\Radar_Core/Libraries/CMSIS/Include\core_cmSimd.h **** __attribute__( ( always_inline ) ) __STATIC_INLINE uint32_t __UQSUB8(uint32_t op1, uint32_t op2)
 217:C:\Users\Depes Crystalline\Desktop\school\Active_Bike_Lighting_System\Radar_Core/Libraries/CMSIS/Include\core_cmSimd.h **** {
 218:C:\Users\Depes Crystalline\Desktop\school\Active_Bike_Lighting_System\Radar_Core/Libraries/CMSIS/Include\core_cmSimd.h ****   uint32_t result;
 219:C:\Users\Depes Crystalline\Desktop\school\Active_Bike_Lighting_System\Radar_Core/Libraries/CMSIS/Include\core_cmSimd.h **** 
 220:C:\Users\Depes Crystalline\Desktop\school\Active_Bike_Lighting_System\Radar_Core/Libraries/CMSIS/Include\core_cmSimd.h ****   __ASM volatile ("uqsub8 %0, %1, %2" : "=r" (result) : "r" (op1), "r" (op2) );
 221:C:\Users\Depes Crystalline\Desktop\school\Active_Bike_Lighting_System\Radar_Core/Libraries/CMSIS/Include\core_cmSimd.h ****   return(result);
 222:C:\Users\Depes Crystalline\Desktop\school\Active_Bike_Lighting_System\Radar_Core/Libraries/CMSIS/Include\core_cmSimd.h **** }
 223:C:\Users\Depes Crystalline\Desktop\school\Active_Bike_Lighting_System\Radar_Core/Libraries/CMSIS/Include\core_cmSimd.h **** 
 224:C:\Users\Depes Crystalline\Desktop\school\Active_Bike_Lighting_System\Radar_Core/Libraries/CMSIS/Include\core_cmSimd.h **** __attribute__( ( always_inline ) ) __STATIC_INLINE uint32_t __UHSUB8(uint32_t op1, uint32_t op2)
 225:C:\Users\Depes Crystalline\Desktop\school\Active_Bike_Lighting_System\Radar_Core/Libraries/CMSIS/Include\core_cmSimd.h **** {
 226:C:\Users\Depes Crystalline\Desktop\school\Active_Bike_Lighting_System\Radar_Core/Libraries/CMSIS/Include\core_cmSimd.h ****   uint32_t result;
 227:C:\Users\Depes Crystalline\Desktop\school\Active_Bike_Lighting_System\Radar_Core/Libraries/CMSIS/Include\core_cmSimd.h **** 
 228:C:\Users\Depes Crystalline\Desktop\school\Active_Bike_Lighting_System\Radar_Core/Libraries/CMSIS/Include\core_cmSimd.h ****   __ASM volatile ("uhsub8 %0, %1, %2" : "=r" (result) : "r" (op1), "r" (op2) );
 229:C:\Users\Depes Crystalline\Desktop\school\Active_Bike_Lighting_System\Radar_Core/Libraries/CMSIS/Include\core_cmSimd.h ****   return(result);
 230:C:\Users\Depes Crystalline\Desktop\school\Active_Bike_Lighting_System\Radar_Core/Libraries/CMSIS/Include\core_cmSimd.h **** }
 231:C:\Users\Depes Crystalline\Desktop\school\Active_Bike_Lighting_System\Radar_Core/Libraries/CMSIS/Include\core_cmSimd.h **** 
 232:C:\Users\Depes Crystalline\Desktop\school\Active_Bike_Lighting_System\Radar_Core/Libraries/CMSIS/Include\core_cmSimd.h **** 
 233:C:\Users\Depes Crystalline\Desktop\school\Active_Bike_Lighting_System\Radar_Core/Libraries/CMSIS/Include\core_cmSimd.h **** __attribute__( ( always_inline ) ) __STATIC_INLINE uint32_t __SADD16(uint32_t op1, uint32_t op2)
 234:C:\Users\Depes Crystalline\Desktop\school\Active_Bike_Lighting_System\Radar_Core/Libraries/CMSIS/Include\core_cmSimd.h **** {
 235:C:\Users\Depes Crystalline\Desktop\school\Active_Bike_Lighting_System\Radar_Core/Libraries/CMSIS/Include\core_cmSimd.h ****   uint32_t result;
 236:C:\Users\Depes Crystalline\Desktop\school\Active_Bike_Lighting_System\Radar_Core/Libraries/CMSIS/Include\core_cmSimd.h **** 
 237:C:\Users\Depes Crystalline\Desktop\school\Active_Bike_Lighting_System\Radar_Core/Libraries/CMSIS/Include\core_cmSimd.h ****   __ASM volatile ("sadd16 %0, %1, %2" : "=r" (result) : "r" (op1), "r" (op2) );
 238:C:\Users\Depes Crystalline\Desktop\school\Active_Bike_Lighting_System\Radar_Core/Libraries/CMSIS/Include\core_cmSimd.h ****   return(result);
 239:C:\Users\Depes Crystalline\Desktop\school\Active_Bike_Lighting_System\Radar_Core/Libraries/CMSIS/Include\core_cmSimd.h **** }
 240:C:\Users\Depes Crystalline\Desktop\school\Active_Bike_Lighting_System\Radar_Core/Libraries/CMSIS/Include\core_cmSimd.h **** 
 241:C:\Users\Depes Crystalline\Desktop\school\Active_Bike_Lighting_System\Radar_Core/Libraries/CMSIS/Include\core_cmSimd.h **** __attribute__( ( always_inline ) ) __STATIC_INLINE uint32_t __QADD16(uint32_t op1, uint32_t op2)
 242:C:\Users\Depes Crystalline\Desktop\school\Active_Bike_Lighting_System\Radar_Core/Libraries/CMSIS/Include\core_cmSimd.h **** {
 243:C:\Users\Depes Crystalline\Desktop\school\Active_Bike_Lighting_System\Radar_Core/Libraries/CMSIS/Include\core_cmSimd.h ****   uint32_t result;
 244:C:\Users\Depes Crystalline\Desktop\school\Active_Bike_Lighting_System\Radar_Core/Libraries/CMSIS/Include\core_cmSimd.h **** 
 245:C:\Users\Depes Crystalline\Desktop\school\Active_Bike_Lighting_System\Radar_Core/Libraries/CMSIS/Include\core_cmSimd.h ****   __ASM volatile ("qadd16 %0, %1, %2" : "=r" (result) : "r" (op1), "r" (op2) );
 246:C:\Users\Depes Crystalline\Desktop\school\Active_Bike_Lighting_System\Radar_Core/Libraries/CMSIS/Include\core_cmSimd.h ****   return(result);
 247:C:\Users\Depes Crystalline\Desktop\school\Active_Bike_Lighting_System\Radar_Core/Libraries/CMSIS/Include\core_cmSimd.h **** }
 248:C:\Users\Depes Crystalline\Desktop\school\Active_Bike_Lighting_System\Radar_Core/Libraries/CMSIS/Include\core_cmSimd.h **** 
 249:C:\Users\Depes Crystalline\Desktop\school\Active_Bike_Lighting_System\Radar_Core/Libraries/CMSIS/Include\core_cmSimd.h **** __attribute__( ( always_inline ) ) __STATIC_INLINE uint32_t __SHADD16(uint32_t op1, uint32_t op2)
 250:C:\Users\Depes Crystalline\Desktop\school\Active_Bike_Lighting_System\Radar_Core/Libraries/CMSIS/Include\core_cmSimd.h **** {
 251:C:\Users\Depes Crystalline\Desktop\school\Active_Bike_Lighting_System\Radar_Core/Libraries/CMSIS/Include\core_cmSimd.h ****   uint32_t result;
 252:C:\Users\Depes Crystalline\Desktop\school\Active_Bike_Lighting_System\Radar_Core/Libraries/CMSIS/Include\core_cmSimd.h **** 
 253:C:\Users\Depes Crystalline\Desktop\school\Active_Bike_Lighting_System\Radar_Core/Libraries/CMSIS/Include\core_cmSimd.h ****   __ASM volatile ("shadd16 %0, %1, %2" : "=r" (result) : "r" (op1), "r" (op2) );
 254:C:\Users\Depes Crystalline\Desktop\school\Active_Bike_Lighting_System\Radar_Core/Libraries/CMSIS/Include\core_cmSimd.h ****   return(result);
 255:C:\Users\Depes Crystalline\Desktop\school\Active_Bike_Lighting_System\Radar_Core/Libraries/CMSIS/Include\core_cmSimd.h **** }
 256:C:\Users\Depes Crystalline\Desktop\school\Active_Bike_Lighting_System\Radar_Core/Libraries/CMSIS/Include\core_cmSimd.h **** 
 257:C:\Users\Depes Crystalline\Desktop\school\Active_Bike_Lighting_System\Radar_Core/Libraries/CMSIS/Include\core_cmSimd.h **** __attribute__( ( always_inline ) ) __STATIC_INLINE uint32_t __UADD16(uint32_t op1, uint32_t op2)
 258:C:\Users\Depes Crystalline\Desktop\school\Active_Bike_Lighting_System\Radar_Core/Libraries/CMSIS/Include\core_cmSimd.h **** {
 259:C:\Users\Depes Crystalline\Desktop\school\Active_Bike_Lighting_System\Radar_Core/Libraries/CMSIS/Include\core_cmSimd.h ****   uint32_t result;
 260:C:\Users\Depes Crystalline\Desktop\school\Active_Bike_Lighting_System\Radar_Core/Libraries/CMSIS/Include\core_cmSimd.h **** 
 261:C:\Users\Depes Crystalline\Desktop\school\Active_Bike_Lighting_System\Radar_Core/Libraries/CMSIS/Include\core_cmSimd.h ****   __ASM volatile ("uadd16 %0, %1, %2" : "=r" (result) : "r" (op1), "r" (op2) );
 262:C:\Users\Depes Crystalline\Desktop\school\Active_Bike_Lighting_System\Radar_Core/Libraries/CMSIS/Include\core_cmSimd.h ****   return(result);
 263:C:\Users\Depes Crystalline\Desktop\school\Active_Bike_Lighting_System\Radar_Core/Libraries/CMSIS/Include\core_cmSimd.h **** }
 264:C:\Users\Depes Crystalline\Desktop\school\Active_Bike_Lighting_System\Radar_Core/Libraries/CMSIS/Include\core_cmSimd.h **** 
 265:C:\Users\Depes Crystalline\Desktop\school\Active_Bike_Lighting_System\Radar_Core/Libraries/CMSIS/Include\core_cmSimd.h **** __attribute__( ( always_inline ) ) __STATIC_INLINE uint32_t __UQADD16(uint32_t op1, uint32_t op2)
 266:C:\Users\Depes Crystalline\Desktop\school\Active_Bike_Lighting_System\Radar_Core/Libraries/CMSIS/Include\core_cmSimd.h **** {
 267:C:\Users\Depes Crystalline\Desktop\school\Active_Bike_Lighting_System\Radar_Core/Libraries/CMSIS/Include\core_cmSimd.h ****   uint32_t result;
 268:C:\Users\Depes Crystalline\Desktop\school\Active_Bike_Lighting_System\Radar_Core/Libraries/CMSIS/Include\core_cmSimd.h **** 
 269:C:\Users\Depes Crystalline\Desktop\school\Active_Bike_Lighting_System\Radar_Core/Libraries/CMSIS/Include\core_cmSimd.h ****   __ASM volatile ("uqadd16 %0, %1, %2" : "=r" (result) : "r" (op1), "r" (op2) );
 270:C:\Users\Depes Crystalline\Desktop\school\Active_Bike_Lighting_System\Radar_Core/Libraries/CMSIS/Include\core_cmSimd.h ****   return(result);
 271:C:\Users\Depes Crystalline\Desktop\school\Active_Bike_Lighting_System\Radar_Core/Libraries/CMSIS/Include\core_cmSimd.h **** }
 272:C:\Users\Depes Crystalline\Desktop\school\Active_Bike_Lighting_System\Radar_Core/Libraries/CMSIS/Include\core_cmSimd.h **** 
 273:C:\Users\Depes Crystalline\Desktop\school\Active_Bike_Lighting_System\Radar_Core/Libraries/CMSIS/Include\core_cmSimd.h **** __attribute__( ( always_inline ) ) __STATIC_INLINE uint32_t __UHADD16(uint32_t op1, uint32_t op2)
 274:C:\Users\Depes Crystalline\Desktop\school\Active_Bike_Lighting_System\Radar_Core/Libraries/CMSIS/Include\core_cmSimd.h **** {
 275:C:\Users\Depes Crystalline\Desktop\school\Active_Bike_Lighting_System\Radar_Core/Libraries/CMSIS/Include\core_cmSimd.h ****   uint32_t result;
 276:C:\Users\Depes Crystalline\Desktop\school\Active_Bike_Lighting_System\Radar_Core/Libraries/CMSIS/Include\core_cmSimd.h **** 
 277:C:\Users\Depes Crystalline\Desktop\school\Active_Bike_Lighting_System\Radar_Core/Libraries/CMSIS/Include\core_cmSimd.h ****   __ASM volatile ("uhadd16 %0, %1, %2" : "=r" (result) : "r" (op1), "r" (op2) );
 278:C:\Users\Depes Crystalline\Desktop\school\Active_Bike_Lighting_System\Radar_Core/Libraries/CMSIS/Include\core_cmSimd.h ****   return(result);
 279:C:\Users\Depes Crystalline\Desktop\school\Active_Bike_Lighting_System\Radar_Core/Libraries/CMSIS/Include\core_cmSimd.h **** }
 280:C:\Users\Depes Crystalline\Desktop\school\Active_Bike_Lighting_System\Radar_Core/Libraries/CMSIS/Include\core_cmSimd.h **** 
 281:C:\Users\Depes Crystalline\Desktop\school\Active_Bike_Lighting_System\Radar_Core/Libraries/CMSIS/Include\core_cmSimd.h **** __attribute__( ( always_inline ) ) __STATIC_INLINE uint32_t __SSUB16(uint32_t op1, uint32_t op2)
 282:C:\Users\Depes Crystalline\Desktop\school\Active_Bike_Lighting_System\Radar_Core/Libraries/CMSIS/Include\core_cmSimd.h **** {
 283:C:\Users\Depes Crystalline\Desktop\school\Active_Bike_Lighting_System\Radar_Core/Libraries/CMSIS/Include\core_cmSimd.h ****   uint32_t result;
 284:C:\Users\Depes Crystalline\Desktop\school\Active_Bike_Lighting_System\Radar_Core/Libraries/CMSIS/Include\core_cmSimd.h **** 
 285:C:\Users\Depes Crystalline\Desktop\school\Active_Bike_Lighting_System\Radar_Core/Libraries/CMSIS/Include\core_cmSimd.h ****   __ASM volatile ("ssub16 %0, %1, %2" : "=r" (result) : "r" (op1), "r" (op2) );
 286:C:\Users\Depes Crystalline\Desktop\school\Active_Bike_Lighting_System\Radar_Core/Libraries/CMSIS/Include\core_cmSimd.h ****   return(result);
 287:C:\Users\Depes Crystalline\Desktop\school\Active_Bike_Lighting_System\Radar_Core/Libraries/CMSIS/Include\core_cmSimd.h **** }
 288:C:\Users\Depes Crystalline\Desktop\school\Active_Bike_Lighting_System\Radar_Core/Libraries/CMSIS/Include\core_cmSimd.h **** 
 289:C:\Users\Depes Crystalline\Desktop\school\Active_Bike_Lighting_System\Radar_Core/Libraries/CMSIS/Include\core_cmSimd.h **** __attribute__( ( always_inline ) ) __STATIC_INLINE uint32_t __QSUB16(uint32_t op1, uint32_t op2)
 290:C:\Users\Depes Crystalline\Desktop\school\Active_Bike_Lighting_System\Radar_Core/Libraries/CMSIS/Include\core_cmSimd.h **** {
 291:C:\Users\Depes Crystalline\Desktop\school\Active_Bike_Lighting_System\Radar_Core/Libraries/CMSIS/Include\core_cmSimd.h ****   uint32_t result;
 292:C:\Users\Depes Crystalline\Desktop\school\Active_Bike_Lighting_System\Radar_Core/Libraries/CMSIS/Include\core_cmSimd.h **** 
 293:C:\Users\Depes Crystalline\Desktop\school\Active_Bike_Lighting_System\Radar_Core/Libraries/CMSIS/Include\core_cmSimd.h ****   __ASM volatile ("qsub16 %0, %1, %2" : "=r" (result) : "r" (op1), "r" (op2) );
 294:C:\Users\Depes Crystalline\Desktop\school\Active_Bike_Lighting_System\Radar_Core/Libraries/CMSIS/Include\core_cmSimd.h ****   return(result);
 295:C:\Users\Depes Crystalline\Desktop\school\Active_Bike_Lighting_System\Radar_Core/Libraries/CMSIS/Include\core_cmSimd.h **** }
 296:C:\Users\Depes Crystalline\Desktop\school\Active_Bike_Lighting_System\Radar_Core/Libraries/CMSIS/Include\core_cmSimd.h **** 
 297:C:\Users\Depes Crystalline\Desktop\school\Active_Bike_Lighting_System\Radar_Core/Libraries/CMSIS/Include\core_cmSimd.h **** __attribute__( ( always_inline ) ) __STATIC_INLINE uint32_t __SHSUB16(uint32_t op1, uint32_t op2)
 298:C:\Users\Depes Crystalline\Desktop\school\Active_Bike_Lighting_System\Radar_Core/Libraries/CMSIS/Include\core_cmSimd.h **** {
 299:C:\Users\Depes Crystalline\Desktop\school\Active_Bike_Lighting_System\Radar_Core/Libraries/CMSIS/Include\core_cmSimd.h ****   uint32_t result;
 300:C:\Users\Depes Crystalline\Desktop\school\Active_Bike_Lighting_System\Radar_Core/Libraries/CMSIS/Include\core_cmSimd.h **** 
 301:C:\Users\Depes Crystalline\Desktop\school\Active_Bike_Lighting_System\Radar_Core/Libraries/CMSIS/Include\core_cmSimd.h ****   __ASM volatile ("shsub16 %0, %1, %2" : "=r" (result) : "r" (op1), "r" (op2) );
 302:C:\Users\Depes Crystalline\Desktop\school\Active_Bike_Lighting_System\Radar_Core/Libraries/CMSIS/Include\core_cmSimd.h ****   return(result);
 303:C:\Users\Depes Crystalline\Desktop\school\Active_Bike_Lighting_System\Radar_Core/Libraries/CMSIS/Include\core_cmSimd.h **** }
 304:C:\Users\Depes Crystalline\Desktop\school\Active_Bike_Lighting_System\Radar_Core/Libraries/CMSIS/Include\core_cmSimd.h **** 
 305:C:\Users\Depes Crystalline\Desktop\school\Active_Bike_Lighting_System\Radar_Core/Libraries/CMSIS/Include\core_cmSimd.h **** __attribute__( ( always_inline ) ) __STATIC_INLINE uint32_t __USUB16(uint32_t op1, uint32_t op2)
 306:C:\Users\Depes Crystalline\Desktop\school\Active_Bike_Lighting_System\Radar_Core/Libraries/CMSIS/Include\core_cmSimd.h **** {
 307:C:\Users\Depes Crystalline\Desktop\school\Active_Bike_Lighting_System\Radar_Core/Libraries/CMSIS/Include\core_cmSimd.h ****   uint32_t result;
 308:C:\Users\Depes Crystalline\Desktop\school\Active_Bike_Lighting_System\Radar_Core/Libraries/CMSIS/Include\core_cmSimd.h **** 
 309:C:\Users\Depes Crystalline\Desktop\school\Active_Bike_Lighting_System\Radar_Core/Libraries/CMSIS/Include\core_cmSimd.h ****   __ASM volatile ("usub16 %0, %1, %2" : "=r" (result) : "r" (op1), "r" (op2) );
 310:C:\Users\Depes Crystalline\Desktop\school\Active_Bike_Lighting_System\Radar_Core/Libraries/CMSIS/Include\core_cmSimd.h ****   return(result);
 311:C:\Users\Depes Crystalline\Desktop\school\Active_Bike_Lighting_System\Radar_Core/Libraries/CMSIS/Include\core_cmSimd.h **** }
 312:C:\Users\Depes Crystalline\Desktop\school\Active_Bike_Lighting_System\Radar_Core/Libraries/CMSIS/Include\core_cmSimd.h **** 
 313:C:\Users\Depes Crystalline\Desktop\school\Active_Bike_Lighting_System\Radar_Core/Libraries/CMSIS/Include\core_cmSimd.h **** __attribute__( ( always_inline ) ) __STATIC_INLINE uint32_t __UQSUB16(uint32_t op1, uint32_t op2)
 314:C:\Users\Depes Crystalline\Desktop\school\Active_Bike_Lighting_System\Radar_Core/Libraries/CMSIS/Include\core_cmSimd.h **** {
 315:C:\Users\Depes Crystalline\Desktop\school\Active_Bike_Lighting_System\Radar_Core/Libraries/CMSIS/Include\core_cmSimd.h ****   uint32_t result;
 316:C:\Users\Depes Crystalline\Desktop\school\Active_Bike_Lighting_System\Radar_Core/Libraries/CMSIS/Include\core_cmSimd.h **** 
 317:C:\Users\Depes Crystalline\Desktop\school\Active_Bike_Lighting_System\Radar_Core/Libraries/CMSIS/Include\core_cmSimd.h ****   __ASM volatile ("uqsub16 %0, %1, %2" : "=r" (result) : "r" (op1), "r" (op2) );
 318:C:\Users\Depes Crystalline\Desktop\school\Active_Bike_Lighting_System\Radar_Core/Libraries/CMSIS/Include\core_cmSimd.h ****   return(result);
 319:C:\Users\Depes Crystalline\Desktop\school\Active_Bike_Lighting_System\Radar_Core/Libraries/CMSIS/Include\core_cmSimd.h **** }
 320:C:\Users\Depes Crystalline\Desktop\school\Active_Bike_Lighting_System\Radar_Core/Libraries/CMSIS/Include\core_cmSimd.h **** 
 321:C:\Users\Depes Crystalline\Desktop\school\Active_Bike_Lighting_System\Radar_Core/Libraries/CMSIS/Include\core_cmSimd.h **** __attribute__( ( always_inline ) ) __STATIC_INLINE uint32_t __UHSUB16(uint32_t op1, uint32_t op2)
 322:C:\Users\Depes Crystalline\Desktop\school\Active_Bike_Lighting_System\Radar_Core/Libraries/CMSIS/Include\core_cmSimd.h **** {
 323:C:\Users\Depes Crystalline\Desktop\school\Active_Bike_Lighting_System\Radar_Core/Libraries/CMSIS/Include\core_cmSimd.h ****   uint32_t result;
 324:C:\Users\Depes Crystalline\Desktop\school\Active_Bike_Lighting_System\Radar_Core/Libraries/CMSIS/Include\core_cmSimd.h **** 
 325:C:\Users\Depes Crystalline\Desktop\school\Active_Bike_Lighting_System\Radar_Core/Libraries/CMSIS/Include\core_cmSimd.h ****   __ASM volatile ("uhsub16 %0, %1, %2" : "=r" (result) : "r" (op1), "r" (op2) );
 326:C:\Users\Depes Crystalline\Desktop\school\Active_Bike_Lighting_System\Radar_Core/Libraries/CMSIS/Include\core_cmSimd.h ****   return(result);
 327:C:\Users\Depes Crystalline\Desktop\school\Active_Bike_Lighting_System\Radar_Core/Libraries/CMSIS/Include\core_cmSimd.h **** }
 328:C:\Users\Depes Crystalline\Desktop\school\Active_Bike_Lighting_System\Radar_Core/Libraries/CMSIS/Include\core_cmSimd.h **** 
 329:C:\Users\Depes Crystalline\Desktop\school\Active_Bike_Lighting_System\Radar_Core/Libraries/CMSIS/Include\core_cmSimd.h **** __attribute__( ( always_inline ) ) __STATIC_INLINE uint32_t __SASX(uint32_t op1, uint32_t op2)
 330:C:\Users\Depes Crystalline\Desktop\school\Active_Bike_Lighting_System\Radar_Core/Libraries/CMSIS/Include\core_cmSimd.h **** {
 331:C:\Users\Depes Crystalline\Desktop\school\Active_Bike_Lighting_System\Radar_Core/Libraries/CMSIS/Include\core_cmSimd.h ****   uint32_t result;
 332:C:\Users\Depes Crystalline\Desktop\school\Active_Bike_Lighting_System\Radar_Core/Libraries/CMSIS/Include\core_cmSimd.h **** 
 333:C:\Users\Depes Crystalline\Desktop\school\Active_Bike_Lighting_System\Radar_Core/Libraries/CMSIS/Include\core_cmSimd.h ****   __ASM volatile ("sasx %0, %1, %2" : "=r" (result) : "r" (op1), "r" (op2) );
 334:C:\Users\Depes Crystalline\Desktop\school\Active_Bike_Lighting_System\Radar_Core/Libraries/CMSIS/Include\core_cmSimd.h ****   return(result);
 335:C:\Users\Depes Crystalline\Desktop\school\Active_Bike_Lighting_System\Radar_Core/Libraries/CMSIS/Include\core_cmSimd.h **** }
 336:C:\Users\Depes Crystalline\Desktop\school\Active_Bike_Lighting_System\Radar_Core/Libraries/CMSIS/Include\core_cmSimd.h **** 
 337:C:\Users\Depes Crystalline\Desktop\school\Active_Bike_Lighting_System\Radar_Core/Libraries/CMSIS/Include\core_cmSimd.h **** __attribute__( ( always_inline ) ) __STATIC_INLINE uint32_t __QASX(uint32_t op1, uint32_t op2)
 338:C:\Users\Depes Crystalline\Desktop\school\Active_Bike_Lighting_System\Radar_Core/Libraries/CMSIS/Include\core_cmSimd.h **** {
 339:C:\Users\Depes Crystalline\Desktop\school\Active_Bike_Lighting_System\Radar_Core/Libraries/CMSIS/Include\core_cmSimd.h ****   uint32_t result;
 340:C:\Users\Depes Crystalline\Desktop\school\Active_Bike_Lighting_System\Radar_Core/Libraries/CMSIS/Include\core_cmSimd.h **** 
 341:C:\Users\Depes Crystalline\Desktop\school\Active_Bike_Lighting_System\Radar_Core/Libraries/CMSIS/Include\core_cmSimd.h ****   __ASM volatile ("qasx %0, %1, %2" : "=r" (result) : "r" (op1), "r" (op2) );
 342:C:\Users\Depes Crystalline\Desktop\school\Active_Bike_Lighting_System\Radar_Core/Libraries/CMSIS/Include\core_cmSimd.h ****   return(result);
 343:C:\Users\Depes Crystalline\Desktop\school\Active_Bike_Lighting_System\Radar_Core/Libraries/CMSIS/Include\core_cmSimd.h **** }
 344:C:\Users\Depes Crystalline\Desktop\school\Active_Bike_Lighting_System\Radar_Core/Libraries/CMSIS/Include\core_cmSimd.h **** 
 345:C:\Users\Depes Crystalline\Desktop\school\Active_Bike_Lighting_System\Radar_Core/Libraries/CMSIS/Include\core_cmSimd.h **** __attribute__( ( always_inline ) ) __STATIC_INLINE uint32_t __SHASX(uint32_t op1, uint32_t op2)
 346:C:\Users\Depes Crystalline\Desktop\school\Active_Bike_Lighting_System\Radar_Core/Libraries/CMSIS/Include\core_cmSimd.h **** {
 347:C:\Users\Depes Crystalline\Desktop\school\Active_Bike_Lighting_System\Radar_Core/Libraries/CMSIS/Include\core_cmSimd.h ****   uint32_t result;
 348:C:\Users\Depes Crystalline\Desktop\school\Active_Bike_Lighting_System\Radar_Core/Libraries/CMSIS/Include\core_cmSimd.h **** 
 349:C:\Users\Depes Crystalline\Desktop\school\Active_Bike_Lighting_System\Radar_Core/Libraries/CMSIS/Include\core_cmSimd.h ****   __ASM volatile ("shasx %0, %1, %2" : "=r" (result) : "r" (op1), "r" (op2) );
 350:C:\Users\Depes Crystalline\Desktop\school\Active_Bike_Lighting_System\Radar_Core/Libraries/CMSIS/Include\core_cmSimd.h ****   return(result);
 351:C:\Users\Depes Crystalline\Desktop\school\Active_Bike_Lighting_System\Radar_Core/Libraries/CMSIS/Include\core_cmSimd.h **** }
 352:C:\Users\Depes Crystalline\Desktop\school\Active_Bike_Lighting_System\Radar_Core/Libraries/CMSIS/Include\core_cmSimd.h **** 
 353:C:\Users\Depes Crystalline\Desktop\school\Active_Bike_Lighting_System\Radar_Core/Libraries/CMSIS/Include\core_cmSimd.h **** __attribute__( ( always_inline ) ) __STATIC_INLINE uint32_t __UASX(uint32_t op1, uint32_t op2)
 354:C:\Users\Depes Crystalline\Desktop\school\Active_Bike_Lighting_System\Radar_Core/Libraries/CMSIS/Include\core_cmSimd.h **** {
 355:C:\Users\Depes Crystalline\Desktop\school\Active_Bike_Lighting_System\Radar_Core/Libraries/CMSIS/Include\core_cmSimd.h ****   uint32_t result;
 356:C:\Users\Depes Crystalline\Desktop\school\Active_Bike_Lighting_System\Radar_Core/Libraries/CMSIS/Include\core_cmSimd.h **** 
 357:C:\Users\Depes Crystalline\Desktop\school\Active_Bike_Lighting_System\Radar_Core/Libraries/CMSIS/Include\core_cmSimd.h ****   __ASM volatile ("uasx %0, %1, %2" : "=r" (result) : "r" (op1), "r" (op2) );
 358:C:\Users\Depes Crystalline\Desktop\school\Active_Bike_Lighting_System\Radar_Core/Libraries/CMSIS/Include\core_cmSimd.h ****   return(result);
 359:C:\Users\Depes Crystalline\Desktop\school\Active_Bike_Lighting_System\Radar_Core/Libraries/CMSIS/Include\core_cmSimd.h **** }
 360:C:\Users\Depes Crystalline\Desktop\school\Active_Bike_Lighting_System\Radar_Core/Libraries/CMSIS/Include\core_cmSimd.h **** 
 361:C:\Users\Depes Crystalline\Desktop\school\Active_Bike_Lighting_System\Radar_Core/Libraries/CMSIS/Include\core_cmSimd.h **** __attribute__( ( always_inline ) ) __STATIC_INLINE uint32_t __UQASX(uint32_t op1, uint32_t op2)
 362:C:\Users\Depes Crystalline\Desktop\school\Active_Bike_Lighting_System\Radar_Core/Libraries/CMSIS/Include\core_cmSimd.h **** {
 363:C:\Users\Depes Crystalline\Desktop\school\Active_Bike_Lighting_System\Radar_Core/Libraries/CMSIS/Include\core_cmSimd.h ****   uint32_t result;
 364:C:\Users\Depes Crystalline\Desktop\school\Active_Bike_Lighting_System\Radar_Core/Libraries/CMSIS/Include\core_cmSimd.h **** 
 365:C:\Users\Depes Crystalline\Desktop\school\Active_Bike_Lighting_System\Radar_Core/Libraries/CMSIS/Include\core_cmSimd.h ****   __ASM volatile ("uqasx %0, %1, %2" : "=r" (result) : "r" (op1), "r" (op2) );
 366:C:\Users\Depes Crystalline\Desktop\school\Active_Bike_Lighting_System\Radar_Core/Libraries/CMSIS/Include\core_cmSimd.h ****   return(result);
 367:C:\Users\Depes Crystalline\Desktop\school\Active_Bike_Lighting_System\Radar_Core/Libraries/CMSIS/Include\core_cmSimd.h **** }
 368:C:\Users\Depes Crystalline\Desktop\school\Active_Bike_Lighting_System\Radar_Core/Libraries/CMSIS/Include\core_cmSimd.h **** 
 369:C:\Users\Depes Crystalline\Desktop\school\Active_Bike_Lighting_System\Radar_Core/Libraries/CMSIS/Include\core_cmSimd.h **** __attribute__( ( always_inline ) ) __STATIC_INLINE uint32_t __UHASX(uint32_t op1, uint32_t op2)
 370:C:\Users\Depes Crystalline\Desktop\school\Active_Bike_Lighting_System\Radar_Core/Libraries/CMSIS/Include\core_cmSimd.h **** {
 371:C:\Users\Depes Crystalline\Desktop\school\Active_Bike_Lighting_System\Radar_Core/Libraries/CMSIS/Include\core_cmSimd.h ****   uint32_t result;
 372:C:\Users\Depes Crystalline\Desktop\school\Active_Bike_Lighting_System\Radar_Core/Libraries/CMSIS/Include\core_cmSimd.h **** 
 373:C:\Users\Depes Crystalline\Desktop\school\Active_Bike_Lighting_System\Radar_Core/Libraries/CMSIS/Include\core_cmSimd.h ****   __ASM volatile ("uhasx %0, %1, %2" : "=r" (result) : "r" (op1), "r" (op2) );
 374:C:\Users\Depes Crystalline\Desktop\school\Active_Bike_Lighting_System\Radar_Core/Libraries/CMSIS/Include\core_cmSimd.h ****   return(result);
 375:C:\Users\Depes Crystalline\Desktop\school\Active_Bike_Lighting_System\Radar_Core/Libraries/CMSIS/Include\core_cmSimd.h **** }
 376:C:\Users\Depes Crystalline\Desktop\school\Active_Bike_Lighting_System\Radar_Core/Libraries/CMSIS/Include\core_cmSimd.h **** 
 377:C:\Users\Depes Crystalline\Desktop\school\Active_Bike_Lighting_System\Radar_Core/Libraries/CMSIS/Include\core_cmSimd.h **** __attribute__( ( always_inline ) ) __STATIC_INLINE uint32_t __SSAX(uint32_t op1, uint32_t op2)
 378:C:\Users\Depes Crystalline\Desktop\school\Active_Bike_Lighting_System\Radar_Core/Libraries/CMSIS/Include\core_cmSimd.h **** {
 379:C:\Users\Depes Crystalline\Desktop\school\Active_Bike_Lighting_System\Radar_Core/Libraries/CMSIS/Include\core_cmSimd.h ****   uint32_t result;
 380:C:\Users\Depes Crystalline\Desktop\school\Active_Bike_Lighting_System\Radar_Core/Libraries/CMSIS/Include\core_cmSimd.h **** 
 381:C:\Users\Depes Crystalline\Desktop\school\Active_Bike_Lighting_System\Radar_Core/Libraries/CMSIS/Include\core_cmSimd.h ****   __ASM volatile ("ssax %0, %1, %2" : "=r" (result) : "r" (op1), "r" (op2) );
 382:C:\Users\Depes Crystalline\Desktop\school\Active_Bike_Lighting_System\Radar_Core/Libraries/CMSIS/Include\core_cmSimd.h ****   return(result);
 383:C:\Users\Depes Crystalline\Desktop\school\Active_Bike_Lighting_System\Radar_Core/Libraries/CMSIS/Include\core_cmSimd.h **** }
 384:C:\Users\Depes Crystalline\Desktop\school\Active_Bike_Lighting_System\Radar_Core/Libraries/CMSIS/Include\core_cmSimd.h **** 
 385:C:\Users\Depes Crystalline\Desktop\school\Active_Bike_Lighting_System\Radar_Core/Libraries/CMSIS/Include\core_cmSimd.h **** __attribute__( ( always_inline ) ) __STATIC_INLINE uint32_t __QSAX(uint32_t op1, uint32_t op2)
 386:C:\Users\Depes Crystalline\Desktop\school\Active_Bike_Lighting_System\Radar_Core/Libraries/CMSIS/Include\core_cmSimd.h **** {
 387:C:\Users\Depes Crystalline\Desktop\school\Active_Bike_Lighting_System\Radar_Core/Libraries/CMSIS/Include\core_cmSimd.h ****   uint32_t result;
 388:C:\Users\Depes Crystalline\Desktop\school\Active_Bike_Lighting_System\Radar_Core/Libraries/CMSIS/Include\core_cmSimd.h **** 
 389:C:\Users\Depes Crystalline\Desktop\school\Active_Bike_Lighting_System\Radar_Core/Libraries/CMSIS/Include\core_cmSimd.h ****   __ASM volatile ("qsax %0, %1, %2" : "=r" (result) : "r" (op1), "r" (op2) );
 390:C:\Users\Depes Crystalline\Desktop\school\Active_Bike_Lighting_System\Radar_Core/Libraries/CMSIS/Include\core_cmSimd.h ****   return(result);
 391:C:\Users\Depes Crystalline\Desktop\school\Active_Bike_Lighting_System\Radar_Core/Libraries/CMSIS/Include\core_cmSimd.h **** }
 392:C:\Users\Depes Crystalline\Desktop\school\Active_Bike_Lighting_System\Radar_Core/Libraries/CMSIS/Include\core_cmSimd.h **** 
 393:C:\Users\Depes Crystalline\Desktop\school\Active_Bike_Lighting_System\Radar_Core/Libraries/CMSIS/Include\core_cmSimd.h **** __attribute__( ( always_inline ) ) __STATIC_INLINE uint32_t __SHSAX(uint32_t op1, uint32_t op2)
 394:C:\Users\Depes Crystalline\Desktop\school\Active_Bike_Lighting_System\Radar_Core/Libraries/CMSIS/Include\core_cmSimd.h **** {
 395:C:\Users\Depes Crystalline\Desktop\school\Active_Bike_Lighting_System\Radar_Core/Libraries/CMSIS/Include\core_cmSimd.h ****   uint32_t result;
 396:C:\Users\Depes Crystalline\Desktop\school\Active_Bike_Lighting_System\Radar_Core/Libraries/CMSIS/Include\core_cmSimd.h **** 
 397:C:\Users\Depes Crystalline\Desktop\school\Active_Bike_Lighting_System\Radar_Core/Libraries/CMSIS/Include\core_cmSimd.h ****   __ASM volatile ("shsax %0, %1, %2" : "=r" (result) : "r" (op1), "r" (op2) );
 398:C:\Users\Depes Crystalline\Desktop\school\Active_Bike_Lighting_System\Radar_Core/Libraries/CMSIS/Include\core_cmSimd.h ****   return(result);
 399:C:\Users\Depes Crystalline\Desktop\school\Active_Bike_Lighting_System\Radar_Core/Libraries/CMSIS/Include\core_cmSimd.h **** }
 400:C:\Users\Depes Crystalline\Desktop\school\Active_Bike_Lighting_System\Radar_Core/Libraries/CMSIS/Include\core_cmSimd.h **** 
 401:C:\Users\Depes Crystalline\Desktop\school\Active_Bike_Lighting_System\Radar_Core/Libraries/CMSIS/Include\core_cmSimd.h **** __attribute__( ( always_inline ) ) __STATIC_INLINE uint32_t __USAX(uint32_t op1, uint32_t op2)
 402:C:\Users\Depes Crystalline\Desktop\school\Active_Bike_Lighting_System\Radar_Core/Libraries/CMSIS/Include\core_cmSimd.h **** {
 403:C:\Users\Depes Crystalline\Desktop\school\Active_Bike_Lighting_System\Radar_Core/Libraries/CMSIS/Include\core_cmSimd.h ****   uint32_t result;
 404:C:\Users\Depes Crystalline\Desktop\school\Active_Bike_Lighting_System\Radar_Core/Libraries/CMSIS/Include\core_cmSimd.h **** 
 405:C:\Users\Depes Crystalline\Desktop\school\Active_Bike_Lighting_System\Radar_Core/Libraries/CMSIS/Include\core_cmSimd.h ****   __ASM volatile ("usax %0, %1, %2" : "=r" (result) : "r" (op1), "r" (op2) );
 406:C:\Users\Depes Crystalline\Desktop\school\Active_Bike_Lighting_System\Radar_Core/Libraries/CMSIS/Include\core_cmSimd.h ****   return(result);
 407:C:\Users\Depes Crystalline\Desktop\school\Active_Bike_Lighting_System\Radar_Core/Libraries/CMSIS/Include\core_cmSimd.h **** }
 408:C:\Users\Depes Crystalline\Desktop\school\Active_Bike_Lighting_System\Radar_Core/Libraries/CMSIS/Include\core_cmSimd.h **** 
 409:C:\Users\Depes Crystalline\Desktop\school\Active_Bike_Lighting_System\Radar_Core/Libraries/CMSIS/Include\core_cmSimd.h **** __attribute__( ( always_inline ) ) __STATIC_INLINE uint32_t __UQSAX(uint32_t op1, uint32_t op2)
 410:C:\Users\Depes Crystalline\Desktop\school\Active_Bike_Lighting_System\Radar_Core/Libraries/CMSIS/Include\core_cmSimd.h **** {
 411:C:\Users\Depes Crystalline\Desktop\school\Active_Bike_Lighting_System\Radar_Core/Libraries/CMSIS/Include\core_cmSimd.h ****   uint32_t result;
 412:C:\Users\Depes Crystalline\Desktop\school\Active_Bike_Lighting_System\Radar_Core/Libraries/CMSIS/Include\core_cmSimd.h **** 
 413:C:\Users\Depes Crystalline\Desktop\school\Active_Bike_Lighting_System\Radar_Core/Libraries/CMSIS/Include\core_cmSimd.h ****   __ASM volatile ("uqsax %0, %1, %2" : "=r" (result) : "r" (op1), "r" (op2) );
 414:C:\Users\Depes Crystalline\Desktop\school\Active_Bike_Lighting_System\Radar_Core/Libraries/CMSIS/Include\core_cmSimd.h ****   return(result);
 415:C:\Users\Depes Crystalline\Desktop\school\Active_Bike_Lighting_System\Radar_Core/Libraries/CMSIS/Include\core_cmSimd.h **** }
 416:C:\Users\Depes Crystalline\Desktop\school\Active_Bike_Lighting_System\Radar_Core/Libraries/CMSIS/Include\core_cmSimd.h **** 
 417:C:\Users\Depes Crystalline\Desktop\school\Active_Bike_Lighting_System\Radar_Core/Libraries/CMSIS/Include\core_cmSimd.h **** __attribute__( ( always_inline ) ) __STATIC_INLINE uint32_t __UHSAX(uint32_t op1, uint32_t op2)
 418:C:\Users\Depes Crystalline\Desktop\school\Active_Bike_Lighting_System\Radar_Core/Libraries/CMSIS/Include\core_cmSimd.h **** {
 419:C:\Users\Depes Crystalline\Desktop\school\Active_Bike_Lighting_System\Radar_Core/Libraries/CMSIS/Include\core_cmSimd.h ****   uint32_t result;
 420:C:\Users\Depes Crystalline\Desktop\school\Active_Bike_Lighting_System\Radar_Core/Libraries/CMSIS/Include\core_cmSimd.h **** 
 421:C:\Users\Depes Crystalline\Desktop\school\Active_Bike_Lighting_System\Radar_Core/Libraries/CMSIS/Include\core_cmSimd.h ****   __ASM volatile ("uhsax %0, %1, %2" : "=r" (result) : "r" (op1), "r" (op2) );
 422:C:\Users\Depes Crystalline\Desktop\school\Active_Bike_Lighting_System\Radar_Core/Libraries/CMSIS/Include\core_cmSimd.h ****   return(result);
 423:C:\Users\Depes Crystalline\Desktop\school\Active_Bike_Lighting_System\Radar_Core/Libraries/CMSIS/Include\core_cmSimd.h **** }
 424:C:\Users\Depes Crystalline\Desktop\school\Active_Bike_Lighting_System\Radar_Core/Libraries/CMSIS/Include\core_cmSimd.h **** 
 425:C:\Users\Depes Crystalline\Desktop\school\Active_Bike_Lighting_System\Radar_Core/Libraries/CMSIS/Include\core_cmSimd.h **** __attribute__( ( always_inline ) ) __STATIC_INLINE uint32_t __USAD8(uint32_t op1, uint32_t op2)
 426:C:\Users\Depes Crystalline\Desktop\school\Active_Bike_Lighting_System\Radar_Core/Libraries/CMSIS/Include\core_cmSimd.h **** {
 427:C:\Users\Depes Crystalline\Desktop\school\Active_Bike_Lighting_System\Radar_Core/Libraries/CMSIS/Include\core_cmSimd.h ****   uint32_t result;
 428:C:\Users\Depes Crystalline\Desktop\school\Active_Bike_Lighting_System\Radar_Core/Libraries/CMSIS/Include\core_cmSimd.h **** 
 429:C:\Users\Depes Crystalline\Desktop\school\Active_Bike_Lighting_System\Radar_Core/Libraries/CMSIS/Include\core_cmSimd.h ****   __ASM volatile ("usad8 %0, %1, %2" : "=r" (result) : "r" (op1), "r" (op2) );
 430:C:\Users\Depes Crystalline\Desktop\school\Active_Bike_Lighting_System\Radar_Core/Libraries/CMSIS/Include\core_cmSimd.h ****   return(result);
 431:C:\Users\Depes Crystalline\Desktop\school\Active_Bike_Lighting_System\Radar_Core/Libraries/CMSIS/Include\core_cmSimd.h **** }
 432:C:\Users\Depes Crystalline\Desktop\school\Active_Bike_Lighting_System\Radar_Core/Libraries/CMSIS/Include\core_cmSimd.h **** 
 433:C:\Users\Depes Crystalline\Desktop\school\Active_Bike_Lighting_System\Radar_Core/Libraries/CMSIS/Include\core_cmSimd.h **** __attribute__( ( always_inline ) ) __STATIC_INLINE uint32_t __USADA8(uint32_t op1, uint32_t op2, ui
 434:C:\Users\Depes Crystalline\Desktop\school\Active_Bike_Lighting_System\Radar_Core/Libraries/CMSIS/Include\core_cmSimd.h **** {
 435:C:\Users\Depes Crystalline\Desktop\school\Active_Bike_Lighting_System\Radar_Core/Libraries/CMSIS/Include\core_cmSimd.h ****   uint32_t result;
 436:C:\Users\Depes Crystalline\Desktop\school\Active_Bike_Lighting_System\Radar_Core/Libraries/CMSIS/Include\core_cmSimd.h **** 
 437:C:\Users\Depes Crystalline\Desktop\school\Active_Bike_Lighting_System\Radar_Core/Libraries/CMSIS/Include\core_cmSimd.h ****   __ASM volatile ("usada8 %0, %1, %2, %3" : "=r" (result) : "r" (op1), "r" (op2), "r" (op3) );
 438:C:\Users\Depes Crystalline\Desktop\school\Active_Bike_Lighting_System\Radar_Core/Libraries/CMSIS/Include\core_cmSimd.h ****   return(result);
 439:C:\Users\Depes Crystalline\Desktop\school\Active_Bike_Lighting_System\Radar_Core/Libraries/CMSIS/Include\core_cmSimd.h **** }
 440:C:\Users\Depes Crystalline\Desktop\school\Active_Bike_Lighting_System\Radar_Core/Libraries/CMSIS/Include\core_cmSimd.h **** 
 441:C:\Users\Depes Crystalline\Desktop\school\Active_Bike_Lighting_System\Radar_Core/Libraries/CMSIS/Include\core_cmSimd.h **** #define __SSAT16(ARG1,ARG2) \
 442:C:\Users\Depes Crystalline\Desktop\school\Active_Bike_Lighting_System\Radar_Core/Libraries/CMSIS/Include\core_cmSimd.h **** ({                          \
 443:C:\Users\Depes Crystalline\Desktop\school\Active_Bike_Lighting_System\Radar_Core/Libraries/CMSIS/Include\core_cmSimd.h ****   uint32_t __RES, __ARG1 = (ARG1); \
 444:C:\Users\Depes Crystalline\Desktop\school\Active_Bike_Lighting_System\Radar_Core/Libraries/CMSIS/Include\core_cmSimd.h ****   __ASM ("ssat16 %0, %1, %2" : "=r" (__RES) :  "I" (ARG2), "r" (__ARG1) ); \
 445:C:\Users\Depes Crystalline\Desktop\school\Active_Bike_Lighting_System\Radar_Core/Libraries/CMSIS/Include\core_cmSimd.h ****   __RES; \
 446:C:\Users\Depes Crystalline\Desktop\school\Active_Bike_Lighting_System\Radar_Core/Libraries/CMSIS/Include\core_cmSimd.h ****  })
 447:C:\Users\Depes Crystalline\Desktop\school\Active_Bike_Lighting_System\Radar_Core/Libraries/CMSIS/Include\core_cmSimd.h **** 
 448:C:\Users\Depes Crystalline\Desktop\school\Active_Bike_Lighting_System\Radar_Core/Libraries/CMSIS/Include\core_cmSimd.h **** #define __USAT16(ARG1,ARG2) \
 449:C:\Users\Depes Crystalline\Desktop\school\Active_Bike_Lighting_System\Radar_Core/Libraries/CMSIS/Include\core_cmSimd.h **** ({                          \
 450:C:\Users\Depes Crystalline\Desktop\school\Active_Bike_Lighting_System\Radar_Core/Libraries/CMSIS/Include\core_cmSimd.h ****   uint32_t __RES, __ARG1 = (ARG1); \
 451:C:\Users\Depes Crystalline\Desktop\school\Active_Bike_Lighting_System\Radar_Core/Libraries/CMSIS/Include\core_cmSimd.h ****   __ASM ("usat16 %0, %1, %2" : "=r" (__RES) :  "I" (ARG2), "r" (__ARG1) ); \
 452:C:\Users\Depes Crystalline\Desktop\school\Active_Bike_Lighting_System\Radar_Core/Libraries/CMSIS/Include\core_cmSimd.h ****   __RES; \
 453:C:\Users\Depes Crystalline\Desktop\school\Active_Bike_Lighting_System\Radar_Core/Libraries/CMSIS/Include\core_cmSimd.h ****  })
 454:C:\Users\Depes Crystalline\Desktop\school\Active_Bike_Lighting_System\Radar_Core/Libraries/CMSIS/Include\core_cmSimd.h **** 
 455:C:\Users\Depes Crystalline\Desktop\school\Active_Bike_Lighting_System\Radar_Core/Libraries/CMSIS/Include\core_cmSimd.h **** __attribute__( ( always_inline ) ) __STATIC_INLINE uint32_t __UXTB16(uint32_t op1)
 456:C:\Users\Depes Crystalline\Desktop\school\Active_Bike_Lighting_System\Radar_Core/Libraries/CMSIS/Include\core_cmSimd.h **** {
 457:C:\Users\Depes Crystalline\Desktop\school\Active_Bike_Lighting_System\Radar_Core/Libraries/CMSIS/Include\core_cmSimd.h ****   uint32_t result;
 458:C:\Users\Depes Crystalline\Desktop\school\Active_Bike_Lighting_System\Radar_Core/Libraries/CMSIS/Include\core_cmSimd.h **** 
 459:C:\Users\Depes Crystalline\Desktop\school\Active_Bike_Lighting_System\Radar_Core/Libraries/CMSIS/Include\core_cmSimd.h ****   __ASM volatile ("uxtb16 %0, %1" : "=r" (result) : "r" (op1));
 460:C:\Users\Depes Crystalline\Desktop\school\Active_Bike_Lighting_System\Radar_Core/Libraries/CMSIS/Include\core_cmSimd.h ****   return(result);
 461:C:\Users\Depes Crystalline\Desktop\school\Active_Bike_Lighting_System\Radar_Core/Libraries/CMSIS/Include\core_cmSimd.h **** }
 462:C:\Users\Depes Crystalline\Desktop\school\Active_Bike_Lighting_System\Radar_Core/Libraries/CMSIS/Include\core_cmSimd.h **** 
 463:C:\Users\Depes Crystalline\Desktop\school\Active_Bike_Lighting_System\Radar_Core/Libraries/CMSIS/Include\core_cmSimd.h **** __attribute__( ( always_inline ) ) __STATIC_INLINE uint32_t __UXTAB16(uint32_t op1, uint32_t op2)
 464:C:\Users\Depes Crystalline\Desktop\school\Active_Bike_Lighting_System\Radar_Core/Libraries/CMSIS/Include\core_cmSimd.h **** {
 465:C:\Users\Depes Crystalline\Desktop\school\Active_Bike_Lighting_System\Radar_Core/Libraries/CMSIS/Include\core_cmSimd.h ****   uint32_t result;
 466:C:\Users\Depes Crystalline\Desktop\school\Active_Bike_Lighting_System\Radar_Core/Libraries/CMSIS/Include\core_cmSimd.h **** 
 467:C:\Users\Depes Crystalline\Desktop\school\Active_Bike_Lighting_System\Radar_Core/Libraries/CMSIS/Include\core_cmSimd.h ****   __ASM volatile ("uxtab16 %0, %1, %2" : "=r" (result) : "r" (op1), "r" (op2) );
 468:C:\Users\Depes Crystalline\Desktop\school\Active_Bike_Lighting_System\Radar_Core/Libraries/CMSIS/Include\core_cmSimd.h ****   return(result);
 469:C:\Users\Depes Crystalline\Desktop\school\Active_Bike_Lighting_System\Radar_Core/Libraries/CMSIS/Include\core_cmSimd.h **** }
 470:C:\Users\Depes Crystalline\Desktop\school\Active_Bike_Lighting_System\Radar_Core/Libraries/CMSIS/Include\core_cmSimd.h **** 
 471:C:\Users\Depes Crystalline\Desktop\school\Active_Bike_Lighting_System\Radar_Core/Libraries/CMSIS/Include\core_cmSimd.h **** __attribute__( ( always_inline ) ) __STATIC_INLINE uint32_t __SXTB16(uint32_t op1)
 472:C:\Users\Depes Crystalline\Desktop\school\Active_Bike_Lighting_System\Radar_Core/Libraries/CMSIS/Include\core_cmSimd.h **** {
 473:C:\Users\Depes Crystalline\Desktop\school\Active_Bike_Lighting_System\Radar_Core/Libraries/CMSIS/Include\core_cmSimd.h ****   uint32_t result;
 474:C:\Users\Depes Crystalline\Desktop\school\Active_Bike_Lighting_System\Radar_Core/Libraries/CMSIS/Include\core_cmSimd.h **** 
 475:C:\Users\Depes Crystalline\Desktop\school\Active_Bike_Lighting_System\Radar_Core/Libraries/CMSIS/Include\core_cmSimd.h ****   __ASM volatile ("sxtb16 %0, %1" : "=r" (result) : "r" (op1));
 476:C:\Users\Depes Crystalline\Desktop\school\Active_Bike_Lighting_System\Radar_Core/Libraries/CMSIS/Include\core_cmSimd.h ****   return(result);
 477:C:\Users\Depes Crystalline\Desktop\school\Active_Bike_Lighting_System\Radar_Core/Libraries/CMSIS/Include\core_cmSimd.h **** }
 478:C:\Users\Depes Crystalline\Desktop\school\Active_Bike_Lighting_System\Radar_Core/Libraries/CMSIS/Include\core_cmSimd.h **** 
 479:C:\Users\Depes Crystalline\Desktop\school\Active_Bike_Lighting_System\Radar_Core/Libraries/CMSIS/Include\core_cmSimd.h **** __attribute__( ( always_inline ) ) __STATIC_INLINE uint32_t __SXTAB16(uint32_t op1, uint32_t op2)
 480:C:\Users\Depes Crystalline\Desktop\school\Active_Bike_Lighting_System\Radar_Core/Libraries/CMSIS/Include\core_cmSimd.h **** {
 481:C:\Users\Depes Crystalline\Desktop\school\Active_Bike_Lighting_System\Radar_Core/Libraries/CMSIS/Include\core_cmSimd.h ****   uint32_t result;
 482:C:\Users\Depes Crystalline\Desktop\school\Active_Bike_Lighting_System\Radar_Core/Libraries/CMSIS/Include\core_cmSimd.h **** 
 483:C:\Users\Depes Crystalline\Desktop\school\Active_Bike_Lighting_System\Radar_Core/Libraries/CMSIS/Include\core_cmSimd.h ****   __ASM volatile ("sxtab16 %0, %1, %2" : "=r" (result) : "r" (op1), "r" (op2) );
 484:C:\Users\Depes Crystalline\Desktop\school\Active_Bike_Lighting_System\Radar_Core/Libraries/CMSIS/Include\core_cmSimd.h ****   return(result);
 485:C:\Users\Depes Crystalline\Desktop\school\Active_Bike_Lighting_System\Radar_Core/Libraries/CMSIS/Include\core_cmSimd.h **** }
 486:C:\Users\Depes Crystalline\Desktop\school\Active_Bike_Lighting_System\Radar_Core/Libraries/CMSIS/Include\core_cmSimd.h **** 
 487:C:\Users\Depes Crystalline\Desktop\school\Active_Bike_Lighting_System\Radar_Core/Libraries/CMSIS/Include\core_cmSimd.h **** __attribute__( ( always_inline ) ) __STATIC_INLINE uint32_t __SMUAD  (uint32_t op1, uint32_t op2)
 488:C:\Users\Depes Crystalline\Desktop\school\Active_Bike_Lighting_System\Radar_Core/Libraries/CMSIS/Include\core_cmSimd.h **** {
 489:C:\Users\Depes Crystalline\Desktop\school\Active_Bike_Lighting_System\Radar_Core/Libraries/CMSIS/Include\core_cmSimd.h ****   uint32_t result;
 490:C:\Users\Depes Crystalline\Desktop\school\Active_Bike_Lighting_System\Radar_Core/Libraries/CMSIS/Include\core_cmSimd.h **** 
 491:C:\Users\Depes Crystalline\Desktop\school\Active_Bike_Lighting_System\Radar_Core/Libraries/CMSIS/Include\core_cmSimd.h ****   __ASM volatile ("smuad %0, %1, %2" : "=r" (result) : "r" (op1), "r" (op2) );
 492:C:\Users\Depes Crystalline\Desktop\school\Active_Bike_Lighting_System\Radar_Core/Libraries/CMSIS/Include\core_cmSimd.h ****   return(result);
 493:C:\Users\Depes Crystalline\Desktop\school\Active_Bike_Lighting_System\Radar_Core/Libraries/CMSIS/Include\core_cmSimd.h **** }
 494:C:\Users\Depes Crystalline\Desktop\school\Active_Bike_Lighting_System\Radar_Core/Libraries/CMSIS/Include\core_cmSimd.h **** 
 495:C:\Users\Depes Crystalline\Desktop\school\Active_Bike_Lighting_System\Radar_Core/Libraries/CMSIS/Include\core_cmSimd.h **** __attribute__( ( always_inline ) ) __STATIC_INLINE uint32_t __SMUADX (uint32_t op1, uint32_t op2)
 496:C:\Users\Depes Crystalline\Desktop\school\Active_Bike_Lighting_System\Radar_Core/Libraries/CMSIS/Include\core_cmSimd.h **** {
 497:C:\Users\Depes Crystalline\Desktop\school\Active_Bike_Lighting_System\Radar_Core/Libraries/CMSIS/Include\core_cmSimd.h ****   uint32_t result;
 498:C:\Users\Depes Crystalline\Desktop\school\Active_Bike_Lighting_System\Radar_Core/Libraries/CMSIS/Include\core_cmSimd.h **** 
 499:C:\Users\Depes Crystalline\Desktop\school\Active_Bike_Lighting_System\Radar_Core/Libraries/CMSIS/Include\core_cmSimd.h ****   __ASM volatile ("smuadx %0, %1, %2" : "=r" (result) : "r" (op1), "r" (op2) );
 500:C:\Users\Depes Crystalline\Desktop\school\Active_Bike_Lighting_System\Radar_Core/Libraries/CMSIS/Include\core_cmSimd.h ****   return(result);
 501:C:\Users\Depes Crystalline\Desktop\school\Active_Bike_Lighting_System\Radar_Core/Libraries/CMSIS/Include\core_cmSimd.h **** }
 502:C:\Users\Depes Crystalline\Desktop\school\Active_Bike_Lighting_System\Radar_Core/Libraries/CMSIS/Include\core_cmSimd.h **** 
 503:C:\Users\Depes Crystalline\Desktop\school\Active_Bike_Lighting_System\Radar_Core/Libraries/CMSIS/Include\core_cmSimd.h **** __attribute__( ( always_inline ) ) __STATIC_INLINE uint32_t __SMLAD (uint32_t op1, uint32_t op2, ui
 504:C:\Users\Depes Crystalline\Desktop\school\Active_Bike_Lighting_System\Radar_Core/Libraries/CMSIS/Include\core_cmSimd.h **** {
 505:C:\Users\Depes Crystalline\Desktop\school\Active_Bike_Lighting_System\Radar_Core/Libraries/CMSIS/Include\core_cmSimd.h ****   uint32_t result;
 506:C:\Users\Depes Crystalline\Desktop\school\Active_Bike_Lighting_System\Radar_Core/Libraries/CMSIS/Include\core_cmSimd.h **** 
 507:C:\Users\Depes Crystalline\Desktop\school\Active_Bike_Lighting_System\Radar_Core/Libraries/CMSIS/Include\core_cmSimd.h ****   __ASM volatile ("smlad %0, %1, %2, %3" : "=r" (result) : "r" (op1), "r" (op2), "r" (op3) );
 508:C:\Users\Depes Crystalline\Desktop\school\Active_Bike_Lighting_System\Radar_Core/Libraries/CMSIS/Include\core_cmSimd.h ****   return(result);
 509:C:\Users\Depes Crystalline\Desktop\school\Active_Bike_Lighting_System\Radar_Core/Libraries/CMSIS/Include\core_cmSimd.h **** }
 510:C:\Users\Depes Crystalline\Desktop\school\Active_Bike_Lighting_System\Radar_Core/Libraries/CMSIS/Include\core_cmSimd.h **** 
 511:C:\Users\Depes Crystalline\Desktop\school\Active_Bike_Lighting_System\Radar_Core/Libraries/CMSIS/Include\core_cmSimd.h **** __attribute__( ( always_inline ) ) __STATIC_INLINE uint32_t __SMLADX (uint32_t op1, uint32_t op2, u
 512:C:\Users\Depes Crystalline\Desktop\school\Active_Bike_Lighting_System\Radar_Core/Libraries/CMSIS/Include\core_cmSimd.h **** {
 513:C:\Users\Depes Crystalline\Desktop\school\Active_Bike_Lighting_System\Radar_Core/Libraries/CMSIS/Include\core_cmSimd.h ****   uint32_t result;
 514:C:\Users\Depes Crystalline\Desktop\school\Active_Bike_Lighting_System\Radar_Core/Libraries/CMSIS/Include\core_cmSimd.h **** 
 515:C:\Users\Depes Crystalline\Desktop\school\Active_Bike_Lighting_System\Radar_Core/Libraries/CMSIS/Include\core_cmSimd.h ****   __ASM volatile ("smladx %0, %1, %2, %3" : "=r" (result) : "r" (op1), "r" (op2), "r" (op3) );
 516:C:\Users\Depes Crystalline\Desktop\school\Active_Bike_Lighting_System\Radar_Core/Libraries/CMSIS/Include\core_cmSimd.h ****   return(result);
 517:C:\Users\Depes Crystalline\Desktop\school\Active_Bike_Lighting_System\Radar_Core/Libraries/CMSIS/Include\core_cmSimd.h **** }
 518:C:\Users\Depes Crystalline\Desktop\school\Active_Bike_Lighting_System\Radar_Core/Libraries/CMSIS/Include\core_cmSimd.h **** 
 519:C:\Users\Depes Crystalline\Desktop\school\Active_Bike_Lighting_System\Radar_Core/Libraries/CMSIS/Include\core_cmSimd.h **** __attribute__( ( always_inline ) ) __STATIC_INLINE uint64_t __SMLALD (uint32_t op1, uint32_t op2, u
 520:C:\Users\Depes Crystalline\Desktop\school\Active_Bike_Lighting_System\Radar_Core/Libraries/CMSIS/Include\core_cmSimd.h **** {
 521:C:\Users\Depes Crystalline\Desktop\school\Active_Bike_Lighting_System\Radar_Core/Libraries/CMSIS/Include\core_cmSimd.h ****   union llreg_u{
 522:C:\Users\Depes Crystalline\Desktop\school\Active_Bike_Lighting_System\Radar_Core/Libraries/CMSIS/Include\core_cmSimd.h ****     uint32_t w32[2];
 523:C:\Users\Depes Crystalline\Desktop\school\Active_Bike_Lighting_System\Radar_Core/Libraries/CMSIS/Include\core_cmSimd.h ****     uint64_t w64;
 524:C:\Users\Depes Crystalline\Desktop\school\Active_Bike_Lighting_System\Radar_Core/Libraries/CMSIS/Include\core_cmSimd.h ****   } llr;
 525:C:\Users\Depes Crystalline\Desktop\school\Active_Bike_Lighting_System\Radar_Core/Libraries/CMSIS/Include\core_cmSimd.h ****   llr.w64 = acc;
 214              	 .loc 2 525 0
 215 019c 07F14001 	 add r1,r7,#64
 216 01a0 07F54273 	 add r3,r7,#776
 217 01a4 D3E90023 	 ldrd r2,[r3]
 218 01a8 C1E90023 	 strd r2,[r1]
 526:C:\Users\Depes Crystalline\Desktop\school\Active_Bike_Lighting_System\Radar_Core/Libraries/CMSIS/Include\core_cmSimd.h **** 
 527:C:\Users\Depes Crystalline\Desktop\school\Active_Bike_Lighting_System\Radar_Core/Libraries/CMSIS/Include\core_cmSimd.h **** #ifndef __ARMEB__   // Little endian
 528:C:\Users\Depes Crystalline\Desktop\school\Active_Bike_Lighting_System\Radar_Core/Libraries/CMSIS/Include\core_cmSimd.h ****   __ASM volatile ("smlald %0, %1, %2, %3" : "=r" (llr.w32[0]), "=r" (llr.w32[1]): "r" (op1), "r" (o
 219              	 .loc 2 528 0
 220 01ac 07F14003 	 add r3,r7,#64
 221 01b0 1A68     	 ldr r2,[r3]
 222 01b2 07F14003 	 add r3,r7,#64
 223 01b6 5968     	 ldr r1,[r3,#4]
 224 01b8 D7F81803 	 ldr r0,[r7,#792]
 225 01bc D7F81433 	 ldr r3,[r7,#788]
 226              	
 227 01c0 C0FBC321 	 smlald r2,r1,r0,r3
 228              	
 229              	 .thumb
 230 01c4 07F14003 	 add r3,r7,#64
 231 01c8 1A60     	 str r2,[r3]
 232 01ca 07F14003 	 add r3,r7,#64
 233 01ce 5960     	 str r1,[r3,#4]
 529:C:\Users\Depes Crystalline\Desktop\school\Active_Bike_Lighting_System\Radar_Core/Libraries/CMSIS/Include\core_cmSimd.h **** #else               // Big endian
 530:C:\Users\Depes Crystalline\Desktop\school\Active_Bike_Lighting_System\Radar_Core/Libraries/CMSIS/Include\core_cmSimd.h ****   __ASM volatile ("smlald %0, %1, %2, %3" : "=r" (llr.w32[1]), "=r" (llr.w32[0]): "r" (op1), "r" (o
 531:C:\Users\Depes Crystalline\Desktop\school\Active_Bike_Lighting_System\Radar_Core/Libraries/CMSIS/Include\core_cmSimd.h **** #endif
 532:C:\Users\Depes Crystalline\Desktop\school\Active_Bike_Lighting_System\Radar_Core/Libraries/CMSIS/Include\core_cmSimd.h **** 
 533:C:\Users\Depes Crystalline\Desktop\school\Active_Bike_Lighting_System\Radar_Core/Libraries/CMSIS/Include\core_cmSimd.h ****   return(llr.w64);
 234              	 .loc 2 533 0
 235 01d0 07F14003 	 add r3,r7,#64
 236 01d4 D3E90023 	 ldrd r2,[r3]
 237              	.LBE71:
 238              	.LBE70:
 239              	 .loc 1 211 0
 240 01d8 07F56E71 	 add r1,r7,#952
 241 01dc C1E90023 	 strd r2,[r1]
 212:../Dave/Generated/CMSIS_DSP/FilteringFunctions/arm_correlate_q15.c ****       /* x[3] * y[srcBLen - 1] , x[2] * y[srcBLen - 2] */
 213:../Dave/Generated/CMSIS_DSP/FilteringFunctions/arm_correlate_q15.c ****       sum = __SMLALD(*__SIMD32(px)++, *__SIMD32(py)++, sum);
 242              	 .loc 1 213 0
 243 01e0 07F59A71 	 add r1,r7,#308
 244 01e4 0A68     	 ldr r2,[r1]
 245 01e6 131D     	 adds r3,r2,#4
 246 01e8 0B60     	 str r3,[r1]
 247 01ea 1368     	 ldr r3,[r2]
 248 01ec 1846     	 mov r0,r3
 249 01ee 07F59871 	 add r1,r7,#304
 250 01f2 0A68     	 ldr r2,[r1]
 251 01f4 131D     	 adds r3,r2,#4
 252 01f6 0B60     	 str r3,[r1]
 253 01f8 1368     	 ldr r3,[r2]
 254 01fa 1946     	 mov r1,r3
 255 01fc 07F56E73 	 add r3,r7,#952
 256 0200 D3E90023 	 ldrd r2,[r3]
 257 0204 C7F80403 	 str r0,[r7,#772]
 258 0208 C7F80013 	 str r1,[r7,#768]
 259 020c 07F53E71 	 add r1,r7,#760
 260 0210 C1E90023 	 strd r2,[r1]
 261              	.LBB72:
 262              	.LBB73:
 525:C:\Users\Depes Crystalline\Desktop\school\Active_Bike_Lighting_System\Radar_Core/Libraries/CMSIS/Include\core_cmSimd.h **** 
 263              	 .loc 2 525 0
 264 0214 07F14801 	 add r1,r7,#72
 265 0218 07F53E73 	 add r3,r7,#760
 266 021c D3E90023 	 ldrd r2,[r3]
 267 0220 C1E90023 	 strd r2,[r1]
 528:C:\Users\Depes Crystalline\Desktop\school\Active_Bike_Lighting_System\Radar_Core/Libraries/CMSIS/Include\core_cmSimd.h **** #else               // Big endian
 268              	 .loc 2 528 0
 269 0224 07F14803 	 add r3,r7,#72
 270 0228 1A68     	 ldr r2,[r3]
 271 022a 07F14803 	 add r3,r7,#72
 272 022e 5968     	 ldr r1,[r3,#4]
 273 0230 D7F80403 	 ldr r0,[r7,#772]
 274 0234 D7F80033 	 ldr r3,[r7,#768]
 275              	
 276 0238 C0FBC321 	 smlald r2,r1,r0,r3
 277              	
 278              	 .thumb
 279 023c 07F14803 	 add r3,r7,#72
 280 0240 1A60     	 str r2,[r3]
 281 0242 07F14803 	 add r3,r7,#72
 282 0246 5960     	 str r1,[r3,#4]
 283              	 .loc 2 533 0
 284 0248 07F14803 	 add r3,r7,#72
 285 024c D3E90023 	 ldrd r2,[r3]
 286              	.LBE73:
 287              	.LBE72:
 288              	 .loc 1 213 0
 289 0250 07F56E71 	 add r1,r7,#952
 290 0254 C1E90023 	 strd r2,[r1]
 214:../Dave/Generated/CMSIS_DSP/FilteringFunctions/arm_correlate_q15.c **** 
 215:../Dave/Generated/CMSIS_DSP/FilteringFunctions/arm_correlate_q15.c ****       /* Decrement the loop counter */
 216:../Dave/Generated/CMSIS_DSP/FilteringFunctions/arm_correlate_q15.c ****       k--;
 291              	 .loc 1 216 0
 292 0258 D7F88833 	 ldr r3,[r7,#904]
 293 025c 013B     	 subs r3,r3,#1
 294 025e C7F88833 	 str r3,[r7,#904]
 295              	.L5:
 208:../Dave/Generated/CMSIS_DSP/FilteringFunctions/arm_correlate_q15.c ****     {
 296              	 .loc 1 208 0
 297 0262 D7F88833 	 ldr r3,[r7,#904]
 298 0266 002B     	 cmp r3,#0
 299 0268 7FF47EAF 	 bne .L8
 217:../Dave/Generated/CMSIS_DSP/FilteringFunctions/arm_correlate_q15.c ****     }
 218:../Dave/Generated/CMSIS_DSP/FilteringFunctions/arm_correlate_q15.c **** 
 219:../Dave/Generated/CMSIS_DSP/FilteringFunctions/arm_correlate_q15.c ****     /* If the count is not a multiple of 4, compute any remaining MACs here.   
 220:../Dave/Generated/CMSIS_DSP/FilteringFunctions/arm_correlate_q15.c ****      ** No loop unrolling is used. */
 221:../Dave/Generated/CMSIS_DSP/FilteringFunctions/arm_correlate_q15.c ****     k = count % 0x4u;
 300              	 .loc 1 221 0
 301 026c D7F88433 	 ldr r3,[r7,#900]
 302 0270 03F00303 	 and r3,r3,#3
 303 0274 C7F88833 	 str r3,[r7,#904]
 222:../Dave/Generated/CMSIS_DSP/FilteringFunctions/arm_correlate_q15.c **** 
 223:../Dave/Generated/CMSIS_DSP/FilteringFunctions/arm_correlate_q15.c ****     while(k > 0u)
 304              	 .loc 1 223 0
 305 0278 44E0     	 b .L9
 306              	.L11:
 224:../Dave/Generated/CMSIS_DSP/FilteringFunctions/arm_correlate_q15.c ****     {
 225:../Dave/Generated/CMSIS_DSP/FilteringFunctions/arm_correlate_q15.c ****       /* Perform the multiply-accumulates */
 226:../Dave/Generated/CMSIS_DSP/FilteringFunctions/arm_correlate_q15.c ****       /* x[0] * y[srcBLen - 1] */
 227:../Dave/Generated/CMSIS_DSP/FilteringFunctions/arm_correlate_q15.c ****       sum = __SMLALD(*px++, *py++, sum);
 307              	 .loc 1 227 0
 308 027a 07F59A73 	 add r3,r7,#308
 309 027e 1968     	 ldr r1,[r3]
 310 0280 8A1C     	 adds r2,r1,#2
 311 0282 07F59A73 	 add r3,r7,#308
 312 0286 1A60     	 str r2,[r3]
 313 0288 0B88     	 ldrh r3,[r1]
 314 028a 18B2     	 sxth r0,r3
 315 028c 07F59873 	 add r3,r7,#304
 316 0290 1968     	 ldr r1,[r3]
 317 0292 8A1C     	 adds r2,r1,#2
 318 0294 07F59873 	 add r3,r7,#304
 319 0298 1A60     	 str r2,[r3]
 320 029a 0B88     	 ldrh r3,[r1]
 321 029c 19B2     	 sxth r1,r3
 322 029e 07F56E73 	 add r3,r7,#952
 323 02a2 D3E90023 	 ldrd r2,[r3]
 324 02a6 C7F8F402 	 str r0,[r7,#756]
 325 02aa C7F8F012 	 str r1,[r7,#752]
 326 02ae 07F53A71 	 add r1,r7,#744
 327 02b2 C1E90023 	 strd r2,[r1]
 328              	.LBB74:
 329              	.LBB75:
 525:C:\Users\Depes Crystalline\Desktop\school\Active_Bike_Lighting_System\Radar_Core/Libraries/CMSIS/Include\core_cmSimd.h **** 
 330              	 .loc 2 525 0
 331 02b6 07F15001 	 add r1,r7,#80
 332 02ba 07F53A73 	 add r3,r7,#744
 333 02be D3E90023 	 ldrd r2,[r3]
 334 02c2 C1E90023 	 strd r2,[r1]
 528:C:\Users\Depes Crystalline\Desktop\school\Active_Bike_Lighting_System\Radar_Core/Libraries/CMSIS/Include\core_cmSimd.h **** #else               // Big endian
 335              	 .loc 2 528 0
 336 02c6 07F15003 	 add r3,r7,#80
 337 02ca 1A68     	 ldr r2,[r3]
 338 02cc 07F15003 	 add r3,r7,#80
 339 02d0 5968     	 ldr r1,[r3,#4]
 340 02d2 D7F8F402 	 ldr r0,[r7,#756]
 341 02d6 D7F8F032 	 ldr r3,[r7,#752]
 342              	
 343 02da C0FBC321 	 smlald r2,r1,r0,r3
 344              	
 345              	 .thumb
 346 02de 07F15003 	 add r3,r7,#80
 347 02e2 1A60     	 str r2,[r3]
 348 02e4 07F15003 	 add r3,r7,#80
 349 02e8 5960     	 str r1,[r3,#4]
 350              	 .loc 2 533 0
 351 02ea 07F15003 	 add r3,r7,#80
 352 02ee D3E90023 	 ldrd r2,[r3]
 353              	.LBE75:
 354              	.LBE74:
 355              	 .loc 1 227 0
 356 02f2 07F56E71 	 add r1,r7,#952
 357 02f6 C1E90023 	 strd r2,[r1]
 228:../Dave/Generated/CMSIS_DSP/FilteringFunctions/arm_correlate_q15.c **** 
 229:../Dave/Generated/CMSIS_DSP/FilteringFunctions/arm_correlate_q15.c ****       /* Decrement the loop counter */
 230:../Dave/Generated/CMSIS_DSP/FilteringFunctions/arm_correlate_q15.c ****       k--;
 358              	 .loc 1 230 0
 359 02fa D7F88833 	 ldr r3,[r7,#904]
 360 02fe 013B     	 subs r3,r3,#1
 361 0300 C7F88833 	 str r3,[r7,#904]
 362              	.L9:
 223:../Dave/Generated/CMSIS_DSP/FilteringFunctions/arm_correlate_q15.c ****     {
 363              	 .loc 1 223 0
 364 0304 D7F88833 	 ldr r3,[r7,#904]
 365 0308 002B     	 cmp r3,#0
 366 030a B6D1     	 bne .L11
 367              	.LBB76:
 231:../Dave/Generated/CMSIS_DSP/FilteringFunctions/arm_correlate_q15.c ****     }
 232:../Dave/Generated/CMSIS_DSP/FilteringFunctions/arm_correlate_q15.c **** 
 233:../Dave/Generated/CMSIS_DSP/FilteringFunctions/arm_correlate_q15.c ****     /* Store the result in the accumulator in the destination buffer. */
 234:../Dave/Generated/CMSIS_DSP/FilteringFunctions/arm_correlate_q15.c ****     *pOut = (q15_t) (__SSAT((sum >> 15), 16));
 368              	 .loc 1 234 0
 369 030c 07F56E73 	 add r3,r7,#952
 370 0310 D3E90023 	 ldrd r2,[r3]
 371 0314 4FEAD23A 	 lsr r10,r2,#15
 372 0318 4AEA434A 	 orr r10,r10,r3,lsl#17
 373 031c 4FEAE33B 	 asr fp,r3,#15
 374 0320 5346     	 mov r3,r10
 375 0322 C7F86433 	 str r3,[r7,#868]
 376 0326 D7F86433 	 ldr r3,[r7,#868]
 377              	
 378 032a 03F30F03 	 ssat r3,#16,r3
 379              	
 380              	 .thumb
 381 032e C7F86033 	 str r3,[r7,#864]
 382 0332 D7F86033 	 ldr r3,[r7,#864]
 383              	.LBE76:
 384 0336 9BB2     	 uxth r3,r3
 385 0338 D7F8C423 	 ldr r2,[r7,#964]
 386 033c 1380     	 strh r3,[r2]
 235:../Dave/Generated/CMSIS_DSP/FilteringFunctions/arm_correlate_q15.c ****     /* Destination pointer is updated according to the address modifier, inc */
 236:../Dave/Generated/CMSIS_DSP/FilteringFunctions/arm_correlate_q15.c ****     pOut += inc;
 387              	 .loc 1 236 0
 388 033e D7F87433 	 ldr r3,[r7,#884]
 389 0342 5A00     	 lsls r2,r3,#1
 390 0344 D7F8C433 	 ldr r3,[r7,#964]
 391 0348 1344     	 add r3,r3,r2
 392 034a C7F8C433 	 str r3,[r7,#964]
 237:../Dave/Generated/CMSIS_DSP/FilteringFunctions/arm_correlate_q15.c **** 
 238:../Dave/Generated/CMSIS_DSP/FilteringFunctions/arm_correlate_q15.c ****     /* Update the inputA and inputB pointers for next MAC calculation */
 239:../Dave/Generated/CMSIS_DSP/FilteringFunctions/arm_correlate_q15.c ****     py = pSrc1 - count;
 393              	 .loc 1 239 0
 394 034e D7F88433 	 ldr r3,[r7,#900]
 395 0352 5B00     	 lsls r3,r3,#1
 396 0354 5A42     	 negs r2,r3
 397 0356 D7F89433 	 ldr r3,[r7,#916]
 398 035a 1A44     	 add r2,r2,r3
 399 035c 07F59873 	 add r3,r7,#304
 400 0360 1A60     	 str r2,[r3]
 240:../Dave/Generated/CMSIS_DSP/FilteringFunctions/arm_correlate_q15.c ****     px = pIn1;
 401              	 .loc 1 240 0
 402 0362 07F59A72 	 add r2,r7,#308
 403 0366 D7F8CC33 	 ldr r3,[r7,#972]
 404 036a 1360     	 str r3,[r2]
 241:../Dave/Generated/CMSIS_DSP/FilteringFunctions/arm_correlate_q15.c **** 
 242:../Dave/Generated/CMSIS_DSP/FilteringFunctions/arm_correlate_q15.c ****     /* Increment the MAC count */
 243:../Dave/Generated/CMSIS_DSP/FilteringFunctions/arm_correlate_q15.c ****     count++;
 405              	 .loc 1 243 0
 406 036c D7F88433 	 ldr r3,[r7,#900]
 407 0370 0133     	 adds r3,r3,#1
 408 0372 C7F88433 	 str r3,[r7,#900]
 244:../Dave/Generated/CMSIS_DSP/FilteringFunctions/arm_correlate_q15.c **** 
 245:../Dave/Generated/CMSIS_DSP/FilteringFunctions/arm_correlate_q15.c ****     /* Decrement the loop counter */
 246:../Dave/Generated/CMSIS_DSP/FilteringFunctions/arm_correlate_q15.c ****     blockSize1--;
 409              	 .loc 1 246 0
 410 0376 D7F87C33 	 ldr r3,[r7,#892]
 411 037a 013B     	 subs r3,r3,#1
 412 037c C7F87C33 	 str r3,[r7,#892]
 413              	.L4:
 198:../Dave/Generated/CMSIS_DSP/FilteringFunctions/arm_correlate_q15.c ****   {
 414              	 .loc 1 198 0
 415 0380 D7F87C33 	 ldr r3,[r7,#892]
 416 0384 002B     	 cmp r3,#0
 417 0386 7FF4E1AE 	 bne .L12
 247:../Dave/Generated/CMSIS_DSP/FilteringFunctions/arm_correlate_q15.c ****   }
 248:../Dave/Generated/CMSIS_DSP/FilteringFunctions/arm_correlate_q15.c **** 
 249:../Dave/Generated/CMSIS_DSP/FilteringFunctions/arm_correlate_q15.c ****   /* --------------------------   
 250:../Dave/Generated/CMSIS_DSP/FilteringFunctions/arm_correlate_q15.c ****    * Initializations of stage2   
 251:../Dave/Generated/CMSIS_DSP/FilteringFunctions/arm_correlate_q15.c ****    * ------------------------*/
 252:../Dave/Generated/CMSIS_DSP/FilteringFunctions/arm_correlate_q15.c **** 
 253:../Dave/Generated/CMSIS_DSP/FilteringFunctions/arm_correlate_q15.c ****   /* sum = x[0] * y[0] + x[1] * y[1] +...+ x[srcBLen-1] * y[srcBLen-1]   
 254:../Dave/Generated/CMSIS_DSP/FilteringFunctions/arm_correlate_q15.c ****    * sum = x[1] * y[0] + x[2] * y[1] +...+ x[srcBLen] * y[srcBLen-1]   
 255:../Dave/Generated/CMSIS_DSP/FilteringFunctions/arm_correlate_q15.c ****    * ....   
 256:../Dave/Generated/CMSIS_DSP/FilteringFunctions/arm_correlate_q15.c ****    * sum = x[srcALen-srcBLen-2] * y[0] + x[srcALen-srcBLen-1] * y[1] +...+ x[srcALen-1] * y[srcBLen
 257:../Dave/Generated/CMSIS_DSP/FilteringFunctions/arm_correlate_q15.c ****    */
 258:../Dave/Generated/CMSIS_DSP/FilteringFunctions/arm_correlate_q15.c **** 
 259:../Dave/Generated/CMSIS_DSP/FilteringFunctions/arm_correlate_q15.c ****   /* Working pointer of inputA */
 260:../Dave/Generated/CMSIS_DSP/FilteringFunctions/arm_correlate_q15.c ****   px = pIn1;
 418              	 .loc 1 260 0
 419 038a 07F59A72 	 add r2,r7,#308
 420 038e D7F8CC33 	 ldr r3,[r7,#972]
 421 0392 1360     	 str r3,[r2]
 261:../Dave/Generated/CMSIS_DSP/FilteringFunctions/arm_correlate_q15.c **** 
 262:../Dave/Generated/CMSIS_DSP/FilteringFunctions/arm_correlate_q15.c ****   /* Working pointer of inputB */
 263:../Dave/Generated/CMSIS_DSP/FilteringFunctions/arm_correlate_q15.c ****   py = pIn2;
 422              	 .loc 1 263 0
 423 0394 07F59872 	 add r2,r7,#304
 424 0398 D7F8C833 	 ldr r3,[r7,#968]
 425 039c 1360     	 str r3,[r2]
 264:../Dave/Generated/CMSIS_DSP/FilteringFunctions/arm_correlate_q15.c **** 
 265:../Dave/Generated/CMSIS_DSP/FilteringFunctions/arm_correlate_q15.c ****   /* count is index by which the pointer pIn1 to be incremented */
 266:../Dave/Generated/CMSIS_DSP/FilteringFunctions/arm_correlate_q15.c ****   count = 0u;
 426              	 .loc 1 266 0
 427 039e 0023     	 movs r3,#0
 428 03a0 C7F88433 	 str r3,[r7,#900]
 267:../Dave/Generated/CMSIS_DSP/FilteringFunctions/arm_correlate_q15.c **** 
 268:../Dave/Generated/CMSIS_DSP/FilteringFunctions/arm_correlate_q15.c ****   /* -------------------   
 269:../Dave/Generated/CMSIS_DSP/FilteringFunctions/arm_correlate_q15.c ****    * Stage2 process   
 270:../Dave/Generated/CMSIS_DSP/FilteringFunctions/arm_correlate_q15.c ****    * ------------------*/
 271:../Dave/Generated/CMSIS_DSP/FilteringFunctions/arm_correlate_q15.c **** 
 272:../Dave/Generated/CMSIS_DSP/FilteringFunctions/arm_correlate_q15.c ****   /* Stage2 depends on srcBLen as in this stage srcBLen number of MACS are performed.   
 273:../Dave/Generated/CMSIS_DSP/FilteringFunctions/arm_correlate_q15.c ****    * So, to loop unroll over blockSize2,   
 274:../Dave/Generated/CMSIS_DSP/FilteringFunctions/arm_correlate_q15.c ****    * srcBLen should be greater than or equal to 4, to loop unroll the srcBLen loop */
 275:../Dave/Generated/CMSIS_DSP/FilteringFunctions/arm_correlate_q15.c ****   if(srcBLen >= 4u)
 429              	 .loc 1 275 0
 430 03a4 07F13003 	 add r3,r7,#48
 431 03a8 1B68     	 ldr r3,[r3]
 432 03aa 032B     	 cmp r3,#3
 433 03ac 40F2EB87 	 bls .L13
 276:../Dave/Generated/CMSIS_DSP/FilteringFunctions/arm_correlate_q15.c ****   {
 277:../Dave/Generated/CMSIS_DSP/FilteringFunctions/arm_correlate_q15.c ****     /* Loop unroll over blockSize2, by 4 */
 278:../Dave/Generated/CMSIS_DSP/FilteringFunctions/arm_correlate_q15.c ****     blkCnt = blockSize2 >> 2u;
 434              	 .loc 1 278 0
 435 03b0 D7F86833 	 ldr r3,[r7,#872]
 436 03b4 9B08     	 lsrs r3,r3,#2
 437 03b6 C7F88033 	 str r3,[r7,#896]
 279:../Dave/Generated/CMSIS_DSP/FilteringFunctions/arm_correlate_q15.c **** 
 280:../Dave/Generated/CMSIS_DSP/FilteringFunctions/arm_correlate_q15.c ****     while(blkCnt > 0u)
 438              	 .loc 1 280 0
 439 03ba 00F09BBE 	 b .L14
 440              	.L43:
 281:../Dave/Generated/CMSIS_DSP/FilteringFunctions/arm_correlate_q15.c ****     {
 282:../Dave/Generated/CMSIS_DSP/FilteringFunctions/arm_correlate_q15.c ****       /* Set all accumulators to zero */
 283:../Dave/Generated/CMSIS_DSP/FilteringFunctions/arm_correlate_q15.c ****       acc0 = 0;
 441              	 .loc 1 283 0
 442 03be 4FF00002 	 mov r2,#0
 443 03c2 4FF00003 	 mov r3,#0
 444 03c6 07F56C71 	 add r1,r7,#944
 445 03ca C1E90023 	 strd r2,[r1]
 284:../Dave/Generated/CMSIS_DSP/FilteringFunctions/arm_correlate_q15.c ****       acc1 = 0;
 446              	 .loc 1 284 0
 447 03ce 4FF00002 	 mov r2,#0
 448 03d2 4FF00003 	 mov r3,#0
 449 03d6 07F56A71 	 add r1,r7,#936
 450 03da C1E90023 	 strd r2,[r1]
 285:../Dave/Generated/CMSIS_DSP/FilteringFunctions/arm_correlate_q15.c ****       acc2 = 0;
 451              	 .loc 1 285 0
 452 03de 4FF00002 	 mov r2,#0
 453 03e2 4FF00003 	 mov r3,#0
 454 03e6 07F56871 	 add r1,r7,#928
 455 03ea C1E90023 	 strd r2,[r1]
 286:../Dave/Generated/CMSIS_DSP/FilteringFunctions/arm_correlate_q15.c ****       acc3 = 0;
 456              	 .loc 1 286 0
 457 03ee 4FF00002 	 mov r2,#0
 458 03f2 4FF00003 	 mov r3,#0
 459 03f6 07F56671 	 add r1,r7,#920
 460 03fa C1E90023 	 strd r2,[r1]
 287:../Dave/Generated/CMSIS_DSP/FilteringFunctions/arm_correlate_q15.c **** 
 288:../Dave/Generated/CMSIS_DSP/FilteringFunctions/arm_correlate_q15.c ****       /* read x[0], x[1] samples */
 289:../Dave/Generated/CMSIS_DSP/FilteringFunctions/arm_correlate_q15.c ****       x0 = *__SIMD32(px);
 461              	 .loc 1 289 0
 462 03fe 07F59A73 	 add r3,r7,#308
 463 0402 1B68     	 ldr r3,[r3]
 464 0404 1B68     	 ldr r3,[r3]
 465 0406 C7F89033 	 str r3,[r7,#912]
 290:../Dave/Generated/CMSIS_DSP/FilteringFunctions/arm_correlate_q15.c ****       /* read x[1], x[2] samples */
 291:../Dave/Generated/CMSIS_DSP/FilteringFunctions/arm_correlate_q15.c ****       x1 = _SIMD32_OFFSET(px + 1);
 466              	 .loc 1 291 0
 467 040a 07F59A73 	 add r3,r7,#308
 468 040e 1B68     	 ldr r3,[r3]
 469 0410 D3F80230 	 ldr r3,[r3,#2]
 470 0414 C7F88C33 	 str r3,[r7,#908]
 292:../Dave/Generated/CMSIS_DSP/FilteringFunctions/arm_correlate_q15.c **** 	  px += 2u;
 471              	 .loc 1 292 0
 472 0418 07F59A73 	 add r3,r7,#308
 473 041c 1B68     	 ldr r3,[r3]
 474 041e 1A1D     	 adds r2,r3,#4
 475 0420 07F59A73 	 add r3,r7,#308
 476 0424 1A60     	 str r2,[r3]
 293:../Dave/Generated/CMSIS_DSP/FilteringFunctions/arm_correlate_q15.c **** 
 294:../Dave/Generated/CMSIS_DSP/FilteringFunctions/arm_correlate_q15.c ****       /* Apply loop unrolling and compute 4 MACs simultaneously. */
 295:../Dave/Generated/CMSIS_DSP/FilteringFunctions/arm_correlate_q15.c ****       k = srcBLen >> 2u;
 477              	 .loc 1 295 0
 478 0426 07F13003 	 add r3,r7,#48
 479 042a 1B68     	 ldr r3,[r3]
 480 042c 9B08     	 lsrs r3,r3,#2
 481 042e C7F88833 	 str r3,[r7,#904]
 482              	.L23:
 296:../Dave/Generated/CMSIS_DSP/FilteringFunctions/arm_correlate_q15.c **** 
 297:../Dave/Generated/CMSIS_DSP/FilteringFunctions/arm_correlate_q15.c ****       /* First part of the processing with loop unrolling.  Compute 4 MACs at a time.   
 298:../Dave/Generated/CMSIS_DSP/FilteringFunctions/arm_correlate_q15.c ****        ** a second loop below computes MACs for the remaining 1 to 3 samples. */
 299:../Dave/Generated/CMSIS_DSP/FilteringFunctions/arm_correlate_q15.c ****       do
 300:../Dave/Generated/CMSIS_DSP/FilteringFunctions/arm_correlate_q15.c ****       {
 301:../Dave/Generated/CMSIS_DSP/FilteringFunctions/arm_correlate_q15.c ****         /* Read the first two inputB samples using SIMD:   
 302:../Dave/Generated/CMSIS_DSP/FilteringFunctions/arm_correlate_q15.c ****          * y[0] and y[1] */
 303:../Dave/Generated/CMSIS_DSP/FilteringFunctions/arm_correlate_q15.c ****         c0 = *__SIMD32(py)++;
 483              	 .loc 1 303 0 discriminator 1
 484 0432 07F59871 	 add r1,r7,#304
 485 0436 0A68     	 ldr r2,[r1]
 486 0438 131D     	 adds r3,r2,#4
 487 043a 0B60     	 str r3,[r1]
 488 043c 1368     	 ldr r3,[r2]
 489 043e C7F85C33 	 str r3,[r7,#860]
 304:../Dave/Generated/CMSIS_DSP/FilteringFunctions/arm_correlate_q15.c **** 
 305:../Dave/Generated/CMSIS_DSP/FilteringFunctions/arm_correlate_q15.c ****         /* acc0 +=  x[0] * y[0] + x[1] * y[1] */
 306:../Dave/Generated/CMSIS_DSP/FilteringFunctions/arm_correlate_q15.c ****         acc0 = __SMLALD(x0, c0, acc0);
 490              	 .loc 1 306 0 discriminator 1
 491 0442 D7F89013 	 ldr r1,[r7,#912]
 492 0446 D7F85C03 	 ldr r0,[r7,#860]
 493 044a 07F56C73 	 add r3,r7,#944
 494 044e D3E90023 	 ldrd r2,[r3]
 495 0452 C7F8E412 	 str r1,[r7,#740]
 496 0456 C7F8E002 	 str r0,[r7,#736]
 497 045a 07F53671 	 add r1,r7,#728
 498 045e C1E90023 	 strd r2,[r1]
 499              	.LBB77:
 500              	.LBB78:
 525:C:\Users\Depes Crystalline\Desktop\school\Active_Bike_Lighting_System\Radar_Core/Libraries/CMSIS/Include\core_cmSimd.h **** 
 501              	 .loc 2 525 0 discriminator 1
 502 0462 07F15801 	 add r1,r7,#88
 503 0466 07F53673 	 add r3,r7,#728
 504 046a D3E90023 	 ldrd r2,[r3]
 505 046e C1E90023 	 strd r2,[r1]
 528:C:\Users\Depes Crystalline\Desktop\school\Active_Bike_Lighting_System\Radar_Core/Libraries/CMSIS/Include\core_cmSimd.h **** #else               // Big endian
 506              	 .loc 2 528 0 discriminator 1
 507 0472 07F15803 	 add r3,r7,#88
 508 0476 1968     	 ldr r1,[r3]
 509 0478 07F15803 	 add r3,r7,#88
 510 047c 5A68     	 ldr r2,[r3,#4]
 511 047e D7F8E402 	 ldr r0,[r7,#740]
 512 0482 D7F8E032 	 ldr r3,[r7,#736]
 513              	
 514 0486 C0FBC312 	 smlald r1,r2,r0,r3
 515              	
 516              	 .thumb
 517 048a 07F15803 	 add r3,r7,#88
 518 048e 1960     	 str r1,[r3]
 519 0490 07F15803 	 add r3,r7,#88
 520 0494 5A60     	 str r2,[r3,#4]
 521              	 .loc 2 533 0 discriminator 1
 522 0496 07F15803 	 add r3,r7,#88
 523 049a D3E90023 	 ldrd r2,[r3]
 524              	.LBE78:
 525              	.LBE77:
 526              	 .loc 1 306 0 discriminator 1
 527 049e 07F56C71 	 add r1,r7,#944
 528 04a2 C1E90023 	 strd r2,[r1]
 307:../Dave/Generated/CMSIS_DSP/FilteringFunctions/arm_correlate_q15.c **** 
 308:../Dave/Generated/CMSIS_DSP/FilteringFunctions/arm_correlate_q15.c ****         /* acc1 +=  x[1] * y[0] + x[2] * y[1] */
 309:../Dave/Generated/CMSIS_DSP/FilteringFunctions/arm_correlate_q15.c ****         acc1 = __SMLALD(x1, c0, acc1);
 529              	 .loc 1 309 0 discriminator 1
 530 04a6 D7F88C33 	 ldr r3,[r7,#908]
 531 04aa D7F85C23 	 ldr r2,[r7,#860]
 532 04ae 07F56A71 	 add r1,r7,#936
 533 04b2 D1E90001 	 ldrd r0,[r1]
 534 04b6 C7F8D432 	 str r3,[r7,#724]
 535 04ba 07F53473 	 add r3,r7,#720
 536 04be 1A60     	 str r2,[r3]
 537 04c0 07F53273 	 add r3,r7,#712
 538 04c4 C3E90001 	 strd r0,[r3]
 539              	.LBB79:
 540              	.LBB80:
 525:C:\Users\Depes Crystalline\Desktop\school\Active_Bike_Lighting_System\Radar_Core/Libraries/CMSIS/Include\core_cmSimd.h **** 
 541              	 .loc 2 525 0 discriminator 1
 542 04c8 07F16001 	 add r1,r7,#96
 543 04cc 07F53273 	 add r3,r7,#712
 544 04d0 D3E90023 	 ldrd r2,[r3]
 545 04d4 C1E90023 	 strd r2,[r1]
 528:C:\Users\Depes Crystalline\Desktop\school\Active_Bike_Lighting_System\Radar_Core/Libraries/CMSIS/Include\core_cmSimd.h **** #else               // Big endian
 546              	 .loc 2 528 0 discriminator 1
 547 04d8 07F16003 	 add r3,r7,#96
 548 04dc 1968     	 ldr r1,[r3]
 549 04de 07F16003 	 add r3,r7,#96
 550 04e2 5A68     	 ldr r2,[r3,#4]
 551 04e4 D7F8D402 	 ldr r0,[r7,#724]
 552 04e8 07F53473 	 add r3,r7,#720
 553 04ec 1B68     	 ldr r3,[r3]
 554              	
 555 04ee C0FBC312 	 smlald r1,r2,r0,r3
 556              	
 557              	 .thumb
 558 04f2 07F16003 	 add r3,r7,#96
 559 04f6 1960     	 str r1,[r3]
 560 04f8 07F16003 	 add r3,r7,#96
 561 04fc 5A60     	 str r2,[r3,#4]
 562              	 .loc 2 533 0 discriminator 1
 563 04fe 07F16003 	 add r3,r7,#96
 564 0502 D3E90023 	 ldrd r2,[r3]
 565              	.LBE80:
 566              	.LBE79:
 567              	 .loc 1 309 0 discriminator 1
 568 0506 07F56A71 	 add r1,r7,#936
 569 050a C1E90023 	 strd r2,[r1]
 310:../Dave/Generated/CMSIS_DSP/FilteringFunctions/arm_correlate_q15.c **** 
 311:../Dave/Generated/CMSIS_DSP/FilteringFunctions/arm_correlate_q15.c ****         /* Read x[2], x[3] */
 312:../Dave/Generated/CMSIS_DSP/FilteringFunctions/arm_correlate_q15.c ****         x2 = *__SIMD32(px);
 570              	 .loc 1 312 0 discriminator 1
 571 050e 07F59A73 	 add r3,r7,#308
 572 0512 1B68     	 ldr r3,[r3]
 573 0514 1B68     	 ldr r3,[r3]
 574 0516 C7F85833 	 str r3,[r7,#856]
 313:../Dave/Generated/CMSIS_DSP/FilteringFunctions/arm_correlate_q15.c **** 
 314:../Dave/Generated/CMSIS_DSP/FilteringFunctions/arm_correlate_q15.c ****         /* Read x[3], x[4] */
 315:../Dave/Generated/CMSIS_DSP/FilteringFunctions/arm_correlate_q15.c ****         x3 = _SIMD32_OFFSET(px + 1);
 575              	 .loc 1 315 0 discriminator 1
 576 051a 07F59A73 	 add r3,r7,#308
 577 051e 1B68     	 ldr r3,[r3]
 578 0520 D3F80230 	 ldr r3,[r3,#2]
 579 0524 C7F85433 	 str r3,[r7,#852]
 316:../Dave/Generated/CMSIS_DSP/FilteringFunctions/arm_correlate_q15.c **** 
 317:../Dave/Generated/CMSIS_DSP/FilteringFunctions/arm_correlate_q15.c ****         /* acc2 +=  x[2] * y[0] + x[3] * y[1] */
 318:../Dave/Generated/CMSIS_DSP/FilteringFunctions/arm_correlate_q15.c ****         acc2 = __SMLALD(x2, c0, acc2);
 580              	 .loc 1 318 0 discriminator 1
 581 0528 D7F85823 	 ldr r2,[r7,#856]
 582 052c D7F85C43 	 ldr r4,[r7,#860]
 583 0530 07F56873 	 add r3,r7,#928
 584 0534 D3E90001 	 ldrd r0,[r3]
 585 0538 07F53173 	 add r3,r7,#708
 586 053c 1A60     	 str r2,[r3]
 587 053e 07F53073 	 add r3,r7,#704
 588 0542 1C60     	 str r4,[r3]
 589 0544 07F52E73 	 add r3,r7,#696
 590 0548 C3E90001 	 strd r0,[r3]
 591              	.LBB81:
 592              	.LBB82:
 525:C:\Users\Depes Crystalline\Desktop\school\Active_Bike_Lighting_System\Radar_Core/Libraries/CMSIS/Include\core_cmSimd.h **** 
 593              	 .loc 2 525 0 discriminator 1
 594 054c 07F16801 	 add r1,r7,#104
 595 0550 07F52E73 	 add r3,r7,#696
 596 0554 D3E90023 	 ldrd r2,[r3]
 597 0558 C1E90023 	 strd r2,[r1]
 528:C:\Users\Depes Crystalline\Desktop\school\Active_Bike_Lighting_System\Radar_Core/Libraries/CMSIS/Include\core_cmSimd.h **** #else               // Big endian
 598              	 .loc 2 528 0 discriminator 1
 599 055c 07F16803 	 add r3,r7,#104
 600 0560 1968     	 ldr r1,[r3]
 601 0562 07F16803 	 add r3,r7,#104
 602 0566 5A68     	 ldr r2,[r3,#4]
 603 0568 07F53173 	 add r3,r7,#708
 604 056c 1868     	 ldr r0,[r3]
 605 056e 07F53073 	 add r3,r7,#704
 606 0572 1B68     	 ldr r3,[r3]
 607              	
 608 0574 C0FBC312 	 smlald r1,r2,r0,r3
 609              	
 610              	 .thumb
 611 0578 07F16803 	 add r3,r7,#104
 612 057c 1960     	 str r1,[r3]
 613 057e 07F16803 	 add r3,r7,#104
 614 0582 5A60     	 str r2,[r3,#4]
 615              	 .loc 2 533 0 discriminator 1
 616 0584 07F16803 	 add r3,r7,#104
 617 0588 D3E90023 	 ldrd r2,[r3]
 618              	.LBE82:
 619              	.LBE81:
 620              	 .loc 1 318 0 discriminator 1
 621 058c 07F56871 	 add r1,r7,#928
 622 0590 C1E90023 	 strd r2,[r1]
 319:../Dave/Generated/CMSIS_DSP/FilteringFunctions/arm_correlate_q15.c **** 
 320:../Dave/Generated/CMSIS_DSP/FilteringFunctions/arm_correlate_q15.c ****         /* acc3 +=  x[3] * y[0] + x[4] * y[1] */
 321:../Dave/Generated/CMSIS_DSP/FilteringFunctions/arm_correlate_q15.c ****         acc3 = __SMLALD(x3, c0, acc3);
 623              	 .loc 1 321 0 discriminator 1
 624 0594 D7F85423 	 ldr r2,[r7,#852]
 625 0598 D7F85C43 	 ldr r4,[r7,#860]
 626 059c 07F56673 	 add r3,r7,#920
 627 05a0 D3E90001 	 ldrd r0,[r3]
 628 05a4 07F52D73 	 add r3,r7,#692
 629 05a8 1A60     	 str r2,[r3]
 630 05aa 07F52C73 	 add r3,r7,#688
 631 05ae 1C60     	 str r4,[r3]
 632 05b0 07F52A73 	 add r3,r7,#680
 633 05b4 C3E90001 	 strd r0,[r3]
 634              	.LBB83:
 635              	.LBB84:
 525:C:\Users\Depes Crystalline\Desktop\school\Active_Bike_Lighting_System\Radar_Core/Libraries/CMSIS/Include\core_cmSimd.h **** 
 636              	 .loc 2 525 0 discriminator 1
 637 05b8 07F17001 	 add r1,r7,#112
 638 05bc 07F52A73 	 add r3,r7,#680
 639 05c0 D3E90023 	 ldrd r2,[r3]
 640 05c4 C1E90023 	 strd r2,[r1]
 528:C:\Users\Depes Crystalline\Desktop\school\Active_Bike_Lighting_System\Radar_Core/Libraries/CMSIS/Include\core_cmSimd.h **** #else               // Big endian
 641              	 .loc 2 528 0 discriminator 1
 642 05c8 07F17003 	 add r3,r7,#112
 643 05cc 1968     	 ldr r1,[r3]
 644 05ce 07F17003 	 add r3,r7,#112
 645 05d2 5A68     	 ldr r2,[r3,#4]
 646 05d4 07F52D73 	 add r3,r7,#692
 647 05d8 1868     	 ldr r0,[r3]
 648 05da 07F52C73 	 add r3,r7,#688
 649 05de 1B68     	 ldr r3,[r3]
 650              	
 651 05e0 C0FBC312 	 smlald r1,r2,r0,r3
 652              	
 653              	 .thumb
 654 05e4 07F17003 	 add r3,r7,#112
 655 05e8 1960     	 str r1,[r3]
 656 05ea 07F17003 	 add r3,r7,#112
 657 05ee 5A60     	 str r2,[r3,#4]
 658              	 .loc 2 533 0 discriminator 1
 659 05f0 07F17003 	 add r3,r7,#112
 660 05f4 D3E90023 	 ldrd r2,[r3]
 661              	.LBE84:
 662              	.LBE83:
 663              	 .loc 1 321 0 discriminator 1
 664 05f8 07F56671 	 add r1,r7,#920
 665 05fc C1E90023 	 strd r2,[r1]
 322:../Dave/Generated/CMSIS_DSP/FilteringFunctions/arm_correlate_q15.c **** 
 323:../Dave/Generated/CMSIS_DSP/FilteringFunctions/arm_correlate_q15.c ****         /* Read y[2] and y[3] */
 324:../Dave/Generated/CMSIS_DSP/FilteringFunctions/arm_correlate_q15.c ****         c0 = *__SIMD32(py)++;
 666              	 .loc 1 324 0 discriminator 1
 667 0600 07F59871 	 add r1,r7,#304
 668 0604 0A68     	 ldr r2,[r1]
 669 0606 131D     	 adds r3,r2,#4
 670 0608 0B60     	 str r3,[r1]
 671 060a 1368     	 ldr r3,[r2]
 672 060c C7F85C33 	 str r3,[r7,#860]
 325:../Dave/Generated/CMSIS_DSP/FilteringFunctions/arm_correlate_q15.c **** 
 326:../Dave/Generated/CMSIS_DSP/FilteringFunctions/arm_correlate_q15.c ****         /* acc0 +=  x[2] * y[2] + x[3] * y[3] */
 327:../Dave/Generated/CMSIS_DSP/FilteringFunctions/arm_correlate_q15.c ****         acc0 = __SMLALD(x2, c0, acc0);
 673              	 .loc 1 327 0 discriminator 1
 674 0610 D7F85823 	 ldr r2,[r7,#856]
 675 0614 D7F85C43 	 ldr r4,[r7,#860]
 676 0618 07F56C73 	 add r3,r7,#944
 677 061c D3E90001 	 ldrd r0,[r3]
 678 0620 07F52973 	 add r3,r7,#676
 679 0624 1A60     	 str r2,[r3]
 680 0626 07F52873 	 add r3,r7,#672
 681 062a 1C60     	 str r4,[r3]
 682 062c 07F52673 	 add r3,r7,#664
 683 0630 C3E90001 	 strd r0,[r3]
 684              	.LBB85:
 685              	.LBB86:
 525:C:\Users\Depes Crystalline\Desktop\school\Active_Bike_Lighting_System\Radar_Core/Libraries/CMSIS/Include\core_cmSimd.h **** 
 686              	 .loc 2 525 0 discriminator 1
 687 0634 07F17801 	 add r1,r7,#120
 688 0638 07F52673 	 add r3,r7,#664
 689 063c D3E90023 	 ldrd r2,[r3]
 690 0640 C1E90023 	 strd r2,[r1]
 528:C:\Users\Depes Crystalline\Desktop\school\Active_Bike_Lighting_System\Radar_Core/Libraries/CMSIS/Include\core_cmSimd.h **** #else               // Big endian
 691              	 .loc 2 528 0 discriminator 1
 692 0644 07F17803 	 add r3,r7,#120
 693 0648 1968     	 ldr r1,[r3]
 694 064a 07F17803 	 add r3,r7,#120
 695 064e 5A68     	 ldr r2,[r3,#4]
 696 0650 07F52973 	 add r3,r7,#676
 697 0654 1868     	 ldr r0,[r3]
 698 0656 07F52873 	 add r3,r7,#672
 699 065a 1B68     	 ldr r3,[r3]
 700              	
 701 065c C0FBC312 	 smlald r1,r2,r0,r3
 702              	
 703              	 .thumb
 704 0660 07F17803 	 add r3,r7,#120
 705 0664 1960     	 str r1,[r3]
 706 0666 07F17803 	 add r3,r7,#120
 707 066a 5A60     	 str r2,[r3,#4]
 708              	 .loc 2 533 0 discriminator 1
 709 066c 07F17803 	 add r3,r7,#120
 710 0670 D3E90023 	 ldrd r2,[r3]
 711              	.LBE86:
 712              	.LBE85:
 713              	 .loc 1 327 0 discriminator 1
 714 0674 07F56C71 	 add r1,r7,#944
 715 0678 C1E90023 	 strd r2,[r1]
 328:../Dave/Generated/CMSIS_DSP/FilteringFunctions/arm_correlate_q15.c **** 
 329:../Dave/Generated/CMSIS_DSP/FilteringFunctions/arm_correlate_q15.c ****         /* acc1 +=  x[3] * y[2] + x[4] * y[3] */
 330:../Dave/Generated/CMSIS_DSP/FilteringFunctions/arm_correlate_q15.c ****         acc1 = __SMLALD(x3, c0, acc1);
 716              	 .loc 1 330 0 discriminator 1
 717 067c D7F85423 	 ldr r2,[r7,#852]
 718 0680 D7F85C43 	 ldr r4,[r7,#860]
 719 0684 07F56A73 	 add r3,r7,#936
 720 0688 D3E90001 	 ldrd r0,[r3]
 721 068c 07F52573 	 add r3,r7,#660
 722 0690 1A60     	 str r2,[r3]
 723 0692 07F52473 	 add r3,r7,#656
 724 0696 1C60     	 str r4,[r3]
 725 0698 07F52273 	 add r3,r7,#648
 726 069c C3E90001 	 strd r0,[r3]
 727              	.LBB87:
 728              	.LBB88:
 525:C:\Users\Depes Crystalline\Desktop\school\Active_Bike_Lighting_System\Radar_Core/Libraries/CMSIS/Include\core_cmSimd.h **** 
 729              	 .loc 2 525 0 discriminator 1
 730 06a0 07F18001 	 add r1,r7,#128
 731 06a4 07F52273 	 add r3,r7,#648
 732 06a8 D3E90023 	 ldrd r2,[r3]
 733 06ac C1E90023 	 strd r2,[r1]
 528:C:\Users\Depes Crystalline\Desktop\school\Active_Bike_Lighting_System\Radar_Core/Libraries/CMSIS/Include\core_cmSimd.h **** #else               // Big endian
 734              	 .loc 2 528 0 discriminator 1
 735 06b0 07F18003 	 add r3,r7,#128
 736 06b4 1968     	 ldr r1,[r3]
 737 06b6 07F18003 	 add r3,r7,#128
 738 06ba 5A68     	 ldr r2,[r3,#4]
 739 06bc 07F52573 	 add r3,r7,#660
 740 06c0 1868     	 ldr r0,[r3]
 741 06c2 07F52473 	 add r3,r7,#656
 742 06c6 1B68     	 ldr r3,[r3]
 743              	
 744 06c8 C0FBC312 	 smlald r1,r2,r0,r3
 745              	
 746              	 .thumb
 747 06cc 07F18003 	 add r3,r7,#128
 748 06d0 1960     	 str r1,[r3]
 749 06d2 07F18003 	 add r3,r7,#128
 750 06d6 5A60     	 str r2,[r3,#4]
 751              	 .loc 2 533 0 discriminator 1
 752 06d8 07F18003 	 add r3,r7,#128
 753 06dc D3E90023 	 ldrd r2,[r3]
 754              	.LBE88:
 755              	.LBE87:
 756              	 .loc 1 330 0 discriminator 1
 757 06e0 07F56A71 	 add r1,r7,#936
 758 06e4 C1E90023 	 strd r2,[r1]
 331:../Dave/Generated/CMSIS_DSP/FilteringFunctions/arm_correlate_q15.c **** 
 332:../Dave/Generated/CMSIS_DSP/FilteringFunctions/arm_correlate_q15.c ****         /* Read x[4], x[5] */
 333:../Dave/Generated/CMSIS_DSP/FilteringFunctions/arm_correlate_q15.c ****         x0 = _SIMD32_OFFSET(px + 2);
 759              	 .loc 1 333 0 discriminator 1
 760 06e8 07F59A73 	 add r3,r7,#308
 761 06ec 1B68     	 ldr r3,[r3]
 762 06ee 5B68     	 ldr r3,[r3,#4]
 763 06f0 C7F89033 	 str r3,[r7,#912]
 334:../Dave/Generated/CMSIS_DSP/FilteringFunctions/arm_correlate_q15.c **** 
 335:../Dave/Generated/CMSIS_DSP/FilteringFunctions/arm_correlate_q15.c ****         /* Read x[5], x[6] */
 336:../Dave/Generated/CMSIS_DSP/FilteringFunctions/arm_correlate_q15.c ****         x1 = _SIMD32_OFFSET(px + 3);
 764              	 .loc 1 336 0 discriminator 1
 765 06f4 07F59A73 	 add r3,r7,#308
 766 06f8 1B68     	 ldr r3,[r3]
 767 06fa D3F80630 	 ldr r3,[r3,#6]
 768 06fe C7F88C33 	 str r3,[r7,#908]
 337:../Dave/Generated/CMSIS_DSP/FilteringFunctions/arm_correlate_q15.c **** 
 338:../Dave/Generated/CMSIS_DSP/FilteringFunctions/arm_correlate_q15.c **** 		px += 4u;
 769              	 .loc 1 338 0 discriminator 1
 770 0702 07F59A73 	 add r3,r7,#308
 771 0706 1B68     	 ldr r3,[r3]
 772 0708 03F10802 	 add r2,r3,#8
 773 070c 07F59A73 	 add r3,r7,#308
 774 0710 1A60     	 str r2,[r3]
 339:../Dave/Generated/CMSIS_DSP/FilteringFunctions/arm_correlate_q15.c **** 
 340:../Dave/Generated/CMSIS_DSP/FilteringFunctions/arm_correlate_q15.c ****         /* acc2 +=  x[4] * y[2] + x[5] * y[3] */
 341:../Dave/Generated/CMSIS_DSP/FilteringFunctions/arm_correlate_q15.c ****         acc2 = __SMLALD(x0, c0, acc2);
 775              	 .loc 1 341 0 discriminator 1
 776 0712 D7F89023 	 ldr r2,[r7,#912]
 777 0716 D7F85C43 	 ldr r4,[r7,#860]
 778 071a 07F56873 	 add r3,r7,#928
 779 071e D3E90001 	 ldrd r0,[r3]
 780 0722 07F52173 	 add r3,r7,#644
 781 0726 1A60     	 str r2,[r3]
 782 0728 07F52073 	 add r3,r7,#640
 783 072c 1C60     	 str r4,[r3]
 784 072e 07F51E73 	 add r3,r7,#632
 785 0732 C3E90001 	 strd r0,[r3]
 786              	.LBB89:
 787              	.LBB90:
 525:C:\Users\Depes Crystalline\Desktop\school\Active_Bike_Lighting_System\Radar_Core/Libraries/CMSIS/Include\core_cmSimd.h **** 
 788              	 .loc 2 525 0 discriminator 1
 789 0736 07F18801 	 add r1,r7,#136
 790 073a 07F51E73 	 add r3,r7,#632
 791 073e D3E90023 	 ldrd r2,[r3]
 792 0742 C1E90023 	 strd r2,[r1]
 528:C:\Users\Depes Crystalline\Desktop\school\Active_Bike_Lighting_System\Radar_Core/Libraries/CMSIS/Include\core_cmSimd.h **** #else               // Big endian
 793              	 .loc 2 528 0 discriminator 1
 794 0746 07F18803 	 add r3,r7,#136
 795 074a 1968     	 ldr r1,[r3]
 796 074c 07F18803 	 add r3,r7,#136
 797 0750 5A68     	 ldr r2,[r3,#4]
 798 0752 07F52173 	 add r3,r7,#644
 799 0756 1868     	 ldr r0,[r3]
 800 0758 07F52073 	 add r3,r7,#640
 801 075c 1B68     	 ldr r3,[r3]
 802              	
 803 075e C0FBC312 	 smlald r1,r2,r0,r3
 804              	
 805              	 .thumb
 806 0762 07F18803 	 add r3,r7,#136
 807 0766 1960     	 str r1,[r3]
 808 0768 07F18803 	 add r3,r7,#136
 809 076c 5A60     	 str r2,[r3,#4]
 810              	 .loc 2 533 0 discriminator 1
 811 076e 07F18803 	 add r3,r7,#136
 812 0772 D3E90023 	 ldrd r2,[r3]
 813              	.LBE90:
 814              	.LBE89:
 815              	 .loc 1 341 0 discriminator 1
 816 0776 07F56871 	 add r1,r7,#928
 817 077a C1E90023 	 strd r2,[r1]
 342:../Dave/Generated/CMSIS_DSP/FilteringFunctions/arm_correlate_q15.c **** 
 343:../Dave/Generated/CMSIS_DSP/FilteringFunctions/arm_correlate_q15.c ****         /* acc3 +=  x[5] * y[2] + x[6] * y[3] */
 344:../Dave/Generated/CMSIS_DSP/FilteringFunctions/arm_correlate_q15.c ****         acc3 = __SMLALD(x1, c0, acc3);
 818              	 .loc 1 344 0 discriminator 1
 819 077e D7F88C23 	 ldr r2,[r7,#908]
 820 0782 D7F85C43 	 ldr r4,[r7,#860]
 821 0786 07F56673 	 add r3,r7,#920
 822 078a D3E90001 	 ldrd r0,[r3]
 823 078e 07F51D73 	 add r3,r7,#628
 824 0792 1A60     	 str r2,[r3]
 825 0794 07F51C73 	 add r3,r7,#624
 826 0798 1C60     	 str r4,[r3]
 827 079a 07F51A73 	 add r3,r7,#616
 828 079e C3E90001 	 strd r0,[r3]
 829              	.LBB91:
 830              	.LBB92:
 525:C:\Users\Depes Crystalline\Desktop\school\Active_Bike_Lighting_System\Radar_Core/Libraries/CMSIS/Include\core_cmSimd.h **** 
 831              	 .loc 2 525 0 discriminator 1
 832 07a2 07F19001 	 add r1,r7,#144
 833 07a6 07F51A73 	 add r3,r7,#616
 834 07aa D3E90023 	 ldrd r2,[r3]
 835 07ae C1E90023 	 strd r2,[r1]
 528:C:\Users\Depes Crystalline\Desktop\school\Active_Bike_Lighting_System\Radar_Core/Libraries/CMSIS/Include\core_cmSimd.h **** #else               // Big endian
 836              	 .loc 2 528 0 discriminator 1
 837 07b2 07F19003 	 add r3,r7,#144
 838 07b6 1968     	 ldr r1,[r3]
 839 07b8 07F19003 	 add r3,r7,#144
 840 07bc 5A68     	 ldr r2,[r3,#4]
 841 07be 07F51D73 	 add r3,r7,#628
 842 07c2 1868     	 ldr r0,[r3]
 843 07c4 07F51C73 	 add r3,r7,#624
 844 07c8 1B68     	 ldr r3,[r3]
 845              	
 846 07ca C0FBC312 	 smlald r1,r2,r0,r3
 847              	
 848              	 .thumb
 849 07ce 07F19003 	 add r3,r7,#144
 850 07d2 1960     	 str r1,[r3]
 851 07d4 07F19003 	 add r3,r7,#144
 852 07d8 5A60     	 str r2,[r3,#4]
 853              	 .loc 2 533 0 discriminator 1
 854 07da 07F19003 	 add r3,r7,#144
 855 07de D3E90023 	 ldrd r2,[r3]
 856              	.LBE92:
 857              	.LBE91:
 858              	 .loc 1 344 0 discriminator 1
 859 07e2 07F56671 	 add r1,r7,#920
 860 07e6 C1E90023 	 strd r2,[r1]
 345:../Dave/Generated/CMSIS_DSP/FilteringFunctions/arm_correlate_q15.c **** 
 346:../Dave/Generated/CMSIS_DSP/FilteringFunctions/arm_correlate_q15.c ****       } while(--k);
 861              	 .loc 1 346 0 discriminator 1
 862 07ea D7F88833 	 ldr r3,[r7,#904]
 863 07ee 013B     	 subs r3,r3,#1
 864 07f0 C7F88833 	 str r3,[r7,#904]
 865 07f4 D7F88833 	 ldr r3,[r7,#904]
 866 07f8 002B     	 cmp r3,#0
 867 07fa 7FF41AAE 	 bne .L23
 347:../Dave/Generated/CMSIS_DSP/FilteringFunctions/arm_correlate_q15.c **** 
 348:../Dave/Generated/CMSIS_DSP/FilteringFunctions/arm_correlate_q15.c ****       /* If the srcBLen is not a multiple of 4, compute any remaining MACs here.   
 349:../Dave/Generated/CMSIS_DSP/FilteringFunctions/arm_correlate_q15.c ****        ** No loop unrolling is used. */
 350:../Dave/Generated/CMSIS_DSP/FilteringFunctions/arm_correlate_q15.c ****       k = srcBLen % 0x4u;
 868              	 .loc 1 350 0
 869 07fe 07F13003 	 add r3,r7,#48
 870 0802 1B68     	 ldr r3,[r3]
 871 0804 03F00303 	 and r3,r3,#3
 872 0808 C7F88833 	 str r3,[r7,#904]
 351:../Dave/Generated/CMSIS_DSP/FilteringFunctions/arm_correlate_q15.c **** 
 352:../Dave/Generated/CMSIS_DSP/FilteringFunctions/arm_correlate_q15.c ****       if(k == 1u)
 873              	 .loc 1 352 0
 874 080c D7F88833 	 ldr r3,[r7,#904]
 875 0810 012B     	 cmp r3,#1
 876 0812 40F0F180 	 bne .L24
 353:../Dave/Generated/CMSIS_DSP/FilteringFunctions/arm_correlate_q15.c ****       {
 354:../Dave/Generated/CMSIS_DSP/FilteringFunctions/arm_correlate_q15.c ****         /* Read y[4] */
 355:../Dave/Generated/CMSIS_DSP/FilteringFunctions/arm_correlate_q15.c ****         c0 = *py;
 877              	 .loc 1 355 0
 878 0816 07F59873 	 add r3,r7,#304
 879 081a 1B68     	 ldr r3,[r3]
 880 081c 1B88     	 ldrh r3,[r3]
 881 081e 1BB2     	 sxth r3,r3
 882 0820 C7F85C33 	 str r3,[r7,#860]
 356:../Dave/Generated/CMSIS_DSP/FilteringFunctions/arm_correlate_q15.c **** #ifdef  ARM_MATH_BIG_ENDIAN
 357:../Dave/Generated/CMSIS_DSP/FilteringFunctions/arm_correlate_q15.c **** 
 358:../Dave/Generated/CMSIS_DSP/FilteringFunctions/arm_correlate_q15.c ****         c0 = c0 << 16u;
 359:../Dave/Generated/CMSIS_DSP/FilteringFunctions/arm_correlate_q15.c **** 
 360:../Dave/Generated/CMSIS_DSP/FilteringFunctions/arm_correlate_q15.c **** #else
 361:../Dave/Generated/CMSIS_DSP/FilteringFunctions/arm_correlate_q15.c **** 
 362:../Dave/Generated/CMSIS_DSP/FilteringFunctions/arm_correlate_q15.c ****         c0 = c0 & 0x0000FFFF;
 883              	 .loc 1 362 0
 884 0824 D7F85C33 	 ldr r3,[r7,#860]
 885 0828 9BB2     	 uxth r3,r3
 886 082a C7F85C33 	 str r3,[r7,#860]
 363:../Dave/Generated/CMSIS_DSP/FilteringFunctions/arm_correlate_q15.c **** 
 364:../Dave/Generated/CMSIS_DSP/FilteringFunctions/arm_correlate_q15.c **** #endif /*      #ifdef  ARM_MATH_BIG_ENDIAN     */
 365:../Dave/Generated/CMSIS_DSP/FilteringFunctions/arm_correlate_q15.c ****         /* Read x[7] */
 366:../Dave/Generated/CMSIS_DSP/FilteringFunctions/arm_correlate_q15.c ****         x3 = *__SIMD32(px);
 887              	 .loc 1 366 0
 888 082e 07F59A73 	 add r3,r7,#308
 889 0832 1B68     	 ldr r3,[r3]
 890 0834 1B68     	 ldr r3,[r3]
 891 0836 C7F85433 	 str r3,[r7,#852]
 367:../Dave/Generated/CMSIS_DSP/FilteringFunctions/arm_correlate_q15.c **** 		px++;
 892              	 .loc 1 367 0
 893 083a 07F59A73 	 add r3,r7,#308
 894 083e 1B68     	 ldr r3,[r3]
 895 0840 9A1C     	 adds r2,r3,#2
 896 0842 07F59A73 	 add r3,r7,#308
 897 0846 1A60     	 str r2,[r3]
 368:../Dave/Generated/CMSIS_DSP/FilteringFunctions/arm_correlate_q15.c **** 
 369:../Dave/Generated/CMSIS_DSP/FilteringFunctions/arm_correlate_q15.c ****         /* Perform the multiply-accumulates */
 370:../Dave/Generated/CMSIS_DSP/FilteringFunctions/arm_correlate_q15.c ****         acc0 = __SMLALD(x0, c0, acc0);
 898              	 .loc 1 370 0
 899 0848 D7F89023 	 ldr r2,[r7,#912]
 900 084c D7F85C43 	 ldr r4,[r7,#860]
 901 0850 07F56C73 	 add r3,r7,#944
 902 0854 D3E90001 	 ldrd r0,[r3]
 903 0858 07F51973 	 add r3,r7,#612
 904 085c 1A60     	 str r2,[r3]
 905 085e 07F51873 	 add r3,r7,#608
 906 0862 1C60     	 str r4,[r3]
 907 0864 07F51673 	 add r3,r7,#600
 908 0868 C3E90001 	 strd r0,[r3]
 909              	.LBB93:
 910              	.LBB94:
 525:C:\Users\Depes Crystalline\Desktop\school\Active_Bike_Lighting_System\Radar_Core/Libraries/CMSIS/Include\core_cmSimd.h **** 
 911              	 .loc 2 525 0
 912 086c 07F19801 	 add r1,r7,#152
 913 0870 07F51673 	 add r3,r7,#600
 914 0874 D3E90023 	 ldrd r2,[r3]
 915 0878 C1E90023 	 strd r2,[r1]
 528:C:\Users\Depes Crystalline\Desktop\school\Active_Bike_Lighting_System\Radar_Core/Libraries/CMSIS/Include\core_cmSimd.h **** #else               // Big endian
 916              	 .loc 2 528 0
 917 087c 07F19803 	 add r3,r7,#152
 918 0880 1968     	 ldr r1,[r3]
 919 0882 07F19803 	 add r3,r7,#152
 920 0886 5A68     	 ldr r2,[r3,#4]
 921 0888 07F51973 	 add r3,r7,#612
 922 088c 1868     	 ldr r0,[r3]
 923 088e 07F51873 	 add r3,r7,#608
 924 0892 1B68     	 ldr r3,[r3]
 925              	
 926 0894 C0FBC312 	 smlald r1,r2,r0,r3
 927              	
 928              	 .thumb
 929 0898 07F19803 	 add r3,r7,#152
 930 089c 1960     	 str r1,[r3]
 931 089e 07F19803 	 add r3,r7,#152
 932 08a2 5A60     	 str r2,[r3,#4]
 933              	 .loc 2 533 0
 934 08a4 07F19803 	 add r3,r7,#152
 935 08a8 D3E90023 	 ldrd r2,[r3]
 936              	.LBE94:
 937              	.LBE93:
 938              	 .loc 1 370 0
 939 08ac 07F56C71 	 add r1,r7,#944
 940 08b0 C1E90023 	 strd r2,[r1]
 371:../Dave/Generated/CMSIS_DSP/FilteringFunctions/arm_correlate_q15.c ****         acc1 = __SMLALD(x1, c0, acc1);
 941              	 .loc 1 371 0
 942 08b4 D7F88C23 	 ldr r2,[r7,#908]
 943 08b8 D7F85C43 	 ldr r4,[r7,#860]
 944 08bc 07F56A73 	 add r3,r7,#936
 945 08c0 D3E90001 	 ldrd r0,[r3]
 946 08c4 07F51573 	 add r3,r7,#596
 947 08c8 1A60     	 str r2,[r3]
 948 08ca 07F51473 	 add r3,r7,#592
 949 08ce 1C60     	 str r4,[r3]
 950 08d0 07F51273 	 add r3,r7,#584
 951 08d4 C3E90001 	 strd r0,[r3]
 952              	.LBB95:
 953              	.LBB96:
 525:C:\Users\Depes Crystalline\Desktop\school\Active_Bike_Lighting_System\Radar_Core/Libraries/CMSIS/Include\core_cmSimd.h **** 
 954              	 .loc 2 525 0
 955 08d8 07F1A001 	 add r1,r7,#160
 956 08dc 07F51273 	 add r3,r7,#584
 957 08e0 D3E90023 	 ldrd r2,[r3]
 958 08e4 C1E90023 	 strd r2,[r1]
 528:C:\Users\Depes Crystalline\Desktop\school\Active_Bike_Lighting_System\Radar_Core/Libraries/CMSIS/Include\core_cmSimd.h **** #else               // Big endian
 959              	 .loc 2 528 0
 960 08e8 07F1A003 	 add r3,r7,#160
 961 08ec 1968     	 ldr r1,[r3]
 962 08ee 07F1A003 	 add r3,r7,#160
 963 08f2 5A68     	 ldr r2,[r3,#4]
 964 08f4 07F51573 	 add r3,r7,#596
 965 08f8 1868     	 ldr r0,[r3]
 966 08fa 07F51473 	 add r3,r7,#592
 967 08fe 1B68     	 ldr r3,[r3]
 968              	
 969 0900 C0FBC312 	 smlald r1,r2,r0,r3
 970              	
 971              	 .thumb
 972 0904 07F1A003 	 add r3,r7,#160
 973 0908 1960     	 str r1,[r3]
 974 090a 07F1A003 	 add r3,r7,#160
 975 090e 5A60     	 str r2,[r3,#4]
 976              	 .loc 2 533 0
 977 0910 07F1A003 	 add r3,r7,#160
 978 0914 D3E90023 	 ldrd r2,[r3]
 979              	.LBE96:
 980              	.LBE95:
 981              	 .loc 1 371 0
 982 0918 07F56A71 	 add r1,r7,#936
 983 091c C1E90023 	 strd r2,[r1]
 372:../Dave/Generated/CMSIS_DSP/FilteringFunctions/arm_correlate_q15.c ****         acc2 = __SMLALDX(x1, c0, acc2);
 984              	 .loc 1 372 0
 985 0920 D7F88C23 	 ldr r2,[r7,#908]
 986 0924 D7F85C43 	 ldr r4,[r7,#860]
 987 0928 07F56873 	 add r3,r7,#928
 988 092c D3E90001 	 ldrd r0,[r3]
 989 0930 07F51173 	 add r3,r7,#580
 990 0934 1A60     	 str r2,[r3]
 991 0936 07F51073 	 add r3,r7,#576
 992 093a 1C60     	 str r4,[r3]
 993 093c 07F50E73 	 add r3,r7,#568
 994 0940 C3E90001 	 strd r0,[r3]
 995              	.LBB97:
 996              	.LBB98:
 534:C:\Users\Depes Crystalline\Desktop\school\Active_Bike_Lighting_System\Radar_Core/Libraries/CMSIS/Include\core_cmSimd.h **** }
 535:C:\Users\Depes Crystalline\Desktop\school\Active_Bike_Lighting_System\Radar_Core/Libraries/CMSIS/Include\core_cmSimd.h **** 
 536:C:\Users\Depes Crystalline\Desktop\school\Active_Bike_Lighting_System\Radar_Core/Libraries/CMSIS/Include\core_cmSimd.h **** __attribute__( ( always_inline ) ) __STATIC_INLINE uint64_t __SMLALDX (uint32_t op1, uint32_t op2, 
 537:C:\Users\Depes Crystalline\Desktop\school\Active_Bike_Lighting_System\Radar_Core/Libraries/CMSIS/Include\core_cmSimd.h **** {
 538:C:\Users\Depes Crystalline\Desktop\school\Active_Bike_Lighting_System\Radar_Core/Libraries/CMSIS/Include\core_cmSimd.h ****   union llreg_u{
 539:C:\Users\Depes Crystalline\Desktop\school\Active_Bike_Lighting_System\Radar_Core/Libraries/CMSIS/Include\core_cmSimd.h ****     uint32_t w32[2];
 540:C:\Users\Depes Crystalline\Desktop\school\Active_Bike_Lighting_System\Radar_Core/Libraries/CMSIS/Include\core_cmSimd.h ****     uint64_t w64;
 541:C:\Users\Depes Crystalline\Desktop\school\Active_Bike_Lighting_System\Radar_Core/Libraries/CMSIS/Include\core_cmSimd.h ****   } llr;
 542:C:\Users\Depes Crystalline\Desktop\school\Active_Bike_Lighting_System\Radar_Core/Libraries/CMSIS/Include\core_cmSimd.h ****   llr.w64 = acc;
 997              	 .loc 2 542 0
 998 0944 07F1A801 	 add r1,r7,#168
 999 0948 07F50E73 	 add r3,r7,#568
 1000 094c D3E90023 	 ldrd r2,[r3]
 1001 0950 C1E90023 	 strd r2,[r1]
 543:C:\Users\Depes Crystalline\Desktop\school\Active_Bike_Lighting_System\Radar_Core/Libraries/CMSIS/Include\core_cmSimd.h **** 
 544:C:\Users\Depes Crystalline\Desktop\school\Active_Bike_Lighting_System\Radar_Core/Libraries/CMSIS/Include\core_cmSimd.h **** #ifndef __ARMEB__   // Little endian
 545:C:\Users\Depes Crystalline\Desktop\school\Active_Bike_Lighting_System\Radar_Core/Libraries/CMSIS/Include\core_cmSimd.h ****   __ASM volatile ("smlaldx %0, %1, %2, %3" : "=r" (llr.w32[0]), "=r" (llr.w32[1]): "r" (op1), "r" (
 1002              	 .loc 2 545 0
 1003 0954 07F1A803 	 add r3,r7,#168
 1004 0958 1968     	 ldr r1,[r3]
 1005 095a 07F1A803 	 add r3,r7,#168
 1006 095e 5A68     	 ldr r2,[r3,#4]
 1007 0960 07F51173 	 add r3,r7,#580
 1008 0964 1868     	 ldr r0,[r3]
 1009 0966 07F51073 	 add r3,r7,#576
 1010 096a 1B68     	 ldr r3,[r3]
 1011              	
 1012 096c C0FBD312 	 smlaldx r1,r2,r0,r3
 1013              	
 1014              	 .thumb
 1015 0970 07F1A803 	 add r3,r7,#168
 1016 0974 1960     	 str r1,[r3]
 1017 0976 07F1A803 	 add r3,r7,#168
 1018 097a 5A60     	 str r2,[r3,#4]
 546:C:\Users\Depes Crystalline\Desktop\school\Active_Bike_Lighting_System\Radar_Core/Libraries/CMSIS/Include\core_cmSimd.h **** #else               // Big endian
 547:C:\Users\Depes Crystalline\Desktop\school\Active_Bike_Lighting_System\Radar_Core/Libraries/CMSIS/Include\core_cmSimd.h ****   __ASM volatile ("smlaldx %0, %1, %2, %3" : "=r" (llr.w32[1]), "=r" (llr.w32[0]): "r" (op1), "r" (
 548:C:\Users\Depes Crystalline\Desktop\school\Active_Bike_Lighting_System\Radar_Core/Libraries/CMSIS/Include\core_cmSimd.h **** #endif
 549:C:\Users\Depes Crystalline\Desktop\school\Active_Bike_Lighting_System\Radar_Core/Libraries/CMSIS/Include\core_cmSimd.h **** 
 550:C:\Users\Depes Crystalline\Desktop\school\Active_Bike_Lighting_System\Radar_Core/Libraries/CMSIS/Include\core_cmSimd.h ****   return(llr.w64);
 1019              	 .loc 2 550 0
 1020 097c 07F1A803 	 add r3,r7,#168
 1021 0980 D3E90023 	 ldrd r2,[r3]
 1022              	.LBE98:
 1023              	.LBE97:
 1024              	 .loc 1 372 0
 1025 0984 07F56871 	 add r1,r7,#928
 1026 0988 C1E90023 	 strd r2,[r1]
 373:../Dave/Generated/CMSIS_DSP/FilteringFunctions/arm_correlate_q15.c ****         acc3 = __SMLALDX(x3, c0, acc3);
 1027              	 .loc 1 373 0
 1028 098c D7F85423 	 ldr r2,[r7,#852]
 1029 0990 D7F85C43 	 ldr r4,[r7,#860]
 1030 0994 07F56673 	 add r3,r7,#920
 1031 0998 D3E90001 	 ldrd r0,[r3]
 1032 099c 07F50D73 	 add r3,r7,#564
 1033 09a0 1A60     	 str r2,[r3]
 1034 09a2 07F50C73 	 add r3,r7,#560
 1035 09a6 1C60     	 str r4,[r3]
 1036 09a8 07F50A73 	 add r3,r7,#552
 1037 09ac C3E90001 	 strd r0,[r3]
 1038              	.LBB99:
 1039              	.LBB100:
 542:C:\Users\Depes Crystalline\Desktop\school\Active_Bike_Lighting_System\Radar_Core/Libraries/CMSIS/Include\core_cmSimd.h **** 
 1040              	 .loc 2 542 0
 1041 09b0 07F1B001 	 add r1,r7,#176
 1042 09b4 07F50A73 	 add r3,r7,#552
 1043 09b8 D3E90023 	 ldrd r2,[r3]
 1044 09bc C1E90023 	 strd r2,[r1]
 545:C:\Users\Depes Crystalline\Desktop\school\Active_Bike_Lighting_System\Radar_Core/Libraries/CMSIS/Include\core_cmSimd.h **** #else               // Big endian
 1045              	 .loc 2 545 0
 1046 09c0 07F1B003 	 add r3,r7,#176
 1047 09c4 1968     	 ldr r1,[r3]
 1048 09c6 07F1B003 	 add r3,r7,#176
 1049 09ca 5A68     	 ldr r2,[r3,#4]
 1050 09cc 07F50D73 	 add r3,r7,#564
 1051 09d0 1868     	 ldr r0,[r3]
 1052 09d2 07F50C73 	 add r3,r7,#560
 1053 09d6 1B68     	 ldr r3,[r3]
 1054              	
 1055 09d8 C0FBD312 	 smlaldx r1,r2,r0,r3
 1056              	
 1057              	 .thumb
 1058 09dc 07F1B003 	 add r3,r7,#176
 1059 09e0 1960     	 str r1,[r3]
 1060 09e2 07F1B003 	 add r3,r7,#176
 1061 09e6 5A60     	 str r2,[r3,#4]
 1062              	 .loc 2 550 0
 1063 09e8 07F1B003 	 add r3,r7,#176
 1064 09ec D3E90023 	 ldrd r2,[r3]
 1065              	.LBE100:
 1066              	.LBE99:
 1067              	 .loc 1 373 0
 1068 09f0 07F56671 	 add r1,r7,#920
 1069 09f4 C1E90023 	 strd r2,[r1]
 1070              	.L24:
 374:../Dave/Generated/CMSIS_DSP/FilteringFunctions/arm_correlate_q15.c ****       }
 375:../Dave/Generated/CMSIS_DSP/FilteringFunctions/arm_correlate_q15.c **** 
 376:../Dave/Generated/CMSIS_DSP/FilteringFunctions/arm_correlate_q15.c ****       if(k == 2u)
 1071              	 .loc 1 376 0
 1072 09f8 D7F88833 	 ldr r3,[r7,#904]
 1073 09fc 022B     	 cmp r3,#2
 1074 09fe 40F0F280 	 bne .L29
 377:../Dave/Generated/CMSIS_DSP/FilteringFunctions/arm_correlate_q15.c ****       {
 378:../Dave/Generated/CMSIS_DSP/FilteringFunctions/arm_correlate_q15.c ****         /* Read y[4], y[5] */
 379:../Dave/Generated/CMSIS_DSP/FilteringFunctions/arm_correlate_q15.c ****         c0 = *__SIMD32(py);
 1075              	 .loc 1 379 0
 1076 0a02 07F59873 	 add r3,r7,#304
 1077 0a06 1B68     	 ldr r3,[r3]
 1078 0a08 1B68     	 ldr r3,[r3]
 1079 0a0a C7F85C33 	 str r3,[r7,#860]
 380:../Dave/Generated/CMSIS_DSP/FilteringFunctions/arm_correlate_q15.c **** 
 381:../Dave/Generated/CMSIS_DSP/FilteringFunctions/arm_correlate_q15.c ****         /* Read x[7], x[8] */
 382:../Dave/Generated/CMSIS_DSP/FilteringFunctions/arm_correlate_q15.c ****         x3 = *__SIMD32(px);
 1080              	 .loc 1 382 0
 1081 0a0e 07F59A73 	 add r3,r7,#308
 1082 0a12 1B68     	 ldr r3,[r3]
 1083 0a14 1B68     	 ldr r3,[r3]
 1084 0a16 C7F85433 	 str r3,[r7,#852]
 383:../Dave/Generated/CMSIS_DSP/FilteringFunctions/arm_correlate_q15.c **** 
 384:../Dave/Generated/CMSIS_DSP/FilteringFunctions/arm_correlate_q15.c ****         /* Read x[9] */
 385:../Dave/Generated/CMSIS_DSP/FilteringFunctions/arm_correlate_q15.c ****         x2 = _SIMD32_OFFSET(px + 1);
 1085              	 .loc 1 385 0
 1086 0a1a 07F59A73 	 add r3,r7,#308
 1087 0a1e 1B68     	 ldr r3,[r3]
 1088 0a20 D3F80230 	 ldr r3,[r3,#2]
 1089 0a24 C7F85833 	 str r3,[r7,#856]
 386:../Dave/Generated/CMSIS_DSP/FilteringFunctions/arm_correlate_q15.c **** 		px += 2u;
 1090              	 .loc 1 386 0
 1091 0a28 07F59A73 	 add r3,r7,#308
 1092 0a2c 1B68     	 ldr r3,[r3]
 1093 0a2e 1A1D     	 adds r2,r3,#4
 1094 0a30 07F59A73 	 add r3,r7,#308
 1095 0a34 1A60     	 str r2,[r3]
 387:../Dave/Generated/CMSIS_DSP/FilteringFunctions/arm_correlate_q15.c **** 
 388:../Dave/Generated/CMSIS_DSP/FilteringFunctions/arm_correlate_q15.c ****         /* Perform the multiply-accumulates */
 389:../Dave/Generated/CMSIS_DSP/FilteringFunctions/arm_correlate_q15.c ****         acc0 = __SMLALD(x0, c0, acc0);
 1096              	 .loc 1 389 0
 1097 0a36 D7F89023 	 ldr r2,[r7,#912]
 1098 0a3a D7F85C43 	 ldr r4,[r7,#860]
 1099 0a3e 07F56C73 	 add r3,r7,#944
 1100 0a42 D3E90001 	 ldrd r0,[r3]
 1101 0a46 07F50973 	 add r3,r7,#548
 1102 0a4a 1A60     	 str r2,[r3]
 1103 0a4c 07F50873 	 add r3,r7,#544
 1104 0a50 1C60     	 str r4,[r3]
 1105 0a52 07F50673 	 add r3,r7,#536
 1106 0a56 C3E90001 	 strd r0,[r3]
 1107              	.LBB101:
 1108              	.LBB102:
 525:C:\Users\Depes Crystalline\Desktop\school\Active_Bike_Lighting_System\Radar_Core/Libraries/CMSIS/Include\core_cmSimd.h **** 
 1109              	 .loc 2 525 0
 1110 0a5a 07F1B801 	 add r1,r7,#184
 1111 0a5e 07F50673 	 add r3,r7,#536
 1112 0a62 D3E90023 	 ldrd r2,[r3]
 1113 0a66 C1E90023 	 strd r2,[r1]
 528:C:\Users\Depes Crystalline\Desktop\school\Active_Bike_Lighting_System\Radar_Core/Libraries/CMSIS/Include\core_cmSimd.h **** #else               // Big endian
 1114              	 .loc 2 528 0
 1115 0a6a 07F1B803 	 add r3,r7,#184
 1116 0a6e 1968     	 ldr r1,[r3]
 1117 0a70 07F1B803 	 add r3,r7,#184
 1118 0a74 5A68     	 ldr r2,[r3,#4]
 1119 0a76 07F50973 	 add r3,r7,#548
 1120 0a7a 1868     	 ldr r0,[r3]
 1121 0a7c 07F50873 	 add r3,r7,#544
 1122 0a80 1B68     	 ldr r3,[r3]
 1123              	
 1124 0a82 C0FBC312 	 smlald r1,r2,r0,r3
 1125              	
 1126              	 .thumb
 1127 0a86 07F1B803 	 add r3,r7,#184
 1128 0a8a 1960     	 str r1,[r3]
 1129 0a8c 07F1B803 	 add r3,r7,#184
 1130 0a90 5A60     	 str r2,[r3,#4]
 533:C:\Users\Depes Crystalline\Desktop\school\Active_Bike_Lighting_System\Radar_Core/Libraries/CMSIS/Include\core_cmSimd.h **** }
 1131              	 .loc 2 533 0
 1132 0a92 07F1B803 	 add r3,r7,#184
 1133 0a96 D3E90023 	 ldrd r2,[r3]
 1134              	.LBE102:
 1135              	.LBE101:
 1136              	 .loc 1 389 0
 1137 0a9a 07F56C71 	 add r1,r7,#944
 1138 0a9e C1E90023 	 strd r2,[r1]
 390:../Dave/Generated/CMSIS_DSP/FilteringFunctions/arm_correlate_q15.c ****         acc1 = __SMLALD(x1, c0, acc1);
 1139              	 .loc 1 390 0
 1140 0aa2 D7F88C23 	 ldr r2,[r7,#908]
 1141 0aa6 D7F85C43 	 ldr r4,[r7,#860]
 1142 0aaa 07F56A73 	 add r3,r7,#936
 1143 0aae D3E90001 	 ldrd r0,[r3]
 1144 0ab2 07F50573 	 add r3,r7,#532
 1145 0ab6 1A60     	 str r2,[r3]
 1146 0ab8 07F50473 	 add r3,r7,#528
 1147 0abc 1C60     	 str r4,[r3]
 1148 0abe 07F50273 	 add r3,r7,#520
 1149 0ac2 C3E90001 	 strd r0,[r3]
 1150              	.LBB103:
 1151              	.LBB104:
 525:C:\Users\Depes Crystalline\Desktop\school\Active_Bike_Lighting_System\Radar_Core/Libraries/CMSIS/Include\core_cmSimd.h **** 
 1152              	 .loc 2 525 0
 1153 0ac6 07F1C001 	 add r1,r7,#192
 1154 0aca 07F50273 	 add r3,r7,#520
 1155 0ace D3E90023 	 ldrd r2,[r3]
 1156 0ad2 C1E90023 	 strd r2,[r1]
 528:C:\Users\Depes Crystalline\Desktop\school\Active_Bike_Lighting_System\Radar_Core/Libraries/CMSIS/Include\core_cmSimd.h **** #else               // Big endian
 1157              	 .loc 2 528 0
 1158 0ad6 07F1C003 	 add r3,r7,#192
 1159 0ada 1968     	 ldr r1,[r3]
 1160 0adc 07F1C003 	 add r3,r7,#192
 1161 0ae0 5A68     	 ldr r2,[r3,#4]
 1162 0ae2 07F50573 	 add r3,r7,#532
 1163 0ae6 1868     	 ldr r0,[r3]
 1164 0ae8 07F50473 	 add r3,r7,#528
 1165 0aec 1B68     	 ldr r3,[r3]
 1166              	
 1167 0aee C0FBC312 	 smlald r1,r2,r0,r3
 1168              	
 1169              	 .thumb
 1170 0af2 07F1C003 	 add r3,r7,#192
 1171 0af6 1960     	 str r1,[r3]
 1172 0af8 07F1C003 	 add r3,r7,#192
 1173 0afc 5A60     	 str r2,[r3,#4]
 533:C:\Users\Depes Crystalline\Desktop\school\Active_Bike_Lighting_System\Radar_Core/Libraries/CMSIS/Include\core_cmSimd.h **** }
 1174              	 .loc 2 533 0
 1175 0afe 07F1C003 	 add r3,r7,#192
 1176 0b02 D3E90023 	 ldrd r2,[r3]
 1177              	.LBE104:
 1178              	.LBE103:
 1179              	 .loc 1 390 0
 1180 0b06 07F56A71 	 add r1,r7,#936
 1181 0b0a C1E90023 	 strd r2,[r1]
 391:../Dave/Generated/CMSIS_DSP/FilteringFunctions/arm_correlate_q15.c ****         acc2 = __SMLALD(x3, c0, acc2);
 1182              	 .loc 1 391 0
 1183 0b0e D7F85423 	 ldr r2,[r7,#852]
 1184 0b12 D7F85C43 	 ldr r4,[r7,#860]
 1185 0b16 07F56873 	 add r3,r7,#928
 1186 0b1a D3E90001 	 ldrd r0,[r3]
 1187 0b1e 07F50173 	 add r3,r7,#516
 1188 0b22 1A60     	 str r2,[r3]
 1189 0b24 07F50073 	 add r3,r7,#512
 1190 0b28 1C60     	 str r4,[r3]
 1191 0b2a 07F5FC73 	 add r3,r7,#504
 1192 0b2e C3E90001 	 strd r0,[r3]
 1193              	.LBB105:
 1194              	.LBB106:
 525:C:\Users\Depes Crystalline\Desktop\school\Active_Bike_Lighting_System\Radar_Core/Libraries/CMSIS/Include\core_cmSimd.h **** 
 1195              	 .loc 2 525 0
 1196 0b32 07F1C801 	 add r1,r7,#200
 1197 0b36 07F5FC73 	 add r3,r7,#504
 1198 0b3a D3E90023 	 ldrd r2,[r3]
 1199 0b3e C1E90023 	 strd r2,[r1]
 528:C:\Users\Depes Crystalline\Desktop\school\Active_Bike_Lighting_System\Radar_Core/Libraries/CMSIS/Include\core_cmSimd.h **** #else               // Big endian
 1200              	 .loc 2 528 0
 1201 0b42 07F1C803 	 add r3,r7,#200
 1202 0b46 1968     	 ldr r1,[r3]
 1203 0b48 07F1C803 	 add r3,r7,#200
 1204 0b4c 5A68     	 ldr r2,[r3,#4]
 1205 0b4e 07F50173 	 add r3,r7,#516
 1206 0b52 1868     	 ldr r0,[r3]
 1207 0b54 07F50073 	 add r3,r7,#512
 1208 0b58 1B68     	 ldr r3,[r3]
 1209              	
 1210 0b5a C0FBC312 	 smlald r1,r2,r0,r3
 1211              	
 1212              	 .thumb
 1213 0b5e 07F1C803 	 add r3,r7,#200
 1214 0b62 1960     	 str r1,[r3]
 1215 0b64 07F1C803 	 add r3,r7,#200
 1216 0b68 5A60     	 str r2,[r3,#4]
 533:C:\Users\Depes Crystalline\Desktop\school\Active_Bike_Lighting_System\Radar_Core/Libraries/CMSIS/Include\core_cmSimd.h **** }
 1217              	 .loc 2 533 0
 1218 0b6a 07F1C803 	 add r3,r7,#200
 1219 0b6e D3E90023 	 ldrd r2,[r3]
 1220              	.LBE106:
 1221              	.LBE105:
 1222              	 .loc 1 391 0
 1223 0b72 07F56871 	 add r1,r7,#928
 1224 0b76 C1E90023 	 strd r2,[r1]
 392:../Dave/Generated/CMSIS_DSP/FilteringFunctions/arm_correlate_q15.c ****         acc3 = __SMLALD(x2, c0, acc3);
 1225              	 .loc 1 392 0
 1226 0b7a D7F85823 	 ldr r2,[r7,#856]
 1227 0b7e D7F85C43 	 ldr r4,[r7,#860]
 1228 0b82 07F56673 	 add r3,r7,#920
 1229 0b86 D3E90001 	 ldrd r0,[r3]
 1230 0b8a 07F5FA73 	 add r3,r7,#500
 1231 0b8e 1A60     	 str r2,[r3]
 1232 0b90 07F5F873 	 add r3,r7,#496
 1233 0b94 1C60     	 str r4,[r3]
 1234 0b96 07F5F473 	 add r3,r7,#488
 1235 0b9a C3E90001 	 strd r0,[r3]
 1236              	.LBB107:
 1237              	.LBB108:
 525:C:\Users\Depes Crystalline\Desktop\school\Active_Bike_Lighting_System\Radar_Core/Libraries/CMSIS/Include\core_cmSimd.h **** 
 1238              	 .loc 2 525 0
 1239 0b9e 07F1D001 	 add r1,r7,#208
 1240 0ba2 07F5F473 	 add r3,r7,#488
 1241 0ba6 D3E90023 	 ldrd r2,[r3]
 1242 0baa C1E90023 	 strd r2,[r1]
 528:C:\Users\Depes Crystalline\Desktop\school\Active_Bike_Lighting_System\Radar_Core/Libraries/CMSIS/Include\core_cmSimd.h **** #else               // Big endian
 1243              	 .loc 2 528 0
 1244 0bae 07F1D003 	 add r3,r7,#208
 1245 0bb2 1968     	 ldr r1,[r3]
 1246 0bb4 07F1D003 	 add r3,r7,#208
 1247 0bb8 5A68     	 ldr r2,[r3,#4]
 1248 0bba 07F5FA73 	 add r3,r7,#500
 1249 0bbe 1868     	 ldr r0,[r3]
 1250 0bc0 07F5F873 	 add r3,r7,#496
 1251 0bc4 1B68     	 ldr r3,[r3]
 1252              	
 1253 0bc6 C0FBC312 	 smlald r1,r2,r0,r3
 1254              	
 1255              	 .thumb
 1256 0bca 07F1D003 	 add r3,r7,#208
 1257 0bce 1960     	 str r1,[r3]
 1258 0bd0 07F1D003 	 add r3,r7,#208
 1259 0bd4 5A60     	 str r2,[r3,#4]
 533:C:\Users\Depes Crystalline\Desktop\school\Active_Bike_Lighting_System\Radar_Core/Libraries/CMSIS/Include\core_cmSimd.h **** }
 1260              	 .loc 2 533 0
 1261 0bd6 07F1D003 	 add r3,r7,#208
 1262 0bda D3E90023 	 ldrd r2,[r3]
 1263              	.LBE108:
 1264              	.LBE107:
 1265              	 .loc 1 392 0
 1266 0bde 07F56671 	 add r1,r7,#920
 1267 0be2 C1E90023 	 strd r2,[r1]
 1268              	.L29:
 393:../Dave/Generated/CMSIS_DSP/FilteringFunctions/arm_correlate_q15.c ****       }
 394:../Dave/Generated/CMSIS_DSP/FilteringFunctions/arm_correlate_q15.c **** 
 395:../Dave/Generated/CMSIS_DSP/FilteringFunctions/arm_correlate_q15.c ****       if(k == 3u)
 1269              	 .loc 1 395 0
 1270 0be6 D7F88833 	 ldr r3,[r7,#904]
 1271 0bea 032B     	 cmp r3,#3
 1272 0bec 40F0DE81 	 bne .L34
 396:../Dave/Generated/CMSIS_DSP/FilteringFunctions/arm_correlate_q15.c ****       {
 397:../Dave/Generated/CMSIS_DSP/FilteringFunctions/arm_correlate_q15.c ****         /* Read y[4], y[5] */
 398:../Dave/Generated/CMSIS_DSP/FilteringFunctions/arm_correlate_q15.c ****         c0 = *__SIMD32(py)++;
 1273              	 .loc 1 398 0
 1274 0bf0 07F59871 	 add r1,r7,#304
 1275 0bf4 0A68     	 ldr r2,[r1]
 1276 0bf6 131D     	 adds r3,r2,#4
 1277 0bf8 0B60     	 str r3,[r1]
 1278 0bfa 1368     	 ldr r3,[r2]
 1279 0bfc C7F85C33 	 str r3,[r7,#860]
 399:../Dave/Generated/CMSIS_DSP/FilteringFunctions/arm_correlate_q15.c **** 
 400:../Dave/Generated/CMSIS_DSP/FilteringFunctions/arm_correlate_q15.c ****         /* Read x[7], x[8] */
 401:../Dave/Generated/CMSIS_DSP/FilteringFunctions/arm_correlate_q15.c ****         x3 = *__SIMD32(px);
 1280              	 .loc 1 401 0
 1281 0c00 07F59A73 	 add r3,r7,#308
 1282 0c04 1B68     	 ldr r3,[r3]
 1283 0c06 1B68     	 ldr r3,[r3]
 1284 0c08 C7F85433 	 str r3,[r7,#852]
 402:../Dave/Generated/CMSIS_DSP/FilteringFunctions/arm_correlate_q15.c **** 
 403:../Dave/Generated/CMSIS_DSP/FilteringFunctions/arm_correlate_q15.c ****         /* Read x[9] */
 404:../Dave/Generated/CMSIS_DSP/FilteringFunctions/arm_correlate_q15.c ****         x2 = _SIMD32_OFFSET(px + 1);
 1285              	 .loc 1 404 0
 1286 0c0c 07F59A73 	 add r3,r7,#308
 1287 0c10 1B68     	 ldr r3,[r3]
 1288 0c12 D3F80230 	 ldr r3,[r3,#2]
 1289 0c16 C7F85833 	 str r3,[r7,#856]
 405:../Dave/Generated/CMSIS_DSP/FilteringFunctions/arm_correlate_q15.c **** 
 406:../Dave/Generated/CMSIS_DSP/FilteringFunctions/arm_correlate_q15.c ****         /* Perform the multiply-accumulates */
 407:../Dave/Generated/CMSIS_DSP/FilteringFunctions/arm_correlate_q15.c ****         acc0 = __SMLALD(x0, c0, acc0);
 1290              	 .loc 1 407 0
 1291 0c1a D7F89023 	 ldr r2,[r7,#912]
 1292 0c1e D7F85C43 	 ldr r4,[r7,#860]
 1293 0c22 07F56C73 	 add r3,r7,#944
 1294 0c26 D3E90001 	 ldrd r0,[r3]
 1295 0c2a 07F5F273 	 add r3,r7,#484
 1296 0c2e 1A60     	 str r2,[r3]
 1297 0c30 07F5F073 	 add r3,r7,#480
 1298 0c34 1C60     	 str r4,[r3]
 1299 0c36 07F5EC73 	 add r3,r7,#472
 1300 0c3a C3E90001 	 strd r0,[r3]
 1301              	.LBB109:
 1302              	.LBB110:
 525:C:\Users\Depes Crystalline\Desktop\school\Active_Bike_Lighting_System\Radar_Core/Libraries/CMSIS/Include\core_cmSimd.h **** 
 1303              	 .loc 2 525 0
 1304 0c3e 07F1D801 	 add r1,r7,#216
 1305 0c42 07F5EC73 	 add r3,r7,#472
 1306 0c46 D3E90023 	 ldrd r2,[r3]
 1307 0c4a C1E90023 	 strd r2,[r1]
 528:C:\Users\Depes Crystalline\Desktop\school\Active_Bike_Lighting_System\Radar_Core/Libraries/CMSIS/Include\core_cmSimd.h **** #else               // Big endian
 1308              	 .loc 2 528 0
 1309 0c4e 07F1D803 	 add r3,r7,#216
 1310 0c52 1968     	 ldr r1,[r3]
 1311 0c54 07F1D803 	 add r3,r7,#216
 1312 0c58 5A68     	 ldr r2,[r3,#4]
 1313 0c5a 07F5F273 	 add r3,r7,#484
 1314 0c5e 1868     	 ldr r0,[r3]
 1315 0c60 07F5F073 	 add r3,r7,#480
 1316 0c64 1B68     	 ldr r3,[r3]
 1317              	
 1318 0c66 C0FBC312 	 smlald r1,r2,r0,r3
 1319              	
 1320              	 .thumb
 1321 0c6a 07F1D803 	 add r3,r7,#216
 1322 0c6e 1960     	 str r1,[r3]
 1323 0c70 07F1D803 	 add r3,r7,#216
 1324 0c74 5A60     	 str r2,[r3,#4]
 533:C:\Users\Depes Crystalline\Desktop\school\Active_Bike_Lighting_System\Radar_Core/Libraries/CMSIS/Include\core_cmSimd.h **** }
 1325              	 .loc 2 533 0
 1326 0c76 07F1D803 	 add r3,r7,#216
 1327 0c7a D3E90023 	 ldrd r2,[r3]
 1328              	.LBE110:
 1329              	.LBE109:
 1330              	 .loc 1 407 0
 1331 0c7e 07F56C71 	 add r1,r7,#944
 1332 0c82 C1E90023 	 strd r2,[r1]
 408:../Dave/Generated/CMSIS_DSP/FilteringFunctions/arm_correlate_q15.c ****         acc1 = __SMLALD(x1, c0, acc1);
 1333              	 .loc 1 408 0
 1334 0c86 D7F88C23 	 ldr r2,[r7,#908]
 1335 0c8a D7F85C43 	 ldr r4,[r7,#860]
 1336 0c8e 07F56A73 	 add r3,r7,#936
 1337 0c92 D3E90001 	 ldrd r0,[r3]
 1338 0c96 07F5EA73 	 add r3,r7,#468
 1339 0c9a 1A60     	 str r2,[r3]
 1340 0c9c 07F5E873 	 add r3,r7,#464
 1341 0ca0 1C60     	 str r4,[r3]
 1342 0ca2 07F5E473 	 add r3,r7,#456
 1343 0ca6 C3E90001 	 strd r0,[r3]
 1344              	.LBB111:
 1345              	.LBB112:
 525:C:\Users\Depes Crystalline\Desktop\school\Active_Bike_Lighting_System\Radar_Core/Libraries/CMSIS/Include\core_cmSimd.h **** 
 1346              	 .loc 2 525 0
 1347 0caa 07F1E001 	 add r1,r7,#224
 1348 0cae 07F5E473 	 add r3,r7,#456
 1349 0cb2 D3E90023 	 ldrd r2,[r3]
 1350 0cb6 C1E90023 	 strd r2,[r1]
 528:C:\Users\Depes Crystalline\Desktop\school\Active_Bike_Lighting_System\Radar_Core/Libraries/CMSIS/Include\core_cmSimd.h **** #else               // Big endian
 1351              	 .loc 2 528 0
 1352 0cba 07F1E003 	 add r3,r7,#224
 1353 0cbe 1968     	 ldr r1,[r3]
 1354 0cc0 07F1E003 	 add r3,r7,#224
 1355 0cc4 5A68     	 ldr r2,[r3,#4]
 1356 0cc6 07F5EA73 	 add r3,r7,#468
 1357 0cca 1868     	 ldr r0,[r3]
 1358 0ccc 07F5E873 	 add r3,r7,#464
 1359 0cd0 1B68     	 ldr r3,[r3]
 1360              	
 1361 0cd2 C0FBC312 	 smlald r1,r2,r0,r3
 1362              	
 1363              	 .thumb
 1364 0cd6 07F1E003 	 add r3,r7,#224
 1365 0cda 1960     	 str r1,[r3]
 1366 0cdc 07F1E003 	 add r3,r7,#224
 1367 0ce0 5A60     	 str r2,[r3,#4]
 533:C:\Users\Depes Crystalline\Desktop\school\Active_Bike_Lighting_System\Radar_Core/Libraries/CMSIS/Include\core_cmSimd.h **** }
 1368              	 .loc 2 533 0
 1369 0ce2 07F1E003 	 add r3,r7,#224
 1370 0ce6 D3E90023 	 ldrd r2,[r3]
 1371              	.LBE112:
 1372              	.LBE111:
 1373              	 .loc 1 408 0
 1374 0cea 07F56A71 	 add r1,r7,#936
 1375 0cee C1E90023 	 strd r2,[r1]
 409:../Dave/Generated/CMSIS_DSP/FilteringFunctions/arm_correlate_q15.c ****         acc2 = __SMLALD(x3, c0, acc2);
 1376              	 .loc 1 409 0
 1377 0cf2 D7F85423 	 ldr r2,[r7,#852]
 1378 0cf6 D7F85C43 	 ldr r4,[r7,#860]
 1379 0cfa 07F56873 	 add r3,r7,#928
 1380 0cfe D3E90001 	 ldrd r0,[r3]
 1381 0d02 07F5E273 	 add r3,r7,#452
 1382 0d06 1A60     	 str r2,[r3]
 1383 0d08 07F5E073 	 add r3,r7,#448
 1384 0d0c 1C60     	 str r4,[r3]
 1385 0d0e 07F5DC73 	 add r3,r7,#440
 1386 0d12 C3E90001 	 strd r0,[r3]
 1387              	.LBB113:
 1388              	.LBB114:
 525:C:\Users\Depes Crystalline\Desktop\school\Active_Bike_Lighting_System\Radar_Core/Libraries/CMSIS/Include\core_cmSimd.h **** 
 1389              	 .loc 2 525 0
 1390 0d16 07F1E801 	 add r1,r7,#232
 1391 0d1a 07F5DC73 	 add r3,r7,#440
 1392 0d1e D3E90023 	 ldrd r2,[r3]
 1393 0d22 C1E90023 	 strd r2,[r1]
 528:C:\Users\Depes Crystalline\Desktop\school\Active_Bike_Lighting_System\Radar_Core/Libraries/CMSIS/Include\core_cmSimd.h **** #else               // Big endian
 1394              	 .loc 2 528 0
 1395 0d26 07F1E803 	 add r3,r7,#232
 1396 0d2a 1968     	 ldr r1,[r3]
 1397 0d2c 07F1E803 	 add r3,r7,#232
 1398 0d30 5A68     	 ldr r2,[r3,#4]
 1399 0d32 07F5E273 	 add r3,r7,#452
 1400 0d36 1868     	 ldr r0,[r3]
 1401 0d38 07F5E073 	 add r3,r7,#448
 1402 0d3c 1B68     	 ldr r3,[r3]
 1403              	
 1404 0d3e C0FBC312 	 smlald r1,r2,r0,r3
 1405              	
 1406              	 .thumb
 1407 0d42 07F1E803 	 add r3,r7,#232
 1408 0d46 1960     	 str r1,[r3]
 1409 0d48 07F1E803 	 add r3,r7,#232
 1410 0d4c 5A60     	 str r2,[r3,#4]
 533:C:\Users\Depes Crystalline\Desktop\school\Active_Bike_Lighting_System\Radar_Core/Libraries/CMSIS/Include\core_cmSimd.h **** }
 1411              	 .loc 2 533 0
 1412 0d4e 07F1E803 	 add r3,r7,#232
 1413 0d52 D3E90023 	 ldrd r2,[r3]
 1414              	.LBE114:
 1415              	.LBE113:
 1416              	 .loc 1 409 0
 1417 0d56 07F56871 	 add r1,r7,#928
 1418 0d5a C1E90023 	 strd r2,[r1]
 410:../Dave/Generated/CMSIS_DSP/FilteringFunctions/arm_correlate_q15.c ****         acc3 = __SMLALD(x2, c0, acc3);
 1419              	 .loc 1 410 0
 1420 0d5e D7F85823 	 ldr r2,[r7,#856]
 1421 0d62 D7F85C43 	 ldr r4,[r7,#860]
 1422 0d66 07F56673 	 add r3,r7,#920
 1423 0d6a D3E90001 	 ldrd r0,[r3]
 1424 0d6e 07F5DA73 	 add r3,r7,#436
 1425 0d72 1A60     	 str r2,[r3]
 1426 0d74 07F5D873 	 add r3,r7,#432
 1427 0d78 1C60     	 str r4,[r3]
 1428 0d7a 07F5D473 	 add r3,r7,#424
 1429 0d7e C3E90001 	 strd r0,[r3]
 1430              	.LBB115:
 1431              	.LBB116:
 525:C:\Users\Depes Crystalline\Desktop\school\Active_Bike_Lighting_System\Radar_Core/Libraries/CMSIS/Include\core_cmSimd.h **** 
 1432              	 .loc 2 525 0
 1433 0d82 07F1F001 	 add r1,r7,#240
 1434 0d86 07F5D473 	 add r3,r7,#424
 1435 0d8a D3E90023 	 ldrd r2,[r3]
 1436 0d8e C1E90023 	 strd r2,[r1]
 528:C:\Users\Depes Crystalline\Desktop\school\Active_Bike_Lighting_System\Radar_Core/Libraries/CMSIS/Include\core_cmSimd.h **** #else               // Big endian
 1437              	 .loc 2 528 0
 1438 0d92 07F1F003 	 add r3,r7,#240
 1439 0d96 1968     	 ldr r1,[r3]
 1440 0d98 07F1F003 	 add r3,r7,#240
 1441 0d9c 5A68     	 ldr r2,[r3,#4]
 1442 0d9e 07F5DA73 	 add r3,r7,#436
 1443 0da2 1868     	 ldr r0,[r3]
 1444 0da4 07F5D873 	 add r3,r7,#432
 1445 0da8 1B68     	 ldr r3,[r3]
 1446              	
 1447 0daa C0FBC312 	 smlald r1,r2,r0,r3
 1448              	
 1449              	 .thumb
 1450 0dae 07F1F003 	 add r3,r7,#240
 1451 0db2 1960     	 str r1,[r3]
 1452 0db4 07F1F003 	 add r3,r7,#240
 1453 0db8 5A60     	 str r2,[r3,#4]
 533:C:\Users\Depes Crystalline\Desktop\school\Active_Bike_Lighting_System\Radar_Core/Libraries/CMSIS/Include\core_cmSimd.h **** }
 1454              	 .loc 2 533 0
 1455 0dba 07F1F003 	 add r3,r7,#240
 1456 0dbe D3E90023 	 ldrd r2,[r3]
 1457              	.LBE116:
 1458              	.LBE115:
 1459              	 .loc 1 410 0
 1460 0dc2 07F56671 	 add r1,r7,#920
 1461 0dc6 C1E90023 	 strd r2,[r1]
 411:../Dave/Generated/CMSIS_DSP/FilteringFunctions/arm_correlate_q15.c **** 
 412:../Dave/Generated/CMSIS_DSP/FilteringFunctions/arm_correlate_q15.c ****         c0 = (*py);
 1462              	 .loc 1 412 0
 1463 0dca 07F59873 	 add r3,r7,#304
 1464 0dce 1B68     	 ldr r3,[r3]
 1465 0dd0 1B88     	 ldrh r3,[r3]
 1466 0dd2 1BB2     	 sxth r3,r3
 1467 0dd4 C7F85C33 	 str r3,[r7,#860]
 413:../Dave/Generated/CMSIS_DSP/FilteringFunctions/arm_correlate_q15.c **** 
 414:../Dave/Generated/CMSIS_DSP/FilteringFunctions/arm_correlate_q15.c ****         /* Read y[6] */
 415:../Dave/Generated/CMSIS_DSP/FilteringFunctions/arm_correlate_q15.c **** #ifdef  ARM_MATH_BIG_ENDIAN
 416:../Dave/Generated/CMSIS_DSP/FilteringFunctions/arm_correlate_q15.c **** 
 417:../Dave/Generated/CMSIS_DSP/FilteringFunctions/arm_correlate_q15.c ****         c0 = c0 << 16u;
 418:../Dave/Generated/CMSIS_DSP/FilteringFunctions/arm_correlate_q15.c **** #else
 419:../Dave/Generated/CMSIS_DSP/FilteringFunctions/arm_correlate_q15.c **** 
 420:../Dave/Generated/CMSIS_DSP/FilteringFunctions/arm_correlate_q15.c ****         c0 = c0 & 0x0000FFFF;
 1468              	 .loc 1 420 0
 1469 0dd8 D7F85C33 	 ldr r3,[r7,#860]
 1470 0ddc 9BB2     	 uxth r3,r3
 1471 0dde C7F85C33 	 str r3,[r7,#860]
 421:../Dave/Generated/CMSIS_DSP/FilteringFunctions/arm_correlate_q15.c **** #endif /*      #ifdef  ARM_MATH_BIG_ENDIAN     */
 422:../Dave/Generated/CMSIS_DSP/FilteringFunctions/arm_correlate_q15.c ****         /* Read x[10] */
 423:../Dave/Generated/CMSIS_DSP/FilteringFunctions/arm_correlate_q15.c ****         x3 = _SIMD32_OFFSET(px + 2);
 1472              	 .loc 1 423 0
 1473 0de2 07F59A73 	 add r3,r7,#308
 1474 0de6 1B68     	 ldr r3,[r3]
 1475 0de8 5B68     	 ldr r3,[r3,#4]
 1476 0dea C7F85433 	 str r3,[r7,#852]
 424:../Dave/Generated/CMSIS_DSP/FilteringFunctions/arm_correlate_q15.c **** 		px += 3u;
 1477              	 .loc 1 424 0
 1478 0dee 07F59A73 	 add r3,r7,#308
 1479 0df2 1B68     	 ldr r3,[r3]
 1480 0df4 9A1D     	 adds r2,r3,#6
 1481 0df6 07F59A73 	 add r3,r7,#308
 1482 0dfa 1A60     	 str r2,[r3]
 425:../Dave/Generated/CMSIS_DSP/FilteringFunctions/arm_correlate_q15.c **** 
 426:../Dave/Generated/CMSIS_DSP/FilteringFunctions/arm_correlate_q15.c ****         /* Perform the multiply-accumulates */
 427:../Dave/Generated/CMSIS_DSP/FilteringFunctions/arm_correlate_q15.c ****         acc0 = __SMLALDX(x1, c0, acc0);
 1483              	 .loc 1 427 0
 1484 0dfc D7F88C23 	 ldr r2,[r7,#908]
 1485 0e00 D7F85C43 	 ldr r4,[r7,#860]
 1486 0e04 07F56C73 	 add r3,r7,#944
 1487 0e08 D3E90001 	 ldrd r0,[r3]
 1488 0e0c 07F5D273 	 add r3,r7,#420
 1489 0e10 1A60     	 str r2,[r3]
 1490 0e12 07F5D073 	 add r3,r7,#416
 1491 0e16 1C60     	 str r4,[r3]
 1492 0e18 07F5CC73 	 add r3,r7,#408
 1493 0e1c C3E90001 	 strd r0,[r3]
 1494              	.LBB117:
 1495              	.LBB118:
 542:C:\Users\Depes Crystalline\Desktop\school\Active_Bike_Lighting_System\Radar_Core/Libraries/CMSIS/Include\core_cmSimd.h **** 
 1496              	 .loc 2 542 0
 1497 0e20 07F1F801 	 add r1,r7,#248
 1498 0e24 07F5CC73 	 add r3,r7,#408
 1499 0e28 D3E90023 	 ldrd r2,[r3]
 1500 0e2c C1E90023 	 strd r2,[r1]
 545:C:\Users\Depes Crystalline\Desktop\school\Active_Bike_Lighting_System\Radar_Core/Libraries/CMSIS/Include\core_cmSimd.h **** #else               // Big endian
 1501              	 .loc 2 545 0
 1502 0e30 07F1F803 	 add r3,r7,#248
 1503 0e34 1968     	 ldr r1,[r3]
 1504 0e36 07F1F803 	 add r3,r7,#248
 1505 0e3a 5A68     	 ldr r2,[r3,#4]
 1506 0e3c 07F5D273 	 add r3,r7,#420
 1507 0e40 1868     	 ldr r0,[r3]
 1508 0e42 07F5D073 	 add r3,r7,#416
 1509 0e46 1B68     	 ldr r3,[r3]
 1510              	
 1511 0e48 C0FBD312 	 smlaldx r1,r2,r0,r3
 1512              	
 1513              	 .thumb
 1514 0e4c 07F1F803 	 add r3,r7,#248
 1515 0e50 1960     	 str r1,[r3]
 1516 0e52 07F1F803 	 add r3,r7,#248
 1517 0e56 5A60     	 str r2,[r3,#4]
 1518              	 .loc 2 550 0
 1519 0e58 07F1F803 	 add r3,r7,#248
 1520 0e5c D3E90023 	 ldrd r2,[r3]
 1521              	.LBE118:
 1522              	.LBE117:
 1523              	 .loc 1 427 0
 1524 0e60 07F56C71 	 add r1,r7,#944
 1525 0e64 C1E90023 	 strd r2,[r1]
 428:../Dave/Generated/CMSIS_DSP/FilteringFunctions/arm_correlate_q15.c ****         acc1 = __SMLALD(x2, c0, acc1);
 1526              	 .loc 1 428 0
 1527 0e68 D7F85823 	 ldr r2,[r7,#856]
 1528 0e6c D7F85C43 	 ldr r4,[r7,#860]
 1529 0e70 07F56A73 	 add r3,r7,#936
 1530 0e74 D3E90001 	 ldrd r0,[r3]
 1531 0e78 07F5CA73 	 add r3,r7,#404
 1532 0e7c 1A60     	 str r2,[r3]
 1533 0e7e 07F5C873 	 add r3,r7,#400
 1534 0e82 1C60     	 str r4,[r3]
 1535 0e84 07F5C473 	 add r3,r7,#392
 1536 0e88 C3E90001 	 strd r0,[r3]
 1537              	.LBB119:
 1538              	.LBB120:
 525:C:\Users\Depes Crystalline\Desktop\school\Active_Bike_Lighting_System\Radar_Core/Libraries/CMSIS/Include\core_cmSimd.h **** 
 1539              	 .loc 2 525 0
 1540 0e8c 07F58071 	 add r1,r7,#256
 1541 0e90 07F5C473 	 add r3,r7,#392
 1542 0e94 D3E90023 	 ldrd r2,[r3]
 1543 0e98 C1E90023 	 strd r2,[r1]
 528:C:\Users\Depes Crystalline\Desktop\school\Active_Bike_Lighting_System\Radar_Core/Libraries/CMSIS/Include\core_cmSimd.h **** #else               // Big endian
 1544              	 .loc 2 528 0
 1545 0e9c 07F58073 	 add r3,r7,#256
 1546 0ea0 1968     	 ldr r1,[r3]
 1547 0ea2 07F58073 	 add r3,r7,#256
 1548 0ea6 5A68     	 ldr r2,[r3,#4]
 1549 0ea8 07F5CA73 	 add r3,r7,#404
 1550 0eac 1868     	 ldr r0,[r3]
 1551 0eae 07F5C873 	 add r3,r7,#400
 1552 0eb2 1B68     	 ldr r3,[r3]
 1553              	
 1554 0eb4 C0FBC312 	 smlald r1,r2,r0,r3
 1555              	
 1556              	 .thumb
 1557 0eb8 07F58073 	 add r3,r7,#256
 1558 0ebc 1960     	 str r1,[r3]
 1559 0ebe 07F58073 	 add r3,r7,#256
 1560 0ec2 5A60     	 str r2,[r3,#4]
 533:C:\Users\Depes Crystalline\Desktop\school\Active_Bike_Lighting_System\Radar_Core/Libraries/CMSIS/Include\core_cmSimd.h **** }
 1561              	 .loc 2 533 0
 1562 0ec4 07F58073 	 add r3,r7,#256
 1563 0ec8 D3E90023 	 ldrd r2,[r3]
 1564              	.LBE120:
 1565              	.LBE119:
 1566              	 .loc 1 428 0
 1567 0ecc 07F56A71 	 add r1,r7,#936
 1568 0ed0 C1E90023 	 strd r2,[r1]
 429:../Dave/Generated/CMSIS_DSP/FilteringFunctions/arm_correlate_q15.c ****         acc2 = __SMLALDX(x2, c0, acc2);
 1569              	 .loc 1 429 0
 1570 0ed4 D7F85823 	 ldr r2,[r7,#856]
 1571 0ed8 D7F85C43 	 ldr r4,[r7,#860]
 1572 0edc 07F56873 	 add r3,r7,#928
 1573 0ee0 D3E90001 	 ldrd r0,[r3]
 1574 0ee4 07F5C273 	 add r3,r7,#388
 1575 0ee8 1A60     	 str r2,[r3]
 1576 0eea 07F5C073 	 add r3,r7,#384
 1577 0eee 1C60     	 str r4,[r3]
 1578 0ef0 07F5BC73 	 add r3,r7,#376
 1579 0ef4 C3E90001 	 strd r0,[r3]
 1580              	.LBB121:
 1581              	.LBB122:
 542:C:\Users\Depes Crystalline\Desktop\school\Active_Bike_Lighting_System\Radar_Core/Libraries/CMSIS/Include\core_cmSimd.h **** 
 1582              	 .loc 2 542 0
 1583 0ef8 07F58471 	 add r1,r7,#264
 1584 0efc 07F5BC73 	 add r3,r7,#376
 1585 0f00 D3E90023 	 ldrd r2,[r3]
 1586 0f04 C1E90023 	 strd r2,[r1]
 545:C:\Users\Depes Crystalline\Desktop\school\Active_Bike_Lighting_System\Radar_Core/Libraries/CMSIS/Include\core_cmSimd.h **** #else               // Big endian
 1587              	 .loc 2 545 0
 1588 0f08 07F58473 	 add r3,r7,#264
 1589 0f0c 1968     	 ldr r1,[r3]
 1590 0f0e 07F58473 	 add r3,r7,#264
 1591 0f12 5A68     	 ldr r2,[r3,#4]
 1592 0f14 07F5C273 	 add r3,r7,#388
 1593 0f18 1868     	 ldr r0,[r3]
 1594 0f1a 07F5C073 	 add r3,r7,#384
 1595 0f1e 1B68     	 ldr r3,[r3]
 1596              	
 1597 0f20 C0FBD312 	 smlaldx r1,r2,r0,r3
 1598              	
 1599              	 .thumb
 1600 0f24 07F58473 	 add r3,r7,#264
 1601 0f28 1960     	 str r1,[r3]
 1602 0f2a 07F58473 	 add r3,r7,#264
 1603 0f2e 5A60     	 str r2,[r3,#4]
 1604              	 .loc 2 550 0
 1605 0f30 07F58473 	 add r3,r7,#264
 1606 0f34 D3E90023 	 ldrd r2,[r3]
 1607              	.LBE122:
 1608              	.LBE121:
 1609              	 .loc 1 429 0
 1610 0f38 07F56871 	 add r1,r7,#928
 1611 0f3c C1E90023 	 strd r2,[r1]
 430:../Dave/Generated/CMSIS_DSP/FilteringFunctions/arm_correlate_q15.c ****         acc3 = __SMLALDX(x3, c0, acc3);
 1612              	 .loc 1 430 0
 1613 0f40 D7F85423 	 ldr r2,[r7,#852]
 1614 0f44 D7F85C43 	 ldr r4,[r7,#860]
 1615 0f48 07F56673 	 add r3,r7,#920
 1616 0f4c D3E90001 	 ldrd r0,[r3]
 1617 0f50 07F5BA73 	 add r3,r7,#372
 1618 0f54 1A60     	 str r2,[r3]
 1619 0f56 07F5B873 	 add r3,r7,#368
 1620 0f5a 1C60     	 str r4,[r3]
 1621 0f5c 07F5B473 	 add r3,r7,#360
 1622 0f60 C3E90001 	 strd r0,[r3]
 1623              	.LBB123:
 1624              	.LBB124:
 542:C:\Users\Depes Crystalline\Desktop\school\Active_Bike_Lighting_System\Radar_Core/Libraries/CMSIS/Include\core_cmSimd.h **** 
 1625              	 .loc 2 542 0
 1626 0f64 07F58871 	 add r1,r7,#272
 1627 0f68 07F5B473 	 add r3,r7,#360
 1628 0f6c D3E90023 	 ldrd r2,[r3]
 1629 0f70 C1E90023 	 strd r2,[r1]
 545:C:\Users\Depes Crystalline\Desktop\school\Active_Bike_Lighting_System\Radar_Core/Libraries/CMSIS/Include\core_cmSimd.h **** #else               // Big endian
 1630              	 .loc 2 545 0
 1631 0f74 07F58873 	 add r3,r7,#272
 1632 0f78 1968     	 ldr r1,[r3]
 1633 0f7a 07F58873 	 add r3,r7,#272
 1634 0f7e 5A68     	 ldr r2,[r3,#4]
 1635 0f80 07F5BA73 	 add r3,r7,#372
 1636 0f84 1868     	 ldr r0,[r3]
 1637 0f86 07F5B873 	 add r3,r7,#368
 1638 0f8a 1B68     	 ldr r3,[r3]
 1639              	
 1640 0f8c C0FBD312 	 smlaldx r1,r2,r0,r3
 1641              	
 1642              	 .thumb
 1643 0f90 07F58873 	 add r3,r7,#272
 1644 0f94 1960     	 str r1,[r3]
 1645 0f96 07F58873 	 add r3,r7,#272
 1646 0f9a 5A60     	 str r2,[r3,#4]
 1647              	 .loc 2 550 0
 1648 0f9c 07F58873 	 add r3,r7,#272
 1649 0fa0 D3E90023 	 ldrd r2,[r3]
 1650              	.LBE124:
 1651              	.LBE123:
 1652              	 .loc 1 430 0
 1653 0fa4 07F56671 	 add r1,r7,#920
 1654 0fa8 C1E90023 	 strd r2,[r1]
 1655              	.L34:
 1656              	.LBB125:
 431:../Dave/Generated/CMSIS_DSP/FilteringFunctions/arm_correlate_q15.c ****       }
 432:../Dave/Generated/CMSIS_DSP/FilteringFunctions/arm_correlate_q15.c **** 
 433:../Dave/Generated/CMSIS_DSP/FilteringFunctions/arm_correlate_q15.c ****       /* Store the result in the accumulator in the destination buffer. */
 434:../Dave/Generated/CMSIS_DSP/FilteringFunctions/arm_correlate_q15.c ****       *pOut = (q15_t) (__SSAT(acc0 >> 15, 16));
 1657              	 .loc 1 434 0
 1658 0fac 07F56C73 	 add r3,r7,#944
 1659 0fb0 D3E90023 	 ldrd r2,[r3]
 1660 0fb4 D10B     	 lsrs r1,r2,#15
 1661 0fb6 B962     	 str r1,[r7,#40]
 1662 0fb8 B96A     	 ldr r1,[r7,#40]
 1663 0fba 41EA4341 	 orr r1,r1,r3,lsl#17
 1664 0fbe B962     	 str r1,[r7,#40]
 1665 0fc0 DB13     	 asrs r3,r3,#15
 1666 0fc2 FB62     	 str r3,[r7,#44]
 1667 0fc4 BB6A     	 ldr r3,[r7,#40]
 1668 0fc6 C7F85033 	 str r3,[r7,#848]
 1669 0fca D7F85033 	 ldr r3,[r7,#848]
 1670              	
 1671 0fce 03F30F03 	 ssat r3,#16,r3
 1672              	
 1673              	 .thumb
 1674 0fd2 C7F84C33 	 str r3,[r7,#844]
 1675 0fd6 D7F84C33 	 ldr r3,[r7,#844]
 1676              	.LBE125:
 1677 0fda 9BB2     	 uxth r3,r3
 1678 0fdc D7F8C423 	 ldr r2,[r7,#964]
 1679 0fe0 1380     	 strh r3,[r2]
 435:../Dave/Generated/CMSIS_DSP/FilteringFunctions/arm_correlate_q15.c ****       /* Destination pointer is updated according to the address modifier, inc */
 436:../Dave/Generated/CMSIS_DSP/FilteringFunctions/arm_correlate_q15.c ****       pOut += inc;
 1680              	 .loc 1 436 0
 1681 0fe2 D7F87433 	 ldr r3,[r7,#884]
 1682 0fe6 5B00     	 lsls r3,r3,#1
 1683 0fe8 D7F8C423 	 ldr r2,[r7,#964]
 1684 0fec 1344     	 add r3,r3,r2
 1685 0fee C7F8C433 	 str r3,[r7,#964]
 1686              	.LBB126:
 437:../Dave/Generated/CMSIS_DSP/FilteringFunctions/arm_correlate_q15.c **** 
 438:../Dave/Generated/CMSIS_DSP/FilteringFunctions/arm_correlate_q15.c ****       *pOut = (q15_t) (__SSAT(acc1 >> 15, 16));
 1687              	 .loc 1 438 0
 1688 0ff2 07F56A73 	 add r3,r7,#936
 1689 0ff6 D3E90023 	 ldrd r2,[r3]
 1690 0ffa D10B     	 lsrs r1,r2,#15
 1691 0ffc 3962     	 str r1,[r7,#32]
 1692 0ffe 396A     	 ldr r1,[r7,#32]
 1693 1000 41EA4341 	 orr r1,r1,r3,lsl#17
 1694 1004 3962     	 str r1,[r7,#32]
 1695 1006 DB13     	 asrs r3,r3,#15
 1696 1008 7B62     	 str r3,[r7,#36]
 1697 100a 3B6A     	 ldr r3,[r7,#32]
 1698 100c C7F84833 	 str r3,[r7,#840]
 1699 1010 D7F84833 	 ldr r3,[r7,#840]
 1700              	
 1701 1014 03F30F03 	 ssat r3,#16,r3
 1702              	
 1703              	 .thumb
 1704 1018 C7F84433 	 str r3,[r7,#836]
 1705 101c D7F84433 	 ldr r3,[r7,#836]
 1706              	.LBE126:
 1707 1020 9BB2     	 uxth r3,r3
 1708 1022 D7F8C423 	 ldr r2,[r7,#964]
 1709 1026 1380     	 strh r3,[r2]
 439:../Dave/Generated/CMSIS_DSP/FilteringFunctions/arm_correlate_q15.c ****       pOut += inc;
 1710              	 .loc 1 439 0
 1711 1028 D7F87433 	 ldr r3,[r7,#884]
 1712 102c 5B00     	 lsls r3,r3,#1
 1713 102e D7F8C423 	 ldr r2,[r7,#964]
 1714 1032 1344     	 add r3,r3,r2
 1715 1034 C7F8C433 	 str r3,[r7,#964]
 1716              	.LBB127:
 440:../Dave/Generated/CMSIS_DSP/FilteringFunctions/arm_correlate_q15.c **** 
 441:../Dave/Generated/CMSIS_DSP/FilteringFunctions/arm_correlate_q15.c ****       *pOut = (q15_t) (__SSAT(acc2 >> 15, 16));
 1717              	 .loc 1 441 0
 1718 1038 07F56873 	 add r3,r7,#928
 1719 103c D3E90023 	 ldrd r2,[r3]
 1720 1040 D10B     	 lsrs r1,r2,#15
 1721 1042 B961     	 str r1,[r7,#24]
 1722 1044 B969     	 ldr r1,[r7,#24]
 1723 1046 41EA4341 	 orr r1,r1,r3,lsl#17
 1724 104a B961     	 str r1,[r7,#24]
 1725 104c DB13     	 asrs r3,r3,#15
 1726 104e FB61     	 str r3,[r7,#28]
 1727 1050 BB69     	 ldr r3,[r7,#24]
 1728 1052 C7F84033 	 str r3,[r7,#832]
 1729 1056 D7F84033 	 ldr r3,[r7,#832]
 1730              	
 1731 105a 03F30F03 	 ssat r3,#16,r3
 1732              	
 1733              	 .thumb
 1734 105e C7F83C33 	 str r3,[r7,#828]
 1735 1062 D7F83C33 	 ldr r3,[r7,#828]
 1736              	.LBE127:
 1737 1066 9BB2     	 uxth r3,r3
 1738 1068 D7F8C423 	 ldr r2,[r7,#964]
 1739 106c 1380     	 strh r3,[r2]
 442:../Dave/Generated/CMSIS_DSP/FilteringFunctions/arm_correlate_q15.c ****       pOut += inc;
 1740              	 .loc 1 442 0
 1741 106e D7F87433 	 ldr r3,[r7,#884]
 1742 1072 5B00     	 lsls r3,r3,#1
 1743 1074 D7F8C423 	 ldr r2,[r7,#964]
 1744 1078 1344     	 add r3,r3,r2
 1745 107a C7F8C433 	 str r3,[r7,#964]
 1746              	.LBB128:
 443:../Dave/Generated/CMSIS_DSP/FilteringFunctions/arm_correlate_q15.c **** 
 444:../Dave/Generated/CMSIS_DSP/FilteringFunctions/arm_correlate_q15.c ****       *pOut = (q15_t) (__SSAT(acc3 >> 15, 16));
 1747              	 .loc 1 444 0
 1748 107e 07F56673 	 add r3,r7,#920
 1749 1082 D3E90023 	 ldrd r2,[r3]
 1750 1086 D10B     	 lsrs r1,r2,#15
 1751 1088 3961     	 str r1,[r7,#16]
 1752 108a 3969     	 ldr r1,[r7,#16]
 1753 108c 41EA4341 	 orr r1,r1,r3,lsl#17
 1754 1090 3961     	 str r1,[r7,#16]
 1755 1092 DB13     	 asrs r3,r3,#15
 1756 1094 7B61     	 str r3,[r7,#20]
 1757 1096 3B69     	 ldr r3,[r7,#16]
 1758 1098 C7F83833 	 str r3,[r7,#824]
 1759 109c D7F83833 	 ldr r3,[r7,#824]
 1760              	
 1761 10a0 03F30F03 	 ssat r3,#16,r3
 1762              	
 1763              	 .thumb
 1764 10a4 C7F83433 	 str r3,[r7,#820]
 1765 10a8 D7F83433 	 ldr r3,[r7,#820]
 1766              	.LBE128:
 1767 10ac 9BB2     	 uxth r3,r3
 1768 10ae D7F8C423 	 ldr r2,[r7,#964]
 1769 10b2 1380     	 strh r3,[r2]
 445:../Dave/Generated/CMSIS_DSP/FilteringFunctions/arm_correlate_q15.c ****       pOut += inc;
 1770              	 .loc 1 445 0
 1771 10b4 D7F87433 	 ldr r3,[r7,#884]
 1772 10b8 5B00     	 lsls r3,r3,#1
 1773 10ba D7F8C423 	 ldr r2,[r7,#964]
 1774 10be 1344     	 add r3,r3,r2
 1775 10c0 C7F8C433 	 str r3,[r7,#964]
 446:../Dave/Generated/CMSIS_DSP/FilteringFunctions/arm_correlate_q15.c **** 
 447:../Dave/Generated/CMSIS_DSP/FilteringFunctions/arm_correlate_q15.c ****       /* Increment the count by 4 as 4 output values are computed */
 448:../Dave/Generated/CMSIS_DSP/FilteringFunctions/arm_correlate_q15.c ****       count += 4u;
 1776              	 .loc 1 448 0
 1777 10c4 D7F88433 	 ldr r3,[r7,#900]
 1778 10c8 0433     	 adds r3,r3,#4
 1779 10ca C7F88433 	 str r3,[r7,#900]
 449:../Dave/Generated/CMSIS_DSP/FilteringFunctions/arm_correlate_q15.c **** 
 450:../Dave/Generated/CMSIS_DSP/FilteringFunctions/arm_correlate_q15.c ****       /* Update the inputA and inputB pointers for next MAC calculation */
 451:../Dave/Generated/CMSIS_DSP/FilteringFunctions/arm_correlate_q15.c ****       px = pIn1 + count;
 1780              	 .loc 1 451 0
 1781 10ce D7F88433 	 ldr r3,[r7,#900]
 1782 10d2 5B00     	 lsls r3,r3,#1
 1783 10d4 D7F8CC23 	 ldr r2,[r7,#972]
 1784 10d8 1A44     	 add r2,r2,r3
 1785 10da 07F59A73 	 add r3,r7,#308
 1786 10de 1A60     	 str r2,[r3]
 452:../Dave/Generated/CMSIS_DSP/FilteringFunctions/arm_correlate_q15.c ****       py = pIn2;
 1787              	 .loc 1 452 0
 1788 10e0 07F59873 	 add r3,r7,#304
 1789 10e4 D7F8C823 	 ldr r2,[r7,#968]
 1790 10e8 1A60     	 str r2,[r3]
 453:../Dave/Generated/CMSIS_DSP/FilteringFunctions/arm_correlate_q15.c **** 
 454:../Dave/Generated/CMSIS_DSP/FilteringFunctions/arm_correlate_q15.c ****       /* Decrement the loop counter */
 455:../Dave/Generated/CMSIS_DSP/FilteringFunctions/arm_correlate_q15.c ****       blkCnt--;
 1791              	 .loc 1 455 0
 1792 10ea D7F88033 	 ldr r3,[r7,#896]
 1793 10ee 013B     	 subs r3,r3,#1
 1794 10f0 C7F88033 	 str r3,[r7,#896]
 1795              	.L14:
 280:../Dave/Generated/CMSIS_DSP/FilteringFunctions/arm_correlate_q15.c ****     {
 1796              	 .loc 1 280 0
 1797 10f4 D7F88033 	 ldr r3,[r7,#896]
 1798 10f8 002B     	 cmp r3,#0
 1799 10fa 7FF460A9 	 bne .L43
 456:../Dave/Generated/CMSIS_DSP/FilteringFunctions/arm_correlate_q15.c ****     }
 457:../Dave/Generated/CMSIS_DSP/FilteringFunctions/arm_correlate_q15.c **** 
 458:../Dave/Generated/CMSIS_DSP/FilteringFunctions/arm_correlate_q15.c ****     /* If the blockSize2 is not a multiple of 4, compute any remaining output samples here.   
 459:../Dave/Generated/CMSIS_DSP/FilteringFunctions/arm_correlate_q15.c ****      ** No loop unrolling is used. */
 460:../Dave/Generated/CMSIS_DSP/FilteringFunctions/arm_correlate_q15.c ****     blkCnt = blockSize2 % 0x4u;
 1800              	 .loc 1 460 0
 1801 10fe D7F86833 	 ldr r3,[r7,#872]
 1802 1102 03F00303 	 and r3,r3,#3
 1803 1106 C7F88033 	 str r3,[r7,#896]
 461:../Dave/Generated/CMSIS_DSP/FilteringFunctions/arm_correlate_q15.c **** 
 462:../Dave/Generated/CMSIS_DSP/FilteringFunctions/arm_correlate_q15.c ****     while(blkCnt > 0u)
 1804              	 .loc 1 462 0
 1805 110a 36E1     	 b .L44
 1806              	.L49:
 463:../Dave/Generated/CMSIS_DSP/FilteringFunctions/arm_correlate_q15.c ****     {
 464:../Dave/Generated/CMSIS_DSP/FilteringFunctions/arm_correlate_q15.c ****       /* Accumulator is made zero for every iteration */
 465:../Dave/Generated/CMSIS_DSP/FilteringFunctions/arm_correlate_q15.c ****       sum = 0;
 1807              	 .loc 1 465 0
 1808 110c 4FF00002 	 mov r2,#0
 1809 1110 4FF00003 	 mov r3,#0
 1810 1114 07F56E71 	 add r1,r7,#952
 1811 1118 C1E90023 	 strd r2,[r1]
 466:../Dave/Generated/CMSIS_DSP/FilteringFunctions/arm_correlate_q15.c **** 
 467:../Dave/Generated/CMSIS_DSP/FilteringFunctions/arm_correlate_q15.c ****       /* Apply loop unrolling and compute 4 MACs simultaneously. */
 468:../Dave/Generated/CMSIS_DSP/FilteringFunctions/arm_correlate_q15.c ****       k = srcBLen >> 2u;
 1812              	 .loc 1 468 0
 1813 111c 07F13003 	 add r3,r7,#48
 1814 1120 1B68     	 ldr r3,[r3]
 1815 1122 9B08     	 lsrs r3,r3,#2
 1816 1124 C7F88833 	 str r3,[r7,#904]
 469:../Dave/Generated/CMSIS_DSP/FilteringFunctions/arm_correlate_q15.c **** 
 470:../Dave/Generated/CMSIS_DSP/FilteringFunctions/arm_correlate_q15.c ****       /* First part of the processing with loop unrolling.  Compute 4 MACs at a time.   
 471:../Dave/Generated/CMSIS_DSP/FilteringFunctions/arm_correlate_q15.c ****        ** a second loop below computes MACs for the remaining 1 to 3 samples. */
 472:../Dave/Generated/CMSIS_DSP/FilteringFunctions/arm_correlate_q15.c ****       while(k > 0u)
 1817              	 .loc 1 472 0
 1818 1128 ACE0     	 b .L45
 1819              	.L46:
 473:../Dave/Generated/CMSIS_DSP/FilteringFunctions/arm_correlate_q15.c ****       {
 474:../Dave/Generated/CMSIS_DSP/FilteringFunctions/arm_correlate_q15.c ****         /* Perform the multiply-accumulates */
 475:../Dave/Generated/CMSIS_DSP/FilteringFunctions/arm_correlate_q15.c ****         sum += ((q63_t) * px++ * *py++);
 1820              	 .loc 1 475 0
 1821 112a 07F59A73 	 add r3,r7,#308
 1822 112e 1B68     	 ldr r3,[r3]
 1823 1130 991C     	 adds r1,r3,#2
 1824 1132 07F59A72 	 add r2,r7,#308
 1825 1136 1160     	 str r1,[r2]
 1826 1138 1B88     	 ldrh r3,[r3]
 1827 113a 18B2     	 sxth r0,r3
 1828 113c 4FEAE071 	 asr r1,r0,#31
 1829 1140 07F59873 	 add r3,r7,#304
 1830 1144 1B68     	 ldr r3,[r3]
 1831 1146 9C1C     	 adds r4,r3,#2
 1832 1148 07F59872 	 add r2,r7,#304
 1833 114c 1460     	 str r4,[r2]
 1834 114e 1B88     	 ldrh r3,[r3]
 1835 1150 1AB2     	 sxth r2,r3
 1836 1152 4FEAE273 	 asr r3,r2,#31
 1837 1156 02FB01F5 	 mul r5,r2,r1
 1838 115a 00FB03F4 	 mul r4,r0,r3
 1839 115e 2C44     	 add r4,r4,r5
 1840 1160 A0FB0223 	 umull r2,r3,r0,r2
 1841 1164 E118     	 adds r1,r4,r3
 1842 1166 0B46     	 mov r3,r1
 1843 1168 07F56E71 	 add r1,r7,#952
 1844 116c D1E90001 	 ldrd r0,[r1]
 1845 1170 1218     	 adds r2,r2,r0
 1846 1172 43EB0103 	 adc r3,r3,r1
 1847 1176 07F56E71 	 add r1,r7,#952
 1848 117a C1E90023 	 strd r2,[r1]
 476:../Dave/Generated/CMSIS_DSP/FilteringFunctions/arm_correlate_q15.c ****         sum += ((q63_t) * px++ * *py++);
 1849              	 .loc 1 476 0
 1850 117e 07F59A73 	 add r3,r7,#308
 1851 1182 1B68     	 ldr r3,[r3]
 1852 1184 991C     	 adds r1,r3,#2
 1853 1186 07F59A72 	 add r2,r7,#308
 1854 118a 1160     	 str r1,[r2]
 1855 118c 1B88     	 ldrh r3,[r3]
 1856 118e 18B2     	 sxth r0,r3
 1857 1190 4FEAE071 	 asr r1,r0,#31
 1858 1194 07F59873 	 add r3,r7,#304
 1859 1198 1B68     	 ldr r3,[r3]
 1860 119a 9C1C     	 adds r4,r3,#2
 1861 119c 07F59872 	 add r2,r7,#304
 1862 11a0 1460     	 str r4,[r2]
 1863 11a2 1B88     	 ldrh r3,[r3]
 1864 11a4 1AB2     	 sxth r2,r3
 1865 11a6 4FEAE273 	 asr r3,r2,#31
 1866 11aa 02FB01F5 	 mul r5,r2,r1
 1867 11ae 00FB03F4 	 mul r4,r0,r3
 1868 11b2 2C44     	 add r4,r4,r5
 1869 11b4 A0FB0223 	 umull r2,r3,r0,r2
 1870 11b8 E118     	 adds r1,r4,r3
 1871 11ba 0B46     	 mov r3,r1
 1872 11bc 07F56E71 	 add r1,r7,#952
 1873 11c0 D1E90001 	 ldrd r0,[r1]
 1874 11c4 1218     	 adds r2,r2,r0
 1875 11c6 43EB0103 	 adc r3,r3,r1
 1876 11ca 07F56E71 	 add r1,r7,#952
 1877 11ce C1E90023 	 strd r2,[r1]
 477:../Dave/Generated/CMSIS_DSP/FilteringFunctions/arm_correlate_q15.c ****         sum += ((q63_t) * px++ * *py++);
 1878              	 .loc 1 477 0
 1879 11d2 07F59A73 	 add r3,r7,#308
 1880 11d6 1B68     	 ldr r3,[r3]
 1881 11d8 991C     	 adds r1,r3,#2
 1882 11da 07F59A72 	 add r2,r7,#308
 1883 11de 1160     	 str r1,[r2]
 1884 11e0 1B88     	 ldrh r3,[r3]
 1885 11e2 18B2     	 sxth r0,r3
 1886 11e4 4FEAE071 	 asr r1,r0,#31
 1887 11e8 07F59873 	 add r3,r7,#304
 1888 11ec 1B68     	 ldr r3,[r3]
 1889 11ee 9C1C     	 adds r4,r3,#2
 1890 11f0 07F59872 	 add r2,r7,#304
 1891 11f4 1460     	 str r4,[r2]
 1892 11f6 1B88     	 ldrh r3,[r3]
 1893 11f8 1AB2     	 sxth r2,r3
 1894 11fa 4FEAE273 	 asr r3,r2,#31
 1895 11fe 02FB01F5 	 mul r5,r2,r1
 1896 1202 00FB03F4 	 mul r4,r0,r3
 1897 1206 2C44     	 add r4,r4,r5
 1898 1208 A0FB0223 	 umull r2,r3,r0,r2
 1899 120c E118     	 adds r1,r4,r3
 1900 120e 0B46     	 mov r3,r1
 1901 1210 07F56E71 	 add r1,r7,#952
 1902 1214 D1E90001 	 ldrd r0,[r1]
 1903 1218 1218     	 adds r2,r2,r0
 1904 121a 43EB0103 	 adc r3,r3,r1
 1905 121e 07F56E71 	 add r1,r7,#952
 1906 1222 C1E90023 	 strd r2,[r1]
 478:../Dave/Generated/CMSIS_DSP/FilteringFunctions/arm_correlate_q15.c ****         sum += ((q63_t) * px++ * *py++);
 1907              	 .loc 1 478 0
 1908 1226 07F59A73 	 add r3,r7,#308
 1909 122a 1B68     	 ldr r3,[r3]
 1910 122c 991C     	 adds r1,r3,#2
 1911 122e 07F59A72 	 add r2,r7,#308
 1912 1232 1160     	 str r1,[r2]
 1913 1234 1B88     	 ldrh r3,[r3]
 1914 1236 18B2     	 sxth r0,r3
 1915 1238 4FEAE071 	 asr r1,r0,#31
 1916 123c 07F59873 	 add r3,r7,#304
 1917 1240 1B68     	 ldr r3,[r3]
 1918 1242 9C1C     	 adds r4,r3,#2
 1919 1244 07F59872 	 add r2,r7,#304
 1920 1248 1460     	 str r4,[r2]
 1921 124a 1B88     	 ldrh r3,[r3]
 1922 124c 1AB2     	 sxth r2,r3
 1923 124e 4FEAE273 	 asr r3,r2,#31
 1924 1252 02FB01F5 	 mul r5,r2,r1
 1925 1256 00FB03F4 	 mul r4,r0,r3
 1926 125a 2C44     	 add r4,r4,r5
 1927 125c A0FB0223 	 umull r2,r3,r0,r2
 1928 1260 E118     	 adds r1,r4,r3
 1929 1262 0B46     	 mov r3,r1
 1930 1264 07F56E71 	 add r1,r7,#952
 1931 1268 D1E90001 	 ldrd r0,[r1]
 1932 126c 1218     	 adds r2,r2,r0
 1933 126e 43EB0103 	 adc r3,r3,r1
 1934 1272 07F56E71 	 add r1,r7,#952
 1935 1276 C1E90023 	 strd r2,[r1]
 479:../Dave/Generated/CMSIS_DSP/FilteringFunctions/arm_correlate_q15.c **** 
 480:../Dave/Generated/CMSIS_DSP/FilteringFunctions/arm_correlate_q15.c ****         /* Decrement the loop counter */
 481:../Dave/Generated/CMSIS_DSP/FilteringFunctions/arm_correlate_q15.c ****         k--;
 1936              	 .loc 1 481 0
 1937 127a D7F88833 	 ldr r3,[r7,#904]
 1938 127e 013B     	 subs r3,r3,#1
 1939 1280 C7F88833 	 str r3,[r7,#904]
 1940              	.L45:
 472:../Dave/Generated/CMSIS_DSP/FilteringFunctions/arm_correlate_q15.c ****       {
 1941              	 .loc 1 472 0
 1942 1284 D7F88833 	 ldr r3,[r7,#904]
 1943 1288 002B     	 cmp r3,#0
 1944 128a 7FF44EAF 	 bne .L46
 482:../Dave/Generated/CMSIS_DSP/FilteringFunctions/arm_correlate_q15.c ****       }
 483:../Dave/Generated/CMSIS_DSP/FilteringFunctions/arm_correlate_q15.c **** 
 484:../Dave/Generated/CMSIS_DSP/FilteringFunctions/arm_correlate_q15.c ****       /* If the srcBLen is not a multiple of 4, compute any remaining MACs here.   
 485:../Dave/Generated/CMSIS_DSP/FilteringFunctions/arm_correlate_q15.c ****        ** No loop unrolling is used. */
 486:../Dave/Generated/CMSIS_DSP/FilteringFunctions/arm_correlate_q15.c ****       k = srcBLen % 0x4u;
 1945              	 .loc 1 486 0
 1946 128e 07F13003 	 add r3,r7,#48
 1947 1292 1B68     	 ldr r3,[r3]
 1948 1294 03F00303 	 and r3,r3,#3
 1949 1298 C7F88833 	 str r3,[r7,#904]
 487:../Dave/Generated/CMSIS_DSP/FilteringFunctions/arm_correlate_q15.c **** 
 488:../Dave/Generated/CMSIS_DSP/FilteringFunctions/arm_correlate_q15.c ****       while(k > 0u)
 1950              	 .loc 1 488 0
 1951 129c 2EE0     	 b .L47
 1952              	.L48:
 489:../Dave/Generated/CMSIS_DSP/FilteringFunctions/arm_correlate_q15.c ****       {
 490:../Dave/Generated/CMSIS_DSP/FilteringFunctions/arm_correlate_q15.c ****         /* Perform the multiply-accumulates */
 491:../Dave/Generated/CMSIS_DSP/FilteringFunctions/arm_correlate_q15.c ****         sum += ((q63_t) * px++ * *py++);
 1953              	 .loc 1 491 0
 1954 129e 07F59A73 	 add r3,r7,#308
 1955 12a2 1B68     	 ldr r3,[r3]
 1956 12a4 991C     	 adds r1,r3,#2
 1957 12a6 07F59A72 	 add r2,r7,#308
 1958 12aa 1160     	 str r1,[r2]
 1959 12ac 1B88     	 ldrh r3,[r3]
 1960 12ae 18B2     	 sxth r0,r3
 1961 12b0 4FEAE071 	 asr r1,r0,#31
 1962 12b4 07F59873 	 add r3,r7,#304
 1963 12b8 1B68     	 ldr r3,[r3]
 1964 12ba 9C1C     	 adds r4,r3,#2
 1965 12bc 07F59872 	 add r2,r7,#304
 1966 12c0 1460     	 str r4,[r2]
 1967 12c2 1B88     	 ldrh r3,[r3]
 1968 12c4 1AB2     	 sxth r2,r3
 1969 12c6 4FEAE273 	 asr r3,r2,#31
 1970 12ca 02FB01F5 	 mul r5,r2,r1
 1971 12ce 00FB03F4 	 mul r4,r0,r3
 1972 12d2 2C44     	 add r4,r4,r5
 1973 12d4 A0FB0223 	 umull r2,r3,r0,r2
 1974 12d8 E118     	 adds r1,r4,r3
 1975 12da 0B46     	 mov r3,r1
 1976 12dc 07F56E71 	 add r1,r7,#952
 1977 12e0 D1E90001 	 ldrd r0,[r1]
 1978 12e4 1218     	 adds r2,r2,r0
 1979 12e6 43EB0103 	 adc r3,r3,r1
 1980 12ea 07F56E71 	 add r1,r7,#952
 1981 12ee C1E90023 	 strd r2,[r1]
 492:../Dave/Generated/CMSIS_DSP/FilteringFunctions/arm_correlate_q15.c **** 
 493:../Dave/Generated/CMSIS_DSP/FilteringFunctions/arm_correlate_q15.c ****         /* Decrement the loop counter */
 494:../Dave/Generated/CMSIS_DSP/FilteringFunctions/arm_correlate_q15.c ****         k--;
 1982              	 .loc 1 494 0
 1983 12f2 D7F88833 	 ldr r3,[r7,#904]
 1984 12f6 013B     	 subs r3,r3,#1
 1985 12f8 C7F88833 	 str r3,[r7,#904]
 1986              	.L47:
 488:../Dave/Generated/CMSIS_DSP/FilteringFunctions/arm_correlate_q15.c ****       {
 1987              	 .loc 1 488 0
 1988 12fc D7F88833 	 ldr r3,[r7,#904]
 1989 1300 002B     	 cmp r3,#0
 1990 1302 CCD1     	 bne .L48
 1991              	.LBB129:
 495:../Dave/Generated/CMSIS_DSP/FilteringFunctions/arm_correlate_q15.c ****       }
 496:../Dave/Generated/CMSIS_DSP/FilteringFunctions/arm_correlate_q15.c **** 
 497:../Dave/Generated/CMSIS_DSP/FilteringFunctions/arm_correlate_q15.c ****       /* Store the result in the accumulator in the destination buffer. */
 498:../Dave/Generated/CMSIS_DSP/FilteringFunctions/arm_correlate_q15.c ****       *pOut = (q15_t) (__SSAT(sum >> 15, 16));
 1992              	 .loc 1 498 0
 1993 1304 07F56E73 	 add r3,r7,#952
 1994 1308 D3E90023 	 ldrd r2,[r3]
 1995 130c D10B     	 lsrs r1,r2,#15
 1996 130e B960     	 str r1,[r7,#8]
 1997 1310 B968     	 ldr r1,[r7,#8]
 1998 1312 41EA4341 	 orr r1,r1,r3,lsl#17
 1999 1316 B960     	 str r1,[r7,#8]
 2000 1318 DB13     	 asrs r3,r3,#15
 2001 131a FB60     	 str r3,[r7,#12]
 2002 131c BB68     	 ldr r3,[r7,#8]
 2003 131e C7F83033 	 str r3,[r7,#816]
 2004 1322 D7F83033 	 ldr r3,[r7,#816]
 2005              	
 2006 1326 03F30F03 	 ssat r3,#16,r3
 2007              	
 2008              	 .thumb
 2009 132a C7F82C33 	 str r3,[r7,#812]
 2010 132e D7F82C33 	 ldr r3,[r7,#812]
 2011              	.LBE129:
 2012 1332 9AB2     	 uxth r2,r3
 2013 1334 D7F8C433 	 ldr r3,[r7,#964]
 2014 1338 1A80     	 strh r2,[r3]
 499:../Dave/Generated/CMSIS_DSP/FilteringFunctions/arm_correlate_q15.c ****       /* Destination pointer is updated according to the address modifier, inc */
 500:../Dave/Generated/CMSIS_DSP/FilteringFunctions/arm_correlate_q15.c ****       pOut += inc;
 2015              	 .loc 1 500 0
 2016 133a D7F87433 	 ldr r3,[r7,#884]
 2017 133e 5B00     	 lsls r3,r3,#1
 2018 1340 D7F8C423 	 ldr r2,[r7,#964]
 2019 1344 1344     	 add r3,r3,r2
 2020 1346 C7F8C433 	 str r3,[r7,#964]
 501:../Dave/Generated/CMSIS_DSP/FilteringFunctions/arm_correlate_q15.c **** 
 502:../Dave/Generated/CMSIS_DSP/FilteringFunctions/arm_correlate_q15.c ****       /* Increment count by 1, as one output value is computed */
 503:../Dave/Generated/CMSIS_DSP/FilteringFunctions/arm_correlate_q15.c ****       count++;
 2021              	 .loc 1 503 0
 2022 134a D7F88433 	 ldr r3,[r7,#900]
 2023 134e 0133     	 adds r3,r3,#1
 2024 1350 C7F88433 	 str r3,[r7,#900]
 504:../Dave/Generated/CMSIS_DSP/FilteringFunctions/arm_correlate_q15.c **** 
 505:../Dave/Generated/CMSIS_DSP/FilteringFunctions/arm_correlate_q15.c ****       /* Update the inputA and inputB pointers for next MAC calculation */
 506:../Dave/Generated/CMSIS_DSP/FilteringFunctions/arm_correlate_q15.c ****       px = pIn1 + count;
 2025              	 .loc 1 506 0
 2026 1354 D7F88433 	 ldr r3,[r7,#900]
 2027 1358 5B00     	 lsls r3,r3,#1
 2028 135a D7F8CC23 	 ldr r2,[r7,#972]
 2029 135e 1A44     	 add r2,r2,r3
 2030 1360 07F59A73 	 add r3,r7,#308
 2031 1364 1A60     	 str r2,[r3]
 507:../Dave/Generated/CMSIS_DSP/FilteringFunctions/arm_correlate_q15.c ****       py = pIn2;
 2032              	 .loc 1 507 0
 2033 1366 07F59873 	 add r3,r7,#304
 2034 136a D7F8C823 	 ldr r2,[r7,#968]
 2035 136e 1A60     	 str r2,[r3]
 508:../Dave/Generated/CMSIS_DSP/FilteringFunctions/arm_correlate_q15.c **** 
 509:../Dave/Generated/CMSIS_DSP/FilteringFunctions/arm_correlate_q15.c ****       /* Decrement the loop counter */
 510:../Dave/Generated/CMSIS_DSP/FilteringFunctions/arm_correlate_q15.c ****       blkCnt--;
 2036              	 .loc 1 510 0
 2037 1370 D7F88033 	 ldr r3,[r7,#896]
 2038 1374 013B     	 subs r3,r3,#1
 2039 1376 C7F88033 	 str r3,[r7,#896]
 2040              	.L44:
 462:../Dave/Generated/CMSIS_DSP/FilteringFunctions/arm_correlate_q15.c ****     {
 2041              	 .loc 1 462 0
 2042 137a D7F88033 	 ldr r3,[r7,#896]
 2043 137e 002B     	 cmp r3,#0
 2044 1380 7FF4C4AE 	 bne .L49
 2045 1384 82E0     	 b .L50
 2046              	.L13:
 511:../Dave/Generated/CMSIS_DSP/FilteringFunctions/arm_correlate_q15.c ****     }
 512:../Dave/Generated/CMSIS_DSP/FilteringFunctions/arm_correlate_q15.c ****   }
 513:../Dave/Generated/CMSIS_DSP/FilteringFunctions/arm_correlate_q15.c ****   else
 514:../Dave/Generated/CMSIS_DSP/FilteringFunctions/arm_correlate_q15.c ****   {
 515:../Dave/Generated/CMSIS_DSP/FilteringFunctions/arm_correlate_q15.c ****     /* If the srcBLen is not a multiple of 4,   
 516:../Dave/Generated/CMSIS_DSP/FilteringFunctions/arm_correlate_q15.c ****      * the blockSize2 loop cannot be unrolled by 4 */
 517:../Dave/Generated/CMSIS_DSP/FilteringFunctions/arm_correlate_q15.c ****     blkCnt = blockSize2;
 2047              	 .loc 1 517 0
 2048 1386 D7F86833 	 ldr r3,[r7,#872]
 2049 138a C7F88033 	 str r3,[r7,#896]
 518:../Dave/Generated/CMSIS_DSP/FilteringFunctions/arm_correlate_q15.c **** 
 519:../Dave/Generated/CMSIS_DSP/FilteringFunctions/arm_correlate_q15.c ****     while(blkCnt > 0u)
 2050              	 .loc 1 519 0
 2051 138e 79E0     	 b .L51
 2052              	.L54:
 520:../Dave/Generated/CMSIS_DSP/FilteringFunctions/arm_correlate_q15.c ****     {
 521:../Dave/Generated/CMSIS_DSP/FilteringFunctions/arm_correlate_q15.c ****       /* Accumulator is made zero for every iteration */
 522:../Dave/Generated/CMSIS_DSP/FilteringFunctions/arm_correlate_q15.c ****       sum = 0;
 2053              	 .loc 1 522 0
 2054 1390 4FF00002 	 mov r2,#0
 2055 1394 4FF00003 	 mov r3,#0
 2056 1398 07F56E71 	 add r1,r7,#952
 2057 139c C1E90023 	 strd r2,[r1]
 523:../Dave/Generated/CMSIS_DSP/FilteringFunctions/arm_correlate_q15.c **** 
 524:../Dave/Generated/CMSIS_DSP/FilteringFunctions/arm_correlate_q15.c ****       /* Loop over srcBLen */
 525:../Dave/Generated/CMSIS_DSP/FilteringFunctions/arm_correlate_q15.c ****       k = srcBLen;
 2058              	 .loc 1 525 0
 2059 13a0 07F13003 	 add r3,r7,#48
 2060 13a4 1B68     	 ldr r3,[r3]
 2061 13a6 C7F88833 	 str r3,[r7,#904]
 526:../Dave/Generated/CMSIS_DSP/FilteringFunctions/arm_correlate_q15.c **** 
 527:../Dave/Generated/CMSIS_DSP/FilteringFunctions/arm_correlate_q15.c ****       while(k > 0u)
 2062              	 .loc 1 527 0
 2063 13aa 2EE0     	 b .L52
 2064              	.L53:
 528:../Dave/Generated/CMSIS_DSP/FilteringFunctions/arm_correlate_q15.c ****       {
 529:../Dave/Generated/CMSIS_DSP/FilteringFunctions/arm_correlate_q15.c ****         /* Perform the multiply-accumulate */
 530:../Dave/Generated/CMSIS_DSP/FilteringFunctions/arm_correlate_q15.c ****         sum += ((q63_t) * px++ * *py++);
 2065              	 .loc 1 530 0
 2066 13ac 07F59A73 	 add r3,r7,#308
 2067 13b0 1B68     	 ldr r3,[r3]
 2068 13b2 991C     	 adds r1,r3,#2
 2069 13b4 07F59A72 	 add r2,r7,#308
 2070 13b8 1160     	 str r1,[r2]
 2071 13ba 1B88     	 ldrh r3,[r3]
 2072 13bc 18B2     	 sxth r0,r3
 2073 13be 4FEAE071 	 asr r1,r0,#31
 2074 13c2 07F59873 	 add r3,r7,#304
 2075 13c6 1B68     	 ldr r3,[r3]
 2076 13c8 9C1C     	 adds r4,r3,#2
 2077 13ca 07F59872 	 add r2,r7,#304
 2078 13ce 1460     	 str r4,[r2]
 2079 13d0 1B88     	 ldrh r3,[r3]
 2080 13d2 1AB2     	 sxth r2,r3
 2081 13d4 4FEAE273 	 asr r3,r2,#31
 2082 13d8 02FB01F5 	 mul r5,r2,r1
 2083 13dc 00FB03F4 	 mul r4,r0,r3
 2084 13e0 2C44     	 add r4,r4,r5
 2085 13e2 A0FB0223 	 umull r2,r3,r0,r2
 2086 13e6 E118     	 adds r1,r4,r3
 2087 13e8 0B46     	 mov r3,r1
 2088 13ea 07F56E71 	 add r1,r7,#952
 2089 13ee D1E90001 	 ldrd r0,[r1]
 2090 13f2 1218     	 adds r2,r2,r0
 2091 13f4 43EB0103 	 adc r3,r3,r1
 2092 13f8 07F56E71 	 add r1,r7,#952
 2093 13fc C1E90023 	 strd r2,[r1]
 531:../Dave/Generated/CMSIS_DSP/FilteringFunctions/arm_correlate_q15.c **** 
 532:../Dave/Generated/CMSIS_DSP/FilteringFunctions/arm_correlate_q15.c ****         /* Decrement the loop counter */
 533:../Dave/Generated/CMSIS_DSP/FilteringFunctions/arm_correlate_q15.c ****         k--;
 2094              	 .loc 1 533 0
 2095 1400 D7F88833 	 ldr r3,[r7,#904]
 2096 1404 013B     	 subs r3,r3,#1
 2097 1406 C7F88833 	 str r3,[r7,#904]
 2098              	.L52:
 527:../Dave/Generated/CMSIS_DSP/FilteringFunctions/arm_correlate_q15.c ****       {
 2099              	 .loc 1 527 0
 2100 140a D7F88833 	 ldr r3,[r7,#904]
 2101 140e 002B     	 cmp r3,#0
 2102 1410 CCD1     	 bne .L53
 2103              	.LBB130:
 534:../Dave/Generated/CMSIS_DSP/FilteringFunctions/arm_correlate_q15.c ****       }
 535:../Dave/Generated/CMSIS_DSP/FilteringFunctions/arm_correlate_q15.c **** 
 536:../Dave/Generated/CMSIS_DSP/FilteringFunctions/arm_correlate_q15.c ****       /* Store the result in the accumulator in the destination buffer. */
 537:../Dave/Generated/CMSIS_DSP/FilteringFunctions/arm_correlate_q15.c ****       *pOut = (q15_t) (__SSAT(sum >> 15, 16));
 2104              	 .loc 1 537 0
 2105 1412 07F56E73 	 add r3,r7,#952
 2106 1416 D3E90023 	 ldrd r2,[r3]
 2107 141a 4FEAD238 	 lsr r8,r2,#15
 2108 141e 48EA4348 	 orr r8,r8,r3,lsl#17
 2109 1422 4FEAE339 	 asr r9,r3,#15
 2110 1426 4346     	 mov r3,r8
 2111 1428 C7F82833 	 str r3,[r7,#808]
 2112 142c D7F82833 	 ldr r3,[r7,#808]
 2113              	
 2114 1430 03F30F03 	 ssat r3,#16,r3
 2115              	
 2116              	 .thumb
 2117 1434 C7F82433 	 str r3,[r7,#804]
 2118 1438 D7F82433 	 ldr r3,[r7,#804]
 2119              	.LBE130:
 2120 143c 9AB2     	 uxth r2,r3
 2121 143e D7F8C433 	 ldr r3,[r7,#964]
 2122 1442 1A80     	 strh r2,[r3]
 538:../Dave/Generated/CMSIS_DSP/FilteringFunctions/arm_correlate_q15.c ****       /* Destination pointer is updated according to the address modifier, inc */
 539:../Dave/Generated/CMSIS_DSP/FilteringFunctions/arm_correlate_q15.c ****       pOut += inc;
 2123              	 .loc 1 539 0
 2124 1444 D7F87433 	 ldr r3,[r7,#884]
 2125 1448 5B00     	 lsls r3,r3,#1
 2126 144a D7F8C423 	 ldr r2,[r7,#964]
 2127 144e 1344     	 add r3,r3,r2
 2128 1450 C7F8C433 	 str r3,[r7,#964]
 540:../Dave/Generated/CMSIS_DSP/FilteringFunctions/arm_correlate_q15.c **** 
 541:../Dave/Generated/CMSIS_DSP/FilteringFunctions/arm_correlate_q15.c ****       /* Increment the MAC count */
 542:../Dave/Generated/CMSIS_DSP/FilteringFunctions/arm_correlate_q15.c ****       count++;
 2129              	 .loc 1 542 0
 2130 1454 D7F88433 	 ldr r3,[r7,#900]
 2131 1458 0133     	 adds r3,r3,#1
 2132 145a C7F88433 	 str r3,[r7,#900]
 543:../Dave/Generated/CMSIS_DSP/FilteringFunctions/arm_correlate_q15.c **** 
 544:../Dave/Generated/CMSIS_DSP/FilteringFunctions/arm_correlate_q15.c ****       /* Update the inputA and inputB pointers for next MAC calculation */
 545:../Dave/Generated/CMSIS_DSP/FilteringFunctions/arm_correlate_q15.c ****       px = pIn1 + count;
 2133              	 .loc 1 545 0
 2134 145e D7F88433 	 ldr r3,[r7,#900]
 2135 1462 5B00     	 lsls r3,r3,#1
 2136 1464 D7F8CC23 	 ldr r2,[r7,#972]
 2137 1468 1A44     	 add r2,r2,r3
 2138 146a 07F59A73 	 add r3,r7,#308
 2139 146e 1A60     	 str r2,[r3]
 546:../Dave/Generated/CMSIS_DSP/FilteringFunctions/arm_correlate_q15.c ****       py = pIn2;
 2140              	 .loc 1 546 0
 2141 1470 07F59873 	 add r3,r7,#304
 2142 1474 D7F8C823 	 ldr r2,[r7,#968]
 2143 1478 1A60     	 str r2,[r3]
 547:../Dave/Generated/CMSIS_DSP/FilteringFunctions/arm_correlate_q15.c **** 
 548:../Dave/Generated/CMSIS_DSP/FilteringFunctions/arm_correlate_q15.c ****       /* Decrement the loop counter */
 549:../Dave/Generated/CMSIS_DSP/FilteringFunctions/arm_correlate_q15.c ****       blkCnt--;
 2144              	 .loc 1 549 0
 2145 147a D7F88033 	 ldr r3,[r7,#896]
 2146 147e 013B     	 subs r3,r3,#1
 2147 1480 C7F88033 	 str r3,[r7,#896]
 2148              	.L51:
 519:../Dave/Generated/CMSIS_DSP/FilteringFunctions/arm_correlate_q15.c ****     {
 2149              	 .loc 1 519 0
 2150 1484 D7F88033 	 ldr r3,[r7,#896]
 2151 1488 002B     	 cmp r3,#0
 2152 148a 81D1     	 bne .L54
 2153              	.L50:
 550:../Dave/Generated/CMSIS_DSP/FilteringFunctions/arm_correlate_q15.c ****     }
 551:../Dave/Generated/CMSIS_DSP/FilteringFunctions/arm_correlate_q15.c ****   }
 552:../Dave/Generated/CMSIS_DSP/FilteringFunctions/arm_correlate_q15.c **** 
 553:../Dave/Generated/CMSIS_DSP/FilteringFunctions/arm_correlate_q15.c ****   /* --------------------------   
 554:../Dave/Generated/CMSIS_DSP/FilteringFunctions/arm_correlate_q15.c ****    * Initializations of stage3   
 555:../Dave/Generated/CMSIS_DSP/FilteringFunctions/arm_correlate_q15.c ****    * -------------------------*/
 556:../Dave/Generated/CMSIS_DSP/FilteringFunctions/arm_correlate_q15.c **** 
 557:../Dave/Generated/CMSIS_DSP/FilteringFunctions/arm_correlate_q15.c ****   /* sum += x[srcALen-srcBLen+1] * y[0] + x[srcALen-srcBLen+2] * y[1] +...+ x[srcALen-1] * y[srcBLe
 558:../Dave/Generated/CMSIS_DSP/FilteringFunctions/arm_correlate_q15.c ****    * sum += x[srcALen-srcBLen+2] * y[0] + x[srcALen-srcBLen+3] * y[1] +...+ x[srcALen-1] * y[srcBLe
 559:../Dave/Generated/CMSIS_DSP/FilteringFunctions/arm_correlate_q15.c ****    * ....   
 560:../Dave/Generated/CMSIS_DSP/FilteringFunctions/arm_correlate_q15.c ****    * sum +=  x[srcALen-2] * y[0] + x[srcALen-1] * y[1]   
 561:../Dave/Generated/CMSIS_DSP/FilteringFunctions/arm_correlate_q15.c ****    * sum +=  x[srcALen-1] * y[0]   
 562:../Dave/Generated/CMSIS_DSP/FilteringFunctions/arm_correlate_q15.c ****    */
 563:../Dave/Generated/CMSIS_DSP/FilteringFunctions/arm_correlate_q15.c **** 
 564:../Dave/Generated/CMSIS_DSP/FilteringFunctions/arm_correlate_q15.c ****   /* In this stage the MAC operations are decreased by 1 for every iteration.   
 565:../Dave/Generated/CMSIS_DSP/FilteringFunctions/arm_correlate_q15.c ****      The count variable holds the number of MAC operations performed */
 566:../Dave/Generated/CMSIS_DSP/FilteringFunctions/arm_correlate_q15.c ****   count = srcBLen - 1u;
 2154              	 .loc 1 566 0
 2155 148c 07F13003 	 add r3,r7,#48
 2156 1490 1B68     	 ldr r3,[r3]
 2157 1492 013B     	 subs r3,r3,#1
 2158 1494 C7F88433 	 str r3,[r7,#900]
 567:../Dave/Generated/CMSIS_DSP/FilteringFunctions/arm_correlate_q15.c **** 
 568:../Dave/Generated/CMSIS_DSP/FilteringFunctions/arm_correlate_q15.c ****   /* Working pointer of inputA */
 569:../Dave/Generated/CMSIS_DSP/FilteringFunctions/arm_correlate_q15.c ****   pSrc1 = (pIn1 + srcALen) - (srcBLen - 1u);
 2159              	 .loc 1 569 0
 2160 1498 07F13802 	 add r2,r7,#56
 2161 149c 07F13003 	 add r3,r7,#48
 2162 14a0 1268     	 ldr r2,[r2]
 2163 14a2 1B68     	 ldr r3,[r3]
 2164 14a4 D31A     	 subs r3,r2,r3
 2165 14a6 0133     	 adds r3,r3,#1
 2166 14a8 5B00     	 lsls r3,r3,#1
 2167 14aa D7F8CC23 	 ldr r2,[r7,#972]
 2168 14ae 1344     	 add r3,r3,r2
 2169 14b0 C7F89433 	 str r3,[r7,#916]
 570:../Dave/Generated/CMSIS_DSP/FilteringFunctions/arm_correlate_q15.c ****   px = pSrc1;
 2170              	 .loc 1 570 0
 2171 14b4 07F59A73 	 add r3,r7,#308
 2172 14b8 D7F89423 	 ldr r2,[r7,#916]
 2173 14bc 1A60     	 str r2,[r3]
 571:../Dave/Generated/CMSIS_DSP/FilteringFunctions/arm_correlate_q15.c **** 
 572:../Dave/Generated/CMSIS_DSP/FilteringFunctions/arm_correlate_q15.c ****   /* Working pointer of inputB */
 573:../Dave/Generated/CMSIS_DSP/FilteringFunctions/arm_correlate_q15.c ****   py = pIn2;
 2174              	 .loc 1 573 0
 2175 14be 07F59873 	 add r3,r7,#304
 2176 14c2 D7F8C823 	 ldr r2,[r7,#968]
 2177 14c6 1A60     	 str r2,[r3]
 574:../Dave/Generated/CMSIS_DSP/FilteringFunctions/arm_correlate_q15.c **** 
 575:../Dave/Generated/CMSIS_DSP/FilteringFunctions/arm_correlate_q15.c ****   /* -------------------   
 576:../Dave/Generated/CMSIS_DSP/FilteringFunctions/arm_correlate_q15.c ****    * Stage3 process   
 577:../Dave/Generated/CMSIS_DSP/FilteringFunctions/arm_correlate_q15.c ****    * ------------------*/
 578:../Dave/Generated/CMSIS_DSP/FilteringFunctions/arm_correlate_q15.c **** 
 579:../Dave/Generated/CMSIS_DSP/FilteringFunctions/arm_correlate_q15.c ****   while(blockSize3 > 0u)
 2178              	 .loc 1 579 0
 2179 14c8 2AE1     	 b .L55
 2180              	.L63:
 580:../Dave/Generated/CMSIS_DSP/FilteringFunctions/arm_correlate_q15.c ****   {
 581:../Dave/Generated/CMSIS_DSP/FilteringFunctions/arm_correlate_q15.c ****     /* Accumulator is made zero for every iteration */
 582:../Dave/Generated/CMSIS_DSP/FilteringFunctions/arm_correlate_q15.c ****     sum = 0;
 2181              	 .loc 1 582 0
 2182 14ca 4FF00002 	 mov r2,#0
 2183 14ce 4FF00003 	 mov r3,#0
 2184 14d2 07F56E71 	 add r1,r7,#952
 2185 14d6 C1E90023 	 strd r2,[r1]
 583:../Dave/Generated/CMSIS_DSP/FilteringFunctions/arm_correlate_q15.c **** 
 584:../Dave/Generated/CMSIS_DSP/FilteringFunctions/arm_correlate_q15.c ****     /* Apply loop unrolling and compute 4 MACs simultaneously. */
 585:../Dave/Generated/CMSIS_DSP/FilteringFunctions/arm_correlate_q15.c ****     k = count >> 2u;
 2186              	 .loc 1 585 0
 2187 14da D7F88433 	 ldr r3,[r7,#900]
 2188 14de 9B08     	 lsrs r3,r3,#2
 2189 14e0 C7F88833 	 str r3,[r7,#904]
 586:../Dave/Generated/CMSIS_DSP/FilteringFunctions/arm_correlate_q15.c **** 
 587:../Dave/Generated/CMSIS_DSP/FilteringFunctions/arm_correlate_q15.c ****     /* First part of the processing with loop unrolling.  Compute 4 MACs at a time.   
 588:../Dave/Generated/CMSIS_DSP/FilteringFunctions/arm_correlate_q15.c ****      ** a second loop below computes MACs for the remaining 1 to 3 samples. */
 589:../Dave/Generated/CMSIS_DSP/FilteringFunctions/arm_correlate_q15.c ****     while(k > 0u)
 2190              	 .loc 1 589 0
 2191 14e4 86E0     	 b .L56
 2192              	.L59:
 590:../Dave/Generated/CMSIS_DSP/FilteringFunctions/arm_correlate_q15.c ****     {
 591:../Dave/Generated/CMSIS_DSP/FilteringFunctions/arm_correlate_q15.c ****       /* Perform the multiply-accumulates */
 592:../Dave/Generated/CMSIS_DSP/FilteringFunctions/arm_correlate_q15.c ****       /* sum += x[srcALen - srcBLen + 4] * y[3] , sum += x[srcALen - srcBLen + 3] * y[2] */
 593:../Dave/Generated/CMSIS_DSP/FilteringFunctions/arm_correlate_q15.c ****       sum = __SMLALD(*__SIMD32(px)++, *__SIMD32(py)++, sum);
 2193              	 .loc 1 593 0
 2194 14e6 07F59A72 	 add r2,r7,#308
 2195 14ea 1368     	 ldr r3,[r2]
 2196 14ec 191D     	 adds r1,r3,#4
 2197 14ee 1160     	 str r1,[r2]
 2198 14f0 1B68     	 ldr r3,[r3]
 2199 14f2 1C46     	 mov r4,r3
 2200 14f4 07F59872 	 add r2,r7,#304
 2201 14f8 1368     	 ldr r3,[r2]
 2202 14fa 191D     	 adds r1,r3,#4
 2203 14fc 1160     	 str r1,[r2]
 2204 14fe 1B68     	 ldr r3,[r3]
 2205 1500 1846     	 mov r0,r3
 2206 1502 07F56E73 	 add r3,r7,#952
 2207 1506 D3E90023 	 ldrd r2,[r3]
 2208 150a 07F5B271 	 add r1,r7,#356
 2209 150e 0C60     	 str r4,[r1]
 2210 1510 07F5B071 	 add r1,r7,#352
 2211 1514 0860     	 str r0,[r1]
 2212 1516 07F5AC71 	 add r1,r7,#344
 2213 151a C1E90023 	 strd r2,[r1]
 2214              	.LBB131:
 2215              	.LBB132:
 525:C:\Users\Depes Crystalline\Desktop\school\Active_Bike_Lighting_System\Radar_Core/Libraries/CMSIS/Include\core_cmSimd.h **** 
 2216              	 .loc 2 525 0
 2217 151e 07F58C71 	 add r1,r7,#280
 2218 1522 07F5AC73 	 add r3,r7,#344
 2219 1526 D3E90023 	 ldrd r2,[r3]
 2220 152a C1E90023 	 strd r2,[r1]
 528:C:\Users\Depes Crystalline\Desktop\school\Active_Bike_Lighting_System\Radar_Core/Libraries/CMSIS/Include\core_cmSimd.h **** #else               // Big endian
 2221              	 .loc 2 528 0
 2222 152e 07F58C73 	 add r3,r7,#280
 2223 1532 1A68     	 ldr r2,[r3]
 2224 1534 07F58C73 	 add r3,r7,#280
 2225 1538 5C68     	 ldr r4,[r3,#4]
 2226 153a 07F5B273 	 add r3,r7,#356
 2227 153e 1968     	 ldr r1,[r3]
 2228 1540 07F5B073 	 add r3,r7,#352
 2229 1544 1868     	 ldr r0,[r3]
 2230 1546 2346     	 mov r3,r4
 2231              	
 2232 1548 C1FBC023 	 smlald r2,r3,r1,r0
 2233              	
 2234              	 .thumb
 2235 154c 07F58C71 	 add r1,r7,#280
 2236 1550 0A60     	 str r2,[r1]
 2237 1552 07F58C72 	 add r2,r7,#280
 2238 1556 5360     	 str r3,[r2,#4]
 533:C:\Users\Depes Crystalline\Desktop\school\Active_Bike_Lighting_System\Radar_Core/Libraries/CMSIS/Include\core_cmSimd.h **** }
 2239              	 .loc 2 533 0
 2240 1558 07F58C73 	 add r3,r7,#280
 2241 155c D3E90023 	 ldrd r2,[r3]
 2242              	.LBE132:
 2243              	.LBE131:
 2244              	 .loc 1 593 0
 2245 1560 07F56E71 	 add r1,r7,#952
 2246 1564 C1E90023 	 strd r2,[r1]
 594:../Dave/Generated/CMSIS_DSP/FilteringFunctions/arm_correlate_q15.c ****       /* sum += x[srcALen - srcBLen + 2] * y[1] , sum += x[srcALen - srcBLen + 1] * y[0] */
 595:../Dave/Generated/CMSIS_DSP/FilteringFunctions/arm_correlate_q15.c ****       sum = __SMLALD(*__SIMD32(px)++, *__SIMD32(py)++, sum);
 2247              	 .loc 1 595 0
 2248 1568 07F59A72 	 add r2,r7,#308
 2249 156c 1368     	 ldr r3,[r2]
 2250 156e 191D     	 adds r1,r3,#4
 2251 1570 1160     	 str r1,[r2]
 2252 1572 1B68     	 ldr r3,[r3]
 2253 1574 1C46     	 mov r4,r3
 2254 1576 07F59872 	 add r2,r7,#304
 2255 157a 1368     	 ldr r3,[r2]
 2256 157c 191D     	 adds r1,r3,#4
 2257 157e 1160     	 str r1,[r2]
 2258 1580 1B68     	 ldr r3,[r3]
 2259 1582 1846     	 mov r0,r3
 2260 1584 07F56E73 	 add r3,r7,#952
 2261 1588 D3E90023 	 ldrd r2,[r3]
 2262 158c 07F5AA71 	 add r1,r7,#340
 2263 1590 0C60     	 str r4,[r1]
 2264 1592 07F5A871 	 add r1,r7,#336
 2265 1596 0860     	 str r0,[r1]
 2266 1598 07F5A471 	 add r1,r7,#328
 2267 159c C1E90023 	 strd r2,[r1]
 2268              	.LBB133:
 2269              	.LBB134:
 525:C:\Users\Depes Crystalline\Desktop\school\Active_Bike_Lighting_System\Radar_Core/Libraries/CMSIS/Include\core_cmSimd.h **** 
 2270              	 .loc 2 525 0
 2271 15a0 07F59071 	 add r1,r7,#288
 2272 15a4 07F5A473 	 add r3,r7,#328
 2273 15a8 D3E90023 	 ldrd r2,[r3]
 2274 15ac C1E90023 	 strd r2,[r1]
 528:C:\Users\Depes Crystalline\Desktop\school\Active_Bike_Lighting_System\Radar_Core/Libraries/CMSIS/Include\core_cmSimd.h **** #else               // Big endian
 2275              	 .loc 2 528 0
 2276 15b0 07F59073 	 add r3,r7,#288
 2277 15b4 1A68     	 ldr r2,[r3]
 2278 15b6 07F59073 	 add r3,r7,#288
 2279 15ba 5C68     	 ldr r4,[r3,#4]
 2280 15bc 07F5AA73 	 add r3,r7,#340
 2281 15c0 1968     	 ldr r1,[r3]
 2282 15c2 07F5A873 	 add r3,r7,#336
 2283 15c6 1868     	 ldr r0,[r3]
 2284 15c8 2346     	 mov r3,r4
 2285              	
 2286 15ca C1FBC023 	 smlald r2,r3,r1,r0
 2287              	
 2288              	 .thumb
 2289 15ce 07F59071 	 add r1,r7,#288
 2290 15d2 0A60     	 str r2,[r1]
 2291 15d4 07F59072 	 add r2,r7,#288
 2292 15d8 5360     	 str r3,[r2,#4]
 533:C:\Users\Depes Crystalline\Desktop\school\Active_Bike_Lighting_System\Radar_Core/Libraries/CMSIS/Include\core_cmSimd.h **** }
 2293              	 .loc 2 533 0
 2294 15da 07F59073 	 add r3,r7,#288
 2295 15de D3E90023 	 ldrd r2,[r3]
 2296              	.LBE134:
 2297              	.LBE133:
 2298              	 .loc 1 595 0
 2299 15e2 07F56E71 	 add r1,r7,#952
 2300 15e6 C1E90023 	 strd r2,[r1]
 596:../Dave/Generated/CMSIS_DSP/FilteringFunctions/arm_correlate_q15.c **** 
 597:../Dave/Generated/CMSIS_DSP/FilteringFunctions/arm_correlate_q15.c ****       /* Decrement the loop counter */
 598:../Dave/Generated/CMSIS_DSP/FilteringFunctions/arm_correlate_q15.c ****       k--;
 2301              	 .loc 1 598 0
 2302 15ea D7F88833 	 ldr r3,[r7,#904]
 2303 15ee 013B     	 subs r3,r3,#1
 2304 15f0 C7F88833 	 str r3,[r7,#904]
 2305              	.L56:
 589:../Dave/Generated/CMSIS_DSP/FilteringFunctions/arm_correlate_q15.c ****     {
 2306              	 .loc 1 589 0
 2307 15f4 D7F88833 	 ldr r3,[r7,#904]
 2308 15f8 002B     	 cmp r3,#0
 2309 15fa 7FF474AF 	 bne .L59
 599:../Dave/Generated/CMSIS_DSP/FilteringFunctions/arm_correlate_q15.c ****     }
 600:../Dave/Generated/CMSIS_DSP/FilteringFunctions/arm_correlate_q15.c **** 
 601:../Dave/Generated/CMSIS_DSP/FilteringFunctions/arm_correlate_q15.c ****     /* If the count is not a multiple of 4, compute any remaining MACs here.   
 602:../Dave/Generated/CMSIS_DSP/FilteringFunctions/arm_correlate_q15.c ****      ** No loop unrolling is used. */
 603:../Dave/Generated/CMSIS_DSP/FilteringFunctions/arm_correlate_q15.c ****     k = count % 0x4u;
 2310              	 .loc 1 603 0
 2311 15fe D7F88433 	 ldr r3,[r7,#900]
 2312 1602 03F00303 	 and r3,r3,#3
 2313 1606 C7F88833 	 str r3,[r7,#904]
 604:../Dave/Generated/CMSIS_DSP/FilteringFunctions/arm_correlate_q15.c **** 
 605:../Dave/Generated/CMSIS_DSP/FilteringFunctions/arm_correlate_q15.c ****     while(k > 0u)
 2314              	 .loc 1 605 0
 2315 160a 49E0     	 b .L60
 2316              	.L62:
 606:../Dave/Generated/CMSIS_DSP/FilteringFunctions/arm_correlate_q15.c ****     {
 607:../Dave/Generated/CMSIS_DSP/FilteringFunctions/arm_correlate_q15.c ****       /* Perform the multiply-accumulates */
 608:../Dave/Generated/CMSIS_DSP/FilteringFunctions/arm_correlate_q15.c ****       sum = __SMLALD(*px++, *py++, sum);
 2317              	 .loc 1 608 0
 2318 160c 07F59A73 	 add r3,r7,#308
 2319 1610 1B68     	 ldr r3,[r3]
 2320 1612 991C     	 adds r1,r3,#2
 2321 1614 07F59A72 	 add r2,r7,#308
 2322 1618 1160     	 str r1,[r2]
 2323 161a 1B88     	 ldrh r3,[r3]
 2324 161c 1CB2     	 sxth r4,r3
 2325 161e 07F59873 	 add r3,r7,#304
 2326 1622 1B68     	 ldr r3,[r3]
 2327 1624 991C     	 adds r1,r3,#2
 2328 1626 07F59872 	 add r2,r7,#304
 2329 162a 1160     	 str r1,[r2]
 2330 162c 1B88     	 ldrh r3,[r3]
 2331 162e 18B2     	 sxth r0,r3
 2332 1630 07F56E73 	 add r3,r7,#952
 2333 1634 D3E90023 	 ldrd r2,[r3]
 2334 1638 07F5A271 	 add r1,r7,#324
 2335 163c 0C60     	 str r4,[r1]
 2336 163e 07F5A071 	 add r1,r7,#320
 2337 1642 0860     	 str r0,[r1]
 2338 1644 07F59C71 	 add r1,r7,#312
 2339 1648 C1E90023 	 strd r2,[r1]
 2340              	.LBB135:
 2341              	.LBB136:
 525:C:\Users\Depes Crystalline\Desktop\school\Active_Bike_Lighting_System\Radar_Core/Libraries/CMSIS/Include\core_cmSimd.h **** 
 2342              	 .loc 2 525 0
 2343 164c 07F59471 	 add r1,r7,#296
 2344 1650 07F59C73 	 add r3,r7,#312
 2345 1654 D3E90023 	 ldrd r2,[r3]
 2346 1658 C1E90023 	 strd r2,[r1]
 528:C:\Users\Depes Crystalline\Desktop\school\Active_Bike_Lighting_System\Radar_Core/Libraries/CMSIS/Include\core_cmSimd.h **** #else               // Big endian
 2347              	 .loc 2 528 0
 2348 165c 07F59473 	 add r3,r7,#296
 2349 1660 1A68     	 ldr r2,[r3]
 2350 1662 07F59473 	 add r3,r7,#296
 2351 1666 5C68     	 ldr r4,[r3,#4]
 2352 1668 07F5A273 	 add r3,r7,#324
 2353 166c 1968     	 ldr r1,[r3]
 2354 166e 07F5A073 	 add r3,r7,#320
 2355 1672 1868     	 ldr r0,[r3]
 2356 1674 2346     	 mov r3,r4
 2357              	
 2358 1676 C1FBC023 	 smlald r2,r3,r1,r0
 2359              	
 2360              	 .thumb
 2361 167a 07F59471 	 add r1,r7,#296
 2362 167e 0A60     	 str r2,[r1]
 2363 1680 07F59472 	 add r2,r7,#296
 2364 1684 5360     	 str r3,[r2,#4]
 533:C:\Users\Depes Crystalline\Desktop\school\Active_Bike_Lighting_System\Radar_Core/Libraries/CMSIS/Include\core_cmSimd.h **** }
 2365              	 .loc 2 533 0
 2366 1686 07F59473 	 add r3,r7,#296
 2367 168a D3E90023 	 ldrd r2,[r3]
 2368              	.LBE136:
 2369              	.LBE135:
 2370              	 .loc 1 608 0
 2371 168e 07F56E71 	 add r1,r7,#952
 2372 1692 C1E90023 	 strd r2,[r1]
 609:../Dave/Generated/CMSIS_DSP/FilteringFunctions/arm_correlate_q15.c **** 
 610:../Dave/Generated/CMSIS_DSP/FilteringFunctions/arm_correlate_q15.c ****       /* Decrement the loop counter */
 611:../Dave/Generated/CMSIS_DSP/FilteringFunctions/arm_correlate_q15.c ****       k--;
 2373              	 .loc 1 611 0
 2374 1696 D7F88833 	 ldr r3,[r7,#904]
 2375 169a 013B     	 subs r3,r3,#1
 2376 169c C7F88833 	 str r3,[r7,#904]
 2377              	.L60:
 605:../Dave/Generated/CMSIS_DSP/FilteringFunctions/arm_correlate_q15.c ****     {
 2378              	 .loc 1 605 0
 2379 16a0 D7F88833 	 ldr r3,[r7,#904]
 2380 16a4 002B     	 cmp r3,#0
 2381 16a6 B1D1     	 bne .L62
 2382              	.LBB137:
 612:../Dave/Generated/CMSIS_DSP/FilteringFunctions/arm_correlate_q15.c ****     }
 613:../Dave/Generated/CMSIS_DSP/FilteringFunctions/arm_correlate_q15.c **** 
 614:../Dave/Generated/CMSIS_DSP/FilteringFunctions/arm_correlate_q15.c ****     /* Store the result in the accumulator in the destination buffer. */
 615:../Dave/Generated/CMSIS_DSP/FilteringFunctions/arm_correlate_q15.c ****     *pOut = (q15_t) (__SSAT((sum >> 15), 16));
 2383              	 .loc 1 615 0
 2384 16a8 07F56E73 	 add r3,r7,#952
 2385 16ac D3E90023 	 ldrd r2,[r3]
 2386 16b0 D10B     	 lsrs r1,r2,#15
 2387 16b2 3960     	 str r1,[r7]
 2388 16b4 3968     	 ldr r1,[r7]
 2389 16b6 41EA4341 	 orr r1,r1,r3,lsl#17
 2390 16ba 3960     	 str r1,[r7]
 2391 16bc DB13     	 asrs r3,r3,#15
 2392 16be 7B60     	 str r3,[r7,#4]
 2393 16c0 3B68     	 ldr r3,[r7]
 2394 16c2 C7F82033 	 str r3,[r7,#800]
 2395 16c6 D7F82033 	 ldr r3,[r7,#800]
 2396              	
 2397 16ca 03F30F03 	 ssat r3,#16,r3
 2398              	
 2399              	 .thumb
 2400 16ce C7F81C33 	 str r3,[r7,#796]
 2401 16d2 D7F81C33 	 ldr r3,[r7,#796]
 2402              	.LBE137:
 2403 16d6 9AB2     	 uxth r2,r3
 2404 16d8 D7F8C433 	 ldr r3,[r7,#964]
 2405 16dc 1A80     	 strh r2,[r3]
 616:../Dave/Generated/CMSIS_DSP/FilteringFunctions/arm_correlate_q15.c ****     /* Destination pointer is updated according to the address modifier, inc */
 617:../Dave/Generated/CMSIS_DSP/FilteringFunctions/arm_correlate_q15.c ****     pOut += inc;
 2406              	 .loc 1 617 0
 2407 16de D7F87433 	 ldr r3,[r7,#884]
 2408 16e2 5B00     	 lsls r3,r3,#1
 2409 16e4 D7F8C423 	 ldr r2,[r7,#964]
 2410 16e8 1344     	 add r3,r3,r2
 2411 16ea C7F8C433 	 str r3,[r7,#964]
 618:../Dave/Generated/CMSIS_DSP/FilteringFunctions/arm_correlate_q15.c **** 
