   1              	 .syntax unified
   2              	 .cpu cortex-m4
   3              	 .fpu softvfp
   4              	 .eabi_attribute 20,1
   5              	 .eabi_attribute 21,1
   6              	 .eabi_attribute 23,3
   7              	 .eabi_attribute 24,1
   8              	 .eabi_attribute 25,1
   9              	 .eabi_attribute 26,1
  10              	 .eabi_attribute 30,6
  11              	 .eabi_attribute 34,1
  12              	 .eabi_attribute 18,4
  13              	 .thumb
  14              	 .file "arm_lms_norm_q31.c"
  15              	 .text
  16              	.Ltext0:
  17              	 .cfi_sections .debug_frame
  18              	 .section .text.clip_q63_to_q31,"ax",%progbits
  19              	 .align 2
  20              	 .thumb
  21              	 .thumb_func
  23              	clip_q63_to_q31:
  24              	.LFB106:
  25              	 .file 1 "C:\\Users\\Depes Crystalline\\Desktop\\school\\Active_Bike_Lighting_System\\Radar_Core\\Dave\\Generated/CMSIS_DSP/arm_math.h"
   1:C:\Users\Depes Crystalline\Desktop\school\Active_Bike_Lighting_System\Radar_Core\Dave\Generated/CMSIS_DSP\arm_math.h **** /* ----------------------------------------------------------------------
   2:C:\Users\Depes Crystalline\Desktop\school\Active_Bike_Lighting_System\Radar_Core\Dave\Generated/CMSIS_DSP\arm_math.h **** * Copyright (C) 2010-2014 ARM Limited. All rights reserved.
   3:C:\Users\Depes Crystalline\Desktop\school\Active_Bike_Lighting_System\Radar_Core\Dave\Generated/CMSIS_DSP\arm_math.h **** *
   4:C:\Users\Depes Crystalline\Desktop\school\Active_Bike_Lighting_System\Radar_Core\Dave\Generated/CMSIS_DSP\arm_math.h **** * $Date:        12. March 2014
   5:C:\Users\Depes Crystalline\Desktop\school\Active_Bike_Lighting_System\Radar_Core\Dave\Generated/CMSIS_DSP\arm_math.h **** * $Revision: 	V1.4.4
   6:C:\Users\Depes Crystalline\Desktop\school\Active_Bike_Lighting_System\Radar_Core\Dave\Generated/CMSIS_DSP\arm_math.h **** *
   7:C:\Users\Depes Crystalline\Desktop\school\Active_Bike_Lighting_System\Radar_Core\Dave\Generated/CMSIS_DSP\arm_math.h **** * Project: 	    CMSIS DSP Library
   8:C:\Users\Depes Crystalline\Desktop\school\Active_Bike_Lighting_System\Radar_Core\Dave\Generated/CMSIS_DSP\arm_math.h **** * Title:	    arm_math.h
   9:C:\Users\Depes Crystalline\Desktop\school\Active_Bike_Lighting_System\Radar_Core\Dave\Generated/CMSIS_DSP\arm_math.h **** *
  10:C:\Users\Depes Crystalline\Desktop\school\Active_Bike_Lighting_System\Radar_Core\Dave\Generated/CMSIS_DSP\arm_math.h **** * Description:	Public header file for CMSIS DSP Library
  11:C:\Users\Depes Crystalline\Desktop\school\Active_Bike_Lighting_System\Radar_Core\Dave\Generated/CMSIS_DSP\arm_math.h **** *
  12:C:\Users\Depes Crystalline\Desktop\school\Active_Bike_Lighting_System\Radar_Core\Dave\Generated/CMSIS_DSP\arm_math.h **** * Target Processor: Cortex-M7/Cortex-M4/Cortex-M3/Cortex-M0
  13:C:\Users\Depes Crystalline\Desktop\school\Active_Bike_Lighting_System\Radar_Core\Dave\Generated/CMSIS_DSP\arm_math.h **** *
  14:C:\Users\Depes Crystalline\Desktop\school\Active_Bike_Lighting_System\Radar_Core\Dave\Generated/CMSIS_DSP\arm_math.h **** * Redistribution and use in source and binary forms, with or without
  15:C:\Users\Depes Crystalline\Desktop\school\Active_Bike_Lighting_System\Radar_Core\Dave\Generated/CMSIS_DSP\arm_math.h **** * modification, are permitted provided that the following conditions
  16:C:\Users\Depes Crystalline\Desktop\school\Active_Bike_Lighting_System\Radar_Core\Dave\Generated/CMSIS_DSP\arm_math.h **** * are met:
  17:C:\Users\Depes Crystalline\Desktop\school\Active_Bike_Lighting_System\Radar_Core\Dave\Generated/CMSIS_DSP\arm_math.h **** *   - Redistributions of source code must retain the above copyright
  18:C:\Users\Depes Crystalline\Desktop\school\Active_Bike_Lighting_System\Radar_Core\Dave\Generated/CMSIS_DSP\arm_math.h **** *     notice, this list of conditions and the following disclaimer.
  19:C:\Users\Depes Crystalline\Desktop\school\Active_Bike_Lighting_System\Radar_Core\Dave\Generated/CMSIS_DSP\arm_math.h **** *   - Redistributions in binary form must reproduce the above copyright
  20:C:\Users\Depes Crystalline\Desktop\school\Active_Bike_Lighting_System\Radar_Core\Dave\Generated/CMSIS_DSP\arm_math.h **** *     notice, this list of conditions and the following disclaimer in
  21:C:\Users\Depes Crystalline\Desktop\school\Active_Bike_Lighting_System\Radar_Core\Dave\Generated/CMSIS_DSP\arm_math.h **** *     the documentation and/or other materials provided with the
  22:C:\Users\Depes Crystalline\Desktop\school\Active_Bike_Lighting_System\Radar_Core\Dave\Generated/CMSIS_DSP\arm_math.h **** *     distribution.
  23:C:\Users\Depes Crystalline\Desktop\school\Active_Bike_Lighting_System\Radar_Core\Dave\Generated/CMSIS_DSP\arm_math.h **** *   - Neither the name of ARM LIMITED nor the names of its contributors
  24:C:\Users\Depes Crystalline\Desktop\school\Active_Bike_Lighting_System\Radar_Core\Dave\Generated/CMSIS_DSP\arm_math.h **** *     may be used to endorse or promote products derived from this
  25:C:\Users\Depes Crystalline\Desktop\school\Active_Bike_Lighting_System\Radar_Core\Dave\Generated/CMSIS_DSP\arm_math.h **** *     software without specific prior written permission.
  26:C:\Users\Depes Crystalline\Desktop\school\Active_Bike_Lighting_System\Radar_Core\Dave\Generated/CMSIS_DSP\arm_math.h **** *
  27:C:\Users\Depes Crystalline\Desktop\school\Active_Bike_Lighting_System\Radar_Core\Dave\Generated/CMSIS_DSP\arm_math.h **** * THIS SOFTWARE IS PROVIDED BY THE COPYRIGHT HOLDERS AND CONTRIBUTORS
  28:C:\Users\Depes Crystalline\Desktop\school\Active_Bike_Lighting_System\Radar_Core\Dave\Generated/CMSIS_DSP\arm_math.h **** * "AS IS" AND ANY EXPRESS OR IMPLIED WARRANTIES, INCLUDING, BUT NOT
  29:C:\Users\Depes Crystalline\Desktop\school\Active_Bike_Lighting_System\Radar_Core\Dave\Generated/CMSIS_DSP\arm_math.h **** * LIMITED TO, THE IMPLIED WARRANTIES OF MERCHANTABILITY AND FITNESS
  30:C:\Users\Depes Crystalline\Desktop\school\Active_Bike_Lighting_System\Radar_Core\Dave\Generated/CMSIS_DSP\arm_math.h **** * FOR A PARTICULAR PURPOSE ARE DISCLAIMED. IN NO EVENT SHALL THE
  31:C:\Users\Depes Crystalline\Desktop\school\Active_Bike_Lighting_System\Radar_Core\Dave\Generated/CMSIS_DSP\arm_math.h **** * COPYRIGHT OWNER OR CONTRIBUTORS BE LIABLE FOR ANY DIRECT, INDIRECT,
  32:C:\Users\Depes Crystalline\Desktop\school\Active_Bike_Lighting_System\Radar_Core\Dave\Generated/CMSIS_DSP\arm_math.h **** * INCIDENTAL, SPECIAL, EXEMPLARY, OR CONSEQUENTIAL DAMAGES (INCLUDING,
  33:C:\Users\Depes Crystalline\Desktop\school\Active_Bike_Lighting_System\Radar_Core\Dave\Generated/CMSIS_DSP\arm_math.h **** * BUT NOT LIMITED TO, PROCUREMENT OF SUBSTITUTE GOODS OR SERVICES;
  34:C:\Users\Depes Crystalline\Desktop\school\Active_Bike_Lighting_System\Radar_Core\Dave\Generated/CMSIS_DSP\arm_math.h **** * LOSS OF USE, DATA, OR PROFITS; OR BUSINESS INTERRUPTION) HOWEVER
  35:C:\Users\Depes Crystalline\Desktop\school\Active_Bike_Lighting_System\Radar_Core\Dave\Generated/CMSIS_DSP\arm_math.h **** * CAUSED AND ON ANY THEORY OF LIABILITY, WHETHER IN CONTRACT, STRICT
  36:C:\Users\Depes Crystalline\Desktop\school\Active_Bike_Lighting_System\Radar_Core\Dave\Generated/CMSIS_DSP\arm_math.h **** * LIABILITY, OR TORT (INCLUDING NEGLIGENCE OR OTHERWISE) ARISING IN
  37:C:\Users\Depes Crystalline\Desktop\school\Active_Bike_Lighting_System\Radar_Core\Dave\Generated/CMSIS_DSP\arm_math.h **** * ANY WAY OUT OF THE USE OF THIS SOFTWARE, EVEN IF ADVISED OF THE
  38:C:\Users\Depes Crystalline\Desktop\school\Active_Bike_Lighting_System\Radar_Core\Dave\Generated/CMSIS_DSP\arm_math.h **** * POSSIBILITY OF SUCH DAMAGE.
  39:C:\Users\Depes Crystalline\Desktop\school\Active_Bike_Lighting_System\Radar_Core\Dave\Generated/CMSIS_DSP\arm_math.h ****  * -------------------------------------------------------------------- */
  40:C:\Users\Depes Crystalline\Desktop\school\Active_Bike_Lighting_System\Radar_Core\Dave\Generated/CMSIS_DSP\arm_math.h **** 
  41:C:\Users\Depes Crystalline\Desktop\school\Active_Bike_Lighting_System\Radar_Core\Dave\Generated/CMSIS_DSP\arm_math.h **** /**
  42:C:\Users\Depes Crystalline\Desktop\school\Active_Bike_Lighting_System\Radar_Core\Dave\Generated/CMSIS_DSP\arm_math.h ****    \mainpage CMSIS DSP Software Library
  43:C:\Users\Depes Crystalline\Desktop\school\Active_Bike_Lighting_System\Radar_Core\Dave\Generated/CMSIS_DSP\arm_math.h ****    *
  44:C:\Users\Depes Crystalline\Desktop\school\Active_Bike_Lighting_System\Radar_Core\Dave\Generated/CMSIS_DSP\arm_math.h ****    * Introduction
  45:C:\Users\Depes Crystalline\Desktop\school\Active_Bike_Lighting_System\Radar_Core\Dave\Generated/CMSIS_DSP\arm_math.h ****    * ------------
  46:C:\Users\Depes Crystalline\Desktop\school\Active_Bike_Lighting_System\Radar_Core\Dave\Generated/CMSIS_DSP\arm_math.h ****    *
  47:C:\Users\Depes Crystalline\Desktop\school\Active_Bike_Lighting_System\Radar_Core\Dave\Generated/CMSIS_DSP\arm_math.h ****    * This user manual describes the CMSIS DSP software library,
  48:C:\Users\Depes Crystalline\Desktop\school\Active_Bike_Lighting_System\Radar_Core\Dave\Generated/CMSIS_DSP\arm_math.h ****    * a suite of common signal processing functions for use on Cortex-M processor based devices.
  49:C:\Users\Depes Crystalline\Desktop\school\Active_Bike_Lighting_System\Radar_Core\Dave\Generated/CMSIS_DSP\arm_math.h ****    *
  50:C:\Users\Depes Crystalline\Desktop\school\Active_Bike_Lighting_System\Radar_Core\Dave\Generated/CMSIS_DSP\arm_math.h ****    * The library is divided into a number of functions each covering a specific category:
  51:C:\Users\Depes Crystalline\Desktop\school\Active_Bike_Lighting_System\Radar_Core\Dave\Generated/CMSIS_DSP\arm_math.h ****    * - Basic math functions
  52:C:\Users\Depes Crystalline\Desktop\school\Active_Bike_Lighting_System\Radar_Core\Dave\Generated/CMSIS_DSP\arm_math.h ****    * - Fast math functions
  53:C:\Users\Depes Crystalline\Desktop\school\Active_Bike_Lighting_System\Radar_Core\Dave\Generated/CMSIS_DSP\arm_math.h ****    * - Complex math functions
  54:C:\Users\Depes Crystalline\Desktop\school\Active_Bike_Lighting_System\Radar_Core\Dave\Generated/CMSIS_DSP\arm_math.h ****    * - Filters
  55:C:\Users\Depes Crystalline\Desktop\school\Active_Bike_Lighting_System\Radar_Core\Dave\Generated/CMSIS_DSP\arm_math.h ****    * - Matrix functions
  56:C:\Users\Depes Crystalline\Desktop\school\Active_Bike_Lighting_System\Radar_Core\Dave\Generated/CMSIS_DSP\arm_math.h ****    * - Transforms
  57:C:\Users\Depes Crystalline\Desktop\school\Active_Bike_Lighting_System\Radar_Core\Dave\Generated/CMSIS_DSP\arm_math.h ****    * - Motor control functions
  58:C:\Users\Depes Crystalline\Desktop\school\Active_Bike_Lighting_System\Radar_Core\Dave\Generated/CMSIS_DSP\arm_math.h ****    * - Statistical functions
  59:C:\Users\Depes Crystalline\Desktop\school\Active_Bike_Lighting_System\Radar_Core\Dave\Generated/CMSIS_DSP\arm_math.h ****    * - Support functions
  60:C:\Users\Depes Crystalline\Desktop\school\Active_Bike_Lighting_System\Radar_Core\Dave\Generated/CMSIS_DSP\arm_math.h ****    * - Interpolation functions
  61:C:\Users\Depes Crystalline\Desktop\school\Active_Bike_Lighting_System\Radar_Core\Dave\Generated/CMSIS_DSP\arm_math.h ****    *
  62:C:\Users\Depes Crystalline\Desktop\school\Active_Bike_Lighting_System\Radar_Core\Dave\Generated/CMSIS_DSP\arm_math.h ****    * The library has separate functions for operating on 8-bit integers, 16-bit integers,
  63:C:\Users\Depes Crystalline\Desktop\school\Active_Bike_Lighting_System\Radar_Core\Dave\Generated/CMSIS_DSP\arm_math.h ****    * 32-bit integer and 32-bit floating-point values.
  64:C:\Users\Depes Crystalline\Desktop\school\Active_Bike_Lighting_System\Radar_Core\Dave\Generated/CMSIS_DSP\arm_math.h ****    *
  65:C:\Users\Depes Crystalline\Desktop\school\Active_Bike_Lighting_System\Radar_Core\Dave\Generated/CMSIS_DSP\arm_math.h ****    * Using the Library
  66:C:\Users\Depes Crystalline\Desktop\school\Active_Bike_Lighting_System\Radar_Core\Dave\Generated/CMSIS_DSP\arm_math.h ****    * ------------
  67:C:\Users\Depes Crystalline\Desktop\school\Active_Bike_Lighting_System\Radar_Core\Dave\Generated/CMSIS_DSP\arm_math.h ****    *
  68:C:\Users\Depes Crystalline\Desktop\school\Active_Bike_Lighting_System\Radar_Core\Dave\Generated/CMSIS_DSP\arm_math.h ****    * The library installer contains prebuilt versions of the libraries in the <code>Lib</code> fold
  69:C:\Users\Depes Crystalline\Desktop\school\Active_Bike_Lighting_System\Radar_Core\Dave\Generated/CMSIS_DSP\arm_math.h ****    * - arm_cortexM7lfdp_math.lib (Little endian and Double Precision Floating Point Unit on Cortex-
  70:C:\Users\Depes Crystalline\Desktop\school\Active_Bike_Lighting_System\Radar_Core\Dave\Generated/CMSIS_DSP\arm_math.h ****    * - arm_cortexM7bfdp_math.lib (Big endian and Double Precision Floating Point Unit on Cortex-M7)
  71:C:\Users\Depes Crystalline\Desktop\school\Active_Bike_Lighting_System\Radar_Core\Dave\Generated/CMSIS_DSP\arm_math.h ****    * - arm_cortexM7lfsp_math.lib (Little endian and Single Precision Floating Point Unit on Cortex-
  72:C:\Users\Depes Crystalline\Desktop\school\Active_Bike_Lighting_System\Radar_Core\Dave\Generated/CMSIS_DSP\arm_math.h ****    * - arm_cortexM7bfsp_math.lib (Big endian and Single Precision Floating Point Unit on Cortex-M7)
  73:C:\Users\Depes Crystalline\Desktop\school\Active_Bike_Lighting_System\Radar_Core\Dave\Generated/CMSIS_DSP\arm_math.h ****    * - arm_cortexM7l_math.lib (Little endian on Cortex-M7)
  74:C:\Users\Depes Crystalline\Desktop\school\Active_Bike_Lighting_System\Radar_Core\Dave\Generated/CMSIS_DSP\arm_math.h ****    * - arm_cortexM7b_math.lib (Big endian on Cortex-M7)
  75:C:\Users\Depes Crystalline\Desktop\school\Active_Bike_Lighting_System\Radar_Core\Dave\Generated/CMSIS_DSP\arm_math.h ****    * - arm_cortexM4lf_math.lib (Little endian and Floating Point Unit on Cortex-M4)
  76:C:\Users\Depes Crystalline\Desktop\school\Active_Bike_Lighting_System\Radar_Core\Dave\Generated/CMSIS_DSP\arm_math.h ****    * - arm_cortexM4bf_math.lib (Big endian and Floating Point Unit on Cortex-M4)
  77:C:\Users\Depes Crystalline\Desktop\school\Active_Bike_Lighting_System\Radar_Core\Dave\Generated/CMSIS_DSP\arm_math.h ****    * - arm_cortexM4l_math.lib (Little endian on Cortex-M4)
  78:C:\Users\Depes Crystalline\Desktop\school\Active_Bike_Lighting_System\Radar_Core\Dave\Generated/CMSIS_DSP\arm_math.h ****    * - arm_cortexM4b_math.lib (Big endian on Cortex-M4)
  79:C:\Users\Depes Crystalline\Desktop\school\Active_Bike_Lighting_System\Radar_Core\Dave\Generated/CMSIS_DSP\arm_math.h ****    * - arm_cortexM3l_math.lib (Little endian on Cortex-M3)
  80:C:\Users\Depes Crystalline\Desktop\school\Active_Bike_Lighting_System\Radar_Core\Dave\Generated/CMSIS_DSP\arm_math.h ****    * - arm_cortexM3b_math.lib (Big endian on Cortex-M3)
  81:C:\Users\Depes Crystalline\Desktop\school\Active_Bike_Lighting_System\Radar_Core\Dave\Generated/CMSIS_DSP\arm_math.h ****    * - arm_cortexM0l_math.lib (Little endian on Cortex-M0 / CortexM0+)
  82:C:\Users\Depes Crystalline\Desktop\school\Active_Bike_Lighting_System\Radar_Core\Dave\Generated/CMSIS_DSP\arm_math.h ****    * - arm_cortexM0b_math.lib (Big endian on Cortex-M0 / CortexM0+)
  83:C:\Users\Depes Crystalline\Desktop\school\Active_Bike_Lighting_System\Radar_Core\Dave\Generated/CMSIS_DSP\arm_math.h ****    *
  84:C:\Users\Depes Crystalline\Desktop\school\Active_Bike_Lighting_System\Radar_Core\Dave\Generated/CMSIS_DSP\arm_math.h ****    * The library functions are declared in the public file <code>arm_math.h</code> which is placed 
  85:C:\Users\Depes Crystalline\Desktop\school\Active_Bike_Lighting_System\Radar_Core\Dave\Generated/CMSIS_DSP\arm_math.h ****    * Simply include this file and link the appropriate library in the application and begin calling
  86:C:\Users\Depes Crystalline\Desktop\school\Active_Bike_Lighting_System\Radar_Core\Dave\Generated/CMSIS_DSP\arm_math.h ****    * public header file <code> arm_math.h</code> for Cortex-M7/M4/M3/M0/M0+ with little endian and 
  87:C:\Users\Depes Crystalline\Desktop\school\Active_Bike_Lighting_System\Radar_Core\Dave\Generated/CMSIS_DSP\arm_math.h ****    * Define the appropriate pre processor MACRO ARM_MATH_CM7 or ARM_MATH_CM4 or  ARM_MATH_CM3 or
  88:C:\Users\Depes Crystalline\Desktop\school\Active_Bike_Lighting_System\Radar_Core\Dave\Generated/CMSIS_DSP\arm_math.h ****    * ARM_MATH_CM0 or ARM_MATH_CM0PLUS depending on the target processor in the application.
  89:C:\Users\Depes Crystalline\Desktop\school\Active_Bike_Lighting_System\Radar_Core\Dave\Generated/CMSIS_DSP\arm_math.h ****    *
  90:C:\Users\Depes Crystalline\Desktop\school\Active_Bike_Lighting_System\Radar_Core\Dave\Generated/CMSIS_DSP\arm_math.h ****    * Examples
  91:C:\Users\Depes Crystalline\Desktop\school\Active_Bike_Lighting_System\Radar_Core\Dave\Generated/CMSIS_DSP\arm_math.h ****    * --------
  92:C:\Users\Depes Crystalline\Desktop\school\Active_Bike_Lighting_System\Radar_Core\Dave\Generated/CMSIS_DSP\arm_math.h ****    *
  93:C:\Users\Depes Crystalline\Desktop\school\Active_Bike_Lighting_System\Radar_Core\Dave\Generated/CMSIS_DSP\arm_math.h ****    * The library ships with a number of examples which demonstrate how to use the library functions
  94:C:\Users\Depes Crystalline\Desktop\school\Active_Bike_Lighting_System\Radar_Core\Dave\Generated/CMSIS_DSP\arm_math.h ****    *
  95:C:\Users\Depes Crystalline\Desktop\school\Active_Bike_Lighting_System\Radar_Core\Dave\Generated/CMSIS_DSP\arm_math.h ****    * Toolchain Support
  96:C:\Users\Depes Crystalline\Desktop\school\Active_Bike_Lighting_System\Radar_Core\Dave\Generated/CMSIS_DSP\arm_math.h ****    * ------------
  97:C:\Users\Depes Crystalline\Desktop\school\Active_Bike_Lighting_System\Radar_Core\Dave\Generated/CMSIS_DSP\arm_math.h ****    *
  98:C:\Users\Depes Crystalline\Desktop\school\Active_Bike_Lighting_System\Radar_Core\Dave\Generated/CMSIS_DSP\arm_math.h ****    * The library has been developed and tested with MDK-ARM version 4.60.
  99:C:\Users\Depes Crystalline\Desktop\school\Active_Bike_Lighting_System\Radar_Core\Dave\Generated/CMSIS_DSP\arm_math.h ****    * The library is being tested in GCC and IAR toolchains and updates on this activity will be mad
 100:C:\Users\Depes Crystalline\Desktop\school\Active_Bike_Lighting_System\Radar_Core\Dave\Generated/CMSIS_DSP\arm_math.h ****    *
 101:C:\Users\Depes Crystalline\Desktop\school\Active_Bike_Lighting_System\Radar_Core\Dave\Generated/CMSIS_DSP\arm_math.h ****    * Building the Library
 102:C:\Users\Depes Crystalline\Desktop\school\Active_Bike_Lighting_System\Radar_Core\Dave\Generated/CMSIS_DSP\arm_math.h ****    * ------------
 103:C:\Users\Depes Crystalline\Desktop\school\Active_Bike_Lighting_System\Radar_Core\Dave\Generated/CMSIS_DSP\arm_math.h ****    *
 104:C:\Users\Depes Crystalline\Desktop\school\Active_Bike_Lighting_System\Radar_Core\Dave\Generated/CMSIS_DSP\arm_math.h ****    * The library installer contains a project file to re build libraries on MDK-ARM Tool chain in t
 105:C:\Users\Depes Crystalline\Desktop\school\Active_Bike_Lighting_System\Radar_Core\Dave\Generated/CMSIS_DSP\arm_math.h ****    * - arm_cortexM_math.uvproj
 106:C:\Users\Depes Crystalline\Desktop\school\Active_Bike_Lighting_System\Radar_Core\Dave\Generated/CMSIS_DSP\arm_math.h ****    *
 107:C:\Users\Depes Crystalline\Desktop\school\Active_Bike_Lighting_System\Radar_Core\Dave\Generated/CMSIS_DSP\arm_math.h ****    *
 108:C:\Users\Depes Crystalline\Desktop\school\Active_Bike_Lighting_System\Radar_Core\Dave\Generated/CMSIS_DSP\arm_math.h ****    * The libraries can be built by opening the arm_cortexM_math.uvproj project in MDK-ARM, selectin
 109:C:\Users\Depes Crystalline\Desktop\school\Active_Bike_Lighting_System\Radar_Core\Dave\Generated/CMSIS_DSP\arm_math.h ****    *
 110:C:\Users\Depes Crystalline\Desktop\school\Active_Bike_Lighting_System\Radar_Core\Dave\Generated/CMSIS_DSP\arm_math.h ****    * Pre-processor Macros
 111:C:\Users\Depes Crystalline\Desktop\school\Active_Bike_Lighting_System\Radar_Core\Dave\Generated/CMSIS_DSP\arm_math.h ****    * ------------
 112:C:\Users\Depes Crystalline\Desktop\school\Active_Bike_Lighting_System\Radar_Core\Dave\Generated/CMSIS_DSP\arm_math.h ****    *
 113:C:\Users\Depes Crystalline\Desktop\school\Active_Bike_Lighting_System\Radar_Core\Dave\Generated/CMSIS_DSP\arm_math.h ****    * Each library project have differant pre-processor macros.
 114:C:\Users\Depes Crystalline\Desktop\school\Active_Bike_Lighting_System\Radar_Core\Dave\Generated/CMSIS_DSP\arm_math.h ****    *
 115:C:\Users\Depes Crystalline\Desktop\school\Active_Bike_Lighting_System\Radar_Core\Dave\Generated/CMSIS_DSP\arm_math.h ****    * - UNALIGNED_SUPPORT_DISABLE:
 116:C:\Users\Depes Crystalline\Desktop\school\Active_Bike_Lighting_System\Radar_Core\Dave\Generated/CMSIS_DSP\arm_math.h ****    *
 117:C:\Users\Depes Crystalline\Desktop\school\Active_Bike_Lighting_System\Radar_Core\Dave\Generated/CMSIS_DSP\arm_math.h ****    * Define macro UNALIGNED_SUPPORT_DISABLE, If the silicon does not support unaligned memory acces
 118:C:\Users\Depes Crystalline\Desktop\school\Active_Bike_Lighting_System\Radar_Core\Dave\Generated/CMSIS_DSP\arm_math.h ****    *
 119:C:\Users\Depes Crystalline\Desktop\school\Active_Bike_Lighting_System\Radar_Core\Dave\Generated/CMSIS_DSP\arm_math.h ****    * - ARM_MATH_BIG_ENDIAN:
 120:C:\Users\Depes Crystalline\Desktop\school\Active_Bike_Lighting_System\Radar_Core\Dave\Generated/CMSIS_DSP\arm_math.h ****    *
 121:C:\Users\Depes Crystalline\Desktop\school\Active_Bike_Lighting_System\Radar_Core\Dave\Generated/CMSIS_DSP\arm_math.h ****    * Define macro ARM_MATH_BIG_ENDIAN to build the library for big endian targets. By default libra
 122:C:\Users\Depes Crystalline\Desktop\school\Active_Bike_Lighting_System\Radar_Core\Dave\Generated/CMSIS_DSP\arm_math.h ****    *
 123:C:\Users\Depes Crystalline\Desktop\school\Active_Bike_Lighting_System\Radar_Core\Dave\Generated/CMSIS_DSP\arm_math.h ****    * - ARM_MATH_MATRIX_CHECK:
 124:C:\Users\Depes Crystalline\Desktop\school\Active_Bike_Lighting_System\Radar_Core\Dave\Generated/CMSIS_DSP\arm_math.h ****    *
 125:C:\Users\Depes Crystalline\Desktop\school\Active_Bike_Lighting_System\Radar_Core\Dave\Generated/CMSIS_DSP\arm_math.h ****    * Define macro ARM_MATH_MATRIX_CHECK for checking on the input and output sizes of matrices
 126:C:\Users\Depes Crystalline\Desktop\school\Active_Bike_Lighting_System\Radar_Core\Dave\Generated/CMSIS_DSP\arm_math.h ****    *
 127:C:\Users\Depes Crystalline\Desktop\school\Active_Bike_Lighting_System\Radar_Core\Dave\Generated/CMSIS_DSP\arm_math.h ****    * - ARM_MATH_ROUNDING:
 128:C:\Users\Depes Crystalline\Desktop\school\Active_Bike_Lighting_System\Radar_Core\Dave\Generated/CMSIS_DSP\arm_math.h ****    *
 129:C:\Users\Depes Crystalline\Desktop\school\Active_Bike_Lighting_System\Radar_Core\Dave\Generated/CMSIS_DSP\arm_math.h ****    * Define macro ARM_MATH_ROUNDING for rounding on support functions
 130:C:\Users\Depes Crystalline\Desktop\school\Active_Bike_Lighting_System\Radar_Core\Dave\Generated/CMSIS_DSP\arm_math.h ****    *
 131:C:\Users\Depes Crystalline\Desktop\school\Active_Bike_Lighting_System\Radar_Core\Dave\Generated/CMSIS_DSP\arm_math.h ****    * - ARM_MATH_CMx:
 132:C:\Users\Depes Crystalline\Desktop\school\Active_Bike_Lighting_System\Radar_Core\Dave\Generated/CMSIS_DSP\arm_math.h ****    *
 133:C:\Users\Depes Crystalline\Desktop\school\Active_Bike_Lighting_System\Radar_Core\Dave\Generated/CMSIS_DSP\arm_math.h ****    * Define macro ARM_MATH_CM4 for building the library on Cortex-M4 target, ARM_MATH_CM3 for build
 134:C:\Users\Depes Crystalline\Desktop\school\Active_Bike_Lighting_System\Radar_Core\Dave\Generated/CMSIS_DSP\arm_math.h ****    * and ARM_MATH_CM0 for building library on cortex-M0 target, ARM_MATH_CM0PLUS for building libra
 135:C:\Users\Depes Crystalline\Desktop\school\Active_Bike_Lighting_System\Radar_Core\Dave\Generated/CMSIS_DSP\arm_math.h ****    *
 136:C:\Users\Depes Crystalline\Desktop\school\Active_Bike_Lighting_System\Radar_Core\Dave\Generated/CMSIS_DSP\arm_math.h ****    * - __FPU_PRESENT:
 137:C:\Users\Depes Crystalline\Desktop\school\Active_Bike_Lighting_System\Radar_Core\Dave\Generated/CMSIS_DSP\arm_math.h ****    *
 138:C:\Users\Depes Crystalline\Desktop\school\Active_Bike_Lighting_System\Radar_Core\Dave\Generated/CMSIS_DSP\arm_math.h ****    * Initialize macro __FPU_PRESENT = 1 when building on FPU supported Targets. Enable this macro f
 139:C:\Users\Depes Crystalline\Desktop\school\Active_Bike_Lighting_System\Radar_Core\Dave\Generated/CMSIS_DSP\arm_math.h ****    *
 140:C:\Users\Depes Crystalline\Desktop\school\Active_Bike_Lighting_System\Radar_Core\Dave\Generated/CMSIS_DSP\arm_math.h ****    * <hr>
 141:C:\Users\Depes Crystalline\Desktop\school\Active_Bike_Lighting_System\Radar_Core\Dave\Generated/CMSIS_DSP\arm_math.h ****    * CMSIS-DSP in ARM::CMSIS Pack
 142:C:\Users\Depes Crystalline\Desktop\school\Active_Bike_Lighting_System\Radar_Core\Dave\Generated/CMSIS_DSP\arm_math.h ****    * -----------------------------
 143:C:\Users\Depes Crystalline\Desktop\school\Active_Bike_Lighting_System\Radar_Core\Dave\Generated/CMSIS_DSP\arm_math.h ****    * 
 144:C:\Users\Depes Crystalline\Desktop\school\Active_Bike_Lighting_System\Radar_Core\Dave\Generated/CMSIS_DSP\arm_math.h ****    * The following files relevant to CMSIS-DSP are present in the <b>ARM::CMSIS</b> Pack directorie
 145:C:\Users\Depes Crystalline\Desktop\school\Active_Bike_Lighting_System\Radar_Core\Dave\Generated/CMSIS_DSP\arm_math.h ****    * |File/Folder                   |Content                                                       
 146:C:\Users\Depes Crystalline\Desktop\school\Active_Bike_Lighting_System\Radar_Core\Dave\Generated/CMSIS_DSP\arm_math.h ****    * |------------------------------|--------------------------------------------------------------
 147:C:\Users\Depes Crystalline\Desktop\school\Active_Bike_Lighting_System\Radar_Core\Dave\Generated/CMSIS_DSP\arm_math.h ****    * |\b CMSIS\\Documentation\\DSP  | This documentation                                           
 148:C:\Users\Depes Crystalline\Desktop\school\Active_Bike_Lighting_System\Radar_Core\Dave\Generated/CMSIS_DSP\arm_math.h ****    * |\b CMSIS\\DSP_Lib             | Software license agreement (license.txt)                     
 149:C:\Users\Depes Crystalline\Desktop\school\Active_Bike_Lighting_System\Radar_Core\Dave\Generated/CMSIS_DSP\arm_math.h ****    * |\b CMSIS\\DSP_Lib\\Examples   | Example projects demonstrating the usage of the library funct
 150:C:\Users\Depes Crystalline\Desktop\school\Active_Bike_Lighting_System\Radar_Core\Dave\Generated/CMSIS_DSP\arm_math.h ****    * |\b CMSIS\\DSP_Lib\\Source     | Source files for rebuilding the library                      
 151:C:\Users\Depes Crystalline\Desktop\school\Active_Bike_Lighting_System\Radar_Core\Dave\Generated/CMSIS_DSP\arm_math.h ****    * 
 152:C:\Users\Depes Crystalline\Desktop\school\Active_Bike_Lighting_System\Radar_Core\Dave\Generated/CMSIS_DSP\arm_math.h ****    * <hr>
 153:C:\Users\Depes Crystalline\Desktop\school\Active_Bike_Lighting_System\Radar_Core\Dave\Generated/CMSIS_DSP\arm_math.h ****    * Revision History of CMSIS-DSP
 154:C:\Users\Depes Crystalline\Desktop\school\Active_Bike_Lighting_System\Radar_Core\Dave\Generated/CMSIS_DSP\arm_math.h ****    * ------------
 155:C:\Users\Depes Crystalline\Desktop\school\Active_Bike_Lighting_System\Radar_Core\Dave\Generated/CMSIS_DSP\arm_math.h ****    * Please refer to \ref ChangeLog_pg.
 156:C:\Users\Depes Crystalline\Desktop\school\Active_Bike_Lighting_System\Radar_Core\Dave\Generated/CMSIS_DSP\arm_math.h ****    *
 157:C:\Users\Depes Crystalline\Desktop\school\Active_Bike_Lighting_System\Radar_Core\Dave\Generated/CMSIS_DSP\arm_math.h ****    * Copyright Notice
 158:C:\Users\Depes Crystalline\Desktop\school\Active_Bike_Lighting_System\Radar_Core\Dave\Generated/CMSIS_DSP\arm_math.h ****    * ------------
 159:C:\Users\Depes Crystalline\Desktop\school\Active_Bike_Lighting_System\Radar_Core\Dave\Generated/CMSIS_DSP\arm_math.h ****    *
 160:C:\Users\Depes Crystalline\Desktop\school\Active_Bike_Lighting_System\Radar_Core\Dave\Generated/CMSIS_DSP\arm_math.h ****    * Copyright (C) 2010-2014 ARM Limited. All rights reserved.
 161:C:\Users\Depes Crystalline\Desktop\school\Active_Bike_Lighting_System\Radar_Core\Dave\Generated/CMSIS_DSP\arm_math.h ****    */
 162:C:\Users\Depes Crystalline\Desktop\school\Active_Bike_Lighting_System\Radar_Core\Dave\Generated/CMSIS_DSP\arm_math.h **** 
 163:C:\Users\Depes Crystalline\Desktop\school\Active_Bike_Lighting_System\Radar_Core\Dave\Generated/CMSIS_DSP\arm_math.h **** 
 164:C:\Users\Depes Crystalline\Desktop\school\Active_Bike_Lighting_System\Radar_Core\Dave\Generated/CMSIS_DSP\arm_math.h **** /**
 165:C:\Users\Depes Crystalline\Desktop\school\Active_Bike_Lighting_System\Radar_Core\Dave\Generated/CMSIS_DSP\arm_math.h ****  * @defgroup groupMath Basic Math Functions
 166:C:\Users\Depes Crystalline\Desktop\school\Active_Bike_Lighting_System\Radar_Core\Dave\Generated/CMSIS_DSP\arm_math.h ****  */
 167:C:\Users\Depes Crystalline\Desktop\school\Active_Bike_Lighting_System\Radar_Core\Dave\Generated/CMSIS_DSP\arm_math.h **** 
 168:C:\Users\Depes Crystalline\Desktop\school\Active_Bike_Lighting_System\Radar_Core\Dave\Generated/CMSIS_DSP\arm_math.h **** /**
 169:C:\Users\Depes Crystalline\Desktop\school\Active_Bike_Lighting_System\Radar_Core\Dave\Generated/CMSIS_DSP\arm_math.h ****  * @defgroup groupFastMath Fast Math Functions
 170:C:\Users\Depes Crystalline\Desktop\school\Active_Bike_Lighting_System\Radar_Core\Dave\Generated/CMSIS_DSP\arm_math.h ****  * This set of functions provides a fast approximation to sine, cosine, and square root.
 171:C:\Users\Depes Crystalline\Desktop\school\Active_Bike_Lighting_System\Radar_Core\Dave\Generated/CMSIS_DSP\arm_math.h ****  * As compared to most of the other functions in the CMSIS math library, the fast math functions
 172:C:\Users\Depes Crystalline\Desktop\school\Active_Bike_Lighting_System\Radar_Core\Dave\Generated/CMSIS_DSP\arm_math.h ****  * operate on individual values and not arrays.
 173:C:\Users\Depes Crystalline\Desktop\school\Active_Bike_Lighting_System\Radar_Core\Dave\Generated/CMSIS_DSP\arm_math.h ****  * There are separate functions for Q15, Q31, and floating-point data.
 174:C:\Users\Depes Crystalline\Desktop\school\Active_Bike_Lighting_System\Radar_Core\Dave\Generated/CMSIS_DSP\arm_math.h ****  *
 175:C:\Users\Depes Crystalline\Desktop\school\Active_Bike_Lighting_System\Radar_Core\Dave\Generated/CMSIS_DSP\arm_math.h ****  */
 176:C:\Users\Depes Crystalline\Desktop\school\Active_Bike_Lighting_System\Radar_Core\Dave\Generated/CMSIS_DSP\arm_math.h **** 
 177:C:\Users\Depes Crystalline\Desktop\school\Active_Bike_Lighting_System\Radar_Core\Dave\Generated/CMSIS_DSP\arm_math.h **** /**
 178:C:\Users\Depes Crystalline\Desktop\school\Active_Bike_Lighting_System\Radar_Core\Dave\Generated/CMSIS_DSP\arm_math.h ****  * @defgroup groupCmplxMath Complex Math Functions
 179:C:\Users\Depes Crystalline\Desktop\school\Active_Bike_Lighting_System\Radar_Core\Dave\Generated/CMSIS_DSP\arm_math.h ****  * This set of functions operates on complex data vectors.
 180:C:\Users\Depes Crystalline\Desktop\school\Active_Bike_Lighting_System\Radar_Core\Dave\Generated/CMSIS_DSP\arm_math.h ****  * The data in the complex arrays is stored in an interleaved fashion
 181:C:\Users\Depes Crystalline\Desktop\school\Active_Bike_Lighting_System\Radar_Core\Dave\Generated/CMSIS_DSP\arm_math.h ****  * (real, imag, real, imag, ...).
 182:C:\Users\Depes Crystalline\Desktop\school\Active_Bike_Lighting_System\Radar_Core\Dave\Generated/CMSIS_DSP\arm_math.h ****  * In the API functions, the number of samples in a complex array refers
 183:C:\Users\Depes Crystalline\Desktop\school\Active_Bike_Lighting_System\Radar_Core\Dave\Generated/CMSIS_DSP\arm_math.h ****  * to the number of complex values; the array contains twice this number of
 184:C:\Users\Depes Crystalline\Desktop\school\Active_Bike_Lighting_System\Radar_Core\Dave\Generated/CMSIS_DSP\arm_math.h ****  * real values.
 185:C:\Users\Depes Crystalline\Desktop\school\Active_Bike_Lighting_System\Radar_Core\Dave\Generated/CMSIS_DSP\arm_math.h ****  */
 186:C:\Users\Depes Crystalline\Desktop\school\Active_Bike_Lighting_System\Radar_Core\Dave\Generated/CMSIS_DSP\arm_math.h **** 
 187:C:\Users\Depes Crystalline\Desktop\school\Active_Bike_Lighting_System\Radar_Core\Dave\Generated/CMSIS_DSP\arm_math.h **** /**
 188:C:\Users\Depes Crystalline\Desktop\school\Active_Bike_Lighting_System\Radar_Core\Dave\Generated/CMSIS_DSP\arm_math.h ****  * @defgroup groupFilters Filtering Functions
 189:C:\Users\Depes Crystalline\Desktop\school\Active_Bike_Lighting_System\Radar_Core\Dave\Generated/CMSIS_DSP\arm_math.h ****  */
 190:C:\Users\Depes Crystalline\Desktop\school\Active_Bike_Lighting_System\Radar_Core\Dave\Generated/CMSIS_DSP\arm_math.h **** 
 191:C:\Users\Depes Crystalline\Desktop\school\Active_Bike_Lighting_System\Radar_Core\Dave\Generated/CMSIS_DSP\arm_math.h **** /**
 192:C:\Users\Depes Crystalline\Desktop\school\Active_Bike_Lighting_System\Radar_Core\Dave\Generated/CMSIS_DSP\arm_math.h ****  * @defgroup groupMatrix Matrix Functions
 193:C:\Users\Depes Crystalline\Desktop\school\Active_Bike_Lighting_System\Radar_Core\Dave\Generated/CMSIS_DSP\arm_math.h ****  *
 194:C:\Users\Depes Crystalline\Desktop\school\Active_Bike_Lighting_System\Radar_Core\Dave\Generated/CMSIS_DSP\arm_math.h ****  * This set of functions provides basic matrix math operations.
 195:C:\Users\Depes Crystalline\Desktop\school\Active_Bike_Lighting_System\Radar_Core\Dave\Generated/CMSIS_DSP\arm_math.h ****  * The functions operate on matrix data structures.  For example,
 196:C:\Users\Depes Crystalline\Desktop\school\Active_Bike_Lighting_System\Radar_Core\Dave\Generated/CMSIS_DSP\arm_math.h ****  * the type
 197:C:\Users\Depes Crystalline\Desktop\school\Active_Bike_Lighting_System\Radar_Core\Dave\Generated/CMSIS_DSP\arm_math.h ****  * definition for the floating-point matrix structure is shown
 198:C:\Users\Depes Crystalline\Desktop\school\Active_Bike_Lighting_System\Radar_Core\Dave\Generated/CMSIS_DSP\arm_math.h ****  * below:
 199:C:\Users\Depes Crystalline\Desktop\school\Active_Bike_Lighting_System\Radar_Core\Dave\Generated/CMSIS_DSP\arm_math.h ****  * <pre>
 200:C:\Users\Depes Crystalline\Desktop\school\Active_Bike_Lighting_System\Radar_Core\Dave\Generated/CMSIS_DSP\arm_math.h ****  *     typedef struct
 201:C:\Users\Depes Crystalline\Desktop\school\Active_Bike_Lighting_System\Radar_Core\Dave\Generated/CMSIS_DSP\arm_math.h ****  *     {
 202:C:\Users\Depes Crystalline\Desktop\school\Active_Bike_Lighting_System\Radar_Core\Dave\Generated/CMSIS_DSP\arm_math.h ****  *       uint16_t numRows;     // number of rows of the matrix.
 203:C:\Users\Depes Crystalline\Desktop\school\Active_Bike_Lighting_System\Radar_Core\Dave\Generated/CMSIS_DSP\arm_math.h ****  *       uint16_t numCols;     // number of columns of the matrix.
 204:C:\Users\Depes Crystalline\Desktop\school\Active_Bike_Lighting_System\Radar_Core\Dave\Generated/CMSIS_DSP\arm_math.h ****  *       float32_t *pData;     // points to the data of the matrix.
 205:C:\Users\Depes Crystalline\Desktop\school\Active_Bike_Lighting_System\Radar_Core\Dave\Generated/CMSIS_DSP\arm_math.h ****  *     } arm_matrix_instance_f32;
 206:C:\Users\Depes Crystalline\Desktop\school\Active_Bike_Lighting_System\Radar_Core\Dave\Generated/CMSIS_DSP\arm_math.h ****  * </pre>
 207:C:\Users\Depes Crystalline\Desktop\school\Active_Bike_Lighting_System\Radar_Core\Dave\Generated/CMSIS_DSP\arm_math.h ****  * There are similar definitions for Q15 and Q31 data types.
 208:C:\Users\Depes Crystalline\Desktop\school\Active_Bike_Lighting_System\Radar_Core\Dave\Generated/CMSIS_DSP\arm_math.h ****  *
 209:C:\Users\Depes Crystalline\Desktop\school\Active_Bike_Lighting_System\Radar_Core\Dave\Generated/CMSIS_DSP\arm_math.h ****  * The structure specifies the size of the matrix and then points to
 210:C:\Users\Depes Crystalline\Desktop\school\Active_Bike_Lighting_System\Radar_Core\Dave\Generated/CMSIS_DSP\arm_math.h ****  * an array of data.  The array is of size <code>numRows X numCols</code>
 211:C:\Users\Depes Crystalline\Desktop\school\Active_Bike_Lighting_System\Radar_Core\Dave\Generated/CMSIS_DSP\arm_math.h ****  * and the values are arranged in row order.  That is, the
 212:C:\Users\Depes Crystalline\Desktop\school\Active_Bike_Lighting_System\Radar_Core\Dave\Generated/CMSIS_DSP\arm_math.h ****  * matrix element (i, j) is stored at:
 213:C:\Users\Depes Crystalline\Desktop\school\Active_Bike_Lighting_System\Radar_Core\Dave\Generated/CMSIS_DSP\arm_math.h ****  * <pre>
 214:C:\Users\Depes Crystalline\Desktop\school\Active_Bike_Lighting_System\Radar_Core\Dave\Generated/CMSIS_DSP\arm_math.h ****  *     pData[i*numCols + j]
 215:C:\Users\Depes Crystalline\Desktop\school\Active_Bike_Lighting_System\Radar_Core\Dave\Generated/CMSIS_DSP\arm_math.h ****  * </pre>
 216:C:\Users\Depes Crystalline\Desktop\school\Active_Bike_Lighting_System\Radar_Core\Dave\Generated/CMSIS_DSP\arm_math.h ****  *
 217:C:\Users\Depes Crystalline\Desktop\school\Active_Bike_Lighting_System\Radar_Core\Dave\Generated/CMSIS_DSP\arm_math.h ****  * \par Init Functions
 218:C:\Users\Depes Crystalline\Desktop\school\Active_Bike_Lighting_System\Radar_Core\Dave\Generated/CMSIS_DSP\arm_math.h ****  * There is an associated initialization function for each type of matrix
 219:C:\Users\Depes Crystalline\Desktop\school\Active_Bike_Lighting_System\Radar_Core\Dave\Generated/CMSIS_DSP\arm_math.h ****  * data structure.
 220:C:\Users\Depes Crystalline\Desktop\school\Active_Bike_Lighting_System\Radar_Core\Dave\Generated/CMSIS_DSP\arm_math.h ****  * The initialization function sets the values of the internal structure fields.
 221:C:\Users\Depes Crystalline\Desktop\school\Active_Bike_Lighting_System\Radar_Core\Dave\Generated/CMSIS_DSP\arm_math.h ****  * Refer to the function <code>arm_mat_init_f32()</code>, <code>arm_mat_init_q31()</code>
 222:C:\Users\Depes Crystalline\Desktop\school\Active_Bike_Lighting_System\Radar_Core\Dave\Generated/CMSIS_DSP\arm_math.h ****  * and <code>arm_mat_init_q15()</code> for floating-point, Q31 and Q15 types,  respectively.
 223:C:\Users\Depes Crystalline\Desktop\school\Active_Bike_Lighting_System\Radar_Core\Dave\Generated/CMSIS_DSP\arm_math.h ****  *
 224:C:\Users\Depes Crystalline\Desktop\school\Active_Bike_Lighting_System\Radar_Core\Dave\Generated/CMSIS_DSP\arm_math.h ****  * \par
 225:C:\Users\Depes Crystalline\Desktop\school\Active_Bike_Lighting_System\Radar_Core\Dave\Generated/CMSIS_DSP\arm_math.h ****  * Use of the initialization function is optional. However, if initialization function is used
 226:C:\Users\Depes Crystalline\Desktop\school\Active_Bike_Lighting_System\Radar_Core\Dave\Generated/CMSIS_DSP\arm_math.h ****  * then the instance structure cannot be placed into a const data section.
 227:C:\Users\Depes Crystalline\Desktop\school\Active_Bike_Lighting_System\Radar_Core\Dave\Generated/CMSIS_DSP\arm_math.h ****  * To place the instance structure in a const data
 228:C:\Users\Depes Crystalline\Desktop\school\Active_Bike_Lighting_System\Radar_Core\Dave\Generated/CMSIS_DSP\arm_math.h ****  * section, manually initialize the data structure.  For example:
 229:C:\Users\Depes Crystalline\Desktop\school\Active_Bike_Lighting_System\Radar_Core\Dave\Generated/CMSIS_DSP\arm_math.h ****  * <pre>
 230:C:\Users\Depes Crystalline\Desktop\school\Active_Bike_Lighting_System\Radar_Core\Dave\Generated/CMSIS_DSP\arm_math.h ****  * <code>arm_matrix_instance_f32 S = {nRows, nColumns, pData};</code>
 231:C:\Users\Depes Crystalline\Desktop\school\Active_Bike_Lighting_System\Radar_Core\Dave\Generated/CMSIS_DSP\arm_math.h ****  * <code>arm_matrix_instance_q31 S = {nRows, nColumns, pData};</code>
 232:C:\Users\Depes Crystalline\Desktop\school\Active_Bike_Lighting_System\Radar_Core\Dave\Generated/CMSIS_DSP\arm_math.h ****  * <code>arm_matrix_instance_q15 S = {nRows, nColumns, pData};</code>
 233:C:\Users\Depes Crystalline\Desktop\school\Active_Bike_Lighting_System\Radar_Core\Dave\Generated/CMSIS_DSP\arm_math.h ****  * </pre>
 234:C:\Users\Depes Crystalline\Desktop\school\Active_Bike_Lighting_System\Radar_Core\Dave\Generated/CMSIS_DSP\arm_math.h ****  * where <code>nRows</code> specifies the number of rows, <code>nColumns</code>
 235:C:\Users\Depes Crystalline\Desktop\school\Active_Bike_Lighting_System\Radar_Core\Dave\Generated/CMSIS_DSP\arm_math.h ****  * specifies the number of columns, and <code>pData</code> points to the
 236:C:\Users\Depes Crystalline\Desktop\school\Active_Bike_Lighting_System\Radar_Core\Dave\Generated/CMSIS_DSP\arm_math.h ****  * data array.
 237:C:\Users\Depes Crystalline\Desktop\school\Active_Bike_Lighting_System\Radar_Core\Dave\Generated/CMSIS_DSP\arm_math.h ****  *
 238:C:\Users\Depes Crystalline\Desktop\school\Active_Bike_Lighting_System\Radar_Core\Dave\Generated/CMSIS_DSP\arm_math.h ****  * \par Size Checking
 239:C:\Users\Depes Crystalline\Desktop\school\Active_Bike_Lighting_System\Radar_Core\Dave\Generated/CMSIS_DSP\arm_math.h ****  * By default all of the matrix functions perform size checking on the input and
 240:C:\Users\Depes Crystalline\Desktop\school\Active_Bike_Lighting_System\Radar_Core\Dave\Generated/CMSIS_DSP\arm_math.h ****  * output matrices.  For example, the matrix addition function verifies that the
 241:C:\Users\Depes Crystalline\Desktop\school\Active_Bike_Lighting_System\Radar_Core\Dave\Generated/CMSIS_DSP\arm_math.h ****  * two input matrices and the output matrix all have the same number of rows and
 242:C:\Users\Depes Crystalline\Desktop\school\Active_Bike_Lighting_System\Radar_Core\Dave\Generated/CMSIS_DSP\arm_math.h ****  * columns.  If the size check fails the functions return:
 243:C:\Users\Depes Crystalline\Desktop\school\Active_Bike_Lighting_System\Radar_Core\Dave\Generated/CMSIS_DSP\arm_math.h ****  * <pre>
 244:C:\Users\Depes Crystalline\Desktop\school\Active_Bike_Lighting_System\Radar_Core\Dave\Generated/CMSIS_DSP\arm_math.h ****  *     ARM_MATH_SIZE_MISMATCH
 245:C:\Users\Depes Crystalline\Desktop\school\Active_Bike_Lighting_System\Radar_Core\Dave\Generated/CMSIS_DSP\arm_math.h ****  * </pre>
 246:C:\Users\Depes Crystalline\Desktop\school\Active_Bike_Lighting_System\Radar_Core\Dave\Generated/CMSIS_DSP\arm_math.h ****  * Otherwise the functions return
 247:C:\Users\Depes Crystalline\Desktop\school\Active_Bike_Lighting_System\Radar_Core\Dave\Generated/CMSIS_DSP\arm_math.h ****  * <pre>
 248:C:\Users\Depes Crystalline\Desktop\school\Active_Bike_Lighting_System\Radar_Core\Dave\Generated/CMSIS_DSP\arm_math.h ****  *     ARM_MATH_SUCCESS
 249:C:\Users\Depes Crystalline\Desktop\school\Active_Bike_Lighting_System\Radar_Core\Dave\Generated/CMSIS_DSP\arm_math.h ****  * </pre>
 250:C:\Users\Depes Crystalline\Desktop\school\Active_Bike_Lighting_System\Radar_Core\Dave\Generated/CMSIS_DSP\arm_math.h ****  * There is some overhead associated with this matrix size checking.
 251:C:\Users\Depes Crystalline\Desktop\school\Active_Bike_Lighting_System\Radar_Core\Dave\Generated/CMSIS_DSP\arm_math.h ****  * The matrix size checking is enabled via the \#define
 252:C:\Users\Depes Crystalline\Desktop\school\Active_Bike_Lighting_System\Radar_Core\Dave\Generated/CMSIS_DSP\arm_math.h ****  * <pre>
 253:C:\Users\Depes Crystalline\Desktop\school\Active_Bike_Lighting_System\Radar_Core\Dave\Generated/CMSIS_DSP\arm_math.h ****  *     ARM_MATH_MATRIX_CHECK
 254:C:\Users\Depes Crystalline\Desktop\school\Active_Bike_Lighting_System\Radar_Core\Dave\Generated/CMSIS_DSP\arm_math.h ****  * </pre>
 255:C:\Users\Depes Crystalline\Desktop\school\Active_Bike_Lighting_System\Radar_Core\Dave\Generated/CMSIS_DSP\arm_math.h ****  * within the library project settings.  By default this macro is defined
 256:C:\Users\Depes Crystalline\Desktop\school\Active_Bike_Lighting_System\Radar_Core\Dave\Generated/CMSIS_DSP\arm_math.h ****  * and size checking is enabled.  By changing the project settings and
 257:C:\Users\Depes Crystalline\Desktop\school\Active_Bike_Lighting_System\Radar_Core\Dave\Generated/CMSIS_DSP\arm_math.h ****  * undefining this macro size checking is eliminated and the functions
 258:C:\Users\Depes Crystalline\Desktop\school\Active_Bike_Lighting_System\Radar_Core\Dave\Generated/CMSIS_DSP\arm_math.h ****  * run a bit faster.  With size checking disabled the functions always
 259:C:\Users\Depes Crystalline\Desktop\school\Active_Bike_Lighting_System\Radar_Core\Dave\Generated/CMSIS_DSP\arm_math.h ****  * return <code>ARM_MATH_SUCCESS</code>.
 260:C:\Users\Depes Crystalline\Desktop\school\Active_Bike_Lighting_System\Radar_Core\Dave\Generated/CMSIS_DSP\arm_math.h ****  */
 261:C:\Users\Depes Crystalline\Desktop\school\Active_Bike_Lighting_System\Radar_Core\Dave\Generated/CMSIS_DSP\arm_math.h **** 
 262:C:\Users\Depes Crystalline\Desktop\school\Active_Bike_Lighting_System\Radar_Core\Dave\Generated/CMSIS_DSP\arm_math.h **** /**
 263:C:\Users\Depes Crystalline\Desktop\school\Active_Bike_Lighting_System\Radar_Core\Dave\Generated/CMSIS_DSP\arm_math.h ****  * @defgroup groupTransforms Transform Functions
 264:C:\Users\Depes Crystalline\Desktop\school\Active_Bike_Lighting_System\Radar_Core\Dave\Generated/CMSIS_DSP\arm_math.h ****  */
 265:C:\Users\Depes Crystalline\Desktop\school\Active_Bike_Lighting_System\Radar_Core\Dave\Generated/CMSIS_DSP\arm_math.h **** 
 266:C:\Users\Depes Crystalline\Desktop\school\Active_Bike_Lighting_System\Radar_Core\Dave\Generated/CMSIS_DSP\arm_math.h **** /**
 267:C:\Users\Depes Crystalline\Desktop\school\Active_Bike_Lighting_System\Radar_Core\Dave\Generated/CMSIS_DSP\arm_math.h ****  * @defgroup groupController Controller Functions
 268:C:\Users\Depes Crystalline\Desktop\school\Active_Bike_Lighting_System\Radar_Core\Dave\Generated/CMSIS_DSP\arm_math.h ****  */
 269:C:\Users\Depes Crystalline\Desktop\school\Active_Bike_Lighting_System\Radar_Core\Dave\Generated/CMSIS_DSP\arm_math.h **** 
 270:C:\Users\Depes Crystalline\Desktop\school\Active_Bike_Lighting_System\Radar_Core\Dave\Generated/CMSIS_DSP\arm_math.h **** /**
 271:C:\Users\Depes Crystalline\Desktop\school\Active_Bike_Lighting_System\Radar_Core\Dave\Generated/CMSIS_DSP\arm_math.h ****  * @defgroup groupStats Statistics Functions
 272:C:\Users\Depes Crystalline\Desktop\school\Active_Bike_Lighting_System\Radar_Core\Dave\Generated/CMSIS_DSP\arm_math.h ****  */
 273:C:\Users\Depes Crystalline\Desktop\school\Active_Bike_Lighting_System\Radar_Core\Dave\Generated/CMSIS_DSP\arm_math.h **** /**
 274:C:\Users\Depes Crystalline\Desktop\school\Active_Bike_Lighting_System\Radar_Core\Dave\Generated/CMSIS_DSP\arm_math.h ****  * @defgroup groupSupport Support Functions
 275:C:\Users\Depes Crystalline\Desktop\school\Active_Bike_Lighting_System\Radar_Core\Dave\Generated/CMSIS_DSP\arm_math.h ****  */
 276:C:\Users\Depes Crystalline\Desktop\school\Active_Bike_Lighting_System\Radar_Core\Dave\Generated/CMSIS_DSP\arm_math.h **** 
 277:C:\Users\Depes Crystalline\Desktop\school\Active_Bike_Lighting_System\Radar_Core\Dave\Generated/CMSIS_DSP\arm_math.h **** /**
 278:C:\Users\Depes Crystalline\Desktop\school\Active_Bike_Lighting_System\Radar_Core\Dave\Generated/CMSIS_DSP\arm_math.h ****  * @defgroup groupInterpolation Interpolation Functions
 279:C:\Users\Depes Crystalline\Desktop\school\Active_Bike_Lighting_System\Radar_Core\Dave\Generated/CMSIS_DSP\arm_math.h ****  * These functions perform 1- and 2-dimensional interpolation of data.
 280:C:\Users\Depes Crystalline\Desktop\school\Active_Bike_Lighting_System\Radar_Core\Dave\Generated/CMSIS_DSP\arm_math.h ****  * Linear interpolation is used for 1-dimensional data and
 281:C:\Users\Depes Crystalline\Desktop\school\Active_Bike_Lighting_System\Radar_Core\Dave\Generated/CMSIS_DSP\arm_math.h ****  * bilinear interpolation is used for 2-dimensional data.
 282:C:\Users\Depes Crystalline\Desktop\school\Active_Bike_Lighting_System\Radar_Core\Dave\Generated/CMSIS_DSP\arm_math.h ****  */
 283:C:\Users\Depes Crystalline\Desktop\school\Active_Bike_Lighting_System\Radar_Core\Dave\Generated/CMSIS_DSP\arm_math.h **** 
 284:C:\Users\Depes Crystalline\Desktop\school\Active_Bike_Lighting_System\Radar_Core\Dave\Generated/CMSIS_DSP\arm_math.h **** /**
 285:C:\Users\Depes Crystalline\Desktop\school\Active_Bike_Lighting_System\Radar_Core\Dave\Generated/CMSIS_DSP\arm_math.h ****  * @defgroup groupExamples Examples
 286:C:\Users\Depes Crystalline\Desktop\school\Active_Bike_Lighting_System\Radar_Core\Dave\Generated/CMSIS_DSP\arm_math.h ****  */
 287:C:\Users\Depes Crystalline\Desktop\school\Active_Bike_Lighting_System\Radar_Core\Dave\Generated/CMSIS_DSP\arm_math.h **** #ifndef _ARM_MATH_H
 288:C:\Users\Depes Crystalline\Desktop\school\Active_Bike_Lighting_System\Radar_Core\Dave\Generated/CMSIS_DSP\arm_math.h **** #define _ARM_MATH_H
 289:C:\Users\Depes Crystalline\Desktop\school\Active_Bike_Lighting_System\Radar_Core\Dave\Generated/CMSIS_DSP\arm_math.h **** 
 290:C:\Users\Depes Crystalline\Desktop\school\Active_Bike_Lighting_System\Radar_Core\Dave\Generated/CMSIS_DSP\arm_math.h **** #define __CMSIS_GENERIC         /* disable NVIC and Systick functions */
 291:C:\Users\Depes Crystalline\Desktop\school\Active_Bike_Lighting_System\Radar_Core\Dave\Generated/CMSIS_DSP\arm_math.h **** 
 292:C:\Users\Depes Crystalline\Desktop\school\Active_Bike_Lighting_System\Radar_Core\Dave\Generated/CMSIS_DSP\arm_math.h **** #if defined(ARM_MATH_CM7)
 293:C:\Users\Depes Crystalline\Desktop\school\Active_Bike_Lighting_System\Radar_Core\Dave\Generated/CMSIS_DSP\arm_math.h ****   #include "core_cm7.h"
 294:C:\Users\Depes Crystalline\Desktop\school\Active_Bike_Lighting_System\Radar_Core\Dave\Generated/CMSIS_DSP\arm_math.h **** #elif defined (ARM_MATH_CM4)
 295:C:\Users\Depes Crystalline\Desktop\school\Active_Bike_Lighting_System\Radar_Core\Dave\Generated/CMSIS_DSP\arm_math.h ****   #include "core_cm4.h"
 296:C:\Users\Depes Crystalline\Desktop\school\Active_Bike_Lighting_System\Radar_Core\Dave\Generated/CMSIS_DSP\arm_math.h **** #elif defined (ARM_MATH_CM3)
 297:C:\Users\Depes Crystalline\Desktop\school\Active_Bike_Lighting_System\Radar_Core\Dave\Generated/CMSIS_DSP\arm_math.h ****   #include "core_cm3.h"
 298:C:\Users\Depes Crystalline\Desktop\school\Active_Bike_Lighting_System\Radar_Core\Dave\Generated/CMSIS_DSP\arm_math.h **** #elif defined (ARM_MATH_CM0)
 299:C:\Users\Depes Crystalline\Desktop\school\Active_Bike_Lighting_System\Radar_Core\Dave\Generated/CMSIS_DSP\arm_math.h ****   #include "core_cm0.h"
 300:C:\Users\Depes Crystalline\Desktop\school\Active_Bike_Lighting_System\Radar_Core\Dave\Generated/CMSIS_DSP\arm_math.h **** #define ARM_MATH_CM0_FAMILY
 301:C:\Users\Depes Crystalline\Desktop\school\Active_Bike_Lighting_System\Radar_Core\Dave\Generated/CMSIS_DSP\arm_math.h ****   #elif defined (ARM_MATH_CM0PLUS)
 302:C:\Users\Depes Crystalline\Desktop\school\Active_Bike_Lighting_System\Radar_Core\Dave\Generated/CMSIS_DSP\arm_math.h **** #include "core_cm0plus.h"
 303:C:\Users\Depes Crystalline\Desktop\school\Active_Bike_Lighting_System\Radar_Core\Dave\Generated/CMSIS_DSP\arm_math.h ****   #define ARM_MATH_CM0_FAMILY
 304:C:\Users\Depes Crystalline\Desktop\school\Active_Bike_Lighting_System\Radar_Core\Dave\Generated/CMSIS_DSP\arm_math.h **** #else
 305:C:\Users\Depes Crystalline\Desktop\school\Active_Bike_Lighting_System\Radar_Core\Dave\Generated/CMSIS_DSP\arm_math.h ****   #error "Define according the used Cortex core ARM_MATH_CM7, ARM_MATH_CM4, ARM_MATH_CM3, ARM_MATH_
 306:C:\Users\Depes Crystalline\Desktop\school\Active_Bike_Lighting_System\Radar_Core\Dave\Generated/CMSIS_DSP\arm_math.h **** #endif
 307:C:\Users\Depes Crystalline\Desktop\school\Active_Bike_Lighting_System\Radar_Core\Dave\Generated/CMSIS_DSP\arm_math.h **** 
 308:C:\Users\Depes Crystalline\Desktop\school\Active_Bike_Lighting_System\Radar_Core\Dave\Generated/CMSIS_DSP\arm_math.h **** #undef  __CMSIS_GENERIC         /* enable NVIC and Systick functions */
 309:C:\Users\Depes Crystalline\Desktop\school\Active_Bike_Lighting_System\Radar_Core\Dave\Generated/CMSIS_DSP\arm_math.h **** #include "string.h"
 310:C:\Users\Depes Crystalline\Desktop\school\Active_Bike_Lighting_System\Radar_Core\Dave\Generated/CMSIS_DSP\arm_math.h **** #include "math.h"
 311:C:\Users\Depes Crystalline\Desktop\school\Active_Bike_Lighting_System\Radar_Core\Dave\Generated/CMSIS_DSP\arm_math.h **** #ifdef	__cplusplus
 312:C:\Users\Depes Crystalline\Desktop\school\Active_Bike_Lighting_System\Radar_Core\Dave\Generated/CMSIS_DSP\arm_math.h **** extern "C"
 313:C:\Users\Depes Crystalline\Desktop\school\Active_Bike_Lighting_System\Radar_Core\Dave\Generated/CMSIS_DSP\arm_math.h **** {
 314:C:\Users\Depes Crystalline\Desktop\school\Active_Bike_Lighting_System\Radar_Core\Dave\Generated/CMSIS_DSP\arm_math.h **** #endif
 315:C:\Users\Depes Crystalline\Desktop\school\Active_Bike_Lighting_System\Radar_Core\Dave\Generated/CMSIS_DSP\arm_math.h **** 
 316:C:\Users\Depes Crystalline\Desktop\school\Active_Bike_Lighting_System\Radar_Core\Dave\Generated/CMSIS_DSP\arm_math.h **** 
 317:C:\Users\Depes Crystalline\Desktop\school\Active_Bike_Lighting_System\Radar_Core\Dave\Generated/CMSIS_DSP\arm_math.h ****   /**
 318:C:\Users\Depes Crystalline\Desktop\school\Active_Bike_Lighting_System\Radar_Core\Dave\Generated/CMSIS_DSP\arm_math.h ****    * @brief Macros required for reciprocal calculation in Normalized LMS
 319:C:\Users\Depes Crystalline\Desktop\school\Active_Bike_Lighting_System\Radar_Core\Dave\Generated/CMSIS_DSP\arm_math.h ****    */
 320:C:\Users\Depes Crystalline\Desktop\school\Active_Bike_Lighting_System\Radar_Core\Dave\Generated/CMSIS_DSP\arm_math.h **** 
 321:C:\Users\Depes Crystalline\Desktop\school\Active_Bike_Lighting_System\Radar_Core\Dave\Generated/CMSIS_DSP\arm_math.h **** #define DELTA_Q31 			(0x100)
 322:C:\Users\Depes Crystalline\Desktop\school\Active_Bike_Lighting_System\Radar_Core\Dave\Generated/CMSIS_DSP\arm_math.h **** #define DELTA_Q15 			0x5
 323:C:\Users\Depes Crystalline\Desktop\school\Active_Bike_Lighting_System\Radar_Core\Dave\Generated/CMSIS_DSP\arm_math.h **** #define INDEX_MASK 			0x0000003F
 324:C:\Users\Depes Crystalline\Desktop\school\Active_Bike_Lighting_System\Radar_Core\Dave\Generated/CMSIS_DSP\arm_math.h **** #ifndef PI
 325:C:\Users\Depes Crystalline\Desktop\school\Active_Bike_Lighting_System\Radar_Core\Dave\Generated/CMSIS_DSP\arm_math.h **** #define PI					3.14159265358979f
 326:C:\Users\Depes Crystalline\Desktop\school\Active_Bike_Lighting_System\Radar_Core\Dave\Generated/CMSIS_DSP\arm_math.h **** #endif
 327:C:\Users\Depes Crystalline\Desktop\school\Active_Bike_Lighting_System\Radar_Core\Dave\Generated/CMSIS_DSP\arm_math.h **** 
 328:C:\Users\Depes Crystalline\Desktop\school\Active_Bike_Lighting_System\Radar_Core\Dave\Generated/CMSIS_DSP\arm_math.h ****   /**
 329:C:\Users\Depes Crystalline\Desktop\school\Active_Bike_Lighting_System\Radar_Core\Dave\Generated/CMSIS_DSP\arm_math.h ****    * @brief Macros required for SINE and COSINE Fast math approximations
 330:C:\Users\Depes Crystalline\Desktop\school\Active_Bike_Lighting_System\Radar_Core\Dave\Generated/CMSIS_DSP\arm_math.h ****    */
 331:C:\Users\Depes Crystalline\Desktop\school\Active_Bike_Lighting_System\Radar_Core\Dave\Generated/CMSIS_DSP\arm_math.h **** 
 332:C:\Users\Depes Crystalline\Desktop\school\Active_Bike_Lighting_System\Radar_Core\Dave\Generated/CMSIS_DSP\arm_math.h **** #define FAST_MATH_TABLE_SIZE  512
 333:C:\Users\Depes Crystalline\Desktop\school\Active_Bike_Lighting_System\Radar_Core\Dave\Generated/CMSIS_DSP\arm_math.h **** #define FAST_MATH_Q31_SHIFT   (32 - 10)
 334:C:\Users\Depes Crystalline\Desktop\school\Active_Bike_Lighting_System\Radar_Core\Dave\Generated/CMSIS_DSP\arm_math.h **** #define FAST_MATH_Q15_SHIFT   (16 - 10)
 335:C:\Users\Depes Crystalline\Desktop\school\Active_Bike_Lighting_System\Radar_Core\Dave\Generated/CMSIS_DSP\arm_math.h **** #define CONTROLLER_Q31_SHIFT  (32 - 9)
 336:C:\Users\Depes Crystalline\Desktop\school\Active_Bike_Lighting_System\Radar_Core\Dave\Generated/CMSIS_DSP\arm_math.h **** #define TABLE_SIZE  256
 337:C:\Users\Depes Crystalline\Desktop\school\Active_Bike_Lighting_System\Radar_Core\Dave\Generated/CMSIS_DSP\arm_math.h **** #define TABLE_SPACING_Q31	   0x400000
 338:C:\Users\Depes Crystalline\Desktop\school\Active_Bike_Lighting_System\Radar_Core\Dave\Generated/CMSIS_DSP\arm_math.h **** #define TABLE_SPACING_Q15	   0x80
 339:C:\Users\Depes Crystalline\Desktop\school\Active_Bike_Lighting_System\Radar_Core\Dave\Generated/CMSIS_DSP\arm_math.h **** 
 340:C:\Users\Depes Crystalline\Desktop\school\Active_Bike_Lighting_System\Radar_Core\Dave\Generated/CMSIS_DSP\arm_math.h ****   /**
 341:C:\Users\Depes Crystalline\Desktop\school\Active_Bike_Lighting_System\Radar_Core\Dave\Generated/CMSIS_DSP\arm_math.h ****    * @brief Macros required for SINE and COSINE Controller functions
 342:C:\Users\Depes Crystalline\Desktop\school\Active_Bike_Lighting_System\Radar_Core\Dave\Generated/CMSIS_DSP\arm_math.h ****    */
 343:C:\Users\Depes Crystalline\Desktop\school\Active_Bike_Lighting_System\Radar_Core\Dave\Generated/CMSIS_DSP\arm_math.h ****   /* 1.31(q31) Fixed value of 2/360 */
 344:C:\Users\Depes Crystalline\Desktop\school\Active_Bike_Lighting_System\Radar_Core\Dave\Generated/CMSIS_DSP\arm_math.h ****   /* -1 to +1 is divided into 360 values so total spacing is (2/360) */
 345:C:\Users\Depes Crystalline\Desktop\school\Active_Bike_Lighting_System\Radar_Core\Dave\Generated/CMSIS_DSP\arm_math.h **** #define INPUT_SPACING			0xB60B61
 346:C:\Users\Depes Crystalline\Desktop\school\Active_Bike_Lighting_System\Radar_Core\Dave\Generated/CMSIS_DSP\arm_math.h **** 
 347:C:\Users\Depes Crystalline\Desktop\school\Active_Bike_Lighting_System\Radar_Core\Dave\Generated/CMSIS_DSP\arm_math.h ****   /**
 348:C:\Users\Depes Crystalline\Desktop\school\Active_Bike_Lighting_System\Radar_Core\Dave\Generated/CMSIS_DSP\arm_math.h ****    * @brief Macro for Unaligned Support
 349:C:\Users\Depes Crystalline\Desktop\school\Active_Bike_Lighting_System\Radar_Core\Dave\Generated/CMSIS_DSP\arm_math.h ****    */
 350:C:\Users\Depes Crystalline\Desktop\school\Active_Bike_Lighting_System\Radar_Core\Dave\Generated/CMSIS_DSP\arm_math.h **** #ifndef UNALIGNED_SUPPORT_DISABLE
 351:C:\Users\Depes Crystalline\Desktop\school\Active_Bike_Lighting_System\Radar_Core\Dave\Generated/CMSIS_DSP\arm_math.h ****     #define ALIGN4
 352:C:\Users\Depes Crystalline\Desktop\school\Active_Bike_Lighting_System\Radar_Core\Dave\Generated/CMSIS_DSP\arm_math.h **** #else
 353:C:\Users\Depes Crystalline\Desktop\school\Active_Bike_Lighting_System\Radar_Core\Dave\Generated/CMSIS_DSP\arm_math.h ****   #if defined  (__GNUC__)
 354:C:\Users\Depes Crystalline\Desktop\school\Active_Bike_Lighting_System\Radar_Core\Dave\Generated/CMSIS_DSP\arm_math.h ****     #define ALIGN4 __attribute__((aligned(4)))
 355:C:\Users\Depes Crystalline\Desktop\school\Active_Bike_Lighting_System\Radar_Core\Dave\Generated/CMSIS_DSP\arm_math.h ****   #elif defined  (__ICCARM__)
 356:C:\Users\Depes Crystalline\Desktop\school\Active_Bike_Lighting_System\Radar_Core\Dave\Generated/CMSIS_DSP\arm_math.h ****     #define ALIGN4
 357:C:\Users\Depes Crystalline\Desktop\school\Active_Bike_Lighting_System\Radar_Core\Dave\Generated/CMSIS_DSP\arm_math.h ****   #else
 358:C:\Users\Depes Crystalline\Desktop\school\Active_Bike_Lighting_System\Radar_Core\Dave\Generated/CMSIS_DSP\arm_math.h ****     #define ALIGN4 __align(4)
 359:C:\Users\Depes Crystalline\Desktop\school\Active_Bike_Lighting_System\Radar_Core\Dave\Generated/CMSIS_DSP\arm_math.h ****   #endif
 360:C:\Users\Depes Crystalline\Desktop\school\Active_Bike_Lighting_System\Radar_Core\Dave\Generated/CMSIS_DSP\arm_math.h **** #endif	/*	#ifndef UNALIGNED_SUPPORT_DISABLE	*/
 361:C:\Users\Depes Crystalline\Desktop\school\Active_Bike_Lighting_System\Radar_Core\Dave\Generated/CMSIS_DSP\arm_math.h **** 
 362:C:\Users\Depes Crystalline\Desktop\school\Active_Bike_Lighting_System\Radar_Core\Dave\Generated/CMSIS_DSP\arm_math.h ****   /**
 363:C:\Users\Depes Crystalline\Desktop\school\Active_Bike_Lighting_System\Radar_Core\Dave\Generated/CMSIS_DSP\arm_math.h ****    * @brief Error status returned by some functions in the library.
 364:C:\Users\Depes Crystalline\Desktop\school\Active_Bike_Lighting_System\Radar_Core\Dave\Generated/CMSIS_DSP\arm_math.h ****    */
 365:C:\Users\Depes Crystalline\Desktop\school\Active_Bike_Lighting_System\Radar_Core\Dave\Generated/CMSIS_DSP\arm_math.h **** 
 366:C:\Users\Depes Crystalline\Desktop\school\Active_Bike_Lighting_System\Radar_Core\Dave\Generated/CMSIS_DSP\arm_math.h ****   typedef enum
 367:C:\Users\Depes Crystalline\Desktop\school\Active_Bike_Lighting_System\Radar_Core\Dave\Generated/CMSIS_DSP\arm_math.h ****   {
 368:C:\Users\Depes Crystalline\Desktop\school\Active_Bike_Lighting_System\Radar_Core\Dave\Generated/CMSIS_DSP\arm_math.h ****     ARM_MATH_SUCCESS = 0,                /**< No error */
 369:C:\Users\Depes Crystalline\Desktop\school\Active_Bike_Lighting_System\Radar_Core\Dave\Generated/CMSIS_DSP\arm_math.h ****     ARM_MATH_ARGUMENT_ERROR = -1,        /**< One or more arguments are incorrect */
 370:C:\Users\Depes Crystalline\Desktop\school\Active_Bike_Lighting_System\Radar_Core\Dave\Generated/CMSIS_DSP\arm_math.h ****     ARM_MATH_LENGTH_ERROR = -2,          /**< Length of data buffer is incorrect */
 371:C:\Users\Depes Crystalline\Desktop\school\Active_Bike_Lighting_System\Radar_Core\Dave\Generated/CMSIS_DSP\arm_math.h ****     ARM_MATH_SIZE_MISMATCH = -3,         /**< Size of matrices is not compatible with the operation
 372:C:\Users\Depes Crystalline\Desktop\school\Active_Bike_Lighting_System\Radar_Core\Dave\Generated/CMSIS_DSP\arm_math.h ****     ARM_MATH_NANINF = -4,                /**< Not-a-number (NaN) or infinity is generated */
 373:C:\Users\Depes Crystalline\Desktop\school\Active_Bike_Lighting_System\Radar_Core\Dave\Generated/CMSIS_DSP\arm_math.h ****     ARM_MATH_SINGULAR = -5,              /**< Generated by matrix inversion if the input matrix is 
 374:C:\Users\Depes Crystalline\Desktop\school\Active_Bike_Lighting_System\Radar_Core\Dave\Generated/CMSIS_DSP\arm_math.h ****     ARM_MATH_TEST_FAILURE = -6           /**< Test Failed  */
 375:C:\Users\Depes Crystalline\Desktop\school\Active_Bike_Lighting_System\Radar_Core\Dave\Generated/CMSIS_DSP\arm_math.h ****   } arm_status;
 376:C:\Users\Depes Crystalline\Desktop\school\Active_Bike_Lighting_System\Radar_Core\Dave\Generated/CMSIS_DSP\arm_math.h **** 
 377:C:\Users\Depes Crystalline\Desktop\school\Active_Bike_Lighting_System\Radar_Core\Dave\Generated/CMSIS_DSP\arm_math.h ****   /**
 378:C:\Users\Depes Crystalline\Desktop\school\Active_Bike_Lighting_System\Radar_Core\Dave\Generated/CMSIS_DSP\arm_math.h ****    * @brief 8-bit fractional data type in 1.7 format.
 379:C:\Users\Depes Crystalline\Desktop\school\Active_Bike_Lighting_System\Radar_Core\Dave\Generated/CMSIS_DSP\arm_math.h ****    */
 380:C:\Users\Depes Crystalline\Desktop\school\Active_Bike_Lighting_System\Radar_Core\Dave\Generated/CMSIS_DSP\arm_math.h ****   typedef int8_t q7_t;
 381:C:\Users\Depes Crystalline\Desktop\school\Active_Bike_Lighting_System\Radar_Core\Dave\Generated/CMSIS_DSP\arm_math.h **** 
 382:C:\Users\Depes Crystalline\Desktop\school\Active_Bike_Lighting_System\Radar_Core\Dave\Generated/CMSIS_DSP\arm_math.h ****   /**
 383:C:\Users\Depes Crystalline\Desktop\school\Active_Bike_Lighting_System\Radar_Core\Dave\Generated/CMSIS_DSP\arm_math.h ****    * @brief 16-bit fractional data type in 1.15 format.
 384:C:\Users\Depes Crystalline\Desktop\school\Active_Bike_Lighting_System\Radar_Core\Dave\Generated/CMSIS_DSP\arm_math.h ****    */
 385:C:\Users\Depes Crystalline\Desktop\school\Active_Bike_Lighting_System\Radar_Core\Dave\Generated/CMSIS_DSP\arm_math.h ****   typedef int16_t q15_t;
 386:C:\Users\Depes Crystalline\Desktop\school\Active_Bike_Lighting_System\Radar_Core\Dave\Generated/CMSIS_DSP\arm_math.h **** 
 387:C:\Users\Depes Crystalline\Desktop\school\Active_Bike_Lighting_System\Radar_Core\Dave\Generated/CMSIS_DSP\arm_math.h ****   /**
 388:C:\Users\Depes Crystalline\Desktop\school\Active_Bike_Lighting_System\Radar_Core\Dave\Generated/CMSIS_DSP\arm_math.h ****    * @brief 32-bit fractional data type in 1.31 format.
 389:C:\Users\Depes Crystalline\Desktop\school\Active_Bike_Lighting_System\Radar_Core\Dave\Generated/CMSIS_DSP\arm_math.h ****    */
 390:C:\Users\Depes Crystalline\Desktop\school\Active_Bike_Lighting_System\Radar_Core\Dave\Generated/CMSIS_DSP\arm_math.h ****   typedef int32_t q31_t;
 391:C:\Users\Depes Crystalline\Desktop\school\Active_Bike_Lighting_System\Radar_Core\Dave\Generated/CMSIS_DSP\arm_math.h **** 
 392:C:\Users\Depes Crystalline\Desktop\school\Active_Bike_Lighting_System\Radar_Core\Dave\Generated/CMSIS_DSP\arm_math.h ****   /**
 393:C:\Users\Depes Crystalline\Desktop\school\Active_Bike_Lighting_System\Radar_Core\Dave\Generated/CMSIS_DSP\arm_math.h ****    * @brief 64-bit fractional data type in 1.63 format.
 394:C:\Users\Depes Crystalline\Desktop\school\Active_Bike_Lighting_System\Radar_Core\Dave\Generated/CMSIS_DSP\arm_math.h ****    */
 395:C:\Users\Depes Crystalline\Desktop\school\Active_Bike_Lighting_System\Radar_Core\Dave\Generated/CMSIS_DSP\arm_math.h ****   typedef int64_t q63_t;
 396:C:\Users\Depes Crystalline\Desktop\school\Active_Bike_Lighting_System\Radar_Core\Dave\Generated/CMSIS_DSP\arm_math.h **** 
 397:C:\Users\Depes Crystalline\Desktop\school\Active_Bike_Lighting_System\Radar_Core\Dave\Generated/CMSIS_DSP\arm_math.h ****   /**
 398:C:\Users\Depes Crystalline\Desktop\school\Active_Bike_Lighting_System\Radar_Core\Dave\Generated/CMSIS_DSP\arm_math.h ****    * @brief 32-bit floating-point type definition.
 399:C:\Users\Depes Crystalline\Desktop\school\Active_Bike_Lighting_System\Radar_Core\Dave\Generated/CMSIS_DSP\arm_math.h ****    */
 400:C:\Users\Depes Crystalline\Desktop\school\Active_Bike_Lighting_System\Radar_Core\Dave\Generated/CMSIS_DSP\arm_math.h ****   typedef float float32_t;
 401:C:\Users\Depes Crystalline\Desktop\school\Active_Bike_Lighting_System\Radar_Core\Dave\Generated/CMSIS_DSP\arm_math.h **** 
 402:C:\Users\Depes Crystalline\Desktop\school\Active_Bike_Lighting_System\Radar_Core\Dave\Generated/CMSIS_DSP\arm_math.h ****   /**
 403:C:\Users\Depes Crystalline\Desktop\school\Active_Bike_Lighting_System\Radar_Core\Dave\Generated/CMSIS_DSP\arm_math.h ****    * @brief 64-bit floating-point type definition.
 404:C:\Users\Depes Crystalline\Desktop\school\Active_Bike_Lighting_System\Radar_Core\Dave\Generated/CMSIS_DSP\arm_math.h ****    */
 405:C:\Users\Depes Crystalline\Desktop\school\Active_Bike_Lighting_System\Radar_Core\Dave\Generated/CMSIS_DSP\arm_math.h ****   typedef double float64_t;
 406:C:\Users\Depes Crystalline\Desktop\school\Active_Bike_Lighting_System\Radar_Core\Dave\Generated/CMSIS_DSP\arm_math.h **** 
 407:C:\Users\Depes Crystalline\Desktop\school\Active_Bike_Lighting_System\Radar_Core\Dave\Generated/CMSIS_DSP\arm_math.h ****   /**
 408:C:\Users\Depes Crystalline\Desktop\school\Active_Bike_Lighting_System\Radar_Core\Dave\Generated/CMSIS_DSP\arm_math.h ****    * @brief definition to read/write two 16 bit values.
 409:C:\Users\Depes Crystalline\Desktop\school\Active_Bike_Lighting_System\Radar_Core\Dave\Generated/CMSIS_DSP\arm_math.h ****    */
 410:C:\Users\Depes Crystalline\Desktop\school\Active_Bike_Lighting_System\Radar_Core\Dave\Generated/CMSIS_DSP\arm_math.h **** #if defined __CC_ARM
 411:C:\Users\Depes Crystalline\Desktop\school\Active_Bike_Lighting_System\Radar_Core\Dave\Generated/CMSIS_DSP\arm_math.h **** #define __SIMD32_TYPE int32_t __packed
 412:C:\Users\Depes Crystalline\Desktop\school\Active_Bike_Lighting_System\Radar_Core\Dave\Generated/CMSIS_DSP\arm_math.h **** #define CMSIS_UNUSED __attribute__((unused))
 413:C:\Users\Depes Crystalline\Desktop\school\Active_Bike_Lighting_System\Radar_Core\Dave\Generated/CMSIS_DSP\arm_math.h **** #elif defined __ICCARM__
 414:C:\Users\Depes Crystalline\Desktop\school\Active_Bike_Lighting_System\Radar_Core\Dave\Generated/CMSIS_DSP\arm_math.h **** #define CMSIS_UNUSED
 415:C:\Users\Depes Crystalline\Desktop\school\Active_Bike_Lighting_System\Radar_Core\Dave\Generated/CMSIS_DSP\arm_math.h **** #define __SIMD32_TYPE int32_t __packed
 416:C:\Users\Depes Crystalline\Desktop\school\Active_Bike_Lighting_System\Radar_Core\Dave\Generated/CMSIS_DSP\arm_math.h **** #elif defined __GNUC__
 417:C:\Users\Depes Crystalline\Desktop\school\Active_Bike_Lighting_System\Radar_Core\Dave\Generated/CMSIS_DSP\arm_math.h **** #define __SIMD32_TYPE int32_t
 418:C:\Users\Depes Crystalline\Desktop\school\Active_Bike_Lighting_System\Radar_Core\Dave\Generated/CMSIS_DSP\arm_math.h **** #define CMSIS_UNUSED __attribute__((unused))
 419:C:\Users\Depes Crystalline\Desktop\school\Active_Bike_Lighting_System\Radar_Core\Dave\Generated/CMSIS_DSP\arm_math.h **** #elif defined __CSMC__			/* Cosmic */
 420:C:\Users\Depes Crystalline\Desktop\school\Active_Bike_Lighting_System\Radar_Core\Dave\Generated/CMSIS_DSP\arm_math.h **** #define CMSIS_UNUSED
 421:C:\Users\Depes Crystalline\Desktop\school\Active_Bike_Lighting_System\Radar_Core\Dave\Generated/CMSIS_DSP\arm_math.h **** #define __SIMD32_TYPE int32_t
 422:C:\Users\Depes Crystalline\Desktop\school\Active_Bike_Lighting_System\Radar_Core\Dave\Generated/CMSIS_DSP\arm_math.h **** #else
 423:C:\Users\Depes Crystalline\Desktop\school\Active_Bike_Lighting_System\Radar_Core\Dave\Generated/CMSIS_DSP\arm_math.h **** #error Unknown compiler
 424:C:\Users\Depes Crystalline\Desktop\school\Active_Bike_Lighting_System\Radar_Core\Dave\Generated/CMSIS_DSP\arm_math.h **** #endif
 425:C:\Users\Depes Crystalline\Desktop\school\Active_Bike_Lighting_System\Radar_Core\Dave\Generated/CMSIS_DSP\arm_math.h **** 
 426:C:\Users\Depes Crystalline\Desktop\school\Active_Bike_Lighting_System\Radar_Core\Dave\Generated/CMSIS_DSP\arm_math.h **** #define __SIMD32(addr)  (*(__SIMD32_TYPE **) & (addr))
 427:C:\Users\Depes Crystalline\Desktop\school\Active_Bike_Lighting_System\Radar_Core\Dave\Generated/CMSIS_DSP\arm_math.h **** #define __SIMD32_CONST(addr)  ((__SIMD32_TYPE *)(addr))
 428:C:\Users\Depes Crystalline\Desktop\school\Active_Bike_Lighting_System\Radar_Core\Dave\Generated/CMSIS_DSP\arm_math.h **** 
 429:C:\Users\Depes Crystalline\Desktop\school\Active_Bike_Lighting_System\Radar_Core\Dave\Generated/CMSIS_DSP\arm_math.h **** #define _SIMD32_OFFSET(addr)  (*(__SIMD32_TYPE *)  (addr))
 430:C:\Users\Depes Crystalline\Desktop\school\Active_Bike_Lighting_System\Radar_Core\Dave\Generated/CMSIS_DSP\arm_math.h **** 
 431:C:\Users\Depes Crystalline\Desktop\school\Active_Bike_Lighting_System\Radar_Core\Dave\Generated/CMSIS_DSP\arm_math.h **** #define __SIMD64(addr)  (*(int64_t **) & (addr))
 432:C:\Users\Depes Crystalline\Desktop\school\Active_Bike_Lighting_System\Radar_Core\Dave\Generated/CMSIS_DSP\arm_math.h **** 
 433:C:\Users\Depes Crystalline\Desktop\school\Active_Bike_Lighting_System\Radar_Core\Dave\Generated/CMSIS_DSP\arm_math.h **** #if defined (ARM_MATH_CM3) || defined (ARM_MATH_CM0_FAMILY)
 434:C:\Users\Depes Crystalline\Desktop\school\Active_Bike_Lighting_System\Radar_Core\Dave\Generated/CMSIS_DSP\arm_math.h ****   /**
 435:C:\Users\Depes Crystalline\Desktop\school\Active_Bike_Lighting_System\Radar_Core\Dave\Generated/CMSIS_DSP\arm_math.h ****    * @brief definition to pack two 16 bit values.
 436:C:\Users\Depes Crystalline\Desktop\school\Active_Bike_Lighting_System\Radar_Core\Dave\Generated/CMSIS_DSP\arm_math.h ****    */
 437:C:\Users\Depes Crystalline\Desktop\school\Active_Bike_Lighting_System\Radar_Core\Dave\Generated/CMSIS_DSP\arm_math.h **** #define __PKHBT(ARG1, ARG2, ARG3)      ( (((int32_t)(ARG1) <<  0) & (int32_t)0x0000FFFF) | \
 438:C:\Users\Depes Crystalline\Desktop\school\Active_Bike_Lighting_System\Radar_Core\Dave\Generated/CMSIS_DSP\arm_math.h ****                                          (((int32_t)(ARG2) << ARG3) & (int32_t)0xFFFF0000)  )
 439:C:\Users\Depes Crystalline\Desktop\school\Active_Bike_Lighting_System\Radar_Core\Dave\Generated/CMSIS_DSP\arm_math.h **** #define __PKHTB(ARG1, ARG2, ARG3)      ( (((int32_t)(ARG1) <<  0) & (int32_t)0xFFFF0000) | \
 440:C:\Users\Depes Crystalline\Desktop\school\Active_Bike_Lighting_System\Radar_Core\Dave\Generated/CMSIS_DSP\arm_math.h ****                                          (((int32_t)(ARG2) >> ARG3) & (int32_t)0x0000FFFF)  )
 441:C:\Users\Depes Crystalline\Desktop\school\Active_Bike_Lighting_System\Radar_Core\Dave\Generated/CMSIS_DSP\arm_math.h **** 
 442:C:\Users\Depes Crystalline\Desktop\school\Active_Bike_Lighting_System\Radar_Core\Dave\Generated/CMSIS_DSP\arm_math.h **** #endif
 443:C:\Users\Depes Crystalline\Desktop\school\Active_Bike_Lighting_System\Radar_Core\Dave\Generated/CMSIS_DSP\arm_math.h **** 
 444:C:\Users\Depes Crystalline\Desktop\school\Active_Bike_Lighting_System\Radar_Core\Dave\Generated/CMSIS_DSP\arm_math.h **** 
 445:C:\Users\Depes Crystalline\Desktop\school\Active_Bike_Lighting_System\Radar_Core\Dave\Generated/CMSIS_DSP\arm_math.h ****    /**
 446:C:\Users\Depes Crystalline\Desktop\school\Active_Bike_Lighting_System\Radar_Core\Dave\Generated/CMSIS_DSP\arm_math.h ****    * @brief definition to pack four 8 bit values.
 447:C:\Users\Depes Crystalline\Desktop\school\Active_Bike_Lighting_System\Radar_Core\Dave\Generated/CMSIS_DSP\arm_math.h ****    */
 448:C:\Users\Depes Crystalline\Desktop\school\Active_Bike_Lighting_System\Radar_Core\Dave\Generated/CMSIS_DSP\arm_math.h **** #ifndef ARM_MATH_BIG_ENDIAN
 449:C:\Users\Depes Crystalline\Desktop\school\Active_Bike_Lighting_System\Radar_Core\Dave\Generated/CMSIS_DSP\arm_math.h **** 
 450:C:\Users\Depes Crystalline\Desktop\school\Active_Bike_Lighting_System\Radar_Core\Dave\Generated/CMSIS_DSP\arm_math.h **** #define __PACKq7(v0,v1,v2,v3) ( (((int32_t)(v0) <<  0) & (int32_t)0x000000FF) |	\
 451:C:\Users\Depes Crystalline\Desktop\school\Active_Bike_Lighting_System\Radar_Core\Dave\Generated/CMSIS_DSP\arm_math.h ****                                 (((int32_t)(v1) <<  8) & (int32_t)0x0000FF00) |	\
 452:C:\Users\Depes Crystalline\Desktop\school\Active_Bike_Lighting_System\Radar_Core\Dave\Generated/CMSIS_DSP\arm_math.h **** 							    (((int32_t)(v2) << 16) & (int32_t)0x00FF0000) |	\
 453:C:\Users\Depes Crystalline\Desktop\school\Active_Bike_Lighting_System\Radar_Core\Dave\Generated/CMSIS_DSP\arm_math.h **** 							    (((int32_t)(v3) << 24) & (int32_t)0xFF000000)  )
 454:C:\Users\Depes Crystalline\Desktop\school\Active_Bike_Lighting_System\Radar_Core\Dave\Generated/CMSIS_DSP\arm_math.h **** #else
 455:C:\Users\Depes Crystalline\Desktop\school\Active_Bike_Lighting_System\Radar_Core\Dave\Generated/CMSIS_DSP\arm_math.h **** 
 456:C:\Users\Depes Crystalline\Desktop\school\Active_Bike_Lighting_System\Radar_Core\Dave\Generated/CMSIS_DSP\arm_math.h **** #define __PACKq7(v0,v1,v2,v3) ( (((int32_t)(v3) <<  0) & (int32_t)0x000000FF) |	\
 457:C:\Users\Depes Crystalline\Desktop\school\Active_Bike_Lighting_System\Radar_Core\Dave\Generated/CMSIS_DSP\arm_math.h ****                                 (((int32_t)(v2) <<  8) & (int32_t)0x0000FF00) |	\
 458:C:\Users\Depes Crystalline\Desktop\school\Active_Bike_Lighting_System\Radar_Core\Dave\Generated/CMSIS_DSP\arm_math.h **** 							    (((int32_t)(v1) << 16) & (int32_t)0x00FF0000) |	\
 459:C:\Users\Depes Crystalline\Desktop\school\Active_Bike_Lighting_System\Radar_Core\Dave\Generated/CMSIS_DSP\arm_math.h **** 							    (((int32_t)(v0) << 24) & (int32_t)0xFF000000)  )
 460:C:\Users\Depes Crystalline\Desktop\school\Active_Bike_Lighting_System\Radar_Core\Dave\Generated/CMSIS_DSP\arm_math.h **** 
 461:C:\Users\Depes Crystalline\Desktop\school\Active_Bike_Lighting_System\Radar_Core\Dave\Generated/CMSIS_DSP\arm_math.h **** #endif
 462:C:\Users\Depes Crystalline\Desktop\school\Active_Bike_Lighting_System\Radar_Core\Dave\Generated/CMSIS_DSP\arm_math.h **** 
 463:C:\Users\Depes Crystalline\Desktop\school\Active_Bike_Lighting_System\Radar_Core\Dave\Generated/CMSIS_DSP\arm_math.h **** 
 464:C:\Users\Depes Crystalline\Desktop\school\Active_Bike_Lighting_System\Radar_Core\Dave\Generated/CMSIS_DSP\arm_math.h ****   /**
 465:C:\Users\Depes Crystalline\Desktop\school\Active_Bike_Lighting_System\Radar_Core\Dave\Generated/CMSIS_DSP\arm_math.h ****    * @brief Clips Q63 to Q31 values.
 466:C:\Users\Depes Crystalline\Desktop\school\Active_Bike_Lighting_System\Radar_Core\Dave\Generated/CMSIS_DSP\arm_math.h ****    */
 467:C:\Users\Depes Crystalline\Desktop\school\Active_Bike_Lighting_System\Radar_Core\Dave\Generated/CMSIS_DSP\arm_math.h ****   static __INLINE q31_t clip_q63_to_q31(
 468:C:\Users\Depes Crystalline\Desktop\school\Active_Bike_Lighting_System\Radar_Core\Dave\Generated/CMSIS_DSP\arm_math.h ****   q63_t x)
 469:C:\Users\Depes Crystalline\Desktop\school\Active_Bike_Lighting_System\Radar_Core\Dave\Generated/CMSIS_DSP\arm_math.h ****   {
  26              	 .loc 1 469 0
  27              	 .cfi_startproc
  28              	 
  29              	 
  30              	 
  31 0000 2DE9B003 	 push {r4,r5,r7,r8,r9}
  32              	.LCFI0:
  33              	 .cfi_def_cfa_offset 20
  34              	 .cfi_offset 4,-20
  35              	 .cfi_offset 5,-16
  36              	 .cfi_offset 7,-12
  37              	 .cfi_offset 8,-8
  38              	 .cfi_offset 9,-4
  39 0004 83B0     	 sub sp,sp,#12
  40              	.LCFI1:
  41              	 .cfi_def_cfa_offset 32
  42 0006 00AF     	 add r7,sp,#0
  43              	.LCFI2:
  44              	 .cfi_def_cfa_register 7
  45 0008 C7E90001 	 strd r0,[r7]
 470:C:\Users\Depes Crystalline\Desktop\school\Active_Bike_Lighting_System\Radar_Core\Dave\Generated/CMSIS_DSP\arm_math.h ****     return ((q31_t) (x >> 32) != ((q31_t) x >> 31)) ?
  46              	 .loc 1 470 0
  47 000c D7E90023 	 ldrd r2,[r7]
  48 0010 9846     	 mov r8,r3
  49 0012 4FEAE379 	 asr r9,r3,#31
  50 0016 4246     	 mov r2,r8
  51 0018 3B68     	 ldr r3,[r7]
  52 001a DB17     	 asrs r3,r3,#31
 471:C:\Users\Depes Crystalline\Desktop\school\Active_Bike_Lighting_System\Radar_Core\Dave\Generated/CMSIS_DSP\arm_math.h ****       ((0x7FFFFFFF ^ ((q31_t) (x >> 63)))) : (q31_t) x;
  53              	 .loc 1 471 0
  54 001c 9A42     	 cmp r2,r3
  55 001e 08D0     	 beq .L2
  56              	 .loc 1 471 0 is_stmt 0 discriminator 1
  57 0020 D7E90023 	 ldrd r2,[r7]
  58 0024 DC17     	 asrs r4,r3,#31
  59 0026 DD17     	 asrs r5,r3,#31
  60 0028 2346     	 mov r3,r4
  61 002a 83F00043 	 eor r3,r3,#-2147483648
  62 002e DB43     	 mvns r3,r3
  63 0030 00E0     	 b .L3
  64              	.L2:
  65              	 .loc 1 471 0 discriminator 2
  66 0032 3B68     	 ldr r3,[r7]
  67              	.L3:
 472:C:\Users\Depes Crystalline\Desktop\school\Active_Bike_Lighting_System\Radar_Core\Dave\Generated/CMSIS_DSP\arm_math.h ****   }
  68              	 .loc 1 472 0 is_stmt 1
  69 0034 1846     	 mov r0,r3
  70 0036 0C37     	 adds r7,r7,#12
  71              	.LCFI3:
  72              	 .cfi_def_cfa_offset 20
  73 0038 BD46     	 mov sp,r7
  74              	.LCFI4:
  75              	 .cfi_def_cfa_register 13
  76              	 
  77 003a BDE8B003 	 pop {r4,r5,r7,r8,r9}
  78              	.LCFI5:
  79              	 .cfi_restore 9
  80              	 .cfi_restore 8
  81              	 .cfi_restore 7
  82              	 .cfi_restore 5
  83              	 .cfi_restore 4
  84              	 .cfi_def_cfa_offset 0
  85 003e 7047     	 bx lr
  86              	 .cfi_endproc
  87              	.LFE106:
  89              	 .section .text.arm_recip_q31,"ax",%progbits
  90              	 .align 2
  91              	 .thumb
  92              	 .thumb_func
  94              	arm_recip_q31:
  95              	.LFB111:
 473:C:\Users\Depes Crystalline\Desktop\school\Active_Bike_Lighting_System\Radar_Core\Dave\Generated/CMSIS_DSP\arm_math.h **** 
 474:C:\Users\Depes Crystalline\Desktop\school\Active_Bike_Lighting_System\Radar_Core\Dave\Generated/CMSIS_DSP\arm_math.h ****   /**
 475:C:\Users\Depes Crystalline\Desktop\school\Active_Bike_Lighting_System\Radar_Core\Dave\Generated/CMSIS_DSP\arm_math.h ****    * @brief Clips Q63 to Q15 values.
 476:C:\Users\Depes Crystalline\Desktop\school\Active_Bike_Lighting_System\Radar_Core\Dave\Generated/CMSIS_DSP\arm_math.h ****    */
 477:C:\Users\Depes Crystalline\Desktop\school\Active_Bike_Lighting_System\Radar_Core\Dave\Generated/CMSIS_DSP\arm_math.h ****   static __INLINE q15_t clip_q63_to_q15(
 478:C:\Users\Depes Crystalline\Desktop\school\Active_Bike_Lighting_System\Radar_Core\Dave\Generated/CMSIS_DSP\arm_math.h ****   q63_t x)
 479:C:\Users\Depes Crystalline\Desktop\school\Active_Bike_Lighting_System\Radar_Core\Dave\Generated/CMSIS_DSP\arm_math.h ****   {
 480:C:\Users\Depes Crystalline\Desktop\school\Active_Bike_Lighting_System\Radar_Core\Dave\Generated/CMSIS_DSP\arm_math.h ****     return ((q31_t) (x >> 32) != ((q31_t) x >> 31)) ?
 481:C:\Users\Depes Crystalline\Desktop\school\Active_Bike_Lighting_System\Radar_Core\Dave\Generated/CMSIS_DSP\arm_math.h ****       ((0x7FFF ^ ((q15_t) (x >> 63)))) : (q15_t) (x >> 15);
 482:C:\Users\Depes Crystalline\Desktop\school\Active_Bike_Lighting_System\Radar_Core\Dave\Generated/CMSIS_DSP\arm_math.h ****   }
 483:C:\Users\Depes Crystalline\Desktop\school\Active_Bike_Lighting_System\Radar_Core\Dave\Generated/CMSIS_DSP\arm_math.h **** 
 484:C:\Users\Depes Crystalline\Desktop\school\Active_Bike_Lighting_System\Radar_Core\Dave\Generated/CMSIS_DSP\arm_math.h ****   /**
 485:C:\Users\Depes Crystalline\Desktop\school\Active_Bike_Lighting_System\Radar_Core\Dave\Generated/CMSIS_DSP\arm_math.h ****    * @brief Clips Q31 to Q7 values.
 486:C:\Users\Depes Crystalline\Desktop\school\Active_Bike_Lighting_System\Radar_Core\Dave\Generated/CMSIS_DSP\arm_math.h ****    */
 487:C:\Users\Depes Crystalline\Desktop\school\Active_Bike_Lighting_System\Radar_Core\Dave\Generated/CMSIS_DSP\arm_math.h ****   static __INLINE q7_t clip_q31_to_q7(
 488:C:\Users\Depes Crystalline\Desktop\school\Active_Bike_Lighting_System\Radar_Core\Dave\Generated/CMSIS_DSP\arm_math.h ****   q31_t x)
 489:C:\Users\Depes Crystalline\Desktop\school\Active_Bike_Lighting_System\Radar_Core\Dave\Generated/CMSIS_DSP\arm_math.h ****   {
 490:C:\Users\Depes Crystalline\Desktop\school\Active_Bike_Lighting_System\Radar_Core\Dave\Generated/CMSIS_DSP\arm_math.h ****     return ((q31_t) (x >> 24) != ((q31_t) x >> 23)) ?
 491:C:\Users\Depes Crystalline\Desktop\school\Active_Bike_Lighting_System\Radar_Core\Dave\Generated/CMSIS_DSP\arm_math.h ****       ((0x7F ^ ((q7_t) (x >> 31)))) : (q7_t) x;
 492:C:\Users\Depes Crystalline\Desktop\school\Active_Bike_Lighting_System\Radar_Core\Dave\Generated/CMSIS_DSP\arm_math.h ****   }
 493:C:\Users\Depes Crystalline\Desktop\school\Active_Bike_Lighting_System\Radar_Core\Dave\Generated/CMSIS_DSP\arm_math.h **** 
 494:C:\Users\Depes Crystalline\Desktop\school\Active_Bike_Lighting_System\Radar_Core\Dave\Generated/CMSIS_DSP\arm_math.h ****   /**
 495:C:\Users\Depes Crystalline\Desktop\school\Active_Bike_Lighting_System\Radar_Core\Dave\Generated/CMSIS_DSP\arm_math.h ****    * @brief Clips Q31 to Q15 values.
 496:C:\Users\Depes Crystalline\Desktop\school\Active_Bike_Lighting_System\Radar_Core\Dave\Generated/CMSIS_DSP\arm_math.h ****    */
 497:C:\Users\Depes Crystalline\Desktop\school\Active_Bike_Lighting_System\Radar_Core\Dave\Generated/CMSIS_DSP\arm_math.h ****   static __INLINE q15_t clip_q31_to_q15(
 498:C:\Users\Depes Crystalline\Desktop\school\Active_Bike_Lighting_System\Radar_Core\Dave\Generated/CMSIS_DSP\arm_math.h ****   q31_t x)
 499:C:\Users\Depes Crystalline\Desktop\school\Active_Bike_Lighting_System\Radar_Core\Dave\Generated/CMSIS_DSP\arm_math.h ****   {
 500:C:\Users\Depes Crystalline\Desktop\school\Active_Bike_Lighting_System\Radar_Core\Dave\Generated/CMSIS_DSP\arm_math.h ****     return ((q31_t) (x >> 16) != ((q31_t) x >> 15)) ?
 501:C:\Users\Depes Crystalline\Desktop\school\Active_Bike_Lighting_System\Radar_Core\Dave\Generated/CMSIS_DSP\arm_math.h ****       ((0x7FFF ^ ((q15_t) (x >> 31)))) : (q15_t) x;
 502:C:\Users\Depes Crystalline\Desktop\school\Active_Bike_Lighting_System\Radar_Core\Dave\Generated/CMSIS_DSP\arm_math.h ****   }
 503:C:\Users\Depes Crystalline\Desktop\school\Active_Bike_Lighting_System\Radar_Core\Dave\Generated/CMSIS_DSP\arm_math.h **** 
 504:C:\Users\Depes Crystalline\Desktop\school\Active_Bike_Lighting_System\Radar_Core\Dave\Generated/CMSIS_DSP\arm_math.h ****   /**
 505:C:\Users\Depes Crystalline\Desktop\school\Active_Bike_Lighting_System\Radar_Core\Dave\Generated/CMSIS_DSP\arm_math.h ****    * @brief Multiplies 32 X 64 and returns 32 bit result in 2.30 format.
 506:C:\Users\Depes Crystalline\Desktop\school\Active_Bike_Lighting_System\Radar_Core\Dave\Generated/CMSIS_DSP\arm_math.h ****    */
 507:C:\Users\Depes Crystalline\Desktop\school\Active_Bike_Lighting_System\Radar_Core\Dave\Generated/CMSIS_DSP\arm_math.h **** 
 508:C:\Users\Depes Crystalline\Desktop\school\Active_Bike_Lighting_System\Radar_Core\Dave\Generated/CMSIS_DSP\arm_math.h ****   static __INLINE q63_t mult32x64(
 509:C:\Users\Depes Crystalline\Desktop\school\Active_Bike_Lighting_System\Radar_Core\Dave\Generated/CMSIS_DSP\arm_math.h ****   q63_t x,
 510:C:\Users\Depes Crystalline\Desktop\school\Active_Bike_Lighting_System\Radar_Core\Dave\Generated/CMSIS_DSP\arm_math.h ****   q31_t y)
 511:C:\Users\Depes Crystalline\Desktop\school\Active_Bike_Lighting_System\Radar_Core\Dave\Generated/CMSIS_DSP\arm_math.h ****   {
 512:C:\Users\Depes Crystalline\Desktop\school\Active_Bike_Lighting_System\Radar_Core\Dave\Generated/CMSIS_DSP\arm_math.h ****     return ((((q63_t) (x & 0x00000000FFFFFFFF) * y) >> 32) +
 513:C:\Users\Depes Crystalline\Desktop\school\Active_Bike_Lighting_System\Radar_Core\Dave\Generated/CMSIS_DSP\arm_math.h ****             (((q63_t) (x >> 32) * y)));
 514:C:\Users\Depes Crystalline\Desktop\school\Active_Bike_Lighting_System\Radar_Core\Dave\Generated/CMSIS_DSP\arm_math.h ****   }
 515:C:\Users\Depes Crystalline\Desktop\school\Active_Bike_Lighting_System\Radar_Core\Dave\Generated/CMSIS_DSP\arm_math.h **** 
 516:C:\Users\Depes Crystalline\Desktop\school\Active_Bike_Lighting_System\Radar_Core\Dave\Generated/CMSIS_DSP\arm_math.h **** 
 517:C:\Users\Depes Crystalline\Desktop\school\Active_Bike_Lighting_System\Radar_Core\Dave\Generated/CMSIS_DSP\arm_math.h **** #if defined (ARM_MATH_CM0_FAMILY) && defined ( __CC_ARM   )
 518:C:\Users\Depes Crystalline\Desktop\school\Active_Bike_Lighting_System\Radar_Core\Dave\Generated/CMSIS_DSP\arm_math.h **** #define __CLZ __clz
 519:C:\Users\Depes Crystalline\Desktop\school\Active_Bike_Lighting_System\Radar_Core\Dave\Generated/CMSIS_DSP\arm_math.h **** #endif
 520:C:\Users\Depes Crystalline\Desktop\school\Active_Bike_Lighting_System\Radar_Core\Dave\Generated/CMSIS_DSP\arm_math.h **** 
 521:C:\Users\Depes Crystalline\Desktop\school\Active_Bike_Lighting_System\Radar_Core\Dave\Generated/CMSIS_DSP\arm_math.h **** #if defined (ARM_MATH_CM0_FAMILY) && ((defined (__ICCARM__)) ||(defined (__GNUC__)) || defined (__T
 522:C:\Users\Depes Crystalline\Desktop\school\Active_Bike_Lighting_System\Radar_Core\Dave\Generated/CMSIS_DSP\arm_math.h **** 
 523:C:\Users\Depes Crystalline\Desktop\school\Active_Bike_Lighting_System\Radar_Core\Dave\Generated/CMSIS_DSP\arm_math.h ****   static __INLINE uint32_t __CLZ(
 524:C:\Users\Depes Crystalline\Desktop\school\Active_Bike_Lighting_System\Radar_Core\Dave\Generated/CMSIS_DSP\arm_math.h ****   q31_t data);
 525:C:\Users\Depes Crystalline\Desktop\school\Active_Bike_Lighting_System\Radar_Core\Dave\Generated/CMSIS_DSP\arm_math.h **** 
 526:C:\Users\Depes Crystalline\Desktop\school\Active_Bike_Lighting_System\Radar_Core\Dave\Generated/CMSIS_DSP\arm_math.h **** 
 527:C:\Users\Depes Crystalline\Desktop\school\Active_Bike_Lighting_System\Radar_Core\Dave\Generated/CMSIS_DSP\arm_math.h ****   static __INLINE uint32_t __CLZ(
 528:C:\Users\Depes Crystalline\Desktop\school\Active_Bike_Lighting_System\Radar_Core\Dave\Generated/CMSIS_DSP\arm_math.h ****   q31_t data)
 529:C:\Users\Depes Crystalline\Desktop\school\Active_Bike_Lighting_System\Radar_Core\Dave\Generated/CMSIS_DSP\arm_math.h ****   {
 530:C:\Users\Depes Crystalline\Desktop\school\Active_Bike_Lighting_System\Radar_Core\Dave\Generated/CMSIS_DSP\arm_math.h ****     uint32_t count = 0;
 531:C:\Users\Depes Crystalline\Desktop\school\Active_Bike_Lighting_System\Radar_Core\Dave\Generated/CMSIS_DSP\arm_math.h ****     uint32_t mask = 0x80000000;
 532:C:\Users\Depes Crystalline\Desktop\school\Active_Bike_Lighting_System\Radar_Core\Dave\Generated/CMSIS_DSP\arm_math.h **** 
 533:C:\Users\Depes Crystalline\Desktop\school\Active_Bike_Lighting_System\Radar_Core\Dave\Generated/CMSIS_DSP\arm_math.h ****     while((data & mask) == 0)
 534:C:\Users\Depes Crystalline\Desktop\school\Active_Bike_Lighting_System\Radar_Core\Dave\Generated/CMSIS_DSP\arm_math.h ****     {
 535:C:\Users\Depes Crystalline\Desktop\school\Active_Bike_Lighting_System\Radar_Core\Dave\Generated/CMSIS_DSP\arm_math.h ****       count += 1u;
 536:C:\Users\Depes Crystalline\Desktop\school\Active_Bike_Lighting_System\Radar_Core\Dave\Generated/CMSIS_DSP\arm_math.h ****       mask = mask >> 1u;
 537:C:\Users\Depes Crystalline\Desktop\school\Active_Bike_Lighting_System\Radar_Core\Dave\Generated/CMSIS_DSP\arm_math.h ****     }
 538:C:\Users\Depes Crystalline\Desktop\school\Active_Bike_Lighting_System\Radar_Core\Dave\Generated/CMSIS_DSP\arm_math.h **** 
 539:C:\Users\Depes Crystalline\Desktop\school\Active_Bike_Lighting_System\Radar_Core\Dave\Generated/CMSIS_DSP\arm_math.h ****     return (count);
 540:C:\Users\Depes Crystalline\Desktop\school\Active_Bike_Lighting_System\Radar_Core\Dave\Generated/CMSIS_DSP\arm_math.h **** 
 541:C:\Users\Depes Crystalline\Desktop\school\Active_Bike_Lighting_System\Radar_Core\Dave\Generated/CMSIS_DSP\arm_math.h ****   }
 542:C:\Users\Depes Crystalline\Desktop\school\Active_Bike_Lighting_System\Radar_Core\Dave\Generated/CMSIS_DSP\arm_math.h **** 
 543:C:\Users\Depes Crystalline\Desktop\school\Active_Bike_Lighting_System\Radar_Core\Dave\Generated/CMSIS_DSP\arm_math.h **** #endif
 544:C:\Users\Depes Crystalline\Desktop\school\Active_Bike_Lighting_System\Radar_Core\Dave\Generated/CMSIS_DSP\arm_math.h **** 
 545:C:\Users\Depes Crystalline\Desktop\school\Active_Bike_Lighting_System\Radar_Core\Dave\Generated/CMSIS_DSP\arm_math.h ****   /**
 546:C:\Users\Depes Crystalline\Desktop\school\Active_Bike_Lighting_System\Radar_Core\Dave\Generated/CMSIS_DSP\arm_math.h ****    * @brief Function to Calculates 1/in (reciprocal) value of Q31 Data type.
 547:C:\Users\Depes Crystalline\Desktop\school\Active_Bike_Lighting_System\Radar_Core\Dave\Generated/CMSIS_DSP\arm_math.h ****    */
 548:C:\Users\Depes Crystalline\Desktop\school\Active_Bike_Lighting_System\Radar_Core\Dave\Generated/CMSIS_DSP\arm_math.h **** 
 549:C:\Users\Depes Crystalline\Desktop\school\Active_Bike_Lighting_System\Radar_Core\Dave\Generated/CMSIS_DSP\arm_math.h ****   static __INLINE uint32_t arm_recip_q31(
 550:C:\Users\Depes Crystalline\Desktop\school\Active_Bike_Lighting_System\Radar_Core\Dave\Generated/CMSIS_DSP\arm_math.h ****   q31_t in,
 551:C:\Users\Depes Crystalline\Desktop\school\Active_Bike_Lighting_System\Radar_Core\Dave\Generated/CMSIS_DSP\arm_math.h ****   q31_t * dst,
 552:C:\Users\Depes Crystalline\Desktop\school\Active_Bike_Lighting_System\Radar_Core\Dave\Generated/CMSIS_DSP\arm_math.h ****   q31_t * pRecipTable)
 553:C:\Users\Depes Crystalline\Desktop\school\Active_Bike_Lighting_System\Radar_Core\Dave\Generated/CMSIS_DSP\arm_math.h ****   {
  96              	 .loc 1 553 0
  97              	 .cfi_startproc
  98              	 
  99              	 
 100 0000 2DE9F043 	 push {r4,r5,r6,r7,r8,r9,lr}
 101              	.LCFI6:
 102              	 .cfi_def_cfa_offset 28
 103              	 .cfi_offset 4,-28
 104              	 .cfi_offset 5,-24
 105              	 .cfi_offset 6,-20
 106              	 .cfi_offset 7,-16
 107              	 .cfi_offset 8,-12
 108              	 .cfi_offset 9,-8
 109              	 .cfi_offset 14,-4
 110 0004 8FB0     	 sub sp,sp,#60
 111              	.LCFI7:
 112              	 .cfi_def_cfa_offset 88
 113 0006 00AF     	 add r7,sp,#0
 114              	.LCFI8:
 115              	 .cfi_def_cfa_register 7
 116 0008 F860     	 str r0,[r7,#12]
 117 000a B960     	 str r1,[r7,#8]
 118 000c 7A60     	 str r2,[r7,#4]
 554:C:\Users\Depes Crystalline\Desktop\school\Active_Bike_Lighting_System\Radar_Core\Dave\Generated/CMSIS_DSP\arm_math.h **** 
 555:C:\Users\Depes Crystalline\Desktop\school\Active_Bike_Lighting_System\Radar_Core\Dave\Generated/CMSIS_DSP\arm_math.h ****     uint32_t out, tempVal;
 556:C:\Users\Depes Crystalline\Desktop\school\Active_Bike_Lighting_System\Radar_Core\Dave\Generated/CMSIS_DSP\arm_math.h ****     uint32_t index, i;
 557:C:\Users\Depes Crystalline\Desktop\school\Active_Bike_Lighting_System\Radar_Core\Dave\Generated/CMSIS_DSP\arm_math.h ****     uint32_t signBits;
 558:C:\Users\Depes Crystalline\Desktop\school\Active_Bike_Lighting_System\Radar_Core\Dave\Generated/CMSIS_DSP\arm_math.h **** 
 559:C:\Users\Depes Crystalline\Desktop\school\Active_Bike_Lighting_System\Radar_Core\Dave\Generated/CMSIS_DSP\arm_math.h ****     if(in > 0)
 119              	 .loc 1 559 0
 120 000e FB68     	 ldr r3,[r7,#12]
 121 0010 002B     	 cmp r3,#0
 122 0012 0ADD     	 ble .L6
 560:C:\Users\Depes Crystalline\Desktop\school\Active_Bike_Lighting_System\Radar_Core\Dave\Generated/CMSIS_DSP\arm_math.h ****     {
 561:C:\Users\Depes Crystalline\Desktop\school\Active_Bike_Lighting_System\Radar_Core\Dave\Generated/CMSIS_DSP\arm_math.h ****       signBits = __CLZ(in) - 1;
 123              	 .loc 1 561 0
 124 0014 FB68     	 ldr r3,[r7,#12]
 125 0016 3B62     	 str r3,[r7,#32]
 126              	.LBB6:
 127              	.LBB7:
 128              	 .file 2 "C:\\Users\\Depes Crystalline\\Desktop\\school\\Active_Bike_Lighting_System\\Radar_Core/Libraries/CMSIS/Include/core_cmInstr.h"
   1:C:\Users\Depes Crystalline\Desktop\school\Active_Bike_Lighting_System\Radar_Core/Libraries/CMSIS/Include\core_cmInstr.h **** /**************************************************************************//**
   2:C:\Users\Depes Crystalline\Desktop\school\Active_Bike_Lighting_System\Radar_Core/Libraries/CMSIS/Include\core_cmInstr.h ****  * @file     core_cmInstr.h
   3:C:\Users\Depes Crystalline\Desktop\school\Active_Bike_Lighting_System\Radar_Core/Libraries/CMSIS/Include\core_cmInstr.h ****  * @brief    CMSIS Cortex-M Core Instruction Access Header File
   4:C:\Users\Depes Crystalline\Desktop\school\Active_Bike_Lighting_System\Radar_Core/Libraries/CMSIS/Include\core_cmInstr.h ****  * @version  V4.00
   5:C:\Users\Depes Crystalline\Desktop\school\Active_Bike_Lighting_System\Radar_Core/Libraries/CMSIS/Include\core_cmInstr.h ****  * @date     28. August 2014
   6:C:\Users\Depes Crystalline\Desktop\school\Active_Bike_Lighting_System\Radar_Core/Libraries/CMSIS/Include\core_cmInstr.h ****  *
   7:C:\Users\Depes Crystalline\Desktop\school\Active_Bike_Lighting_System\Radar_Core/Libraries/CMSIS/Include\core_cmInstr.h ****  * @note
   8:C:\Users\Depes Crystalline\Desktop\school\Active_Bike_Lighting_System\Radar_Core/Libraries/CMSIS/Include\core_cmInstr.h ****  *
   9:C:\Users\Depes Crystalline\Desktop\school\Active_Bike_Lighting_System\Radar_Core/Libraries/CMSIS/Include\core_cmInstr.h ****  ******************************************************************************/
  10:C:\Users\Depes Crystalline\Desktop\school\Active_Bike_Lighting_System\Radar_Core/Libraries/CMSIS/Include\core_cmInstr.h **** /* Copyright (c) 2009 - 2014 ARM LIMITED
  11:C:\Users\Depes Crystalline\Desktop\school\Active_Bike_Lighting_System\Radar_Core/Libraries/CMSIS/Include\core_cmInstr.h **** 
  12:C:\Users\Depes Crystalline\Desktop\school\Active_Bike_Lighting_System\Radar_Core/Libraries/CMSIS/Include\core_cmInstr.h ****    All rights reserved.
  13:C:\Users\Depes Crystalline\Desktop\school\Active_Bike_Lighting_System\Radar_Core/Libraries/CMSIS/Include\core_cmInstr.h ****    Redistribution and use in source and binary forms, with or without
  14:C:\Users\Depes Crystalline\Desktop\school\Active_Bike_Lighting_System\Radar_Core/Libraries/CMSIS/Include\core_cmInstr.h ****    modification, are permitted provided that the following conditions are met:
  15:C:\Users\Depes Crystalline\Desktop\school\Active_Bike_Lighting_System\Radar_Core/Libraries/CMSIS/Include\core_cmInstr.h ****    - Redistributions of source code must retain the above copyright
  16:C:\Users\Depes Crystalline\Desktop\school\Active_Bike_Lighting_System\Radar_Core/Libraries/CMSIS/Include\core_cmInstr.h ****      notice, this list of conditions and the following disclaimer.
  17:C:\Users\Depes Crystalline\Desktop\school\Active_Bike_Lighting_System\Radar_Core/Libraries/CMSIS/Include\core_cmInstr.h ****    - Redistributions in binary form must reproduce the above copyright
  18:C:\Users\Depes Crystalline\Desktop\school\Active_Bike_Lighting_System\Radar_Core/Libraries/CMSIS/Include\core_cmInstr.h ****      notice, this list of conditions and the following disclaimer in the
  19:C:\Users\Depes Crystalline\Desktop\school\Active_Bike_Lighting_System\Radar_Core/Libraries/CMSIS/Include\core_cmInstr.h ****      documentation and/or other materials provided with the distribution.
  20:C:\Users\Depes Crystalline\Desktop\school\Active_Bike_Lighting_System\Radar_Core/Libraries/CMSIS/Include\core_cmInstr.h ****    - Neither the name of ARM nor the names of its contributors may be used
  21:C:\Users\Depes Crystalline\Desktop\school\Active_Bike_Lighting_System\Radar_Core/Libraries/CMSIS/Include\core_cmInstr.h ****      to endorse or promote products derived from this software without
  22:C:\Users\Depes Crystalline\Desktop\school\Active_Bike_Lighting_System\Radar_Core/Libraries/CMSIS/Include\core_cmInstr.h ****      specific prior written permission.
  23:C:\Users\Depes Crystalline\Desktop\school\Active_Bike_Lighting_System\Radar_Core/Libraries/CMSIS/Include\core_cmInstr.h ****    *
  24:C:\Users\Depes Crystalline\Desktop\school\Active_Bike_Lighting_System\Radar_Core/Libraries/CMSIS/Include\core_cmInstr.h ****    THIS SOFTWARE IS PROVIDED BY THE COPYRIGHT HOLDERS AND CONTRIBUTORS "AS IS"
  25:C:\Users\Depes Crystalline\Desktop\school\Active_Bike_Lighting_System\Radar_Core/Libraries/CMSIS/Include\core_cmInstr.h ****    AND ANY EXPRESS OR IMPLIED WARRANTIES, INCLUDING, BUT NOT LIMITED TO, THE
  26:C:\Users\Depes Crystalline\Desktop\school\Active_Bike_Lighting_System\Radar_Core/Libraries/CMSIS/Include\core_cmInstr.h ****    IMPLIED WARRANTIES OF MERCHANTABILITY AND FITNESS FOR A PARTICULAR PURPOSE
  27:C:\Users\Depes Crystalline\Desktop\school\Active_Bike_Lighting_System\Radar_Core/Libraries/CMSIS/Include\core_cmInstr.h ****    ARE DISCLAIMED. IN NO EVENT SHALL COPYRIGHT HOLDERS AND CONTRIBUTORS BE
  28:C:\Users\Depes Crystalline\Desktop\school\Active_Bike_Lighting_System\Radar_Core/Libraries/CMSIS/Include\core_cmInstr.h ****    LIABLE FOR ANY DIRECT, INDIRECT, INCIDENTAL, SPECIAL, EXEMPLARY, OR
  29:C:\Users\Depes Crystalline\Desktop\school\Active_Bike_Lighting_System\Radar_Core/Libraries/CMSIS/Include\core_cmInstr.h ****    CONSEQUENTIAL DAMAGES (INCLUDING, BUT NOT LIMITED TO, PROCUREMENT OF
  30:C:\Users\Depes Crystalline\Desktop\school\Active_Bike_Lighting_System\Radar_Core/Libraries/CMSIS/Include\core_cmInstr.h ****    SUBSTITUTE GOODS OR SERVICES; LOSS OF USE, DATA, OR PROFITS; OR BUSINESS
  31:C:\Users\Depes Crystalline\Desktop\school\Active_Bike_Lighting_System\Radar_Core/Libraries/CMSIS/Include\core_cmInstr.h ****    INTERRUPTION) HOWEVER CAUSED AND ON ANY THEORY OF LIABILITY, WHETHER IN
  32:C:\Users\Depes Crystalline\Desktop\school\Active_Bike_Lighting_System\Radar_Core/Libraries/CMSIS/Include\core_cmInstr.h ****    CONTRACT, STRICT LIABILITY, OR TORT (INCLUDING NEGLIGENCE OR OTHERWISE)
  33:C:\Users\Depes Crystalline\Desktop\school\Active_Bike_Lighting_System\Radar_Core/Libraries/CMSIS/Include\core_cmInstr.h ****    ARISING IN ANY WAY OUT OF THE USE OF THIS SOFTWARE, EVEN IF ADVISED OF THE
  34:C:\Users\Depes Crystalline\Desktop\school\Active_Bike_Lighting_System\Radar_Core/Libraries/CMSIS/Include\core_cmInstr.h ****    POSSIBILITY OF SUCH DAMAGE.
  35:C:\Users\Depes Crystalline\Desktop\school\Active_Bike_Lighting_System\Radar_Core/Libraries/CMSIS/Include\core_cmInstr.h ****    ---------------------------------------------------------------------------*/
  36:C:\Users\Depes Crystalline\Desktop\school\Active_Bike_Lighting_System\Radar_Core/Libraries/CMSIS/Include\core_cmInstr.h **** 
  37:C:\Users\Depes Crystalline\Desktop\school\Active_Bike_Lighting_System\Radar_Core/Libraries/CMSIS/Include\core_cmInstr.h **** 
  38:C:\Users\Depes Crystalline\Desktop\school\Active_Bike_Lighting_System\Radar_Core/Libraries/CMSIS/Include\core_cmInstr.h **** #ifndef __CORE_CMINSTR_H
  39:C:\Users\Depes Crystalline\Desktop\school\Active_Bike_Lighting_System\Radar_Core/Libraries/CMSIS/Include\core_cmInstr.h **** #define __CORE_CMINSTR_H
  40:C:\Users\Depes Crystalline\Desktop\school\Active_Bike_Lighting_System\Radar_Core/Libraries/CMSIS/Include\core_cmInstr.h **** 
  41:C:\Users\Depes Crystalline\Desktop\school\Active_Bike_Lighting_System\Radar_Core/Libraries/CMSIS/Include\core_cmInstr.h **** 
  42:C:\Users\Depes Crystalline\Desktop\school\Active_Bike_Lighting_System\Radar_Core/Libraries/CMSIS/Include\core_cmInstr.h **** /* ##########################  Core Instruction Access  ######################### */
  43:C:\Users\Depes Crystalline\Desktop\school\Active_Bike_Lighting_System\Radar_Core/Libraries/CMSIS/Include\core_cmInstr.h **** /** \defgroup CMSIS_Core_InstructionInterface CMSIS Core Instruction Interface
  44:C:\Users\Depes Crystalline\Desktop\school\Active_Bike_Lighting_System\Radar_Core/Libraries/CMSIS/Include\core_cmInstr.h ****   Access to dedicated instructions
  45:C:\Users\Depes Crystalline\Desktop\school\Active_Bike_Lighting_System\Radar_Core/Libraries/CMSIS/Include\core_cmInstr.h ****   @{
  46:C:\Users\Depes Crystalline\Desktop\school\Active_Bike_Lighting_System\Radar_Core/Libraries/CMSIS/Include\core_cmInstr.h **** */
  47:C:\Users\Depes Crystalline\Desktop\school\Active_Bike_Lighting_System\Radar_Core/Libraries/CMSIS/Include\core_cmInstr.h **** 
  48:C:\Users\Depes Crystalline\Desktop\school\Active_Bike_Lighting_System\Radar_Core/Libraries/CMSIS/Include\core_cmInstr.h **** #if   defined ( __CC_ARM ) /*------------------RealView Compiler -----------------*/
  49:C:\Users\Depes Crystalline\Desktop\school\Active_Bike_Lighting_System\Radar_Core/Libraries/CMSIS/Include\core_cmInstr.h **** /* ARM armcc specific functions */
  50:C:\Users\Depes Crystalline\Desktop\school\Active_Bike_Lighting_System\Radar_Core/Libraries/CMSIS/Include\core_cmInstr.h **** 
  51:C:\Users\Depes Crystalline\Desktop\school\Active_Bike_Lighting_System\Radar_Core/Libraries/CMSIS/Include\core_cmInstr.h **** #if (__ARMCC_VERSION < 400677)
  52:C:\Users\Depes Crystalline\Desktop\school\Active_Bike_Lighting_System\Radar_Core/Libraries/CMSIS/Include\core_cmInstr.h ****   #error "Please use ARM Compiler Toolchain V4.0.677 or later!"
  53:C:\Users\Depes Crystalline\Desktop\school\Active_Bike_Lighting_System\Radar_Core/Libraries/CMSIS/Include\core_cmInstr.h **** #endif
  54:C:\Users\Depes Crystalline\Desktop\school\Active_Bike_Lighting_System\Radar_Core/Libraries/CMSIS/Include\core_cmInstr.h **** 
  55:C:\Users\Depes Crystalline\Desktop\school\Active_Bike_Lighting_System\Radar_Core/Libraries/CMSIS/Include\core_cmInstr.h **** 
  56:C:\Users\Depes Crystalline\Desktop\school\Active_Bike_Lighting_System\Radar_Core/Libraries/CMSIS/Include\core_cmInstr.h **** /** \brief  No Operation
  57:C:\Users\Depes Crystalline\Desktop\school\Active_Bike_Lighting_System\Radar_Core/Libraries/CMSIS/Include\core_cmInstr.h **** 
  58:C:\Users\Depes Crystalline\Desktop\school\Active_Bike_Lighting_System\Radar_Core/Libraries/CMSIS/Include\core_cmInstr.h ****     No Operation does nothing. This instruction can be used for code alignment purposes.
  59:C:\Users\Depes Crystalline\Desktop\school\Active_Bike_Lighting_System\Radar_Core/Libraries/CMSIS/Include\core_cmInstr.h ****  */
  60:C:\Users\Depes Crystalline\Desktop\school\Active_Bike_Lighting_System\Radar_Core/Libraries/CMSIS/Include\core_cmInstr.h **** #define __NOP                             __nop
  61:C:\Users\Depes Crystalline\Desktop\school\Active_Bike_Lighting_System\Radar_Core/Libraries/CMSIS/Include\core_cmInstr.h **** 
  62:C:\Users\Depes Crystalline\Desktop\school\Active_Bike_Lighting_System\Radar_Core/Libraries/CMSIS/Include\core_cmInstr.h **** 
  63:C:\Users\Depes Crystalline\Desktop\school\Active_Bike_Lighting_System\Radar_Core/Libraries/CMSIS/Include\core_cmInstr.h **** /** \brief  Wait For Interrupt
  64:C:\Users\Depes Crystalline\Desktop\school\Active_Bike_Lighting_System\Radar_Core/Libraries/CMSIS/Include\core_cmInstr.h **** 
  65:C:\Users\Depes Crystalline\Desktop\school\Active_Bike_Lighting_System\Radar_Core/Libraries/CMSIS/Include\core_cmInstr.h ****     Wait For Interrupt is a hint instruction that suspends execution
  66:C:\Users\Depes Crystalline\Desktop\school\Active_Bike_Lighting_System\Radar_Core/Libraries/CMSIS/Include\core_cmInstr.h ****     until one of a number of events occurs.
  67:C:\Users\Depes Crystalline\Desktop\school\Active_Bike_Lighting_System\Radar_Core/Libraries/CMSIS/Include\core_cmInstr.h ****  */
  68:C:\Users\Depes Crystalline\Desktop\school\Active_Bike_Lighting_System\Radar_Core/Libraries/CMSIS/Include\core_cmInstr.h **** #define __WFI                             __wfi
  69:C:\Users\Depes Crystalline\Desktop\school\Active_Bike_Lighting_System\Radar_Core/Libraries/CMSIS/Include\core_cmInstr.h **** 
  70:C:\Users\Depes Crystalline\Desktop\school\Active_Bike_Lighting_System\Radar_Core/Libraries/CMSIS/Include\core_cmInstr.h **** 
  71:C:\Users\Depes Crystalline\Desktop\school\Active_Bike_Lighting_System\Radar_Core/Libraries/CMSIS/Include\core_cmInstr.h **** /** \brief  Wait For Event
  72:C:\Users\Depes Crystalline\Desktop\school\Active_Bike_Lighting_System\Radar_Core/Libraries/CMSIS/Include\core_cmInstr.h **** 
  73:C:\Users\Depes Crystalline\Desktop\school\Active_Bike_Lighting_System\Radar_Core/Libraries/CMSIS/Include\core_cmInstr.h ****     Wait For Event is a hint instruction that permits the processor to enter
  74:C:\Users\Depes Crystalline\Desktop\school\Active_Bike_Lighting_System\Radar_Core/Libraries/CMSIS/Include\core_cmInstr.h ****     a low-power state until one of a number of events occurs.
  75:C:\Users\Depes Crystalline\Desktop\school\Active_Bike_Lighting_System\Radar_Core/Libraries/CMSIS/Include\core_cmInstr.h ****  */
  76:C:\Users\Depes Crystalline\Desktop\school\Active_Bike_Lighting_System\Radar_Core/Libraries/CMSIS/Include\core_cmInstr.h **** #define __WFE                             __wfe
  77:C:\Users\Depes Crystalline\Desktop\school\Active_Bike_Lighting_System\Radar_Core/Libraries/CMSIS/Include\core_cmInstr.h **** 
  78:C:\Users\Depes Crystalline\Desktop\school\Active_Bike_Lighting_System\Radar_Core/Libraries/CMSIS/Include\core_cmInstr.h **** 
  79:C:\Users\Depes Crystalline\Desktop\school\Active_Bike_Lighting_System\Radar_Core/Libraries/CMSIS/Include\core_cmInstr.h **** /** \brief  Send Event
  80:C:\Users\Depes Crystalline\Desktop\school\Active_Bike_Lighting_System\Radar_Core/Libraries/CMSIS/Include\core_cmInstr.h **** 
  81:C:\Users\Depes Crystalline\Desktop\school\Active_Bike_Lighting_System\Radar_Core/Libraries/CMSIS/Include\core_cmInstr.h ****     Send Event is a hint instruction. It causes an event to be signaled to the CPU.
  82:C:\Users\Depes Crystalline\Desktop\school\Active_Bike_Lighting_System\Radar_Core/Libraries/CMSIS/Include\core_cmInstr.h ****  */
  83:C:\Users\Depes Crystalline\Desktop\school\Active_Bike_Lighting_System\Radar_Core/Libraries/CMSIS/Include\core_cmInstr.h **** #define __SEV                             __sev
  84:C:\Users\Depes Crystalline\Desktop\school\Active_Bike_Lighting_System\Radar_Core/Libraries/CMSIS/Include\core_cmInstr.h **** 
  85:C:\Users\Depes Crystalline\Desktop\school\Active_Bike_Lighting_System\Radar_Core/Libraries/CMSIS/Include\core_cmInstr.h **** 
  86:C:\Users\Depes Crystalline\Desktop\school\Active_Bike_Lighting_System\Radar_Core/Libraries/CMSIS/Include\core_cmInstr.h **** /** \brief  Instruction Synchronization Barrier
  87:C:\Users\Depes Crystalline\Desktop\school\Active_Bike_Lighting_System\Radar_Core/Libraries/CMSIS/Include\core_cmInstr.h **** 
  88:C:\Users\Depes Crystalline\Desktop\school\Active_Bike_Lighting_System\Radar_Core/Libraries/CMSIS/Include\core_cmInstr.h ****     Instruction Synchronization Barrier flushes the pipeline in the processor,
  89:C:\Users\Depes Crystalline\Desktop\school\Active_Bike_Lighting_System\Radar_Core/Libraries/CMSIS/Include\core_cmInstr.h ****     so that all instructions following the ISB are fetched from cache or
  90:C:\Users\Depes Crystalline\Desktop\school\Active_Bike_Lighting_System\Radar_Core/Libraries/CMSIS/Include\core_cmInstr.h ****     memory, after the instruction has been completed.
  91:C:\Users\Depes Crystalline\Desktop\school\Active_Bike_Lighting_System\Radar_Core/Libraries/CMSIS/Include\core_cmInstr.h ****  */
  92:C:\Users\Depes Crystalline\Desktop\school\Active_Bike_Lighting_System\Radar_Core/Libraries/CMSIS/Include\core_cmInstr.h **** #define __ISB()                           __isb(0xF)
  93:C:\Users\Depes Crystalline\Desktop\school\Active_Bike_Lighting_System\Radar_Core/Libraries/CMSIS/Include\core_cmInstr.h **** 
  94:C:\Users\Depes Crystalline\Desktop\school\Active_Bike_Lighting_System\Radar_Core/Libraries/CMSIS/Include\core_cmInstr.h **** 
  95:C:\Users\Depes Crystalline\Desktop\school\Active_Bike_Lighting_System\Radar_Core/Libraries/CMSIS/Include\core_cmInstr.h **** /** \brief  Data Synchronization Barrier
  96:C:\Users\Depes Crystalline\Desktop\school\Active_Bike_Lighting_System\Radar_Core/Libraries/CMSIS/Include\core_cmInstr.h **** 
  97:C:\Users\Depes Crystalline\Desktop\school\Active_Bike_Lighting_System\Radar_Core/Libraries/CMSIS/Include\core_cmInstr.h ****     This function acts as a special kind of Data Memory Barrier.
  98:C:\Users\Depes Crystalline\Desktop\school\Active_Bike_Lighting_System\Radar_Core/Libraries/CMSIS/Include\core_cmInstr.h ****     It completes when all explicit memory accesses before this instruction complete.
  99:C:\Users\Depes Crystalline\Desktop\school\Active_Bike_Lighting_System\Radar_Core/Libraries/CMSIS/Include\core_cmInstr.h ****  */
 100:C:\Users\Depes Crystalline\Desktop\school\Active_Bike_Lighting_System\Radar_Core/Libraries/CMSIS/Include\core_cmInstr.h **** #define __DSB()                           __dsb(0xF)
 101:C:\Users\Depes Crystalline\Desktop\school\Active_Bike_Lighting_System\Radar_Core/Libraries/CMSIS/Include\core_cmInstr.h **** 
 102:C:\Users\Depes Crystalline\Desktop\school\Active_Bike_Lighting_System\Radar_Core/Libraries/CMSIS/Include\core_cmInstr.h **** 
 103:C:\Users\Depes Crystalline\Desktop\school\Active_Bike_Lighting_System\Radar_Core/Libraries/CMSIS/Include\core_cmInstr.h **** /** \brief  Data Memory Barrier
 104:C:\Users\Depes Crystalline\Desktop\school\Active_Bike_Lighting_System\Radar_Core/Libraries/CMSIS/Include\core_cmInstr.h **** 
 105:C:\Users\Depes Crystalline\Desktop\school\Active_Bike_Lighting_System\Radar_Core/Libraries/CMSIS/Include\core_cmInstr.h ****     This function ensures the apparent order of the explicit memory operations before
 106:C:\Users\Depes Crystalline\Desktop\school\Active_Bike_Lighting_System\Radar_Core/Libraries/CMSIS/Include\core_cmInstr.h ****     and after the instruction, without ensuring their completion.
 107:C:\Users\Depes Crystalline\Desktop\school\Active_Bike_Lighting_System\Radar_Core/Libraries/CMSIS/Include\core_cmInstr.h ****  */
 108:C:\Users\Depes Crystalline\Desktop\school\Active_Bike_Lighting_System\Radar_Core/Libraries/CMSIS/Include\core_cmInstr.h **** #define __DMB()                           __dmb(0xF)
 109:C:\Users\Depes Crystalline\Desktop\school\Active_Bike_Lighting_System\Radar_Core/Libraries/CMSIS/Include\core_cmInstr.h **** 
 110:C:\Users\Depes Crystalline\Desktop\school\Active_Bike_Lighting_System\Radar_Core/Libraries/CMSIS/Include\core_cmInstr.h **** 
 111:C:\Users\Depes Crystalline\Desktop\school\Active_Bike_Lighting_System\Radar_Core/Libraries/CMSIS/Include\core_cmInstr.h **** /** \brief  Reverse byte order (32 bit)
 112:C:\Users\Depes Crystalline\Desktop\school\Active_Bike_Lighting_System\Radar_Core/Libraries/CMSIS/Include\core_cmInstr.h **** 
 113:C:\Users\Depes Crystalline\Desktop\school\Active_Bike_Lighting_System\Radar_Core/Libraries/CMSIS/Include\core_cmInstr.h ****     This function reverses the byte order in integer value.
 114:C:\Users\Depes Crystalline\Desktop\school\Active_Bike_Lighting_System\Radar_Core/Libraries/CMSIS/Include\core_cmInstr.h **** 
 115:C:\Users\Depes Crystalline\Desktop\school\Active_Bike_Lighting_System\Radar_Core/Libraries/CMSIS/Include\core_cmInstr.h ****     \param [in]    value  Value to reverse
 116:C:\Users\Depes Crystalline\Desktop\school\Active_Bike_Lighting_System\Radar_Core/Libraries/CMSIS/Include\core_cmInstr.h ****     \return               Reversed value
 117:C:\Users\Depes Crystalline\Desktop\school\Active_Bike_Lighting_System\Radar_Core/Libraries/CMSIS/Include\core_cmInstr.h ****  */
 118:C:\Users\Depes Crystalline\Desktop\school\Active_Bike_Lighting_System\Radar_Core/Libraries/CMSIS/Include\core_cmInstr.h **** #define __REV                             __rev
 119:C:\Users\Depes Crystalline\Desktop\school\Active_Bike_Lighting_System\Radar_Core/Libraries/CMSIS/Include\core_cmInstr.h **** 
 120:C:\Users\Depes Crystalline\Desktop\school\Active_Bike_Lighting_System\Radar_Core/Libraries/CMSIS/Include\core_cmInstr.h **** 
 121:C:\Users\Depes Crystalline\Desktop\school\Active_Bike_Lighting_System\Radar_Core/Libraries/CMSIS/Include\core_cmInstr.h **** /** \brief  Reverse byte order (16 bit)
 122:C:\Users\Depes Crystalline\Desktop\school\Active_Bike_Lighting_System\Radar_Core/Libraries/CMSIS/Include\core_cmInstr.h **** 
 123:C:\Users\Depes Crystalline\Desktop\school\Active_Bike_Lighting_System\Radar_Core/Libraries/CMSIS/Include\core_cmInstr.h ****     This function reverses the byte order in two unsigned short values.
 124:C:\Users\Depes Crystalline\Desktop\school\Active_Bike_Lighting_System\Radar_Core/Libraries/CMSIS/Include\core_cmInstr.h **** 
 125:C:\Users\Depes Crystalline\Desktop\school\Active_Bike_Lighting_System\Radar_Core/Libraries/CMSIS/Include\core_cmInstr.h ****     \param [in]    value  Value to reverse
 126:C:\Users\Depes Crystalline\Desktop\school\Active_Bike_Lighting_System\Radar_Core/Libraries/CMSIS/Include\core_cmInstr.h ****     \return               Reversed value
 127:C:\Users\Depes Crystalline\Desktop\school\Active_Bike_Lighting_System\Radar_Core/Libraries/CMSIS/Include\core_cmInstr.h ****  */
 128:C:\Users\Depes Crystalline\Desktop\school\Active_Bike_Lighting_System\Radar_Core/Libraries/CMSIS/Include\core_cmInstr.h **** #ifndef __NO_EMBEDDED_ASM
 129:C:\Users\Depes Crystalline\Desktop\school\Active_Bike_Lighting_System\Radar_Core/Libraries/CMSIS/Include\core_cmInstr.h **** __attribute__((section(".rev16_text"))) __STATIC_INLINE __ASM uint32_t __REV16(uint32_t value)
 130:C:\Users\Depes Crystalline\Desktop\school\Active_Bike_Lighting_System\Radar_Core/Libraries/CMSIS/Include\core_cmInstr.h **** {
 131:C:\Users\Depes Crystalline\Desktop\school\Active_Bike_Lighting_System\Radar_Core/Libraries/CMSIS/Include\core_cmInstr.h ****   rev16 r0, r0
 132:C:\Users\Depes Crystalline\Desktop\school\Active_Bike_Lighting_System\Radar_Core/Libraries/CMSIS/Include\core_cmInstr.h ****   bx lr
 133:C:\Users\Depes Crystalline\Desktop\school\Active_Bike_Lighting_System\Radar_Core/Libraries/CMSIS/Include\core_cmInstr.h **** }
 134:C:\Users\Depes Crystalline\Desktop\school\Active_Bike_Lighting_System\Radar_Core/Libraries/CMSIS/Include\core_cmInstr.h **** #endif
 135:C:\Users\Depes Crystalline\Desktop\school\Active_Bike_Lighting_System\Radar_Core/Libraries/CMSIS/Include\core_cmInstr.h **** 
 136:C:\Users\Depes Crystalline\Desktop\school\Active_Bike_Lighting_System\Radar_Core/Libraries/CMSIS/Include\core_cmInstr.h **** /** \brief  Reverse byte order in signed short value
 137:C:\Users\Depes Crystalline\Desktop\school\Active_Bike_Lighting_System\Radar_Core/Libraries/CMSIS/Include\core_cmInstr.h **** 
 138:C:\Users\Depes Crystalline\Desktop\school\Active_Bike_Lighting_System\Radar_Core/Libraries/CMSIS/Include\core_cmInstr.h ****     This function reverses the byte order in a signed short value with sign extension to integer.
 139:C:\Users\Depes Crystalline\Desktop\school\Active_Bike_Lighting_System\Radar_Core/Libraries/CMSIS/Include\core_cmInstr.h **** 
 140:C:\Users\Depes Crystalline\Desktop\school\Active_Bike_Lighting_System\Radar_Core/Libraries/CMSIS/Include\core_cmInstr.h ****     \param [in]    value  Value to reverse
 141:C:\Users\Depes Crystalline\Desktop\school\Active_Bike_Lighting_System\Radar_Core/Libraries/CMSIS/Include\core_cmInstr.h ****     \return               Reversed value
 142:C:\Users\Depes Crystalline\Desktop\school\Active_Bike_Lighting_System\Radar_Core/Libraries/CMSIS/Include\core_cmInstr.h ****  */
 143:C:\Users\Depes Crystalline\Desktop\school\Active_Bike_Lighting_System\Radar_Core/Libraries/CMSIS/Include\core_cmInstr.h **** #ifndef __NO_EMBEDDED_ASM
 144:C:\Users\Depes Crystalline\Desktop\school\Active_Bike_Lighting_System\Radar_Core/Libraries/CMSIS/Include\core_cmInstr.h **** __attribute__((section(".revsh_text"))) __STATIC_INLINE __ASM int32_t __REVSH(int32_t value)
 145:C:\Users\Depes Crystalline\Desktop\school\Active_Bike_Lighting_System\Radar_Core/Libraries/CMSIS/Include\core_cmInstr.h **** {
 146:C:\Users\Depes Crystalline\Desktop\school\Active_Bike_Lighting_System\Radar_Core/Libraries/CMSIS/Include\core_cmInstr.h ****   revsh r0, r0
 147:C:\Users\Depes Crystalline\Desktop\school\Active_Bike_Lighting_System\Radar_Core/Libraries/CMSIS/Include\core_cmInstr.h ****   bx lr
 148:C:\Users\Depes Crystalline\Desktop\school\Active_Bike_Lighting_System\Radar_Core/Libraries/CMSIS/Include\core_cmInstr.h **** }
 149:C:\Users\Depes Crystalline\Desktop\school\Active_Bike_Lighting_System\Radar_Core/Libraries/CMSIS/Include\core_cmInstr.h **** #endif
 150:C:\Users\Depes Crystalline\Desktop\school\Active_Bike_Lighting_System\Radar_Core/Libraries/CMSIS/Include\core_cmInstr.h **** 
 151:C:\Users\Depes Crystalline\Desktop\school\Active_Bike_Lighting_System\Radar_Core/Libraries/CMSIS/Include\core_cmInstr.h **** 
 152:C:\Users\Depes Crystalline\Desktop\school\Active_Bike_Lighting_System\Radar_Core/Libraries/CMSIS/Include\core_cmInstr.h **** /** \brief  Rotate Right in unsigned value (32 bit)
 153:C:\Users\Depes Crystalline\Desktop\school\Active_Bike_Lighting_System\Radar_Core/Libraries/CMSIS/Include\core_cmInstr.h **** 
 154:C:\Users\Depes Crystalline\Desktop\school\Active_Bike_Lighting_System\Radar_Core/Libraries/CMSIS/Include\core_cmInstr.h ****     This function Rotate Right (immediate) provides the value of the contents of a register rotated
 155:C:\Users\Depes Crystalline\Desktop\school\Active_Bike_Lighting_System\Radar_Core/Libraries/CMSIS/Include\core_cmInstr.h **** 
 156:C:\Users\Depes Crystalline\Desktop\school\Active_Bike_Lighting_System\Radar_Core/Libraries/CMSIS/Include\core_cmInstr.h ****     \param [in]    value  Value to rotate
 157:C:\Users\Depes Crystalline\Desktop\school\Active_Bike_Lighting_System\Radar_Core/Libraries/CMSIS/Include\core_cmInstr.h ****     \param [in]    value  Number of Bits to rotate
 158:C:\Users\Depes Crystalline\Desktop\school\Active_Bike_Lighting_System\Radar_Core/Libraries/CMSIS/Include\core_cmInstr.h ****     \return               Rotated value
 159:C:\Users\Depes Crystalline\Desktop\school\Active_Bike_Lighting_System\Radar_Core/Libraries/CMSIS/Include\core_cmInstr.h ****  */
 160:C:\Users\Depes Crystalline\Desktop\school\Active_Bike_Lighting_System\Radar_Core/Libraries/CMSIS/Include\core_cmInstr.h **** #define __ROR                             __ror
 161:C:\Users\Depes Crystalline\Desktop\school\Active_Bike_Lighting_System\Radar_Core/Libraries/CMSIS/Include\core_cmInstr.h **** 
 162:C:\Users\Depes Crystalline\Desktop\school\Active_Bike_Lighting_System\Radar_Core/Libraries/CMSIS/Include\core_cmInstr.h **** 
 163:C:\Users\Depes Crystalline\Desktop\school\Active_Bike_Lighting_System\Radar_Core/Libraries/CMSIS/Include\core_cmInstr.h **** /** \brief  Breakpoint
 164:C:\Users\Depes Crystalline\Desktop\school\Active_Bike_Lighting_System\Radar_Core/Libraries/CMSIS/Include\core_cmInstr.h **** 
 165:C:\Users\Depes Crystalline\Desktop\school\Active_Bike_Lighting_System\Radar_Core/Libraries/CMSIS/Include\core_cmInstr.h ****     This function causes the processor to enter Debug state.
 166:C:\Users\Depes Crystalline\Desktop\school\Active_Bike_Lighting_System\Radar_Core/Libraries/CMSIS/Include\core_cmInstr.h ****     Debug tools can use this to investigate system state when the instruction at a particular addre
 167:C:\Users\Depes Crystalline\Desktop\school\Active_Bike_Lighting_System\Radar_Core/Libraries/CMSIS/Include\core_cmInstr.h **** 
 168:C:\Users\Depes Crystalline\Desktop\school\Active_Bike_Lighting_System\Radar_Core/Libraries/CMSIS/Include\core_cmInstr.h ****     \param [in]    value  is ignored by the processor.
 169:C:\Users\Depes Crystalline\Desktop\school\Active_Bike_Lighting_System\Radar_Core/Libraries/CMSIS/Include\core_cmInstr.h ****                    If required, a debugger can use it to store additional information about the bre
 170:C:\Users\Depes Crystalline\Desktop\school\Active_Bike_Lighting_System\Radar_Core/Libraries/CMSIS/Include\core_cmInstr.h ****  */
 171:C:\Users\Depes Crystalline\Desktop\school\Active_Bike_Lighting_System\Radar_Core/Libraries/CMSIS/Include\core_cmInstr.h **** #define __BKPT(value)                       __breakpoint(value)
 172:C:\Users\Depes Crystalline\Desktop\school\Active_Bike_Lighting_System\Radar_Core/Libraries/CMSIS/Include\core_cmInstr.h **** 
 173:C:\Users\Depes Crystalline\Desktop\school\Active_Bike_Lighting_System\Radar_Core/Libraries/CMSIS/Include\core_cmInstr.h **** 
 174:C:\Users\Depes Crystalline\Desktop\school\Active_Bike_Lighting_System\Radar_Core/Libraries/CMSIS/Include\core_cmInstr.h **** #if       (__CORTEX_M >= 0x03) || (__CORTEX_SC >= 300)
 175:C:\Users\Depes Crystalline\Desktop\school\Active_Bike_Lighting_System\Radar_Core/Libraries/CMSIS/Include\core_cmInstr.h **** 
 176:C:\Users\Depes Crystalline\Desktop\school\Active_Bike_Lighting_System\Radar_Core/Libraries/CMSIS/Include\core_cmInstr.h **** /** \brief  Reverse bit order of value
 177:C:\Users\Depes Crystalline\Desktop\school\Active_Bike_Lighting_System\Radar_Core/Libraries/CMSIS/Include\core_cmInstr.h **** 
 178:C:\Users\Depes Crystalline\Desktop\school\Active_Bike_Lighting_System\Radar_Core/Libraries/CMSIS/Include\core_cmInstr.h ****     This function reverses the bit order of the given value.
 179:C:\Users\Depes Crystalline\Desktop\school\Active_Bike_Lighting_System\Radar_Core/Libraries/CMSIS/Include\core_cmInstr.h **** 
 180:C:\Users\Depes Crystalline\Desktop\school\Active_Bike_Lighting_System\Radar_Core/Libraries/CMSIS/Include\core_cmInstr.h ****     \param [in]    value  Value to reverse
 181:C:\Users\Depes Crystalline\Desktop\school\Active_Bike_Lighting_System\Radar_Core/Libraries/CMSIS/Include\core_cmInstr.h ****     \return               Reversed value
 182:C:\Users\Depes Crystalline\Desktop\school\Active_Bike_Lighting_System\Radar_Core/Libraries/CMSIS/Include\core_cmInstr.h ****  */
 183:C:\Users\Depes Crystalline\Desktop\school\Active_Bike_Lighting_System\Radar_Core/Libraries/CMSIS/Include\core_cmInstr.h **** #define __RBIT                            __rbit
 184:C:\Users\Depes Crystalline\Desktop\school\Active_Bike_Lighting_System\Radar_Core/Libraries/CMSIS/Include\core_cmInstr.h **** 
 185:C:\Users\Depes Crystalline\Desktop\school\Active_Bike_Lighting_System\Radar_Core/Libraries/CMSIS/Include\core_cmInstr.h **** 
 186:C:\Users\Depes Crystalline\Desktop\school\Active_Bike_Lighting_System\Radar_Core/Libraries/CMSIS/Include\core_cmInstr.h **** /** \brief  LDR Exclusive (8 bit)
 187:C:\Users\Depes Crystalline\Desktop\school\Active_Bike_Lighting_System\Radar_Core/Libraries/CMSIS/Include\core_cmInstr.h **** 
 188:C:\Users\Depes Crystalline\Desktop\school\Active_Bike_Lighting_System\Radar_Core/Libraries/CMSIS/Include\core_cmInstr.h ****     This function executes a exclusive LDR instruction for 8 bit value.
 189:C:\Users\Depes Crystalline\Desktop\school\Active_Bike_Lighting_System\Radar_Core/Libraries/CMSIS/Include\core_cmInstr.h **** 
 190:C:\Users\Depes Crystalline\Desktop\school\Active_Bike_Lighting_System\Radar_Core/Libraries/CMSIS/Include\core_cmInstr.h ****     \param [in]    ptr  Pointer to data
 191:C:\Users\Depes Crystalline\Desktop\school\Active_Bike_Lighting_System\Radar_Core/Libraries/CMSIS/Include\core_cmInstr.h ****     \return             value of type uint8_t at (*ptr)
 192:C:\Users\Depes Crystalline\Desktop\school\Active_Bike_Lighting_System\Radar_Core/Libraries/CMSIS/Include\core_cmInstr.h ****  */
 193:C:\Users\Depes Crystalline\Desktop\school\Active_Bike_Lighting_System\Radar_Core/Libraries/CMSIS/Include\core_cmInstr.h **** #define __LDREXB(ptr)                     ((uint8_t ) __ldrex(ptr))
 194:C:\Users\Depes Crystalline\Desktop\school\Active_Bike_Lighting_System\Radar_Core/Libraries/CMSIS/Include\core_cmInstr.h **** 
 195:C:\Users\Depes Crystalline\Desktop\school\Active_Bike_Lighting_System\Radar_Core/Libraries/CMSIS/Include\core_cmInstr.h **** 
 196:C:\Users\Depes Crystalline\Desktop\school\Active_Bike_Lighting_System\Radar_Core/Libraries/CMSIS/Include\core_cmInstr.h **** /** \brief  LDR Exclusive (16 bit)
 197:C:\Users\Depes Crystalline\Desktop\school\Active_Bike_Lighting_System\Radar_Core/Libraries/CMSIS/Include\core_cmInstr.h **** 
 198:C:\Users\Depes Crystalline\Desktop\school\Active_Bike_Lighting_System\Radar_Core/Libraries/CMSIS/Include\core_cmInstr.h ****     This function executes a exclusive LDR instruction for 16 bit values.
 199:C:\Users\Depes Crystalline\Desktop\school\Active_Bike_Lighting_System\Radar_Core/Libraries/CMSIS/Include\core_cmInstr.h **** 
 200:C:\Users\Depes Crystalline\Desktop\school\Active_Bike_Lighting_System\Radar_Core/Libraries/CMSIS/Include\core_cmInstr.h ****     \param [in]    ptr  Pointer to data
 201:C:\Users\Depes Crystalline\Desktop\school\Active_Bike_Lighting_System\Radar_Core/Libraries/CMSIS/Include\core_cmInstr.h ****     \return        value of type uint16_t at (*ptr)
 202:C:\Users\Depes Crystalline\Desktop\school\Active_Bike_Lighting_System\Radar_Core/Libraries/CMSIS/Include\core_cmInstr.h ****  */
 203:C:\Users\Depes Crystalline\Desktop\school\Active_Bike_Lighting_System\Radar_Core/Libraries/CMSIS/Include\core_cmInstr.h **** #define __LDREXH(ptr)                     ((uint16_t) __ldrex(ptr))
 204:C:\Users\Depes Crystalline\Desktop\school\Active_Bike_Lighting_System\Radar_Core/Libraries/CMSIS/Include\core_cmInstr.h **** 
 205:C:\Users\Depes Crystalline\Desktop\school\Active_Bike_Lighting_System\Radar_Core/Libraries/CMSIS/Include\core_cmInstr.h **** 
 206:C:\Users\Depes Crystalline\Desktop\school\Active_Bike_Lighting_System\Radar_Core/Libraries/CMSIS/Include\core_cmInstr.h **** /** \brief  LDR Exclusive (32 bit)
 207:C:\Users\Depes Crystalline\Desktop\school\Active_Bike_Lighting_System\Radar_Core/Libraries/CMSIS/Include\core_cmInstr.h **** 
 208:C:\Users\Depes Crystalline\Desktop\school\Active_Bike_Lighting_System\Radar_Core/Libraries/CMSIS/Include\core_cmInstr.h ****     This function executes a exclusive LDR instruction for 32 bit values.
 209:C:\Users\Depes Crystalline\Desktop\school\Active_Bike_Lighting_System\Radar_Core/Libraries/CMSIS/Include\core_cmInstr.h **** 
 210:C:\Users\Depes Crystalline\Desktop\school\Active_Bike_Lighting_System\Radar_Core/Libraries/CMSIS/Include\core_cmInstr.h ****     \param [in]    ptr  Pointer to data
 211:C:\Users\Depes Crystalline\Desktop\school\Active_Bike_Lighting_System\Radar_Core/Libraries/CMSIS/Include\core_cmInstr.h ****     \return        value of type uint32_t at (*ptr)
 212:C:\Users\Depes Crystalline\Desktop\school\Active_Bike_Lighting_System\Radar_Core/Libraries/CMSIS/Include\core_cmInstr.h ****  */
 213:C:\Users\Depes Crystalline\Desktop\school\Active_Bike_Lighting_System\Radar_Core/Libraries/CMSIS/Include\core_cmInstr.h **** #define __LDREXW(ptr)                     ((uint32_t ) __ldrex(ptr))
 214:C:\Users\Depes Crystalline\Desktop\school\Active_Bike_Lighting_System\Radar_Core/Libraries/CMSIS/Include\core_cmInstr.h **** 
 215:C:\Users\Depes Crystalline\Desktop\school\Active_Bike_Lighting_System\Radar_Core/Libraries/CMSIS/Include\core_cmInstr.h **** 
 216:C:\Users\Depes Crystalline\Desktop\school\Active_Bike_Lighting_System\Radar_Core/Libraries/CMSIS/Include\core_cmInstr.h **** /** \brief  STR Exclusive (8 bit)
 217:C:\Users\Depes Crystalline\Desktop\school\Active_Bike_Lighting_System\Radar_Core/Libraries/CMSIS/Include\core_cmInstr.h **** 
 218:C:\Users\Depes Crystalline\Desktop\school\Active_Bike_Lighting_System\Radar_Core/Libraries/CMSIS/Include\core_cmInstr.h ****     This function executes a exclusive STR instruction for 8 bit values.
 219:C:\Users\Depes Crystalline\Desktop\school\Active_Bike_Lighting_System\Radar_Core/Libraries/CMSIS/Include\core_cmInstr.h **** 
 220:C:\Users\Depes Crystalline\Desktop\school\Active_Bike_Lighting_System\Radar_Core/Libraries/CMSIS/Include\core_cmInstr.h ****     \param [in]  value  Value to store
 221:C:\Users\Depes Crystalline\Desktop\school\Active_Bike_Lighting_System\Radar_Core/Libraries/CMSIS/Include\core_cmInstr.h ****     \param [in]    ptr  Pointer to location
 222:C:\Users\Depes Crystalline\Desktop\school\Active_Bike_Lighting_System\Radar_Core/Libraries/CMSIS/Include\core_cmInstr.h ****     \return          0  Function succeeded
 223:C:\Users\Depes Crystalline\Desktop\school\Active_Bike_Lighting_System\Radar_Core/Libraries/CMSIS/Include\core_cmInstr.h ****     \return          1  Function failed
 224:C:\Users\Depes Crystalline\Desktop\school\Active_Bike_Lighting_System\Radar_Core/Libraries/CMSIS/Include\core_cmInstr.h ****  */
 225:C:\Users\Depes Crystalline\Desktop\school\Active_Bike_Lighting_System\Radar_Core/Libraries/CMSIS/Include\core_cmInstr.h **** #define __STREXB(value, ptr)              __strex(value, ptr)
 226:C:\Users\Depes Crystalline\Desktop\school\Active_Bike_Lighting_System\Radar_Core/Libraries/CMSIS/Include\core_cmInstr.h **** 
 227:C:\Users\Depes Crystalline\Desktop\school\Active_Bike_Lighting_System\Radar_Core/Libraries/CMSIS/Include\core_cmInstr.h **** 
 228:C:\Users\Depes Crystalline\Desktop\school\Active_Bike_Lighting_System\Radar_Core/Libraries/CMSIS/Include\core_cmInstr.h **** /** \brief  STR Exclusive (16 bit)
 229:C:\Users\Depes Crystalline\Desktop\school\Active_Bike_Lighting_System\Radar_Core/Libraries/CMSIS/Include\core_cmInstr.h **** 
 230:C:\Users\Depes Crystalline\Desktop\school\Active_Bike_Lighting_System\Radar_Core/Libraries/CMSIS/Include\core_cmInstr.h ****     This function executes a exclusive STR instruction for 16 bit values.
 231:C:\Users\Depes Crystalline\Desktop\school\Active_Bike_Lighting_System\Radar_Core/Libraries/CMSIS/Include\core_cmInstr.h **** 
 232:C:\Users\Depes Crystalline\Desktop\school\Active_Bike_Lighting_System\Radar_Core/Libraries/CMSIS/Include\core_cmInstr.h ****     \param [in]  value  Value to store
 233:C:\Users\Depes Crystalline\Desktop\school\Active_Bike_Lighting_System\Radar_Core/Libraries/CMSIS/Include\core_cmInstr.h ****     \param [in]    ptr  Pointer to location
 234:C:\Users\Depes Crystalline\Desktop\school\Active_Bike_Lighting_System\Radar_Core/Libraries/CMSIS/Include\core_cmInstr.h ****     \return          0  Function succeeded
 235:C:\Users\Depes Crystalline\Desktop\school\Active_Bike_Lighting_System\Radar_Core/Libraries/CMSIS/Include\core_cmInstr.h ****     \return          1  Function failed
 236:C:\Users\Depes Crystalline\Desktop\school\Active_Bike_Lighting_System\Radar_Core/Libraries/CMSIS/Include\core_cmInstr.h ****  */
 237:C:\Users\Depes Crystalline\Desktop\school\Active_Bike_Lighting_System\Radar_Core/Libraries/CMSIS/Include\core_cmInstr.h **** #define __STREXH(value, ptr)              __strex(value, ptr)
 238:C:\Users\Depes Crystalline\Desktop\school\Active_Bike_Lighting_System\Radar_Core/Libraries/CMSIS/Include\core_cmInstr.h **** 
 239:C:\Users\Depes Crystalline\Desktop\school\Active_Bike_Lighting_System\Radar_Core/Libraries/CMSIS/Include\core_cmInstr.h **** 
 240:C:\Users\Depes Crystalline\Desktop\school\Active_Bike_Lighting_System\Radar_Core/Libraries/CMSIS/Include\core_cmInstr.h **** /** \brief  STR Exclusive (32 bit)
 241:C:\Users\Depes Crystalline\Desktop\school\Active_Bike_Lighting_System\Radar_Core/Libraries/CMSIS/Include\core_cmInstr.h **** 
 242:C:\Users\Depes Crystalline\Desktop\school\Active_Bike_Lighting_System\Radar_Core/Libraries/CMSIS/Include\core_cmInstr.h ****     This function executes a exclusive STR instruction for 32 bit values.
 243:C:\Users\Depes Crystalline\Desktop\school\Active_Bike_Lighting_System\Radar_Core/Libraries/CMSIS/Include\core_cmInstr.h **** 
 244:C:\Users\Depes Crystalline\Desktop\school\Active_Bike_Lighting_System\Radar_Core/Libraries/CMSIS/Include\core_cmInstr.h ****     \param [in]  value  Value to store
 245:C:\Users\Depes Crystalline\Desktop\school\Active_Bike_Lighting_System\Radar_Core/Libraries/CMSIS/Include\core_cmInstr.h ****     \param [in]    ptr  Pointer to location
 246:C:\Users\Depes Crystalline\Desktop\school\Active_Bike_Lighting_System\Radar_Core/Libraries/CMSIS/Include\core_cmInstr.h ****     \return          0  Function succeeded
 247:C:\Users\Depes Crystalline\Desktop\school\Active_Bike_Lighting_System\Radar_Core/Libraries/CMSIS/Include\core_cmInstr.h ****     \return          1  Function failed
 248:C:\Users\Depes Crystalline\Desktop\school\Active_Bike_Lighting_System\Radar_Core/Libraries/CMSIS/Include\core_cmInstr.h ****  */
 249:C:\Users\Depes Crystalline\Desktop\school\Active_Bike_Lighting_System\Radar_Core/Libraries/CMSIS/Include\core_cmInstr.h **** #define __STREXW(value, ptr)              __strex(value, ptr)
 250:C:\Users\Depes Crystalline\Desktop\school\Active_Bike_Lighting_System\Radar_Core/Libraries/CMSIS/Include\core_cmInstr.h **** 
 251:C:\Users\Depes Crystalline\Desktop\school\Active_Bike_Lighting_System\Radar_Core/Libraries/CMSIS/Include\core_cmInstr.h **** 
 252:C:\Users\Depes Crystalline\Desktop\school\Active_Bike_Lighting_System\Radar_Core/Libraries/CMSIS/Include\core_cmInstr.h **** /** \brief  Remove the exclusive lock
 253:C:\Users\Depes Crystalline\Desktop\school\Active_Bike_Lighting_System\Radar_Core/Libraries/CMSIS/Include\core_cmInstr.h **** 
 254:C:\Users\Depes Crystalline\Desktop\school\Active_Bike_Lighting_System\Radar_Core/Libraries/CMSIS/Include\core_cmInstr.h ****     This function removes the exclusive lock which is created by LDREX.
 255:C:\Users\Depes Crystalline\Desktop\school\Active_Bike_Lighting_System\Radar_Core/Libraries/CMSIS/Include\core_cmInstr.h **** 
 256:C:\Users\Depes Crystalline\Desktop\school\Active_Bike_Lighting_System\Radar_Core/Libraries/CMSIS/Include\core_cmInstr.h ****  */
 257:C:\Users\Depes Crystalline\Desktop\school\Active_Bike_Lighting_System\Radar_Core/Libraries/CMSIS/Include\core_cmInstr.h **** #define __CLREX                           __clrex
 258:C:\Users\Depes Crystalline\Desktop\school\Active_Bike_Lighting_System\Radar_Core/Libraries/CMSIS/Include\core_cmInstr.h **** 
 259:C:\Users\Depes Crystalline\Desktop\school\Active_Bike_Lighting_System\Radar_Core/Libraries/CMSIS/Include\core_cmInstr.h **** 
 260:C:\Users\Depes Crystalline\Desktop\school\Active_Bike_Lighting_System\Radar_Core/Libraries/CMSIS/Include\core_cmInstr.h **** /** \brief  Signed Saturate
 261:C:\Users\Depes Crystalline\Desktop\school\Active_Bike_Lighting_System\Radar_Core/Libraries/CMSIS/Include\core_cmInstr.h **** 
 262:C:\Users\Depes Crystalline\Desktop\school\Active_Bike_Lighting_System\Radar_Core/Libraries/CMSIS/Include\core_cmInstr.h ****     This function saturates a signed value.
 263:C:\Users\Depes Crystalline\Desktop\school\Active_Bike_Lighting_System\Radar_Core/Libraries/CMSIS/Include\core_cmInstr.h **** 
 264:C:\Users\Depes Crystalline\Desktop\school\Active_Bike_Lighting_System\Radar_Core/Libraries/CMSIS/Include\core_cmInstr.h ****     \param [in]  value  Value to be saturated
 265:C:\Users\Depes Crystalline\Desktop\school\Active_Bike_Lighting_System\Radar_Core/Libraries/CMSIS/Include\core_cmInstr.h ****     \param [in]    sat  Bit position to saturate to (1..32)
 266:C:\Users\Depes Crystalline\Desktop\school\Active_Bike_Lighting_System\Radar_Core/Libraries/CMSIS/Include\core_cmInstr.h ****     \return             Saturated value
 267:C:\Users\Depes Crystalline\Desktop\school\Active_Bike_Lighting_System\Radar_Core/Libraries/CMSIS/Include\core_cmInstr.h ****  */
 268:C:\Users\Depes Crystalline\Desktop\school\Active_Bike_Lighting_System\Radar_Core/Libraries/CMSIS/Include\core_cmInstr.h **** #define __SSAT                            __ssat
 269:C:\Users\Depes Crystalline\Desktop\school\Active_Bike_Lighting_System\Radar_Core/Libraries/CMSIS/Include\core_cmInstr.h **** 
 270:C:\Users\Depes Crystalline\Desktop\school\Active_Bike_Lighting_System\Radar_Core/Libraries/CMSIS/Include\core_cmInstr.h **** 
 271:C:\Users\Depes Crystalline\Desktop\school\Active_Bike_Lighting_System\Radar_Core/Libraries/CMSIS/Include\core_cmInstr.h **** /** \brief  Unsigned Saturate
 272:C:\Users\Depes Crystalline\Desktop\school\Active_Bike_Lighting_System\Radar_Core/Libraries/CMSIS/Include\core_cmInstr.h **** 
 273:C:\Users\Depes Crystalline\Desktop\school\Active_Bike_Lighting_System\Radar_Core/Libraries/CMSIS/Include\core_cmInstr.h ****     This function saturates an unsigned value.
 274:C:\Users\Depes Crystalline\Desktop\school\Active_Bike_Lighting_System\Radar_Core/Libraries/CMSIS/Include\core_cmInstr.h **** 
 275:C:\Users\Depes Crystalline\Desktop\school\Active_Bike_Lighting_System\Radar_Core/Libraries/CMSIS/Include\core_cmInstr.h ****     \param [in]  value  Value to be saturated
 276:C:\Users\Depes Crystalline\Desktop\school\Active_Bike_Lighting_System\Radar_Core/Libraries/CMSIS/Include\core_cmInstr.h ****     \param [in]    sat  Bit position to saturate to (0..31)
 277:C:\Users\Depes Crystalline\Desktop\school\Active_Bike_Lighting_System\Radar_Core/Libraries/CMSIS/Include\core_cmInstr.h ****     \return             Saturated value
 278:C:\Users\Depes Crystalline\Desktop\school\Active_Bike_Lighting_System\Radar_Core/Libraries/CMSIS/Include\core_cmInstr.h ****  */
 279:C:\Users\Depes Crystalline\Desktop\school\Active_Bike_Lighting_System\Radar_Core/Libraries/CMSIS/Include\core_cmInstr.h **** #define __USAT                            __usat
 280:C:\Users\Depes Crystalline\Desktop\school\Active_Bike_Lighting_System\Radar_Core/Libraries/CMSIS/Include\core_cmInstr.h **** 
 281:C:\Users\Depes Crystalline\Desktop\school\Active_Bike_Lighting_System\Radar_Core/Libraries/CMSIS/Include\core_cmInstr.h **** 
 282:C:\Users\Depes Crystalline\Desktop\school\Active_Bike_Lighting_System\Radar_Core/Libraries/CMSIS/Include\core_cmInstr.h **** /** \brief  Count leading zeros
 283:C:\Users\Depes Crystalline\Desktop\school\Active_Bike_Lighting_System\Radar_Core/Libraries/CMSIS/Include\core_cmInstr.h **** 
 284:C:\Users\Depes Crystalline\Desktop\school\Active_Bike_Lighting_System\Radar_Core/Libraries/CMSIS/Include\core_cmInstr.h ****     This function counts the number of leading zeros of a data value.
 285:C:\Users\Depes Crystalline\Desktop\school\Active_Bike_Lighting_System\Radar_Core/Libraries/CMSIS/Include\core_cmInstr.h **** 
 286:C:\Users\Depes Crystalline\Desktop\school\Active_Bike_Lighting_System\Radar_Core/Libraries/CMSIS/Include\core_cmInstr.h ****     \param [in]  value  Value to count the leading zeros
 287:C:\Users\Depes Crystalline\Desktop\school\Active_Bike_Lighting_System\Radar_Core/Libraries/CMSIS/Include\core_cmInstr.h ****     \return             number of leading zeros in value
 288:C:\Users\Depes Crystalline\Desktop\school\Active_Bike_Lighting_System\Radar_Core/Libraries/CMSIS/Include\core_cmInstr.h ****  */
 289:C:\Users\Depes Crystalline\Desktop\school\Active_Bike_Lighting_System\Radar_Core/Libraries/CMSIS/Include\core_cmInstr.h **** #define __CLZ                             __clz
 290:C:\Users\Depes Crystalline\Desktop\school\Active_Bike_Lighting_System\Radar_Core/Libraries/CMSIS/Include\core_cmInstr.h **** 
 291:C:\Users\Depes Crystalline\Desktop\school\Active_Bike_Lighting_System\Radar_Core/Libraries/CMSIS/Include\core_cmInstr.h **** 
 292:C:\Users\Depes Crystalline\Desktop\school\Active_Bike_Lighting_System\Radar_Core/Libraries/CMSIS/Include\core_cmInstr.h **** /** \brief  Rotate Right with Extend (32 bit)
 293:C:\Users\Depes Crystalline\Desktop\school\Active_Bike_Lighting_System\Radar_Core/Libraries/CMSIS/Include\core_cmInstr.h **** 
 294:C:\Users\Depes Crystalline\Desktop\school\Active_Bike_Lighting_System\Radar_Core/Libraries/CMSIS/Include\core_cmInstr.h ****     This function moves each bit of a bitstring right by one bit. The carry input is shifted in at 
 295:C:\Users\Depes Crystalline\Desktop\school\Active_Bike_Lighting_System\Radar_Core/Libraries/CMSIS/Include\core_cmInstr.h **** 
 296:C:\Users\Depes Crystalline\Desktop\school\Active_Bike_Lighting_System\Radar_Core/Libraries/CMSIS/Include\core_cmInstr.h ****     \param [in]    value  Value to rotate
 297:C:\Users\Depes Crystalline\Desktop\school\Active_Bike_Lighting_System\Radar_Core/Libraries/CMSIS/Include\core_cmInstr.h ****     \return               Rotated value
 298:C:\Users\Depes Crystalline\Desktop\school\Active_Bike_Lighting_System\Radar_Core/Libraries/CMSIS/Include\core_cmInstr.h ****  */
 299:C:\Users\Depes Crystalline\Desktop\school\Active_Bike_Lighting_System\Radar_Core/Libraries/CMSIS/Include\core_cmInstr.h **** #ifndef __NO_EMBEDDED_ASM
 300:C:\Users\Depes Crystalline\Desktop\school\Active_Bike_Lighting_System\Radar_Core/Libraries/CMSIS/Include\core_cmInstr.h **** __attribute__((section(".rrx_text"))) __STATIC_INLINE __ASM uint32_t __RRX(uint32_t value)
 301:C:\Users\Depes Crystalline\Desktop\school\Active_Bike_Lighting_System\Radar_Core/Libraries/CMSIS/Include\core_cmInstr.h **** {
 302:C:\Users\Depes Crystalline\Desktop\school\Active_Bike_Lighting_System\Radar_Core/Libraries/CMSIS/Include\core_cmInstr.h ****   rrx r0, r0
 303:C:\Users\Depes Crystalline\Desktop\school\Active_Bike_Lighting_System\Radar_Core/Libraries/CMSIS/Include\core_cmInstr.h ****   bx lr
 304:C:\Users\Depes Crystalline\Desktop\school\Active_Bike_Lighting_System\Radar_Core/Libraries/CMSIS/Include\core_cmInstr.h **** }
 305:C:\Users\Depes Crystalline\Desktop\school\Active_Bike_Lighting_System\Radar_Core/Libraries/CMSIS/Include\core_cmInstr.h **** #endif
 306:C:\Users\Depes Crystalline\Desktop\school\Active_Bike_Lighting_System\Radar_Core/Libraries/CMSIS/Include\core_cmInstr.h **** 
 307:C:\Users\Depes Crystalline\Desktop\school\Active_Bike_Lighting_System\Radar_Core/Libraries/CMSIS/Include\core_cmInstr.h **** 
 308:C:\Users\Depes Crystalline\Desktop\school\Active_Bike_Lighting_System\Radar_Core/Libraries/CMSIS/Include\core_cmInstr.h **** /** \brief  LDRT Unprivileged (8 bit)
 309:C:\Users\Depes Crystalline\Desktop\school\Active_Bike_Lighting_System\Radar_Core/Libraries/CMSIS/Include\core_cmInstr.h **** 
 310:C:\Users\Depes Crystalline\Desktop\school\Active_Bike_Lighting_System\Radar_Core/Libraries/CMSIS/Include\core_cmInstr.h ****     This function executes a Unprivileged LDRT instruction for 8 bit value.
 311:C:\Users\Depes Crystalline\Desktop\school\Active_Bike_Lighting_System\Radar_Core/Libraries/CMSIS/Include\core_cmInstr.h **** 
 312:C:\Users\Depes Crystalline\Desktop\school\Active_Bike_Lighting_System\Radar_Core/Libraries/CMSIS/Include\core_cmInstr.h ****     \param [in]    ptr  Pointer to data
 313:C:\Users\Depes Crystalline\Desktop\school\Active_Bike_Lighting_System\Radar_Core/Libraries/CMSIS/Include\core_cmInstr.h ****     \return             value of type uint8_t at (*ptr)
 314:C:\Users\Depes Crystalline\Desktop\school\Active_Bike_Lighting_System\Radar_Core/Libraries/CMSIS/Include\core_cmInstr.h ****  */
 315:C:\Users\Depes Crystalline\Desktop\school\Active_Bike_Lighting_System\Radar_Core/Libraries/CMSIS/Include\core_cmInstr.h **** #define __LDRBT(ptr)                      ((uint8_t )  __ldrt(ptr))
 316:C:\Users\Depes Crystalline\Desktop\school\Active_Bike_Lighting_System\Radar_Core/Libraries/CMSIS/Include\core_cmInstr.h **** 
 317:C:\Users\Depes Crystalline\Desktop\school\Active_Bike_Lighting_System\Radar_Core/Libraries/CMSIS/Include\core_cmInstr.h **** 
 318:C:\Users\Depes Crystalline\Desktop\school\Active_Bike_Lighting_System\Radar_Core/Libraries/CMSIS/Include\core_cmInstr.h **** /** \brief  LDRT Unprivileged (16 bit)
 319:C:\Users\Depes Crystalline\Desktop\school\Active_Bike_Lighting_System\Radar_Core/Libraries/CMSIS/Include\core_cmInstr.h **** 
 320:C:\Users\Depes Crystalline\Desktop\school\Active_Bike_Lighting_System\Radar_Core/Libraries/CMSIS/Include\core_cmInstr.h ****     This function executes a Unprivileged LDRT instruction for 16 bit values.
 321:C:\Users\Depes Crystalline\Desktop\school\Active_Bike_Lighting_System\Radar_Core/Libraries/CMSIS/Include\core_cmInstr.h **** 
 322:C:\Users\Depes Crystalline\Desktop\school\Active_Bike_Lighting_System\Radar_Core/Libraries/CMSIS/Include\core_cmInstr.h ****     \param [in]    ptr  Pointer to data
 323:C:\Users\Depes Crystalline\Desktop\school\Active_Bike_Lighting_System\Radar_Core/Libraries/CMSIS/Include\core_cmInstr.h ****     \return        value of type uint16_t at (*ptr)
 324:C:\Users\Depes Crystalline\Desktop\school\Active_Bike_Lighting_System\Radar_Core/Libraries/CMSIS/Include\core_cmInstr.h ****  */
 325:C:\Users\Depes Crystalline\Desktop\school\Active_Bike_Lighting_System\Radar_Core/Libraries/CMSIS/Include\core_cmInstr.h **** #define __LDRHT(ptr)                      ((uint16_t)  __ldrt(ptr))
 326:C:\Users\Depes Crystalline\Desktop\school\Active_Bike_Lighting_System\Radar_Core/Libraries/CMSIS/Include\core_cmInstr.h **** 
 327:C:\Users\Depes Crystalline\Desktop\school\Active_Bike_Lighting_System\Radar_Core/Libraries/CMSIS/Include\core_cmInstr.h **** 
 328:C:\Users\Depes Crystalline\Desktop\school\Active_Bike_Lighting_System\Radar_Core/Libraries/CMSIS/Include\core_cmInstr.h **** /** \brief  LDRT Unprivileged (32 bit)
 329:C:\Users\Depes Crystalline\Desktop\school\Active_Bike_Lighting_System\Radar_Core/Libraries/CMSIS/Include\core_cmInstr.h **** 
 330:C:\Users\Depes Crystalline\Desktop\school\Active_Bike_Lighting_System\Radar_Core/Libraries/CMSIS/Include\core_cmInstr.h ****     This function executes a Unprivileged LDRT instruction for 32 bit values.
 331:C:\Users\Depes Crystalline\Desktop\school\Active_Bike_Lighting_System\Radar_Core/Libraries/CMSIS/Include\core_cmInstr.h **** 
 332:C:\Users\Depes Crystalline\Desktop\school\Active_Bike_Lighting_System\Radar_Core/Libraries/CMSIS/Include\core_cmInstr.h ****     \param [in]    ptr  Pointer to data
 333:C:\Users\Depes Crystalline\Desktop\school\Active_Bike_Lighting_System\Radar_Core/Libraries/CMSIS/Include\core_cmInstr.h ****     \return        value of type uint32_t at (*ptr)
 334:C:\Users\Depes Crystalline\Desktop\school\Active_Bike_Lighting_System\Radar_Core/Libraries/CMSIS/Include\core_cmInstr.h ****  */
 335:C:\Users\Depes Crystalline\Desktop\school\Active_Bike_Lighting_System\Radar_Core/Libraries/CMSIS/Include\core_cmInstr.h **** #define __LDRT(ptr)                       ((uint32_t ) __ldrt(ptr))
 336:C:\Users\Depes Crystalline\Desktop\school\Active_Bike_Lighting_System\Radar_Core/Libraries/CMSIS/Include\core_cmInstr.h **** 
 337:C:\Users\Depes Crystalline\Desktop\school\Active_Bike_Lighting_System\Radar_Core/Libraries/CMSIS/Include\core_cmInstr.h **** 
 338:C:\Users\Depes Crystalline\Desktop\school\Active_Bike_Lighting_System\Radar_Core/Libraries/CMSIS/Include\core_cmInstr.h **** /** \brief  STRT Unprivileged (8 bit)
 339:C:\Users\Depes Crystalline\Desktop\school\Active_Bike_Lighting_System\Radar_Core/Libraries/CMSIS/Include\core_cmInstr.h **** 
 340:C:\Users\Depes Crystalline\Desktop\school\Active_Bike_Lighting_System\Radar_Core/Libraries/CMSIS/Include\core_cmInstr.h ****     This function executes a Unprivileged STRT instruction for 8 bit values.
 341:C:\Users\Depes Crystalline\Desktop\school\Active_Bike_Lighting_System\Radar_Core/Libraries/CMSIS/Include\core_cmInstr.h **** 
 342:C:\Users\Depes Crystalline\Desktop\school\Active_Bike_Lighting_System\Radar_Core/Libraries/CMSIS/Include\core_cmInstr.h ****     \param [in]  value  Value to store
 343:C:\Users\Depes Crystalline\Desktop\school\Active_Bike_Lighting_System\Radar_Core/Libraries/CMSIS/Include\core_cmInstr.h ****     \param [in]    ptr  Pointer to location
 344:C:\Users\Depes Crystalline\Desktop\school\Active_Bike_Lighting_System\Radar_Core/Libraries/CMSIS/Include\core_cmInstr.h ****  */
 345:C:\Users\Depes Crystalline\Desktop\school\Active_Bike_Lighting_System\Radar_Core/Libraries/CMSIS/Include\core_cmInstr.h **** #define __STRBT(value, ptr)               __strt(value, ptr)
 346:C:\Users\Depes Crystalline\Desktop\school\Active_Bike_Lighting_System\Radar_Core/Libraries/CMSIS/Include\core_cmInstr.h **** 
 347:C:\Users\Depes Crystalline\Desktop\school\Active_Bike_Lighting_System\Radar_Core/Libraries/CMSIS/Include\core_cmInstr.h **** 
 348:C:\Users\Depes Crystalline\Desktop\school\Active_Bike_Lighting_System\Radar_Core/Libraries/CMSIS/Include\core_cmInstr.h **** /** \brief  STRT Unprivileged (16 bit)
 349:C:\Users\Depes Crystalline\Desktop\school\Active_Bike_Lighting_System\Radar_Core/Libraries/CMSIS/Include\core_cmInstr.h **** 
 350:C:\Users\Depes Crystalline\Desktop\school\Active_Bike_Lighting_System\Radar_Core/Libraries/CMSIS/Include\core_cmInstr.h ****     This function executes a Unprivileged STRT instruction for 16 bit values.
 351:C:\Users\Depes Crystalline\Desktop\school\Active_Bike_Lighting_System\Radar_Core/Libraries/CMSIS/Include\core_cmInstr.h **** 
 352:C:\Users\Depes Crystalline\Desktop\school\Active_Bike_Lighting_System\Radar_Core/Libraries/CMSIS/Include\core_cmInstr.h ****     \param [in]  value  Value to store
 353:C:\Users\Depes Crystalline\Desktop\school\Active_Bike_Lighting_System\Radar_Core/Libraries/CMSIS/Include\core_cmInstr.h ****     \param [in]    ptr  Pointer to location
 354:C:\Users\Depes Crystalline\Desktop\school\Active_Bike_Lighting_System\Radar_Core/Libraries/CMSIS/Include\core_cmInstr.h ****  */
 355:C:\Users\Depes Crystalline\Desktop\school\Active_Bike_Lighting_System\Radar_Core/Libraries/CMSIS/Include\core_cmInstr.h **** #define __STRHT(value, ptr)               __strt(value, ptr)
 356:C:\Users\Depes Crystalline\Desktop\school\Active_Bike_Lighting_System\Radar_Core/Libraries/CMSIS/Include\core_cmInstr.h **** 
 357:C:\Users\Depes Crystalline\Desktop\school\Active_Bike_Lighting_System\Radar_Core/Libraries/CMSIS/Include\core_cmInstr.h **** 
 358:C:\Users\Depes Crystalline\Desktop\school\Active_Bike_Lighting_System\Radar_Core/Libraries/CMSIS/Include\core_cmInstr.h **** /** \brief  STRT Unprivileged (32 bit)
 359:C:\Users\Depes Crystalline\Desktop\school\Active_Bike_Lighting_System\Radar_Core/Libraries/CMSIS/Include\core_cmInstr.h **** 
 360:C:\Users\Depes Crystalline\Desktop\school\Active_Bike_Lighting_System\Radar_Core/Libraries/CMSIS/Include\core_cmInstr.h ****     This function executes a Unprivileged STRT instruction for 32 bit values.
 361:C:\Users\Depes Crystalline\Desktop\school\Active_Bike_Lighting_System\Radar_Core/Libraries/CMSIS/Include\core_cmInstr.h **** 
 362:C:\Users\Depes Crystalline\Desktop\school\Active_Bike_Lighting_System\Radar_Core/Libraries/CMSIS/Include\core_cmInstr.h ****     \param [in]  value  Value to store
 363:C:\Users\Depes Crystalline\Desktop\school\Active_Bike_Lighting_System\Radar_Core/Libraries/CMSIS/Include\core_cmInstr.h ****     \param [in]    ptr  Pointer to location
 364:C:\Users\Depes Crystalline\Desktop\school\Active_Bike_Lighting_System\Radar_Core/Libraries/CMSIS/Include\core_cmInstr.h ****  */
 365:C:\Users\Depes Crystalline\Desktop\school\Active_Bike_Lighting_System\Radar_Core/Libraries/CMSIS/Include\core_cmInstr.h **** #define __STRT(value, ptr)                __strt(value, ptr)
 366:C:\Users\Depes Crystalline\Desktop\school\Active_Bike_Lighting_System\Radar_Core/Libraries/CMSIS/Include\core_cmInstr.h **** 
 367:C:\Users\Depes Crystalline\Desktop\school\Active_Bike_Lighting_System\Radar_Core/Libraries/CMSIS/Include\core_cmInstr.h **** #endif /* (__CORTEX_M >= 0x03) || (__CORTEX_SC >= 300) */
 368:C:\Users\Depes Crystalline\Desktop\school\Active_Bike_Lighting_System\Radar_Core/Libraries/CMSIS/Include\core_cmInstr.h **** 
 369:C:\Users\Depes Crystalline\Desktop\school\Active_Bike_Lighting_System\Radar_Core/Libraries/CMSIS/Include\core_cmInstr.h **** 
 370:C:\Users\Depes Crystalline\Desktop\school\Active_Bike_Lighting_System\Radar_Core/Libraries/CMSIS/Include\core_cmInstr.h **** #elif defined ( __GNUC__ ) /*------------------ GNU Compiler ---------------------*/
 371:C:\Users\Depes Crystalline\Desktop\school\Active_Bike_Lighting_System\Radar_Core/Libraries/CMSIS/Include\core_cmInstr.h **** /* GNU gcc specific functions */
 372:C:\Users\Depes Crystalline\Desktop\school\Active_Bike_Lighting_System\Radar_Core/Libraries/CMSIS/Include\core_cmInstr.h **** 
 373:C:\Users\Depes Crystalline\Desktop\school\Active_Bike_Lighting_System\Radar_Core/Libraries/CMSIS/Include\core_cmInstr.h **** /* Define macros for porting to both thumb1 and thumb2.
 374:C:\Users\Depes Crystalline\Desktop\school\Active_Bike_Lighting_System\Radar_Core/Libraries/CMSIS/Include\core_cmInstr.h ****  * For thumb1, use low register (r0-r7), specified by constrant "l"
 375:C:\Users\Depes Crystalline\Desktop\school\Active_Bike_Lighting_System\Radar_Core/Libraries/CMSIS/Include\core_cmInstr.h ****  * Otherwise, use general registers, specified by constrant "r" */
 376:C:\Users\Depes Crystalline\Desktop\school\Active_Bike_Lighting_System\Radar_Core/Libraries/CMSIS/Include\core_cmInstr.h **** #if defined (__thumb__) && !defined (__thumb2__)
 377:C:\Users\Depes Crystalline\Desktop\school\Active_Bike_Lighting_System\Radar_Core/Libraries/CMSIS/Include\core_cmInstr.h **** #define __CMSIS_GCC_OUT_REG(r) "=l" (r)
 378:C:\Users\Depes Crystalline\Desktop\school\Active_Bike_Lighting_System\Radar_Core/Libraries/CMSIS/Include\core_cmInstr.h **** #define __CMSIS_GCC_USE_REG(r) "l" (r)
 379:C:\Users\Depes Crystalline\Desktop\school\Active_Bike_Lighting_System\Radar_Core/Libraries/CMSIS/Include\core_cmInstr.h **** #else
 380:C:\Users\Depes Crystalline\Desktop\school\Active_Bike_Lighting_System\Radar_Core/Libraries/CMSIS/Include\core_cmInstr.h **** #define __CMSIS_GCC_OUT_REG(r) "=r" (r)
 381:C:\Users\Depes Crystalline\Desktop\school\Active_Bike_Lighting_System\Radar_Core/Libraries/CMSIS/Include\core_cmInstr.h **** #define __CMSIS_GCC_USE_REG(r) "r" (r)
 382:C:\Users\Depes Crystalline\Desktop\school\Active_Bike_Lighting_System\Radar_Core/Libraries/CMSIS/Include\core_cmInstr.h **** #endif
 383:C:\Users\Depes Crystalline\Desktop\school\Active_Bike_Lighting_System\Radar_Core/Libraries/CMSIS/Include\core_cmInstr.h **** 
 384:C:\Users\Depes Crystalline\Desktop\school\Active_Bike_Lighting_System\Radar_Core/Libraries/CMSIS/Include\core_cmInstr.h **** /** \brief  No Operation
 385:C:\Users\Depes Crystalline\Desktop\school\Active_Bike_Lighting_System\Radar_Core/Libraries/CMSIS/Include\core_cmInstr.h **** 
 386:C:\Users\Depes Crystalline\Desktop\school\Active_Bike_Lighting_System\Radar_Core/Libraries/CMSIS/Include\core_cmInstr.h ****     No Operation does nothing. This instruction can be used for code alignment purposes.
 387:C:\Users\Depes Crystalline\Desktop\school\Active_Bike_Lighting_System\Radar_Core/Libraries/CMSIS/Include\core_cmInstr.h ****  */
 388:C:\Users\Depes Crystalline\Desktop\school\Active_Bike_Lighting_System\Radar_Core/Libraries/CMSIS/Include\core_cmInstr.h **** __attribute__( ( always_inline ) ) __STATIC_INLINE void __NOP(void)
 389:C:\Users\Depes Crystalline\Desktop\school\Active_Bike_Lighting_System\Radar_Core/Libraries/CMSIS/Include\core_cmInstr.h **** {
 390:C:\Users\Depes Crystalline\Desktop\school\Active_Bike_Lighting_System\Radar_Core/Libraries/CMSIS/Include\core_cmInstr.h ****   __ASM volatile ("nop");
 391:C:\Users\Depes Crystalline\Desktop\school\Active_Bike_Lighting_System\Radar_Core/Libraries/CMSIS/Include\core_cmInstr.h **** }
 392:C:\Users\Depes Crystalline\Desktop\school\Active_Bike_Lighting_System\Radar_Core/Libraries/CMSIS/Include\core_cmInstr.h **** 
 393:C:\Users\Depes Crystalline\Desktop\school\Active_Bike_Lighting_System\Radar_Core/Libraries/CMSIS/Include\core_cmInstr.h **** 
 394:C:\Users\Depes Crystalline\Desktop\school\Active_Bike_Lighting_System\Radar_Core/Libraries/CMSIS/Include\core_cmInstr.h **** /** \brief  Wait For Interrupt
 395:C:\Users\Depes Crystalline\Desktop\school\Active_Bike_Lighting_System\Radar_Core/Libraries/CMSIS/Include\core_cmInstr.h **** 
 396:C:\Users\Depes Crystalline\Desktop\school\Active_Bike_Lighting_System\Radar_Core/Libraries/CMSIS/Include\core_cmInstr.h ****     Wait For Interrupt is a hint instruction that suspends execution
 397:C:\Users\Depes Crystalline\Desktop\school\Active_Bike_Lighting_System\Radar_Core/Libraries/CMSIS/Include\core_cmInstr.h ****     until one of a number of events occurs.
 398:C:\Users\Depes Crystalline\Desktop\school\Active_Bike_Lighting_System\Radar_Core/Libraries/CMSIS/Include\core_cmInstr.h ****  */
 399:C:\Users\Depes Crystalline\Desktop\school\Active_Bike_Lighting_System\Radar_Core/Libraries/CMSIS/Include\core_cmInstr.h **** __attribute__( ( always_inline ) ) __STATIC_INLINE void __WFI(void)
 400:C:\Users\Depes Crystalline\Desktop\school\Active_Bike_Lighting_System\Radar_Core/Libraries/CMSIS/Include\core_cmInstr.h **** {
 401:C:\Users\Depes Crystalline\Desktop\school\Active_Bike_Lighting_System\Radar_Core/Libraries/CMSIS/Include\core_cmInstr.h ****   __ASM volatile ("wfi");
 402:C:\Users\Depes Crystalline\Desktop\school\Active_Bike_Lighting_System\Radar_Core/Libraries/CMSIS/Include\core_cmInstr.h **** }
 403:C:\Users\Depes Crystalline\Desktop\school\Active_Bike_Lighting_System\Radar_Core/Libraries/CMSIS/Include\core_cmInstr.h **** 
 404:C:\Users\Depes Crystalline\Desktop\school\Active_Bike_Lighting_System\Radar_Core/Libraries/CMSIS/Include\core_cmInstr.h **** 
 405:C:\Users\Depes Crystalline\Desktop\school\Active_Bike_Lighting_System\Radar_Core/Libraries/CMSIS/Include\core_cmInstr.h **** /** \brief  Wait For Event
 406:C:\Users\Depes Crystalline\Desktop\school\Active_Bike_Lighting_System\Radar_Core/Libraries/CMSIS/Include\core_cmInstr.h **** 
 407:C:\Users\Depes Crystalline\Desktop\school\Active_Bike_Lighting_System\Radar_Core/Libraries/CMSIS/Include\core_cmInstr.h ****     Wait For Event is a hint instruction that permits the processor to enter
 408:C:\Users\Depes Crystalline\Desktop\school\Active_Bike_Lighting_System\Radar_Core/Libraries/CMSIS/Include\core_cmInstr.h ****     a low-power state until one of a number of events occurs.
 409:C:\Users\Depes Crystalline\Desktop\school\Active_Bike_Lighting_System\Radar_Core/Libraries/CMSIS/Include\core_cmInstr.h ****  */
 410:C:\Users\Depes Crystalline\Desktop\school\Active_Bike_Lighting_System\Radar_Core/Libraries/CMSIS/Include\core_cmInstr.h **** __attribute__( ( always_inline ) ) __STATIC_INLINE void __WFE(void)
 411:C:\Users\Depes Crystalline\Desktop\school\Active_Bike_Lighting_System\Radar_Core/Libraries/CMSIS/Include\core_cmInstr.h **** {
 412:C:\Users\Depes Crystalline\Desktop\school\Active_Bike_Lighting_System\Radar_Core/Libraries/CMSIS/Include\core_cmInstr.h ****   __ASM volatile ("wfe");
 413:C:\Users\Depes Crystalline\Desktop\school\Active_Bike_Lighting_System\Radar_Core/Libraries/CMSIS/Include\core_cmInstr.h **** }
 414:C:\Users\Depes Crystalline\Desktop\school\Active_Bike_Lighting_System\Radar_Core/Libraries/CMSIS/Include\core_cmInstr.h **** 
 415:C:\Users\Depes Crystalline\Desktop\school\Active_Bike_Lighting_System\Radar_Core/Libraries/CMSIS/Include\core_cmInstr.h **** 
 416:C:\Users\Depes Crystalline\Desktop\school\Active_Bike_Lighting_System\Radar_Core/Libraries/CMSIS/Include\core_cmInstr.h **** /** \brief  Send Event
 417:C:\Users\Depes Crystalline\Desktop\school\Active_Bike_Lighting_System\Radar_Core/Libraries/CMSIS/Include\core_cmInstr.h **** 
 418:C:\Users\Depes Crystalline\Desktop\school\Active_Bike_Lighting_System\Radar_Core/Libraries/CMSIS/Include\core_cmInstr.h ****     Send Event is a hint instruction. It causes an event to be signaled to the CPU.
 419:C:\Users\Depes Crystalline\Desktop\school\Active_Bike_Lighting_System\Radar_Core/Libraries/CMSIS/Include\core_cmInstr.h ****  */
 420:C:\Users\Depes Crystalline\Desktop\school\Active_Bike_Lighting_System\Radar_Core/Libraries/CMSIS/Include\core_cmInstr.h **** __attribute__( ( always_inline ) ) __STATIC_INLINE void __SEV(void)
 421:C:\Users\Depes Crystalline\Desktop\school\Active_Bike_Lighting_System\Radar_Core/Libraries/CMSIS/Include\core_cmInstr.h **** {
 422:C:\Users\Depes Crystalline\Desktop\school\Active_Bike_Lighting_System\Radar_Core/Libraries/CMSIS/Include\core_cmInstr.h ****   __ASM volatile ("sev");
 423:C:\Users\Depes Crystalline\Desktop\school\Active_Bike_Lighting_System\Radar_Core/Libraries/CMSIS/Include\core_cmInstr.h **** }
 424:C:\Users\Depes Crystalline\Desktop\school\Active_Bike_Lighting_System\Radar_Core/Libraries/CMSIS/Include\core_cmInstr.h **** 
 425:C:\Users\Depes Crystalline\Desktop\school\Active_Bike_Lighting_System\Radar_Core/Libraries/CMSIS/Include\core_cmInstr.h **** 
 426:C:\Users\Depes Crystalline\Desktop\school\Active_Bike_Lighting_System\Radar_Core/Libraries/CMSIS/Include\core_cmInstr.h **** /** \brief  Instruction Synchronization Barrier
 427:C:\Users\Depes Crystalline\Desktop\school\Active_Bike_Lighting_System\Radar_Core/Libraries/CMSIS/Include\core_cmInstr.h **** 
 428:C:\Users\Depes Crystalline\Desktop\school\Active_Bike_Lighting_System\Radar_Core/Libraries/CMSIS/Include\core_cmInstr.h ****     Instruction Synchronization Barrier flushes the pipeline in the processor,
 429:C:\Users\Depes Crystalline\Desktop\school\Active_Bike_Lighting_System\Radar_Core/Libraries/CMSIS/Include\core_cmInstr.h ****     so that all instructions following the ISB are fetched from cache or
 430:C:\Users\Depes Crystalline\Desktop\school\Active_Bike_Lighting_System\Radar_Core/Libraries/CMSIS/Include\core_cmInstr.h ****     memory, after the instruction has been completed.
 431:C:\Users\Depes Crystalline\Desktop\school\Active_Bike_Lighting_System\Radar_Core/Libraries/CMSIS/Include\core_cmInstr.h ****  */
 432:C:\Users\Depes Crystalline\Desktop\school\Active_Bike_Lighting_System\Radar_Core/Libraries/CMSIS/Include\core_cmInstr.h **** __attribute__( ( always_inline ) ) __STATIC_INLINE void __ISB(void)
 433:C:\Users\Depes Crystalline\Desktop\school\Active_Bike_Lighting_System\Radar_Core/Libraries/CMSIS/Include\core_cmInstr.h **** {
 434:C:\Users\Depes Crystalline\Desktop\school\Active_Bike_Lighting_System\Radar_Core/Libraries/CMSIS/Include\core_cmInstr.h ****   __ASM volatile ("isb");
 435:C:\Users\Depes Crystalline\Desktop\school\Active_Bike_Lighting_System\Radar_Core/Libraries/CMSIS/Include\core_cmInstr.h **** }
 436:C:\Users\Depes Crystalline\Desktop\school\Active_Bike_Lighting_System\Radar_Core/Libraries/CMSIS/Include\core_cmInstr.h **** 
 437:C:\Users\Depes Crystalline\Desktop\school\Active_Bike_Lighting_System\Radar_Core/Libraries/CMSIS/Include\core_cmInstr.h **** 
 438:C:\Users\Depes Crystalline\Desktop\school\Active_Bike_Lighting_System\Radar_Core/Libraries/CMSIS/Include\core_cmInstr.h **** /** \brief  Data Synchronization Barrier
 439:C:\Users\Depes Crystalline\Desktop\school\Active_Bike_Lighting_System\Radar_Core/Libraries/CMSIS/Include\core_cmInstr.h **** 
 440:C:\Users\Depes Crystalline\Desktop\school\Active_Bike_Lighting_System\Radar_Core/Libraries/CMSIS/Include\core_cmInstr.h ****     This function acts as a special kind of Data Memory Barrier.
 441:C:\Users\Depes Crystalline\Desktop\school\Active_Bike_Lighting_System\Radar_Core/Libraries/CMSIS/Include\core_cmInstr.h ****     It completes when all explicit memory accesses before this instruction complete.
 442:C:\Users\Depes Crystalline\Desktop\school\Active_Bike_Lighting_System\Radar_Core/Libraries/CMSIS/Include\core_cmInstr.h ****  */
 443:C:\Users\Depes Crystalline\Desktop\school\Active_Bike_Lighting_System\Radar_Core/Libraries/CMSIS/Include\core_cmInstr.h **** __attribute__( ( always_inline ) ) __STATIC_INLINE void __DSB(void)
 444:C:\Users\Depes Crystalline\Desktop\school\Active_Bike_Lighting_System\Radar_Core/Libraries/CMSIS/Include\core_cmInstr.h **** {
 445:C:\Users\Depes Crystalline\Desktop\school\Active_Bike_Lighting_System\Radar_Core/Libraries/CMSIS/Include\core_cmInstr.h ****   __ASM volatile ("dsb");
 446:C:\Users\Depes Crystalline\Desktop\school\Active_Bike_Lighting_System\Radar_Core/Libraries/CMSIS/Include\core_cmInstr.h **** }
 447:C:\Users\Depes Crystalline\Desktop\school\Active_Bike_Lighting_System\Radar_Core/Libraries/CMSIS/Include\core_cmInstr.h **** 
 448:C:\Users\Depes Crystalline\Desktop\school\Active_Bike_Lighting_System\Radar_Core/Libraries/CMSIS/Include\core_cmInstr.h **** 
 449:C:\Users\Depes Crystalline\Desktop\school\Active_Bike_Lighting_System\Radar_Core/Libraries/CMSIS/Include\core_cmInstr.h **** /** \brief  Data Memory Barrier
 450:C:\Users\Depes Crystalline\Desktop\school\Active_Bike_Lighting_System\Radar_Core/Libraries/CMSIS/Include\core_cmInstr.h **** 
 451:C:\Users\Depes Crystalline\Desktop\school\Active_Bike_Lighting_System\Radar_Core/Libraries/CMSIS/Include\core_cmInstr.h ****     This function ensures the apparent order of the explicit memory operations before
 452:C:\Users\Depes Crystalline\Desktop\school\Active_Bike_Lighting_System\Radar_Core/Libraries/CMSIS/Include\core_cmInstr.h ****     and after the instruction, without ensuring their completion.
 453:C:\Users\Depes Crystalline\Desktop\school\Active_Bike_Lighting_System\Radar_Core/Libraries/CMSIS/Include\core_cmInstr.h ****  */
 454:C:\Users\Depes Crystalline\Desktop\school\Active_Bike_Lighting_System\Radar_Core/Libraries/CMSIS/Include\core_cmInstr.h **** __attribute__( ( always_inline ) ) __STATIC_INLINE void __DMB(void)
 455:C:\Users\Depes Crystalline\Desktop\school\Active_Bike_Lighting_System\Radar_Core/Libraries/CMSIS/Include\core_cmInstr.h **** {
 456:C:\Users\Depes Crystalline\Desktop\school\Active_Bike_Lighting_System\Radar_Core/Libraries/CMSIS/Include\core_cmInstr.h ****   __ASM volatile ("dmb");
 457:C:\Users\Depes Crystalline\Desktop\school\Active_Bike_Lighting_System\Radar_Core/Libraries/CMSIS/Include\core_cmInstr.h **** }
 458:C:\Users\Depes Crystalline\Desktop\school\Active_Bike_Lighting_System\Radar_Core/Libraries/CMSIS/Include\core_cmInstr.h **** 
 459:C:\Users\Depes Crystalline\Desktop\school\Active_Bike_Lighting_System\Radar_Core/Libraries/CMSIS/Include\core_cmInstr.h **** 
 460:C:\Users\Depes Crystalline\Desktop\school\Active_Bike_Lighting_System\Radar_Core/Libraries/CMSIS/Include\core_cmInstr.h **** /** \brief  Reverse byte order (32 bit)
 461:C:\Users\Depes Crystalline\Desktop\school\Active_Bike_Lighting_System\Radar_Core/Libraries/CMSIS/Include\core_cmInstr.h **** 
 462:C:\Users\Depes Crystalline\Desktop\school\Active_Bike_Lighting_System\Radar_Core/Libraries/CMSIS/Include\core_cmInstr.h ****     This function reverses the byte order in integer value.
 463:C:\Users\Depes Crystalline\Desktop\school\Active_Bike_Lighting_System\Radar_Core/Libraries/CMSIS/Include\core_cmInstr.h **** 
 464:C:\Users\Depes Crystalline\Desktop\school\Active_Bike_Lighting_System\Radar_Core/Libraries/CMSIS/Include\core_cmInstr.h ****     \param [in]    value  Value to reverse
 465:C:\Users\Depes Crystalline\Desktop\school\Active_Bike_Lighting_System\Radar_Core/Libraries/CMSIS/Include\core_cmInstr.h ****     \return               Reversed value
 466:C:\Users\Depes Crystalline\Desktop\school\Active_Bike_Lighting_System\Radar_Core/Libraries/CMSIS/Include\core_cmInstr.h ****  */
 467:C:\Users\Depes Crystalline\Desktop\school\Active_Bike_Lighting_System\Radar_Core/Libraries/CMSIS/Include\core_cmInstr.h **** __attribute__( ( always_inline ) ) __STATIC_INLINE uint32_t __REV(uint32_t value)
 468:C:\Users\Depes Crystalline\Desktop\school\Active_Bike_Lighting_System\Radar_Core/Libraries/CMSIS/Include\core_cmInstr.h **** {
 469:C:\Users\Depes Crystalline\Desktop\school\Active_Bike_Lighting_System\Radar_Core/Libraries/CMSIS/Include\core_cmInstr.h **** #if (__GNUC__ > 4) || (__GNUC__ == 4 && __GNUC_MINOR__ >= 5)
 470:C:\Users\Depes Crystalline\Desktop\school\Active_Bike_Lighting_System\Radar_Core/Libraries/CMSIS/Include\core_cmInstr.h ****   return __builtin_bswap32(value);
 471:C:\Users\Depes Crystalline\Desktop\school\Active_Bike_Lighting_System\Radar_Core/Libraries/CMSIS/Include\core_cmInstr.h **** #else
 472:C:\Users\Depes Crystalline\Desktop\school\Active_Bike_Lighting_System\Radar_Core/Libraries/CMSIS/Include\core_cmInstr.h ****   uint32_t result;
 473:C:\Users\Depes Crystalline\Desktop\school\Active_Bike_Lighting_System\Radar_Core/Libraries/CMSIS/Include\core_cmInstr.h **** 
 474:C:\Users\Depes Crystalline\Desktop\school\Active_Bike_Lighting_System\Radar_Core/Libraries/CMSIS/Include\core_cmInstr.h ****   __ASM volatile ("rev %0, %1" : __CMSIS_GCC_OUT_REG (result) : __CMSIS_GCC_USE_REG (value) );
 475:C:\Users\Depes Crystalline\Desktop\school\Active_Bike_Lighting_System\Radar_Core/Libraries/CMSIS/Include\core_cmInstr.h ****   return(result);
 476:C:\Users\Depes Crystalline\Desktop\school\Active_Bike_Lighting_System\Radar_Core/Libraries/CMSIS/Include\core_cmInstr.h **** #endif
 477:C:\Users\Depes Crystalline\Desktop\school\Active_Bike_Lighting_System\Radar_Core/Libraries/CMSIS/Include\core_cmInstr.h **** }
 478:C:\Users\Depes Crystalline\Desktop\school\Active_Bike_Lighting_System\Radar_Core/Libraries/CMSIS/Include\core_cmInstr.h **** 
 479:C:\Users\Depes Crystalline\Desktop\school\Active_Bike_Lighting_System\Radar_Core/Libraries/CMSIS/Include\core_cmInstr.h **** 
 480:C:\Users\Depes Crystalline\Desktop\school\Active_Bike_Lighting_System\Radar_Core/Libraries/CMSIS/Include\core_cmInstr.h **** /** \brief  Reverse byte order (16 bit)
 481:C:\Users\Depes Crystalline\Desktop\school\Active_Bike_Lighting_System\Radar_Core/Libraries/CMSIS/Include\core_cmInstr.h **** 
 482:C:\Users\Depes Crystalline\Desktop\school\Active_Bike_Lighting_System\Radar_Core/Libraries/CMSIS/Include\core_cmInstr.h ****     This function reverses the byte order in two unsigned short values.
 483:C:\Users\Depes Crystalline\Desktop\school\Active_Bike_Lighting_System\Radar_Core/Libraries/CMSIS/Include\core_cmInstr.h **** 
 484:C:\Users\Depes Crystalline\Desktop\school\Active_Bike_Lighting_System\Radar_Core/Libraries/CMSIS/Include\core_cmInstr.h ****     \param [in]    value  Value to reverse
 485:C:\Users\Depes Crystalline\Desktop\school\Active_Bike_Lighting_System\Radar_Core/Libraries/CMSIS/Include\core_cmInstr.h ****     \return               Reversed value
 486:C:\Users\Depes Crystalline\Desktop\school\Active_Bike_Lighting_System\Radar_Core/Libraries/CMSIS/Include\core_cmInstr.h ****  */
 487:C:\Users\Depes Crystalline\Desktop\school\Active_Bike_Lighting_System\Radar_Core/Libraries/CMSIS/Include\core_cmInstr.h **** __attribute__( ( always_inline ) ) __STATIC_INLINE uint32_t __REV16(uint32_t value)
 488:C:\Users\Depes Crystalline\Desktop\school\Active_Bike_Lighting_System\Radar_Core/Libraries/CMSIS/Include\core_cmInstr.h **** {
 489:C:\Users\Depes Crystalline\Desktop\school\Active_Bike_Lighting_System\Radar_Core/Libraries/CMSIS/Include\core_cmInstr.h ****   uint32_t result;
 490:C:\Users\Depes Crystalline\Desktop\school\Active_Bike_Lighting_System\Radar_Core/Libraries/CMSIS/Include\core_cmInstr.h **** 
 491:C:\Users\Depes Crystalline\Desktop\school\Active_Bike_Lighting_System\Radar_Core/Libraries/CMSIS/Include\core_cmInstr.h ****   __ASM volatile ("rev16 %0, %1" : __CMSIS_GCC_OUT_REG (result) : __CMSIS_GCC_USE_REG (value) );
 492:C:\Users\Depes Crystalline\Desktop\school\Active_Bike_Lighting_System\Radar_Core/Libraries/CMSIS/Include\core_cmInstr.h ****   return(result);
 493:C:\Users\Depes Crystalline\Desktop\school\Active_Bike_Lighting_System\Radar_Core/Libraries/CMSIS/Include\core_cmInstr.h **** }
 494:C:\Users\Depes Crystalline\Desktop\school\Active_Bike_Lighting_System\Radar_Core/Libraries/CMSIS/Include\core_cmInstr.h **** 
 495:C:\Users\Depes Crystalline\Desktop\school\Active_Bike_Lighting_System\Radar_Core/Libraries/CMSIS/Include\core_cmInstr.h **** 
 496:C:\Users\Depes Crystalline\Desktop\school\Active_Bike_Lighting_System\Radar_Core/Libraries/CMSIS/Include\core_cmInstr.h **** /** \brief  Reverse byte order in signed short value
 497:C:\Users\Depes Crystalline\Desktop\school\Active_Bike_Lighting_System\Radar_Core/Libraries/CMSIS/Include\core_cmInstr.h **** 
 498:C:\Users\Depes Crystalline\Desktop\school\Active_Bike_Lighting_System\Radar_Core/Libraries/CMSIS/Include\core_cmInstr.h ****     This function reverses the byte order in a signed short value with sign extension to integer.
 499:C:\Users\Depes Crystalline\Desktop\school\Active_Bike_Lighting_System\Radar_Core/Libraries/CMSIS/Include\core_cmInstr.h **** 
 500:C:\Users\Depes Crystalline\Desktop\school\Active_Bike_Lighting_System\Radar_Core/Libraries/CMSIS/Include\core_cmInstr.h ****     \param [in]    value  Value to reverse
 501:C:\Users\Depes Crystalline\Desktop\school\Active_Bike_Lighting_System\Radar_Core/Libraries/CMSIS/Include\core_cmInstr.h ****     \return               Reversed value
 502:C:\Users\Depes Crystalline\Desktop\school\Active_Bike_Lighting_System\Radar_Core/Libraries/CMSIS/Include\core_cmInstr.h ****  */
 503:C:\Users\Depes Crystalline\Desktop\school\Active_Bike_Lighting_System\Radar_Core/Libraries/CMSIS/Include\core_cmInstr.h **** __attribute__( ( always_inline ) ) __STATIC_INLINE int32_t __REVSH(int32_t value)
 504:C:\Users\Depes Crystalline\Desktop\school\Active_Bike_Lighting_System\Radar_Core/Libraries/CMSIS/Include\core_cmInstr.h **** {
 505:C:\Users\Depes Crystalline\Desktop\school\Active_Bike_Lighting_System\Radar_Core/Libraries/CMSIS/Include\core_cmInstr.h **** #if (__GNUC__ > 4) || (__GNUC__ == 4 && __GNUC_MINOR__ >= 8)
 506:C:\Users\Depes Crystalline\Desktop\school\Active_Bike_Lighting_System\Radar_Core/Libraries/CMSIS/Include\core_cmInstr.h ****   return (short)__builtin_bswap16(value);
 507:C:\Users\Depes Crystalline\Desktop\school\Active_Bike_Lighting_System\Radar_Core/Libraries/CMSIS/Include\core_cmInstr.h **** #else
 508:C:\Users\Depes Crystalline\Desktop\school\Active_Bike_Lighting_System\Radar_Core/Libraries/CMSIS/Include\core_cmInstr.h ****   uint32_t result;
 509:C:\Users\Depes Crystalline\Desktop\school\Active_Bike_Lighting_System\Radar_Core/Libraries/CMSIS/Include\core_cmInstr.h **** 
 510:C:\Users\Depes Crystalline\Desktop\school\Active_Bike_Lighting_System\Radar_Core/Libraries/CMSIS/Include\core_cmInstr.h ****   __ASM volatile ("revsh %0, %1" : __CMSIS_GCC_OUT_REG (result) : __CMSIS_GCC_USE_REG (value) );
 511:C:\Users\Depes Crystalline\Desktop\school\Active_Bike_Lighting_System\Radar_Core/Libraries/CMSIS/Include\core_cmInstr.h ****   return(result);
 512:C:\Users\Depes Crystalline\Desktop\school\Active_Bike_Lighting_System\Radar_Core/Libraries/CMSIS/Include\core_cmInstr.h **** #endif
 513:C:\Users\Depes Crystalline\Desktop\school\Active_Bike_Lighting_System\Radar_Core/Libraries/CMSIS/Include\core_cmInstr.h **** }
 514:C:\Users\Depes Crystalline\Desktop\school\Active_Bike_Lighting_System\Radar_Core/Libraries/CMSIS/Include\core_cmInstr.h **** 
 515:C:\Users\Depes Crystalline\Desktop\school\Active_Bike_Lighting_System\Radar_Core/Libraries/CMSIS/Include\core_cmInstr.h **** 
 516:C:\Users\Depes Crystalline\Desktop\school\Active_Bike_Lighting_System\Radar_Core/Libraries/CMSIS/Include\core_cmInstr.h **** /** \brief  Rotate Right in unsigned value (32 bit)
 517:C:\Users\Depes Crystalline\Desktop\school\Active_Bike_Lighting_System\Radar_Core/Libraries/CMSIS/Include\core_cmInstr.h **** 
 518:C:\Users\Depes Crystalline\Desktop\school\Active_Bike_Lighting_System\Radar_Core/Libraries/CMSIS/Include\core_cmInstr.h ****     This function Rotate Right (immediate) provides the value of the contents of a register rotated
 519:C:\Users\Depes Crystalline\Desktop\school\Active_Bike_Lighting_System\Radar_Core/Libraries/CMSIS/Include\core_cmInstr.h **** 
 520:C:\Users\Depes Crystalline\Desktop\school\Active_Bike_Lighting_System\Radar_Core/Libraries/CMSIS/Include\core_cmInstr.h ****     \param [in]    value  Value to rotate
 521:C:\Users\Depes Crystalline\Desktop\school\Active_Bike_Lighting_System\Radar_Core/Libraries/CMSIS/Include\core_cmInstr.h ****     \param [in]    value  Number of Bits to rotate
 522:C:\Users\Depes Crystalline\Desktop\school\Active_Bike_Lighting_System\Radar_Core/Libraries/CMSIS/Include\core_cmInstr.h ****     \return               Rotated value
 523:C:\Users\Depes Crystalline\Desktop\school\Active_Bike_Lighting_System\Radar_Core/Libraries/CMSIS/Include\core_cmInstr.h ****  */
 524:C:\Users\Depes Crystalline\Desktop\school\Active_Bike_Lighting_System\Radar_Core/Libraries/CMSIS/Include\core_cmInstr.h **** __attribute__( ( always_inline ) ) __STATIC_INLINE uint32_t __ROR(uint32_t op1, uint32_t op2)
 525:C:\Users\Depes Crystalline\Desktop\school\Active_Bike_Lighting_System\Radar_Core/Libraries/CMSIS/Include\core_cmInstr.h **** {
 526:C:\Users\Depes Crystalline\Desktop\school\Active_Bike_Lighting_System\Radar_Core/Libraries/CMSIS/Include\core_cmInstr.h ****   return (op1 >> op2) | (op1 << (32 - op2)); 
 527:C:\Users\Depes Crystalline\Desktop\school\Active_Bike_Lighting_System\Radar_Core/Libraries/CMSIS/Include\core_cmInstr.h **** }
 528:C:\Users\Depes Crystalline\Desktop\school\Active_Bike_Lighting_System\Radar_Core/Libraries/CMSIS/Include\core_cmInstr.h **** 
 529:C:\Users\Depes Crystalline\Desktop\school\Active_Bike_Lighting_System\Radar_Core/Libraries/CMSIS/Include\core_cmInstr.h **** 
 530:C:\Users\Depes Crystalline\Desktop\school\Active_Bike_Lighting_System\Radar_Core/Libraries/CMSIS/Include\core_cmInstr.h **** /** \brief  Breakpoint
 531:C:\Users\Depes Crystalline\Desktop\school\Active_Bike_Lighting_System\Radar_Core/Libraries/CMSIS/Include\core_cmInstr.h **** 
 532:C:\Users\Depes Crystalline\Desktop\school\Active_Bike_Lighting_System\Radar_Core/Libraries/CMSIS/Include\core_cmInstr.h ****     This function causes the processor to enter Debug state.
 533:C:\Users\Depes Crystalline\Desktop\school\Active_Bike_Lighting_System\Radar_Core/Libraries/CMSIS/Include\core_cmInstr.h ****     Debug tools can use this to investigate system state when the instruction at a particular addre
 534:C:\Users\Depes Crystalline\Desktop\school\Active_Bike_Lighting_System\Radar_Core/Libraries/CMSIS/Include\core_cmInstr.h **** 
 535:C:\Users\Depes Crystalline\Desktop\school\Active_Bike_Lighting_System\Radar_Core/Libraries/CMSIS/Include\core_cmInstr.h ****     \param [in]    value  is ignored by the processor.
 536:C:\Users\Depes Crystalline\Desktop\school\Active_Bike_Lighting_System\Radar_Core/Libraries/CMSIS/Include\core_cmInstr.h ****                    If required, a debugger can use it to store additional information about the bre
 537:C:\Users\Depes Crystalline\Desktop\school\Active_Bike_Lighting_System\Radar_Core/Libraries/CMSIS/Include\core_cmInstr.h ****  */
 538:C:\Users\Depes Crystalline\Desktop\school\Active_Bike_Lighting_System\Radar_Core/Libraries/CMSIS/Include\core_cmInstr.h **** #define __BKPT(value)                       __ASM volatile ("bkpt "#value)
 539:C:\Users\Depes Crystalline\Desktop\school\Active_Bike_Lighting_System\Radar_Core/Libraries/CMSIS/Include\core_cmInstr.h **** 
 540:C:\Users\Depes Crystalline\Desktop\school\Active_Bike_Lighting_System\Radar_Core/Libraries/CMSIS/Include\core_cmInstr.h **** 
 541:C:\Users\Depes Crystalline\Desktop\school\Active_Bike_Lighting_System\Radar_Core/Libraries/CMSIS/Include\core_cmInstr.h **** #if       (__CORTEX_M >= 0x03) || (__CORTEX_SC >= 300)
 542:C:\Users\Depes Crystalline\Desktop\school\Active_Bike_Lighting_System\Radar_Core/Libraries/CMSIS/Include\core_cmInstr.h **** 
 543:C:\Users\Depes Crystalline\Desktop\school\Active_Bike_Lighting_System\Radar_Core/Libraries/CMSIS/Include\core_cmInstr.h **** /** \brief  Reverse bit order of value
 544:C:\Users\Depes Crystalline\Desktop\school\Active_Bike_Lighting_System\Radar_Core/Libraries/CMSIS/Include\core_cmInstr.h **** 
 545:C:\Users\Depes Crystalline\Desktop\school\Active_Bike_Lighting_System\Radar_Core/Libraries/CMSIS/Include\core_cmInstr.h ****     This function reverses the bit order of the given value.
 546:C:\Users\Depes Crystalline\Desktop\school\Active_Bike_Lighting_System\Radar_Core/Libraries/CMSIS/Include\core_cmInstr.h **** 
 547:C:\Users\Depes Crystalline\Desktop\school\Active_Bike_Lighting_System\Radar_Core/Libraries/CMSIS/Include\core_cmInstr.h ****     \param [in]    value  Value to reverse
 548:C:\Users\Depes Crystalline\Desktop\school\Active_Bike_Lighting_System\Radar_Core/Libraries/CMSIS/Include\core_cmInstr.h ****     \return               Reversed value
 549:C:\Users\Depes Crystalline\Desktop\school\Active_Bike_Lighting_System\Radar_Core/Libraries/CMSIS/Include\core_cmInstr.h ****  */
 550:C:\Users\Depes Crystalline\Desktop\school\Active_Bike_Lighting_System\Radar_Core/Libraries/CMSIS/Include\core_cmInstr.h **** __attribute__( ( always_inline ) ) __STATIC_INLINE uint32_t __RBIT(uint32_t value)
 551:C:\Users\Depes Crystalline\Desktop\school\Active_Bike_Lighting_System\Radar_Core/Libraries/CMSIS/Include\core_cmInstr.h **** {
 552:C:\Users\Depes Crystalline\Desktop\school\Active_Bike_Lighting_System\Radar_Core/Libraries/CMSIS/Include\core_cmInstr.h ****   uint32_t result;
 553:C:\Users\Depes Crystalline\Desktop\school\Active_Bike_Lighting_System\Radar_Core/Libraries/CMSIS/Include\core_cmInstr.h **** 
 554:C:\Users\Depes Crystalline\Desktop\school\Active_Bike_Lighting_System\Radar_Core/Libraries/CMSIS/Include\core_cmInstr.h ****    __ASM volatile ("rbit %0, %1" : "=r" (result) : "r" (value) );
 555:C:\Users\Depes Crystalline\Desktop\school\Active_Bike_Lighting_System\Radar_Core/Libraries/CMSIS/Include\core_cmInstr.h ****    return(result);
 556:C:\Users\Depes Crystalline\Desktop\school\Active_Bike_Lighting_System\Radar_Core/Libraries/CMSIS/Include\core_cmInstr.h **** }
 557:C:\Users\Depes Crystalline\Desktop\school\Active_Bike_Lighting_System\Radar_Core/Libraries/CMSIS/Include\core_cmInstr.h **** 
 558:C:\Users\Depes Crystalline\Desktop\school\Active_Bike_Lighting_System\Radar_Core/Libraries/CMSIS/Include\core_cmInstr.h **** 
 559:C:\Users\Depes Crystalline\Desktop\school\Active_Bike_Lighting_System\Radar_Core/Libraries/CMSIS/Include\core_cmInstr.h **** /** \brief  LDR Exclusive (8 bit)
 560:C:\Users\Depes Crystalline\Desktop\school\Active_Bike_Lighting_System\Radar_Core/Libraries/CMSIS/Include\core_cmInstr.h **** 
 561:C:\Users\Depes Crystalline\Desktop\school\Active_Bike_Lighting_System\Radar_Core/Libraries/CMSIS/Include\core_cmInstr.h ****     This function executes a exclusive LDR instruction for 8 bit value.
 562:C:\Users\Depes Crystalline\Desktop\school\Active_Bike_Lighting_System\Radar_Core/Libraries/CMSIS/Include\core_cmInstr.h **** 
 563:C:\Users\Depes Crystalline\Desktop\school\Active_Bike_Lighting_System\Radar_Core/Libraries/CMSIS/Include\core_cmInstr.h ****     \param [in]    ptr  Pointer to data
 564:C:\Users\Depes Crystalline\Desktop\school\Active_Bike_Lighting_System\Radar_Core/Libraries/CMSIS/Include\core_cmInstr.h ****     \return             value of type uint8_t at (*ptr)
 565:C:\Users\Depes Crystalline\Desktop\school\Active_Bike_Lighting_System\Radar_Core/Libraries/CMSIS/Include\core_cmInstr.h ****  */
 566:C:\Users\Depes Crystalline\Desktop\school\Active_Bike_Lighting_System\Radar_Core/Libraries/CMSIS/Include\core_cmInstr.h **** __attribute__( ( always_inline ) ) __STATIC_INLINE uint8_t __LDREXB(volatile uint8_t *addr)
 567:C:\Users\Depes Crystalline\Desktop\school\Active_Bike_Lighting_System\Radar_Core/Libraries/CMSIS/Include\core_cmInstr.h **** {
 568:C:\Users\Depes Crystalline\Desktop\school\Active_Bike_Lighting_System\Radar_Core/Libraries/CMSIS/Include\core_cmInstr.h ****     uint32_t result;
 569:C:\Users\Depes Crystalline\Desktop\school\Active_Bike_Lighting_System\Radar_Core/Libraries/CMSIS/Include\core_cmInstr.h **** 
 570:C:\Users\Depes Crystalline\Desktop\school\Active_Bike_Lighting_System\Radar_Core/Libraries/CMSIS/Include\core_cmInstr.h **** #if (__GNUC__ > 4) || (__GNUC__ == 4 && __GNUC_MINOR__ >= 8)
 571:C:\Users\Depes Crystalline\Desktop\school\Active_Bike_Lighting_System\Radar_Core/Libraries/CMSIS/Include\core_cmInstr.h ****    __ASM volatile ("ldrexb %0, %1" : "=r" (result) : "Q" (*addr) );
 572:C:\Users\Depes Crystalline\Desktop\school\Active_Bike_Lighting_System\Radar_Core/Libraries/CMSIS/Include\core_cmInstr.h **** #else
 573:C:\Users\Depes Crystalline\Desktop\school\Active_Bike_Lighting_System\Radar_Core/Libraries/CMSIS/Include\core_cmInstr.h ****     /* Prior to GCC 4.8, "Q" will be expanded to [rx, #0] which is not
 574:C:\Users\Depes Crystalline\Desktop\school\Active_Bike_Lighting_System\Radar_Core/Libraries/CMSIS/Include\core_cmInstr.h ****        accepted by assembler. So has to use following less efficient pattern.
 575:C:\Users\Depes Crystalline\Desktop\school\Active_Bike_Lighting_System\Radar_Core/Libraries/CMSIS/Include\core_cmInstr.h ****     */
 576:C:\Users\Depes Crystalline\Desktop\school\Active_Bike_Lighting_System\Radar_Core/Libraries/CMSIS/Include\core_cmInstr.h ****    __ASM volatile ("ldrexb %0, [%1]" : "=r" (result) : "r" (addr) : "memory" );
 577:C:\Users\Depes Crystalline\Desktop\school\Active_Bike_Lighting_System\Radar_Core/Libraries/CMSIS/Include\core_cmInstr.h **** #endif
 578:C:\Users\Depes Crystalline\Desktop\school\Active_Bike_Lighting_System\Radar_Core/Libraries/CMSIS/Include\core_cmInstr.h ****    return ((uint8_t) result);    /* Add explicit type cast here */
 579:C:\Users\Depes Crystalline\Desktop\school\Active_Bike_Lighting_System\Radar_Core/Libraries/CMSIS/Include\core_cmInstr.h **** }
 580:C:\Users\Depes Crystalline\Desktop\school\Active_Bike_Lighting_System\Radar_Core/Libraries/CMSIS/Include\core_cmInstr.h **** 
 581:C:\Users\Depes Crystalline\Desktop\school\Active_Bike_Lighting_System\Radar_Core/Libraries/CMSIS/Include\core_cmInstr.h **** 
 582:C:\Users\Depes Crystalline\Desktop\school\Active_Bike_Lighting_System\Radar_Core/Libraries/CMSIS/Include\core_cmInstr.h **** /** \brief  LDR Exclusive (16 bit)
 583:C:\Users\Depes Crystalline\Desktop\school\Active_Bike_Lighting_System\Radar_Core/Libraries/CMSIS/Include\core_cmInstr.h **** 
 584:C:\Users\Depes Crystalline\Desktop\school\Active_Bike_Lighting_System\Radar_Core/Libraries/CMSIS/Include\core_cmInstr.h ****     This function executes a exclusive LDR instruction for 16 bit values.
 585:C:\Users\Depes Crystalline\Desktop\school\Active_Bike_Lighting_System\Radar_Core/Libraries/CMSIS/Include\core_cmInstr.h **** 
 586:C:\Users\Depes Crystalline\Desktop\school\Active_Bike_Lighting_System\Radar_Core/Libraries/CMSIS/Include\core_cmInstr.h ****     \param [in]    ptr  Pointer to data
 587:C:\Users\Depes Crystalline\Desktop\school\Active_Bike_Lighting_System\Radar_Core/Libraries/CMSIS/Include\core_cmInstr.h ****     \return        value of type uint16_t at (*ptr)
 588:C:\Users\Depes Crystalline\Desktop\school\Active_Bike_Lighting_System\Radar_Core/Libraries/CMSIS/Include\core_cmInstr.h ****  */
 589:C:\Users\Depes Crystalline\Desktop\school\Active_Bike_Lighting_System\Radar_Core/Libraries/CMSIS/Include\core_cmInstr.h **** __attribute__( ( always_inline ) ) __STATIC_INLINE uint16_t __LDREXH(volatile uint16_t *addr)
 590:C:\Users\Depes Crystalline\Desktop\school\Active_Bike_Lighting_System\Radar_Core/Libraries/CMSIS/Include\core_cmInstr.h **** {
 591:C:\Users\Depes Crystalline\Desktop\school\Active_Bike_Lighting_System\Radar_Core/Libraries/CMSIS/Include\core_cmInstr.h ****     uint32_t result;
 592:C:\Users\Depes Crystalline\Desktop\school\Active_Bike_Lighting_System\Radar_Core/Libraries/CMSIS/Include\core_cmInstr.h **** 
 593:C:\Users\Depes Crystalline\Desktop\school\Active_Bike_Lighting_System\Radar_Core/Libraries/CMSIS/Include\core_cmInstr.h **** #if (__GNUC__ > 4) || (__GNUC__ == 4 && __GNUC_MINOR__ >= 8)
 594:C:\Users\Depes Crystalline\Desktop\school\Active_Bike_Lighting_System\Radar_Core/Libraries/CMSIS/Include\core_cmInstr.h ****    __ASM volatile ("ldrexh %0, %1" : "=r" (result) : "Q" (*addr) );
 595:C:\Users\Depes Crystalline\Desktop\school\Active_Bike_Lighting_System\Radar_Core/Libraries/CMSIS/Include\core_cmInstr.h **** #else
 596:C:\Users\Depes Crystalline\Desktop\school\Active_Bike_Lighting_System\Radar_Core/Libraries/CMSIS/Include\core_cmInstr.h ****     /* Prior to GCC 4.8, "Q" will be expanded to [rx, #0] which is not
 597:C:\Users\Depes Crystalline\Desktop\school\Active_Bike_Lighting_System\Radar_Core/Libraries/CMSIS/Include\core_cmInstr.h ****        accepted by assembler. So has to use following less efficient pattern.
 598:C:\Users\Depes Crystalline\Desktop\school\Active_Bike_Lighting_System\Radar_Core/Libraries/CMSIS/Include\core_cmInstr.h ****     */
 599:C:\Users\Depes Crystalline\Desktop\school\Active_Bike_Lighting_System\Radar_Core/Libraries/CMSIS/Include\core_cmInstr.h ****    __ASM volatile ("ldrexh %0, [%1]" : "=r" (result) : "r" (addr) : "memory" );
 600:C:\Users\Depes Crystalline\Desktop\school\Active_Bike_Lighting_System\Radar_Core/Libraries/CMSIS/Include\core_cmInstr.h **** #endif
 601:C:\Users\Depes Crystalline\Desktop\school\Active_Bike_Lighting_System\Radar_Core/Libraries/CMSIS/Include\core_cmInstr.h ****    return ((uint16_t) result);    /* Add explicit type cast here */
 602:C:\Users\Depes Crystalline\Desktop\school\Active_Bike_Lighting_System\Radar_Core/Libraries/CMSIS/Include\core_cmInstr.h **** }
 603:C:\Users\Depes Crystalline\Desktop\school\Active_Bike_Lighting_System\Radar_Core/Libraries/CMSIS/Include\core_cmInstr.h **** 
 604:C:\Users\Depes Crystalline\Desktop\school\Active_Bike_Lighting_System\Radar_Core/Libraries/CMSIS/Include\core_cmInstr.h **** 
 605:C:\Users\Depes Crystalline\Desktop\school\Active_Bike_Lighting_System\Radar_Core/Libraries/CMSIS/Include\core_cmInstr.h **** /** \brief  LDR Exclusive (32 bit)
 606:C:\Users\Depes Crystalline\Desktop\school\Active_Bike_Lighting_System\Radar_Core/Libraries/CMSIS/Include\core_cmInstr.h **** 
 607:C:\Users\Depes Crystalline\Desktop\school\Active_Bike_Lighting_System\Radar_Core/Libraries/CMSIS/Include\core_cmInstr.h ****     This function executes a exclusive LDR instruction for 32 bit values.
 608:C:\Users\Depes Crystalline\Desktop\school\Active_Bike_Lighting_System\Radar_Core/Libraries/CMSIS/Include\core_cmInstr.h **** 
 609:C:\Users\Depes Crystalline\Desktop\school\Active_Bike_Lighting_System\Radar_Core/Libraries/CMSIS/Include\core_cmInstr.h ****     \param [in]    ptr  Pointer to data
 610:C:\Users\Depes Crystalline\Desktop\school\Active_Bike_Lighting_System\Radar_Core/Libraries/CMSIS/Include\core_cmInstr.h ****     \return        value of type uint32_t at (*ptr)
 611:C:\Users\Depes Crystalline\Desktop\school\Active_Bike_Lighting_System\Radar_Core/Libraries/CMSIS/Include\core_cmInstr.h ****  */
 612:C:\Users\Depes Crystalline\Desktop\school\Active_Bike_Lighting_System\Radar_Core/Libraries/CMSIS/Include\core_cmInstr.h **** __attribute__( ( always_inline ) ) __STATIC_INLINE uint32_t __LDREXW(volatile uint32_t *addr)
 613:C:\Users\Depes Crystalline\Desktop\school\Active_Bike_Lighting_System\Radar_Core/Libraries/CMSIS/Include\core_cmInstr.h **** {
 614:C:\Users\Depes Crystalline\Desktop\school\Active_Bike_Lighting_System\Radar_Core/Libraries/CMSIS/Include\core_cmInstr.h ****     uint32_t result;
 615:C:\Users\Depes Crystalline\Desktop\school\Active_Bike_Lighting_System\Radar_Core/Libraries/CMSIS/Include\core_cmInstr.h **** 
 616:C:\Users\Depes Crystalline\Desktop\school\Active_Bike_Lighting_System\Radar_Core/Libraries/CMSIS/Include\core_cmInstr.h ****    __ASM volatile ("ldrex %0, %1" : "=r" (result) : "Q" (*addr) );
 617:C:\Users\Depes Crystalline\Desktop\school\Active_Bike_Lighting_System\Radar_Core/Libraries/CMSIS/Include\core_cmInstr.h ****    return(result);
 618:C:\Users\Depes Crystalline\Desktop\school\Active_Bike_Lighting_System\Radar_Core/Libraries/CMSIS/Include\core_cmInstr.h **** }
 619:C:\Users\Depes Crystalline\Desktop\school\Active_Bike_Lighting_System\Radar_Core/Libraries/CMSIS/Include\core_cmInstr.h **** 
 620:C:\Users\Depes Crystalline\Desktop\school\Active_Bike_Lighting_System\Radar_Core/Libraries/CMSIS/Include\core_cmInstr.h **** 
 621:C:\Users\Depes Crystalline\Desktop\school\Active_Bike_Lighting_System\Radar_Core/Libraries/CMSIS/Include\core_cmInstr.h **** /** \brief  STR Exclusive (8 bit)
 622:C:\Users\Depes Crystalline\Desktop\school\Active_Bike_Lighting_System\Radar_Core/Libraries/CMSIS/Include\core_cmInstr.h **** 
 623:C:\Users\Depes Crystalline\Desktop\school\Active_Bike_Lighting_System\Radar_Core/Libraries/CMSIS/Include\core_cmInstr.h ****     This function executes a exclusive STR instruction for 8 bit values.
 624:C:\Users\Depes Crystalline\Desktop\school\Active_Bike_Lighting_System\Radar_Core/Libraries/CMSIS/Include\core_cmInstr.h **** 
 625:C:\Users\Depes Crystalline\Desktop\school\Active_Bike_Lighting_System\Radar_Core/Libraries/CMSIS/Include\core_cmInstr.h ****     \param [in]  value  Value to store
 626:C:\Users\Depes Crystalline\Desktop\school\Active_Bike_Lighting_System\Radar_Core/Libraries/CMSIS/Include\core_cmInstr.h ****     \param [in]    ptr  Pointer to location
 627:C:\Users\Depes Crystalline\Desktop\school\Active_Bike_Lighting_System\Radar_Core/Libraries/CMSIS/Include\core_cmInstr.h ****     \return          0  Function succeeded
 628:C:\Users\Depes Crystalline\Desktop\school\Active_Bike_Lighting_System\Radar_Core/Libraries/CMSIS/Include\core_cmInstr.h ****     \return          1  Function failed
 629:C:\Users\Depes Crystalline\Desktop\school\Active_Bike_Lighting_System\Radar_Core/Libraries/CMSIS/Include\core_cmInstr.h ****  */
 630:C:\Users\Depes Crystalline\Desktop\school\Active_Bike_Lighting_System\Radar_Core/Libraries/CMSIS/Include\core_cmInstr.h **** __attribute__( ( always_inline ) ) __STATIC_INLINE uint32_t __STREXB(uint8_t value, volatile uint8_
 631:C:\Users\Depes Crystalline\Desktop\school\Active_Bike_Lighting_System\Radar_Core/Libraries/CMSIS/Include\core_cmInstr.h **** {
 632:C:\Users\Depes Crystalline\Desktop\school\Active_Bike_Lighting_System\Radar_Core/Libraries/CMSIS/Include\core_cmInstr.h ****    uint32_t result;
 633:C:\Users\Depes Crystalline\Desktop\school\Active_Bike_Lighting_System\Radar_Core/Libraries/CMSIS/Include\core_cmInstr.h **** 
 634:C:\Users\Depes Crystalline\Desktop\school\Active_Bike_Lighting_System\Radar_Core/Libraries/CMSIS/Include\core_cmInstr.h ****    __ASM volatile ("strexb %0, %2, %1" : "=&r" (result), "=Q" (*addr) : "r" ((uint32_t)value) );
 635:C:\Users\Depes Crystalline\Desktop\school\Active_Bike_Lighting_System\Radar_Core/Libraries/CMSIS/Include\core_cmInstr.h ****    return(result);
 636:C:\Users\Depes Crystalline\Desktop\school\Active_Bike_Lighting_System\Radar_Core/Libraries/CMSIS/Include\core_cmInstr.h **** }
 637:C:\Users\Depes Crystalline\Desktop\school\Active_Bike_Lighting_System\Radar_Core/Libraries/CMSIS/Include\core_cmInstr.h **** 
 638:C:\Users\Depes Crystalline\Desktop\school\Active_Bike_Lighting_System\Radar_Core/Libraries/CMSIS/Include\core_cmInstr.h **** 
 639:C:\Users\Depes Crystalline\Desktop\school\Active_Bike_Lighting_System\Radar_Core/Libraries/CMSIS/Include\core_cmInstr.h **** /** \brief  STR Exclusive (16 bit)
 640:C:\Users\Depes Crystalline\Desktop\school\Active_Bike_Lighting_System\Radar_Core/Libraries/CMSIS/Include\core_cmInstr.h **** 
 641:C:\Users\Depes Crystalline\Desktop\school\Active_Bike_Lighting_System\Radar_Core/Libraries/CMSIS/Include\core_cmInstr.h ****     This function executes a exclusive STR instruction for 16 bit values.
 642:C:\Users\Depes Crystalline\Desktop\school\Active_Bike_Lighting_System\Radar_Core/Libraries/CMSIS/Include\core_cmInstr.h **** 
 643:C:\Users\Depes Crystalline\Desktop\school\Active_Bike_Lighting_System\Radar_Core/Libraries/CMSIS/Include\core_cmInstr.h ****     \param [in]  value  Value to store
 644:C:\Users\Depes Crystalline\Desktop\school\Active_Bike_Lighting_System\Radar_Core/Libraries/CMSIS/Include\core_cmInstr.h ****     \param [in]    ptr  Pointer to location
 645:C:\Users\Depes Crystalline\Desktop\school\Active_Bike_Lighting_System\Radar_Core/Libraries/CMSIS/Include\core_cmInstr.h ****     \return          0  Function succeeded
 646:C:\Users\Depes Crystalline\Desktop\school\Active_Bike_Lighting_System\Radar_Core/Libraries/CMSIS/Include\core_cmInstr.h ****     \return          1  Function failed
 647:C:\Users\Depes Crystalline\Desktop\school\Active_Bike_Lighting_System\Radar_Core/Libraries/CMSIS/Include\core_cmInstr.h ****  */
 648:C:\Users\Depes Crystalline\Desktop\school\Active_Bike_Lighting_System\Radar_Core/Libraries/CMSIS/Include\core_cmInstr.h **** __attribute__( ( always_inline ) ) __STATIC_INLINE uint32_t __STREXH(uint16_t value, volatile uint1
 649:C:\Users\Depes Crystalline\Desktop\school\Active_Bike_Lighting_System\Radar_Core/Libraries/CMSIS/Include\core_cmInstr.h **** {
 650:C:\Users\Depes Crystalline\Desktop\school\Active_Bike_Lighting_System\Radar_Core/Libraries/CMSIS/Include\core_cmInstr.h ****    uint32_t result;
 651:C:\Users\Depes Crystalline\Desktop\school\Active_Bike_Lighting_System\Radar_Core/Libraries/CMSIS/Include\core_cmInstr.h **** 
 652:C:\Users\Depes Crystalline\Desktop\school\Active_Bike_Lighting_System\Radar_Core/Libraries/CMSIS/Include\core_cmInstr.h ****    __ASM volatile ("strexh %0, %2, %1" : "=&r" (result), "=Q" (*addr) : "r" ((uint32_t)value) );
 653:C:\Users\Depes Crystalline\Desktop\school\Active_Bike_Lighting_System\Radar_Core/Libraries/CMSIS/Include\core_cmInstr.h ****    return(result);
 654:C:\Users\Depes Crystalline\Desktop\school\Active_Bike_Lighting_System\Radar_Core/Libraries/CMSIS/Include\core_cmInstr.h **** }
 655:C:\Users\Depes Crystalline\Desktop\school\Active_Bike_Lighting_System\Radar_Core/Libraries/CMSIS/Include\core_cmInstr.h **** 
 656:C:\Users\Depes Crystalline\Desktop\school\Active_Bike_Lighting_System\Radar_Core/Libraries/CMSIS/Include\core_cmInstr.h **** 
 657:C:\Users\Depes Crystalline\Desktop\school\Active_Bike_Lighting_System\Radar_Core/Libraries/CMSIS/Include\core_cmInstr.h **** /** \brief  STR Exclusive (32 bit)
 658:C:\Users\Depes Crystalline\Desktop\school\Active_Bike_Lighting_System\Radar_Core/Libraries/CMSIS/Include\core_cmInstr.h **** 
 659:C:\Users\Depes Crystalline\Desktop\school\Active_Bike_Lighting_System\Radar_Core/Libraries/CMSIS/Include\core_cmInstr.h ****     This function executes a exclusive STR instruction for 32 bit values.
 660:C:\Users\Depes Crystalline\Desktop\school\Active_Bike_Lighting_System\Radar_Core/Libraries/CMSIS/Include\core_cmInstr.h **** 
 661:C:\Users\Depes Crystalline\Desktop\school\Active_Bike_Lighting_System\Radar_Core/Libraries/CMSIS/Include\core_cmInstr.h ****     \param [in]  value  Value to store
 662:C:\Users\Depes Crystalline\Desktop\school\Active_Bike_Lighting_System\Radar_Core/Libraries/CMSIS/Include\core_cmInstr.h ****     \param [in]    ptr  Pointer to location
 663:C:\Users\Depes Crystalline\Desktop\school\Active_Bike_Lighting_System\Radar_Core/Libraries/CMSIS/Include\core_cmInstr.h ****     \return          0  Function succeeded
 664:C:\Users\Depes Crystalline\Desktop\school\Active_Bike_Lighting_System\Radar_Core/Libraries/CMSIS/Include\core_cmInstr.h ****     \return          1  Function failed
 665:C:\Users\Depes Crystalline\Desktop\school\Active_Bike_Lighting_System\Radar_Core/Libraries/CMSIS/Include\core_cmInstr.h ****  */
 666:C:\Users\Depes Crystalline\Desktop\school\Active_Bike_Lighting_System\Radar_Core/Libraries/CMSIS/Include\core_cmInstr.h **** __attribute__( ( always_inline ) ) __STATIC_INLINE uint32_t __STREXW(uint32_t value, volatile uint3
 667:C:\Users\Depes Crystalline\Desktop\school\Active_Bike_Lighting_System\Radar_Core/Libraries/CMSIS/Include\core_cmInstr.h **** {
 668:C:\Users\Depes Crystalline\Desktop\school\Active_Bike_Lighting_System\Radar_Core/Libraries/CMSIS/Include\core_cmInstr.h ****    uint32_t result;
 669:C:\Users\Depes Crystalline\Desktop\school\Active_Bike_Lighting_System\Radar_Core/Libraries/CMSIS/Include\core_cmInstr.h **** 
 670:C:\Users\Depes Crystalline\Desktop\school\Active_Bike_Lighting_System\Radar_Core/Libraries/CMSIS/Include\core_cmInstr.h ****    __ASM volatile ("strex %0, %2, %1" : "=&r" (result), "=Q" (*addr) : "r" (value) );
 671:C:\Users\Depes Crystalline\Desktop\school\Active_Bike_Lighting_System\Radar_Core/Libraries/CMSIS/Include\core_cmInstr.h ****    return(result);
 672:C:\Users\Depes Crystalline\Desktop\school\Active_Bike_Lighting_System\Radar_Core/Libraries/CMSIS/Include\core_cmInstr.h **** }
 673:C:\Users\Depes Crystalline\Desktop\school\Active_Bike_Lighting_System\Radar_Core/Libraries/CMSIS/Include\core_cmInstr.h **** 
 674:C:\Users\Depes Crystalline\Desktop\school\Active_Bike_Lighting_System\Radar_Core/Libraries/CMSIS/Include\core_cmInstr.h **** 
 675:C:\Users\Depes Crystalline\Desktop\school\Active_Bike_Lighting_System\Radar_Core/Libraries/CMSIS/Include\core_cmInstr.h **** /** \brief  Remove the exclusive lock
 676:C:\Users\Depes Crystalline\Desktop\school\Active_Bike_Lighting_System\Radar_Core/Libraries/CMSIS/Include\core_cmInstr.h **** 
 677:C:\Users\Depes Crystalline\Desktop\school\Active_Bike_Lighting_System\Radar_Core/Libraries/CMSIS/Include\core_cmInstr.h ****     This function removes the exclusive lock which is created by LDREX.
 678:C:\Users\Depes Crystalline\Desktop\school\Active_Bike_Lighting_System\Radar_Core/Libraries/CMSIS/Include\core_cmInstr.h **** 
 679:C:\Users\Depes Crystalline\Desktop\school\Active_Bike_Lighting_System\Radar_Core/Libraries/CMSIS/Include\core_cmInstr.h ****  */
 680:C:\Users\Depes Crystalline\Desktop\school\Active_Bike_Lighting_System\Radar_Core/Libraries/CMSIS/Include\core_cmInstr.h **** __attribute__( ( always_inline ) ) __STATIC_INLINE void __CLREX(void)
 681:C:\Users\Depes Crystalline\Desktop\school\Active_Bike_Lighting_System\Radar_Core/Libraries/CMSIS/Include\core_cmInstr.h **** {
 682:C:\Users\Depes Crystalline\Desktop\school\Active_Bike_Lighting_System\Radar_Core/Libraries/CMSIS/Include\core_cmInstr.h ****   __ASM volatile ("clrex" ::: "memory");
 683:C:\Users\Depes Crystalline\Desktop\school\Active_Bike_Lighting_System\Radar_Core/Libraries/CMSIS/Include\core_cmInstr.h **** }
 684:C:\Users\Depes Crystalline\Desktop\school\Active_Bike_Lighting_System\Radar_Core/Libraries/CMSIS/Include\core_cmInstr.h **** 
 685:C:\Users\Depes Crystalline\Desktop\school\Active_Bike_Lighting_System\Radar_Core/Libraries/CMSIS/Include\core_cmInstr.h **** 
 686:C:\Users\Depes Crystalline\Desktop\school\Active_Bike_Lighting_System\Radar_Core/Libraries/CMSIS/Include\core_cmInstr.h **** /** \brief  Signed Saturate
 687:C:\Users\Depes Crystalline\Desktop\school\Active_Bike_Lighting_System\Radar_Core/Libraries/CMSIS/Include\core_cmInstr.h **** 
 688:C:\Users\Depes Crystalline\Desktop\school\Active_Bike_Lighting_System\Radar_Core/Libraries/CMSIS/Include\core_cmInstr.h ****     This function saturates a signed value.
 689:C:\Users\Depes Crystalline\Desktop\school\Active_Bike_Lighting_System\Radar_Core/Libraries/CMSIS/Include\core_cmInstr.h **** 
 690:C:\Users\Depes Crystalline\Desktop\school\Active_Bike_Lighting_System\Radar_Core/Libraries/CMSIS/Include\core_cmInstr.h ****     \param [in]  value  Value to be saturated
 691:C:\Users\Depes Crystalline\Desktop\school\Active_Bike_Lighting_System\Radar_Core/Libraries/CMSIS/Include\core_cmInstr.h ****     \param [in]    sat  Bit position to saturate to (1..32)
 692:C:\Users\Depes Crystalline\Desktop\school\Active_Bike_Lighting_System\Radar_Core/Libraries/CMSIS/Include\core_cmInstr.h ****     \return             Saturated value
 693:C:\Users\Depes Crystalline\Desktop\school\Active_Bike_Lighting_System\Radar_Core/Libraries/CMSIS/Include\core_cmInstr.h ****  */
 694:C:\Users\Depes Crystalline\Desktop\school\Active_Bike_Lighting_System\Radar_Core/Libraries/CMSIS/Include\core_cmInstr.h **** #define __SSAT(ARG1,ARG2) \
 695:C:\Users\Depes Crystalline\Desktop\school\Active_Bike_Lighting_System\Radar_Core/Libraries/CMSIS/Include\core_cmInstr.h **** ({                          \
 696:C:\Users\Depes Crystalline\Desktop\school\Active_Bike_Lighting_System\Radar_Core/Libraries/CMSIS/Include\core_cmInstr.h ****   uint32_t __RES, __ARG1 = (ARG1); \
 697:C:\Users\Depes Crystalline\Desktop\school\Active_Bike_Lighting_System\Radar_Core/Libraries/CMSIS/Include\core_cmInstr.h ****   __ASM ("ssat %0, %1, %2" : "=r" (__RES) :  "I" (ARG2), "r" (__ARG1) ); \
 698:C:\Users\Depes Crystalline\Desktop\school\Active_Bike_Lighting_System\Radar_Core/Libraries/CMSIS/Include\core_cmInstr.h ****   __RES; \
 699:C:\Users\Depes Crystalline\Desktop\school\Active_Bike_Lighting_System\Radar_Core/Libraries/CMSIS/Include\core_cmInstr.h ****  })
 700:C:\Users\Depes Crystalline\Desktop\school\Active_Bike_Lighting_System\Radar_Core/Libraries/CMSIS/Include\core_cmInstr.h **** 
 701:C:\Users\Depes Crystalline\Desktop\school\Active_Bike_Lighting_System\Radar_Core/Libraries/CMSIS/Include\core_cmInstr.h **** 
 702:C:\Users\Depes Crystalline\Desktop\school\Active_Bike_Lighting_System\Radar_Core/Libraries/CMSIS/Include\core_cmInstr.h **** /** \brief  Unsigned Saturate
 703:C:\Users\Depes Crystalline\Desktop\school\Active_Bike_Lighting_System\Radar_Core/Libraries/CMSIS/Include\core_cmInstr.h **** 
 704:C:\Users\Depes Crystalline\Desktop\school\Active_Bike_Lighting_System\Radar_Core/Libraries/CMSIS/Include\core_cmInstr.h ****     This function saturates an unsigned value.
 705:C:\Users\Depes Crystalline\Desktop\school\Active_Bike_Lighting_System\Radar_Core/Libraries/CMSIS/Include\core_cmInstr.h **** 
 706:C:\Users\Depes Crystalline\Desktop\school\Active_Bike_Lighting_System\Radar_Core/Libraries/CMSIS/Include\core_cmInstr.h ****     \param [in]  value  Value to be saturated
 707:C:\Users\Depes Crystalline\Desktop\school\Active_Bike_Lighting_System\Radar_Core/Libraries/CMSIS/Include\core_cmInstr.h ****     \param [in]    sat  Bit position to saturate to (0..31)
 708:C:\Users\Depes Crystalline\Desktop\school\Active_Bike_Lighting_System\Radar_Core/Libraries/CMSIS/Include\core_cmInstr.h ****     \return             Saturated value
 709:C:\Users\Depes Crystalline\Desktop\school\Active_Bike_Lighting_System\Radar_Core/Libraries/CMSIS/Include\core_cmInstr.h ****  */
 710:C:\Users\Depes Crystalline\Desktop\school\Active_Bike_Lighting_System\Radar_Core/Libraries/CMSIS/Include\core_cmInstr.h **** #define __USAT(ARG1,ARG2) \
 711:C:\Users\Depes Crystalline\Desktop\school\Active_Bike_Lighting_System\Radar_Core/Libraries/CMSIS/Include\core_cmInstr.h **** ({                          \
 712:C:\Users\Depes Crystalline\Desktop\school\Active_Bike_Lighting_System\Radar_Core/Libraries/CMSIS/Include\core_cmInstr.h ****   uint32_t __RES, __ARG1 = (ARG1); \
 713:C:\Users\Depes Crystalline\Desktop\school\Active_Bike_Lighting_System\Radar_Core/Libraries/CMSIS/Include\core_cmInstr.h ****   __ASM ("usat %0, %1, %2" : "=r" (__RES) :  "I" (ARG2), "r" (__ARG1) ); \
 714:C:\Users\Depes Crystalline\Desktop\school\Active_Bike_Lighting_System\Radar_Core/Libraries/CMSIS/Include\core_cmInstr.h ****   __RES; \
 715:C:\Users\Depes Crystalline\Desktop\school\Active_Bike_Lighting_System\Radar_Core/Libraries/CMSIS/Include\core_cmInstr.h ****  })
 716:C:\Users\Depes Crystalline\Desktop\school\Active_Bike_Lighting_System\Radar_Core/Libraries/CMSIS/Include\core_cmInstr.h **** 
 717:C:\Users\Depes Crystalline\Desktop\school\Active_Bike_Lighting_System\Radar_Core/Libraries/CMSIS/Include\core_cmInstr.h **** 
 718:C:\Users\Depes Crystalline\Desktop\school\Active_Bike_Lighting_System\Radar_Core/Libraries/CMSIS/Include\core_cmInstr.h **** /** \brief  Count leading zeros
 719:C:\Users\Depes Crystalline\Desktop\school\Active_Bike_Lighting_System\Radar_Core/Libraries/CMSIS/Include\core_cmInstr.h **** 
 720:C:\Users\Depes Crystalline\Desktop\school\Active_Bike_Lighting_System\Radar_Core/Libraries/CMSIS/Include\core_cmInstr.h ****     This function counts the number of leading zeros of a data value.
 721:C:\Users\Depes Crystalline\Desktop\school\Active_Bike_Lighting_System\Radar_Core/Libraries/CMSIS/Include\core_cmInstr.h **** 
 722:C:\Users\Depes Crystalline\Desktop\school\Active_Bike_Lighting_System\Radar_Core/Libraries/CMSIS/Include\core_cmInstr.h ****     \param [in]  value  Value to count the leading zeros
 723:C:\Users\Depes Crystalline\Desktop\school\Active_Bike_Lighting_System\Radar_Core/Libraries/CMSIS/Include\core_cmInstr.h ****     \return             number of leading zeros in value
 724:C:\Users\Depes Crystalline\Desktop\school\Active_Bike_Lighting_System\Radar_Core/Libraries/CMSIS/Include\core_cmInstr.h ****  */
 725:C:\Users\Depes Crystalline\Desktop\school\Active_Bike_Lighting_System\Radar_Core/Libraries/CMSIS/Include\core_cmInstr.h **** __attribute__( ( always_inline ) ) __STATIC_INLINE uint8_t __CLZ(uint32_t value)
 726:C:\Users\Depes Crystalline\Desktop\school\Active_Bike_Lighting_System\Radar_Core/Libraries/CMSIS/Include\core_cmInstr.h **** {
 727:C:\Users\Depes Crystalline\Desktop\school\Active_Bike_Lighting_System\Radar_Core/Libraries/CMSIS/Include\core_cmInstr.h ****   uint32_t result;
 728:C:\Users\Depes Crystalline\Desktop\school\Active_Bike_Lighting_System\Radar_Core/Libraries/CMSIS/Include\core_cmInstr.h **** 
 729:C:\Users\Depes Crystalline\Desktop\school\Active_Bike_Lighting_System\Radar_Core/Libraries/CMSIS/Include\core_cmInstr.h ****   __ASM volatile ("clz %0, %1" : "=r" (result) : "r" (value) );
 129              	 .loc 2 729 0
 130 0018 3B6A     	 ldr r3,[r7,#32]
 131              	
 132 001a B3FA83F3 	 clz r3,r3
 133              	
 134              	 .thumb
 135 001e FB61     	 str r3,[r7,#28]
 730:C:\Users\Depes Crystalline\Desktop\school\Active_Bike_Lighting_System\Radar_Core/Libraries/CMSIS/Include\core_cmInstr.h ****    return ((uint8_t) result);    /* Add explicit type cast here */
 136              	 .loc 2 730 0
 137 0020 FB69     	 ldr r3,[r7,#28]
 138 0022 DBB2     	 uxtb r3,r3
 139              	.LBE7:
 140              	.LBE6:
 141              	 .loc 1 561 0
 142 0024 013B     	 subs r3,r3,#1
 143 0026 FB62     	 str r3,[r7,#44]
 144 0028 0AE0     	 b .L8
 145              	.L6:
 562:C:\Users\Depes Crystalline\Desktop\school\Active_Bike_Lighting_System\Radar_Core\Dave\Generated/CMSIS_DSP\arm_math.h ****     }
 563:C:\Users\Depes Crystalline\Desktop\school\Active_Bike_Lighting_System\Radar_Core\Dave\Generated/CMSIS_DSP\arm_math.h ****     else
 564:C:\Users\Depes Crystalline\Desktop\school\Active_Bike_Lighting_System\Radar_Core\Dave\Generated/CMSIS_DSP\arm_math.h ****     {
 565:C:\Users\Depes Crystalline\Desktop\school\Active_Bike_Lighting_System\Radar_Core\Dave\Generated/CMSIS_DSP\arm_math.h ****       signBits = __CLZ(-in) - 1;
 146              	 .loc 1 565 0
 147 002a FB68     	 ldr r3,[r7,#12]
 148 002c 5B42     	 negs r3,r3
 149 002e BB61     	 str r3,[r7,#24]
 150              	.LBB8:
 151              	.LBB9:
 729:C:\Users\Depes Crystalline\Desktop\school\Active_Bike_Lighting_System\Radar_Core/Libraries/CMSIS/Include\core_cmInstr.h ****    return ((uint8_t) result);    /* Add explicit type cast here */
 152              	 .loc 2 729 0
 153 0030 BB69     	 ldr r3,[r7,#24]
 154              	
 155 0032 B3FA83F3 	 clz r3,r3
 156              	
 157              	 .thumb
 158 0036 7B61     	 str r3,[r7,#20]
 159              	 .loc 2 730 0
 160 0038 7B69     	 ldr r3,[r7,#20]
 161 003a DBB2     	 uxtb r3,r3
 162              	.LBE9:
 163              	.LBE8:
 164              	 .loc 1 565 0
 165 003c 013B     	 subs r3,r3,#1
 166 003e FB62     	 str r3,[r7,#44]
 167              	.L8:
 566:C:\Users\Depes Crystalline\Desktop\school\Active_Bike_Lighting_System\Radar_Core\Dave\Generated/CMSIS_DSP\arm_math.h ****     }
 567:C:\Users\Depes Crystalline\Desktop\school\Active_Bike_Lighting_System\Radar_Core\Dave\Generated/CMSIS_DSP\arm_math.h **** 
 568:C:\Users\Depes Crystalline\Desktop\school\Active_Bike_Lighting_System\Radar_Core\Dave\Generated/CMSIS_DSP\arm_math.h ****     /* Convert input sample to 1.31 format */
 569:C:\Users\Depes Crystalline\Desktop\school\Active_Bike_Lighting_System\Radar_Core\Dave\Generated/CMSIS_DSP\arm_math.h ****     in = in << signBits;
 168              	 .loc 1 569 0
 169 0040 FB6A     	 ldr r3,[r7,#44]
 170 0042 FA68     	 ldr r2,[r7,#12]
 171 0044 02FA03F3 	 lsl r3,r2,r3
 172 0048 FB60     	 str r3,[r7,#12]
 570:C:\Users\Depes Crystalline\Desktop\school\Active_Bike_Lighting_System\Radar_Core\Dave\Generated/CMSIS_DSP\arm_math.h **** 
 571:C:\Users\Depes Crystalline\Desktop\school\Active_Bike_Lighting_System\Radar_Core\Dave\Generated/CMSIS_DSP\arm_math.h ****     /* calculation of index for initial approximated Val */
 572:C:\Users\Depes Crystalline\Desktop\school\Active_Bike_Lighting_System\Radar_Core\Dave\Generated/CMSIS_DSP\arm_math.h ****     index = (uint32_t) (in >> 24u);
 173              	 .loc 1 572 0
 174 004a FB68     	 ldr r3,[r7,#12]
 175 004c 1B16     	 asrs r3,r3,#24
 176 004e BB62     	 str r3,[r7,#40]
 573:C:\Users\Depes Crystalline\Desktop\school\Active_Bike_Lighting_System\Radar_Core\Dave\Generated/CMSIS_DSP\arm_math.h ****     index = (index & INDEX_MASK);
 177              	 .loc 1 573 0
 178 0050 BB6A     	 ldr r3,[r7,#40]
 179 0052 03F03F03 	 and r3,r3,#63
 180 0056 BB62     	 str r3,[r7,#40]
 574:C:\Users\Depes Crystalline\Desktop\school\Active_Bike_Lighting_System\Radar_Core\Dave\Generated/CMSIS_DSP\arm_math.h **** 
 575:C:\Users\Depes Crystalline\Desktop\school\Active_Bike_Lighting_System\Radar_Core\Dave\Generated/CMSIS_DSP\arm_math.h ****     /* 1.31 with exp 1 */
 576:C:\Users\Depes Crystalline\Desktop\school\Active_Bike_Lighting_System\Radar_Core\Dave\Generated/CMSIS_DSP\arm_math.h ****     out = pRecipTable[index];
 181              	 .loc 1 576 0
 182 0058 BB6A     	 ldr r3,[r7,#40]
 183 005a 9B00     	 lsls r3,r3,#2
 184 005c 7A68     	 ldr r2,[r7,#4]
 185 005e 1344     	 add r3,r3,r2
 186 0060 1B68     	 ldr r3,[r3]
 187 0062 7B63     	 str r3,[r7,#52]
 577:C:\Users\Depes Crystalline\Desktop\school\Active_Bike_Lighting_System\Radar_Core\Dave\Generated/CMSIS_DSP\arm_math.h **** 
 578:C:\Users\Depes Crystalline\Desktop\school\Active_Bike_Lighting_System\Radar_Core\Dave\Generated/CMSIS_DSP\arm_math.h ****     /* calculation of reciprocal value */
 579:C:\Users\Depes Crystalline\Desktop\school\Active_Bike_Lighting_System\Radar_Core\Dave\Generated/CMSIS_DSP\arm_math.h ****     /* running approximation for two iterations */
 580:C:\Users\Depes Crystalline\Desktop\school\Active_Bike_Lighting_System\Radar_Core\Dave\Generated/CMSIS_DSP\arm_math.h ****     for (i = 0u; i < 2u; i++)
 188              	 .loc 1 580 0
 189 0064 0023     	 movs r3,#0
 190 0066 3B63     	 str r3,[r7,#48]
 191 0068 3BE0     	 b .L10
 192              	.L11:
 581:C:\Users\Depes Crystalline\Desktop\school\Active_Bike_Lighting_System\Radar_Core\Dave\Generated/CMSIS_DSP\arm_math.h ****     {
 582:C:\Users\Depes Crystalline\Desktop\school\Active_Bike_Lighting_System\Radar_Core\Dave\Generated/CMSIS_DSP\arm_math.h ****       tempVal = (q31_t) (((q63_t) in * out) >> 31u);
 193              	 .loc 1 582 0 discriminator 3
 194 006a FB68     	 ldr r3,[r7,#12]
 195 006c 1846     	 mov r0,r3
 196 006e 4FEAE071 	 asr r1,r0,#31
 197 0072 7B6B     	 ldr r3,[r7,#52]
 198 0074 1A46     	 mov r2,r3
 199 0076 4FF00003 	 mov r3,#0
 200 007a 02FB01FE 	 mul lr,r2,r1
 201 007e 00FB03F6 	 mul r6,r0,r3
 202 0082 7644     	 add r6,r6,lr
 203 0084 A0FB0223 	 umull r2,r3,r0,r2
 204 0088 F118     	 adds r1,r6,r3
 205 008a 0B46     	 mov r3,r1
 206 008c D40F     	 lsrs r4,r2,#31
 207 008e 44EA4304 	 orr r4,r4,r3,lsl#1
 208 0092 DD17     	 asrs r5,r3,#31
 209 0094 2346     	 mov r3,r4
 210 0096 7B62     	 str r3,[r7,#36]
 583:C:\Users\Depes Crystalline\Desktop\school\Active_Bike_Lighting_System\Radar_Core\Dave\Generated/CMSIS_DSP\arm_math.h ****       tempVal = 0x7FFFFFFF - tempVal;
 211              	 .loc 1 583 0 discriminator 3
 212 0098 7A6A     	 ldr r2,[r7,#36]
 213 009a 6FF00043 	 mvn r3,#-2147483648
 214 009e 9B1A     	 subs r3,r3,r2
 215 00a0 7B62     	 str r3,[r7,#36]
 584:C:\Users\Depes Crystalline\Desktop\school\Active_Bike_Lighting_System\Radar_Core\Dave\Generated/CMSIS_DSP\arm_math.h ****       /*      1.31 with exp 1 */
 585:C:\Users\Depes Crystalline\Desktop\school\Active_Bike_Lighting_System\Radar_Core\Dave\Generated/CMSIS_DSP\arm_math.h ****       //out = (q31_t) (((q63_t) out * tempVal) >> 30u);
 586:C:\Users\Depes Crystalline\Desktop\school\Active_Bike_Lighting_System\Radar_Core\Dave\Generated/CMSIS_DSP\arm_math.h ****       out = (q31_t) clip_q63_to_q31(((q63_t) out * tempVal) >> 30u);
 216              	 .loc 1 586 0 discriminator 3
 217 00a2 7B6B     	 ldr r3,[r7,#52]
 218 00a4 1846     	 mov r0,r3
 219 00a6 4FF00001 	 mov r1,#0
 220 00aa 7B6A     	 ldr r3,[r7,#36]
 221 00ac 1A46     	 mov r2,r3
 222 00ae 4FF00003 	 mov r3,#0
 223 00b2 02FB01FE 	 mul lr,r2,r1
 224 00b6 00FB03F6 	 mul r6,r0,r3
 225 00ba 7644     	 add r6,r6,lr
 226 00bc A0FB0223 	 umull r2,r3,r0,r2
 227 00c0 F118     	 adds r1,r6,r3
 228 00c2 0B46     	 mov r3,r1
 229 00c4 4FEA9278 	 lsr r8,r2,#30
 230 00c8 48EA8308 	 orr r8,r8,r3,lsl#2
 231 00cc 4FEAA379 	 asr r9,r3,#30
 232 00d0 4046     	 mov r0,r8
 233 00d2 4946     	 mov r1,r9
 234 00d4 FFF7FEFF 	 bl clip_q63_to_q31
 235 00d8 0346     	 mov r3,r0
 236 00da 7B63     	 str r3,[r7,#52]
 580:C:\Users\Depes Crystalline\Desktop\school\Active_Bike_Lighting_System\Radar_Core\Dave\Generated/CMSIS_DSP\arm_math.h ****     {
 237              	 .loc 1 580 0 discriminator 3
 238 00dc 3B6B     	 ldr r3,[r7,#48]
 239 00de 0133     	 adds r3,r3,#1
 240 00e0 3B63     	 str r3,[r7,#48]
 241              	.L10:
 580:C:\Users\Depes Crystalline\Desktop\school\Active_Bike_Lighting_System\Radar_Core\Dave\Generated/CMSIS_DSP\arm_math.h ****     {
 242              	 .loc 1 580 0 is_stmt 0 discriminator 1
 243 00e2 3B6B     	 ldr r3,[r7,#48]
 244 00e4 012B     	 cmp r3,#1
 245 00e6 C0D9     	 bls .L11
 587:C:\Users\Depes Crystalline\Desktop\school\Active_Bike_Lighting_System\Radar_Core\Dave\Generated/CMSIS_DSP\arm_math.h ****     }
 588:C:\Users\Depes Crystalline\Desktop\school\Active_Bike_Lighting_System\Radar_Core\Dave\Generated/CMSIS_DSP\arm_math.h **** 
 589:C:\Users\Depes Crystalline\Desktop\school\Active_Bike_Lighting_System\Radar_Core\Dave\Generated/CMSIS_DSP\arm_math.h ****     /* write output */
 590:C:\Users\Depes Crystalline\Desktop\school\Active_Bike_Lighting_System\Radar_Core\Dave\Generated/CMSIS_DSP\arm_math.h ****     *dst = out;
 246              	 .loc 1 590 0 is_stmt 1
 247 00e8 7A6B     	 ldr r2,[r7,#52]
 248 00ea BB68     	 ldr r3,[r7,#8]
 249 00ec 1A60     	 str r2,[r3]
 591:C:\Users\Depes Crystalline\Desktop\school\Active_Bike_Lighting_System\Radar_Core\Dave\Generated/CMSIS_DSP\arm_math.h **** 
 592:C:\Users\Depes Crystalline\Desktop\school\Active_Bike_Lighting_System\Radar_Core\Dave\Generated/CMSIS_DSP\arm_math.h ****     /* return num of signbits of out = 1/in value */
 593:C:\Users\Depes Crystalline\Desktop\school\Active_Bike_Lighting_System\Radar_Core\Dave\Generated/CMSIS_DSP\arm_math.h ****     return (signBits + 1u);
 250              	 .loc 1 593 0
 251 00ee FB6A     	 ldr r3,[r7,#44]
 252 00f0 0133     	 adds r3,r3,#1
 594:C:\Users\Depes Crystalline\Desktop\school\Active_Bike_Lighting_System\Radar_Core\Dave\Generated/CMSIS_DSP\arm_math.h **** 
 595:C:\Users\Depes Crystalline\Desktop\school\Active_Bike_Lighting_System\Radar_Core\Dave\Generated/CMSIS_DSP\arm_math.h ****   }
 253              	 .loc 1 595 0
 254 00f2 1846     	 mov r0,r3
 255 00f4 3C37     	 adds r7,r7,#60
 256              	.LCFI9:
 257              	 .cfi_def_cfa_offset 28
 258 00f6 BD46     	 mov sp,r7
 259              	.LCFI10:
 260              	 .cfi_def_cfa_register 13
 261              	 
 262 00f8 BDE8F083 	 pop {r4,r5,r6,r7,r8,r9,pc}
 263              	 .cfi_endproc
 264              	.LFE111:
 266              	 .section .text.arm_lms_norm_q31,"ax",%progbits
 267              	 .align 2
 268              	 .global arm_lms_norm_q31
 269              	 .thumb
 270              	 .thumb_func
 272              	arm_lms_norm_q31:
 273              	.LFB139:
 274              	 .file 3 "../Dave/Generated/CMSIS_DSP/FilteringFunctions/arm_lms_norm_q31.c"
   1:../Dave/Generated/CMSIS_DSP/FilteringFunctions/arm_lms_norm_q31.c **** /* ----------------------------------------------------------------------    
   2:../Dave/Generated/CMSIS_DSP/FilteringFunctions/arm_lms_norm_q31.c **** * Copyright (C) 2010-2014 ARM Limited. All rights reserved.    
   3:../Dave/Generated/CMSIS_DSP/FilteringFunctions/arm_lms_norm_q31.c **** *    
   4:../Dave/Generated/CMSIS_DSP/FilteringFunctions/arm_lms_norm_q31.c **** * $Date:        12. March 2014
   5:../Dave/Generated/CMSIS_DSP/FilteringFunctions/arm_lms_norm_q31.c **** * $Revision: 	V1.4.4
   6:../Dave/Generated/CMSIS_DSP/FilteringFunctions/arm_lms_norm_q31.c **** *    
   7:../Dave/Generated/CMSIS_DSP/FilteringFunctions/arm_lms_norm_q31.c **** * Project: 	    CMSIS DSP Library    
   8:../Dave/Generated/CMSIS_DSP/FilteringFunctions/arm_lms_norm_q31.c **** * Title:	    arm_lms_norm_q31.c    
   9:../Dave/Generated/CMSIS_DSP/FilteringFunctions/arm_lms_norm_q31.c **** *    
  10:../Dave/Generated/CMSIS_DSP/FilteringFunctions/arm_lms_norm_q31.c **** * Description:	Processing function for the Q31 NLMS filter.    
  11:../Dave/Generated/CMSIS_DSP/FilteringFunctions/arm_lms_norm_q31.c **** *    
  12:../Dave/Generated/CMSIS_DSP/FilteringFunctions/arm_lms_norm_q31.c **** * Target Processor: Cortex-M4/Cortex-M3/Cortex-M0
  13:../Dave/Generated/CMSIS_DSP/FilteringFunctions/arm_lms_norm_q31.c **** *  
  14:../Dave/Generated/CMSIS_DSP/FilteringFunctions/arm_lms_norm_q31.c **** * Redistribution and use in source and binary forms, with or without 
  15:../Dave/Generated/CMSIS_DSP/FilteringFunctions/arm_lms_norm_q31.c **** * modification, are permitted provided that the following conditions
  16:../Dave/Generated/CMSIS_DSP/FilteringFunctions/arm_lms_norm_q31.c **** * are met:
  17:../Dave/Generated/CMSIS_DSP/FilteringFunctions/arm_lms_norm_q31.c **** *   - Redistributions of source code must retain the above copyright
  18:../Dave/Generated/CMSIS_DSP/FilteringFunctions/arm_lms_norm_q31.c **** *     notice, this list of conditions and the following disclaimer.
  19:../Dave/Generated/CMSIS_DSP/FilteringFunctions/arm_lms_norm_q31.c **** *   - Redistributions in binary form must reproduce the above copyright
  20:../Dave/Generated/CMSIS_DSP/FilteringFunctions/arm_lms_norm_q31.c **** *     notice, this list of conditions and the following disclaimer in
  21:../Dave/Generated/CMSIS_DSP/FilteringFunctions/arm_lms_norm_q31.c **** *     the documentation and/or other materials provided with the 
  22:../Dave/Generated/CMSIS_DSP/FilteringFunctions/arm_lms_norm_q31.c **** *     distribution.
  23:../Dave/Generated/CMSIS_DSP/FilteringFunctions/arm_lms_norm_q31.c **** *   - Neither the name of ARM LIMITED nor the names of its contributors
  24:../Dave/Generated/CMSIS_DSP/FilteringFunctions/arm_lms_norm_q31.c **** *     may be used to endorse or promote products derived from this
  25:../Dave/Generated/CMSIS_DSP/FilteringFunctions/arm_lms_norm_q31.c **** *     software without specific prior written permission.
  26:../Dave/Generated/CMSIS_DSP/FilteringFunctions/arm_lms_norm_q31.c **** *
  27:../Dave/Generated/CMSIS_DSP/FilteringFunctions/arm_lms_norm_q31.c **** * THIS SOFTWARE IS PROVIDED BY THE COPYRIGHT HOLDERS AND CONTRIBUTORS
  28:../Dave/Generated/CMSIS_DSP/FilteringFunctions/arm_lms_norm_q31.c **** * "AS IS" AND ANY EXPRESS OR IMPLIED WARRANTIES, INCLUDING, BUT NOT
  29:../Dave/Generated/CMSIS_DSP/FilteringFunctions/arm_lms_norm_q31.c **** * LIMITED TO, THE IMPLIED WARRANTIES OF MERCHANTABILITY AND FITNESS
  30:../Dave/Generated/CMSIS_DSP/FilteringFunctions/arm_lms_norm_q31.c **** * FOR A PARTICULAR PURPOSE ARE DISCLAIMED. IN NO EVENT SHALL THE 
  31:../Dave/Generated/CMSIS_DSP/FilteringFunctions/arm_lms_norm_q31.c **** * COPYRIGHT OWNER OR CONTRIBUTORS BE LIABLE FOR ANY DIRECT, INDIRECT,
  32:../Dave/Generated/CMSIS_DSP/FilteringFunctions/arm_lms_norm_q31.c **** * INCIDENTAL, SPECIAL, EXEMPLARY, OR CONSEQUENTIAL DAMAGES (INCLUDING,
  33:../Dave/Generated/CMSIS_DSP/FilteringFunctions/arm_lms_norm_q31.c **** * BUT NOT LIMITED TO, PROCUREMENT OF SUBSTITUTE GOODS OR SERVICES;
  34:../Dave/Generated/CMSIS_DSP/FilteringFunctions/arm_lms_norm_q31.c **** * LOSS OF USE, DATA, OR PROFITS; OR BUSINESS INTERRUPTION) HOWEVER
  35:../Dave/Generated/CMSIS_DSP/FilteringFunctions/arm_lms_norm_q31.c **** * CAUSED AND ON ANY THEORY OF LIABILITY, WHETHER IN CONTRACT, STRICT
  36:../Dave/Generated/CMSIS_DSP/FilteringFunctions/arm_lms_norm_q31.c **** * LIABILITY, OR TORT (INCLUDING NEGLIGENCE OR OTHERWISE) ARISING IN
  37:../Dave/Generated/CMSIS_DSP/FilteringFunctions/arm_lms_norm_q31.c **** * ANY WAY OUT OF THE USE OF THIS SOFTWARE, EVEN IF ADVISED OF THE
  38:../Dave/Generated/CMSIS_DSP/FilteringFunctions/arm_lms_norm_q31.c **** * POSSIBILITY OF SUCH DAMAGE.    
  39:../Dave/Generated/CMSIS_DSP/FilteringFunctions/arm_lms_norm_q31.c **** * -------------------------------------------------------------------- */
  40:../Dave/Generated/CMSIS_DSP/FilteringFunctions/arm_lms_norm_q31.c **** 
  41:../Dave/Generated/CMSIS_DSP/FilteringFunctions/arm_lms_norm_q31.c **** #include "CMSIS_DSP/cmsis_dsp.h"
  42:../Dave/Generated/CMSIS_DSP/FilteringFunctions/arm_lms_norm_q31.c **** 
  43:../Dave/Generated/CMSIS_DSP/FilteringFunctions/arm_lms_norm_q31.c **** /**    
  44:../Dave/Generated/CMSIS_DSP/FilteringFunctions/arm_lms_norm_q31.c ****  * @ingroup groupFilters    
  45:../Dave/Generated/CMSIS_DSP/FilteringFunctions/arm_lms_norm_q31.c ****  */
  46:../Dave/Generated/CMSIS_DSP/FilteringFunctions/arm_lms_norm_q31.c **** 
  47:../Dave/Generated/CMSIS_DSP/FilteringFunctions/arm_lms_norm_q31.c **** /**    
  48:../Dave/Generated/CMSIS_DSP/FilteringFunctions/arm_lms_norm_q31.c ****  * @addtogroup LMS_NORM    
  49:../Dave/Generated/CMSIS_DSP/FilteringFunctions/arm_lms_norm_q31.c ****  * @{    
  50:../Dave/Generated/CMSIS_DSP/FilteringFunctions/arm_lms_norm_q31.c ****  */
  51:../Dave/Generated/CMSIS_DSP/FilteringFunctions/arm_lms_norm_q31.c **** 
  52:../Dave/Generated/CMSIS_DSP/FilteringFunctions/arm_lms_norm_q31.c **** /**    
  53:../Dave/Generated/CMSIS_DSP/FilteringFunctions/arm_lms_norm_q31.c **** * @brief Processing function for Q31 normalized LMS filter.    
  54:../Dave/Generated/CMSIS_DSP/FilteringFunctions/arm_lms_norm_q31.c **** * @param[in] *S points to an instance of the Q31 normalized LMS filter structure.    
  55:../Dave/Generated/CMSIS_DSP/FilteringFunctions/arm_lms_norm_q31.c **** * @param[in] *pSrc points to the block of input data.    
  56:../Dave/Generated/CMSIS_DSP/FilteringFunctions/arm_lms_norm_q31.c **** * @param[in] *pRef points to the block of reference data.    
  57:../Dave/Generated/CMSIS_DSP/FilteringFunctions/arm_lms_norm_q31.c **** * @param[out] *pOut points to the block of output data.    
  58:../Dave/Generated/CMSIS_DSP/FilteringFunctions/arm_lms_norm_q31.c **** * @param[out] *pErr points to the block of error data.    
  59:../Dave/Generated/CMSIS_DSP/FilteringFunctions/arm_lms_norm_q31.c **** * @param[in] blockSize number of samples to process.    
  60:../Dave/Generated/CMSIS_DSP/FilteringFunctions/arm_lms_norm_q31.c **** * @return none.    
  61:../Dave/Generated/CMSIS_DSP/FilteringFunctions/arm_lms_norm_q31.c **** *    
  62:../Dave/Generated/CMSIS_DSP/FilteringFunctions/arm_lms_norm_q31.c **** * <b>Scaling and Overflow Behavior:</b>     
  63:../Dave/Generated/CMSIS_DSP/FilteringFunctions/arm_lms_norm_q31.c **** * \par     
  64:../Dave/Generated/CMSIS_DSP/FilteringFunctions/arm_lms_norm_q31.c **** * The function is implemented using an internal 64-bit accumulator.     
  65:../Dave/Generated/CMSIS_DSP/FilteringFunctions/arm_lms_norm_q31.c **** * The accumulator has a 2.62 format and maintains full precision of the intermediate   
  66:../Dave/Generated/CMSIS_DSP/FilteringFunctions/arm_lms_norm_q31.c **** * multiplication results but provides only a single guard bit.     
  67:../Dave/Generated/CMSIS_DSP/FilteringFunctions/arm_lms_norm_q31.c **** * Thus, if the accumulator result overflows it wraps around rather than clip.     
  68:../Dave/Generated/CMSIS_DSP/FilteringFunctions/arm_lms_norm_q31.c **** * In order to avoid overflows completely the input signal must be scaled down by    
  69:../Dave/Generated/CMSIS_DSP/FilteringFunctions/arm_lms_norm_q31.c **** * log2(numTaps) bits. The reference signal should not be scaled down.     
  70:../Dave/Generated/CMSIS_DSP/FilteringFunctions/arm_lms_norm_q31.c **** * After all multiply-accumulates are performed, the 2.62 accumulator is shifted    
  71:../Dave/Generated/CMSIS_DSP/FilteringFunctions/arm_lms_norm_q31.c **** * and saturated to 1.31 format to yield the final result.     
  72:../Dave/Generated/CMSIS_DSP/FilteringFunctions/arm_lms_norm_q31.c **** * The output signal and error signal are in 1.31 format.     
  73:../Dave/Generated/CMSIS_DSP/FilteringFunctions/arm_lms_norm_q31.c **** *    
  74:../Dave/Generated/CMSIS_DSP/FilteringFunctions/arm_lms_norm_q31.c **** * \par    
  75:../Dave/Generated/CMSIS_DSP/FilteringFunctions/arm_lms_norm_q31.c **** * 	In this filter, filter coefficients are updated for each sample and the    
  76:../Dave/Generated/CMSIS_DSP/FilteringFunctions/arm_lms_norm_q31.c **** * updation of filter cofficients are saturted.    
  77:../Dave/Generated/CMSIS_DSP/FilteringFunctions/arm_lms_norm_q31.c **** *     
  78:../Dave/Generated/CMSIS_DSP/FilteringFunctions/arm_lms_norm_q31.c **** */
  79:../Dave/Generated/CMSIS_DSP/FilteringFunctions/arm_lms_norm_q31.c **** 
  80:../Dave/Generated/CMSIS_DSP/FilteringFunctions/arm_lms_norm_q31.c **** void arm_lms_norm_q31(
  81:../Dave/Generated/CMSIS_DSP/FilteringFunctions/arm_lms_norm_q31.c ****   arm_lms_norm_instance_q31 * S,
  82:../Dave/Generated/CMSIS_DSP/FilteringFunctions/arm_lms_norm_q31.c ****   q31_t * pSrc,
  83:../Dave/Generated/CMSIS_DSP/FilteringFunctions/arm_lms_norm_q31.c ****   q31_t * pRef,
  84:../Dave/Generated/CMSIS_DSP/FilteringFunctions/arm_lms_norm_q31.c ****   q31_t * pOut,
  85:../Dave/Generated/CMSIS_DSP/FilteringFunctions/arm_lms_norm_q31.c ****   q31_t * pErr,
  86:../Dave/Generated/CMSIS_DSP/FilteringFunctions/arm_lms_norm_q31.c ****   uint32_t blockSize)
  87:../Dave/Generated/CMSIS_DSP/FilteringFunctions/arm_lms_norm_q31.c **** {
 275              	 .loc 3 87 0
 276              	 .cfi_startproc
 277              	 
 278              	 
 279 0000 2DE9B04F 	 push {r4,r5,r7,r8,r9,r10,fp,lr}
 280              	.LCFI11:
 281              	 .cfi_def_cfa_offset 32
 282              	 .cfi_offset 4,-32
 283              	 .cfi_offset 5,-28
 284              	 .cfi_offset 7,-24
 285              	 .cfi_offset 8,-20
 286              	 .cfi_offset 9,-16
 287              	 .cfi_offset 10,-12
 288              	 .cfi_offset 11,-8
 289              	 .cfi_offset 14,-4
 290 0004 B2B0     	 sub sp,sp,#200
 291              	.LCFI12:
 292              	 .cfi_def_cfa_offset 232
 293 0006 00AF     	 add r7,sp,#0
 294              	.LCFI13:
 295              	 .cfi_def_cfa_register 7
 296 0008 F865     	 str r0,[r7,#92]
 297 000a B965     	 str r1,[r7,#88]
 298 000c 7A65     	 str r2,[r7,#84]
 299 000e 3B65     	 str r3,[r7,#80]
  88:../Dave/Generated/CMSIS_DSP/FilteringFunctions/arm_lms_norm_q31.c ****   q31_t *pState = S->pState;                     /* State pointer */
 300              	 .loc 3 88 0
 301 0010 FB6D     	 ldr r3,[r7,#92]
 302 0012 5B68     	 ldr r3,[r3,#4]
 303 0014 C7F8C430 	 str r3,[r7,#196]
  89:../Dave/Generated/CMSIS_DSP/FilteringFunctions/arm_lms_norm_q31.c ****   q31_t *pCoeffs = S->pCoeffs;                   /* Coefficient pointer */
 304              	 .loc 3 89 0
 305 0018 FB6D     	 ldr r3,[r7,#92]
 306 001a 9B68     	 ldr r3,[r3,#8]
 307 001c C7F89830 	 str r3,[r7,#152]
  90:../Dave/Generated/CMSIS_DSP/FilteringFunctions/arm_lms_norm_q31.c ****   q31_t *pStateCurnt;                            /* Points to the current sample of the state */
  91:../Dave/Generated/CMSIS_DSP/FilteringFunctions/arm_lms_norm_q31.c ****   q31_t *px, *pb;                                /* Temporary pointers for state and coefficient bu
  92:../Dave/Generated/CMSIS_DSP/FilteringFunctions/arm_lms_norm_q31.c ****   q31_t mu = S->mu;                              /* Adaptive factor */
 308              	 .loc 3 92 0
 309 0020 FB6D     	 ldr r3,[r7,#92]
 310 0022 DB68     	 ldr r3,[r3,#12]
 311 0024 C7F89430 	 str r3,[r7,#148]
  93:../Dave/Generated/CMSIS_DSP/FilteringFunctions/arm_lms_norm_q31.c ****   uint32_t numTaps = S->numTaps;                 /* Number of filter coefficients in the filter */
 312              	 .loc 3 93 0
 313 0028 FB6D     	 ldr r3,[r7,#92]
 314 002a 1B88     	 ldrh r3,[r3]
 315 002c C7F89030 	 str r3,[r7,#144]
  94:../Dave/Generated/CMSIS_DSP/FilteringFunctions/arm_lms_norm_q31.c ****   uint32_t tapCnt, blkCnt;                       /* Loop counters */
  95:../Dave/Generated/CMSIS_DSP/FilteringFunctions/arm_lms_norm_q31.c ****   q63_t energy;                                  /* Energy of the input */
  96:../Dave/Generated/CMSIS_DSP/FilteringFunctions/arm_lms_norm_q31.c ****   q63_t acc;                                     /* Accumulator */
  97:../Dave/Generated/CMSIS_DSP/FilteringFunctions/arm_lms_norm_q31.c ****   q31_t e = 0, d = 0;                            /* error, reference data sample */
 316              	 .loc 3 97 0
 317 0030 0023     	 movs r3,#0
 318 0032 C7F88C30 	 str r3,[r7,#140]
 319 0036 0023     	 movs r3,#0
 320 0038 C7F88830 	 str r3,[r7,#136]
  98:../Dave/Generated/CMSIS_DSP/FilteringFunctions/arm_lms_norm_q31.c ****   q31_t w = 0, in;                               /* weight factor and state */
 321              	 .loc 3 98 0
 322 003c 0023     	 movs r3,#0
 323 003e C7F88430 	 str r3,[r7,#132]
  99:../Dave/Generated/CMSIS_DSP/FilteringFunctions/arm_lms_norm_q31.c ****   q31_t x0;                                      /* temporary variable to hold input sample */
 100:../Dave/Generated/CMSIS_DSP/FilteringFunctions/arm_lms_norm_q31.c **** //  uint32_t shift = 32u - ((uint32_t) S->postShift + 1u);        /* Shift to be applied to the out
 101:../Dave/Generated/CMSIS_DSP/FilteringFunctions/arm_lms_norm_q31.c ****   q31_t errorXmu, oneByEnergy;                   /* Temporary variables to store error and mu produ
 102:../Dave/Generated/CMSIS_DSP/FilteringFunctions/arm_lms_norm_q31.c ****   q31_t postShift;                               /* Post shift to be applied to weight after recipr
 103:../Dave/Generated/CMSIS_DSP/FilteringFunctions/arm_lms_norm_q31.c ****   q31_t coef;                                    /* Temporary variable for coef */
 104:../Dave/Generated/CMSIS_DSP/FilteringFunctions/arm_lms_norm_q31.c ****   q31_t acc_l, acc_h;                            /*  temporary input */
 105:../Dave/Generated/CMSIS_DSP/FilteringFunctions/arm_lms_norm_q31.c ****   uint32_t uShift = ((uint32_t) S->postShift + 1u);
 324              	 .loc 3 105 0
 325 0042 FB6D     	 ldr r3,[r7,#92]
 326 0044 1B7C     	 ldrb r3,[r3,#16]
 327 0046 0133     	 adds r3,r3,#1
 328 0048 C7F88030 	 str r3,[r7,#128]
 106:../Dave/Generated/CMSIS_DSP/FilteringFunctions/arm_lms_norm_q31.c ****   uint32_t lShift = 32u - uShift;                /*  Shift to be applied to the output */
 329              	 .loc 3 106 0
 330 004c D7F88030 	 ldr r3,[r7,#128]
 331 0050 C3F12003 	 rsb r3,r3,#32
 332 0054 FB67     	 str r3,[r7,#124]
 107:../Dave/Generated/CMSIS_DSP/FilteringFunctions/arm_lms_norm_q31.c **** 
 108:../Dave/Generated/CMSIS_DSP/FilteringFunctions/arm_lms_norm_q31.c ****   energy = S->energy;
 333              	 .loc 3 108 0
 334 0056 FB6D     	 ldr r3,[r7,#92]
 335 0058 9B69     	 ldr r3,[r3,#24]
 336 005a 1A46     	 mov r2,r3
 337 005c 4FEAE273 	 asr r3,r2,#31
 338 0060 C7E92A23 	 strd r2,[r7,#168]
 109:../Dave/Generated/CMSIS_DSP/FilteringFunctions/arm_lms_norm_q31.c ****   x0 = S->x0;
 339              	 .loc 3 109 0
 340 0064 FB6D     	 ldr r3,[r7,#92]
 341 0066 DB69     	 ldr r3,[r3,#28]
 342 0068 C7F89C30 	 str r3,[r7,#156]
 110:../Dave/Generated/CMSIS_DSP/FilteringFunctions/arm_lms_norm_q31.c **** 
 111:../Dave/Generated/CMSIS_DSP/FilteringFunctions/arm_lms_norm_q31.c ****   /* S->pState points to buffer which contains previous frame (numTaps - 1) samples */
 112:../Dave/Generated/CMSIS_DSP/FilteringFunctions/arm_lms_norm_q31.c ****   /* pStateCurnt points to the location where the new input data should be written */
 113:../Dave/Generated/CMSIS_DSP/FilteringFunctions/arm_lms_norm_q31.c ****   pStateCurnt = &(S->pState[(numTaps - 1u)]);
 343              	 .loc 3 113 0
 344 006c FB6D     	 ldr r3,[r7,#92]
 345 006e 5A68     	 ldr r2,[r3,#4]
 346 0070 D7F89030 	 ldr r3,[r7,#144]
 347 0074 03F18043 	 add r3,r3,#1073741824
 348 0078 013B     	 subs r3,r3,#1
 349 007a 9B00     	 lsls r3,r3,#2
 350 007c 1344     	 add r3,r3,r2
 351 007e C7F8C030 	 str r3,[r7,#192]
 114:../Dave/Generated/CMSIS_DSP/FilteringFunctions/arm_lms_norm_q31.c **** 
 115:../Dave/Generated/CMSIS_DSP/FilteringFunctions/arm_lms_norm_q31.c ****   /* Loop over blockSize number of values */
 116:../Dave/Generated/CMSIS_DSP/FilteringFunctions/arm_lms_norm_q31.c ****   blkCnt = blockSize;
 352              	 .loc 3 116 0
 353 0082 D7F8EC30 	 ldr r3,[r7,#236]
 354 0086 C7F8B030 	 str r3,[r7,#176]
 117:../Dave/Generated/CMSIS_DSP/FilteringFunctions/arm_lms_norm_q31.c **** 
 118:../Dave/Generated/CMSIS_DSP/FilteringFunctions/arm_lms_norm_q31.c **** 
 119:../Dave/Generated/CMSIS_DSP/FilteringFunctions/arm_lms_norm_q31.c **** #ifndef ARM_MATH_CM0_FAMILY
 120:../Dave/Generated/CMSIS_DSP/FilteringFunctions/arm_lms_norm_q31.c **** 
 121:../Dave/Generated/CMSIS_DSP/FilteringFunctions/arm_lms_norm_q31.c ****   /* Run the below code for Cortex-M4 and Cortex-M3 */
 122:../Dave/Generated/CMSIS_DSP/FilteringFunctions/arm_lms_norm_q31.c **** 
 123:../Dave/Generated/CMSIS_DSP/FilteringFunctions/arm_lms_norm_q31.c ****   while(blkCnt > 0u)
 355              	 .loc 3 123 0
 356 008a 14E3     	 b .L14
 357              	.L24:
 124:../Dave/Generated/CMSIS_DSP/FilteringFunctions/arm_lms_norm_q31.c ****   {
 125:../Dave/Generated/CMSIS_DSP/FilteringFunctions/arm_lms_norm_q31.c **** 
 126:../Dave/Generated/CMSIS_DSP/FilteringFunctions/arm_lms_norm_q31.c ****     /* Copy the new input sample into the state buffer */
 127:../Dave/Generated/CMSIS_DSP/FilteringFunctions/arm_lms_norm_q31.c ****     *pStateCurnt++ = *pSrc;
 358              	 .loc 3 127 0
 359 008c D7F8C020 	 ldr r2,[r7,#192]
 360 0090 131D     	 adds r3,r2,#4
 361 0092 C7F8C030 	 str r3,[r7,#192]
 362 0096 BB6D     	 ldr r3,[r7,#88]
 363 0098 1B68     	 ldr r3,[r3]
 364 009a 1360     	 str r3,[r2]
 128:../Dave/Generated/CMSIS_DSP/FilteringFunctions/arm_lms_norm_q31.c **** 
 129:../Dave/Generated/CMSIS_DSP/FilteringFunctions/arm_lms_norm_q31.c ****     /* Initialize pState pointer */
 130:../Dave/Generated/CMSIS_DSP/FilteringFunctions/arm_lms_norm_q31.c ****     px = pState;
 365              	 .loc 3 130 0
 366 009c D7F8C430 	 ldr r3,[r7,#196]
 367 00a0 C7F8BC30 	 str r3,[r7,#188]
 131:../Dave/Generated/CMSIS_DSP/FilteringFunctions/arm_lms_norm_q31.c **** 
 132:../Dave/Generated/CMSIS_DSP/FilteringFunctions/arm_lms_norm_q31.c ****     /* Initialize coeff pointer */
 133:../Dave/Generated/CMSIS_DSP/FilteringFunctions/arm_lms_norm_q31.c ****     pb = (pCoeffs);
 368              	 .loc 3 133 0
 369 00a4 D7F89830 	 ldr r3,[r7,#152]
 370 00a8 C7F8B830 	 str r3,[r7,#184]
 134:../Dave/Generated/CMSIS_DSP/FilteringFunctions/arm_lms_norm_q31.c **** 
 135:../Dave/Generated/CMSIS_DSP/FilteringFunctions/arm_lms_norm_q31.c ****     /* Read the sample from input buffer */
 136:../Dave/Generated/CMSIS_DSP/FilteringFunctions/arm_lms_norm_q31.c ****     in = *pSrc++;
 371              	 .loc 3 136 0
 372 00ac BA6D     	 ldr r2,[r7,#88]
 373 00ae 131D     	 adds r3,r2,#4
 374 00b0 BB65     	 str r3,[r7,#88]
 375 00b2 1368     	 ldr r3,[r2]
 376 00b4 BB67     	 str r3,[r7,#120]
 137:../Dave/Generated/CMSIS_DSP/FilteringFunctions/arm_lms_norm_q31.c **** 
 138:../Dave/Generated/CMSIS_DSP/FilteringFunctions/arm_lms_norm_q31.c ****     /* Update the energy calculation */
 139:../Dave/Generated/CMSIS_DSP/FilteringFunctions/arm_lms_norm_q31.c ****     energy = (q31_t) ((((q63_t) energy << 32) -
 377              	 .loc 3 139 0
 378 00b6 D7E92A23 	 ldrd r2,[r7,#168]
 379 00ba 1300     	 movs r3,r2
 380 00bc FB64     	 str r3,[r7,#76]
 381 00be 0023     	 movs r3,#0
 382 00c0 BB64     	 str r3,[r7,#72]
 140:../Dave/Generated/CMSIS_DSP/FilteringFunctions/arm_lms_norm_q31.c ****                        (((q63_t) x0 * x0) << 1)) >> 32);
 383              	 .loc 3 140 0
 384 00c2 D7F89C30 	 ldr r3,[r7,#156]
 385 00c6 1846     	 mov r0,r3
 386 00c8 4FEAE071 	 asr r1,r0,#31
 387 00cc D7F89C30 	 ldr r3,[r7,#156]
 388 00d0 1A46     	 mov r2,r3
 389 00d2 4FEAE273 	 asr r3,r2,#31
 390 00d6 02FB01F5 	 mul r5,r2,r1
 391 00da 00FB03F4 	 mul r4,r0,r3
 392 00de 2C44     	 add r4,r4,r5
 393 00e0 A0FB0201 	 umull r0,r1,r0,r2
 394 00e4 6318     	 adds r3,r4,r1
 395 00e6 1946     	 mov r1,r3
 396 00e8 0218     	 adds r2,r0,r0
 397 00ea 41EB0103 	 adc r3,r1,r1
 139:../Dave/Generated/CMSIS_DSP/FilteringFunctions/arm_lms_norm_q31.c ****                        (((q63_t) x0 * x0) << 1)) >> 32);
 398              	 .loc 3 139 0
 399 00ee D7E91201 	 ldrd r0,[r7,#72]
 400 00f2 801A     	 subs r0,r0,r2
 401 00f4 61EB0301 	 sbc r1,r1,r3
 402 00f8 0246     	 mov r2,r0
 403 00fa 0B46     	 mov r3,r1
 404              	 .loc 3 140 0
 405 00fc 1900     	 movs r1,r3
 406 00fe 3964     	 str r1,[r7,#64]
 407 0100 DB17     	 asrs r3,r3,#31
 408 0102 7B64     	 str r3,[r7,#68]
 139:../Dave/Generated/CMSIS_DSP/FilteringFunctions/arm_lms_norm_q31.c ****                        (((q63_t) x0 * x0) << 1)) >> 32);
 409              	 .loc 3 139 0
 410 0104 3B6C     	 ldr r3,[r7,#64]
 411 0106 1A46     	 mov r2,r3
 412 0108 4FEAE273 	 asr r3,r2,#31
 413 010c C7E92A23 	 strd r2,[r7,#168]
 141:../Dave/Generated/CMSIS_DSP/FilteringFunctions/arm_lms_norm_q31.c ****     energy = (q31_t) (((((q63_t) in * in) << 1) + (energy << 32)) >> 32);
 414              	 .loc 3 141 0
 415 0110 BB6F     	 ldr r3,[r7,#120]
 416 0112 1846     	 mov r0,r3
 417 0114 4FEAE071 	 asr r1,r0,#31
 418 0118 BB6F     	 ldr r3,[r7,#120]
 419 011a 1A46     	 mov r2,r3
 420 011c 4FEAE273 	 asr r3,r2,#31
 421 0120 02FB01F5 	 mul r5,r2,r1
 422 0124 00FB03F4 	 mul r4,r0,r3
 423 0128 2C44     	 add r4,r4,r5
 424 012a A0FB0201 	 umull r0,r1,r0,r2
 425 012e 6318     	 adds r3,r4,r1
 426 0130 1946     	 mov r1,r3
 427 0132 0218     	 adds r2,r0,r0
 428 0134 41EB0103 	 adc r3,r1,r1
 429 0138 1046     	 mov r0,r2
 430 013a 1946     	 mov r1,r3
 431 013c D7E92A23 	 ldrd r2,[r7,#168]
 432 0140 1300     	 movs r3,r2
 433 0142 FB63     	 str r3,[r7,#60]
 434 0144 0023     	 movs r3,#0
 435 0146 BB63     	 str r3,[r7,#56]
 436 0148 D7E90E23 	 ldrd r2,[r7,#56]
 437 014c 1218     	 adds r2,r2,r0
 438 014e 43EB0103 	 adc r3,r3,r1
 439 0152 1900     	 movs r1,r3
 440 0154 3963     	 str r1,[r7,#48]
 441 0156 DB17     	 asrs r3,r3,#31
 442 0158 7B63     	 str r3,[r7,#52]
 443 015a 3B6B     	 ldr r3,[r7,#48]
 444 015c 1A46     	 mov r2,r3
 445 015e 4FEAE273 	 asr r3,r2,#31
 446 0162 C7E92A23 	 strd r2,[r7,#168]
 142:../Dave/Generated/CMSIS_DSP/FilteringFunctions/arm_lms_norm_q31.c **** 
 143:../Dave/Generated/CMSIS_DSP/FilteringFunctions/arm_lms_norm_q31.c ****     /* Set the accumulator to zero */
 144:../Dave/Generated/CMSIS_DSP/FilteringFunctions/arm_lms_norm_q31.c ****     acc = 0;
 447              	 .loc 3 144 0
 448 0166 4FF00002 	 mov r2,#0
 449 016a 4FF00003 	 mov r3,#0
 450 016e C7E92823 	 strd r2,[r7,#160]
 145:../Dave/Generated/CMSIS_DSP/FilteringFunctions/arm_lms_norm_q31.c **** 
 146:../Dave/Generated/CMSIS_DSP/FilteringFunctions/arm_lms_norm_q31.c ****     /* Loop unrolling.  Process 4 taps at a time. */
 147:../Dave/Generated/CMSIS_DSP/FilteringFunctions/arm_lms_norm_q31.c ****     tapCnt = numTaps >> 2;
 451              	 .loc 3 147 0
 452 0172 D7F89030 	 ldr r3,[r7,#144]
 453 0176 9B08     	 lsrs r3,r3,#2
 454 0178 C7F8B430 	 str r3,[r7,#180]
 148:../Dave/Generated/CMSIS_DSP/FilteringFunctions/arm_lms_norm_q31.c **** 
 149:../Dave/Generated/CMSIS_DSP/FilteringFunctions/arm_lms_norm_q31.c ****     while(tapCnt > 0u)
 455              	 .loc 3 149 0
 456 017c 8CE0     	 b .L15
 457              	.L16:
 150:../Dave/Generated/CMSIS_DSP/FilteringFunctions/arm_lms_norm_q31.c ****     {
 151:../Dave/Generated/CMSIS_DSP/FilteringFunctions/arm_lms_norm_q31.c ****       /* Perform the multiply-accumulate */
 152:../Dave/Generated/CMSIS_DSP/FilteringFunctions/arm_lms_norm_q31.c ****       acc += ((q63_t) (*px++)) * (*pb++);
 458              	 .loc 3 152 0
 459 017e D7F8BC20 	 ldr r2,[r7,#188]
 460 0182 131D     	 adds r3,r2,#4
 461 0184 C7F8BC30 	 str r3,[r7,#188]
 462 0188 1368     	 ldr r3,[r2]
 463 018a 1C46     	 mov r4,r3
 464 018c 4FEAE475 	 asr r5,r4,#31
 465 0190 D7F8B820 	 ldr r2,[r7,#184]
 466 0194 131D     	 adds r3,r2,#4
 467 0196 C7F8B830 	 str r3,[r7,#184]
 468 019a 1368     	 ldr r3,[r2]
 469 019c 1A46     	 mov r2,r3
 470 019e 4FEAE273 	 asr r3,r2,#31
 471 01a2 02FB05F0 	 mul r0,r2,r5
 472 01a6 04FB03F1 	 mul r1,r4,r3
 473 01aa 0144     	 add r1,r1,r0
 474 01ac A4FB0245 	 umull r4,r5,r4,r2
 475 01b0 4B19     	 adds r3,r1,r5
 476 01b2 1D46     	 mov r5,r3
 477 01b4 D7E92823 	 ldrd r2,[r7,#160]
 478 01b8 1219     	 adds r2,r2,r4
 479 01ba 43EB0503 	 adc r3,r3,r5
 480 01be C7E92823 	 strd r2,[r7,#160]
 153:../Dave/Generated/CMSIS_DSP/FilteringFunctions/arm_lms_norm_q31.c ****       acc += ((q63_t) (*px++)) * (*pb++);
 481              	 .loc 3 153 0
 482 01c2 D7F8BC20 	 ldr r2,[r7,#188]
 483 01c6 131D     	 adds r3,r2,#4
 484 01c8 C7F8BC30 	 str r3,[r7,#188]
 485 01cc 1368     	 ldr r3,[r2]
 486 01ce 1C46     	 mov r4,r3
 487 01d0 4FEAE475 	 asr r5,r4,#31
 488 01d4 D7F8B820 	 ldr r2,[r7,#184]
 489 01d8 131D     	 adds r3,r2,#4
 490 01da C7F8B830 	 str r3,[r7,#184]
 491 01de 1368     	 ldr r3,[r2]
 492 01e0 1A46     	 mov r2,r3
 493 01e2 4FEAE273 	 asr r3,r2,#31
 494 01e6 02FB05F0 	 mul r0,r2,r5
 495 01ea 04FB03F1 	 mul r1,r4,r3
 496 01ee 0144     	 add r1,r1,r0
 497 01f0 A4FB0245 	 umull r4,r5,r4,r2
 498 01f4 4B19     	 adds r3,r1,r5
 499 01f6 1D46     	 mov r5,r3
 500 01f8 D7E92823 	 ldrd r2,[r7,#160]
 501 01fc 1219     	 adds r2,r2,r4
 502 01fe 43EB0503 	 adc r3,r3,r5
 503 0202 C7E92823 	 strd r2,[r7,#160]
 154:../Dave/Generated/CMSIS_DSP/FilteringFunctions/arm_lms_norm_q31.c ****       acc += ((q63_t) (*px++)) * (*pb++);
 504              	 .loc 3 154 0
 505 0206 D7F8BC20 	 ldr r2,[r7,#188]
 506 020a 131D     	 adds r3,r2,#4
 507 020c C7F8BC30 	 str r3,[r7,#188]
 508 0210 1368     	 ldr r3,[r2]
 509 0212 1C46     	 mov r4,r3
 510 0214 4FEAE475 	 asr r5,r4,#31
 511 0218 D7F8B820 	 ldr r2,[r7,#184]
 512 021c 131D     	 adds r3,r2,#4
 513 021e C7F8B830 	 str r3,[r7,#184]
 514 0222 1368     	 ldr r3,[r2]
 515 0224 1A46     	 mov r2,r3
 516 0226 4FEAE273 	 asr r3,r2,#31
 517 022a 02FB05F0 	 mul r0,r2,r5
 518 022e 04FB03F1 	 mul r1,r4,r3
 519 0232 0144     	 add r1,r1,r0
 520 0234 A4FB0245 	 umull r4,r5,r4,r2
 521 0238 4B19     	 adds r3,r1,r5
 522 023a 1D46     	 mov r5,r3
 523 023c D7E92823 	 ldrd r2,[r7,#160]
 524 0240 1219     	 adds r2,r2,r4
 525 0242 43EB0503 	 adc r3,r3,r5
 526 0246 C7E92823 	 strd r2,[r7,#160]
 155:../Dave/Generated/CMSIS_DSP/FilteringFunctions/arm_lms_norm_q31.c ****       acc += ((q63_t) (*px++)) * (*pb++);
 527              	 .loc 3 155 0
 528 024a D7F8BC20 	 ldr r2,[r7,#188]
 529 024e 131D     	 adds r3,r2,#4
 530 0250 C7F8BC30 	 str r3,[r7,#188]
 531 0254 1368     	 ldr r3,[r2]
 532 0256 1C46     	 mov r4,r3
 533 0258 4FEAE475 	 asr r5,r4,#31
 534 025c D7F8B820 	 ldr r2,[r7,#184]
 535 0260 131D     	 adds r3,r2,#4
 536 0262 C7F8B830 	 str r3,[r7,#184]
 537 0266 1368     	 ldr r3,[r2]
 538 0268 1A46     	 mov r2,r3
 539 026a 4FEAE273 	 asr r3,r2,#31
 540 026e 02FB05F0 	 mul r0,r2,r5
 541 0272 04FB03F1 	 mul r1,r4,r3
 542 0276 0144     	 add r1,r1,r0
 543 0278 A4FB0245 	 umull r4,r5,r4,r2
 544 027c 4B19     	 adds r3,r1,r5
 545 027e 1D46     	 mov r5,r3
 546 0280 D7E92823 	 ldrd r2,[r7,#160]
 547 0284 1219     	 adds r2,r2,r4
 548 0286 43EB0503 	 adc r3,r3,r5
 549 028a C7E92823 	 strd r2,[r7,#160]
 156:../Dave/Generated/CMSIS_DSP/FilteringFunctions/arm_lms_norm_q31.c **** 
 157:../Dave/Generated/CMSIS_DSP/FilteringFunctions/arm_lms_norm_q31.c ****       /* Decrement the loop counter */
 158:../Dave/Generated/CMSIS_DSP/FilteringFunctions/arm_lms_norm_q31.c ****       tapCnt--;
 550              	 .loc 3 158 0
 551 028e D7F8B430 	 ldr r3,[r7,#180]
 552 0292 013B     	 subs r3,r3,#1
 553 0294 C7F8B430 	 str r3,[r7,#180]
 554              	.L15:
 149:../Dave/Generated/CMSIS_DSP/FilteringFunctions/arm_lms_norm_q31.c ****     {
 555              	 .loc 3 149 0
 556 0298 D7F8B430 	 ldr r3,[r7,#180]
 557 029c 002B     	 cmp r3,#0
 558 029e 7FF46EAF 	 bne .L16
 159:../Dave/Generated/CMSIS_DSP/FilteringFunctions/arm_lms_norm_q31.c ****     }
 160:../Dave/Generated/CMSIS_DSP/FilteringFunctions/arm_lms_norm_q31.c **** 
