   1              	 .syntax unified
   2              	 .cpu cortex-m4
   3              	 .fpu softvfp
   4              	 .eabi_attribute 20,1
   5              	 .eabi_attribute 21,1
   6              	 .eabi_attribute 23,3
   7              	 .eabi_attribute 24,1
   8              	 .eabi_attribute 25,1
   9              	 .eabi_attribute 26,1
  10              	 .eabi_attribute 30,6
  11              	 .eabi_attribute 34,1
  12              	 .eabi_attribute 18,4
  13              	 .thumb
  14              	 .file "arm_conv_partial_q15.c"
  15              	 .text
  16              	.Ltext0:
  17              	 .cfi_sections .debug_frame
  18              	 .section .text.arm_conv_partial_q15,"ax",%progbits
  19              	 .align 2
  20              	 .global arm_conv_partial_q15
  21              	 .thumb
  22              	 .thumb_func
  24              	arm_conv_partial_q15:
  25              	.LFB139:
  26              	 .file 1 "../Dave/Generated/CMSIS_DSP/FilteringFunctions/arm_conv_partial_q15.c"
   1:../Dave/Generated/CMSIS_DSP/FilteringFunctions/arm_conv_partial_q15.c **** /* ----------------------------------------------------------------------   
   2:../Dave/Generated/CMSIS_DSP/FilteringFunctions/arm_conv_partial_q15.c **** * Copyright (C) 2010-2014 ARM Limited. All rights reserved.   
   3:../Dave/Generated/CMSIS_DSP/FilteringFunctions/arm_conv_partial_q15.c **** *   
   4:../Dave/Generated/CMSIS_DSP/FilteringFunctions/arm_conv_partial_q15.c **** * $Date:        12. March 2014
   5:../Dave/Generated/CMSIS_DSP/FilteringFunctions/arm_conv_partial_q15.c **** * $Revision: 	V1.4.4
   6:../Dave/Generated/CMSIS_DSP/FilteringFunctions/arm_conv_partial_q15.c **** *   
   7:../Dave/Generated/CMSIS_DSP/FilteringFunctions/arm_conv_partial_q15.c **** * Project: 	    CMSIS DSP Library   
   8:../Dave/Generated/CMSIS_DSP/FilteringFunctions/arm_conv_partial_q15.c **** * Title:		arm_conv_partial_q15.c   
   9:../Dave/Generated/CMSIS_DSP/FilteringFunctions/arm_conv_partial_q15.c **** *   
  10:../Dave/Generated/CMSIS_DSP/FilteringFunctions/arm_conv_partial_q15.c **** * Description:	Partial convolution of Q15 sequences.  
  11:../Dave/Generated/CMSIS_DSP/FilteringFunctions/arm_conv_partial_q15.c **** *   
  12:../Dave/Generated/CMSIS_DSP/FilteringFunctions/arm_conv_partial_q15.c **** * Target Processor: Cortex-M4/Cortex-M3/Cortex-M0
  13:../Dave/Generated/CMSIS_DSP/FilteringFunctions/arm_conv_partial_q15.c **** * 
  14:../Dave/Generated/CMSIS_DSP/FilteringFunctions/arm_conv_partial_q15.c **** * Redistribution and use in source and binary forms, with or without 
  15:../Dave/Generated/CMSIS_DSP/FilteringFunctions/arm_conv_partial_q15.c **** * modification, are permitted provided that the following conditions
  16:../Dave/Generated/CMSIS_DSP/FilteringFunctions/arm_conv_partial_q15.c **** * are met:
  17:../Dave/Generated/CMSIS_DSP/FilteringFunctions/arm_conv_partial_q15.c **** *   - Redistributions of source code must retain the above copyright
  18:../Dave/Generated/CMSIS_DSP/FilteringFunctions/arm_conv_partial_q15.c **** *     notice, this list of conditions and the following disclaimer.
  19:../Dave/Generated/CMSIS_DSP/FilteringFunctions/arm_conv_partial_q15.c **** *   - Redistributions in binary form must reproduce the above copyright
  20:../Dave/Generated/CMSIS_DSP/FilteringFunctions/arm_conv_partial_q15.c **** *     notice, this list of conditions and the following disclaimer in
  21:../Dave/Generated/CMSIS_DSP/FilteringFunctions/arm_conv_partial_q15.c **** *     the documentation and/or other materials provided with the 
  22:../Dave/Generated/CMSIS_DSP/FilteringFunctions/arm_conv_partial_q15.c **** *     distribution.
  23:../Dave/Generated/CMSIS_DSP/FilteringFunctions/arm_conv_partial_q15.c **** *   - Neither the name of ARM LIMITED nor the names of its contributors
  24:../Dave/Generated/CMSIS_DSP/FilteringFunctions/arm_conv_partial_q15.c **** *     may be used to endorse or promote products derived from this
  25:../Dave/Generated/CMSIS_DSP/FilteringFunctions/arm_conv_partial_q15.c **** *     software without specific prior written permission.
  26:../Dave/Generated/CMSIS_DSP/FilteringFunctions/arm_conv_partial_q15.c **** *
  27:../Dave/Generated/CMSIS_DSP/FilteringFunctions/arm_conv_partial_q15.c **** * THIS SOFTWARE IS PROVIDED BY THE COPYRIGHT HOLDERS AND CONTRIBUTORS
  28:../Dave/Generated/CMSIS_DSP/FilteringFunctions/arm_conv_partial_q15.c **** * "AS IS" AND ANY EXPRESS OR IMPLIED WARRANTIES, INCLUDING, BUT NOT
  29:../Dave/Generated/CMSIS_DSP/FilteringFunctions/arm_conv_partial_q15.c **** * LIMITED TO, THE IMPLIED WARRANTIES OF MERCHANTABILITY AND FITNESS
  30:../Dave/Generated/CMSIS_DSP/FilteringFunctions/arm_conv_partial_q15.c **** * FOR A PARTICULAR PURPOSE ARE DISCLAIMED. IN NO EVENT SHALL THE 
  31:../Dave/Generated/CMSIS_DSP/FilteringFunctions/arm_conv_partial_q15.c **** * COPYRIGHT OWNER OR CONTRIBUTORS BE LIABLE FOR ANY DIRECT, INDIRECT,
  32:../Dave/Generated/CMSIS_DSP/FilteringFunctions/arm_conv_partial_q15.c **** * INCIDENTAL, SPECIAL, EXEMPLARY, OR CONSEQUENTIAL DAMAGES (INCLUDING,
  33:../Dave/Generated/CMSIS_DSP/FilteringFunctions/arm_conv_partial_q15.c **** * BUT NOT LIMITED TO, PROCUREMENT OF SUBSTITUTE GOODS OR SERVICES;
  34:../Dave/Generated/CMSIS_DSP/FilteringFunctions/arm_conv_partial_q15.c **** * LOSS OF USE, DATA, OR PROFITS; OR BUSINESS INTERRUPTION) HOWEVER
  35:../Dave/Generated/CMSIS_DSP/FilteringFunctions/arm_conv_partial_q15.c **** * CAUSED AND ON ANY THEORY OF LIABILITY, WHETHER IN CONTRACT, STRICT
  36:../Dave/Generated/CMSIS_DSP/FilteringFunctions/arm_conv_partial_q15.c **** * LIABILITY, OR TORT (INCLUDING NEGLIGENCE OR OTHERWISE) ARISING IN
  37:../Dave/Generated/CMSIS_DSP/FilteringFunctions/arm_conv_partial_q15.c **** * ANY WAY OUT OF THE USE OF THIS SOFTWARE, EVEN IF ADVISED OF THE
  38:../Dave/Generated/CMSIS_DSP/FilteringFunctions/arm_conv_partial_q15.c **** * POSSIBILITY OF SUCH DAMAGE.  
  39:../Dave/Generated/CMSIS_DSP/FilteringFunctions/arm_conv_partial_q15.c **** * -------------------------------------------------------------------- */
  40:../Dave/Generated/CMSIS_DSP/FilteringFunctions/arm_conv_partial_q15.c **** 
  41:../Dave/Generated/CMSIS_DSP/FilteringFunctions/arm_conv_partial_q15.c **** #include "CMSIS_DSP/cmsis_dsp.h"
  42:../Dave/Generated/CMSIS_DSP/FilteringFunctions/arm_conv_partial_q15.c **** 
  43:../Dave/Generated/CMSIS_DSP/FilteringFunctions/arm_conv_partial_q15.c **** /**   
  44:../Dave/Generated/CMSIS_DSP/FilteringFunctions/arm_conv_partial_q15.c ****  * @ingroup groupFilters   
  45:../Dave/Generated/CMSIS_DSP/FilteringFunctions/arm_conv_partial_q15.c ****  */
  46:../Dave/Generated/CMSIS_DSP/FilteringFunctions/arm_conv_partial_q15.c **** 
  47:../Dave/Generated/CMSIS_DSP/FilteringFunctions/arm_conv_partial_q15.c **** /**   
  48:../Dave/Generated/CMSIS_DSP/FilteringFunctions/arm_conv_partial_q15.c ****  * @addtogroup PartialConv   
  49:../Dave/Generated/CMSIS_DSP/FilteringFunctions/arm_conv_partial_q15.c ****  * @{   
  50:../Dave/Generated/CMSIS_DSP/FilteringFunctions/arm_conv_partial_q15.c ****  */
  51:../Dave/Generated/CMSIS_DSP/FilteringFunctions/arm_conv_partial_q15.c **** 
  52:../Dave/Generated/CMSIS_DSP/FilteringFunctions/arm_conv_partial_q15.c **** /**   
  53:../Dave/Generated/CMSIS_DSP/FilteringFunctions/arm_conv_partial_q15.c ****  * @brief Partial convolution of Q15 sequences.   
  54:../Dave/Generated/CMSIS_DSP/FilteringFunctions/arm_conv_partial_q15.c ****  * @param[in]       *pSrcA points to the first input sequence.   
  55:../Dave/Generated/CMSIS_DSP/FilteringFunctions/arm_conv_partial_q15.c ****  * @param[in]       srcALen length of the first input sequence.   
  56:../Dave/Generated/CMSIS_DSP/FilteringFunctions/arm_conv_partial_q15.c ****  * @param[in]       *pSrcB points to the second input sequence.   
  57:../Dave/Generated/CMSIS_DSP/FilteringFunctions/arm_conv_partial_q15.c ****  * @param[in]       srcBLen length of the second input sequence.   
  58:../Dave/Generated/CMSIS_DSP/FilteringFunctions/arm_conv_partial_q15.c ****  * @param[out]      *pDst points to the location where the output result is written.   
  59:../Dave/Generated/CMSIS_DSP/FilteringFunctions/arm_conv_partial_q15.c ****  * @param[in]       firstIndex is the first output sample to start with.   
  60:../Dave/Generated/CMSIS_DSP/FilteringFunctions/arm_conv_partial_q15.c ****  * @param[in]       numPoints is the number of output points to be computed.   
  61:../Dave/Generated/CMSIS_DSP/FilteringFunctions/arm_conv_partial_q15.c ****  * @return  Returns either ARM_MATH_SUCCESS if the function completed correctly or ARM_MATH_ARGUMEN
  62:../Dave/Generated/CMSIS_DSP/FilteringFunctions/arm_conv_partial_q15.c ****  *   
  63:../Dave/Generated/CMSIS_DSP/FilteringFunctions/arm_conv_partial_q15.c ****  * Refer to <code>arm_conv_partial_fast_q15()</code> for a faster but less precise version of this 
  64:../Dave/Generated/CMSIS_DSP/FilteringFunctions/arm_conv_partial_q15.c ****  * 
  65:../Dave/Generated/CMSIS_DSP/FilteringFunctions/arm_conv_partial_q15.c ****  * \par    
  66:../Dave/Generated/CMSIS_DSP/FilteringFunctions/arm_conv_partial_q15.c ****  * Refer the function <code>arm_conv_partial_opt_q15()</code> for a faster implementation of this f
  67:../Dave/Generated/CMSIS_DSP/FilteringFunctions/arm_conv_partial_q15.c ****  * 
  68:../Dave/Generated/CMSIS_DSP/FilteringFunctions/arm_conv_partial_q15.c ****  */
  69:../Dave/Generated/CMSIS_DSP/FilteringFunctions/arm_conv_partial_q15.c **** 
  70:../Dave/Generated/CMSIS_DSP/FilteringFunctions/arm_conv_partial_q15.c **** 
  71:../Dave/Generated/CMSIS_DSP/FilteringFunctions/arm_conv_partial_q15.c **** arm_status arm_conv_partial_q15(
  72:../Dave/Generated/CMSIS_DSP/FilteringFunctions/arm_conv_partial_q15.c ****   q15_t * pSrcA,
  73:../Dave/Generated/CMSIS_DSP/FilteringFunctions/arm_conv_partial_q15.c ****   uint32_t srcALen,
  74:../Dave/Generated/CMSIS_DSP/FilteringFunctions/arm_conv_partial_q15.c ****   q15_t * pSrcB,
  75:../Dave/Generated/CMSIS_DSP/FilteringFunctions/arm_conv_partial_q15.c ****   uint32_t srcBLen,
  76:../Dave/Generated/CMSIS_DSP/FilteringFunctions/arm_conv_partial_q15.c ****   q15_t * pDst,
  77:../Dave/Generated/CMSIS_DSP/FilteringFunctions/arm_conv_partial_q15.c ****   uint32_t firstIndex,
  78:../Dave/Generated/CMSIS_DSP/FilteringFunctions/arm_conv_partial_q15.c ****   uint32_t numPoints)
  79:../Dave/Generated/CMSIS_DSP/FilteringFunctions/arm_conv_partial_q15.c **** {
  27              	 .loc 1 79 0
  28              	 .cfi_startproc
  29              	 
  30              	 
  31              	 
  32 0000 2DE9900F 	 push {r4,r7,r8,r9,r10,fp}
  33              	.LCFI0:
  34              	 .cfi_def_cfa_offset 24
  35              	 .cfi_offset 4,-24
  36              	 .cfi_offset 7,-20
  37              	 .cfi_offset 8,-16
  38              	 .cfi_offset 9,-12
  39              	 .cfi_offset 10,-8
  40              	 .cfi_offset 11,-4
  41 0004 ADF5876D 	 sub sp,sp,#1080
  42              	.LCFI1:
  43              	 .cfi_def_cfa_offset 1104
  44 0008 00AF     	 add r7,sp,#0
  45              	.LCFI2:
  46              	 .cfi_def_cfa_register 7
  47 000a 07F14C04 	 add r4,r7,#76
  48 000e 2060     	 str r0,[r4]
  49 0010 07F14800 	 add r0,r7,#72
  50 0014 0160     	 str r1,[r0]
  51 0016 07F14401 	 add r1,r7,#68
  52 001a 0A60     	 str r2,[r1]
  53 001c 07F14002 	 add r2,r7,#64
  54 0020 1360     	 str r3,[r2]
  80:../Dave/Generated/CMSIS_DSP/FilteringFunctions/arm_conv_partial_q15.c **** 
  81:../Dave/Generated/CMSIS_DSP/FilteringFunctions/arm_conv_partial_q15.c **** #if (defined(ARM_MATH_CM4) || defined(ARM_MATH_CM3)) && !defined(UNALIGNED_SUPPORT_DISABLE)
  82:../Dave/Generated/CMSIS_DSP/FilteringFunctions/arm_conv_partial_q15.c **** 
  83:../Dave/Generated/CMSIS_DSP/FilteringFunctions/arm_conv_partial_q15.c ****   /* Run the below code for Cortex-M4 and Cortex-M3 */
  84:../Dave/Generated/CMSIS_DSP/FilteringFunctions/arm_conv_partial_q15.c **** 
  85:../Dave/Generated/CMSIS_DSP/FilteringFunctions/arm_conv_partial_q15.c ****   q15_t *pIn1;                                   /* inputA pointer               */
  86:../Dave/Generated/CMSIS_DSP/FilteringFunctions/arm_conv_partial_q15.c ****   q15_t *pIn2;                                   /* inputB pointer               */
  87:../Dave/Generated/CMSIS_DSP/FilteringFunctions/arm_conv_partial_q15.c ****   q15_t *pOut = pDst;                            /* output pointer               */
  55              	 .loc 1 87 0
  56 0022 07F5AE72 	 add r2,r7,#348
  57 0026 D7F85034 	 ldr r3,[r7,#1104]
  58 002a 1360     	 str r3,[r2]
  88:../Dave/Generated/CMSIS_DSP/FilteringFunctions/arm_conv_partial_q15.c ****   q63_t sum, acc0, acc1, acc2, acc3;             /* Accumulator                  */
  89:../Dave/Generated/CMSIS_DSP/FilteringFunctions/arm_conv_partial_q15.c ****   q15_t *px;                                     /* Intermediate inputA pointer  */
  90:../Dave/Generated/CMSIS_DSP/FilteringFunctions/arm_conv_partial_q15.c ****   q15_t *py;                                     /* Intermediate inputB pointer  */
  91:../Dave/Generated/CMSIS_DSP/FilteringFunctions/arm_conv_partial_q15.c ****   q15_t *pSrc1, *pSrc2;                          /* Intermediate pointers        */
  92:../Dave/Generated/CMSIS_DSP/FilteringFunctions/arm_conv_partial_q15.c ****   q31_t x0, x1, x2, x3, c0;                      /* Temporary input variables */
  93:../Dave/Generated/CMSIS_DSP/FilteringFunctions/arm_conv_partial_q15.c ****   uint32_t j, k, count, check, blkCnt;
  94:../Dave/Generated/CMSIS_DSP/FilteringFunctions/arm_conv_partial_q15.c ****   int32_t blockSize1, blockSize2, blockSize3;    /* loop counter                 */
  95:../Dave/Generated/CMSIS_DSP/FilteringFunctions/arm_conv_partial_q15.c ****   arm_status status;                             /* status of Partial convolution */
  96:../Dave/Generated/CMSIS_DSP/FilteringFunctions/arm_conv_partial_q15.c **** 
  97:../Dave/Generated/CMSIS_DSP/FilteringFunctions/arm_conv_partial_q15.c ****   /* Check for range of output samples to be calculated */
  98:../Dave/Generated/CMSIS_DSP/FilteringFunctions/arm_conv_partial_q15.c ****   if((firstIndex + numPoints) > ((srcALen + (srcBLen - 1u))))
  59              	 .loc 1 98 0
  60 002c D7F85424 	 ldr r2,[r7,#1108]
  61 0030 D7F85834 	 ldr r3,[r7,#1112]
  62 0034 D118     	 adds r1,r2,r3
  63 0036 07F14002 	 add r2,r7,#64
  64 003a 07F14803 	 add r3,r7,#72
  65 003e 1268     	 ldr r2,[r2]
  66 0040 1B68     	 ldr r3,[r3]
  67 0042 1344     	 add r3,r3,r2
  68 0044 013B     	 subs r3,r3,#1
  69 0046 9942     	 cmp r1,r3
  70 0048 04D9     	 bls .L2
  99:../Dave/Generated/CMSIS_DSP/FilteringFunctions/arm_conv_partial_q15.c ****   {
 100:../Dave/Generated/CMSIS_DSP/FilteringFunctions/arm_conv_partial_q15.c ****     /* Set status as ARM_MATH_ARGUMENT_ERROR */
 101:../Dave/Generated/CMSIS_DSP/FilteringFunctions/arm_conv_partial_q15.c ****     status = ARM_MATH_ARGUMENT_ERROR;
  71              	 .loc 1 101 0
  72 004a FF23     	 movs r3,#255
  73 004c 87F8DF33 	 strb r3,[r7,#991]
  74 0050 01F001BD 	 b .L3
  75              	.L2:
 102:../Dave/Generated/CMSIS_DSP/FilteringFunctions/arm_conv_partial_q15.c ****   }
 103:../Dave/Generated/CMSIS_DSP/FilteringFunctions/arm_conv_partial_q15.c ****   else
 104:../Dave/Generated/CMSIS_DSP/FilteringFunctions/arm_conv_partial_q15.c ****   {
 105:../Dave/Generated/CMSIS_DSP/FilteringFunctions/arm_conv_partial_q15.c **** 
 106:../Dave/Generated/CMSIS_DSP/FilteringFunctions/arm_conv_partial_q15.c ****     /* The algorithm implementation is based on the lengths of the inputs. */
 107:../Dave/Generated/CMSIS_DSP/FilteringFunctions/arm_conv_partial_q15.c ****     /* srcB is always made to slide across srcA. */
 108:../Dave/Generated/CMSIS_DSP/FilteringFunctions/arm_conv_partial_q15.c ****     /* So srcBLen is always considered as shorter or equal to srcALen */
 109:../Dave/Generated/CMSIS_DSP/FilteringFunctions/arm_conv_partial_q15.c ****     if(srcALen >= srcBLen)
  76              	 .loc 1 109 0
  77 0054 07F14802 	 add r2,r7,#72
  78 0058 07F14003 	 add r3,r7,#64
  79 005c 1268     	 ldr r2,[r2]
  80 005e 1B68     	 ldr r3,[r3]
  81 0060 9A42     	 cmp r2,r3
  82 0062 0AD3     	 bcc .L4
 110:../Dave/Generated/CMSIS_DSP/FilteringFunctions/arm_conv_partial_q15.c ****     {
 111:../Dave/Generated/CMSIS_DSP/FilteringFunctions/arm_conv_partial_q15.c ****       /* Initialization of inputA pointer */
 112:../Dave/Generated/CMSIS_DSP/FilteringFunctions/arm_conv_partial_q15.c ****       pIn1 = pSrcA;
  83              	 .loc 1 112 0
  84 0064 07F14C03 	 add r3,r7,#76
  85 0068 1B68     	 ldr r3,[r3]
  86 006a C7F83434 	 str r3,[r7,#1076]
 113:../Dave/Generated/CMSIS_DSP/FilteringFunctions/arm_conv_partial_q15.c **** 
 114:../Dave/Generated/CMSIS_DSP/FilteringFunctions/arm_conv_partial_q15.c ****       /* Initialization of inputB pointer */
 115:../Dave/Generated/CMSIS_DSP/FilteringFunctions/arm_conv_partial_q15.c ****       pIn2 = pSrcB;
  87              	 .loc 1 115 0
  88 006e 07F14403 	 add r3,r7,#68
  89 0072 1B68     	 ldr r3,[r3]
  90 0074 C7F83034 	 str r3,[r7,#1072]
  91 0078 19E0     	 b .L5
  92              	.L4:
 116:../Dave/Generated/CMSIS_DSP/FilteringFunctions/arm_conv_partial_q15.c ****     }
 117:../Dave/Generated/CMSIS_DSP/FilteringFunctions/arm_conv_partial_q15.c ****     else
 118:../Dave/Generated/CMSIS_DSP/FilteringFunctions/arm_conv_partial_q15.c ****     {
 119:../Dave/Generated/CMSIS_DSP/FilteringFunctions/arm_conv_partial_q15.c ****       /* Initialization of inputA pointer */
 120:../Dave/Generated/CMSIS_DSP/FilteringFunctions/arm_conv_partial_q15.c ****       pIn1 = pSrcB;
  93              	 .loc 1 120 0
  94 007a 07F14403 	 add r3,r7,#68
  95 007e 1B68     	 ldr r3,[r3]
  96 0080 C7F83434 	 str r3,[r7,#1076]
 121:../Dave/Generated/CMSIS_DSP/FilteringFunctions/arm_conv_partial_q15.c **** 
 122:../Dave/Generated/CMSIS_DSP/FilteringFunctions/arm_conv_partial_q15.c ****       /* Initialization of inputB pointer */
 123:../Dave/Generated/CMSIS_DSP/FilteringFunctions/arm_conv_partial_q15.c ****       pIn2 = pSrcA;
  97              	 .loc 1 123 0
  98 0084 07F14C03 	 add r3,r7,#76
  99 0088 1B68     	 ldr r3,[r3]
 100 008a C7F83034 	 str r3,[r7,#1072]
 124:../Dave/Generated/CMSIS_DSP/FilteringFunctions/arm_conv_partial_q15.c **** 
 125:../Dave/Generated/CMSIS_DSP/FilteringFunctions/arm_conv_partial_q15.c ****       /* srcBLen is always considered as shorter or equal to srcALen */
 126:../Dave/Generated/CMSIS_DSP/FilteringFunctions/arm_conv_partial_q15.c ****       j = srcBLen;
 101              	 .loc 1 126 0
 102 008e 07F14003 	 add r3,r7,#64
 103 0092 1B68     	 ldr r3,[r3]
 104 0094 C7F8F433 	 str r3,[r7,#1012]
 127:../Dave/Generated/CMSIS_DSP/FilteringFunctions/arm_conv_partial_q15.c ****       srcBLen = srcALen;
 105              	 .loc 1 127 0
 106 0098 07F14002 	 add r2,r7,#64
 107 009c 07F14803 	 add r3,r7,#72
 108 00a0 1B68     	 ldr r3,[r3]
 109 00a2 1360     	 str r3,[r2]
 128:../Dave/Generated/CMSIS_DSP/FilteringFunctions/arm_conv_partial_q15.c ****       srcALen = j;
 110              	 .loc 1 128 0
 111 00a4 07F14802 	 add r2,r7,#72
 112 00a8 D7F8F433 	 ldr r3,[r7,#1012]
 113 00ac 1360     	 str r3,[r2]
 114              	.L5:
 129:../Dave/Generated/CMSIS_DSP/FilteringFunctions/arm_conv_partial_q15.c ****     }
 130:../Dave/Generated/CMSIS_DSP/FilteringFunctions/arm_conv_partial_q15.c **** 
 131:../Dave/Generated/CMSIS_DSP/FilteringFunctions/arm_conv_partial_q15.c ****     /* Conditions to check which loopCounter holds   
 132:../Dave/Generated/CMSIS_DSP/FilteringFunctions/arm_conv_partial_q15.c ****      * the first and last indices of the output samples to be calculated. */
 133:../Dave/Generated/CMSIS_DSP/FilteringFunctions/arm_conv_partial_q15.c ****     check = firstIndex + numPoints;
 115              	 .loc 1 133 0
 116 00ae D7F85424 	 ldr r2,[r7,#1108]
 117 00b2 D7F85834 	 ldr r3,[r7,#1112]
 118 00b6 1344     	 add r3,r3,r2
 119 00b8 C7F8D833 	 str r3,[r7,#984]
 134:../Dave/Generated/CMSIS_DSP/FilteringFunctions/arm_conv_partial_q15.c ****     blockSize3 = ((int32_t)check > (int32_t)srcALen) ? (int32_t)check - (int32_t)srcALen : 0;
 120              	 .loc 1 134 0
 121 00bc D7F8D823 	 ldr r2,[r7,#984]
 122 00c0 07F14803 	 add r3,r7,#72
 123 00c4 1B68     	 ldr r3,[r3]
 124 00c6 9A42     	 cmp r2,r3
 125 00c8 06DD     	 ble .L6
 126              	 .loc 1 134 0 is_stmt 0 discriminator 1
 127 00ca D7F8D823 	 ldr r2,[r7,#984]
 128 00ce 07F14803 	 add r3,r7,#72
 129 00d2 1B68     	 ldr r3,[r3]
 130 00d4 D31A     	 subs r3,r2,r3
 131 00d6 00E0     	 b .L7
 132              	.L6:
 133              	 .loc 1 134 0 discriminator 2
 134 00d8 0023     	 movs r3,#0
 135              	.L7:
 136              	 .loc 1 134 0 discriminator 4
 137 00da C7F8E033 	 str r3,[r7,#992]
 135:../Dave/Generated/CMSIS_DSP/FilteringFunctions/arm_conv_partial_q15.c ****     blockSize3 = ((int32_t)firstIndex > (int32_t)srcALen - 1) ? blockSize3 - (int32_t)firstIndex + 
 138              	 .loc 1 135 0 is_stmt 1 discriminator 4
 139 00de D7F85424 	 ldr r2,[r7,#1108]
 140 00e2 07F14803 	 add r3,r7,#72
 141 00e6 1B68     	 ldr r3,[r3]
 142 00e8 013B     	 subs r3,r3,#1
 143 00ea 9A42     	 cmp r2,r3
 144 00ec 09DD     	 ble .L8
 145              	 .loc 1 135 0 is_stmt 0 discriminator 1
 146 00ee D7F85424 	 ldr r2,[r7,#1108]
 147 00f2 D7F8E033 	 ldr r3,[r7,#992]
 148 00f6 9A1A     	 subs r2,r3,r2
 149 00f8 07F14803 	 add r3,r7,#72
 150 00fc 1B68     	 ldr r3,[r3]
 151 00fe 1344     	 add r3,r3,r2
 152 0100 01E0     	 b .L9
 153              	.L8:
 154              	 .loc 1 135 0 discriminator 2
 155 0102 D7F8E033 	 ldr r3,[r7,#992]
 156              	.L9:
 157              	 .loc 1 135 0 discriminator 4
 158 0106 C7F8E033 	 str r3,[r7,#992]
 136:../Dave/Generated/CMSIS_DSP/FilteringFunctions/arm_conv_partial_q15.c ****     blockSize1 = (((int32_t) srcBLen - 1) - (int32_t) firstIndex);
 159              	 .loc 1 136 0 is_stmt 1 discriminator 4
 160 010a 07F14003 	 add r3,r7,#64
 161 010e 1A68     	 ldr r2,[r3]
 162 0110 D7F85434 	 ldr r3,[r7,#1108]
 163 0114 D31A     	 subs r3,r2,r3
 164 0116 013B     	 subs r3,r3,#1
 165 0118 C7F8E433 	 str r3,[r7,#996]
 137:../Dave/Generated/CMSIS_DSP/FilteringFunctions/arm_conv_partial_q15.c ****     blockSize1 = (blockSize1 > 0) ? ((check > (srcBLen - 1u)) ? blockSize1 :
 138:../Dave/Generated/CMSIS_DSP/FilteringFunctions/arm_conv_partial_q15.c ****                                      (int32_t) numPoints) : 0;
 166              	 .loc 1 138 0 discriminator 4
 167 011c D7F8E433 	 ldr r3,[r7,#996]
 168 0120 002B     	 cmp r3,#0
 169 0122 0DDD     	 ble .L10
 137:../Dave/Generated/CMSIS_DSP/FilteringFunctions/arm_conv_partial_q15.c ****     blockSize1 = (blockSize1 > 0) ? ((check > (srcBLen - 1u)) ? blockSize1 :
 170              	 .loc 1 137 0
 171 0124 07F14003 	 add r3,r7,#64
 172 0128 1B68     	 ldr r3,[r3]
 173 012a 5A1E     	 subs r2,r3,#1
 174 012c D7F8D833 	 ldr r3,[r7,#984]
 175 0130 9A42     	 cmp r2,r3
 176 0132 02D3     	 bcc .L11
 137:../Dave/Generated/CMSIS_DSP/FilteringFunctions/arm_conv_partial_q15.c ****     blockSize1 = (blockSize1 > 0) ? ((check > (srcBLen - 1u)) ? blockSize1 :
 177              	 .loc 1 137 0 is_stmt 0 discriminator 1
 178 0134 D7F85834 	 ldr r3,[r7,#1112]
 179 0138 03E0     	 b .L13
 180              	.L11:
 137:../Dave/Generated/CMSIS_DSP/FilteringFunctions/arm_conv_partial_q15.c ****     blockSize1 = (blockSize1 > 0) ? ((check > (srcBLen - 1u)) ? blockSize1 :
 181              	 .loc 1 137 0 discriminator 2
 182 013a D7F8E433 	 ldr r3,[r7,#996]
 183 013e 00E0     	 b .L13
 184              	.L10:
 185              	 .loc 1 138 0 is_stmt 1 discriminator 1
 186 0140 0023     	 movs r3,#0
 187              	.L13:
 137:../Dave/Generated/CMSIS_DSP/FilteringFunctions/arm_conv_partial_q15.c ****     blockSize1 = (blockSize1 > 0) ? ((check > (srcBLen - 1u)) ? blockSize1 :
 188              	 .loc 1 137 0
 189 0142 C7F8E433 	 str r3,[r7,#996]
 139:../Dave/Generated/CMSIS_DSP/FilteringFunctions/arm_conv_partial_q15.c ****     blockSize2 = (int32_t) check - ((blockSize3 + blockSize1) +
 190              	 .loc 1 139 0
 191 0146 D7F8D813 	 ldr r1,[r7,#984]
 192 014a D7F8E023 	 ldr r2,[r7,#992]
 193 014e D7F8E433 	 ldr r3,[r7,#996]
 194 0152 1A44     	 add r2,r2,r3
 140:../Dave/Generated/CMSIS_DSP/FilteringFunctions/arm_conv_partial_q15.c ****                                     (int32_t) firstIndex);
 195              	 .loc 1 140 0
 196 0154 D7F85434 	 ldr r3,[r7,#1108]
 139:../Dave/Generated/CMSIS_DSP/FilteringFunctions/arm_conv_partial_q15.c ****     blockSize2 = (int32_t) check - ((blockSize3 + blockSize1) +
 197              	 .loc 1 139 0
 198 0158 1344     	 add r3,r3,r2
 199 015a CB1A     	 subs r3,r1,r3
 200 015c C7F8D433 	 str r3,[r7,#980]
 141:../Dave/Generated/CMSIS_DSP/FilteringFunctions/arm_conv_partial_q15.c ****     blockSize2 = (blockSize2 > 0) ? blockSize2 : 0;
 201              	 .loc 1 141 0
 202 0160 D7F8D433 	 ldr r3,[r7,#980]
 203 0164 23EAE373 	 bic r3,r3,r3,asr#31
 204 0168 C7F8D433 	 str r3,[r7,#980]
 142:../Dave/Generated/CMSIS_DSP/FilteringFunctions/arm_conv_partial_q15.c **** 
 143:../Dave/Generated/CMSIS_DSP/FilteringFunctions/arm_conv_partial_q15.c ****     /* conv(x,y) at n = x[n] * y[0] + x[n-1] * y[1] + x[n-2] * y[2] + ...+ x[n-N+1] * y[N -1] */
 144:../Dave/Generated/CMSIS_DSP/FilteringFunctions/arm_conv_partial_q15.c ****     /* The function is internally   
 145:../Dave/Generated/CMSIS_DSP/FilteringFunctions/arm_conv_partial_q15.c ****      * divided into three stages according to the number of multiplications that has to be   
 146:../Dave/Generated/CMSIS_DSP/FilteringFunctions/arm_conv_partial_q15.c ****      * taken place between inputA samples and inputB samples. In the first stage of the   
 147:../Dave/Generated/CMSIS_DSP/FilteringFunctions/arm_conv_partial_q15.c ****      * algorithm, the multiplications increase by one for every iteration.   
 148:../Dave/Generated/CMSIS_DSP/FilteringFunctions/arm_conv_partial_q15.c ****      * In the second stage of the algorithm, srcBLen number of multiplications are done.   
 149:../Dave/Generated/CMSIS_DSP/FilteringFunctions/arm_conv_partial_q15.c ****      * In the third stage of the algorithm, the multiplications decrease by one   
 150:../Dave/Generated/CMSIS_DSP/FilteringFunctions/arm_conv_partial_q15.c ****      * for every iteration. */
 151:../Dave/Generated/CMSIS_DSP/FilteringFunctions/arm_conv_partial_q15.c **** 
 152:../Dave/Generated/CMSIS_DSP/FilteringFunctions/arm_conv_partial_q15.c ****     /* Set the output pointer to point to the firstIndex   
 153:../Dave/Generated/CMSIS_DSP/FilteringFunctions/arm_conv_partial_q15.c ****      * of the output sample to be calculated. */
 154:../Dave/Generated/CMSIS_DSP/FilteringFunctions/arm_conv_partial_q15.c ****     pOut = pDst + firstIndex;
 205              	 .loc 1 154 0
 206 016c D7F85434 	 ldr r3,[r7,#1108]
 207 0170 5A00     	 lsls r2,r3,#1
 208 0172 D7F85034 	 ldr r3,[r7,#1104]
 209 0176 1A44     	 add r2,r2,r3
 210 0178 07F5AE73 	 add r3,r7,#348
 211 017c 1A60     	 str r2,[r3]
 155:../Dave/Generated/CMSIS_DSP/FilteringFunctions/arm_conv_partial_q15.c **** 
 156:../Dave/Generated/CMSIS_DSP/FilteringFunctions/arm_conv_partial_q15.c ****     /* --------------------------   
 157:../Dave/Generated/CMSIS_DSP/FilteringFunctions/arm_conv_partial_q15.c ****      * Initializations of stage1   
 158:../Dave/Generated/CMSIS_DSP/FilteringFunctions/arm_conv_partial_q15.c ****      * -------------------------*/
 159:../Dave/Generated/CMSIS_DSP/FilteringFunctions/arm_conv_partial_q15.c **** 
 160:../Dave/Generated/CMSIS_DSP/FilteringFunctions/arm_conv_partial_q15.c ****     /* sum = x[0] * y[0]   
 161:../Dave/Generated/CMSIS_DSP/FilteringFunctions/arm_conv_partial_q15.c ****      * sum = x[0] * y[1] + x[1] * y[0]   
 162:../Dave/Generated/CMSIS_DSP/FilteringFunctions/arm_conv_partial_q15.c ****      * ....   
 163:../Dave/Generated/CMSIS_DSP/FilteringFunctions/arm_conv_partial_q15.c ****      * sum = x[0] * y[srcBlen - 1] + x[1] * y[srcBlen - 2] +...+ x[srcBLen - 1] * y[0]   
 164:../Dave/Generated/CMSIS_DSP/FilteringFunctions/arm_conv_partial_q15.c ****      */
 165:../Dave/Generated/CMSIS_DSP/FilteringFunctions/arm_conv_partial_q15.c **** 
 166:../Dave/Generated/CMSIS_DSP/FilteringFunctions/arm_conv_partial_q15.c ****     /* In this stage the MAC operations are increased by 1 for every iteration.   
 167:../Dave/Generated/CMSIS_DSP/FilteringFunctions/arm_conv_partial_q15.c ****        The count variable holds the number of MAC operations performed.   
 168:../Dave/Generated/CMSIS_DSP/FilteringFunctions/arm_conv_partial_q15.c ****        Since the partial convolution starts from firstIndex   
 169:../Dave/Generated/CMSIS_DSP/FilteringFunctions/arm_conv_partial_q15.c ****        Number of Macs to be performed is firstIndex + 1 */
 170:../Dave/Generated/CMSIS_DSP/FilteringFunctions/arm_conv_partial_q15.c ****     count = 1u + firstIndex;
 212              	 .loc 1 170 0
 213 017e D7F85434 	 ldr r3,[r7,#1108]
 214 0182 0133     	 adds r3,r3,#1
 215 0184 C7F8EC33 	 str r3,[r7,#1004]
 171:../Dave/Generated/CMSIS_DSP/FilteringFunctions/arm_conv_partial_q15.c **** 
 172:../Dave/Generated/CMSIS_DSP/FilteringFunctions/arm_conv_partial_q15.c ****     /* Working pointer of inputA */
 173:../Dave/Generated/CMSIS_DSP/FilteringFunctions/arm_conv_partial_q15.c ****     px = pIn1;
 216              	 .loc 1 173 0
 217 0188 07F5AC72 	 add r2,r7,#344
 218 018c D7F83434 	 ldr r3,[r7,#1076]
 219 0190 1360     	 str r3,[r2]
 174:../Dave/Generated/CMSIS_DSP/FilteringFunctions/arm_conv_partial_q15.c **** 
 175:../Dave/Generated/CMSIS_DSP/FilteringFunctions/arm_conv_partial_q15.c ****     /* Working pointer of inputB */
 176:../Dave/Generated/CMSIS_DSP/FilteringFunctions/arm_conv_partial_q15.c ****     pSrc2 = pIn2 + firstIndex;
 220              	 .loc 1 176 0
 221 0192 D7F85434 	 ldr r3,[r7,#1108]
 222 0196 5A00     	 lsls r2,r3,#1
 223 0198 D7F83034 	 ldr r3,[r7,#1072]
 224 019c 1344     	 add r3,r3,r2
 225 019e C7F80034 	 str r3,[r7,#1024]
 177:../Dave/Generated/CMSIS_DSP/FilteringFunctions/arm_conv_partial_q15.c ****     py = pSrc2;
 226              	 .loc 1 177 0
 227 01a2 07F5AA72 	 add r2,r7,#340
 228 01a6 D7F80034 	 ldr r3,[r7,#1024]
 229 01aa 1360     	 str r3,[r2]
 178:../Dave/Generated/CMSIS_DSP/FilteringFunctions/arm_conv_partial_q15.c **** 
 179:../Dave/Generated/CMSIS_DSP/FilteringFunctions/arm_conv_partial_q15.c ****     /* ------------------------   
 180:../Dave/Generated/CMSIS_DSP/FilteringFunctions/arm_conv_partial_q15.c ****      * Stage1 process   
 181:../Dave/Generated/CMSIS_DSP/FilteringFunctions/arm_conv_partial_q15.c ****      * ----------------------*/
 182:../Dave/Generated/CMSIS_DSP/FilteringFunctions/arm_conv_partial_q15.c **** 
 183:../Dave/Generated/CMSIS_DSP/FilteringFunctions/arm_conv_partial_q15.c ****     /* For loop unrolling by 4, this stage is divided into two. */
 184:../Dave/Generated/CMSIS_DSP/FilteringFunctions/arm_conv_partial_q15.c ****     /* First part of this stage computes the MAC operations less than 4 */
 185:../Dave/Generated/CMSIS_DSP/FilteringFunctions/arm_conv_partial_q15.c ****     /* Second part of this stage computes the MAC operations greater than or equal to 4 */
 186:../Dave/Generated/CMSIS_DSP/FilteringFunctions/arm_conv_partial_q15.c **** 
 187:../Dave/Generated/CMSIS_DSP/FilteringFunctions/arm_conv_partial_q15.c ****     /* The first part of the stage starts here */
 188:../Dave/Generated/CMSIS_DSP/FilteringFunctions/arm_conv_partial_q15.c ****     while((count < 4u) && (blockSize1 > 0))
 230              	 .loc 1 188 0
 231 01ac 8CE0     	 b .L14
 232              	.L19:
 189:../Dave/Generated/CMSIS_DSP/FilteringFunctions/arm_conv_partial_q15.c ****     {
 190:../Dave/Generated/CMSIS_DSP/FilteringFunctions/arm_conv_partial_q15.c ****       /* Accumulator is made zero for every iteration */
 191:../Dave/Generated/CMSIS_DSP/FilteringFunctions/arm_conv_partial_q15.c ****       sum = 0;
 233              	 .loc 1 191 0
 234 01ae 4FF00002 	 mov r2,#0
 235 01b2 4FF00003 	 mov r3,#0
 236 01b6 07F58561 	 add r1,r7,#1064
 237 01ba C1E90023 	 strd r2,[r1]
 192:../Dave/Generated/CMSIS_DSP/FilteringFunctions/arm_conv_partial_q15.c **** 
 193:../Dave/Generated/CMSIS_DSP/FilteringFunctions/arm_conv_partial_q15.c ****       /* Loop over number of MAC operations between   
 194:../Dave/Generated/CMSIS_DSP/FilteringFunctions/arm_conv_partial_q15.c ****        * inputA samples and inputB samples */
 195:../Dave/Generated/CMSIS_DSP/FilteringFunctions/arm_conv_partial_q15.c ****       k = count;
 238              	 .loc 1 195 0
 239 01be D7F8EC33 	 ldr r3,[r7,#1004]
 240 01c2 C7F8F033 	 str r3,[r7,#1008]
 196:../Dave/Generated/CMSIS_DSP/FilteringFunctions/arm_conv_partial_q15.c **** 
 197:../Dave/Generated/CMSIS_DSP/FilteringFunctions/arm_conv_partial_q15.c ****       while(k > 0u)
 241              	 .loc 1 197 0
 242 01c6 44E0     	 b .L15
 243              	.L17:
 198:../Dave/Generated/CMSIS_DSP/FilteringFunctions/arm_conv_partial_q15.c ****       {
 199:../Dave/Generated/CMSIS_DSP/FilteringFunctions/arm_conv_partial_q15.c ****         /* Perform the multiply-accumulates */
 200:../Dave/Generated/CMSIS_DSP/FilteringFunctions/arm_conv_partial_q15.c ****         sum = __SMLALD(*px++, *py--, sum);
 244              	 .loc 1 200 0
 245 01c8 07F5AC73 	 add r3,r7,#344
 246 01cc 1968     	 ldr r1,[r3]
 247 01ce 8A1C     	 adds r2,r1,#2
 248 01d0 07F5AC73 	 add r3,r7,#344
 249 01d4 1A60     	 str r2,[r3]
 250 01d6 0B88     	 ldrh r3,[r1]
 251 01d8 18B2     	 sxth r0,r3
 252 01da 07F5AA73 	 add r3,r7,#340
 253 01de 1968     	 ldr r1,[r3]
 254 01e0 8A1E     	 subs r2,r1,#2
 255 01e2 07F5AA73 	 add r3,r7,#340
 256 01e6 1A60     	 str r2,[r3]
 257 01e8 0B88     	 ldrh r3,[r1]
 258 01ea 19B2     	 sxth r1,r3
 259 01ec 07F58563 	 add r3,r7,#1064
 260 01f0 D3E90023 	 ldrd r2,[r3]
 261 01f4 C7F85C03 	 str r0,[r7,#860]
 262 01f8 C7F85813 	 str r1,[r7,#856]
 263 01fc 07F55471 	 add r1,r7,#848
 264 0200 C1E90023 	 strd r2,[r1]
 265              	.LBB78:
 266              	.LBB79:
 267              	 .file 2 "C:\\Users\\Depes Crystalline\\Desktop\\school\\Active_Bike_Lighting_System\\Radar_Core/Libraries/CMSIS/Include/core_cmSimd.h"
   1:C:\Users\Depes Crystalline\Desktop\school\Active_Bike_Lighting_System\Radar_Core/Libraries/CMSIS/Include\core_cmSimd.h **** /**************************************************************************//**
   2:C:\Users\Depes Crystalline\Desktop\school\Active_Bike_Lighting_System\Radar_Core/Libraries/CMSIS/Include\core_cmSimd.h ****  * @file     core_cmSimd.h
   3:C:\Users\Depes Crystalline\Desktop\school\Active_Bike_Lighting_System\Radar_Core/Libraries/CMSIS/Include\core_cmSimd.h ****  * @brief    CMSIS Cortex-M SIMD Header File
   4:C:\Users\Depes Crystalline\Desktop\school\Active_Bike_Lighting_System\Radar_Core/Libraries/CMSIS/Include\core_cmSimd.h ****  * @version  V4.00
   5:C:\Users\Depes Crystalline\Desktop\school\Active_Bike_Lighting_System\Radar_Core/Libraries/CMSIS/Include\core_cmSimd.h ****  * @date     22. August 2014
   6:C:\Users\Depes Crystalline\Desktop\school\Active_Bike_Lighting_System\Radar_Core/Libraries/CMSIS/Include\core_cmSimd.h ****  *
   7:C:\Users\Depes Crystalline\Desktop\school\Active_Bike_Lighting_System\Radar_Core/Libraries/CMSIS/Include\core_cmSimd.h ****  * @note
   8:C:\Users\Depes Crystalline\Desktop\school\Active_Bike_Lighting_System\Radar_Core/Libraries/CMSIS/Include\core_cmSimd.h ****  *
   9:C:\Users\Depes Crystalline\Desktop\school\Active_Bike_Lighting_System\Radar_Core/Libraries/CMSIS/Include\core_cmSimd.h ****  ******************************************************************************/
  10:C:\Users\Depes Crystalline\Desktop\school\Active_Bike_Lighting_System\Radar_Core/Libraries/CMSIS/Include\core_cmSimd.h **** /* Copyright (c) 2009 - 2014 ARM LIMITED
  11:C:\Users\Depes Crystalline\Desktop\school\Active_Bike_Lighting_System\Radar_Core/Libraries/CMSIS/Include\core_cmSimd.h **** 
  12:C:\Users\Depes Crystalline\Desktop\school\Active_Bike_Lighting_System\Radar_Core/Libraries/CMSIS/Include\core_cmSimd.h ****    All rights reserved.
  13:C:\Users\Depes Crystalline\Desktop\school\Active_Bike_Lighting_System\Radar_Core/Libraries/CMSIS/Include\core_cmSimd.h ****    Redistribution and use in source and binary forms, with or without
  14:C:\Users\Depes Crystalline\Desktop\school\Active_Bike_Lighting_System\Radar_Core/Libraries/CMSIS/Include\core_cmSimd.h ****    modification, are permitted provided that the following conditions are met:
  15:C:\Users\Depes Crystalline\Desktop\school\Active_Bike_Lighting_System\Radar_Core/Libraries/CMSIS/Include\core_cmSimd.h ****    - Redistributions of source code must retain the above copyright
  16:C:\Users\Depes Crystalline\Desktop\school\Active_Bike_Lighting_System\Radar_Core/Libraries/CMSIS/Include\core_cmSimd.h ****      notice, this list of conditions and the following disclaimer.
  17:C:\Users\Depes Crystalline\Desktop\school\Active_Bike_Lighting_System\Radar_Core/Libraries/CMSIS/Include\core_cmSimd.h ****    - Redistributions in binary form must reproduce the above copyright
  18:C:\Users\Depes Crystalline\Desktop\school\Active_Bike_Lighting_System\Radar_Core/Libraries/CMSIS/Include\core_cmSimd.h ****      notice, this list of conditions and the following disclaimer in the
  19:C:\Users\Depes Crystalline\Desktop\school\Active_Bike_Lighting_System\Radar_Core/Libraries/CMSIS/Include\core_cmSimd.h ****      documentation and/or other materials provided with the distribution.
  20:C:\Users\Depes Crystalline\Desktop\school\Active_Bike_Lighting_System\Radar_Core/Libraries/CMSIS/Include\core_cmSimd.h ****    - Neither the name of ARM nor the names of its contributors may be used
  21:C:\Users\Depes Crystalline\Desktop\school\Active_Bike_Lighting_System\Radar_Core/Libraries/CMSIS/Include\core_cmSimd.h ****      to endorse or promote products derived from this software without
  22:C:\Users\Depes Crystalline\Desktop\school\Active_Bike_Lighting_System\Radar_Core/Libraries/CMSIS/Include\core_cmSimd.h ****      specific prior written permission.
  23:C:\Users\Depes Crystalline\Desktop\school\Active_Bike_Lighting_System\Radar_Core/Libraries/CMSIS/Include\core_cmSimd.h ****    *
  24:C:\Users\Depes Crystalline\Desktop\school\Active_Bike_Lighting_System\Radar_Core/Libraries/CMSIS/Include\core_cmSimd.h ****    THIS SOFTWARE IS PROVIDED BY THE COPYRIGHT HOLDERS AND CONTRIBUTORS "AS IS"
  25:C:\Users\Depes Crystalline\Desktop\school\Active_Bike_Lighting_System\Radar_Core/Libraries/CMSIS/Include\core_cmSimd.h ****    AND ANY EXPRESS OR IMPLIED WARRANTIES, INCLUDING, BUT NOT LIMITED TO, THE
  26:C:\Users\Depes Crystalline\Desktop\school\Active_Bike_Lighting_System\Radar_Core/Libraries/CMSIS/Include\core_cmSimd.h ****    IMPLIED WARRANTIES OF MERCHANTABILITY AND FITNESS FOR A PARTICULAR PURPOSE
  27:C:\Users\Depes Crystalline\Desktop\school\Active_Bike_Lighting_System\Radar_Core/Libraries/CMSIS/Include\core_cmSimd.h ****    ARE DISCLAIMED. IN NO EVENT SHALL COPYRIGHT HOLDERS AND CONTRIBUTORS BE
  28:C:\Users\Depes Crystalline\Desktop\school\Active_Bike_Lighting_System\Radar_Core/Libraries/CMSIS/Include\core_cmSimd.h ****    LIABLE FOR ANY DIRECT, INDIRECT, INCIDENTAL, SPECIAL, EXEMPLARY, OR
  29:C:\Users\Depes Crystalline\Desktop\school\Active_Bike_Lighting_System\Radar_Core/Libraries/CMSIS/Include\core_cmSimd.h ****    CONSEQUENTIAL DAMAGES (INCLUDING, BUT NOT LIMITED TO, PROCUREMENT OF
  30:C:\Users\Depes Crystalline\Desktop\school\Active_Bike_Lighting_System\Radar_Core/Libraries/CMSIS/Include\core_cmSimd.h ****    SUBSTITUTE GOODS OR SERVICES; LOSS OF USE, DATA, OR PROFITS; OR BUSINESS
  31:C:\Users\Depes Crystalline\Desktop\school\Active_Bike_Lighting_System\Radar_Core/Libraries/CMSIS/Include\core_cmSimd.h ****    INTERRUPTION) HOWEVER CAUSED AND ON ANY THEORY OF LIABILITY, WHETHER IN
  32:C:\Users\Depes Crystalline\Desktop\school\Active_Bike_Lighting_System\Radar_Core/Libraries/CMSIS/Include\core_cmSimd.h ****    CONTRACT, STRICT LIABILITY, OR TORT (INCLUDING NEGLIGENCE OR OTHERWISE)
  33:C:\Users\Depes Crystalline\Desktop\school\Active_Bike_Lighting_System\Radar_Core/Libraries/CMSIS/Include\core_cmSimd.h ****    ARISING IN ANY WAY OUT OF THE USE OF THIS SOFTWARE, EVEN IF ADVISED OF THE
  34:C:\Users\Depes Crystalline\Desktop\school\Active_Bike_Lighting_System\Radar_Core/Libraries/CMSIS/Include\core_cmSimd.h ****    POSSIBILITY OF SUCH DAMAGE.
  35:C:\Users\Depes Crystalline\Desktop\school\Active_Bike_Lighting_System\Radar_Core/Libraries/CMSIS/Include\core_cmSimd.h ****    ---------------------------------------------------------------------------*/
  36:C:\Users\Depes Crystalline\Desktop\school\Active_Bike_Lighting_System\Radar_Core/Libraries/CMSIS/Include\core_cmSimd.h **** 
  37:C:\Users\Depes Crystalline\Desktop\school\Active_Bike_Lighting_System\Radar_Core/Libraries/CMSIS/Include\core_cmSimd.h **** 
  38:C:\Users\Depes Crystalline\Desktop\school\Active_Bike_Lighting_System\Radar_Core/Libraries/CMSIS/Include\core_cmSimd.h **** #if defined ( __ICCARM__ )
  39:C:\Users\Depes Crystalline\Desktop\school\Active_Bike_Lighting_System\Radar_Core/Libraries/CMSIS/Include\core_cmSimd.h ****  #pragma system_include  /* treat file as system include file for MISRA check */
  40:C:\Users\Depes Crystalline\Desktop\school\Active_Bike_Lighting_System\Radar_Core/Libraries/CMSIS/Include\core_cmSimd.h **** #endif
  41:C:\Users\Depes Crystalline\Desktop\school\Active_Bike_Lighting_System\Radar_Core/Libraries/CMSIS/Include\core_cmSimd.h **** 
  42:C:\Users\Depes Crystalline\Desktop\school\Active_Bike_Lighting_System\Radar_Core/Libraries/CMSIS/Include\core_cmSimd.h **** #ifndef __CORE_CMSIMD_H
  43:C:\Users\Depes Crystalline\Desktop\school\Active_Bike_Lighting_System\Radar_Core/Libraries/CMSIS/Include\core_cmSimd.h **** #define __CORE_CMSIMD_H
  44:C:\Users\Depes Crystalline\Desktop\school\Active_Bike_Lighting_System\Radar_Core/Libraries/CMSIS/Include\core_cmSimd.h **** 
  45:C:\Users\Depes Crystalline\Desktop\school\Active_Bike_Lighting_System\Radar_Core/Libraries/CMSIS/Include\core_cmSimd.h **** #ifdef __cplusplus
  46:C:\Users\Depes Crystalline\Desktop\school\Active_Bike_Lighting_System\Radar_Core/Libraries/CMSIS/Include\core_cmSimd.h ****  extern "C" {
  47:C:\Users\Depes Crystalline\Desktop\school\Active_Bike_Lighting_System\Radar_Core/Libraries/CMSIS/Include\core_cmSimd.h **** #endif
  48:C:\Users\Depes Crystalline\Desktop\school\Active_Bike_Lighting_System\Radar_Core/Libraries/CMSIS/Include\core_cmSimd.h **** 
  49:C:\Users\Depes Crystalline\Desktop\school\Active_Bike_Lighting_System\Radar_Core/Libraries/CMSIS/Include\core_cmSimd.h **** 
  50:C:\Users\Depes Crystalline\Desktop\school\Active_Bike_Lighting_System\Radar_Core/Libraries/CMSIS/Include\core_cmSimd.h **** /*******************************************************************************
  51:C:\Users\Depes Crystalline\Desktop\school\Active_Bike_Lighting_System\Radar_Core/Libraries/CMSIS/Include\core_cmSimd.h ****  *                Hardware Abstraction Layer
  52:C:\Users\Depes Crystalline\Desktop\school\Active_Bike_Lighting_System\Radar_Core/Libraries/CMSIS/Include\core_cmSimd.h ****  ******************************************************************************/
  53:C:\Users\Depes Crystalline\Desktop\school\Active_Bike_Lighting_System\Radar_Core/Libraries/CMSIS/Include\core_cmSimd.h **** 
  54:C:\Users\Depes Crystalline\Desktop\school\Active_Bike_Lighting_System\Radar_Core/Libraries/CMSIS/Include\core_cmSimd.h **** 
  55:C:\Users\Depes Crystalline\Desktop\school\Active_Bike_Lighting_System\Radar_Core/Libraries/CMSIS/Include\core_cmSimd.h **** /* ###################  Compiler specific Intrinsics  ########################### */
  56:C:\Users\Depes Crystalline\Desktop\school\Active_Bike_Lighting_System\Radar_Core/Libraries/CMSIS/Include\core_cmSimd.h **** /** \defgroup CMSIS_SIMD_intrinsics CMSIS SIMD Intrinsics
  57:C:\Users\Depes Crystalline\Desktop\school\Active_Bike_Lighting_System\Radar_Core/Libraries/CMSIS/Include\core_cmSimd.h ****   Access to dedicated SIMD instructions
  58:C:\Users\Depes Crystalline\Desktop\school\Active_Bike_Lighting_System\Radar_Core/Libraries/CMSIS/Include\core_cmSimd.h ****   @{
  59:C:\Users\Depes Crystalline\Desktop\school\Active_Bike_Lighting_System\Radar_Core/Libraries/CMSIS/Include\core_cmSimd.h **** */
  60:C:\Users\Depes Crystalline\Desktop\school\Active_Bike_Lighting_System\Radar_Core/Libraries/CMSIS/Include\core_cmSimd.h **** 
  61:C:\Users\Depes Crystalline\Desktop\school\Active_Bike_Lighting_System\Radar_Core/Libraries/CMSIS/Include\core_cmSimd.h **** #if   defined ( __CC_ARM ) /*------------------RealView Compiler -----------------*/
  62:C:\Users\Depes Crystalline\Desktop\school\Active_Bike_Lighting_System\Radar_Core/Libraries/CMSIS/Include\core_cmSimd.h **** /* ARM armcc specific functions */
  63:C:\Users\Depes Crystalline\Desktop\school\Active_Bike_Lighting_System\Radar_Core/Libraries/CMSIS/Include\core_cmSimd.h **** #define __SADD8                           __sadd8
  64:C:\Users\Depes Crystalline\Desktop\school\Active_Bike_Lighting_System\Radar_Core/Libraries/CMSIS/Include\core_cmSimd.h **** #define __QADD8                           __qadd8
  65:C:\Users\Depes Crystalline\Desktop\school\Active_Bike_Lighting_System\Radar_Core/Libraries/CMSIS/Include\core_cmSimd.h **** #define __SHADD8                          __shadd8
  66:C:\Users\Depes Crystalline\Desktop\school\Active_Bike_Lighting_System\Radar_Core/Libraries/CMSIS/Include\core_cmSimd.h **** #define __UADD8                           __uadd8
  67:C:\Users\Depes Crystalline\Desktop\school\Active_Bike_Lighting_System\Radar_Core/Libraries/CMSIS/Include\core_cmSimd.h **** #define __UQADD8                          __uqadd8
  68:C:\Users\Depes Crystalline\Desktop\school\Active_Bike_Lighting_System\Radar_Core/Libraries/CMSIS/Include\core_cmSimd.h **** #define __UHADD8                          __uhadd8
  69:C:\Users\Depes Crystalline\Desktop\school\Active_Bike_Lighting_System\Radar_Core/Libraries/CMSIS/Include\core_cmSimd.h **** #define __SSUB8                           __ssub8
  70:C:\Users\Depes Crystalline\Desktop\school\Active_Bike_Lighting_System\Radar_Core/Libraries/CMSIS/Include\core_cmSimd.h **** #define __QSUB8                           __qsub8
  71:C:\Users\Depes Crystalline\Desktop\school\Active_Bike_Lighting_System\Radar_Core/Libraries/CMSIS/Include\core_cmSimd.h **** #define __SHSUB8                          __shsub8
  72:C:\Users\Depes Crystalline\Desktop\school\Active_Bike_Lighting_System\Radar_Core/Libraries/CMSIS/Include\core_cmSimd.h **** #define __USUB8                           __usub8
  73:C:\Users\Depes Crystalline\Desktop\school\Active_Bike_Lighting_System\Radar_Core/Libraries/CMSIS/Include\core_cmSimd.h **** #define __UQSUB8                          __uqsub8
  74:C:\Users\Depes Crystalline\Desktop\school\Active_Bike_Lighting_System\Radar_Core/Libraries/CMSIS/Include\core_cmSimd.h **** #define __UHSUB8                          __uhsub8
  75:C:\Users\Depes Crystalline\Desktop\school\Active_Bike_Lighting_System\Radar_Core/Libraries/CMSIS/Include\core_cmSimd.h **** #define __SADD16                          __sadd16
  76:C:\Users\Depes Crystalline\Desktop\school\Active_Bike_Lighting_System\Radar_Core/Libraries/CMSIS/Include\core_cmSimd.h **** #define __QADD16                          __qadd16
  77:C:\Users\Depes Crystalline\Desktop\school\Active_Bike_Lighting_System\Radar_Core/Libraries/CMSIS/Include\core_cmSimd.h **** #define __SHADD16                         __shadd16
  78:C:\Users\Depes Crystalline\Desktop\school\Active_Bike_Lighting_System\Radar_Core/Libraries/CMSIS/Include\core_cmSimd.h **** #define __UADD16                          __uadd16
  79:C:\Users\Depes Crystalline\Desktop\school\Active_Bike_Lighting_System\Radar_Core/Libraries/CMSIS/Include\core_cmSimd.h **** #define __UQADD16                         __uqadd16
  80:C:\Users\Depes Crystalline\Desktop\school\Active_Bike_Lighting_System\Radar_Core/Libraries/CMSIS/Include\core_cmSimd.h **** #define __UHADD16                         __uhadd16
  81:C:\Users\Depes Crystalline\Desktop\school\Active_Bike_Lighting_System\Radar_Core/Libraries/CMSIS/Include\core_cmSimd.h **** #define __SSUB16                          __ssub16
  82:C:\Users\Depes Crystalline\Desktop\school\Active_Bike_Lighting_System\Radar_Core/Libraries/CMSIS/Include\core_cmSimd.h **** #define __QSUB16                          __qsub16
  83:C:\Users\Depes Crystalline\Desktop\school\Active_Bike_Lighting_System\Radar_Core/Libraries/CMSIS/Include\core_cmSimd.h **** #define __SHSUB16                         __shsub16
  84:C:\Users\Depes Crystalline\Desktop\school\Active_Bike_Lighting_System\Radar_Core/Libraries/CMSIS/Include\core_cmSimd.h **** #define __USUB16                          __usub16
  85:C:\Users\Depes Crystalline\Desktop\school\Active_Bike_Lighting_System\Radar_Core/Libraries/CMSIS/Include\core_cmSimd.h **** #define __UQSUB16                         __uqsub16
  86:C:\Users\Depes Crystalline\Desktop\school\Active_Bike_Lighting_System\Radar_Core/Libraries/CMSIS/Include\core_cmSimd.h **** #define __UHSUB16                         __uhsub16
  87:C:\Users\Depes Crystalline\Desktop\school\Active_Bike_Lighting_System\Radar_Core/Libraries/CMSIS/Include\core_cmSimd.h **** #define __SASX                            __sasx
  88:C:\Users\Depes Crystalline\Desktop\school\Active_Bike_Lighting_System\Radar_Core/Libraries/CMSIS/Include\core_cmSimd.h **** #define __QASX                            __qasx
  89:C:\Users\Depes Crystalline\Desktop\school\Active_Bike_Lighting_System\Radar_Core/Libraries/CMSIS/Include\core_cmSimd.h **** #define __SHASX                           __shasx
  90:C:\Users\Depes Crystalline\Desktop\school\Active_Bike_Lighting_System\Radar_Core/Libraries/CMSIS/Include\core_cmSimd.h **** #define __UASX                            __uasx
  91:C:\Users\Depes Crystalline\Desktop\school\Active_Bike_Lighting_System\Radar_Core/Libraries/CMSIS/Include\core_cmSimd.h **** #define __UQASX                           __uqasx
  92:C:\Users\Depes Crystalline\Desktop\school\Active_Bike_Lighting_System\Radar_Core/Libraries/CMSIS/Include\core_cmSimd.h **** #define __UHASX                           __uhasx
  93:C:\Users\Depes Crystalline\Desktop\school\Active_Bike_Lighting_System\Radar_Core/Libraries/CMSIS/Include\core_cmSimd.h **** #define __SSAX                            __ssax
  94:C:\Users\Depes Crystalline\Desktop\school\Active_Bike_Lighting_System\Radar_Core/Libraries/CMSIS/Include\core_cmSimd.h **** #define __QSAX                            __qsax
  95:C:\Users\Depes Crystalline\Desktop\school\Active_Bike_Lighting_System\Radar_Core/Libraries/CMSIS/Include\core_cmSimd.h **** #define __SHSAX                           __shsax
  96:C:\Users\Depes Crystalline\Desktop\school\Active_Bike_Lighting_System\Radar_Core/Libraries/CMSIS/Include\core_cmSimd.h **** #define __USAX                            __usax
  97:C:\Users\Depes Crystalline\Desktop\school\Active_Bike_Lighting_System\Radar_Core/Libraries/CMSIS/Include\core_cmSimd.h **** #define __UQSAX                           __uqsax
  98:C:\Users\Depes Crystalline\Desktop\school\Active_Bike_Lighting_System\Radar_Core/Libraries/CMSIS/Include\core_cmSimd.h **** #define __UHSAX                           __uhsax
  99:C:\Users\Depes Crystalline\Desktop\school\Active_Bike_Lighting_System\Radar_Core/Libraries/CMSIS/Include\core_cmSimd.h **** #define __USAD8                           __usad8
 100:C:\Users\Depes Crystalline\Desktop\school\Active_Bike_Lighting_System\Radar_Core/Libraries/CMSIS/Include\core_cmSimd.h **** #define __USADA8                          __usada8
 101:C:\Users\Depes Crystalline\Desktop\school\Active_Bike_Lighting_System\Radar_Core/Libraries/CMSIS/Include\core_cmSimd.h **** #define __SSAT16                          __ssat16
 102:C:\Users\Depes Crystalline\Desktop\school\Active_Bike_Lighting_System\Radar_Core/Libraries/CMSIS/Include\core_cmSimd.h **** #define __USAT16                          __usat16
 103:C:\Users\Depes Crystalline\Desktop\school\Active_Bike_Lighting_System\Radar_Core/Libraries/CMSIS/Include\core_cmSimd.h **** #define __UXTB16                          __uxtb16
 104:C:\Users\Depes Crystalline\Desktop\school\Active_Bike_Lighting_System\Radar_Core/Libraries/CMSIS/Include\core_cmSimd.h **** #define __UXTAB16                         __uxtab16
 105:C:\Users\Depes Crystalline\Desktop\school\Active_Bike_Lighting_System\Radar_Core/Libraries/CMSIS/Include\core_cmSimd.h **** #define __SXTB16                          __sxtb16
 106:C:\Users\Depes Crystalline\Desktop\school\Active_Bike_Lighting_System\Radar_Core/Libraries/CMSIS/Include\core_cmSimd.h **** #define __SXTAB16                         __sxtab16
 107:C:\Users\Depes Crystalline\Desktop\school\Active_Bike_Lighting_System\Radar_Core/Libraries/CMSIS/Include\core_cmSimd.h **** #define __SMUAD                           __smuad
 108:C:\Users\Depes Crystalline\Desktop\school\Active_Bike_Lighting_System\Radar_Core/Libraries/CMSIS/Include\core_cmSimd.h **** #define __SMUADX                          __smuadx
 109:C:\Users\Depes Crystalline\Desktop\school\Active_Bike_Lighting_System\Radar_Core/Libraries/CMSIS/Include\core_cmSimd.h **** #define __SMLAD                           __smlad
 110:C:\Users\Depes Crystalline\Desktop\school\Active_Bike_Lighting_System\Radar_Core/Libraries/CMSIS/Include\core_cmSimd.h **** #define __SMLADX                          __smladx
 111:C:\Users\Depes Crystalline\Desktop\school\Active_Bike_Lighting_System\Radar_Core/Libraries/CMSIS/Include\core_cmSimd.h **** #define __SMLALD                          __smlald
 112:C:\Users\Depes Crystalline\Desktop\school\Active_Bike_Lighting_System\Radar_Core/Libraries/CMSIS/Include\core_cmSimd.h **** #define __SMLALDX                         __smlaldx
 113:C:\Users\Depes Crystalline\Desktop\school\Active_Bike_Lighting_System\Radar_Core/Libraries/CMSIS/Include\core_cmSimd.h **** #define __SMUSD                           __smusd
 114:C:\Users\Depes Crystalline\Desktop\school\Active_Bike_Lighting_System\Radar_Core/Libraries/CMSIS/Include\core_cmSimd.h **** #define __SMUSDX                          __smusdx
 115:C:\Users\Depes Crystalline\Desktop\school\Active_Bike_Lighting_System\Radar_Core/Libraries/CMSIS/Include\core_cmSimd.h **** #define __SMLSD                           __smlsd
 116:C:\Users\Depes Crystalline\Desktop\school\Active_Bike_Lighting_System\Radar_Core/Libraries/CMSIS/Include\core_cmSimd.h **** #define __SMLSDX                          __smlsdx
 117:C:\Users\Depes Crystalline\Desktop\school\Active_Bike_Lighting_System\Radar_Core/Libraries/CMSIS/Include\core_cmSimd.h **** #define __SMLSLD                          __smlsld
 118:C:\Users\Depes Crystalline\Desktop\school\Active_Bike_Lighting_System\Radar_Core/Libraries/CMSIS/Include\core_cmSimd.h **** #define __SMLSLDX                         __smlsldx
 119:C:\Users\Depes Crystalline\Desktop\school\Active_Bike_Lighting_System\Radar_Core/Libraries/CMSIS/Include\core_cmSimd.h **** #define __SEL                             __sel
 120:C:\Users\Depes Crystalline\Desktop\school\Active_Bike_Lighting_System\Radar_Core/Libraries/CMSIS/Include\core_cmSimd.h **** #define __QADD                            __qadd
 121:C:\Users\Depes Crystalline\Desktop\school\Active_Bike_Lighting_System\Radar_Core/Libraries/CMSIS/Include\core_cmSimd.h **** #define __QSUB                            __qsub
 122:C:\Users\Depes Crystalline\Desktop\school\Active_Bike_Lighting_System\Radar_Core/Libraries/CMSIS/Include\core_cmSimd.h **** 
 123:C:\Users\Depes Crystalline\Desktop\school\Active_Bike_Lighting_System\Radar_Core/Libraries/CMSIS/Include\core_cmSimd.h **** #define __PKHBT(ARG1,ARG2,ARG3)          ( ((((uint32_t)(ARG1))          ) & 0x0000FFFFUL) |  \
 124:C:\Users\Depes Crystalline\Desktop\school\Active_Bike_Lighting_System\Radar_Core/Libraries/CMSIS/Include\core_cmSimd.h ****                                            ((((uint32_t)(ARG2)) << (ARG3)) & 0xFFFF0000UL)  )
 125:C:\Users\Depes Crystalline\Desktop\school\Active_Bike_Lighting_System\Radar_Core/Libraries/CMSIS/Include\core_cmSimd.h **** 
 126:C:\Users\Depes Crystalline\Desktop\school\Active_Bike_Lighting_System\Radar_Core/Libraries/CMSIS/Include\core_cmSimd.h **** #define __PKHTB(ARG1,ARG2,ARG3)          ( ((((uint32_t)(ARG1))          ) & 0xFFFF0000UL) |  \
 127:C:\Users\Depes Crystalline\Desktop\school\Active_Bike_Lighting_System\Radar_Core/Libraries/CMSIS/Include\core_cmSimd.h ****                                            ((((uint32_t)(ARG2)) >> (ARG3)) & 0x0000FFFFUL)  )
 128:C:\Users\Depes Crystalline\Desktop\school\Active_Bike_Lighting_System\Radar_Core/Libraries/CMSIS/Include\core_cmSimd.h **** 
 129:C:\Users\Depes Crystalline\Desktop\school\Active_Bike_Lighting_System\Radar_Core/Libraries/CMSIS/Include\core_cmSimd.h **** #define __SMMLA(ARG1,ARG2,ARG3)          ( (int32_t)((((int64_t)(ARG1) * (ARG2)) + \
 130:C:\Users\Depes Crystalline\Desktop\school\Active_Bike_Lighting_System\Radar_Core/Libraries/CMSIS/Include\core_cmSimd.h ****                                                       ((int64_t)(ARG3) << 32)      ) >> 32))
 131:C:\Users\Depes Crystalline\Desktop\school\Active_Bike_Lighting_System\Radar_Core/Libraries/CMSIS/Include\core_cmSimd.h **** 
 132:C:\Users\Depes Crystalline\Desktop\school\Active_Bike_Lighting_System\Radar_Core/Libraries/CMSIS/Include\core_cmSimd.h **** 
 133:C:\Users\Depes Crystalline\Desktop\school\Active_Bike_Lighting_System\Radar_Core/Libraries/CMSIS/Include\core_cmSimd.h **** #elif defined ( __GNUC__ ) /*------------------ GNU Compiler ---------------------*/
 134:C:\Users\Depes Crystalline\Desktop\school\Active_Bike_Lighting_System\Radar_Core/Libraries/CMSIS/Include\core_cmSimd.h **** /* GNU gcc specific functions */
 135:C:\Users\Depes Crystalline\Desktop\school\Active_Bike_Lighting_System\Radar_Core/Libraries/CMSIS/Include\core_cmSimd.h **** __attribute__( ( always_inline ) ) __STATIC_INLINE uint32_t __SADD8(uint32_t op1, uint32_t op2)
 136:C:\Users\Depes Crystalline\Desktop\school\Active_Bike_Lighting_System\Radar_Core/Libraries/CMSIS/Include\core_cmSimd.h **** {
 137:C:\Users\Depes Crystalline\Desktop\school\Active_Bike_Lighting_System\Radar_Core/Libraries/CMSIS/Include\core_cmSimd.h ****   uint32_t result;
 138:C:\Users\Depes Crystalline\Desktop\school\Active_Bike_Lighting_System\Radar_Core/Libraries/CMSIS/Include\core_cmSimd.h **** 
 139:C:\Users\Depes Crystalline\Desktop\school\Active_Bike_Lighting_System\Radar_Core/Libraries/CMSIS/Include\core_cmSimd.h ****   __ASM volatile ("sadd8 %0, %1, %2" : "=r" (result) : "r" (op1), "r" (op2) );
 140:C:\Users\Depes Crystalline\Desktop\school\Active_Bike_Lighting_System\Radar_Core/Libraries/CMSIS/Include\core_cmSimd.h ****   return(result);
 141:C:\Users\Depes Crystalline\Desktop\school\Active_Bike_Lighting_System\Radar_Core/Libraries/CMSIS/Include\core_cmSimd.h **** }
 142:C:\Users\Depes Crystalline\Desktop\school\Active_Bike_Lighting_System\Radar_Core/Libraries/CMSIS/Include\core_cmSimd.h **** 
 143:C:\Users\Depes Crystalline\Desktop\school\Active_Bike_Lighting_System\Radar_Core/Libraries/CMSIS/Include\core_cmSimd.h **** __attribute__( ( always_inline ) ) __STATIC_INLINE uint32_t __QADD8(uint32_t op1, uint32_t op2)
 144:C:\Users\Depes Crystalline\Desktop\school\Active_Bike_Lighting_System\Radar_Core/Libraries/CMSIS/Include\core_cmSimd.h **** {
 145:C:\Users\Depes Crystalline\Desktop\school\Active_Bike_Lighting_System\Radar_Core/Libraries/CMSIS/Include\core_cmSimd.h ****   uint32_t result;
 146:C:\Users\Depes Crystalline\Desktop\school\Active_Bike_Lighting_System\Radar_Core/Libraries/CMSIS/Include\core_cmSimd.h **** 
 147:C:\Users\Depes Crystalline\Desktop\school\Active_Bike_Lighting_System\Radar_Core/Libraries/CMSIS/Include\core_cmSimd.h ****   __ASM volatile ("qadd8 %0, %1, %2" : "=r" (result) : "r" (op1), "r" (op2) );
 148:C:\Users\Depes Crystalline\Desktop\school\Active_Bike_Lighting_System\Radar_Core/Libraries/CMSIS/Include\core_cmSimd.h ****   return(result);
 149:C:\Users\Depes Crystalline\Desktop\school\Active_Bike_Lighting_System\Radar_Core/Libraries/CMSIS/Include\core_cmSimd.h **** }
 150:C:\Users\Depes Crystalline\Desktop\school\Active_Bike_Lighting_System\Radar_Core/Libraries/CMSIS/Include\core_cmSimd.h **** 
 151:C:\Users\Depes Crystalline\Desktop\school\Active_Bike_Lighting_System\Radar_Core/Libraries/CMSIS/Include\core_cmSimd.h **** __attribute__( ( always_inline ) ) __STATIC_INLINE uint32_t __SHADD8(uint32_t op1, uint32_t op2)
 152:C:\Users\Depes Crystalline\Desktop\school\Active_Bike_Lighting_System\Radar_Core/Libraries/CMSIS/Include\core_cmSimd.h **** {
 153:C:\Users\Depes Crystalline\Desktop\school\Active_Bike_Lighting_System\Radar_Core/Libraries/CMSIS/Include\core_cmSimd.h ****   uint32_t result;
 154:C:\Users\Depes Crystalline\Desktop\school\Active_Bike_Lighting_System\Radar_Core/Libraries/CMSIS/Include\core_cmSimd.h **** 
 155:C:\Users\Depes Crystalline\Desktop\school\Active_Bike_Lighting_System\Radar_Core/Libraries/CMSIS/Include\core_cmSimd.h ****   __ASM volatile ("shadd8 %0, %1, %2" : "=r" (result) : "r" (op1), "r" (op2) );
 156:C:\Users\Depes Crystalline\Desktop\school\Active_Bike_Lighting_System\Radar_Core/Libraries/CMSIS/Include\core_cmSimd.h ****   return(result);
 157:C:\Users\Depes Crystalline\Desktop\school\Active_Bike_Lighting_System\Radar_Core/Libraries/CMSIS/Include\core_cmSimd.h **** }
 158:C:\Users\Depes Crystalline\Desktop\school\Active_Bike_Lighting_System\Radar_Core/Libraries/CMSIS/Include\core_cmSimd.h **** 
 159:C:\Users\Depes Crystalline\Desktop\school\Active_Bike_Lighting_System\Radar_Core/Libraries/CMSIS/Include\core_cmSimd.h **** __attribute__( ( always_inline ) ) __STATIC_INLINE uint32_t __UADD8(uint32_t op1, uint32_t op2)
 160:C:\Users\Depes Crystalline\Desktop\school\Active_Bike_Lighting_System\Radar_Core/Libraries/CMSIS/Include\core_cmSimd.h **** {
 161:C:\Users\Depes Crystalline\Desktop\school\Active_Bike_Lighting_System\Radar_Core/Libraries/CMSIS/Include\core_cmSimd.h ****   uint32_t result;
 162:C:\Users\Depes Crystalline\Desktop\school\Active_Bike_Lighting_System\Radar_Core/Libraries/CMSIS/Include\core_cmSimd.h **** 
 163:C:\Users\Depes Crystalline\Desktop\school\Active_Bike_Lighting_System\Radar_Core/Libraries/CMSIS/Include\core_cmSimd.h ****   __ASM volatile ("uadd8 %0, %1, %2" : "=r" (result) : "r" (op1), "r" (op2) );
 164:C:\Users\Depes Crystalline\Desktop\school\Active_Bike_Lighting_System\Radar_Core/Libraries/CMSIS/Include\core_cmSimd.h ****   return(result);
 165:C:\Users\Depes Crystalline\Desktop\school\Active_Bike_Lighting_System\Radar_Core/Libraries/CMSIS/Include\core_cmSimd.h **** }
 166:C:\Users\Depes Crystalline\Desktop\school\Active_Bike_Lighting_System\Radar_Core/Libraries/CMSIS/Include\core_cmSimd.h **** 
 167:C:\Users\Depes Crystalline\Desktop\school\Active_Bike_Lighting_System\Radar_Core/Libraries/CMSIS/Include\core_cmSimd.h **** __attribute__( ( always_inline ) ) __STATIC_INLINE uint32_t __UQADD8(uint32_t op1, uint32_t op2)
 168:C:\Users\Depes Crystalline\Desktop\school\Active_Bike_Lighting_System\Radar_Core/Libraries/CMSIS/Include\core_cmSimd.h **** {
 169:C:\Users\Depes Crystalline\Desktop\school\Active_Bike_Lighting_System\Radar_Core/Libraries/CMSIS/Include\core_cmSimd.h ****   uint32_t result;
 170:C:\Users\Depes Crystalline\Desktop\school\Active_Bike_Lighting_System\Radar_Core/Libraries/CMSIS/Include\core_cmSimd.h **** 
 171:C:\Users\Depes Crystalline\Desktop\school\Active_Bike_Lighting_System\Radar_Core/Libraries/CMSIS/Include\core_cmSimd.h ****   __ASM volatile ("uqadd8 %0, %1, %2" : "=r" (result) : "r" (op1), "r" (op2) );
 172:C:\Users\Depes Crystalline\Desktop\school\Active_Bike_Lighting_System\Radar_Core/Libraries/CMSIS/Include\core_cmSimd.h ****   return(result);
 173:C:\Users\Depes Crystalline\Desktop\school\Active_Bike_Lighting_System\Radar_Core/Libraries/CMSIS/Include\core_cmSimd.h **** }
 174:C:\Users\Depes Crystalline\Desktop\school\Active_Bike_Lighting_System\Radar_Core/Libraries/CMSIS/Include\core_cmSimd.h **** 
 175:C:\Users\Depes Crystalline\Desktop\school\Active_Bike_Lighting_System\Radar_Core/Libraries/CMSIS/Include\core_cmSimd.h **** __attribute__( ( always_inline ) ) __STATIC_INLINE uint32_t __UHADD8(uint32_t op1, uint32_t op2)
 176:C:\Users\Depes Crystalline\Desktop\school\Active_Bike_Lighting_System\Radar_Core/Libraries/CMSIS/Include\core_cmSimd.h **** {
 177:C:\Users\Depes Crystalline\Desktop\school\Active_Bike_Lighting_System\Radar_Core/Libraries/CMSIS/Include\core_cmSimd.h ****   uint32_t result;
 178:C:\Users\Depes Crystalline\Desktop\school\Active_Bike_Lighting_System\Radar_Core/Libraries/CMSIS/Include\core_cmSimd.h **** 
 179:C:\Users\Depes Crystalline\Desktop\school\Active_Bike_Lighting_System\Radar_Core/Libraries/CMSIS/Include\core_cmSimd.h ****   __ASM volatile ("uhadd8 %0, %1, %2" : "=r" (result) : "r" (op1), "r" (op2) );
 180:C:\Users\Depes Crystalline\Desktop\school\Active_Bike_Lighting_System\Radar_Core/Libraries/CMSIS/Include\core_cmSimd.h ****   return(result);
 181:C:\Users\Depes Crystalline\Desktop\school\Active_Bike_Lighting_System\Radar_Core/Libraries/CMSIS/Include\core_cmSimd.h **** }
 182:C:\Users\Depes Crystalline\Desktop\school\Active_Bike_Lighting_System\Radar_Core/Libraries/CMSIS/Include\core_cmSimd.h **** 
 183:C:\Users\Depes Crystalline\Desktop\school\Active_Bike_Lighting_System\Radar_Core/Libraries/CMSIS/Include\core_cmSimd.h **** 
 184:C:\Users\Depes Crystalline\Desktop\school\Active_Bike_Lighting_System\Radar_Core/Libraries/CMSIS/Include\core_cmSimd.h **** __attribute__( ( always_inline ) ) __STATIC_INLINE uint32_t __SSUB8(uint32_t op1, uint32_t op2)
 185:C:\Users\Depes Crystalline\Desktop\school\Active_Bike_Lighting_System\Radar_Core/Libraries/CMSIS/Include\core_cmSimd.h **** {
 186:C:\Users\Depes Crystalline\Desktop\school\Active_Bike_Lighting_System\Radar_Core/Libraries/CMSIS/Include\core_cmSimd.h ****   uint32_t result;
 187:C:\Users\Depes Crystalline\Desktop\school\Active_Bike_Lighting_System\Radar_Core/Libraries/CMSIS/Include\core_cmSimd.h **** 
 188:C:\Users\Depes Crystalline\Desktop\school\Active_Bike_Lighting_System\Radar_Core/Libraries/CMSIS/Include\core_cmSimd.h ****   __ASM volatile ("ssub8 %0, %1, %2" : "=r" (result) : "r" (op1), "r" (op2) );
 189:C:\Users\Depes Crystalline\Desktop\school\Active_Bike_Lighting_System\Radar_Core/Libraries/CMSIS/Include\core_cmSimd.h ****   return(result);
 190:C:\Users\Depes Crystalline\Desktop\school\Active_Bike_Lighting_System\Radar_Core/Libraries/CMSIS/Include\core_cmSimd.h **** }
 191:C:\Users\Depes Crystalline\Desktop\school\Active_Bike_Lighting_System\Radar_Core/Libraries/CMSIS/Include\core_cmSimd.h **** 
 192:C:\Users\Depes Crystalline\Desktop\school\Active_Bike_Lighting_System\Radar_Core/Libraries/CMSIS/Include\core_cmSimd.h **** __attribute__( ( always_inline ) ) __STATIC_INLINE uint32_t __QSUB8(uint32_t op1, uint32_t op2)
 193:C:\Users\Depes Crystalline\Desktop\school\Active_Bike_Lighting_System\Radar_Core/Libraries/CMSIS/Include\core_cmSimd.h **** {
 194:C:\Users\Depes Crystalline\Desktop\school\Active_Bike_Lighting_System\Radar_Core/Libraries/CMSIS/Include\core_cmSimd.h ****   uint32_t result;
 195:C:\Users\Depes Crystalline\Desktop\school\Active_Bike_Lighting_System\Radar_Core/Libraries/CMSIS/Include\core_cmSimd.h **** 
 196:C:\Users\Depes Crystalline\Desktop\school\Active_Bike_Lighting_System\Radar_Core/Libraries/CMSIS/Include\core_cmSimd.h ****   __ASM volatile ("qsub8 %0, %1, %2" : "=r" (result) : "r" (op1), "r" (op2) );
 197:C:\Users\Depes Crystalline\Desktop\school\Active_Bike_Lighting_System\Radar_Core/Libraries/CMSIS/Include\core_cmSimd.h ****   return(result);
 198:C:\Users\Depes Crystalline\Desktop\school\Active_Bike_Lighting_System\Radar_Core/Libraries/CMSIS/Include\core_cmSimd.h **** }
 199:C:\Users\Depes Crystalline\Desktop\school\Active_Bike_Lighting_System\Radar_Core/Libraries/CMSIS/Include\core_cmSimd.h **** 
 200:C:\Users\Depes Crystalline\Desktop\school\Active_Bike_Lighting_System\Radar_Core/Libraries/CMSIS/Include\core_cmSimd.h **** __attribute__( ( always_inline ) ) __STATIC_INLINE uint32_t __SHSUB8(uint32_t op1, uint32_t op2)
 201:C:\Users\Depes Crystalline\Desktop\school\Active_Bike_Lighting_System\Radar_Core/Libraries/CMSIS/Include\core_cmSimd.h **** {
 202:C:\Users\Depes Crystalline\Desktop\school\Active_Bike_Lighting_System\Radar_Core/Libraries/CMSIS/Include\core_cmSimd.h ****   uint32_t result;
 203:C:\Users\Depes Crystalline\Desktop\school\Active_Bike_Lighting_System\Radar_Core/Libraries/CMSIS/Include\core_cmSimd.h **** 
 204:C:\Users\Depes Crystalline\Desktop\school\Active_Bike_Lighting_System\Radar_Core/Libraries/CMSIS/Include\core_cmSimd.h ****   __ASM volatile ("shsub8 %0, %1, %2" : "=r" (result) : "r" (op1), "r" (op2) );
 205:C:\Users\Depes Crystalline\Desktop\school\Active_Bike_Lighting_System\Radar_Core/Libraries/CMSIS/Include\core_cmSimd.h ****   return(result);
 206:C:\Users\Depes Crystalline\Desktop\school\Active_Bike_Lighting_System\Radar_Core/Libraries/CMSIS/Include\core_cmSimd.h **** }
 207:C:\Users\Depes Crystalline\Desktop\school\Active_Bike_Lighting_System\Radar_Core/Libraries/CMSIS/Include\core_cmSimd.h **** 
 208:C:\Users\Depes Crystalline\Desktop\school\Active_Bike_Lighting_System\Radar_Core/Libraries/CMSIS/Include\core_cmSimd.h **** __attribute__( ( always_inline ) ) __STATIC_INLINE uint32_t __USUB8(uint32_t op1, uint32_t op2)
 209:C:\Users\Depes Crystalline\Desktop\school\Active_Bike_Lighting_System\Radar_Core/Libraries/CMSIS/Include\core_cmSimd.h **** {
 210:C:\Users\Depes Crystalline\Desktop\school\Active_Bike_Lighting_System\Radar_Core/Libraries/CMSIS/Include\core_cmSimd.h ****   uint32_t result;
 211:C:\Users\Depes Crystalline\Desktop\school\Active_Bike_Lighting_System\Radar_Core/Libraries/CMSIS/Include\core_cmSimd.h **** 
 212:C:\Users\Depes Crystalline\Desktop\school\Active_Bike_Lighting_System\Radar_Core/Libraries/CMSIS/Include\core_cmSimd.h ****   __ASM volatile ("usub8 %0, %1, %2" : "=r" (result) : "r" (op1), "r" (op2) );
 213:C:\Users\Depes Crystalline\Desktop\school\Active_Bike_Lighting_System\Radar_Core/Libraries/CMSIS/Include\core_cmSimd.h ****   return(result);
 214:C:\Users\Depes Crystalline\Desktop\school\Active_Bike_Lighting_System\Radar_Core/Libraries/CMSIS/Include\core_cmSimd.h **** }
 215:C:\Users\Depes Crystalline\Desktop\school\Active_Bike_Lighting_System\Radar_Core/Libraries/CMSIS/Include\core_cmSimd.h **** 
 216:C:\Users\Depes Crystalline\Desktop\school\Active_Bike_Lighting_System\Radar_Core/Libraries/CMSIS/Include\core_cmSimd.h **** __attribute__( ( always_inline ) ) __STATIC_INLINE uint32_t __UQSUB8(uint32_t op1, uint32_t op2)
 217:C:\Users\Depes Crystalline\Desktop\school\Active_Bike_Lighting_System\Radar_Core/Libraries/CMSIS/Include\core_cmSimd.h **** {
 218:C:\Users\Depes Crystalline\Desktop\school\Active_Bike_Lighting_System\Radar_Core/Libraries/CMSIS/Include\core_cmSimd.h ****   uint32_t result;
 219:C:\Users\Depes Crystalline\Desktop\school\Active_Bike_Lighting_System\Radar_Core/Libraries/CMSIS/Include\core_cmSimd.h **** 
 220:C:\Users\Depes Crystalline\Desktop\school\Active_Bike_Lighting_System\Radar_Core/Libraries/CMSIS/Include\core_cmSimd.h ****   __ASM volatile ("uqsub8 %0, %1, %2" : "=r" (result) : "r" (op1), "r" (op2) );
 221:C:\Users\Depes Crystalline\Desktop\school\Active_Bike_Lighting_System\Radar_Core/Libraries/CMSIS/Include\core_cmSimd.h ****   return(result);
 222:C:\Users\Depes Crystalline\Desktop\school\Active_Bike_Lighting_System\Radar_Core/Libraries/CMSIS/Include\core_cmSimd.h **** }
 223:C:\Users\Depes Crystalline\Desktop\school\Active_Bike_Lighting_System\Radar_Core/Libraries/CMSIS/Include\core_cmSimd.h **** 
 224:C:\Users\Depes Crystalline\Desktop\school\Active_Bike_Lighting_System\Radar_Core/Libraries/CMSIS/Include\core_cmSimd.h **** __attribute__( ( always_inline ) ) __STATIC_INLINE uint32_t __UHSUB8(uint32_t op1, uint32_t op2)
 225:C:\Users\Depes Crystalline\Desktop\school\Active_Bike_Lighting_System\Radar_Core/Libraries/CMSIS/Include\core_cmSimd.h **** {
 226:C:\Users\Depes Crystalline\Desktop\school\Active_Bike_Lighting_System\Radar_Core/Libraries/CMSIS/Include\core_cmSimd.h ****   uint32_t result;
 227:C:\Users\Depes Crystalline\Desktop\school\Active_Bike_Lighting_System\Radar_Core/Libraries/CMSIS/Include\core_cmSimd.h **** 
 228:C:\Users\Depes Crystalline\Desktop\school\Active_Bike_Lighting_System\Radar_Core/Libraries/CMSIS/Include\core_cmSimd.h ****   __ASM volatile ("uhsub8 %0, %1, %2" : "=r" (result) : "r" (op1), "r" (op2) );
 229:C:\Users\Depes Crystalline\Desktop\school\Active_Bike_Lighting_System\Radar_Core/Libraries/CMSIS/Include\core_cmSimd.h ****   return(result);
 230:C:\Users\Depes Crystalline\Desktop\school\Active_Bike_Lighting_System\Radar_Core/Libraries/CMSIS/Include\core_cmSimd.h **** }
 231:C:\Users\Depes Crystalline\Desktop\school\Active_Bike_Lighting_System\Radar_Core/Libraries/CMSIS/Include\core_cmSimd.h **** 
 232:C:\Users\Depes Crystalline\Desktop\school\Active_Bike_Lighting_System\Radar_Core/Libraries/CMSIS/Include\core_cmSimd.h **** 
 233:C:\Users\Depes Crystalline\Desktop\school\Active_Bike_Lighting_System\Radar_Core/Libraries/CMSIS/Include\core_cmSimd.h **** __attribute__( ( always_inline ) ) __STATIC_INLINE uint32_t __SADD16(uint32_t op1, uint32_t op2)
 234:C:\Users\Depes Crystalline\Desktop\school\Active_Bike_Lighting_System\Radar_Core/Libraries/CMSIS/Include\core_cmSimd.h **** {
 235:C:\Users\Depes Crystalline\Desktop\school\Active_Bike_Lighting_System\Radar_Core/Libraries/CMSIS/Include\core_cmSimd.h ****   uint32_t result;
 236:C:\Users\Depes Crystalline\Desktop\school\Active_Bike_Lighting_System\Radar_Core/Libraries/CMSIS/Include\core_cmSimd.h **** 
 237:C:\Users\Depes Crystalline\Desktop\school\Active_Bike_Lighting_System\Radar_Core/Libraries/CMSIS/Include\core_cmSimd.h ****   __ASM volatile ("sadd16 %0, %1, %2" : "=r" (result) : "r" (op1), "r" (op2) );
 238:C:\Users\Depes Crystalline\Desktop\school\Active_Bike_Lighting_System\Radar_Core/Libraries/CMSIS/Include\core_cmSimd.h ****   return(result);
 239:C:\Users\Depes Crystalline\Desktop\school\Active_Bike_Lighting_System\Radar_Core/Libraries/CMSIS/Include\core_cmSimd.h **** }
 240:C:\Users\Depes Crystalline\Desktop\school\Active_Bike_Lighting_System\Radar_Core/Libraries/CMSIS/Include\core_cmSimd.h **** 
 241:C:\Users\Depes Crystalline\Desktop\school\Active_Bike_Lighting_System\Radar_Core/Libraries/CMSIS/Include\core_cmSimd.h **** __attribute__( ( always_inline ) ) __STATIC_INLINE uint32_t __QADD16(uint32_t op1, uint32_t op2)
 242:C:\Users\Depes Crystalline\Desktop\school\Active_Bike_Lighting_System\Radar_Core/Libraries/CMSIS/Include\core_cmSimd.h **** {
 243:C:\Users\Depes Crystalline\Desktop\school\Active_Bike_Lighting_System\Radar_Core/Libraries/CMSIS/Include\core_cmSimd.h ****   uint32_t result;
 244:C:\Users\Depes Crystalline\Desktop\school\Active_Bike_Lighting_System\Radar_Core/Libraries/CMSIS/Include\core_cmSimd.h **** 
 245:C:\Users\Depes Crystalline\Desktop\school\Active_Bike_Lighting_System\Radar_Core/Libraries/CMSIS/Include\core_cmSimd.h ****   __ASM volatile ("qadd16 %0, %1, %2" : "=r" (result) : "r" (op1), "r" (op2) );
 246:C:\Users\Depes Crystalline\Desktop\school\Active_Bike_Lighting_System\Radar_Core/Libraries/CMSIS/Include\core_cmSimd.h ****   return(result);
 247:C:\Users\Depes Crystalline\Desktop\school\Active_Bike_Lighting_System\Radar_Core/Libraries/CMSIS/Include\core_cmSimd.h **** }
 248:C:\Users\Depes Crystalline\Desktop\school\Active_Bike_Lighting_System\Radar_Core/Libraries/CMSIS/Include\core_cmSimd.h **** 
 249:C:\Users\Depes Crystalline\Desktop\school\Active_Bike_Lighting_System\Radar_Core/Libraries/CMSIS/Include\core_cmSimd.h **** __attribute__( ( always_inline ) ) __STATIC_INLINE uint32_t __SHADD16(uint32_t op1, uint32_t op2)
 250:C:\Users\Depes Crystalline\Desktop\school\Active_Bike_Lighting_System\Radar_Core/Libraries/CMSIS/Include\core_cmSimd.h **** {
 251:C:\Users\Depes Crystalline\Desktop\school\Active_Bike_Lighting_System\Radar_Core/Libraries/CMSIS/Include\core_cmSimd.h ****   uint32_t result;
 252:C:\Users\Depes Crystalline\Desktop\school\Active_Bike_Lighting_System\Radar_Core/Libraries/CMSIS/Include\core_cmSimd.h **** 
 253:C:\Users\Depes Crystalline\Desktop\school\Active_Bike_Lighting_System\Radar_Core/Libraries/CMSIS/Include\core_cmSimd.h ****   __ASM volatile ("shadd16 %0, %1, %2" : "=r" (result) : "r" (op1), "r" (op2) );
 254:C:\Users\Depes Crystalline\Desktop\school\Active_Bike_Lighting_System\Radar_Core/Libraries/CMSIS/Include\core_cmSimd.h ****   return(result);
 255:C:\Users\Depes Crystalline\Desktop\school\Active_Bike_Lighting_System\Radar_Core/Libraries/CMSIS/Include\core_cmSimd.h **** }
 256:C:\Users\Depes Crystalline\Desktop\school\Active_Bike_Lighting_System\Radar_Core/Libraries/CMSIS/Include\core_cmSimd.h **** 
 257:C:\Users\Depes Crystalline\Desktop\school\Active_Bike_Lighting_System\Radar_Core/Libraries/CMSIS/Include\core_cmSimd.h **** __attribute__( ( always_inline ) ) __STATIC_INLINE uint32_t __UADD16(uint32_t op1, uint32_t op2)
 258:C:\Users\Depes Crystalline\Desktop\school\Active_Bike_Lighting_System\Radar_Core/Libraries/CMSIS/Include\core_cmSimd.h **** {
 259:C:\Users\Depes Crystalline\Desktop\school\Active_Bike_Lighting_System\Radar_Core/Libraries/CMSIS/Include\core_cmSimd.h ****   uint32_t result;
 260:C:\Users\Depes Crystalline\Desktop\school\Active_Bike_Lighting_System\Radar_Core/Libraries/CMSIS/Include\core_cmSimd.h **** 
 261:C:\Users\Depes Crystalline\Desktop\school\Active_Bike_Lighting_System\Radar_Core/Libraries/CMSIS/Include\core_cmSimd.h ****   __ASM volatile ("uadd16 %0, %1, %2" : "=r" (result) : "r" (op1), "r" (op2) );
 262:C:\Users\Depes Crystalline\Desktop\school\Active_Bike_Lighting_System\Radar_Core/Libraries/CMSIS/Include\core_cmSimd.h ****   return(result);
 263:C:\Users\Depes Crystalline\Desktop\school\Active_Bike_Lighting_System\Radar_Core/Libraries/CMSIS/Include\core_cmSimd.h **** }
 264:C:\Users\Depes Crystalline\Desktop\school\Active_Bike_Lighting_System\Radar_Core/Libraries/CMSIS/Include\core_cmSimd.h **** 
 265:C:\Users\Depes Crystalline\Desktop\school\Active_Bike_Lighting_System\Radar_Core/Libraries/CMSIS/Include\core_cmSimd.h **** __attribute__( ( always_inline ) ) __STATIC_INLINE uint32_t __UQADD16(uint32_t op1, uint32_t op2)
 266:C:\Users\Depes Crystalline\Desktop\school\Active_Bike_Lighting_System\Radar_Core/Libraries/CMSIS/Include\core_cmSimd.h **** {
 267:C:\Users\Depes Crystalline\Desktop\school\Active_Bike_Lighting_System\Radar_Core/Libraries/CMSIS/Include\core_cmSimd.h ****   uint32_t result;
 268:C:\Users\Depes Crystalline\Desktop\school\Active_Bike_Lighting_System\Radar_Core/Libraries/CMSIS/Include\core_cmSimd.h **** 
 269:C:\Users\Depes Crystalline\Desktop\school\Active_Bike_Lighting_System\Radar_Core/Libraries/CMSIS/Include\core_cmSimd.h ****   __ASM volatile ("uqadd16 %0, %1, %2" : "=r" (result) : "r" (op1), "r" (op2) );
 270:C:\Users\Depes Crystalline\Desktop\school\Active_Bike_Lighting_System\Radar_Core/Libraries/CMSIS/Include\core_cmSimd.h ****   return(result);
 271:C:\Users\Depes Crystalline\Desktop\school\Active_Bike_Lighting_System\Radar_Core/Libraries/CMSIS/Include\core_cmSimd.h **** }
 272:C:\Users\Depes Crystalline\Desktop\school\Active_Bike_Lighting_System\Radar_Core/Libraries/CMSIS/Include\core_cmSimd.h **** 
 273:C:\Users\Depes Crystalline\Desktop\school\Active_Bike_Lighting_System\Radar_Core/Libraries/CMSIS/Include\core_cmSimd.h **** __attribute__( ( always_inline ) ) __STATIC_INLINE uint32_t __UHADD16(uint32_t op1, uint32_t op2)
 274:C:\Users\Depes Crystalline\Desktop\school\Active_Bike_Lighting_System\Radar_Core/Libraries/CMSIS/Include\core_cmSimd.h **** {
 275:C:\Users\Depes Crystalline\Desktop\school\Active_Bike_Lighting_System\Radar_Core/Libraries/CMSIS/Include\core_cmSimd.h ****   uint32_t result;
 276:C:\Users\Depes Crystalline\Desktop\school\Active_Bike_Lighting_System\Radar_Core/Libraries/CMSIS/Include\core_cmSimd.h **** 
 277:C:\Users\Depes Crystalline\Desktop\school\Active_Bike_Lighting_System\Radar_Core/Libraries/CMSIS/Include\core_cmSimd.h ****   __ASM volatile ("uhadd16 %0, %1, %2" : "=r" (result) : "r" (op1), "r" (op2) );
 278:C:\Users\Depes Crystalline\Desktop\school\Active_Bike_Lighting_System\Radar_Core/Libraries/CMSIS/Include\core_cmSimd.h ****   return(result);
 279:C:\Users\Depes Crystalline\Desktop\school\Active_Bike_Lighting_System\Radar_Core/Libraries/CMSIS/Include\core_cmSimd.h **** }
 280:C:\Users\Depes Crystalline\Desktop\school\Active_Bike_Lighting_System\Radar_Core/Libraries/CMSIS/Include\core_cmSimd.h **** 
 281:C:\Users\Depes Crystalline\Desktop\school\Active_Bike_Lighting_System\Radar_Core/Libraries/CMSIS/Include\core_cmSimd.h **** __attribute__( ( always_inline ) ) __STATIC_INLINE uint32_t __SSUB16(uint32_t op1, uint32_t op2)
 282:C:\Users\Depes Crystalline\Desktop\school\Active_Bike_Lighting_System\Radar_Core/Libraries/CMSIS/Include\core_cmSimd.h **** {
 283:C:\Users\Depes Crystalline\Desktop\school\Active_Bike_Lighting_System\Radar_Core/Libraries/CMSIS/Include\core_cmSimd.h ****   uint32_t result;
 284:C:\Users\Depes Crystalline\Desktop\school\Active_Bike_Lighting_System\Radar_Core/Libraries/CMSIS/Include\core_cmSimd.h **** 
 285:C:\Users\Depes Crystalline\Desktop\school\Active_Bike_Lighting_System\Radar_Core/Libraries/CMSIS/Include\core_cmSimd.h ****   __ASM volatile ("ssub16 %0, %1, %2" : "=r" (result) : "r" (op1), "r" (op2) );
 286:C:\Users\Depes Crystalline\Desktop\school\Active_Bike_Lighting_System\Radar_Core/Libraries/CMSIS/Include\core_cmSimd.h ****   return(result);
 287:C:\Users\Depes Crystalline\Desktop\school\Active_Bike_Lighting_System\Radar_Core/Libraries/CMSIS/Include\core_cmSimd.h **** }
 288:C:\Users\Depes Crystalline\Desktop\school\Active_Bike_Lighting_System\Radar_Core/Libraries/CMSIS/Include\core_cmSimd.h **** 
 289:C:\Users\Depes Crystalline\Desktop\school\Active_Bike_Lighting_System\Radar_Core/Libraries/CMSIS/Include\core_cmSimd.h **** __attribute__( ( always_inline ) ) __STATIC_INLINE uint32_t __QSUB16(uint32_t op1, uint32_t op2)
 290:C:\Users\Depes Crystalline\Desktop\school\Active_Bike_Lighting_System\Radar_Core/Libraries/CMSIS/Include\core_cmSimd.h **** {
 291:C:\Users\Depes Crystalline\Desktop\school\Active_Bike_Lighting_System\Radar_Core/Libraries/CMSIS/Include\core_cmSimd.h ****   uint32_t result;
 292:C:\Users\Depes Crystalline\Desktop\school\Active_Bike_Lighting_System\Radar_Core/Libraries/CMSIS/Include\core_cmSimd.h **** 
 293:C:\Users\Depes Crystalline\Desktop\school\Active_Bike_Lighting_System\Radar_Core/Libraries/CMSIS/Include\core_cmSimd.h ****   __ASM volatile ("qsub16 %0, %1, %2" : "=r" (result) : "r" (op1), "r" (op2) );
 294:C:\Users\Depes Crystalline\Desktop\school\Active_Bike_Lighting_System\Radar_Core/Libraries/CMSIS/Include\core_cmSimd.h ****   return(result);
 295:C:\Users\Depes Crystalline\Desktop\school\Active_Bike_Lighting_System\Radar_Core/Libraries/CMSIS/Include\core_cmSimd.h **** }
 296:C:\Users\Depes Crystalline\Desktop\school\Active_Bike_Lighting_System\Radar_Core/Libraries/CMSIS/Include\core_cmSimd.h **** 
 297:C:\Users\Depes Crystalline\Desktop\school\Active_Bike_Lighting_System\Radar_Core/Libraries/CMSIS/Include\core_cmSimd.h **** __attribute__( ( always_inline ) ) __STATIC_INLINE uint32_t __SHSUB16(uint32_t op1, uint32_t op2)
 298:C:\Users\Depes Crystalline\Desktop\school\Active_Bike_Lighting_System\Radar_Core/Libraries/CMSIS/Include\core_cmSimd.h **** {
 299:C:\Users\Depes Crystalline\Desktop\school\Active_Bike_Lighting_System\Radar_Core/Libraries/CMSIS/Include\core_cmSimd.h ****   uint32_t result;
 300:C:\Users\Depes Crystalline\Desktop\school\Active_Bike_Lighting_System\Radar_Core/Libraries/CMSIS/Include\core_cmSimd.h **** 
 301:C:\Users\Depes Crystalline\Desktop\school\Active_Bike_Lighting_System\Radar_Core/Libraries/CMSIS/Include\core_cmSimd.h ****   __ASM volatile ("shsub16 %0, %1, %2" : "=r" (result) : "r" (op1), "r" (op2) );
 302:C:\Users\Depes Crystalline\Desktop\school\Active_Bike_Lighting_System\Radar_Core/Libraries/CMSIS/Include\core_cmSimd.h ****   return(result);
 303:C:\Users\Depes Crystalline\Desktop\school\Active_Bike_Lighting_System\Radar_Core/Libraries/CMSIS/Include\core_cmSimd.h **** }
 304:C:\Users\Depes Crystalline\Desktop\school\Active_Bike_Lighting_System\Radar_Core/Libraries/CMSIS/Include\core_cmSimd.h **** 
 305:C:\Users\Depes Crystalline\Desktop\school\Active_Bike_Lighting_System\Radar_Core/Libraries/CMSIS/Include\core_cmSimd.h **** __attribute__( ( always_inline ) ) __STATIC_INLINE uint32_t __USUB16(uint32_t op1, uint32_t op2)
 306:C:\Users\Depes Crystalline\Desktop\school\Active_Bike_Lighting_System\Radar_Core/Libraries/CMSIS/Include\core_cmSimd.h **** {
 307:C:\Users\Depes Crystalline\Desktop\school\Active_Bike_Lighting_System\Radar_Core/Libraries/CMSIS/Include\core_cmSimd.h ****   uint32_t result;
 308:C:\Users\Depes Crystalline\Desktop\school\Active_Bike_Lighting_System\Radar_Core/Libraries/CMSIS/Include\core_cmSimd.h **** 
 309:C:\Users\Depes Crystalline\Desktop\school\Active_Bike_Lighting_System\Radar_Core/Libraries/CMSIS/Include\core_cmSimd.h ****   __ASM volatile ("usub16 %0, %1, %2" : "=r" (result) : "r" (op1), "r" (op2) );
 310:C:\Users\Depes Crystalline\Desktop\school\Active_Bike_Lighting_System\Radar_Core/Libraries/CMSIS/Include\core_cmSimd.h ****   return(result);
 311:C:\Users\Depes Crystalline\Desktop\school\Active_Bike_Lighting_System\Radar_Core/Libraries/CMSIS/Include\core_cmSimd.h **** }
 312:C:\Users\Depes Crystalline\Desktop\school\Active_Bike_Lighting_System\Radar_Core/Libraries/CMSIS/Include\core_cmSimd.h **** 
 313:C:\Users\Depes Crystalline\Desktop\school\Active_Bike_Lighting_System\Radar_Core/Libraries/CMSIS/Include\core_cmSimd.h **** __attribute__( ( always_inline ) ) __STATIC_INLINE uint32_t __UQSUB16(uint32_t op1, uint32_t op2)
 314:C:\Users\Depes Crystalline\Desktop\school\Active_Bike_Lighting_System\Radar_Core/Libraries/CMSIS/Include\core_cmSimd.h **** {
 315:C:\Users\Depes Crystalline\Desktop\school\Active_Bike_Lighting_System\Radar_Core/Libraries/CMSIS/Include\core_cmSimd.h ****   uint32_t result;
 316:C:\Users\Depes Crystalline\Desktop\school\Active_Bike_Lighting_System\Radar_Core/Libraries/CMSIS/Include\core_cmSimd.h **** 
 317:C:\Users\Depes Crystalline\Desktop\school\Active_Bike_Lighting_System\Radar_Core/Libraries/CMSIS/Include\core_cmSimd.h ****   __ASM volatile ("uqsub16 %0, %1, %2" : "=r" (result) : "r" (op1), "r" (op2) );
 318:C:\Users\Depes Crystalline\Desktop\school\Active_Bike_Lighting_System\Radar_Core/Libraries/CMSIS/Include\core_cmSimd.h ****   return(result);
 319:C:\Users\Depes Crystalline\Desktop\school\Active_Bike_Lighting_System\Radar_Core/Libraries/CMSIS/Include\core_cmSimd.h **** }
 320:C:\Users\Depes Crystalline\Desktop\school\Active_Bike_Lighting_System\Radar_Core/Libraries/CMSIS/Include\core_cmSimd.h **** 
 321:C:\Users\Depes Crystalline\Desktop\school\Active_Bike_Lighting_System\Radar_Core/Libraries/CMSIS/Include\core_cmSimd.h **** __attribute__( ( always_inline ) ) __STATIC_INLINE uint32_t __UHSUB16(uint32_t op1, uint32_t op2)
 322:C:\Users\Depes Crystalline\Desktop\school\Active_Bike_Lighting_System\Radar_Core/Libraries/CMSIS/Include\core_cmSimd.h **** {
 323:C:\Users\Depes Crystalline\Desktop\school\Active_Bike_Lighting_System\Radar_Core/Libraries/CMSIS/Include\core_cmSimd.h ****   uint32_t result;
 324:C:\Users\Depes Crystalline\Desktop\school\Active_Bike_Lighting_System\Radar_Core/Libraries/CMSIS/Include\core_cmSimd.h **** 
 325:C:\Users\Depes Crystalline\Desktop\school\Active_Bike_Lighting_System\Radar_Core/Libraries/CMSIS/Include\core_cmSimd.h ****   __ASM volatile ("uhsub16 %0, %1, %2" : "=r" (result) : "r" (op1), "r" (op2) );
 326:C:\Users\Depes Crystalline\Desktop\school\Active_Bike_Lighting_System\Radar_Core/Libraries/CMSIS/Include\core_cmSimd.h ****   return(result);
 327:C:\Users\Depes Crystalline\Desktop\school\Active_Bike_Lighting_System\Radar_Core/Libraries/CMSIS/Include\core_cmSimd.h **** }
 328:C:\Users\Depes Crystalline\Desktop\school\Active_Bike_Lighting_System\Radar_Core/Libraries/CMSIS/Include\core_cmSimd.h **** 
 329:C:\Users\Depes Crystalline\Desktop\school\Active_Bike_Lighting_System\Radar_Core/Libraries/CMSIS/Include\core_cmSimd.h **** __attribute__( ( always_inline ) ) __STATIC_INLINE uint32_t __SASX(uint32_t op1, uint32_t op2)
 330:C:\Users\Depes Crystalline\Desktop\school\Active_Bike_Lighting_System\Radar_Core/Libraries/CMSIS/Include\core_cmSimd.h **** {
 331:C:\Users\Depes Crystalline\Desktop\school\Active_Bike_Lighting_System\Radar_Core/Libraries/CMSIS/Include\core_cmSimd.h ****   uint32_t result;
 332:C:\Users\Depes Crystalline\Desktop\school\Active_Bike_Lighting_System\Radar_Core/Libraries/CMSIS/Include\core_cmSimd.h **** 
 333:C:\Users\Depes Crystalline\Desktop\school\Active_Bike_Lighting_System\Radar_Core/Libraries/CMSIS/Include\core_cmSimd.h ****   __ASM volatile ("sasx %0, %1, %2" : "=r" (result) : "r" (op1), "r" (op2) );
 334:C:\Users\Depes Crystalline\Desktop\school\Active_Bike_Lighting_System\Radar_Core/Libraries/CMSIS/Include\core_cmSimd.h ****   return(result);
 335:C:\Users\Depes Crystalline\Desktop\school\Active_Bike_Lighting_System\Radar_Core/Libraries/CMSIS/Include\core_cmSimd.h **** }
 336:C:\Users\Depes Crystalline\Desktop\school\Active_Bike_Lighting_System\Radar_Core/Libraries/CMSIS/Include\core_cmSimd.h **** 
 337:C:\Users\Depes Crystalline\Desktop\school\Active_Bike_Lighting_System\Radar_Core/Libraries/CMSIS/Include\core_cmSimd.h **** __attribute__( ( always_inline ) ) __STATIC_INLINE uint32_t __QASX(uint32_t op1, uint32_t op2)
 338:C:\Users\Depes Crystalline\Desktop\school\Active_Bike_Lighting_System\Radar_Core/Libraries/CMSIS/Include\core_cmSimd.h **** {
 339:C:\Users\Depes Crystalline\Desktop\school\Active_Bike_Lighting_System\Radar_Core/Libraries/CMSIS/Include\core_cmSimd.h ****   uint32_t result;
 340:C:\Users\Depes Crystalline\Desktop\school\Active_Bike_Lighting_System\Radar_Core/Libraries/CMSIS/Include\core_cmSimd.h **** 
 341:C:\Users\Depes Crystalline\Desktop\school\Active_Bike_Lighting_System\Radar_Core/Libraries/CMSIS/Include\core_cmSimd.h ****   __ASM volatile ("qasx %0, %1, %2" : "=r" (result) : "r" (op1), "r" (op2) );
 342:C:\Users\Depes Crystalline\Desktop\school\Active_Bike_Lighting_System\Radar_Core/Libraries/CMSIS/Include\core_cmSimd.h ****   return(result);
 343:C:\Users\Depes Crystalline\Desktop\school\Active_Bike_Lighting_System\Radar_Core/Libraries/CMSIS/Include\core_cmSimd.h **** }
 344:C:\Users\Depes Crystalline\Desktop\school\Active_Bike_Lighting_System\Radar_Core/Libraries/CMSIS/Include\core_cmSimd.h **** 
 345:C:\Users\Depes Crystalline\Desktop\school\Active_Bike_Lighting_System\Radar_Core/Libraries/CMSIS/Include\core_cmSimd.h **** __attribute__( ( always_inline ) ) __STATIC_INLINE uint32_t __SHASX(uint32_t op1, uint32_t op2)
 346:C:\Users\Depes Crystalline\Desktop\school\Active_Bike_Lighting_System\Radar_Core/Libraries/CMSIS/Include\core_cmSimd.h **** {
 347:C:\Users\Depes Crystalline\Desktop\school\Active_Bike_Lighting_System\Radar_Core/Libraries/CMSIS/Include\core_cmSimd.h ****   uint32_t result;
 348:C:\Users\Depes Crystalline\Desktop\school\Active_Bike_Lighting_System\Radar_Core/Libraries/CMSIS/Include\core_cmSimd.h **** 
 349:C:\Users\Depes Crystalline\Desktop\school\Active_Bike_Lighting_System\Radar_Core/Libraries/CMSIS/Include\core_cmSimd.h ****   __ASM volatile ("shasx %0, %1, %2" : "=r" (result) : "r" (op1), "r" (op2) );
 350:C:\Users\Depes Crystalline\Desktop\school\Active_Bike_Lighting_System\Radar_Core/Libraries/CMSIS/Include\core_cmSimd.h ****   return(result);
 351:C:\Users\Depes Crystalline\Desktop\school\Active_Bike_Lighting_System\Radar_Core/Libraries/CMSIS/Include\core_cmSimd.h **** }
 352:C:\Users\Depes Crystalline\Desktop\school\Active_Bike_Lighting_System\Radar_Core/Libraries/CMSIS/Include\core_cmSimd.h **** 
 353:C:\Users\Depes Crystalline\Desktop\school\Active_Bike_Lighting_System\Radar_Core/Libraries/CMSIS/Include\core_cmSimd.h **** __attribute__( ( always_inline ) ) __STATIC_INLINE uint32_t __UASX(uint32_t op1, uint32_t op2)
 354:C:\Users\Depes Crystalline\Desktop\school\Active_Bike_Lighting_System\Radar_Core/Libraries/CMSIS/Include\core_cmSimd.h **** {
 355:C:\Users\Depes Crystalline\Desktop\school\Active_Bike_Lighting_System\Radar_Core/Libraries/CMSIS/Include\core_cmSimd.h ****   uint32_t result;
 356:C:\Users\Depes Crystalline\Desktop\school\Active_Bike_Lighting_System\Radar_Core/Libraries/CMSIS/Include\core_cmSimd.h **** 
 357:C:\Users\Depes Crystalline\Desktop\school\Active_Bike_Lighting_System\Radar_Core/Libraries/CMSIS/Include\core_cmSimd.h ****   __ASM volatile ("uasx %0, %1, %2" : "=r" (result) : "r" (op1), "r" (op2) );
 358:C:\Users\Depes Crystalline\Desktop\school\Active_Bike_Lighting_System\Radar_Core/Libraries/CMSIS/Include\core_cmSimd.h ****   return(result);
 359:C:\Users\Depes Crystalline\Desktop\school\Active_Bike_Lighting_System\Radar_Core/Libraries/CMSIS/Include\core_cmSimd.h **** }
 360:C:\Users\Depes Crystalline\Desktop\school\Active_Bike_Lighting_System\Radar_Core/Libraries/CMSIS/Include\core_cmSimd.h **** 
 361:C:\Users\Depes Crystalline\Desktop\school\Active_Bike_Lighting_System\Radar_Core/Libraries/CMSIS/Include\core_cmSimd.h **** __attribute__( ( always_inline ) ) __STATIC_INLINE uint32_t __UQASX(uint32_t op1, uint32_t op2)
 362:C:\Users\Depes Crystalline\Desktop\school\Active_Bike_Lighting_System\Radar_Core/Libraries/CMSIS/Include\core_cmSimd.h **** {
 363:C:\Users\Depes Crystalline\Desktop\school\Active_Bike_Lighting_System\Radar_Core/Libraries/CMSIS/Include\core_cmSimd.h ****   uint32_t result;
 364:C:\Users\Depes Crystalline\Desktop\school\Active_Bike_Lighting_System\Radar_Core/Libraries/CMSIS/Include\core_cmSimd.h **** 
 365:C:\Users\Depes Crystalline\Desktop\school\Active_Bike_Lighting_System\Radar_Core/Libraries/CMSIS/Include\core_cmSimd.h ****   __ASM volatile ("uqasx %0, %1, %2" : "=r" (result) : "r" (op1), "r" (op2) );
 366:C:\Users\Depes Crystalline\Desktop\school\Active_Bike_Lighting_System\Radar_Core/Libraries/CMSIS/Include\core_cmSimd.h ****   return(result);
 367:C:\Users\Depes Crystalline\Desktop\school\Active_Bike_Lighting_System\Radar_Core/Libraries/CMSIS/Include\core_cmSimd.h **** }
 368:C:\Users\Depes Crystalline\Desktop\school\Active_Bike_Lighting_System\Radar_Core/Libraries/CMSIS/Include\core_cmSimd.h **** 
 369:C:\Users\Depes Crystalline\Desktop\school\Active_Bike_Lighting_System\Radar_Core/Libraries/CMSIS/Include\core_cmSimd.h **** __attribute__( ( always_inline ) ) __STATIC_INLINE uint32_t __UHASX(uint32_t op1, uint32_t op2)
 370:C:\Users\Depes Crystalline\Desktop\school\Active_Bike_Lighting_System\Radar_Core/Libraries/CMSIS/Include\core_cmSimd.h **** {
 371:C:\Users\Depes Crystalline\Desktop\school\Active_Bike_Lighting_System\Radar_Core/Libraries/CMSIS/Include\core_cmSimd.h ****   uint32_t result;
 372:C:\Users\Depes Crystalline\Desktop\school\Active_Bike_Lighting_System\Radar_Core/Libraries/CMSIS/Include\core_cmSimd.h **** 
 373:C:\Users\Depes Crystalline\Desktop\school\Active_Bike_Lighting_System\Radar_Core/Libraries/CMSIS/Include\core_cmSimd.h ****   __ASM volatile ("uhasx %0, %1, %2" : "=r" (result) : "r" (op1), "r" (op2) );
 374:C:\Users\Depes Crystalline\Desktop\school\Active_Bike_Lighting_System\Radar_Core/Libraries/CMSIS/Include\core_cmSimd.h ****   return(result);
 375:C:\Users\Depes Crystalline\Desktop\school\Active_Bike_Lighting_System\Radar_Core/Libraries/CMSIS/Include\core_cmSimd.h **** }
 376:C:\Users\Depes Crystalline\Desktop\school\Active_Bike_Lighting_System\Radar_Core/Libraries/CMSIS/Include\core_cmSimd.h **** 
 377:C:\Users\Depes Crystalline\Desktop\school\Active_Bike_Lighting_System\Radar_Core/Libraries/CMSIS/Include\core_cmSimd.h **** __attribute__( ( always_inline ) ) __STATIC_INLINE uint32_t __SSAX(uint32_t op1, uint32_t op2)
 378:C:\Users\Depes Crystalline\Desktop\school\Active_Bike_Lighting_System\Radar_Core/Libraries/CMSIS/Include\core_cmSimd.h **** {
 379:C:\Users\Depes Crystalline\Desktop\school\Active_Bike_Lighting_System\Radar_Core/Libraries/CMSIS/Include\core_cmSimd.h ****   uint32_t result;
 380:C:\Users\Depes Crystalline\Desktop\school\Active_Bike_Lighting_System\Radar_Core/Libraries/CMSIS/Include\core_cmSimd.h **** 
 381:C:\Users\Depes Crystalline\Desktop\school\Active_Bike_Lighting_System\Radar_Core/Libraries/CMSIS/Include\core_cmSimd.h ****   __ASM volatile ("ssax %0, %1, %2" : "=r" (result) : "r" (op1), "r" (op2) );
 382:C:\Users\Depes Crystalline\Desktop\school\Active_Bike_Lighting_System\Radar_Core/Libraries/CMSIS/Include\core_cmSimd.h ****   return(result);
 383:C:\Users\Depes Crystalline\Desktop\school\Active_Bike_Lighting_System\Radar_Core/Libraries/CMSIS/Include\core_cmSimd.h **** }
 384:C:\Users\Depes Crystalline\Desktop\school\Active_Bike_Lighting_System\Radar_Core/Libraries/CMSIS/Include\core_cmSimd.h **** 
 385:C:\Users\Depes Crystalline\Desktop\school\Active_Bike_Lighting_System\Radar_Core/Libraries/CMSIS/Include\core_cmSimd.h **** __attribute__( ( always_inline ) ) __STATIC_INLINE uint32_t __QSAX(uint32_t op1, uint32_t op2)
 386:C:\Users\Depes Crystalline\Desktop\school\Active_Bike_Lighting_System\Radar_Core/Libraries/CMSIS/Include\core_cmSimd.h **** {
 387:C:\Users\Depes Crystalline\Desktop\school\Active_Bike_Lighting_System\Radar_Core/Libraries/CMSIS/Include\core_cmSimd.h ****   uint32_t result;
 388:C:\Users\Depes Crystalline\Desktop\school\Active_Bike_Lighting_System\Radar_Core/Libraries/CMSIS/Include\core_cmSimd.h **** 
 389:C:\Users\Depes Crystalline\Desktop\school\Active_Bike_Lighting_System\Radar_Core/Libraries/CMSIS/Include\core_cmSimd.h ****   __ASM volatile ("qsax %0, %1, %2" : "=r" (result) : "r" (op1), "r" (op2) );
 390:C:\Users\Depes Crystalline\Desktop\school\Active_Bike_Lighting_System\Radar_Core/Libraries/CMSIS/Include\core_cmSimd.h ****   return(result);
 391:C:\Users\Depes Crystalline\Desktop\school\Active_Bike_Lighting_System\Radar_Core/Libraries/CMSIS/Include\core_cmSimd.h **** }
 392:C:\Users\Depes Crystalline\Desktop\school\Active_Bike_Lighting_System\Radar_Core/Libraries/CMSIS/Include\core_cmSimd.h **** 
 393:C:\Users\Depes Crystalline\Desktop\school\Active_Bike_Lighting_System\Radar_Core/Libraries/CMSIS/Include\core_cmSimd.h **** __attribute__( ( always_inline ) ) __STATIC_INLINE uint32_t __SHSAX(uint32_t op1, uint32_t op2)
 394:C:\Users\Depes Crystalline\Desktop\school\Active_Bike_Lighting_System\Radar_Core/Libraries/CMSIS/Include\core_cmSimd.h **** {
 395:C:\Users\Depes Crystalline\Desktop\school\Active_Bike_Lighting_System\Radar_Core/Libraries/CMSIS/Include\core_cmSimd.h ****   uint32_t result;
 396:C:\Users\Depes Crystalline\Desktop\school\Active_Bike_Lighting_System\Radar_Core/Libraries/CMSIS/Include\core_cmSimd.h **** 
 397:C:\Users\Depes Crystalline\Desktop\school\Active_Bike_Lighting_System\Radar_Core/Libraries/CMSIS/Include\core_cmSimd.h ****   __ASM volatile ("shsax %0, %1, %2" : "=r" (result) : "r" (op1), "r" (op2) );
 398:C:\Users\Depes Crystalline\Desktop\school\Active_Bike_Lighting_System\Radar_Core/Libraries/CMSIS/Include\core_cmSimd.h ****   return(result);
 399:C:\Users\Depes Crystalline\Desktop\school\Active_Bike_Lighting_System\Radar_Core/Libraries/CMSIS/Include\core_cmSimd.h **** }
 400:C:\Users\Depes Crystalline\Desktop\school\Active_Bike_Lighting_System\Radar_Core/Libraries/CMSIS/Include\core_cmSimd.h **** 
 401:C:\Users\Depes Crystalline\Desktop\school\Active_Bike_Lighting_System\Radar_Core/Libraries/CMSIS/Include\core_cmSimd.h **** __attribute__( ( always_inline ) ) __STATIC_INLINE uint32_t __USAX(uint32_t op1, uint32_t op2)
 402:C:\Users\Depes Crystalline\Desktop\school\Active_Bike_Lighting_System\Radar_Core/Libraries/CMSIS/Include\core_cmSimd.h **** {
 403:C:\Users\Depes Crystalline\Desktop\school\Active_Bike_Lighting_System\Radar_Core/Libraries/CMSIS/Include\core_cmSimd.h ****   uint32_t result;
 404:C:\Users\Depes Crystalline\Desktop\school\Active_Bike_Lighting_System\Radar_Core/Libraries/CMSIS/Include\core_cmSimd.h **** 
 405:C:\Users\Depes Crystalline\Desktop\school\Active_Bike_Lighting_System\Radar_Core/Libraries/CMSIS/Include\core_cmSimd.h ****   __ASM volatile ("usax %0, %1, %2" : "=r" (result) : "r" (op1), "r" (op2) );
 406:C:\Users\Depes Crystalline\Desktop\school\Active_Bike_Lighting_System\Radar_Core/Libraries/CMSIS/Include\core_cmSimd.h ****   return(result);
 407:C:\Users\Depes Crystalline\Desktop\school\Active_Bike_Lighting_System\Radar_Core/Libraries/CMSIS/Include\core_cmSimd.h **** }
 408:C:\Users\Depes Crystalline\Desktop\school\Active_Bike_Lighting_System\Radar_Core/Libraries/CMSIS/Include\core_cmSimd.h **** 
 409:C:\Users\Depes Crystalline\Desktop\school\Active_Bike_Lighting_System\Radar_Core/Libraries/CMSIS/Include\core_cmSimd.h **** __attribute__( ( always_inline ) ) __STATIC_INLINE uint32_t __UQSAX(uint32_t op1, uint32_t op2)
 410:C:\Users\Depes Crystalline\Desktop\school\Active_Bike_Lighting_System\Radar_Core/Libraries/CMSIS/Include\core_cmSimd.h **** {
 411:C:\Users\Depes Crystalline\Desktop\school\Active_Bike_Lighting_System\Radar_Core/Libraries/CMSIS/Include\core_cmSimd.h ****   uint32_t result;
 412:C:\Users\Depes Crystalline\Desktop\school\Active_Bike_Lighting_System\Radar_Core/Libraries/CMSIS/Include\core_cmSimd.h **** 
 413:C:\Users\Depes Crystalline\Desktop\school\Active_Bike_Lighting_System\Radar_Core/Libraries/CMSIS/Include\core_cmSimd.h ****   __ASM volatile ("uqsax %0, %1, %2" : "=r" (result) : "r" (op1), "r" (op2) );
 414:C:\Users\Depes Crystalline\Desktop\school\Active_Bike_Lighting_System\Radar_Core/Libraries/CMSIS/Include\core_cmSimd.h ****   return(result);
 415:C:\Users\Depes Crystalline\Desktop\school\Active_Bike_Lighting_System\Radar_Core/Libraries/CMSIS/Include\core_cmSimd.h **** }
 416:C:\Users\Depes Crystalline\Desktop\school\Active_Bike_Lighting_System\Radar_Core/Libraries/CMSIS/Include\core_cmSimd.h **** 
 417:C:\Users\Depes Crystalline\Desktop\school\Active_Bike_Lighting_System\Radar_Core/Libraries/CMSIS/Include\core_cmSimd.h **** __attribute__( ( always_inline ) ) __STATIC_INLINE uint32_t __UHSAX(uint32_t op1, uint32_t op2)
 418:C:\Users\Depes Crystalline\Desktop\school\Active_Bike_Lighting_System\Radar_Core/Libraries/CMSIS/Include\core_cmSimd.h **** {
 419:C:\Users\Depes Crystalline\Desktop\school\Active_Bike_Lighting_System\Radar_Core/Libraries/CMSIS/Include\core_cmSimd.h ****   uint32_t result;
 420:C:\Users\Depes Crystalline\Desktop\school\Active_Bike_Lighting_System\Radar_Core/Libraries/CMSIS/Include\core_cmSimd.h **** 
 421:C:\Users\Depes Crystalline\Desktop\school\Active_Bike_Lighting_System\Radar_Core/Libraries/CMSIS/Include\core_cmSimd.h ****   __ASM volatile ("uhsax %0, %1, %2" : "=r" (result) : "r" (op1), "r" (op2) );
 422:C:\Users\Depes Crystalline\Desktop\school\Active_Bike_Lighting_System\Radar_Core/Libraries/CMSIS/Include\core_cmSimd.h ****   return(result);
 423:C:\Users\Depes Crystalline\Desktop\school\Active_Bike_Lighting_System\Radar_Core/Libraries/CMSIS/Include\core_cmSimd.h **** }
 424:C:\Users\Depes Crystalline\Desktop\school\Active_Bike_Lighting_System\Radar_Core/Libraries/CMSIS/Include\core_cmSimd.h **** 
 425:C:\Users\Depes Crystalline\Desktop\school\Active_Bike_Lighting_System\Radar_Core/Libraries/CMSIS/Include\core_cmSimd.h **** __attribute__( ( always_inline ) ) __STATIC_INLINE uint32_t __USAD8(uint32_t op1, uint32_t op2)
 426:C:\Users\Depes Crystalline\Desktop\school\Active_Bike_Lighting_System\Radar_Core/Libraries/CMSIS/Include\core_cmSimd.h **** {
 427:C:\Users\Depes Crystalline\Desktop\school\Active_Bike_Lighting_System\Radar_Core/Libraries/CMSIS/Include\core_cmSimd.h ****   uint32_t result;
 428:C:\Users\Depes Crystalline\Desktop\school\Active_Bike_Lighting_System\Radar_Core/Libraries/CMSIS/Include\core_cmSimd.h **** 
 429:C:\Users\Depes Crystalline\Desktop\school\Active_Bike_Lighting_System\Radar_Core/Libraries/CMSIS/Include\core_cmSimd.h ****   __ASM volatile ("usad8 %0, %1, %2" : "=r" (result) : "r" (op1), "r" (op2) );
 430:C:\Users\Depes Crystalline\Desktop\school\Active_Bike_Lighting_System\Radar_Core/Libraries/CMSIS/Include\core_cmSimd.h ****   return(result);
 431:C:\Users\Depes Crystalline\Desktop\school\Active_Bike_Lighting_System\Radar_Core/Libraries/CMSIS/Include\core_cmSimd.h **** }
 432:C:\Users\Depes Crystalline\Desktop\school\Active_Bike_Lighting_System\Radar_Core/Libraries/CMSIS/Include\core_cmSimd.h **** 
 433:C:\Users\Depes Crystalline\Desktop\school\Active_Bike_Lighting_System\Radar_Core/Libraries/CMSIS/Include\core_cmSimd.h **** __attribute__( ( always_inline ) ) __STATIC_INLINE uint32_t __USADA8(uint32_t op1, uint32_t op2, ui
 434:C:\Users\Depes Crystalline\Desktop\school\Active_Bike_Lighting_System\Radar_Core/Libraries/CMSIS/Include\core_cmSimd.h **** {
 435:C:\Users\Depes Crystalline\Desktop\school\Active_Bike_Lighting_System\Radar_Core/Libraries/CMSIS/Include\core_cmSimd.h ****   uint32_t result;
 436:C:\Users\Depes Crystalline\Desktop\school\Active_Bike_Lighting_System\Radar_Core/Libraries/CMSIS/Include\core_cmSimd.h **** 
 437:C:\Users\Depes Crystalline\Desktop\school\Active_Bike_Lighting_System\Radar_Core/Libraries/CMSIS/Include\core_cmSimd.h ****   __ASM volatile ("usada8 %0, %1, %2, %3" : "=r" (result) : "r" (op1), "r" (op2), "r" (op3) );
 438:C:\Users\Depes Crystalline\Desktop\school\Active_Bike_Lighting_System\Radar_Core/Libraries/CMSIS/Include\core_cmSimd.h ****   return(result);
 439:C:\Users\Depes Crystalline\Desktop\school\Active_Bike_Lighting_System\Radar_Core/Libraries/CMSIS/Include\core_cmSimd.h **** }
 440:C:\Users\Depes Crystalline\Desktop\school\Active_Bike_Lighting_System\Radar_Core/Libraries/CMSIS/Include\core_cmSimd.h **** 
 441:C:\Users\Depes Crystalline\Desktop\school\Active_Bike_Lighting_System\Radar_Core/Libraries/CMSIS/Include\core_cmSimd.h **** #define __SSAT16(ARG1,ARG2) \
 442:C:\Users\Depes Crystalline\Desktop\school\Active_Bike_Lighting_System\Radar_Core/Libraries/CMSIS/Include\core_cmSimd.h **** ({                          \
 443:C:\Users\Depes Crystalline\Desktop\school\Active_Bike_Lighting_System\Radar_Core/Libraries/CMSIS/Include\core_cmSimd.h ****   uint32_t __RES, __ARG1 = (ARG1); \
 444:C:\Users\Depes Crystalline\Desktop\school\Active_Bike_Lighting_System\Radar_Core/Libraries/CMSIS/Include\core_cmSimd.h ****   __ASM ("ssat16 %0, %1, %2" : "=r" (__RES) :  "I" (ARG2), "r" (__ARG1) ); \
 445:C:\Users\Depes Crystalline\Desktop\school\Active_Bike_Lighting_System\Radar_Core/Libraries/CMSIS/Include\core_cmSimd.h ****   __RES; \
 446:C:\Users\Depes Crystalline\Desktop\school\Active_Bike_Lighting_System\Radar_Core/Libraries/CMSIS/Include\core_cmSimd.h ****  })
 447:C:\Users\Depes Crystalline\Desktop\school\Active_Bike_Lighting_System\Radar_Core/Libraries/CMSIS/Include\core_cmSimd.h **** 
 448:C:\Users\Depes Crystalline\Desktop\school\Active_Bike_Lighting_System\Radar_Core/Libraries/CMSIS/Include\core_cmSimd.h **** #define __USAT16(ARG1,ARG2) \
 449:C:\Users\Depes Crystalline\Desktop\school\Active_Bike_Lighting_System\Radar_Core/Libraries/CMSIS/Include\core_cmSimd.h **** ({                          \
 450:C:\Users\Depes Crystalline\Desktop\school\Active_Bike_Lighting_System\Radar_Core/Libraries/CMSIS/Include\core_cmSimd.h ****   uint32_t __RES, __ARG1 = (ARG1); \
 451:C:\Users\Depes Crystalline\Desktop\school\Active_Bike_Lighting_System\Radar_Core/Libraries/CMSIS/Include\core_cmSimd.h ****   __ASM ("usat16 %0, %1, %2" : "=r" (__RES) :  "I" (ARG2), "r" (__ARG1) ); \
 452:C:\Users\Depes Crystalline\Desktop\school\Active_Bike_Lighting_System\Radar_Core/Libraries/CMSIS/Include\core_cmSimd.h ****   __RES; \
 453:C:\Users\Depes Crystalline\Desktop\school\Active_Bike_Lighting_System\Radar_Core/Libraries/CMSIS/Include\core_cmSimd.h ****  })
 454:C:\Users\Depes Crystalline\Desktop\school\Active_Bike_Lighting_System\Radar_Core/Libraries/CMSIS/Include\core_cmSimd.h **** 
 455:C:\Users\Depes Crystalline\Desktop\school\Active_Bike_Lighting_System\Radar_Core/Libraries/CMSIS/Include\core_cmSimd.h **** __attribute__( ( always_inline ) ) __STATIC_INLINE uint32_t __UXTB16(uint32_t op1)
 456:C:\Users\Depes Crystalline\Desktop\school\Active_Bike_Lighting_System\Radar_Core/Libraries/CMSIS/Include\core_cmSimd.h **** {
 457:C:\Users\Depes Crystalline\Desktop\school\Active_Bike_Lighting_System\Radar_Core/Libraries/CMSIS/Include\core_cmSimd.h ****   uint32_t result;
 458:C:\Users\Depes Crystalline\Desktop\school\Active_Bike_Lighting_System\Radar_Core/Libraries/CMSIS/Include\core_cmSimd.h **** 
 459:C:\Users\Depes Crystalline\Desktop\school\Active_Bike_Lighting_System\Radar_Core/Libraries/CMSIS/Include\core_cmSimd.h ****   __ASM volatile ("uxtb16 %0, %1" : "=r" (result) : "r" (op1));
 460:C:\Users\Depes Crystalline\Desktop\school\Active_Bike_Lighting_System\Radar_Core/Libraries/CMSIS/Include\core_cmSimd.h ****   return(result);
 461:C:\Users\Depes Crystalline\Desktop\school\Active_Bike_Lighting_System\Radar_Core/Libraries/CMSIS/Include\core_cmSimd.h **** }
 462:C:\Users\Depes Crystalline\Desktop\school\Active_Bike_Lighting_System\Radar_Core/Libraries/CMSIS/Include\core_cmSimd.h **** 
 463:C:\Users\Depes Crystalline\Desktop\school\Active_Bike_Lighting_System\Radar_Core/Libraries/CMSIS/Include\core_cmSimd.h **** __attribute__( ( always_inline ) ) __STATIC_INLINE uint32_t __UXTAB16(uint32_t op1, uint32_t op2)
 464:C:\Users\Depes Crystalline\Desktop\school\Active_Bike_Lighting_System\Radar_Core/Libraries/CMSIS/Include\core_cmSimd.h **** {
 465:C:\Users\Depes Crystalline\Desktop\school\Active_Bike_Lighting_System\Radar_Core/Libraries/CMSIS/Include\core_cmSimd.h ****   uint32_t result;
 466:C:\Users\Depes Crystalline\Desktop\school\Active_Bike_Lighting_System\Radar_Core/Libraries/CMSIS/Include\core_cmSimd.h **** 
 467:C:\Users\Depes Crystalline\Desktop\school\Active_Bike_Lighting_System\Radar_Core/Libraries/CMSIS/Include\core_cmSimd.h ****   __ASM volatile ("uxtab16 %0, %1, %2" : "=r" (result) : "r" (op1), "r" (op2) );
 468:C:\Users\Depes Crystalline\Desktop\school\Active_Bike_Lighting_System\Radar_Core/Libraries/CMSIS/Include\core_cmSimd.h ****   return(result);
 469:C:\Users\Depes Crystalline\Desktop\school\Active_Bike_Lighting_System\Radar_Core/Libraries/CMSIS/Include\core_cmSimd.h **** }
 470:C:\Users\Depes Crystalline\Desktop\school\Active_Bike_Lighting_System\Radar_Core/Libraries/CMSIS/Include\core_cmSimd.h **** 
 471:C:\Users\Depes Crystalline\Desktop\school\Active_Bike_Lighting_System\Radar_Core/Libraries/CMSIS/Include\core_cmSimd.h **** __attribute__( ( always_inline ) ) __STATIC_INLINE uint32_t __SXTB16(uint32_t op1)
 472:C:\Users\Depes Crystalline\Desktop\school\Active_Bike_Lighting_System\Radar_Core/Libraries/CMSIS/Include\core_cmSimd.h **** {
 473:C:\Users\Depes Crystalline\Desktop\school\Active_Bike_Lighting_System\Radar_Core/Libraries/CMSIS/Include\core_cmSimd.h ****   uint32_t result;
 474:C:\Users\Depes Crystalline\Desktop\school\Active_Bike_Lighting_System\Radar_Core/Libraries/CMSIS/Include\core_cmSimd.h **** 
 475:C:\Users\Depes Crystalline\Desktop\school\Active_Bike_Lighting_System\Radar_Core/Libraries/CMSIS/Include\core_cmSimd.h ****   __ASM volatile ("sxtb16 %0, %1" : "=r" (result) : "r" (op1));
 476:C:\Users\Depes Crystalline\Desktop\school\Active_Bike_Lighting_System\Radar_Core/Libraries/CMSIS/Include\core_cmSimd.h ****   return(result);
 477:C:\Users\Depes Crystalline\Desktop\school\Active_Bike_Lighting_System\Radar_Core/Libraries/CMSIS/Include\core_cmSimd.h **** }
 478:C:\Users\Depes Crystalline\Desktop\school\Active_Bike_Lighting_System\Radar_Core/Libraries/CMSIS/Include\core_cmSimd.h **** 
 479:C:\Users\Depes Crystalline\Desktop\school\Active_Bike_Lighting_System\Radar_Core/Libraries/CMSIS/Include\core_cmSimd.h **** __attribute__( ( always_inline ) ) __STATIC_INLINE uint32_t __SXTAB16(uint32_t op1, uint32_t op2)
 480:C:\Users\Depes Crystalline\Desktop\school\Active_Bike_Lighting_System\Radar_Core/Libraries/CMSIS/Include\core_cmSimd.h **** {
 481:C:\Users\Depes Crystalline\Desktop\school\Active_Bike_Lighting_System\Radar_Core/Libraries/CMSIS/Include\core_cmSimd.h ****   uint32_t result;
 482:C:\Users\Depes Crystalline\Desktop\school\Active_Bike_Lighting_System\Radar_Core/Libraries/CMSIS/Include\core_cmSimd.h **** 
 483:C:\Users\Depes Crystalline\Desktop\school\Active_Bike_Lighting_System\Radar_Core/Libraries/CMSIS/Include\core_cmSimd.h ****   __ASM volatile ("sxtab16 %0, %1, %2" : "=r" (result) : "r" (op1), "r" (op2) );
 484:C:\Users\Depes Crystalline\Desktop\school\Active_Bike_Lighting_System\Radar_Core/Libraries/CMSIS/Include\core_cmSimd.h ****   return(result);
 485:C:\Users\Depes Crystalline\Desktop\school\Active_Bike_Lighting_System\Radar_Core/Libraries/CMSIS/Include\core_cmSimd.h **** }
 486:C:\Users\Depes Crystalline\Desktop\school\Active_Bike_Lighting_System\Radar_Core/Libraries/CMSIS/Include\core_cmSimd.h **** 
 487:C:\Users\Depes Crystalline\Desktop\school\Active_Bike_Lighting_System\Radar_Core/Libraries/CMSIS/Include\core_cmSimd.h **** __attribute__( ( always_inline ) ) __STATIC_INLINE uint32_t __SMUAD  (uint32_t op1, uint32_t op2)
 488:C:\Users\Depes Crystalline\Desktop\school\Active_Bike_Lighting_System\Radar_Core/Libraries/CMSIS/Include\core_cmSimd.h **** {
 489:C:\Users\Depes Crystalline\Desktop\school\Active_Bike_Lighting_System\Radar_Core/Libraries/CMSIS/Include\core_cmSimd.h ****   uint32_t result;
 490:C:\Users\Depes Crystalline\Desktop\school\Active_Bike_Lighting_System\Radar_Core/Libraries/CMSIS/Include\core_cmSimd.h **** 
 491:C:\Users\Depes Crystalline\Desktop\school\Active_Bike_Lighting_System\Radar_Core/Libraries/CMSIS/Include\core_cmSimd.h ****   __ASM volatile ("smuad %0, %1, %2" : "=r" (result) : "r" (op1), "r" (op2) );
 492:C:\Users\Depes Crystalline\Desktop\school\Active_Bike_Lighting_System\Radar_Core/Libraries/CMSIS/Include\core_cmSimd.h ****   return(result);
 493:C:\Users\Depes Crystalline\Desktop\school\Active_Bike_Lighting_System\Radar_Core/Libraries/CMSIS/Include\core_cmSimd.h **** }
 494:C:\Users\Depes Crystalline\Desktop\school\Active_Bike_Lighting_System\Radar_Core/Libraries/CMSIS/Include\core_cmSimd.h **** 
 495:C:\Users\Depes Crystalline\Desktop\school\Active_Bike_Lighting_System\Radar_Core/Libraries/CMSIS/Include\core_cmSimd.h **** __attribute__( ( always_inline ) ) __STATIC_INLINE uint32_t __SMUADX (uint32_t op1, uint32_t op2)
 496:C:\Users\Depes Crystalline\Desktop\school\Active_Bike_Lighting_System\Radar_Core/Libraries/CMSIS/Include\core_cmSimd.h **** {
 497:C:\Users\Depes Crystalline\Desktop\school\Active_Bike_Lighting_System\Radar_Core/Libraries/CMSIS/Include\core_cmSimd.h ****   uint32_t result;
 498:C:\Users\Depes Crystalline\Desktop\school\Active_Bike_Lighting_System\Radar_Core/Libraries/CMSIS/Include\core_cmSimd.h **** 
 499:C:\Users\Depes Crystalline\Desktop\school\Active_Bike_Lighting_System\Radar_Core/Libraries/CMSIS/Include\core_cmSimd.h ****   __ASM volatile ("smuadx %0, %1, %2" : "=r" (result) : "r" (op1), "r" (op2) );
 500:C:\Users\Depes Crystalline\Desktop\school\Active_Bike_Lighting_System\Radar_Core/Libraries/CMSIS/Include\core_cmSimd.h ****   return(result);
 501:C:\Users\Depes Crystalline\Desktop\school\Active_Bike_Lighting_System\Radar_Core/Libraries/CMSIS/Include\core_cmSimd.h **** }
 502:C:\Users\Depes Crystalline\Desktop\school\Active_Bike_Lighting_System\Radar_Core/Libraries/CMSIS/Include\core_cmSimd.h **** 
 503:C:\Users\Depes Crystalline\Desktop\school\Active_Bike_Lighting_System\Radar_Core/Libraries/CMSIS/Include\core_cmSimd.h **** __attribute__( ( always_inline ) ) __STATIC_INLINE uint32_t __SMLAD (uint32_t op1, uint32_t op2, ui
 504:C:\Users\Depes Crystalline\Desktop\school\Active_Bike_Lighting_System\Radar_Core/Libraries/CMSIS/Include\core_cmSimd.h **** {
 505:C:\Users\Depes Crystalline\Desktop\school\Active_Bike_Lighting_System\Radar_Core/Libraries/CMSIS/Include\core_cmSimd.h ****   uint32_t result;
 506:C:\Users\Depes Crystalline\Desktop\school\Active_Bike_Lighting_System\Radar_Core/Libraries/CMSIS/Include\core_cmSimd.h **** 
 507:C:\Users\Depes Crystalline\Desktop\school\Active_Bike_Lighting_System\Radar_Core/Libraries/CMSIS/Include\core_cmSimd.h ****   __ASM volatile ("smlad %0, %1, %2, %3" : "=r" (result) : "r" (op1), "r" (op2), "r" (op3) );
 508:C:\Users\Depes Crystalline\Desktop\school\Active_Bike_Lighting_System\Radar_Core/Libraries/CMSIS/Include\core_cmSimd.h ****   return(result);
 509:C:\Users\Depes Crystalline\Desktop\school\Active_Bike_Lighting_System\Radar_Core/Libraries/CMSIS/Include\core_cmSimd.h **** }
 510:C:\Users\Depes Crystalline\Desktop\school\Active_Bike_Lighting_System\Radar_Core/Libraries/CMSIS/Include\core_cmSimd.h **** 
 511:C:\Users\Depes Crystalline\Desktop\school\Active_Bike_Lighting_System\Radar_Core/Libraries/CMSIS/Include\core_cmSimd.h **** __attribute__( ( always_inline ) ) __STATIC_INLINE uint32_t __SMLADX (uint32_t op1, uint32_t op2, u
 512:C:\Users\Depes Crystalline\Desktop\school\Active_Bike_Lighting_System\Radar_Core/Libraries/CMSIS/Include\core_cmSimd.h **** {
 513:C:\Users\Depes Crystalline\Desktop\school\Active_Bike_Lighting_System\Radar_Core/Libraries/CMSIS/Include\core_cmSimd.h ****   uint32_t result;
 514:C:\Users\Depes Crystalline\Desktop\school\Active_Bike_Lighting_System\Radar_Core/Libraries/CMSIS/Include\core_cmSimd.h **** 
 515:C:\Users\Depes Crystalline\Desktop\school\Active_Bike_Lighting_System\Radar_Core/Libraries/CMSIS/Include\core_cmSimd.h ****   __ASM volatile ("smladx %0, %1, %2, %3" : "=r" (result) : "r" (op1), "r" (op2), "r" (op3) );
 516:C:\Users\Depes Crystalline\Desktop\school\Active_Bike_Lighting_System\Radar_Core/Libraries/CMSIS/Include\core_cmSimd.h ****   return(result);
 517:C:\Users\Depes Crystalline\Desktop\school\Active_Bike_Lighting_System\Radar_Core/Libraries/CMSIS/Include\core_cmSimd.h **** }
 518:C:\Users\Depes Crystalline\Desktop\school\Active_Bike_Lighting_System\Radar_Core/Libraries/CMSIS/Include\core_cmSimd.h **** 
 519:C:\Users\Depes Crystalline\Desktop\school\Active_Bike_Lighting_System\Radar_Core/Libraries/CMSIS/Include\core_cmSimd.h **** __attribute__( ( always_inline ) ) __STATIC_INLINE uint64_t __SMLALD (uint32_t op1, uint32_t op2, u
 520:C:\Users\Depes Crystalline\Desktop\school\Active_Bike_Lighting_System\Radar_Core/Libraries/CMSIS/Include\core_cmSimd.h **** {
 521:C:\Users\Depes Crystalline\Desktop\school\Active_Bike_Lighting_System\Radar_Core/Libraries/CMSIS/Include\core_cmSimd.h ****   union llreg_u{
 522:C:\Users\Depes Crystalline\Desktop\school\Active_Bike_Lighting_System\Radar_Core/Libraries/CMSIS/Include\core_cmSimd.h ****     uint32_t w32[2];
 523:C:\Users\Depes Crystalline\Desktop\school\Active_Bike_Lighting_System\Radar_Core/Libraries/CMSIS/Include\core_cmSimd.h ****     uint64_t w64;
 524:C:\Users\Depes Crystalline\Desktop\school\Active_Bike_Lighting_System\Radar_Core/Libraries/CMSIS/Include\core_cmSimd.h ****   } llr;
 525:C:\Users\Depes Crystalline\Desktop\school\Active_Bike_Lighting_System\Radar_Core/Libraries/CMSIS/Include\core_cmSimd.h ****   llr.w64 = acc;
 268              	 .loc 2 525 0
 269 0204 07F15001 	 add r1,r7,#80
 270 0208 07F55473 	 add r3,r7,#848
 271 020c D3E90023 	 ldrd r2,[r3]
 272 0210 C1E90023 	 strd r2,[r1]
 526:C:\Users\Depes Crystalline\Desktop\school\Active_Bike_Lighting_System\Radar_Core/Libraries/CMSIS/Include\core_cmSimd.h **** 
 527:C:\Users\Depes Crystalline\Desktop\school\Active_Bike_Lighting_System\Radar_Core/Libraries/CMSIS/Include\core_cmSimd.h **** #ifndef __ARMEB__   // Little endian
 528:C:\Users\Depes Crystalline\Desktop\school\Active_Bike_Lighting_System\Radar_Core/Libraries/CMSIS/Include\core_cmSimd.h ****   __ASM volatile ("smlald %0, %1, %2, %3" : "=r" (llr.w32[0]), "=r" (llr.w32[1]): "r" (op1), "r" (o
 273              	 .loc 2 528 0
 274 0214 07F15003 	 add r3,r7,#80
 275 0218 1A68     	 ldr r2,[r3]
 276 021a 07F15003 	 add r3,r7,#80
 277 021e 5968     	 ldr r1,[r3,#4]
 278 0220 D7F85C03 	 ldr r0,[r7,#860]
 279 0224 D7F85833 	 ldr r3,[r7,#856]
 280              	
 281 0228 C0FBC321 	 smlald r2,r1,r0,r3
 282              	
 283              	 .thumb
 284 022c 07F15003 	 add r3,r7,#80
 285 0230 1A60     	 str r2,[r3]
 286 0232 07F15003 	 add r3,r7,#80
 287 0236 5960     	 str r1,[r3,#4]
 529:C:\Users\Depes Crystalline\Desktop\school\Active_Bike_Lighting_System\Radar_Core/Libraries/CMSIS/Include\core_cmSimd.h **** #else               // Big endian
 530:C:\Users\Depes Crystalline\Desktop\school\Active_Bike_Lighting_System\Radar_Core/Libraries/CMSIS/Include\core_cmSimd.h ****   __ASM volatile ("smlald %0, %1, %2, %3" : "=r" (llr.w32[1]), "=r" (llr.w32[0]): "r" (op1), "r" (o
 531:C:\Users\Depes Crystalline\Desktop\school\Active_Bike_Lighting_System\Radar_Core/Libraries/CMSIS/Include\core_cmSimd.h **** #endif
 532:C:\Users\Depes Crystalline\Desktop\school\Active_Bike_Lighting_System\Radar_Core/Libraries/CMSIS/Include\core_cmSimd.h **** 
 533:C:\Users\Depes Crystalline\Desktop\school\Active_Bike_Lighting_System\Radar_Core/Libraries/CMSIS/Include\core_cmSimd.h ****   return(llr.w64);
 288              	 .loc 2 533 0
 289 0238 07F15003 	 add r3,r7,#80
 290 023c D3E90023 	 ldrd r2,[r3]
 291              	.LBE79:
 292              	.LBE78:
 293              	 .loc 1 200 0
 294 0240 07F58561 	 add r1,r7,#1064
 295 0244 C1E90023 	 strd r2,[r1]
 201:../Dave/Generated/CMSIS_DSP/FilteringFunctions/arm_conv_partial_q15.c **** 
 202:../Dave/Generated/CMSIS_DSP/FilteringFunctions/arm_conv_partial_q15.c ****         /* Decrement the loop counter */
 203:../Dave/Generated/CMSIS_DSP/FilteringFunctions/arm_conv_partial_q15.c ****         k--;
 296              	 .loc 1 203 0
 297 0248 D7F8F033 	 ldr r3,[r7,#1008]
 298 024c 013B     	 subs r3,r3,#1
 299 024e C7F8F033 	 str r3,[r7,#1008]
 300              	.L15:
 197:../Dave/Generated/CMSIS_DSP/FilteringFunctions/arm_conv_partial_q15.c ****       {
 301              	 .loc 1 197 0
 302 0252 D7F8F033 	 ldr r3,[r7,#1008]
 303 0256 002B     	 cmp r3,#0
 304 0258 B6D1     	 bne .L17
 204:../Dave/Generated/CMSIS_DSP/FilteringFunctions/arm_conv_partial_q15.c ****       }
 205:../Dave/Generated/CMSIS_DSP/FilteringFunctions/arm_conv_partial_q15.c **** 
 206:../Dave/Generated/CMSIS_DSP/FilteringFunctions/arm_conv_partial_q15.c ****       /* Store the result in the accumulator in the destination buffer. */
 207:../Dave/Generated/CMSIS_DSP/FilteringFunctions/arm_conv_partial_q15.c ****       *pOut++ = (q15_t) (__SSAT((sum >> 15), 16));
 305              	 .loc 1 207 0
 306 025a 07F5AE73 	 add r3,r7,#348
 307 025e 1968     	 ldr r1,[r3]
 308 0260 8A1C     	 adds r2,r1,#2
 309 0262 07F5AE73 	 add r3,r7,#348
 310 0266 1A60     	 str r2,[r3]
 311              	.LBB80:
 312 0268 07F58563 	 add r3,r7,#1064
 313 026c D3E90023 	 ldrd r2,[r3]
 314 0270 4FEAD238 	 lsr r8,r2,#15
 315 0274 48EA4348 	 orr r8,r8,r3,lsl#17
 316 0278 4FEAE339 	 asr r9,r3,#15
 317 027c 4346     	 mov r3,r8
 318 027e C7F8D033 	 str r3,[r7,#976]
 319 0282 D7F8D033 	 ldr r3,[r7,#976]
 320              	
 321 0286 03F30F03 	 ssat r3,#16,r3
 322              	
 323              	 .thumb
 324 028a C7F8CC33 	 str r3,[r7,#972]
 325 028e D7F8CC33 	 ldr r3,[r7,#972]
 326              	.LBE80:
 327 0292 9BB2     	 uxth r3,r3
 328 0294 0B80     	 strh r3,[r1]
 208:../Dave/Generated/CMSIS_DSP/FilteringFunctions/arm_conv_partial_q15.c **** 
 209:../Dave/Generated/CMSIS_DSP/FilteringFunctions/arm_conv_partial_q15.c ****       /* Update the inputA and inputB pointers for next MAC calculation */
 210:../Dave/Generated/CMSIS_DSP/FilteringFunctions/arm_conv_partial_q15.c ****       py = ++pSrc2;
 329              	 .loc 1 210 0
 330 0296 D7F80034 	 ldr r3,[r7,#1024]
 331 029a 0233     	 adds r3,r3,#2
 332 029c C7F80034 	 str r3,[r7,#1024]
 333 02a0 07F5AA72 	 add r2,r7,#340
 334 02a4 D7F80034 	 ldr r3,[r7,#1024]
 335 02a8 1360     	 str r3,[r2]
 211:../Dave/Generated/CMSIS_DSP/FilteringFunctions/arm_conv_partial_q15.c ****       px = pIn1;
 336              	 .loc 1 211 0
 337 02aa 07F5AC72 	 add r2,r7,#344
 338 02ae D7F83434 	 ldr r3,[r7,#1076]
 339 02b2 1360     	 str r3,[r2]
 212:../Dave/Generated/CMSIS_DSP/FilteringFunctions/arm_conv_partial_q15.c **** 
 213:../Dave/Generated/CMSIS_DSP/FilteringFunctions/arm_conv_partial_q15.c ****       /* Increment the MAC count */
 214:../Dave/Generated/CMSIS_DSP/FilteringFunctions/arm_conv_partial_q15.c ****       count++;
 340              	 .loc 1 214 0
 341 02b4 D7F8EC33 	 ldr r3,[r7,#1004]
 342 02b8 0133     	 adds r3,r3,#1
 343 02ba C7F8EC33 	 str r3,[r7,#1004]
 215:../Dave/Generated/CMSIS_DSP/FilteringFunctions/arm_conv_partial_q15.c **** 
 216:../Dave/Generated/CMSIS_DSP/FilteringFunctions/arm_conv_partial_q15.c ****       /* Decrement the loop counter */
 217:../Dave/Generated/CMSIS_DSP/FilteringFunctions/arm_conv_partial_q15.c ****       blockSize1--;
 344              	 .loc 1 217 0
 345 02be D7F8E433 	 ldr r3,[r7,#996]
 346 02c2 013B     	 subs r3,r3,#1
 347 02c4 C7F8E433 	 str r3,[r7,#996]
 348              	.L14:
 188:../Dave/Generated/CMSIS_DSP/FilteringFunctions/arm_conv_partial_q15.c ****     {
 349              	 .loc 1 188 0
 350 02c8 D7F8EC33 	 ldr r3,[r7,#1004]
 351 02cc 032B     	 cmp r3,#3
 352 02ce 04D8     	 bhi .L18
 188:../Dave/Generated/CMSIS_DSP/FilteringFunctions/arm_conv_partial_q15.c ****     {
 353              	 .loc 1 188 0 is_stmt 0 discriminator 1
 354 02d0 D7F8E433 	 ldr r3,[r7,#996]
 355 02d4 002B     	 cmp r3,#0
 356 02d6 3FF76AAF 	 bgt .L19
 357              	.L18:
 218:../Dave/Generated/CMSIS_DSP/FilteringFunctions/arm_conv_partial_q15.c ****     }
 219:../Dave/Generated/CMSIS_DSP/FilteringFunctions/arm_conv_partial_q15.c **** 
 220:../Dave/Generated/CMSIS_DSP/FilteringFunctions/arm_conv_partial_q15.c ****     /* The second part of the stage starts here */
 221:../Dave/Generated/CMSIS_DSP/FilteringFunctions/arm_conv_partial_q15.c ****     /* The internal loop, over count, is unrolled by 4 */
 222:../Dave/Generated/CMSIS_DSP/FilteringFunctions/arm_conv_partial_q15.c ****     /* To, read the last two inputB samples using SIMD:   
 223:../Dave/Generated/CMSIS_DSP/FilteringFunctions/arm_conv_partial_q15.c ****      * y[srcBLen] and y[srcBLen-1] coefficients, py is decremented by 1 */
 224:../Dave/Generated/CMSIS_DSP/FilteringFunctions/arm_conv_partial_q15.c ****     py = py - 1;
 358              	 .loc 1 224 0 is_stmt 1
 359 02da 07F5AA73 	 add r3,r7,#340
 360 02de 1B68     	 ldr r3,[r3]
 361 02e0 9A1E     	 subs r2,r3,#2
 362 02e2 07F5AA73 	 add r3,r7,#340
 363 02e6 1A60     	 str r2,[r3]
 225:../Dave/Generated/CMSIS_DSP/FilteringFunctions/arm_conv_partial_q15.c **** 
 226:../Dave/Generated/CMSIS_DSP/FilteringFunctions/arm_conv_partial_q15.c ****     while(blockSize1 > 0)
 364              	 .loc 1 226 0
 365 02e8 24E1     	 b .L20
 366              	.L28:
 227:../Dave/Generated/CMSIS_DSP/FilteringFunctions/arm_conv_partial_q15.c ****     {
 228:../Dave/Generated/CMSIS_DSP/FilteringFunctions/arm_conv_partial_q15.c ****       /* Accumulator is made zero for every iteration */
 229:../Dave/Generated/CMSIS_DSP/FilteringFunctions/arm_conv_partial_q15.c ****       sum = 0;
 367              	 .loc 1 229 0
 368 02ea 4FF00002 	 mov r2,#0
 369 02ee 4FF00003 	 mov r3,#0
 370 02f2 07F58561 	 add r1,r7,#1064
 371 02f6 C1E90023 	 strd r2,[r1]
 230:../Dave/Generated/CMSIS_DSP/FilteringFunctions/arm_conv_partial_q15.c **** 
 231:../Dave/Generated/CMSIS_DSP/FilteringFunctions/arm_conv_partial_q15.c ****       /* Apply loop unrolling and compute 4 MACs simultaneously. */
 232:../Dave/Generated/CMSIS_DSP/FilteringFunctions/arm_conv_partial_q15.c ****       k = count >> 2u;
 372              	 .loc 1 232 0
 373 02fa D7F8EC33 	 ldr r3,[r7,#1004]
 374 02fe 9B08     	 lsrs r3,r3,#2
 375 0300 C7F8F033 	 str r3,[r7,#1008]
 233:../Dave/Generated/CMSIS_DSP/FilteringFunctions/arm_conv_partial_q15.c **** 
 234:../Dave/Generated/CMSIS_DSP/FilteringFunctions/arm_conv_partial_q15.c ****       /* First part of the processing with loop unrolling.  Compute 4 MACs at a time.   
 235:../Dave/Generated/CMSIS_DSP/FilteringFunctions/arm_conv_partial_q15.c ****        ** a second loop below computes MACs for the remaining 1 to 3 samples. */
 236:../Dave/Generated/CMSIS_DSP/FilteringFunctions/arm_conv_partial_q15.c ****       while(k > 0u)
 376              	 .loc 1 236 0
 377 0304 7EE0     	 b .L21
 378              	.L24:
 237:../Dave/Generated/CMSIS_DSP/FilteringFunctions/arm_conv_partial_q15.c ****       {
 238:../Dave/Generated/CMSIS_DSP/FilteringFunctions/arm_conv_partial_q15.c ****         /* Perform the multiply-accumulates */
 239:../Dave/Generated/CMSIS_DSP/FilteringFunctions/arm_conv_partial_q15.c ****         /* x[0], x[1] are multiplied with y[srcBLen - 1], y[srcBLen - 2] respectively */
 240:../Dave/Generated/CMSIS_DSP/FilteringFunctions/arm_conv_partial_q15.c ****         sum = __SMLALDX(*__SIMD32(px)++, *__SIMD32(py)--, sum);
 379              	 .loc 1 240 0
 380 0306 07F5AC71 	 add r1,r7,#344
 381 030a 0A68     	 ldr r2,[r1]
 382 030c 131D     	 adds r3,r2,#4
 383 030e 0B60     	 str r3,[r1]
 384 0310 1368     	 ldr r3,[r2]
 385 0312 1846     	 mov r0,r3
 386 0314 07F5AA71 	 add r1,r7,#340
 387 0318 0A68     	 ldr r2,[r1]
 388 031a 131F     	 subs r3,r2,#4
 389 031c 0B60     	 str r3,[r1]
 390 031e 1368     	 ldr r3,[r2]
 391 0320 1946     	 mov r1,r3
 392 0322 07F58563 	 add r3,r7,#1064
 393 0326 D3E90023 	 ldrd r2,[r3]
 394 032a C7F84C03 	 str r0,[r7,#844]
 395 032e C7F84813 	 str r1,[r7,#840]
 396 0332 07F55071 	 add r1,r7,#832
 397 0336 C1E90023 	 strd r2,[r1]
 398              	.LBB81:
 399              	.LBB82:
 534:C:\Users\Depes Crystalline\Desktop\school\Active_Bike_Lighting_System\Radar_Core/Libraries/CMSIS/Include\core_cmSimd.h **** }
 535:C:\Users\Depes Crystalline\Desktop\school\Active_Bike_Lighting_System\Radar_Core/Libraries/CMSIS/Include\core_cmSimd.h **** 
 536:C:\Users\Depes Crystalline\Desktop\school\Active_Bike_Lighting_System\Radar_Core/Libraries/CMSIS/Include\core_cmSimd.h **** __attribute__( ( always_inline ) ) __STATIC_INLINE uint64_t __SMLALDX (uint32_t op1, uint32_t op2, 
 537:C:\Users\Depes Crystalline\Desktop\school\Active_Bike_Lighting_System\Radar_Core/Libraries/CMSIS/Include\core_cmSimd.h **** {
 538:C:\Users\Depes Crystalline\Desktop\school\Active_Bike_Lighting_System\Radar_Core/Libraries/CMSIS/Include\core_cmSimd.h ****   union llreg_u{
 539:C:\Users\Depes Crystalline\Desktop\school\Active_Bike_Lighting_System\Radar_Core/Libraries/CMSIS/Include\core_cmSimd.h ****     uint32_t w32[2];
 540:C:\Users\Depes Crystalline\Desktop\school\Active_Bike_Lighting_System\Radar_Core/Libraries/CMSIS/Include\core_cmSimd.h ****     uint64_t w64;
 541:C:\Users\Depes Crystalline\Desktop\school\Active_Bike_Lighting_System\Radar_Core/Libraries/CMSIS/Include\core_cmSimd.h ****   } llr;
 542:C:\Users\Depes Crystalline\Desktop\school\Active_Bike_Lighting_System\Radar_Core/Libraries/CMSIS/Include\core_cmSimd.h ****   llr.w64 = acc;
 400              	 .loc 2 542 0
 401 033a 07F15801 	 add r1,r7,#88
 402 033e 07F55073 	 add r3,r7,#832
 403 0342 D3E90023 	 ldrd r2,[r3]
 404 0346 C1E90023 	 strd r2,[r1]
 543:C:\Users\Depes Crystalline\Desktop\school\Active_Bike_Lighting_System\Radar_Core/Libraries/CMSIS/Include\core_cmSimd.h **** 
 544:C:\Users\Depes Crystalline\Desktop\school\Active_Bike_Lighting_System\Radar_Core/Libraries/CMSIS/Include\core_cmSimd.h **** #ifndef __ARMEB__   // Little endian
 545:C:\Users\Depes Crystalline\Desktop\school\Active_Bike_Lighting_System\Radar_Core/Libraries/CMSIS/Include\core_cmSimd.h ****   __ASM volatile ("smlaldx %0, %1, %2, %3" : "=r" (llr.w32[0]), "=r" (llr.w32[1]): "r" (op1), "r" (
 405              	 .loc 2 545 0
 406 034a 07F15803 	 add r3,r7,#88
 407 034e 1A68     	 ldr r2,[r3]
 408 0350 07F15803 	 add r3,r7,#88
 409 0354 5968     	 ldr r1,[r3,#4]
 410 0356 D7F84C03 	 ldr r0,[r7,#844]
 411 035a D7F84833 	 ldr r3,[r7,#840]
 412              	
 413 035e C0FBD321 	 smlaldx r2,r1,r0,r3
 414              	
 415              	 .thumb
 416 0362 07F15803 	 add r3,r7,#88
 417 0366 1A60     	 str r2,[r3]
 418 0368 07F15803 	 add r3,r7,#88
 419 036c 5960     	 str r1,[r3,#4]
 546:C:\Users\Depes Crystalline\Desktop\school\Active_Bike_Lighting_System\Radar_Core/Libraries/CMSIS/Include\core_cmSimd.h **** #else               // Big endian
 547:C:\Users\Depes Crystalline\Desktop\school\Active_Bike_Lighting_System\Radar_Core/Libraries/CMSIS/Include\core_cmSimd.h ****   __ASM volatile ("smlaldx %0, %1, %2, %3" : "=r" (llr.w32[1]), "=r" (llr.w32[0]): "r" (op1), "r" (
 548:C:\Users\Depes Crystalline\Desktop\school\Active_Bike_Lighting_System\Radar_Core/Libraries/CMSIS/Include\core_cmSimd.h **** #endif
 549:C:\Users\Depes Crystalline\Desktop\school\Active_Bike_Lighting_System\Radar_Core/Libraries/CMSIS/Include\core_cmSimd.h **** 
 550:C:\Users\Depes Crystalline\Desktop\school\Active_Bike_Lighting_System\Radar_Core/Libraries/CMSIS/Include\core_cmSimd.h ****   return(llr.w64);
 420              	 .loc 2 550 0
 421 036e 07F15803 	 add r3,r7,#88
 422 0372 D3E90023 	 ldrd r2,[r3]
 423              	.LBE82:
 424              	.LBE81:
 425              	 .loc 1 240 0
 426 0376 07F58561 	 add r1,r7,#1064
 427 037a C1E90023 	 strd r2,[r1]
 241:../Dave/Generated/CMSIS_DSP/FilteringFunctions/arm_conv_partial_q15.c ****         /* x[2], x[3] are multiplied with y[srcBLen - 3], y[srcBLen - 4] respectively */
 242:../Dave/Generated/CMSIS_DSP/FilteringFunctions/arm_conv_partial_q15.c ****         sum = __SMLALDX(*__SIMD32(px)++, *__SIMD32(py)--, sum);
 428              	 .loc 1 242 0
 429 037e 07F5AC71 	 add r1,r7,#344
 430 0382 0A68     	 ldr r2,[r1]
 431 0384 131D     	 adds r3,r2,#4
 432 0386 0B60     	 str r3,[r1]
 433 0388 1368     	 ldr r3,[r2]
 434 038a 1C46     	 mov r4,r3
 435 038c 07F5AA71 	 add r1,r7,#340
 436 0390 0A68     	 ldr r2,[r1]
 437 0392 131F     	 subs r3,r2,#4
 438 0394 0B60     	 str r3,[r1]
 439 0396 1368     	 ldr r3,[r2]
 440 0398 1A46     	 mov r2,r3
 441 039a 07F58563 	 add r3,r7,#1064
 442 039e D3E90001 	 ldrd r0,[r3]
 443 03a2 C7F83C43 	 str r4,[r7,#828]
 444 03a6 07F54E73 	 add r3,r7,#824
 445 03aa 1A60     	 str r2,[r3]
 446 03ac 07F54C73 	 add r3,r7,#816
 447 03b0 C3E90001 	 strd r0,[r3]
 448              	.LBB83:
 449              	.LBB84:
 542:C:\Users\Depes Crystalline\Desktop\school\Active_Bike_Lighting_System\Radar_Core/Libraries/CMSIS/Include\core_cmSimd.h **** 
 450              	 .loc 2 542 0
 451 03b4 07F16001 	 add r1,r7,#96
 452 03b8 07F54C73 	 add r3,r7,#816
 453 03bc D3E90023 	 ldrd r2,[r3]
 454 03c0 C1E90023 	 strd r2,[r1]
 545:C:\Users\Depes Crystalline\Desktop\school\Active_Bike_Lighting_System\Radar_Core/Libraries/CMSIS/Include\core_cmSimd.h **** #else               // Big endian
 455              	 .loc 2 545 0
 456 03c4 07F16003 	 add r3,r7,#96
 457 03c8 1A68     	 ldr r2,[r3]
 458 03ca 07F16003 	 add r3,r7,#96
 459 03ce 5968     	 ldr r1,[r3,#4]
 460 03d0 D7F83C03 	 ldr r0,[r7,#828]
 461 03d4 07F54E73 	 add r3,r7,#824
 462 03d8 1B68     	 ldr r3,[r3]
 463              	
 464 03da C0FBD321 	 smlaldx r2,r1,r0,r3
 465              	
 466              	 .thumb
 467 03de 07F16003 	 add r3,r7,#96
 468 03e2 1A60     	 str r2,[r3]
 469 03e4 07F16003 	 add r3,r7,#96
 470 03e8 5960     	 str r1,[r3,#4]
 471              	 .loc 2 550 0
 472 03ea 07F16003 	 add r3,r7,#96
 473 03ee D3E90023 	 ldrd r2,[r3]
 474              	.LBE84:
 475              	.LBE83:
 476              	 .loc 1 242 0
 477 03f2 07F58561 	 add r1,r7,#1064
 478 03f6 C1E90023 	 strd r2,[r1]
 243:../Dave/Generated/CMSIS_DSP/FilteringFunctions/arm_conv_partial_q15.c **** 
 244:../Dave/Generated/CMSIS_DSP/FilteringFunctions/arm_conv_partial_q15.c ****         /* Decrement the loop counter */
 245:../Dave/Generated/CMSIS_DSP/FilteringFunctions/arm_conv_partial_q15.c ****         k--;
 479              	 .loc 1 245 0
 480 03fa D7F8F033 	 ldr r3,[r7,#1008]
 481 03fe 013B     	 subs r3,r3,#1
 482 0400 C7F8F033 	 str r3,[r7,#1008]
 483              	.L21:
 236:../Dave/Generated/CMSIS_DSP/FilteringFunctions/arm_conv_partial_q15.c ****       {
 484              	 .loc 1 236 0
 485 0404 D7F8F033 	 ldr r3,[r7,#1008]
 486 0408 002B     	 cmp r3,#0
 487 040a 7FF47CAF 	 bne .L24
 246:../Dave/Generated/CMSIS_DSP/FilteringFunctions/arm_conv_partial_q15.c ****       }
 247:../Dave/Generated/CMSIS_DSP/FilteringFunctions/arm_conv_partial_q15.c **** 
 248:../Dave/Generated/CMSIS_DSP/FilteringFunctions/arm_conv_partial_q15.c ****       /* For the next MAC operations, the pointer py is used without SIMD   
 249:../Dave/Generated/CMSIS_DSP/FilteringFunctions/arm_conv_partial_q15.c ****        * So, py is incremented by 1 */
 250:../Dave/Generated/CMSIS_DSP/FilteringFunctions/arm_conv_partial_q15.c ****       py = py + 1u;
 488              	 .loc 1 250 0
 489 040e 07F5AA73 	 add r3,r7,#340
 490 0412 1B68     	 ldr r3,[r3]
 491 0414 9A1C     	 adds r2,r3,#2
 492 0416 07F5AA73 	 add r3,r7,#340
 493 041a 1A60     	 str r2,[r3]
 251:../Dave/Generated/CMSIS_DSP/FilteringFunctions/arm_conv_partial_q15.c **** 
 252:../Dave/Generated/CMSIS_DSP/FilteringFunctions/arm_conv_partial_q15.c ****       /* If the count is not a multiple of 4, compute any remaining MACs here.   
 253:../Dave/Generated/CMSIS_DSP/FilteringFunctions/arm_conv_partial_q15.c ****        ** No loop unrolling is used. */
 254:../Dave/Generated/CMSIS_DSP/FilteringFunctions/arm_conv_partial_q15.c ****       k = count % 0x4u;
 494              	 .loc 1 254 0
 495 041c D7F8EC33 	 ldr r3,[r7,#1004]
 496 0420 03F00303 	 and r3,r3,#3
 497 0424 C7F8F033 	 str r3,[r7,#1008]
 255:../Dave/Generated/CMSIS_DSP/FilteringFunctions/arm_conv_partial_q15.c **** 
 256:../Dave/Generated/CMSIS_DSP/FilteringFunctions/arm_conv_partial_q15.c ****       while(k > 0u)
 498              	 .loc 1 256 0
 499 0428 48E0     	 b .L25
 500              	.L27:
 257:../Dave/Generated/CMSIS_DSP/FilteringFunctions/arm_conv_partial_q15.c ****       {
 258:../Dave/Generated/CMSIS_DSP/FilteringFunctions/arm_conv_partial_q15.c ****         /* Perform the multiply-accumulates */
 259:../Dave/Generated/CMSIS_DSP/FilteringFunctions/arm_conv_partial_q15.c ****         sum = __SMLALD(*px++, *py--, sum);
 501              	 .loc 1 259 0
 502 042a 07F5AC73 	 add r3,r7,#344
 503 042e 1968     	 ldr r1,[r3]
 504 0430 8A1C     	 adds r2,r1,#2
 505 0432 07F5AC73 	 add r3,r7,#344
 506 0436 1A60     	 str r2,[r3]
 507 0438 0B88     	 ldrh r3,[r1]
 508 043a 1CB2     	 sxth r4,r3
 509 043c 07F5AA73 	 add r3,r7,#340
 510 0440 1968     	 ldr r1,[r3]
 511 0442 8A1E     	 subs r2,r1,#2
 512 0444 07F5AA73 	 add r3,r7,#340
 513 0448 1A60     	 str r2,[r3]
 514 044a 0B88     	 ldrh r3,[r1]
 515 044c 1AB2     	 sxth r2,r3
 516 044e 07F58563 	 add r3,r7,#1064
 517 0452 D3E90001 	 ldrd r0,[r3]
 518 0456 07F54B73 	 add r3,r7,#812
 519 045a 1C60     	 str r4,[r3]
 520 045c 07F54A73 	 add r3,r7,#808
 521 0460 1A60     	 str r2,[r3]
 522 0462 07F54873 	 add r3,r7,#800
 523 0466 C3E90001 	 strd r0,[r3]
 524              	.LBB85:
 525              	.LBB86:
 525:C:\Users\Depes Crystalline\Desktop\school\Active_Bike_Lighting_System\Radar_Core/Libraries/CMSIS/Include\core_cmSimd.h **** 
 526              	 .loc 2 525 0
 527 046a 07F16801 	 add r1,r7,#104
 528 046e 07F54873 	 add r3,r7,#800
 529 0472 D3E90023 	 ldrd r2,[r3]
 530 0476 C1E90023 	 strd r2,[r1]
 528:C:\Users\Depes Crystalline\Desktop\school\Active_Bike_Lighting_System\Radar_Core/Libraries/CMSIS/Include\core_cmSimd.h **** #else               // Big endian
 531              	 .loc 2 528 0
 532 047a 07F16803 	 add r3,r7,#104
 533 047e 1A68     	 ldr r2,[r3]
 534 0480 07F16803 	 add r3,r7,#104
 535 0484 5968     	 ldr r1,[r3,#4]
 536 0486 07F54B73 	 add r3,r7,#812
 537 048a 1868     	 ldr r0,[r3]
 538 048c 07F54A73 	 add r3,r7,#808
 539 0490 1B68     	 ldr r3,[r3]
 540              	
 541 0492 C0FBC321 	 smlald r2,r1,r0,r3
 542              	
 543              	 .thumb
 544 0496 07F16803 	 add r3,r7,#104
 545 049a 1A60     	 str r2,[r3]
 546 049c 07F16803 	 add r3,r7,#104
 547 04a0 5960     	 str r1,[r3,#4]
 533:C:\Users\Depes Crystalline\Desktop\school\Active_Bike_Lighting_System\Radar_Core/Libraries/CMSIS/Include\core_cmSimd.h **** }
 548              	 .loc 2 533 0
 549 04a2 07F16803 	 add r3,r7,#104
 550 04a6 D3E90023 	 ldrd r2,[r3]
 551              	.LBE86:
 552              	.LBE85:
 553              	 .loc 1 259 0
 554 04aa 07F58561 	 add r1,r7,#1064
 555 04ae C1E90023 	 strd r2,[r1]
 260:../Dave/Generated/CMSIS_DSP/FilteringFunctions/arm_conv_partial_q15.c **** 
 261:../Dave/Generated/CMSIS_DSP/FilteringFunctions/arm_conv_partial_q15.c ****         /* Decrement the loop counter */
 262:../Dave/Generated/CMSIS_DSP/FilteringFunctions/arm_conv_partial_q15.c ****         k--;
 556              	 .loc 1 262 0
 557 04b2 D7F8F033 	 ldr r3,[r7,#1008]
 558 04b6 013B     	 subs r3,r3,#1
 559 04b8 C7F8F033 	 str r3,[r7,#1008]
 560              	.L25:
 256:../Dave/Generated/CMSIS_DSP/FilteringFunctions/arm_conv_partial_q15.c ****       {
 561              	 .loc 1 256 0
 562 04bc D7F8F033 	 ldr r3,[r7,#1008]
 563 04c0 002B     	 cmp r3,#0
 564 04c2 B2D1     	 bne .L27
 263:../Dave/Generated/CMSIS_DSP/FilteringFunctions/arm_conv_partial_q15.c ****       }
 264:../Dave/Generated/CMSIS_DSP/FilteringFunctions/arm_conv_partial_q15.c **** 
 265:../Dave/Generated/CMSIS_DSP/FilteringFunctions/arm_conv_partial_q15.c ****       /* Store the result in the accumulator in the destination buffer. */
 266:../Dave/Generated/CMSIS_DSP/FilteringFunctions/arm_conv_partial_q15.c ****       *pOut++ = (q15_t) (__SSAT((sum >> 15), 16));
 565              	 .loc 1 266 0
 566 04c4 07F5AE73 	 add r3,r7,#348
 567 04c8 1968     	 ldr r1,[r3]
 568 04ca 8A1C     	 adds r2,r1,#2
 569 04cc 07F5AE73 	 add r3,r7,#348
 570 04d0 1A60     	 str r2,[r3]
 571              	.LBB87:
 572 04d2 07F58563 	 add r3,r7,#1064
 573 04d6 D3E90023 	 ldrd r2,[r3]
 574 04da 4FEAD23A 	 lsr r10,r2,#15
 575 04de 4AEA434A 	 orr r10,r10,r3,lsl#17
 576 04e2 4FEAE33B 	 asr fp,r3,#15
 577 04e6 5346     	 mov r3,r10
 578 04e8 C7F8C833 	 str r3,[r7,#968]
 579 04ec D7F8C833 	 ldr r3,[r7,#968]
 580              	
 581 04f0 03F30F03 	 ssat r3,#16,r3
 582              	
 583              	 .thumb
 584 04f4 C7F8C433 	 str r3,[r7,#964]
 585 04f8 D7F8C433 	 ldr r3,[r7,#964]
 586              	.LBE87:
 587 04fc 9BB2     	 uxth r3,r3
 588 04fe 0B80     	 strh r3,[r1]
 267:../Dave/Generated/CMSIS_DSP/FilteringFunctions/arm_conv_partial_q15.c **** 
 268:../Dave/Generated/CMSIS_DSP/FilteringFunctions/arm_conv_partial_q15.c ****       /* Update the inputA and inputB pointers for next MAC calculation */
 269:../Dave/Generated/CMSIS_DSP/FilteringFunctions/arm_conv_partial_q15.c ****       py = ++pSrc2 - 1u;
 589              	 .loc 1 269 0
 590 0500 D7F80034 	 ldr r3,[r7,#1024]
 591 0504 0233     	 adds r3,r3,#2
 592 0506 C7F80034 	 str r3,[r7,#1024]
 593 050a D7F80034 	 ldr r3,[r7,#1024]
 594 050e 9A1E     	 subs r2,r3,#2
 595 0510 07F5AA73 	 add r3,r7,#340
 596 0514 1A60     	 str r2,[r3]
 270:../Dave/Generated/CMSIS_DSP/FilteringFunctions/arm_conv_partial_q15.c ****       px = pIn1;
 597              	 .loc 1 270 0
 598 0516 07F5AC72 	 add r2,r7,#344
 599 051a D7F83434 	 ldr r3,[r7,#1076]
 600 051e 1360     	 str r3,[r2]
 271:../Dave/Generated/CMSIS_DSP/FilteringFunctions/arm_conv_partial_q15.c **** 
 272:../Dave/Generated/CMSIS_DSP/FilteringFunctions/arm_conv_partial_q15.c ****       /* Increment the MAC count */
 273:../Dave/Generated/CMSIS_DSP/FilteringFunctions/arm_conv_partial_q15.c ****       count++;
 601              	 .loc 1 273 0
 602 0520 D7F8EC33 	 ldr r3,[r7,#1004]
 603 0524 0133     	 adds r3,r3,#1
 604 0526 C7F8EC33 	 str r3,[r7,#1004]
 274:../Dave/Generated/CMSIS_DSP/FilteringFunctions/arm_conv_partial_q15.c **** 
 275:../Dave/Generated/CMSIS_DSP/FilteringFunctions/arm_conv_partial_q15.c ****       /* Decrement the loop counter */
 276:../Dave/Generated/CMSIS_DSP/FilteringFunctions/arm_conv_partial_q15.c ****       blockSize1--;
 605              	 .loc 1 276 0
 606 052a D7F8E433 	 ldr r3,[r7,#996]
 607 052e 013B     	 subs r3,r3,#1
 608 0530 C7F8E433 	 str r3,[r7,#996]
 609              	.L20:
 226:../Dave/Generated/CMSIS_DSP/FilteringFunctions/arm_conv_partial_q15.c ****     {
 610              	 .loc 1 226 0
 611 0534 D7F8E433 	 ldr r3,[r7,#996]
 612 0538 002B     	 cmp r3,#0
 613 053a 3FF7D6AE 	 bgt .L28
 277:../Dave/Generated/CMSIS_DSP/FilteringFunctions/arm_conv_partial_q15.c ****     }
 278:../Dave/Generated/CMSIS_DSP/FilteringFunctions/arm_conv_partial_q15.c **** 
 279:../Dave/Generated/CMSIS_DSP/FilteringFunctions/arm_conv_partial_q15.c ****     /* --------------------------   
 280:../Dave/Generated/CMSIS_DSP/FilteringFunctions/arm_conv_partial_q15.c ****      * Initializations of stage2   
 281:../Dave/Generated/CMSIS_DSP/FilteringFunctions/arm_conv_partial_q15.c ****      * ------------------------*/
 282:../Dave/Generated/CMSIS_DSP/FilteringFunctions/arm_conv_partial_q15.c **** 
 283:../Dave/Generated/CMSIS_DSP/FilteringFunctions/arm_conv_partial_q15.c ****     /* sum = x[0] * y[srcBLen-1] + x[1] * y[srcBLen-2] +...+ x[srcBLen-1] * y[0]   
 284:../Dave/Generated/CMSIS_DSP/FilteringFunctions/arm_conv_partial_q15.c ****      * sum = x[1] * y[srcBLen-1] + x[2] * y[srcBLen-2] +...+ x[srcBLen] * y[0]   
 285:../Dave/Generated/CMSIS_DSP/FilteringFunctions/arm_conv_partial_q15.c ****      * ....   
 286:../Dave/Generated/CMSIS_DSP/FilteringFunctions/arm_conv_partial_q15.c ****      * sum = x[srcALen-srcBLen-2] * y[srcBLen-1] + x[srcALen] * y[srcBLen-2] +...+ x[srcALen-1] * y
 287:../Dave/Generated/CMSIS_DSP/FilteringFunctions/arm_conv_partial_q15.c ****      */
 288:../Dave/Generated/CMSIS_DSP/FilteringFunctions/arm_conv_partial_q15.c **** 
 289:../Dave/Generated/CMSIS_DSP/FilteringFunctions/arm_conv_partial_q15.c ****     /* Working pointer of inputA */
 290:../Dave/Generated/CMSIS_DSP/FilteringFunctions/arm_conv_partial_q15.c ****     if((int32_t)firstIndex - (int32_t)srcBLen + 1 > 0)
 614              	 .loc 1 290 0
 615 053e D7F85424 	 ldr r2,[r7,#1108]
 616 0542 07F14003 	 add r3,r7,#64
 617 0546 1B68     	 ldr r3,[r3]
 618 0548 D31A     	 subs r3,r2,r3
 619 054a 0133     	 adds r3,r3,#1
 620 054c 002B     	 cmp r3,#0
 621 054e 0EDD     	 ble .L29
 291:../Dave/Generated/CMSIS_DSP/FilteringFunctions/arm_conv_partial_q15.c ****     {
 292:../Dave/Generated/CMSIS_DSP/FilteringFunctions/arm_conv_partial_q15.c ****       px = pIn1 + firstIndex - srcBLen + 1;
 622              	 .loc 1 292 0
 623 0550 07F14003 	 add r3,r7,#64
 624 0554 D7F85424 	 ldr r2,[r7,#1108]
 625 0558 1B68     	 ldr r3,[r3]
 626 055a D31A     	 subs r3,r2,r3
 627 055c 0133     	 adds r3,r3,#1
 628 055e 5A00     	 lsls r2,r3,#1
 629 0560 D7F83434 	 ldr r3,[r7,#1076]
 630 0564 1A44     	 add r2,r2,r3
 631 0566 07F5AC73 	 add r3,r7,#344
 632 056a 1A60     	 str r2,[r3]
 633 056c 04E0     	 b .L30
 634              	.L29:
 293:../Dave/Generated/CMSIS_DSP/FilteringFunctions/arm_conv_partial_q15.c ****     }
 294:../Dave/Generated/CMSIS_DSP/FilteringFunctions/arm_conv_partial_q15.c ****     else
 295:../Dave/Generated/CMSIS_DSP/FilteringFunctions/arm_conv_partial_q15.c ****     {
 296:../Dave/Generated/CMSIS_DSP/FilteringFunctions/arm_conv_partial_q15.c ****       px = pIn1;
 635              	 .loc 1 296 0
 636 056e 07F5AC72 	 add r2,r7,#344
 637 0572 D7F83434 	 ldr r3,[r7,#1076]
 638 0576 1360     	 str r3,[r2]
 639              	.L30:
 297:../Dave/Generated/CMSIS_DSP/FilteringFunctions/arm_conv_partial_q15.c ****     }
 298:../Dave/Generated/CMSIS_DSP/FilteringFunctions/arm_conv_partial_q15.c **** 
 299:../Dave/Generated/CMSIS_DSP/FilteringFunctions/arm_conv_partial_q15.c ****     /* Working pointer of inputB */
 300:../Dave/Generated/CMSIS_DSP/FilteringFunctions/arm_conv_partial_q15.c ****     pSrc2 = pIn2 + (srcBLen - 1u);
 640              	 .loc 1 300 0
 641 0578 07F14003 	 add r3,r7,#64
 642 057c 1B68     	 ldr r3,[r3]
 643 057e 03F10043 	 add r3,r3,#-2147483648
 644 0582 013B     	 subs r3,r3,#1
 645 0584 5A00     	 lsls r2,r3,#1
 646 0586 D7F83034 	 ldr r3,[r7,#1072]
 647 058a 1344     	 add r3,r3,r2
 648 058c C7F80034 	 str r3,[r7,#1024]
 301:../Dave/Generated/CMSIS_DSP/FilteringFunctions/arm_conv_partial_q15.c ****     py = pSrc2;
 649              	 .loc 1 301 0
 650 0590 07F5AA72 	 add r2,r7,#340
 651 0594 D7F80034 	 ldr r3,[r7,#1024]
 652 0598 1360     	 str r3,[r2]
 302:../Dave/Generated/CMSIS_DSP/FilteringFunctions/arm_conv_partial_q15.c **** 
 303:../Dave/Generated/CMSIS_DSP/FilteringFunctions/arm_conv_partial_q15.c ****   /* count is the index by which the pointer pIn1 to be incremented */
 304:../Dave/Generated/CMSIS_DSP/FilteringFunctions/arm_conv_partial_q15.c ****   count = 0u;
 653              	 .loc 1 304 0
 654 059a 0023     	 movs r3,#0
 655 059c C7F8EC33 	 str r3,[r7,#1004]
 305:../Dave/Generated/CMSIS_DSP/FilteringFunctions/arm_conv_partial_q15.c **** 
 306:../Dave/Generated/CMSIS_DSP/FilteringFunctions/arm_conv_partial_q15.c **** 
 307:../Dave/Generated/CMSIS_DSP/FilteringFunctions/arm_conv_partial_q15.c ****   /* --------------------   
 308:../Dave/Generated/CMSIS_DSP/FilteringFunctions/arm_conv_partial_q15.c ****    * Stage2 process   
 309:../Dave/Generated/CMSIS_DSP/FilteringFunctions/arm_conv_partial_q15.c ****    * -------------------*/
 310:../Dave/Generated/CMSIS_DSP/FilteringFunctions/arm_conv_partial_q15.c **** 
 311:../Dave/Generated/CMSIS_DSP/FilteringFunctions/arm_conv_partial_q15.c ****   /* Stage2 depends on srcBLen as in this stage srcBLen number of MACS are performed.   
 312:../Dave/Generated/CMSIS_DSP/FilteringFunctions/arm_conv_partial_q15.c ****    * So, to loop unroll over blockSize2,   
 313:../Dave/Generated/CMSIS_DSP/FilteringFunctions/arm_conv_partial_q15.c ****    * srcBLen should be greater than or equal to 4 */
 314:../Dave/Generated/CMSIS_DSP/FilteringFunctions/arm_conv_partial_q15.c ****   if(srcBLen >= 4u)
 656              	 .loc 1 314 0
 657 05a0 07F14003 	 add r3,r7,#64
 658 05a4 1B68     	 ldr r3,[r3]
 659 05a6 032B     	 cmp r3,#3
 660 05a8 40F2C587 	 bls .L31
 315:../Dave/Generated/CMSIS_DSP/FilteringFunctions/arm_conv_partial_q15.c ****   {
 316:../Dave/Generated/CMSIS_DSP/FilteringFunctions/arm_conv_partial_q15.c ****     /* Loop unroll over blockSize2, by 4 */
 317:../Dave/Generated/CMSIS_DSP/FilteringFunctions/arm_conv_partial_q15.c ****     blkCnt = blockSize2 >> 2u;
 661              	 .loc 1 317 0
 662 05ac D7F8D433 	 ldr r3,[r7,#980]
 663 05b0 9B10     	 asrs r3,r3,#2
 664 05b2 C7F8E833 	 str r3,[r7,#1000]
 318:../Dave/Generated/CMSIS_DSP/FilteringFunctions/arm_conv_partial_q15.c **** 
 319:../Dave/Generated/CMSIS_DSP/FilteringFunctions/arm_conv_partial_q15.c ****     while(blkCnt > 0u)
 665              	 .loc 1 319 0
 666 05b6 00F0A0BE 	 b .L32
 667              	.L61:
 320:../Dave/Generated/CMSIS_DSP/FilteringFunctions/arm_conv_partial_q15.c ****     {
 321:../Dave/Generated/CMSIS_DSP/FilteringFunctions/arm_conv_partial_q15.c ****       py = py - 1u;
 668              	 .loc 1 321 0
 669 05ba 07F5AA73 	 add r3,r7,#340
 670 05be 1B68     	 ldr r3,[r3]
 671 05c0 9A1E     	 subs r2,r3,#2
 672 05c2 07F5AA73 	 add r3,r7,#340
 673 05c6 1A60     	 str r2,[r3]
 322:../Dave/Generated/CMSIS_DSP/FilteringFunctions/arm_conv_partial_q15.c **** 
 323:../Dave/Generated/CMSIS_DSP/FilteringFunctions/arm_conv_partial_q15.c ****       /* Set all accumulators to zero */
 324:../Dave/Generated/CMSIS_DSP/FilteringFunctions/arm_conv_partial_q15.c ****       acc0 = 0;
 674              	 .loc 1 324 0
 675 05c8 4FF00002 	 mov r2,#0
 676 05cc 4FF00003 	 mov r3,#0
 677 05d0 07F58461 	 add r1,r7,#1056
 678 05d4 C1E90023 	 strd r2,[r1]
 325:../Dave/Generated/CMSIS_DSP/FilteringFunctions/arm_conv_partial_q15.c ****       acc1 = 0;
 679              	 .loc 1 325 0
 680 05d8 4FF00002 	 mov r2,#0
 681 05dc 4FF00003 	 mov r3,#0
 682 05e0 07F58361 	 add r1,r7,#1048
 683 05e4 C1E90023 	 strd r2,[r1]
 326:../Dave/Generated/CMSIS_DSP/FilteringFunctions/arm_conv_partial_q15.c ****       acc2 = 0;
 684              	 .loc 1 326 0
 685 05e8 4FF00002 	 mov r2,#0
 686 05ec 4FF00003 	 mov r3,#0
 687 05f0 07F58261 	 add r1,r7,#1040
 688 05f4 C1E90023 	 strd r2,[r1]
 327:../Dave/Generated/CMSIS_DSP/FilteringFunctions/arm_conv_partial_q15.c ****       acc3 = 0;
 689              	 .loc 1 327 0
 690 05f8 4FF00002 	 mov r2,#0
 691 05fc 4FF00003 	 mov r3,#0
 692 0600 07F58161 	 add r1,r7,#1032
 693 0604 C1E90023 	 strd r2,[r1]
 328:../Dave/Generated/CMSIS_DSP/FilteringFunctions/arm_conv_partial_q15.c **** 
 329:../Dave/Generated/CMSIS_DSP/FilteringFunctions/arm_conv_partial_q15.c **** 
 330:../Dave/Generated/CMSIS_DSP/FilteringFunctions/arm_conv_partial_q15.c ****       /* read x[0], x[1] samples */
 331:../Dave/Generated/CMSIS_DSP/FilteringFunctions/arm_conv_partial_q15.c ****       x0 = *__SIMD32(px);
 694              	 .loc 1 331 0
 695 0608 07F5AC73 	 add r3,r7,#344
 696 060c 1B68     	 ldr r3,[r3]
 697 060e 1B68     	 ldr r3,[r3]
 698 0610 C7F8FC33 	 str r3,[r7,#1020]
 332:../Dave/Generated/CMSIS_DSP/FilteringFunctions/arm_conv_partial_q15.c ****       /* read x[1], x[2] samples */
 333:../Dave/Generated/CMSIS_DSP/FilteringFunctions/arm_conv_partial_q15.c ****       x1 = _SIMD32_OFFSET(px+1);
 699              	 .loc 1 333 0
 700 0614 07F5AC73 	 add r3,r7,#344
 701 0618 1B68     	 ldr r3,[r3]
 702 061a D3F80230 	 ldr r3,[r3,#2]
 703 061e C7F8F833 	 str r3,[r7,#1016]
 334:../Dave/Generated/CMSIS_DSP/FilteringFunctions/arm_conv_partial_q15.c **** 	  px+= 2u;
 704              	 .loc 1 334 0
 705 0622 07F5AC73 	 add r3,r7,#344
 706 0626 1B68     	 ldr r3,[r3]
 707 0628 1A1D     	 adds r2,r3,#4
 708 062a 07F5AC73 	 add r3,r7,#344
 709 062e 1A60     	 str r2,[r3]
 335:../Dave/Generated/CMSIS_DSP/FilteringFunctions/arm_conv_partial_q15.c **** 
 336:../Dave/Generated/CMSIS_DSP/FilteringFunctions/arm_conv_partial_q15.c **** 
 337:../Dave/Generated/CMSIS_DSP/FilteringFunctions/arm_conv_partial_q15.c ****       /* Apply loop unrolling and compute 4 MACs simultaneously. */
 338:../Dave/Generated/CMSIS_DSP/FilteringFunctions/arm_conv_partial_q15.c ****       k = srcBLen >> 2u;
 710              	 .loc 1 338 0
 711 0630 07F14003 	 add r3,r7,#64
 712 0634 1B68     	 ldr r3,[r3]
 713 0636 9B08     	 lsrs r3,r3,#2
 714 0638 C7F8F033 	 str r3,[r7,#1008]
 715              	.L41:
 339:../Dave/Generated/CMSIS_DSP/FilteringFunctions/arm_conv_partial_q15.c **** 
 340:../Dave/Generated/CMSIS_DSP/FilteringFunctions/arm_conv_partial_q15.c ****       /* First part of the processing with loop unrolling.  Compute 4 MACs at a time.   
 341:../Dave/Generated/CMSIS_DSP/FilteringFunctions/arm_conv_partial_q15.c ****        ** a second loop below computes MACs for the remaining 1 to 3 samples. */
 342:../Dave/Generated/CMSIS_DSP/FilteringFunctions/arm_conv_partial_q15.c ****       do
 343:../Dave/Generated/CMSIS_DSP/FilteringFunctions/arm_conv_partial_q15.c ****       {
 344:../Dave/Generated/CMSIS_DSP/FilteringFunctions/arm_conv_partial_q15.c ****         /* Read the last two inputB samples using SIMD:   
 345:../Dave/Generated/CMSIS_DSP/FilteringFunctions/arm_conv_partial_q15.c ****          * y[srcBLen - 1] and y[srcBLen - 2] */
 346:../Dave/Generated/CMSIS_DSP/FilteringFunctions/arm_conv_partial_q15.c ****         c0 = *__SIMD32(py)--;
 716              	 .loc 1 346 0 discriminator 1
 717 063c 07F5AA71 	 add r1,r7,#340
 718 0640 0A68     	 ldr r2,[r1]
 719 0642 131F     	 subs r3,r2,#4
 720 0644 0B60     	 str r3,[r1]
 721 0646 1368     	 ldr r3,[r2]
 722 0648 C7F8C033 	 str r3,[r7,#960]
 347:../Dave/Generated/CMSIS_DSP/FilteringFunctions/arm_conv_partial_q15.c **** 
 348:../Dave/Generated/CMSIS_DSP/FilteringFunctions/arm_conv_partial_q15.c ****         /* acc0 +=  x[0] * y[srcBLen - 1] + x[1] * y[srcBLen - 2] */
 349:../Dave/Generated/CMSIS_DSP/FilteringFunctions/arm_conv_partial_q15.c ****         acc0 = __SMLALDX(x0, c0, acc0);
 723              	 .loc 1 349 0 discriminator 1
 724 064c D7F8FC23 	 ldr r2,[r7,#1020]
 725 0650 D7F8C043 	 ldr r4,[r7,#960]
 726 0654 07F58463 	 add r3,r7,#1056
 727 0658 D3E90001 	 ldrd r0,[r3]
 728 065c 07F54773 	 add r3,r7,#796
 729 0660 1A60     	 str r2,[r3]
 730 0662 07F54673 	 add r3,r7,#792
 731 0666 1C60     	 str r4,[r3]
 732 0668 07F54473 	 add r3,r7,#784
 733 066c C3E90001 	 strd r0,[r3]
 734              	.LBB88:
 735              	.LBB89:
 542:C:\Users\Depes Crystalline\Desktop\school\Active_Bike_Lighting_System\Radar_Core/Libraries/CMSIS/Include\core_cmSimd.h **** 
 736              	 .loc 2 542 0 discriminator 1
 737 0670 07F17001 	 add r1,r7,#112
 738 0674 07F54473 	 add r3,r7,#784
 739 0678 D3E90023 	 ldrd r2,[r3]
 740 067c C1E90023 	 strd r2,[r1]
 545:C:\Users\Depes Crystalline\Desktop\school\Active_Bike_Lighting_System\Radar_Core/Libraries/CMSIS/Include\core_cmSimd.h **** #else               // Big endian
 741              	 .loc 2 545 0 discriminator 1
 742 0680 07F17003 	 add r3,r7,#112
 743 0684 1A68     	 ldr r2,[r3]
 744 0686 07F17003 	 add r3,r7,#112
 745 068a 5968     	 ldr r1,[r3,#4]
 746 068c 07F54773 	 add r3,r7,#796
 747 0690 1868     	 ldr r0,[r3]
 748 0692 07F54673 	 add r3,r7,#792
 749 0696 1B68     	 ldr r3,[r3]
 750              	
 751 0698 C0FBD321 	 smlaldx r2,r1,r0,r3
 752              	
 753              	 .thumb
 754 069c 07F17003 	 add r3,r7,#112
 755 06a0 1A60     	 str r2,[r3]
 756 06a2 07F17003 	 add r3,r7,#112
 757 06a6 5960     	 str r1,[r3,#4]
 758              	 .loc 2 550 0 discriminator 1
 759 06a8 07F17003 	 add r3,r7,#112
 760 06ac D3E90023 	 ldrd r2,[r3]
 761              	.LBE89:
 762              	.LBE88:
 763              	 .loc 1 349 0 discriminator 1
 764 06b0 07F58461 	 add r1,r7,#1056
 765 06b4 C1E90023 	 strd r2,[r1]
 350:../Dave/Generated/CMSIS_DSP/FilteringFunctions/arm_conv_partial_q15.c **** 
 351:../Dave/Generated/CMSIS_DSP/FilteringFunctions/arm_conv_partial_q15.c ****         /* acc1 +=  x[1] * y[srcBLen - 1] + x[2] * y[srcBLen - 2] */
 352:../Dave/Generated/CMSIS_DSP/FilteringFunctions/arm_conv_partial_q15.c ****         acc1 = __SMLALDX(x1, c0, acc1);
 766              	 .loc 1 352 0 discriminator 1
 767 06b8 D7F8F823 	 ldr r2,[r7,#1016]
 768 06bc D7F8C043 	 ldr r4,[r7,#960]
 769 06c0 07F58363 	 add r3,r7,#1048
 770 06c4 D3E90001 	 ldrd r0,[r3]
 771 06c8 07F54373 	 add r3,r7,#780
 772 06cc 1A60     	 str r2,[r3]
 773 06ce 07F54273 	 add r3,r7,#776
 774 06d2 1C60     	 str r4,[r3]
 775 06d4 07F54073 	 add r3,r7,#768
 776 06d8 C3E90001 	 strd r0,[r3]
 777              	.LBB90:
 778              	.LBB91:
 542:C:\Users\Depes Crystalline\Desktop\school\Active_Bike_Lighting_System\Radar_Core/Libraries/CMSIS/Include\core_cmSimd.h **** 
 779              	 .loc 2 542 0 discriminator 1
 780 06dc 07F17801 	 add r1,r7,#120
 781 06e0 07F54073 	 add r3,r7,#768
 782 06e4 D3E90023 	 ldrd r2,[r3]
 783 06e8 C1E90023 	 strd r2,[r1]
 545:C:\Users\Depes Crystalline\Desktop\school\Active_Bike_Lighting_System\Radar_Core/Libraries/CMSIS/Include\core_cmSimd.h **** #else               // Big endian
 784              	 .loc 2 545 0 discriminator 1
 785 06ec 07F17803 	 add r3,r7,#120
 786 06f0 1A68     	 ldr r2,[r3]
 787 06f2 07F17803 	 add r3,r7,#120
 788 06f6 5968     	 ldr r1,[r3,#4]
 789 06f8 07F54373 	 add r3,r7,#780
 790 06fc 1868     	 ldr r0,[r3]
 791 06fe 07F54273 	 add r3,r7,#776
 792 0702 1B68     	 ldr r3,[r3]
 793              	
 794 0704 C0FBD321 	 smlaldx r2,r1,r0,r3
 795              	
 796              	 .thumb
 797 0708 07F17803 	 add r3,r7,#120
 798 070c 1A60     	 str r2,[r3]
 799 070e 07F17803 	 add r3,r7,#120
 800 0712 5960     	 str r1,[r3,#4]
 801              	 .loc 2 550 0 discriminator 1
 802 0714 07F17803 	 add r3,r7,#120
 803 0718 D3E90023 	 ldrd r2,[r3]
 804              	.LBE91:
 805              	.LBE90:
 806              	 .loc 1 352 0 discriminator 1
 807 071c 07F58361 	 add r1,r7,#1048
 808 0720 C1E90023 	 strd r2,[r1]
 353:../Dave/Generated/CMSIS_DSP/FilteringFunctions/arm_conv_partial_q15.c **** 
 354:../Dave/Generated/CMSIS_DSP/FilteringFunctions/arm_conv_partial_q15.c ****         /* Read x[2], x[3] */
 355:../Dave/Generated/CMSIS_DSP/FilteringFunctions/arm_conv_partial_q15.c ****         x2 = *__SIMD32(px);
 809              	 .loc 1 355 0 discriminator 1
 810 0724 07F5AC73 	 add r3,r7,#344
 811 0728 1B68     	 ldr r3,[r3]
 812 072a 1B68     	 ldr r3,[r3]
 813 072c C7F8BC33 	 str r3,[r7,#956]
 356:../Dave/Generated/CMSIS_DSP/FilteringFunctions/arm_conv_partial_q15.c **** 
 357:../Dave/Generated/CMSIS_DSP/FilteringFunctions/arm_conv_partial_q15.c ****         /* Read x[3], x[4] */
 358:../Dave/Generated/CMSIS_DSP/FilteringFunctions/arm_conv_partial_q15.c ****         x3 = _SIMD32_OFFSET(px+1);
 814              	 .loc 1 358 0 discriminator 1
 815 0730 07F5AC73 	 add r3,r7,#344
 816 0734 1B68     	 ldr r3,[r3]
 817 0736 D3F80230 	 ldr r3,[r3,#2]
 818 073a C7F8B833 	 str r3,[r7,#952]
 359:../Dave/Generated/CMSIS_DSP/FilteringFunctions/arm_conv_partial_q15.c **** 
 360:../Dave/Generated/CMSIS_DSP/FilteringFunctions/arm_conv_partial_q15.c ****         /* acc2 +=  x[2] * y[srcBLen - 1] + x[3] * y[srcBLen - 2] */
 361:../Dave/Generated/CMSIS_DSP/FilteringFunctions/arm_conv_partial_q15.c ****         acc2 = __SMLALDX(x2, c0, acc2);
 819              	 .loc 1 361 0 discriminator 1
 820 073e D7F8BC23 	 ldr r2,[r7,#956]
 821 0742 D7F8C043 	 ldr r4,[r7,#960]
 822 0746 07F58263 	 add r3,r7,#1040
 823 074a D3E90001 	 ldrd r0,[r3]
 824 074e 07F53F73 	 add r3,r7,#764
 825 0752 1A60     	 str r2,[r3]
 826 0754 07F53E73 	 add r3,r7,#760
 827 0758 1C60     	 str r4,[r3]
 828 075a 07F53C73 	 add r3,r7,#752
 829 075e C3E90001 	 strd r0,[r3]
 830              	.LBB92:
 831              	.LBB93:
 542:C:\Users\Depes Crystalline\Desktop\school\Active_Bike_Lighting_System\Radar_Core/Libraries/CMSIS/Include\core_cmSimd.h **** 
 832              	 .loc 2 542 0 discriminator 1
 833 0762 07F18001 	 add r1,r7,#128
 834 0766 07F53C73 	 add r3,r7,#752
 835 076a D3E90023 	 ldrd r2,[r3]
 836 076e C1E90023 	 strd r2,[r1]
 545:C:\Users\Depes Crystalline\Desktop\school\Active_Bike_Lighting_System\Radar_Core/Libraries/CMSIS/Include\core_cmSimd.h **** #else               // Big endian
 837              	 .loc 2 545 0 discriminator 1
 838 0772 07F18003 	 add r3,r7,#128
 839 0776 1A68     	 ldr r2,[r3]
 840 0778 07F18003 	 add r3,r7,#128
 841 077c 5968     	 ldr r1,[r3,#4]
 842 077e 07F53F73 	 add r3,r7,#764
 843 0782 1868     	 ldr r0,[r3]
 844 0784 07F53E73 	 add r3,r7,#760
 845 0788 1B68     	 ldr r3,[r3]
 846              	
 847 078a C0FBD321 	 smlaldx r2,r1,r0,r3
 848              	
 849              	 .thumb
 850 078e 07F18003 	 add r3,r7,#128
 851 0792 1A60     	 str r2,[r3]
 852 0794 07F18003 	 add r3,r7,#128
 853 0798 5960     	 str r1,[r3,#4]
 854              	 .loc 2 550 0 discriminator 1
 855 079a 07F18003 	 add r3,r7,#128
 856 079e D3E90023 	 ldrd r2,[r3]
 857              	.LBE93:
 858              	.LBE92:
 859              	 .loc 1 361 0 discriminator 1
 860 07a2 07F58261 	 add r1,r7,#1040
 861 07a6 C1E90023 	 strd r2,[r1]
 362:../Dave/Generated/CMSIS_DSP/FilteringFunctions/arm_conv_partial_q15.c **** 
 363:../Dave/Generated/CMSIS_DSP/FilteringFunctions/arm_conv_partial_q15.c ****         /* acc3 +=  x[3] * y[srcBLen - 1] + x[4] * y[srcBLen - 2] */
 364:../Dave/Generated/CMSIS_DSP/FilteringFunctions/arm_conv_partial_q15.c ****         acc3 = __SMLALDX(x3, c0, acc3);
 862              	 .loc 1 364 0 discriminator 1
 863 07aa D7F8B823 	 ldr r2,[r7,#952]
 864 07ae D7F8C043 	 ldr r4,[r7,#960]
 865 07b2 07F58163 	 add r3,r7,#1032
 866 07b6 D3E90001 	 ldrd r0,[r3]
 867 07ba 07F53B73 	 add r3,r7,#748
 868 07be 1A60     	 str r2,[r3]
 869 07c0 07F53A73 	 add r3,r7,#744
 870 07c4 1C60     	 str r4,[r3]
 871 07c6 07F53873 	 add r3,r7,#736
 872 07ca C3E90001 	 strd r0,[r3]
 873              	.LBB94:
 874              	.LBB95:
 542:C:\Users\Depes Crystalline\Desktop\school\Active_Bike_Lighting_System\Radar_Core/Libraries/CMSIS/Include\core_cmSimd.h **** 
 875              	 .loc 2 542 0 discriminator 1
 876 07ce 07F18801 	 add r1,r7,#136
 877 07d2 07F53873 	 add r3,r7,#736
 878 07d6 D3E90023 	 ldrd r2,[r3]
 879 07da C1E90023 	 strd r2,[r1]
 545:C:\Users\Depes Crystalline\Desktop\school\Active_Bike_Lighting_System\Radar_Core/Libraries/CMSIS/Include\core_cmSimd.h **** #else               // Big endian
 880              	 .loc 2 545 0 discriminator 1
 881 07de 07F18803 	 add r3,r7,#136
 882 07e2 1A68     	 ldr r2,[r3]
 883 07e4 07F18803 	 add r3,r7,#136
 884 07e8 5968     	 ldr r1,[r3,#4]
 885 07ea 07F53B73 	 add r3,r7,#748
 886 07ee 1868     	 ldr r0,[r3]
 887 07f0 07F53A73 	 add r3,r7,#744
 888 07f4 1B68     	 ldr r3,[r3]
 889              	
 890 07f6 C0FBD321 	 smlaldx r2,r1,r0,r3
 891              	
 892              	 .thumb
 893 07fa 07F18803 	 add r3,r7,#136
 894 07fe 1A60     	 str r2,[r3]
 895 0800 07F18803 	 add r3,r7,#136
 896 0804 5960     	 str r1,[r3,#4]
 897              	 .loc 2 550 0 discriminator 1
 898 0806 07F18803 	 add r3,r7,#136
 899 080a D3E90023 	 ldrd r2,[r3]
 900              	.LBE95:
 901              	.LBE94:
 902              	 .loc 1 364 0 discriminator 1
 903 080e 07F58161 	 add r1,r7,#1032
 904 0812 C1E90023 	 strd r2,[r1]
 365:../Dave/Generated/CMSIS_DSP/FilteringFunctions/arm_conv_partial_q15.c **** 
 366:../Dave/Generated/CMSIS_DSP/FilteringFunctions/arm_conv_partial_q15.c ****         /* Read y[srcBLen - 3] and y[srcBLen - 4] */
 367:../Dave/Generated/CMSIS_DSP/FilteringFunctions/arm_conv_partial_q15.c ****         c0 = *__SIMD32(py)--;
 905              	 .loc 1 367 0 discriminator 1
 906 0816 07F5AA71 	 add r1,r7,#340
 907 081a 0A68     	 ldr r2,[r1]
 908 081c 131F     	 subs r3,r2,#4
 909 081e 0B60     	 str r3,[r1]
 910 0820 1368     	 ldr r3,[r2]
 911 0822 C7F8C033 	 str r3,[r7,#960]
 368:../Dave/Generated/CMSIS_DSP/FilteringFunctions/arm_conv_partial_q15.c **** 
 369:../Dave/Generated/CMSIS_DSP/FilteringFunctions/arm_conv_partial_q15.c ****         /* acc0 +=  x[2] * y[srcBLen - 3] + x[3] * y[srcBLen - 4] */
 370:../Dave/Generated/CMSIS_DSP/FilteringFunctions/arm_conv_partial_q15.c ****         acc0 = __SMLALDX(x2, c0, acc0);
 912              	 .loc 1 370 0 discriminator 1
 913 0826 D7F8BC23 	 ldr r2,[r7,#956]
 914 082a D7F8C043 	 ldr r4,[r7,#960]
 915 082e 07F58463 	 add r3,r7,#1056
 916 0832 D3E90001 	 ldrd r0,[r3]
 917 0836 07F53773 	 add r3,r7,#732
 918 083a 1A60     	 str r2,[r3]
 919 083c 07F53673 	 add r3,r7,#728
 920 0840 1C60     	 str r4,[r3]
 921 0842 07F53473 	 add r3,r7,#720
 922 0846 C3E90001 	 strd r0,[r3]
 923              	.LBB96:
 924              	.LBB97:
 542:C:\Users\Depes Crystalline\Desktop\school\Active_Bike_Lighting_System\Radar_Core/Libraries/CMSIS/Include\core_cmSimd.h **** 
 925              	 .loc 2 542 0 discriminator 1
 926 084a 07F19001 	 add r1,r7,#144
 927 084e 07F53473 	 add r3,r7,#720
 928 0852 D3E90023 	 ldrd r2,[r3]
 929 0856 C1E90023 	 strd r2,[r1]
 545:C:\Users\Depes Crystalline\Desktop\school\Active_Bike_Lighting_System\Radar_Core/Libraries/CMSIS/Include\core_cmSimd.h **** #else               // Big endian
 930              	 .loc 2 545 0 discriminator 1
 931 085a 07F19003 	 add r3,r7,#144
 932 085e 1A68     	 ldr r2,[r3]
 933 0860 07F19003 	 add r3,r7,#144
 934 0864 5968     	 ldr r1,[r3,#4]
 935 0866 07F53773 	 add r3,r7,#732
 936 086a 1868     	 ldr r0,[r3]
 937 086c 07F53673 	 add r3,r7,#728
 938 0870 1B68     	 ldr r3,[r3]
 939              	
 940 0872 C0FBD321 	 smlaldx r2,r1,r0,r3
 941              	
 942              	 .thumb
 943 0876 07F19003 	 add r3,r7,#144
 944 087a 1A60     	 str r2,[r3]
 945 087c 07F19003 	 add r3,r7,#144
 946 0880 5960     	 str r1,[r3,#4]
 947              	 .loc 2 550 0 discriminator 1
 948 0882 07F19003 	 add r3,r7,#144
 949 0886 D3E90023 	 ldrd r2,[r3]
 950              	.LBE97:
 951              	.LBE96:
 952              	 .loc 1 370 0 discriminator 1
 953 088a 07F58461 	 add r1,r7,#1056
 954 088e C1E90023 	 strd r2,[r1]
 371:../Dave/Generated/CMSIS_DSP/FilteringFunctions/arm_conv_partial_q15.c **** 
 372:../Dave/Generated/CMSIS_DSP/FilteringFunctions/arm_conv_partial_q15.c ****         /* acc1 +=  x[3] * y[srcBLen - 3] + x[4] * y[srcBLen - 4] */
 373:../Dave/Generated/CMSIS_DSP/FilteringFunctions/arm_conv_partial_q15.c ****         acc1 = __SMLALDX(x3, c0, acc1);
 955              	 .loc 1 373 0 discriminator 1
 956 0892 D7F8B823 	 ldr r2,[r7,#952]
 957 0896 D7F8C043 	 ldr r4,[r7,#960]
 958 089a 07F58363 	 add r3,r7,#1048
 959 089e D3E90001 	 ldrd r0,[r3]
 960 08a2 07F53373 	 add r3,r7,#716
 961 08a6 1A60     	 str r2,[r3]
 962 08a8 07F53273 	 add r3,r7,#712
 963 08ac 1C60     	 str r4,[r3]
 964 08ae 07F53073 	 add r3,r7,#704
 965 08b2 C3E90001 	 strd r0,[r3]
 966              	.LBB98:
 967              	.LBB99:
 542:C:\Users\Depes Crystalline\Desktop\school\Active_Bike_Lighting_System\Radar_Core/Libraries/CMSIS/Include\core_cmSimd.h **** 
 968              	 .loc 2 542 0 discriminator 1
 969 08b6 07F19801 	 add r1,r7,#152
 970 08ba 07F53073 	 add r3,r7,#704
 971 08be D3E90023 	 ldrd r2,[r3]
 972 08c2 C1E90023 	 strd r2,[r1]
 545:C:\Users\Depes Crystalline\Desktop\school\Active_Bike_Lighting_System\Radar_Core/Libraries/CMSIS/Include\core_cmSimd.h **** #else               // Big endian
 973              	 .loc 2 545 0 discriminator 1
 974 08c6 07F19803 	 add r3,r7,#152
 975 08ca 1A68     	 ldr r2,[r3]
 976 08cc 07F19803 	 add r3,r7,#152
 977 08d0 5968     	 ldr r1,[r3,#4]
 978 08d2 07F53373 	 add r3,r7,#716
 979 08d6 1868     	 ldr r0,[r3]
 980 08d8 07F53273 	 add r3,r7,#712
 981 08dc 1B68     	 ldr r3,[r3]
 982              	
 983 08de C0FBD321 	 smlaldx r2,r1,r0,r3
 984              	
 985              	 .thumb
 986 08e2 07F19803 	 add r3,r7,#152
 987 08e6 1A60     	 str r2,[r3]
 988 08e8 07F19803 	 add r3,r7,#152
 989 08ec 5960     	 str r1,[r3,#4]
 990              	 .loc 2 550 0 discriminator 1
 991 08ee 07F19803 	 add r3,r7,#152
 992 08f2 D3E90023 	 ldrd r2,[r3]
 993              	.LBE99:
 994              	.LBE98:
 995              	 .loc 1 373 0 discriminator 1
 996 08f6 07F58361 	 add r1,r7,#1048
 997 08fa C1E90023 	 strd r2,[r1]
 374:../Dave/Generated/CMSIS_DSP/FilteringFunctions/arm_conv_partial_q15.c **** 
 375:../Dave/Generated/CMSIS_DSP/FilteringFunctions/arm_conv_partial_q15.c ****         /* Read x[4], x[5] */
 376:../Dave/Generated/CMSIS_DSP/FilteringFunctions/arm_conv_partial_q15.c ****         x0 = _SIMD32_OFFSET(px+2);
 998              	 .loc 1 376 0 discriminator 1
 999 08fe 07F5AC73 	 add r3,r7,#344
 1000 0902 1B68     	 ldr r3,[r3]
 1001 0904 5B68     	 ldr r3,[r3,#4]
 1002 0906 C7F8FC33 	 str r3,[r7,#1020]
 377:../Dave/Generated/CMSIS_DSP/FilteringFunctions/arm_conv_partial_q15.c **** 
 378:../Dave/Generated/CMSIS_DSP/FilteringFunctions/arm_conv_partial_q15.c ****         /* Read x[5], x[6] */
 379:../Dave/Generated/CMSIS_DSP/FilteringFunctions/arm_conv_partial_q15.c ****         x1 = _SIMD32_OFFSET(px+3);
 1003              	 .loc 1 379 0 discriminator 1
 1004 090a 07F5AC73 	 add r3,r7,#344
 1005 090e 1B68     	 ldr r3,[r3]
 1006 0910 D3F80630 	 ldr r3,[r3,#6]
 1007 0914 C7F8F833 	 str r3,[r7,#1016]
 380:../Dave/Generated/CMSIS_DSP/FilteringFunctions/arm_conv_partial_q15.c **** 		px += 4u;
 1008              	 .loc 1 380 0 discriminator 1
 1009 0918 07F5AC73 	 add r3,r7,#344
 1010 091c 1B68     	 ldr r3,[r3]
 1011 091e 03F10802 	 add r2,r3,#8
 1012 0922 07F5AC73 	 add r3,r7,#344
 1013 0926 1A60     	 str r2,[r3]
 381:../Dave/Generated/CMSIS_DSP/FilteringFunctions/arm_conv_partial_q15.c **** 
 382:../Dave/Generated/CMSIS_DSP/FilteringFunctions/arm_conv_partial_q15.c ****         /* acc2 +=  x[4] * y[srcBLen - 3] + x[5] * y[srcBLen - 4] */
 383:../Dave/Generated/CMSIS_DSP/FilteringFunctions/arm_conv_partial_q15.c ****         acc2 = __SMLALDX(x0, c0, acc2);
 1014              	 .loc 1 383 0 discriminator 1
 1015 0928 D7F8FC23 	 ldr r2,[r7,#1020]
 1016 092c D7F8C043 	 ldr r4,[r7,#960]
 1017 0930 07F58263 	 add r3,r7,#1040
 1018 0934 D3E90001 	 ldrd r0,[r3]
 1019 0938 07F52F73 	 add r3,r7,#700
 1020 093c 1A60     	 str r2,[r3]
 1021 093e 07F52E73 	 add r3,r7,#696
 1022 0942 1C60     	 str r4,[r3]
 1023 0944 07F52C73 	 add r3,r7,#688
 1024 0948 C3E90001 	 strd r0,[r3]
 1025              	.LBB100:
 1026              	.LBB101:
 542:C:\Users\Depes Crystalline\Desktop\school\Active_Bike_Lighting_System\Radar_Core/Libraries/CMSIS/Include\core_cmSimd.h **** 
 1027              	 .loc 2 542 0 discriminator 1
 1028 094c 07F1A001 	 add r1,r7,#160
 1029 0950 07F52C73 	 add r3,r7,#688
 1030 0954 D3E90023 	 ldrd r2,[r3]
 1031 0958 C1E90023 	 strd r2,[r1]
 545:C:\Users\Depes Crystalline\Desktop\school\Active_Bike_Lighting_System\Radar_Core/Libraries/CMSIS/Include\core_cmSimd.h **** #else               // Big endian
 1032              	 .loc 2 545 0 discriminator 1
 1033 095c 07F1A003 	 add r3,r7,#160
 1034 0960 1A68     	 ldr r2,[r3]
 1035 0962 07F1A003 	 add r3,r7,#160
 1036 0966 5968     	 ldr r1,[r3,#4]
 1037 0968 07F52F73 	 add r3,r7,#700
 1038 096c 1868     	 ldr r0,[r3]
 1039 096e 07F52E73 	 add r3,r7,#696
 1040 0972 1B68     	 ldr r3,[r3]
 1041              	
 1042 0974 C0FBD321 	 smlaldx r2,r1,r0,r3
 1043              	
 1044              	 .thumb
 1045 0978 07F1A003 	 add r3,r7,#160
 1046 097c 1A60     	 str r2,[r3]
 1047 097e 07F1A003 	 add r3,r7,#160
 1048 0982 5960     	 str r1,[r3,#4]
 1049              	 .loc 2 550 0 discriminator 1
 1050 0984 07F1A003 	 add r3,r7,#160
 1051 0988 D3E90023 	 ldrd r2,[r3]
 1052              	.LBE101:
 1053              	.LBE100:
 1054              	 .loc 1 383 0 discriminator 1
 1055 098c 07F58261 	 add r1,r7,#1040
 1056 0990 C1E90023 	 strd r2,[r1]
 384:../Dave/Generated/CMSIS_DSP/FilteringFunctions/arm_conv_partial_q15.c **** 
 385:../Dave/Generated/CMSIS_DSP/FilteringFunctions/arm_conv_partial_q15.c ****         /* acc3 +=  x[5] * y[srcBLen - 3] + x[6] * y[srcBLen - 4] */
 386:../Dave/Generated/CMSIS_DSP/FilteringFunctions/arm_conv_partial_q15.c ****         acc3 = __SMLALDX(x1, c0, acc3);
 1057              	 .loc 1 386 0 discriminator 1
 1058 0994 D7F8F823 	 ldr r2,[r7,#1016]
 1059 0998 D7F8C043 	 ldr r4,[r7,#960]
 1060 099c 07F58163 	 add r3,r7,#1032
 1061 09a0 D3E90001 	 ldrd r0,[r3]
 1062 09a4 07F52B73 	 add r3,r7,#684
 1063 09a8 1A60     	 str r2,[r3]
 1064 09aa 07F52A73 	 add r3,r7,#680
 1065 09ae 1C60     	 str r4,[r3]
 1066 09b0 07F52873 	 add r3,r7,#672
 1067 09b4 C3E90001 	 strd r0,[r3]
 1068              	.LBB102:
 1069              	.LBB103:
 542:C:\Users\Depes Crystalline\Desktop\school\Active_Bike_Lighting_System\Radar_Core/Libraries/CMSIS/Include\core_cmSimd.h **** 
 1070              	 .loc 2 542 0 discriminator 1
 1071 09b8 07F1A801 	 add r1,r7,#168
 1072 09bc 07F52873 	 add r3,r7,#672
 1073 09c0 D3E90023 	 ldrd r2,[r3]
 1074 09c4 C1E90023 	 strd r2,[r1]
 545:C:\Users\Depes Crystalline\Desktop\school\Active_Bike_Lighting_System\Radar_Core/Libraries/CMSIS/Include\core_cmSimd.h **** #else               // Big endian
 1075              	 .loc 2 545 0 discriminator 1
 1076 09c8 07F1A803 	 add r3,r7,#168
 1077 09cc 1A68     	 ldr r2,[r3]
 1078 09ce 07F1A803 	 add r3,r7,#168
 1079 09d2 5968     	 ldr r1,[r3,#4]
 1080 09d4 07F52B73 	 add r3,r7,#684
 1081 09d8 1868     	 ldr r0,[r3]
 1082 09da 07F52A73 	 add r3,r7,#680
 1083 09de 1B68     	 ldr r3,[r3]
 1084              	
 1085 09e0 C0FBD321 	 smlaldx r2,r1,r0,r3
 1086              	
 1087              	 .thumb
 1088 09e4 07F1A803 	 add r3,r7,#168
 1089 09e8 1A60     	 str r2,[r3]
 1090 09ea 07F1A803 	 add r3,r7,#168
 1091 09ee 5960     	 str r1,[r3,#4]
 1092              	 .loc 2 550 0 discriminator 1
 1093 09f0 07F1A803 	 add r3,r7,#168
 1094 09f4 D3E90023 	 ldrd r2,[r3]
 1095              	.LBE103:
 1096              	.LBE102:
 1097              	 .loc 1 386 0 discriminator 1
 1098 09f8 07F58161 	 add r1,r7,#1032
 1099 09fc C1E90023 	 strd r2,[r1]
 387:../Dave/Generated/CMSIS_DSP/FilteringFunctions/arm_conv_partial_q15.c **** 
 388:../Dave/Generated/CMSIS_DSP/FilteringFunctions/arm_conv_partial_q15.c ****       } while(--k);
 1100              	 .loc 1 388 0 discriminator 1
 1101 0a00 D7F8F033 	 ldr r3,[r7,#1008]
 1102 0a04 013B     	 subs r3,r3,#1
 1103 0a06 C7F8F033 	 str r3,[r7,#1008]
 1104 0a0a D7F8F033 	 ldr r3,[r7,#1008]
 1105 0a0e 002B     	 cmp r3,#0
 1106 0a10 7FF414AE 	 bne .L41
 389:../Dave/Generated/CMSIS_DSP/FilteringFunctions/arm_conv_partial_q15.c **** 
 390:../Dave/Generated/CMSIS_DSP/FilteringFunctions/arm_conv_partial_q15.c ****       /* For the next MAC operations, SIMD is not used   
 391:../Dave/Generated/CMSIS_DSP/FilteringFunctions/arm_conv_partial_q15.c ****        * So, the 16 bit pointer if inputB, py is updated */
 392:../Dave/Generated/CMSIS_DSP/FilteringFunctions/arm_conv_partial_q15.c **** 
 393:../Dave/Generated/CMSIS_DSP/FilteringFunctions/arm_conv_partial_q15.c ****       /* If the srcBLen is not a multiple of 4, compute any remaining MACs here.   
 394:../Dave/Generated/CMSIS_DSP/FilteringFunctions/arm_conv_partial_q15.c ****        ** No loop unrolling is used. */
 395:../Dave/Generated/CMSIS_DSP/FilteringFunctions/arm_conv_partial_q15.c ****       k = srcBLen % 0x4u;
 1107              	 .loc 1 395 0
 1108 0a14 07F14003 	 add r3,r7,#64
 1109 0a18 1B68     	 ldr r3,[r3]
 1110 0a1a 03F00303 	 and r3,r3,#3
 1111 0a1e C7F8F033 	 str r3,[r7,#1008]
 396:../Dave/Generated/CMSIS_DSP/FilteringFunctions/arm_conv_partial_q15.c **** 
 397:../Dave/Generated/CMSIS_DSP/FilteringFunctions/arm_conv_partial_q15.c ****       if(k == 1u)
 1112              	 .loc 1 397 0
 1113 0a22 D7F8F033 	 ldr r3,[r7,#1008]
 1114 0a26 012B     	 cmp r3,#1
 1115 0a28 40F0F280 	 bne .L42
 398:../Dave/Generated/CMSIS_DSP/FilteringFunctions/arm_conv_partial_q15.c ****       {
 399:../Dave/Generated/CMSIS_DSP/FilteringFunctions/arm_conv_partial_q15.c ****         /* Read y[srcBLen - 5] */
 400:../Dave/Generated/CMSIS_DSP/FilteringFunctions/arm_conv_partial_q15.c ****         c0 = *(py+1);
 1116              	 .loc 1 400 0
 1117 0a2c 07F5AA73 	 add r3,r7,#340
 1118 0a30 1B68     	 ldr r3,[r3]
 1119 0a32 0233     	 adds r3,r3,#2
 1120 0a34 1B88     	 ldrh r3,[r3]
 1121 0a36 1BB2     	 sxth r3,r3
 1122 0a38 C7F8C033 	 str r3,[r7,#960]
 401:../Dave/Generated/CMSIS_DSP/FilteringFunctions/arm_conv_partial_q15.c **** 
 402:../Dave/Generated/CMSIS_DSP/FilteringFunctions/arm_conv_partial_q15.c **** #ifdef  ARM_MATH_BIG_ENDIAN
 403:../Dave/Generated/CMSIS_DSP/FilteringFunctions/arm_conv_partial_q15.c **** 
 404:../Dave/Generated/CMSIS_DSP/FilteringFunctions/arm_conv_partial_q15.c ****         c0 = c0 << 16u;
 405:../Dave/Generated/CMSIS_DSP/FilteringFunctions/arm_conv_partial_q15.c **** 
 406:../Dave/Generated/CMSIS_DSP/FilteringFunctions/arm_conv_partial_q15.c **** #else
 407:../Dave/Generated/CMSIS_DSP/FilteringFunctions/arm_conv_partial_q15.c **** 
 408:../Dave/Generated/CMSIS_DSP/FilteringFunctions/arm_conv_partial_q15.c ****         c0 = c0 & 0x0000FFFF;
 1123              	 .loc 1 408 0
 1124 0a3c D7F8C033 	 ldr r3,[r7,#960]
 1125 0a40 9BB2     	 uxth r3,r3
 1126 0a42 C7F8C033 	 str r3,[r7,#960]
 409:../Dave/Generated/CMSIS_DSP/FilteringFunctions/arm_conv_partial_q15.c **** 
 410:../Dave/Generated/CMSIS_DSP/FilteringFunctions/arm_conv_partial_q15.c **** #endif /*      #ifdef  ARM_MATH_BIG_ENDIAN     */
 411:../Dave/Generated/CMSIS_DSP/FilteringFunctions/arm_conv_partial_q15.c **** 
 412:../Dave/Generated/CMSIS_DSP/FilteringFunctions/arm_conv_partial_q15.c ****         /* Read x[7] */
 413:../Dave/Generated/CMSIS_DSP/FilteringFunctions/arm_conv_partial_q15.c ****         x3 = *__SIMD32(px);
 1127              	 .loc 1 413 0
 1128 0a46 07F5AC73 	 add r3,r7,#344
 1129 0a4a 1B68     	 ldr r3,[r3]
 1130 0a4c 1B68     	 ldr r3,[r3]
 1131 0a4e C7F8B833 	 str r3,[r7,#952]
 414:../Dave/Generated/CMSIS_DSP/FilteringFunctions/arm_conv_partial_q15.c **** 		px++;
 1132              	 .loc 1 414 0
 1133 0a52 07F5AC73 	 add r3,r7,#344
 1134 0a56 1B68     	 ldr r3,[r3]
 1135 0a58 9A1C     	 adds r2,r3,#2
 1136 0a5a 07F5AC73 	 add r3,r7,#344
 1137 0a5e 1A60     	 str r2,[r3]
 415:../Dave/Generated/CMSIS_DSP/FilteringFunctions/arm_conv_partial_q15.c **** 
 416:../Dave/Generated/CMSIS_DSP/FilteringFunctions/arm_conv_partial_q15.c ****         /* Perform the multiply-accumulates */
 417:../Dave/Generated/CMSIS_DSP/FilteringFunctions/arm_conv_partial_q15.c ****         acc0 = __SMLALD(x0, c0, acc0);
 1138              	 .loc 1 417 0
 1139 0a60 D7F8FC23 	 ldr r2,[r7,#1020]
 1140 0a64 D7F8C043 	 ldr r4,[r7,#960]
 1141 0a68 07F58463 	 add r3,r7,#1056
 1142 0a6c D3E90001 	 ldrd r0,[r3]
 1143 0a70 07F52773 	 add r3,r7,#668
 1144 0a74 1A60     	 str r2,[r3]
 1145 0a76 07F52673 	 add r3,r7,#664
 1146 0a7a 1C60     	 str r4,[r3]
 1147 0a7c 07F52473 	 add r3,r7,#656
 1148 0a80 C3E90001 	 strd r0,[r3]
 1149              	.LBB104:
 1150              	.LBB105:
 525:C:\Users\Depes Crystalline\Desktop\school\Active_Bike_Lighting_System\Radar_Core/Libraries/CMSIS/Include\core_cmSimd.h **** 
 1151              	 .loc 2 525 0
 1152 0a84 07F1B001 	 add r1,r7,#176
 1153 0a88 07F52473 	 add r3,r7,#656
 1154 0a8c D3E90023 	 ldrd r2,[r3]
 1155 0a90 C1E90023 	 strd r2,[r1]
 528:C:\Users\Depes Crystalline\Desktop\school\Active_Bike_Lighting_System\Radar_Core/Libraries/CMSIS/Include\core_cmSimd.h **** #else               // Big endian
 1156              	 .loc 2 528 0
 1157 0a94 07F1B003 	 add r3,r7,#176
 1158 0a98 1A68     	 ldr r2,[r3]
 1159 0a9a 07F1B003 	 add r3,r7,#176
 1160 0a9e 5968     	 ldr r1,[r3,#4]
 1161 0aa0 07F52773 	 add r3,r7,#668
 1162 0aa4 1868     	 ldr r0,[r3]
 1163 0aa6 07F52673 	 add r3,r7,#664
 1164 0aaa 1B68     	 ldr r3,[r3]
 1165              	
 1166 0aac C0FBC321 	 smlald r2,r1,r0,r3
 1167              	
 1168              	 .thumb
 1169 0ab0 07F1B003 	 add r3,r7,#176
 1170 0ab4 1A60     	 str r2,[r3]
 1171 0ab6 07F1B003 	 add r3,r7,#176
 1172 0aba 5960     	 str r1,[r3,#4]
 533:C:\Users\Depes Crystalline\Desktop\school\Active_Bike_Lighting_System\Radar_Core/Libraries/CMSIS/Include\core_cmSimd.h **** }
 1173              	 .loc 2 533 0
 1174 0abc 07F1B003 	 add r3,r7,#176
 1175 0ac0 D3E90023 	 ldrd r2,[r3]
 1176              	.LBE105:
 1177              	.LBE104:
 1178              	 .loc 1 417 0
 1179 0ac4 07F58461 	 add r1,r7,#1056
 1180 0ac8 C1E90023 	 strd r2,[r1]
 418:../Dave/Generated/CMSIS_DSP/FilteringFunctions/arm_conv_partial_q15.c ****         acc1 = __SMLALD(x1, c0, acc1);
 1181              	 .loc 1 418 0
 1182 0acc D7F8F823 	 ldr r2,[r7,#1016]
 1183 0ad0 D7F8C043 	 ldr r4,[r7,#960]
 1184 0ad4 07F58363 	 add r3,r7,#1048
 1185 0ad8 D3E90001 	 ldrd r0,[r3]
 1186 0adc 07F52373 	 add r3,r7,#652
 1187 0ae0 1A60     	 str r2,[r3]
 1188 0ae2 07F52273 	 add r3,r7,#648
 1189 0ae6 1C60     	 str r4,[r3]
 1190 0ae8 07F52073 	 add r3,r7,#640
 1191 0aec C3E90001 	 strd r0,[r3]
 1192              	.LBB106:
 1193              	.LBB107:
 525:C:\Users\Depes Crystalline\Desktop\school\Active_Bike_Lighting_System\Radar_Core/Libraries/CMSIS/Include\core_cmSimd.h **** 
 1194              	 .loc 2 525 0
 1195 0af0 07F1B801 	 add r1,r7,#184
 1196 0af4 07F52073 	 add r3,r7,#640
 1197 0af8 D3E90023 	 ldrd r2,[r3]
 1198 0afc C1E90023 	 strd r2,[r1]
 528:C:\Users\Depes Crystalline\Desktop\school\Active_Bike_Lighting_System\Radar_Core/Libraries/CMSIS/Include\core_cmSimd.h **** #else               // Big endian
 1199              	 .loc 2 528 0
 1200 0b00 07F1B803 	 add r3,r7,#184
 1201 0b04 1A68     	 ldr r2,[r3]
 1202 0b06 07F1B803 	 add r3,r7,#184
 1203 0b0a 5968     	 ldr r1,[r3,#4]
 1204 0b0c 07F52373 	 add r3,r7,#652
 1205 0b10 1868     	 ldr r0,[r3]
 1206 0b12 07F52273 	 add r3,r7,#648
 1207 0b16 1B68     	 ldr r3,[r3]
 1208              	
 1209 0b18 C0FBC321 	 smlald r2,r1,r0,r3
 1210              	
 1211              	 .thumb
 1212 0b1c 07F1B803 	 add r3,r7,#184
 1213 0b20 1A60     	 str r2,[r3]
 1214 0b22 07F1B803 	 add r3,r7,#184
 1215 0b26 5960     	 str r1,[r3,#4]
 533:C:\Users\Depes Crystalline\Desktop\school\Active_Bike_Lighting_System\Radar_Core/Libraries/CMSIS/Include\core_cmSimd.h **** }
 1216              	 .loc 2 533 0
 1217 0b28 07F1B803 	 add r3,r7,#184
 1218 0b2c D3E90023 	 ldrd r2,[r3]
 1219              	.LBE107:
 1220              	.LBE106:
 1221              	 .loc 1 418 0
 1222 0b30 07F58361 	 add r1,r7,#1048
 1223 0b34 C1E90023 	 strd r2,[r1]
 419:../Dave/Generated/CMSIS_DSP/FilteringFunctions/arm_conv_partial_q15.c ****         acc2 = __SMLALDX(x1, c0, acc2);
 1224              	 .loc 1 419 0
 1225 0b38 D7F8F823 	 ldr r2,[r7,#1016]
 1226 0b3c D7F8C043 	 ldr r4,[r7,#960]
 1227 0b40 07F58263 	 add r3,r7,#1040
 1228 0b44 D3E90001 	 ldrd r0,[r3]
 1229 0b48 07F51F73 	 add r3,r7,#636
 1230 0b4c 1A60     	 str r2,[r3]
 1231 0b4e 07F51E73 	 add r3,r7,#632
 1232 0b52 1C60     	 str r4,[r3]
 1233 0b54 07F51C73 	 add r3,r7,#624
 1234 0b58 C3E90001 	 strd r0,[r3]
 1235              	.LBB108:
 1236              	.LBB109:
 542:C:\Users\Depes Crystalline\Desktop\school\Active_Bike_Lighting_System\Radar_Core/Libraries/CMSIS/Include\core_cmSimd.h **** 
 1237              	 .loc 2 542 0
 1238 0b5c 07F1C001 	 add r1,r7,#192
 1239 0b60 07F51C73 	 add r3,r7,#624
 1240 0b64 D3E90023 	 ldrd r2,[r3]
 1241 0b68 C1E90023 	 strd r2,[r1]
 545:C:\Users\Depes Crystalline\Desktop\school\Active_Bike_Lighting_System\Radar_Core/Libraries/CMSIS/Include\core_cmSimd.h **** #else               // Big endian
 1242              	 .loc 2 545 0
 1243 0b6c 07F1C003 	 add r3,r7,#192
 1244 0b70 1A68     	 ldr r2,[r3]
 1245 0b72 07F1C003 	 add r3,r7,#192
 1246 0b76 5968     	 ldr r1,[r3,#4]
 1247 0b78 07F51F73 	 add r3,r7,#636
 1248 0b7c 1868     	 ldr r0,[r3]
 1249 0b7e 07F51E73 	 add r3,r7,#632
 1250 0b82 1B68     	 ldr r3,[r3]
 1251              	
 1252 0b84 C0FBD321 	 smlaldx r2,r1,r0,r3
 1253              	
 1254              	 .thumb
 1255 0b88 07F1C003 	 add r3,r7,#192
 1256 0b8c 1A60     	 str r2,[r3]
 1257 0b8e 07F1C003 	 add r3,r7,#192
 1258 0b92 5960     	 str r1,[r3,#4]
 1259              	 .loc 2 550 0
 1260 0b94 07F1C003 	 add r3,r7,#192
 1261 0b98 D3E90023 	 ldrd r2,[r3]
 1262              	.LBE109:
 1263              	.LBE108:
 1264              	 .loc 1 419 0
 1265 0b9c 07F58261 	 add r1,r7,#1040
 1266 0ba0 C1E90023 	 strd r2,[r1]
 420:../Dave/Generated/CMSIS_DSP/FilteringFunctions/arm_conv_partial_q15.c ****         acc3 = __SMLALDX(x3, c0, acc3);
 1267              	 .loc 1 420 0
 1268 0ba4 D7F8B823 	 ldr r2,[r7,#952]
 1269 0ba8 D7F8C043 	 ldr r4,[r7,#960]
 1270 0bac 07F58163 	 add r3,r7,#1032
 1271 0bb0 D3E90001 	 ldrd r0,[r3]
 1272 0bb4 07F51B73 	 add r3,r7,#620
 1273 0bb8 1A60     	 str r2,[r3]
 1274 0bba 07F51A73 	 add r3,r7,#616
 1275 0bbe 1C60     	 str r4,[r3]
 1276 0bc0 07F51873 	 add r3,r7,#608
 1277 0bc4 C3E90001 	 strd r0,[r3]
 1278              	.LBB110:
 1279              	.LBB111:
 542:C:\Users\Depes Crystalline\Desktop\school\Active_Bike_Lighting_System\Radar_Core/Libraries/CMSIS/Include\core_cmSimd.h **** 
 1280              	 .loc 2 542 0
 1281 0bc8 07F1C801 	 add r1,r7,#200
 1282 0bcc 07F51873 	 add r3,r7,#608
 1283 0bd0 D3E90023 	 ldrd r2,[r3]
 1284 0bd4 C1E90023 	 strd r2,[r1]
 545:C:\Users\Depes Crystalline\Desktop\school\Active_Bike_Lighting_System\Radar_Core/Libraries/CMSIS/Include\core_cmSimd.h **** #else               // Big endian
 1285              	 .loc 2 545 0
 1286 0bd8 07F1C803 	 add r3,r7,#200
 1287 0bdc 1A68     	 ldr r2,[r3]
 1288 0bde 07F1C803 	 add r3,r7,#200
 1289 0be2 5968     	 ldr r1,[r3,#4]
 1290 0be4 07F51B73 	 add r3,r7,#620
 1291 0be8 1868     	 ldr r0,[r3]
 1292 0bea 07F51A73 	 add r3,r7,#616
 1293 0bee 1B68     	 ldr r3,[r3]
 1294              	
 1295 0bf0 C0FBD321 	 smlaldx r2,r1,r0,r3
 1296              	
 1297              	 .thumb
 1298 0bf4 07F1C803 	 add r3,r7,#200
 1299 0bf8 1A60     	 str r2,[r3]
 1300 0bfa 07F1C803 	 add r3,r7,#200
 1301 0bfe 5960     	 str r1,[r3,#4]
 1302              	 .loc 2 550 0
 1303 0c00 07F1C803 	 add r3,r7,#200
 1304 0c04 D3E90023 	 ldrd r2,[r3]
 1305              	.LBE111:
 1306              	.LBE110:
 1307              	 .loc 1 420 0
 1308 0c08 07F58161 	 add r1,r7,#1032
 1309 0c0c C1E90023 	 strd r2,[r1]
 1310              	.L42:
 421:../Dave/Generated/CMSIS_DSP/FilteringFunctions/arm_conv_partial_q15.c ****       }
 422:../Dave/Generated/CMSIS_DSP/FilteringFunctions/arm_conv_partial_q15.c **** 
 423:../Dave/Generated/CMSIS_DSP/FilteringFunctions/arm_conv_partial_q15.c ****       if(k == 2u)
 1311              	 .loc 1 423 0
 1312 0c10 D7F8F033 	 ldr r3,[r7,#1008]
 1313 0c14 022B     	 cmp r3,#2
 1314 0c16 40F0F280 	 bne .L47
 424:../Dave/Generated/CMSIS_DSP/FilteringFunctions/arm_conv_partial_q15.c ****       {
 425:../Dave/Generated/CMSIS_DSP/FilteringFunctions/arm_conv_partial_q15.c ****         /* Read y[srcBLen - 5], y[srcBLen - 6] */
 426:../Dave/Generated/CMSIS_DSP/FilteringFunctions/arm_conv_partial_q15.c ****         c0 = _SIMD32_OFFSET(py);
 1315              	 .loc 1 426 0
 1316 0c1a 07F5AA73 	 add r3,r7,#340
 1317 0c1e 1B68     	 ldr r3,[r3]
 1318 0c20 1B68     	 ldr r3,[r3]
 1319 0c22 C7F8C033 	 str r3,[r7,#960]
 427:../Dave/Generated/CMSIS_DSP/FilteringFunctions/arm_conv_partial_q15.c **** 
 428:../Dave/Generated/CMSIS_DSP/FilteringFunctions/arm_conv_partial_q15.c ****         /* Read x[7], x[8] */
 429:../Dave/Generated/CMSIS_DSP/FilteringFunctions/arm_conv_partial_q15.c ****         x3 = *__SIMD32(px);
 1320              	 .loc 1 429 0
 1321 0c26 07F5AC73 	 add r3,r7,#344
 1322 0c2a 1B68     	 ldr r3,[r3]
 1323 0c2c 1B68     	 ldr r3,[r3]
 1324 0c2e C7F8B833 	 str r3,[r7,#952]
 430:../Dave/Generated/CMSIS_DSP/FilteringFunctions/arm_conv_partial_q15.c **** 
 431:../Dave/Generated/CMSIS_DSP/FilteringFunctions/arm_conv_partial_q15.c ****         /* Read x[9] */
 432:../Dave/Generated/CMSIS_DSP/FilteringFunctions/arm_conv_partial_q15.c ****         x2 = _SIMD32_OFFSET(px+1);
 1325              	 .loc 1 432 0
 1326 0c32 07F5AC73 	 add r3,r7,#344
 1327 0c36 1B68     	 ldr r3,[r3]
 1328 0c38 D3F80230 	 ldr r3,[r3,#2]
 1329 0c3c C7F8BC33 	 str r3,[r7,#956]
 433:../Dave/Generated/CMSIS_DSP/FilteringFunctions/arm_conv_partial_q15.c **** 		px += 2u;
 1330              	 .loc 1 433 0
 1331 0c40 07F5AC73 	 add r3,r7,#344
 1332 0c44 1B68     	 ldr r3,[r3]
 1333 0c46 1A1D     	 adds r2,r3,#4
 1334 0c48 07F5AC73 	 add r3,r7,#344
 1335 0c4c 1A60     	 str r2,[r3]
 434:../Dave/Generated/CMSIS_DSP/FilteringFunctions/arm_conv_partial_q15.c **** 
 435:../Dave/Generated/CMSIS_DSP/FilteringFunctions/arm_conv_partial_q15.c ****         /* Perform the multiply-accumulates */
 436:../Dave/Generated/CMSIS_DSP/FilteringFunctions/arm_conv_partial_q15.c ****         acc0 = __SMLALDX(x0, c0, acc0);
 1336              	 .loc 1 436 0
 1337 0c4e D7F8FC23 	 ldr r2,[r7,#1020]
 1338 0c52 D7F8C043 	 ldr r4,[r7,#960]
 1339 0c56 07F58463 	 add r3,r7,#1056
 1340 0c5a D3E90001 	 ldrd r0,[r3]
 1341 0c5e 07F51773 	 add r3,r7,#604
 1342 0c62 1A60     	 str r2,[r3]
 1343 0c64 07F51673 	 add r3,r7,#600
 1344 0c68 1C60     	 str r4,[r3]
 1345 0c6a 07F51473 	 add r3,r7,#592
 1346 0c6e C3E90001 	 strd r0,[r3]
 1347              	.LBB112:
 1348              	.LBB113:
 542:C:\Users\Depes Crystalline\Desktop\school\Active_Bike_Lighting_System\Radar_Core/Libraries/CMSIS/Include\core_cmSimd.h **** 
 1349              	 .loc 2 542 0
 1350 0c72 07F1D001 	 add r1,r7,#208
 1351 0c76 07F51473 	 add r3,r7,#592
 1352 0c7a D3E90023 	 ldrd r2,[r3]
 1353 0c7e C1E90023 	 strd r2,[r1]
 545:C:\Users\Depes Crystalline\Desktop\school\Active_Bike_Lighting_System\Radar_Core/Libraries/CMSIS/Include\core_cmSimd.h **** #else               // Big endian
 1354              	 .loc 2 545 0
 1355 0c82 07F1D003 	 add r3,r7,#208
 1356 0c86 1A68     	 ldr r2,[r3]
 1357 0c88 07F1D003 	 add r3,r7,#208
 1358 0c8c 5968     	 ldr r1,[r3,#4]
 1359 0c8e 07F51773 	 add r3,r7,#604
 1360 0c92 1868     	 ldr r0,[r3]
 1361 0c94 07F51673 	 add r3,r7,#600
 1362 0c98 1B68     	 ldr r3,[r3]
 1363              	
 1364 0c9a C0FBD321 	 smlaldx r2,r1,r0,r3
 1365              	
 1366              	 .thumb
 1367 0c9e 07F1D003 	 add r3,r7,#208
 1368 0ca2 1A60     	 str r2,[r3]
 1369 0ca4 07F1D003 	 add r3,r7,#208
 1370 0ca8 5960     	 str r1,[r3,#4]
 1371              	 .loc 2 550 0
 1372 0caa 07F1D003 	 add r3,r7,#208
 1373 0cae D3E90023 	 ldrd r2,[r3]
 1374              	.LBE113:
 1375              	.LBE112:
 1376              	 .loc 1 436 0
 1377 0cb2 07F58461 	 add r1,r7,#1056
 1378 0cb6 C1E90023 	 strd r2,[r1]
 437:../Dave/Generated/CMSIS_DSP/FilteringFunctions/arm_conv_partial_q15.c ****         acc1 = __SMLALDX(x1, c0, acc1);
 1379              	 .loc 1 437 0
 1380 0cba D7F8F823 	 ldr r2,[r7,#1016]
 1381 0cbe D7F8C043 	 ldr r4,[r7,#960]
 1382 0cc2 07F58363 	 add r3,r7,#1048
 1383 0cc6 D3E90001 	 ldrd r0,[r3]
 1384 0cca 07F51373 	 add r3,r7,#588
 1385 0cce 1A60     	 str r2,[r3]
 1386 0cd0 07F51273 	 add r3,r7,#584
 1387 0cd4 1C60     	 str r4,[r3]
 1388 0cd6 07F51073 	 add r3,r7,#576
 1389 0cda C3E90001 	 strd r0,[r3]
 1390              	.LBB114:
 1391              	.LBB115:
 542:C:\Users\Depes Crystalline\Desktop\school\Active_Bike_Lighting_System\Radar_Core/Libraries/CMSIS/Include\core_cmSimd.h **** 
 1392              	 .loc 2 542 0
 1393 0cde 07F1D801 	 add r1,r7,#216
 1394 0ce2 07F51073 	 add r3,r7,#576
 1395 0ce6 D3E90023 	 ldrd r2,[r3]
 1396 0cea C1E90023 	 strd r2,[r1]
 545:C:\Users\Depes Crystalline\Desktop\school\Active_Bike_Lighting_System\Radar_Core/Libraries/CMSIS/Include\core_cmSimd.h **** #else               // Big endian
 1397              	 .loc 2 545 0
 1398 0cee 07F1D803 	 add r3,r7,#216
 1399 0cf2 1A68     	 ldr r2,[r3]
 1400 0cf4 07F1D803 	 add r3,r7,#216
 1401 0cf8 5968     	 ldr r1,[r3,#4]
 1402 0cfa 07F51373 	 add r3,r7,#588
 1403 0cfe 1868     	 ldr r0,[r3]
 1404 0d00 07F51273 	 add r3,r7,#584
 1405 0d04 1B68     	 ldr r3,[r3]
 1406              	
 1407 0d06 C0FBD321 	 smlaldx r2,r1,r0,r3
 1408              	
 1409              	 .thumb
 1410 0d0a 07F1D803 	 add r3,r7,#216
 1411 0d0e 1A60     	 str r2,[r3]
 1412 0d10 07F1D803 	 add r3,r7,#216
 1413 0d14 5960     	 str r1,[r3,#4]
 1414              	 .loc 2 550 0
 1415 0d16 07F1D803 	 add r3,r7,#216
 1416 0d1a D3E90023 	 ldrd r2,[r3]
 1417              	.LBE115:
 1418              	.LBE114:
 1419              	 .loc 1 437 0
 1420 0d1e 07F58361 	 add r1,r7,#1048
 1421 0d22 C1E90023 	 strd r2,[r1]
 438:../Dave/Generated/CMSIS_DSP/FilteringFunctions/arm_conv_partial_q15.c ****         acc2 = __SMLALDX(x3, c0, acc2);
 1422              	 .loc 1 438 0
 1423 0d26 D7F8B823 	 ldr r2,[r7,#952]
 1424 0d2a D7F8C043 	 ldr r4,[r7,#960]
 1425 0d2e 07F58263 	 add r3,r7,#1040
 1426 0d32 D3E90001 	 ldrd r0,[r3]
 1427 0d36 07F50F73 	 add r3,r7,#572
 1428 0d3a 1A60     	 str r2,[r3]
 1429 0d3c 07F50E73 	 add r3,r7,#568
 1430 0d40 1C60     	 str r4,[r3]
 1431 0d42 07F50C73 	 add r3,r7,#560
 1432 0d46 C3E90001 	 strd r0,[r3]
 1433              	.LBB116:
 1434              	.LBB117:
 542:C:\Users\Depes Crystalline\Desktop\school\Active_Bike_Lighting_System\Radar_Core/Libraries/CMSIS/Include\core_cmSimd.h **** 
 1435              	 .loc 2 542 0
 1436 0d4a 07F1E001 	 add r1,r7,#224
 1437 0d4e 07F50C73 	 add r3,r7,#560
 1438 0d52 D3E90023 	 ldrd r2,[r3]
 1439 0d56 C1E90023 	 strd r2,[r1]
 545:C:\Users\Depes Crystalline\Desktop\school\Active_Bike_Lighting_System\Radar_Core/Libraries/CMSIS/Include\core_cmSimd.h **** #else               // Big endian
 1440              	 .loc 2 545 0
 1441 0d5a 07F1E003 	 add r3,r7,#224
 1442 0d5e 1A68     	 ldr r2,[r3]
 1443 0d60 07F1E003 	 add r3,r7,#224
 1444 0d64 5968     	 ldr r1,[r3,#4]
 1445 0d66 07F50F73 	 add r3,r7,#572
 1446 0d6a 1868     	 ldr r0,[r3]
 1447 0d6c 07F50E73 	 add r3,r7,#568
 1448 0d70 1B68     	 ldr r3,[r3]
 1449              	
 1450 0d72 C0FBD321 	 smlaldx r2,r1,r0,r3
 1451              	
 1452              	 .thumb
 1453 0d76 07F1E003 	 add r3,r7,#224
 1454 0d7a 1A60     	 str r2,[r3]
 1455 0d7c 07F1E003 	 add r3,r7,#224
 1456 0d80 5960     	 str r1,[r3,#4]
 1457              	 .loc 2 550 0
 1458 0d82 07F1E003 	 add r3,r7,#224
 1459 0d86 D3E90023 	 ldrd r2,[r3]
 1460              	.LBE117:
 1461              	.LBE116:
 1462              	 .loc 1 438 0
 1463 0d8a 07F58261 	 add r1,r7,#1040
 1464 0d8e C1E90023 	 strd r2,[r1]
 439:../Dave/Generated/CMSIS_DSP/FilteringFunctions/arm_conv_partial_q15.c ****         acc3 = __SMLALDX(x2, c0, acc3);
 1465              	 .loc 1 439 0
 1466 0d92 D7F8BC23 	 ldr r2,[r7,#956]
 1467 0d96 D7F8C043 	 ldr r4,[r7,#960]
 1468 0d9a 07F58163 	 add r3,r7,#1032
 1469 0d9e D3E90001 	 ldrd r0,[r3]
 1470 0da2 07F50B73 	 add r3,r7,#556
 1471 0da6 1A60     	 str r2,[r3]
 1472 0da8 07F50A73 	 add r3,r7,#552
 1473 0dac 1C60     	 str r4,[r3]
 1474 0dae 07F50873 	 add r3,r7,#544
 1475 0db2 C3E90001 	 strd r0,[r3]
 1476              	.LBB118:
 1477              	.LBB119:
 542:C:\Users\Depes Crystalline\Desktop\school\Active_Bike_Lighting_System\Radar_Core/Libraries/CMSIS/Include\core_cmSimd.h **** 
 1478              	 .loc 2 542 0
 1479 0db6 07F1E801 	 add r1,r7,#232
 1480 0dba 07F50873 	 add r3,r7,#544
 1481 0dbe D3E90023 	 ldrd r2,[r3]
 1482 0dc2 C1E90023 	 strd r2,[r1]
 545:C:\Users\Depes Crystalline\Desktop\school\Active_Bike_Lighting_System\Radar_Core/Libraries/CMSIS/Include\core_cmSimd.h **** #else               // Big endian
 1483              	 .loc 2 545 0
 1484 0dc6 07F1E803 	 add r3,r7,#232
 1485 0dca 1A68     	 ldr r2,[r3]
 1486 0dcc 07F1E803 	 add r3,r7,#232
 1487 0dd0 5968     	 ldr r1,[r3,#4]
 1488 0dd2 07F50B73 	 add r3,r7,#556
 1489 0dd6 1868     	 ldr r0,[r3]
 1490 0dd8 07F50A73 	 add r3,r7,#552
 1491 0ddc 1B68     	 ldr r3,[r3]
 1492              	
 1493 0dde C0FBD321 	 smlaldx r2,r1,r0,r3
 1494              	
 1495              	 .thumb
 1496 0de2 07F1E803 	 add r3,r7,#232
 1497 0de6 1A60     	 str r2,[r3]
 1498 0de8 07F1E803 	 add r3,r7,#232
 1499 0dec 5960     	 str r1,[r3,#4]
 1500              	 .loc 2 550 0
 1501 0dee 07F1E803 	 add r3,r7,#232
 1502 0df2 D3E90023 	 ldrd r2,[r3]
 1503              	.LBE119:
 1504              	.LBE118:
 1505              	 .loc 1 439 0
 1506 0df6 07F58161 	 add r1,r7,#1032
 1507 0dfa C1E90023 	 strd r2,[r1]
 1508              	.L47:
 440:../Dave/Generated/CMSIS_DSP/FilteringFunctions/arm_conv_partial_q15.c ****       }
 441:../Dave/Generated/CMSIS_DSP/FilteringFunctions/arm_conv_partial_q15.c **** 
 442:../Dave/Generated/CMSIS_DSP/FilteringFunctions/arm_conv_partial_q15.c ****       if(k == 3u)
 1509              	 .loc 1 442 0
 1510 0dfe D7F8F033 	 ldr r3,[r7,#1008]
 1511 0e02 032B     	 cmp r3,#3
 1512 0e04 40F0DD81 	 bne .L52
 443:../Dave/Generated/CMSIS_DSP/FilteringFunctions/arm_conv_partial_q15.c ****       {
 444:../Dave/Generated/CMSIS_DSP/FilteringFunctions/arm_conv_partial_q15.c ****         /* Read y[srcBLen - 5], y[srcBLen - 6] */
 445:../Dave/Generated/CMSIS_DSP/FilteringFunctions/arm_conv_partial_q15.c ****         c0 = _SIMD32_OFFSET(py);
 1513              	 .loc 1 445 0
 1514 0e08 07F5AA73 	 add r3,r7,#340
 1515 0e0c 1B68     	 ldr r3,[r3]
 1516 0e0e 1B68     	 ldr r3,[r3]
 1517 0e10 C7F8C033 	 str r3,[r7,#960]
 446:../Dave/Generated/CMSIS_DSP/FilteringFunctions/arm_conv_partial_q15.c **** 
 447:../Dave/Generated/CMSIS_DSP/FilteringFunctions/arm_conv_partial_q15.c ****         /* Read x[7], x[8] */
 448:../Dave/Generated/CMSIS_DSP/FilteringFunctions/arm_conv_partial_q15.c ****         x3 = *__SIMD32(px);
 1518              	 .loc 1 448 0
 1519 0e14 07F5AC73 	 add r3,r7,#344
 1520 0e18 1B68     	 ldr r3,[r3]
 1521 0e1a 1B68     	 ldr r3,[r3]
 1522 0e1c C7F8B833 	 str r3,[r7,#952]
 449:../Dave/Generated/CMSIS_DSP/FilteringFunctions/arm_conv_partial_q15.c **** 
 450:../Dave/Generated/CMSIS_DSP/FilteringFunctions/arm_conv_partial_q15.c ****         /* Read x[9] */
 451:../Dave/Generated/CMSIS_DSP/FilteringFunctions/arm_conv_partial_q15.c ****         x2 = _SIMD32_OFFSET(px+1);
 1523              	 .loc 1 451 0
 1524 0e20 07F5AC73 	 add r3,r7,#344
 1525 0e24 1B68     	 ldr r3,[r3]
 1526 0e26 D3F80230 	 ldr r3,[r3,#2]
 1527 0e2a C7F8BC33 	 str r3,[r7,#956]
 452:../Dave/Generated/CMSIS_DSP/FilteringFunctions/arm_conv_partial_q15.c **** 
 453:../Dave/Generated/CMSIS_DSP/FilteringFunctions/arm_conv_partial_q15.c ****         /* Perform the multiply-accumulates */
 454:../Dave/Generated/CMSIS_DSP/FilteringFunctions/arm_conv_partial_q15.c ****         acc0 = __SMLALDX(x0, c0, acc0);
 1528              	 .loc 1 454 0
 1529 0e2e D7F8FC23 	 ldr r2,[r7,#1020]
 1530 0e32 D7F8C043 	 ldr r4,[r7,#960]
 1531 0e36 07F58463 	 add r3,r7,#1056
 1532 0e3a D3E90001 	 ldrd r0,[r3]
 1533 0e3e 07F50773 	 add r3,r7,#540
 1534 0e42 1A60     	 str r2,[r3]
 1535 0e44 07F50673 	 add r3,r7,#536
 1536 0e48 1C60     	 str r4,[r3]
 1537 0e4a 07F50473 	 add r3,r7,#528
 1538 0e4e C3E90001 	 strd r0,[r3]
 1539              	.LBB120:
 1540              	.LBB121:
 542:C:\Users\Depes Crystalline\Desktop\school\Active_Bike_Lighting_System\Radar_Core/Libraries/CMSIS/Include\core_cmSimd.h **** 
 1541              	 .loc 2 542 0
 1542 0e52 07F1F001 	 add r1,r7,#240
 1543 0e56 07F50473 	 add r3,r7,#528
 1544 0e5a D3E90023 	 ldrd r2,[r3]
 1545 0e5e C1E90023 	 strd r2,[r1]
 545:C:\Users\Depes Crystalline\Desktop\school\Active_Bike_Lighting_System\Radar_Core/Libraries/CMSIS/Include\core_cmSimd.h **** #else               // Big endian
 1546              	 .loc 2 545 0
 1547 0e62 07F1F003 	 add r3,r7,#240
 1548 0e66 1A68     	 ldr r2,[r3]
 1549 0e68 07F1F003 	 add r3,r7,#240
 1550 0e6c 5968     	 ldr r1,[r3,#4]
 1551 0e6e 07F50773 	 add r3,r7,#540
 1552 0e72 1868     	 ldr r0,[r3]
 1553 0e74 07F50673 	 add r3,r7,#536
 1554 0e78 1B68     	 ldr r3,[r3]
 1555              	
 1556 0e7a C0FBD321 	 smlaldx r2,r1,r0,r3
 1557              	
 1558              	 .thumb
 1559 0e7e 07F1F003 	 add r3,r7,#240
 1560 0e82 1A60     	 str r2,[r3]
 1561 0e84 07F1F003 	 add r3,r7,#240
 1562 0e88 5960     	 str r1,[r3,#4]
 1563              	 .loc 2 550 0
 1564 0e8a 07F1F003 	 add r3,r7,#240
 1565 0e8e D3E90023 	 ldrd r2,[r3]
 1566              	.LBE121:
 1567              	.LBE120:
 1568              	 .loc 1 454 0
 1569 0e92 07F58461 	 add r1,r7,#1056
 1570 0e96 C1E90023 	 strd r2,[r1]
 455:../Dave/Generated/CMSIS_DSP/FilteringFunctions/arm_conv_partial_q15.c ****         acc1 = __SMLALDX(x1, c0, acc1);
 1571              	 .loc 1 455 0
 1572 0e9a D7F8F823 	 ldr r2,[r7,#1016]
 1573 0e9e D7F8C043 	 ldr r4,[r7,#960]
 1574 0ea2 07F58363 	 add r3,r7,#1048
 1575 0ea6 D3E90001 	 ldrd r0,[r3]
 1576 0eaa 07F50373 	 add r3,r7,#524
 1577 0eae 1A60     	 str r2,[r3]
 1578 0eb0 07F50273 	 add r3,r7,#520
 1579 0eb4 1C60     	 str r4,[r3]
 1580 0eb6 07F50073 	 add r3,r7,#512
 1581 0eba C3E90001 	 strd r0,[r3]
 1582              	.LBB122:
 1583              	.LBB123:
 542:C:\Users\Depes Crystalline\Desktop\school\Active_Bike_Lighting_System\Radar_Core/Libraries/CMSIS/Include\core_cmSimd.h **** 
 1584              	 .loc 2 542 0
 1585 0ebe 07F1F801 	 add r1,r7,#248
 1586 0ec2 07F50073 	 add r3,r7,#512
 1587 0ec6 D3E90023 	 ldrd r2,[r3]
 1588 0eca C1E90023 	 strd r2,[r1]
 545:C:\Users\Depes Crystalline\Desktop\school\Active_Bike_Lighting_System\Radar_Core/Libraries/CMSIS/Include\core_cmSimd.h **** #else               // Big endian
 1589              	 .loc 2 545 0
 1590 0ece 07F1F803 	 add r3,r7,#248
 1591 0ed2 1A68     	 ldr r2,[r3]
 1592 0ed4 07F1F803 	 add r3,r7,#248
 1593 0ed8 5968     	 ldr r1,[r3,#4]
 1594 0eda 07F50373 	 add r3,r7,#524
 1595 0ede 1868     	 ldr r0,[r3]
 1596 0ee0 07F50273 	 add r3,r7,#520
 1597 0ee4 1B68     	 ldr r3,[r3]
 1598              	
 1599 0ee6 C0FBD321 	 smlaldx r2,r1,r0,r3
 1600              	
 1601              	 .thumb
 1602 0eea 07F1F803 	 add r3,r7,#248
 1603 0eee 1A60     	 str r2,[r3]
 1604 0ef0 07F1F803 	 add r3,r7,#248
 1605 0ef4 5960     	 str r1,[r3,#4]
 1606              	 .loc 2 550 0
 1607 0ef6 07F1F803 	 add r3,r7,#248
 1608 0efa D3E90023 	 ldrd r2,[r3]
 1609              	.LBE123:
 1610              	.LBE122:
 1611              	 .loc 1 455 0
 1612 0efe 07F58361 	 add r1,r7,#1048
 1613 0f02 C1E90023 	 strd r2,[r1]
 456:../Dave/Generated/CMSIS_DSP/FilteringFunctions/arm_conv_partial_q15.c ****         acc2 = __SMLALDX(x3, c0, acc2);
 1614              	 .loc 1 456 0
 1615 0f06 D7F8B823 	 ldr r2,[r7,#952]
 1616 0f0a D7F8C043 	 ldr r4,[r7,#960]
 1617 0f0e 07F58263 	 add r3,r7,#1040
 1618 0f12 D3E90001 	 ldrd r0,[r3]
 1619 0f16 07F5FE73 	 add r3,r7,#508
 1620 0f1a 1A60     	 str r2,[r3]
 1621 0f1c 07F5FC73 	 add r3,r7,#504
 1622 0f20 1C60     	 str r4,[r3]
 1623 0f22 07F5F873 	 add r3,r7,#496
 1624 0f26 C3E90001 	 strd r0,[r3]
 1625              	.LBB124:
 1626              	.LBB125:
 542:C:\Users\Depes Crystalline\Desktop\school\Active_Bike_Lighting_System\Radar_Core/Libraries/CMSIS/Include\core_cmSimd.h **** 
 1627              	 .loc 2 542 0
 1628 0f2a 07F58071 	 add r1,r7,#256
 1629 0f2e 07F5F873 	 add r3,r7,#496
 1630 0f32 D3E90023 	 ldrd r2,[r3]
 1631 0f36 C1E90023 	 strd r2,[r1]
 545:C:\Users\Depes Crystalline\Desktop\school\Active_Bike_Lighting_System\Radar_Core/Libraries/CMSIS/Include\core_cmSimd.h **** #else               // Big endian
 1632              	 .loc 2 545 0
 1633 0f3a 07F58073 	 add r3,r7,#256
 1634 0f3e 1A68     	 ldr r2,[r3]
 1635 0f40 07F58073 	 add r3,r7,#256
 1636 0f44 5968     	 ldr r1,[r3,#4]
 1637 0f46 07F5FE73 	 add r3,r7,#508
 1638 0f4a 1868     	 ldr r0,[r3]
 1639 0f4c 07F5FC73 	 add r3,r7,#504
 1640 0f50 1B68     	 ldr r3,[r3]
 1641              	
 1642 0f52 C0FBD321 	 smlaldx r2,r1,r0,r3
 1643              	
 1644              	 .thumb
 1645 0f56 07F58073 	 add r3,r7,#256
 1646 0f5a 1A60     	 str r2,[r3]
 1647 0f5c 07F58073 	 add r3,r7,#256
 1648 0f60 5960     	 str r1,[r3,#4]
 1649              	 .loc 2 550 0
 1650 0f62 07F58073 	 add r3,r7,#256
 1651 0f66 D3E90023 	 ldrd r2,[r3]
 1652              	.LBE125:
 1653              	.LBE124:
 1654              	 .loc 1 456 0
 1655 0f6a 07F58261 	 add r1,r7,#1040
 1656 0f6e C1E90023 	 strd r2,[r1]
 457:../Dave/Generated/CMSIS_DSP/FilteringFunctions/arm_conv_partial_q15.c ****         acc3 = __SMLALDX(x2, c0, acc3);
 1657              	 .loc 1 457 0
 1658 0f72 D7F8BC23 	 ldr r2,[r7,#956]
 1659 0f76 D7F8C043 	 ldr r4,[r7,#960]
 1660 0f7a 07F58163 	 add r3,r7,#1032
 1661 0f7e D3E90001 	 ldrd r0,[r3]
 1662 0f82 07F5F673 	 add r3,r7,#492
 1663 0f86 1A60     	 str r2,[r3]
 1664 0f88 07F5F473 	 add r3,r7,#488
 1665 0f8c 1C60     	 str r4,[r3]
 1666 0f8e 07F5F073 	 add r3,r7,#480
 1667 0f92 C3E90001 	 strd r0,[r3]
 1668              	.LBB126:
 1669              	.LBB127:
 542:C:\Users\Depes Crystalline\Desktop\school\Active_Bike_Lighting_System\Radar_Core/Libraries/CMSIS/Include\core_cmSimd.h **** 
 1670              	 .loc 2 542 0
 1671 0f96 07F58471 	 add r1,r7,#264
 1672 0f9a 07F5F073 	 add r3,r7,#480
 1673 0f9e D3E90023 	 ldrd r2,[r3]
 1674 0fa2 C1E90023 	 strd r2,[r1]
 545:C:\Users\Depes Crystalline\Desktop\school\Active_Bike_Lighting_System\Radar_Core/Libraries/CMSIS/Include\core_cmSimd.h **** #else               // Big endian
 1675              	 .loc 2 545 0
 1676 0fa6 07F58473 	 add r3,r7,#264
 1677 0faa 1A68     	 ldr r2,[r3]
 1678 0fac 07F58473 	 add r3,r7,#264
 1679 0fb0 5968     	 ldr r1,[r3,#4]
 1680 0fb2 07F5F673 	 add r3,r7,#492
 1681 0fb6 1868     	 ldr r0,[r3]
 1682 0fb8 07F5F473 	 add r3,r7,#488
 1683 0fbc 1B68     	 ldr r3,[r3]
 1684              	
 1685 0fbe C0FBD321 	 smlaldx r2,r1,r0,r3
 1686              	
 1687              	 .thumb
 1688 0fc2 07F58473 	 add r3,r7,#264
 1689 0fc6 1A60     	 str r2,[r3]
 1690 0fc8 07F58473 	 add r3,r7,#264
 1691 0fcc 5960     	 str r1,[r3,#4]
 1692              	 .loc 2 550 0
 1693 0fce 07F58473 	 add r3,r7,#264
 1694 0fd2 D3E90023 	 ldrd r2,[r3]
 1695              	.LBE127:
 1696              	.LBE126:
 1697              	 .loc 1 457 0
 1698 0fd6 07F58161 	 add r1,r7,#1032
 1699 0fda C1E90023 	 strd r2,[r1]
 458:../Dave/Generated/CMSIS_DSP/FilteringFunctions/arm_conv_partial_q15.c **** 
 459:../Dave/Generated/CMSIS_DSP/FilteringFunctions/arm_conv_partial_q15.c **** 		c0 = *(py-1);
 1700              	 .loc 1 459 0
 1701 0fde 07F5AA73 	 add r3,r7,#340
 1702 0fe2 1B68     	 ldr r3,[r3]
 1703 0fe4 023B     	 subs r3,r3,#2
 1704 0fe6 1B88     	 ldrh r3,[r3]
 1705 0fe8 1BB2     	 sxth r3,r3
 1706 0fea C7F8C033 	 str r3,[r7,#960]
 460:../Dave/Generated/CMSIS_DSP/FilteringFunctions/arm_conv_partial_q15.c **** 
 461:../Dave/Generated/CMSIS_DSP/FilteringFunctions/arm_conv_partial_q15.c **** #ifdef  ARM_MATH_BIG_ENDIAN
 462:../Dave/Generated/CMSIS_DSP/FilteringFunctions/arm_conv_partial_q15.c **** 
 463:../Dave/Generated/CMSIS_DSP/FilteringFunctions/arm_conv_partial_q15.c ****         c0 = c0 << 16u;
 464:../Dave/Generated/CMSIS_DSP/FilteringFunctions/arm_conv_partial_q15.c **** #else
 465:../Dave/Generated/CMSIS_DSP/FilteringFunctions/arm_conv_partial_q15.c **** 
 466:../Dave/Generated/CMSIS_DSP/FilteringFunctions/arm_conv_partial_q15.c ****         c0 = c0 & 0x0000FFFF;
 1707              	 .loc 1 466 0
 1708 0fee D7F8C033 	 ldr r3,[r7,#960]
 1709 0ff2 9BB2     	 uxth r3,r3
 1710 0ff4 C7F8C033 	 str r3,[r7,#960]
 467:../Dave/Generated/CMSIS_DSP/FilteringFunctions/arm_conv_partial_q15.c **** #endif /*      #ifdef  ARM_MATH_BIG_ENDIAN     */
 468:../Dave/Generated/CMSIS_DSP/FilteringFunctions/arm_conv_partial_q15.c **** 
 469:../Dave/Generated/CMSIS_DSP/FilteringFunctions/arm_conv_partial_q15.c ****         /* Read x[10] */
 470:../Dave/Generated/CMSIS_DSP/FilteringFunctions/arm_conv_partial_q15.c ****         x3 =  _SIMD32_OFFSET(px+2);
 1711              	 .loc 1 470 0
 1712 0ff8 07F5AC73 	 add r3,r7,#344
 1713 0ffc 1B68     	 ldr r3,[r3]
 1714 0ffe 5B68     	 ldr r3,[r3,#4]
 1715 1000 C7F8B833 	 str r3,[r7,#952]
 471:../Dave/Generated/CMSIS_DSP/FilteringFunctions/arm_conv_partial_q15.c **** 		px += 3u;
 1716              	 .loc 1 471 0
 1717 1004 07F5AC73 	 add r3,r7,#344
 1718 1008 1B68     	 ldr r3,[r3]
 1719 100a 9A1D     	 adds r2,r3,#6
 1720 100c 07F5AC73 	 add r3,r7,#344
 1721 1010 1A60     	 str r2,[r3]
 472:../Dave/Generated/CMSIS_DSP/FilteringFunctions/arm_conv_partial_q15.c **** 
 473:../Dave/Generated/CMSIS_DSP/FilteringFunctions/arm_conv_partial_q15.c ****         /* Perform the multiply-accumulates */
 474:../Dave/Generated/CMSIS_DSP/FilteringFunctions/arm_conv_partial_q15.c ****         acc0 = __SMLALDX(x1, c0, acc0);
 1722              	 .loc 1 474 0
 1723 1012 D7F8F823 	 ldr r2,[r7,#1016]
 1724 1016 D7F8C043 	 ldr r4,[r7,#960]
 1725 101a 07F58463 	 add r3,r7,#1056
 1726 101e D3E90001 	 ldrd r0,[r3]
 1727 1022 07F5EE73 	 add r3,r7,#476
 1728 1026 1A60     	 str r2,[r3]
 1729 1028 07F5EC73 	 add r3,r7,#472
 1730 102c 1C60     	 str r4,[r3]
 1731 102e 07F5E873 	 add r3,r7,#464
 1732 1032 C3E90001 	 strd r0,[r3]
 1733              	.LBB128:
 1734              	.LBB129:
 542:C:\Users\Depes Crystalline\Desktop\school\Active_Bike_Lighting_System\Radar_Core/Libraries/CMSIS/Include\core_cmSimd.h **** 
 1735              	 .loc 2 542 0
 1736 1036 07F58871 	 add r1,r7,#272
 1737 103a 07F5E873 	 add r3,r7,#464
 1738 103e D3E90023 	 ldrd r2,[r3]
 1739 1042 C1E90023 	 strd r2,[r1]
 545:C:\Users\Depes Crystalline\Desktop\school\Active_Bike_Lighting_System\Radar_Core/Libraries/CMSIS/Include\core_cmSimd.h **** #else               // Big endian
 1740              	 .loc 2 545 0
 1741 1046 07F58873 	 add r3,r7,#272
 1742 104a 1A68     	 ldr r2,[r3]
 1743 104c 07F58873 	 add r3,r7,#272
 1744 1050 5968     	 ldr r1,[r3,#4]
 1745 1052 07F5EE73 	 add r3,r7,#476
 1746 1056 1868     	 ldr r0,[r3]
 1747 1058 07F5EC73 	 add r3,r7,#472
 1748 105c 1B68     	 ldr r3,[r3]
 1749              	
 1750 105e C0FBD321 	 smlaldx r2,r1,r0,r3
 1751              	
 1752              	 .thumb
 1753 1062 07F58873 	 add r3,r7,#272
 1754 1066 1A60     	 str r2,[r3]
 1755 1068 07F58873 	 add r3,r7,#272
 1756 106c 5960     	 str r1,[r3,#4]
 1757              	 .loc 2 550 0
 1758 106e 07F58873 	 add r3,r7,#272
 1759 1072 D3E90023 	 ldrd r2,[r3]
 1760              	.LBE129:
 1761              	.LBE128:
 1762              	 .loc 1 474 0
 1763 1076 07F58461 	 add r1,r7,#1056
 1764 107a C1E90023 	 strd r2,[r1]
 475:../Dave/Generated/CMSIS_DSP/FilteringFunctions/arm_conv_partial_q15.c ****         acc1 = __SMLALD(x2, c0, acc1);
 1765              	 .loc 1 475 0
 1766 107e D7F8BC23 	 ldr r2,[r7,#956]
 1767 1082 D7F8C043 	 ldr r4,[r7,#960]
 1768 1086 07F58363 	 add r3,r7,#1048
 1769 108a D3E90001 	 ldrd r0,[r3]
 1770 108e 07F5E673 	 add r3,r7,#460
 1771 1092 1A60     	 str r2,[r3]
 1772 1094 07F5E473 	 add r3,r7,#456
 1773 1098 1C60     	 str r4,[r3]
 1774 109a 07F5E073 	 add r3,r7,#448
 1775 109e C3E90001 	 strd r0,[r3]
 1776              	.LBB130:
 1777              	.LBB131:
 525:C:\Users\Depes Crystalline\Desktop\school\Active_Bike_Lighting_System\Radar_Core/Libraries/CMSIS/Include\core_cmSimd.h **** 
 1778              	 .loc 2 525 0
 1779 10a2 07F58C71 	 add r1,r7,#280
 1780 10a6 07F5E073 	 add r3,r7,#448
 1781 10aa D3E90023 	 ldrd r2,[r3]
 1782 10ae C1E90023 	 strd r2,[r1]
 528:C:\Users\Depes Crystalline\Desktop\school\Active_Bike_Lighting_System\Radar_Core/Libraries/CMSIS/Include\core_cmSimd.h **** #else               // Big endian
 1783              	 .loc 2 528 0
 1784 10b2 07F58C73 	 add r3,r7,#280
 1785 10b6 1A68     	 ldr r2,[r3]
 1786 10b8 07F58C73 	 add r3,r7,#280
 1787 10bc 5968     	 ldr r1,[r3,#4]
 1788 10be 07F5E673 	 add r3,r7,#460
 1789 10c2 1868     	 ldr r0,[r3]
 1790 10c4 07F5E473 	 add r3,r7,#456
 1791 10c8 1B68     	 ldr r3,[r3]
 1792              	
 1793 10ca C0FBC321 	 smlald r2,r1,r0,r3
 1794              	
 1795              	 .thumb
 1796 10ce 07F58C73 	 add r3,r7,#280
 1797 10d2 1A60     	 str r2,[r3]
 1798 10d4 07F58C73 	 add r3,r7,#280
 1799 10d8 5960     	 str r1,[r3,#4]
 533:C:\Users\Depes Crystalline\Desktop\school\Active_Bike_Lighting_System\Radar_Core/Libraries/CMSIS/Include\core_cmSimd.h **** }
 1800              	 .loc 2 533 0
 1801 10da 07F58C73 	 add r3,r7,#280
 1802 10de D3E90023 	 ldrd r2,[r3]
 1803              	.LBE131:
 1804              	.LBE130:
 1805              	 .loc 1 475 0
 1806 10e2 07F58361 	 add r1,r7,#1048
 1807 10e6 C1E90023 	 strd r2,[r1]
 476:../Dave/Generated/CMSIS_DSP/FilteringFunctions/arm_conv_partial_q15.c ****         acc2 = __SMLALDX(x2, c0, acc2);
 1808              	 .loc 1 476 0
 1809 10ea D7F8BC23 	 ldr r2,[r7,#956]
 1810 10ee D7F8C043 	 ldr r4,[r7,#960]
 1811 10f2 07F58263 	 add r3,r7,#1040
 1812 10f6 D3E90001 	 ldrd r0,[r3]
 1813 10fa 07F5DE73 	 add r3,r7,#444
 1814 10fe 1A60     	 str r2,[r3]
 1815 1100 07F5DC73 	 add r3,r7,#440
 1816 1104 1C60     	 str r4,[r3]
 1817 1106 07F5D873 	 add r3,r7,#432
 1818 110a C3E90001 	 strd r0,[r3]
 1819              	.LBB132:
 1820              	.LBB133:
 542:C:\Users\Depes Crystalline\Desktop\school\Active_Bike_Lighting_System\Radar_Core/Libraries/CMSIS/Include\core_cmSimd.h **** 
 1821              	 .loc 2 542 0
 1822 110e 07F59071 	 add r1,r7,#288
 1823 1112 07F5D873 	 add r3,r7,#432
 1824 1116 D3E90023 	 ldrd r2,[r3]
 1825 111a C1E90023 	 strd r2,[r1]
 545:C:\Users\Depes Crystalline\Desktop\school\Active_Bike_Lighting_System\Radar_Core/Libraries/CMSIS/Include\core_cmSimd.h **** #else               // Big endian
 1826              	 .loc 2 545 0
 1827 111e 07F59073 	 add r3,r7,#288
 1828 1122 1A68     	 ldr r2,[r3]
 1829 1124 07F59073 	 add r3,r7,#288
 1830 1128 5968     	 ldr r1,[r3,#4]
 1831 112a 07F5DE73 	 add r3,r7,#444
 1832 112e 1868     	 ldr r0,[r3]
 1833 1130 07F5DC73 	 add r3,r7,#440
 1834 1134 1B68     	 ldr r3,[r3]
 1835              	
 1836 1136 C0FBD321 	 smlaldx r2,r1,r0,r3
 1837              	
 1838              	 .thumb
 1839 113a 07F59073 	 add r3,r7,#288
 1840 113e 1A60     	 str r2,[r3]
 1841 1140 07F59073 	 add r3,r7,#288
 1842 1144 5960     	 str r1,[r3,#4]
 1843              	 .loc 2 550 0
 1844 1146 07F59073 	 add r3,r7,#288
 1845 114a D3E90023 	 ldrd r2,[r3]
 1846              	.LBE133:
 1847              	.LBE132:
 1848              	 .loc 1 476 0
 1849 114e 07F58261 	 add r1,r7,#1040
 1850 1152 C1E90023 	 strd r2,[r1]
 477:../Dave/Generated/CMSIS_DSP/FilteringFunctions/arm_conv_partial_q15.c ****         acc3 = __SMLALDX(x3, c0, acc3);
 1851              	 .loc 1 477 0
 1852 1156 D7F8B823 	 ldr r2,[r7,#952]
 1853 115a D7F8C043 	 ldr r4,[r7,#960]
 1854 115e 07F58163 	 add r3,r7,#1032
 1855 1162 D3E90001 	 ldrd r0,[r3]
 1856 1166 07F5D673 	 add r3,r7,#428
 1857 116a 1A60     	 str r2,[r3]
 1858 116c 07F5D473 	 add r3,r7,#424
 1859 1170 1C60     	 str r4,[r3]
 1860 1172 07F5D073 	 add r3,r7,#416
 1861 1176 C3E90001 	 strd r0,[r3]
 1862              	.LBB134:
 1863              	.LBB135:
 542:C:\Users\Depes Crystalline\Desktop\school\Active_Bike_Lighting_System\Radar_Core/Libraries/CMSIS/Include\core_cmSimd.h **** 
 1864              	 .loc 2 542 0
 1865 117a 07F59471 	 add r1,r7,#296
 1866 117e 07F5D073 	 add r3,r7,#416
 1867 1182 D3E90023 	 ldrd r2,[r3]
 1868 1186 C1E90023 	 strd r2,[r1]
 545:C:\Users\Depes Crystalline\Desktop\school\Active_Bike_Lighting_System\Radar_Core/Libraries/CMSIS/Include\core_cmSimd.h **** #else               // Big endian
 1869              	 .loc 2 545 0
 1870 118a 07F59473 	 add r3,r7,#296
 1871 118e 1A68     	 ldr r2,[r3]
 1872 1190 07F59473 	 add r3,r7,#296
 1873 1194 5968     	 ldr r1,[r3,#4]
 1874 1196 07F5D673 	 add r3,r7,#428
 1875 119a 1868     	 ldr r0,[r3]
 1876 119c 07F5D473 	 add r3,r7,#424
 1877 11a0 1B68     	 ldr r3,[r3]
 1878              	
 1879 11a2 C0FBD321 	 smlaldx r2,r1,r0,r3
 1880              	
 1881              	 .thumb
 1882 11a6 07F59473 	 add r3,r7,#296
 1883 11aa 1A60     	 str r2,[r3]
 1884 11ac 07F59473 	 add r3,r7,#296
 1885 11b0 5960     	 str r1,[r3,#4]
 1886              	 .loc 2 550 0
 1887 11b2 07F59473 	 add r3,r7,#296
 1888 11b6 D3E90023 	 ldrd r2,[r3]
 1889              	.LBE135:
 1890              	.LBE134:
 1891              	 .loc 1 477 0
 1892 11ba 07F58161 	 add r1,r7,#1032
 1893 11be C1E90023 	 strd r2,[r1]
 1894              	.L52:
 478:../Dave/Generated/CMSIS_DSP/FilteringFunctions/arm_conv_partial_q15.c ****       }
 479:../Dave/Generated/CMSIS_DSP/FilteringFunctions/arm_conv_partial_q15.c **** 
 480:../Dave/Generated/CMSIS_DSP/FilteringFunctions/arm_conv_partial_q15.c **** 
 481:../Dave/Generated/CMSIS_DSP/FilteringFunctions/arm_conv_partial_q15.c ****       /* Store the results in the accumulators in the destination buffer. */
 482:../Dave/Generated/CMSIS_DSP/FilteringFunctions/arm_conv_partial_q15.c **** 
 483:../Dave/Generated/CMSIS_DSP/FilteringFunctions/arm_conv_partial_q15.c **** #ifndef  ARM_MATH_BIG_ENDIAN
 484:../Dave/Generated/CMSIS_DSP/FilteringFunctions/arm_conv_partial_q15.c **** 
 485:../Dave/Generated/CMSIS_DSP/FilteringFunctions/arm_conv_partial_q15.c ****       *__SIMD32(pOut)++ =
 1895              	 .loc 1 485 0
 1896 11c2 07F5AE72 	 add r2,r7,#348
 1897 11c6 1168     	 ldr r1,[r2]
 1898 11c8 0B1D     	 adds r3,r1,#4
 1899 11ca 1360     	 str r3,[r2]
 1900              	.LBB136:
 1901              	.LBB137:
 486:../Dave/Generated/CMSIS_DSP/FilteringFunctions/arm_conv_partial_q15.c ****         __PKHBT(__SSAT((acc0 >> 15), 16), __SSAT((acc1 >> 15), 16), 16);
 1902              	 .loc 1 486 0
 1903 11cc 07F58463 	 add r3,r7,#1056
 1904 11d0 D3E90023 	 ldrd r2,[r3]
 1905 11d4 D00B     	 lsrs r0,r2,#15
 1906 11d6 B863     	 str r0,[r7,#56]
 1907 11d8 B86B     	 ldr r0,[r7,#56]
 1908 11da 40EA4340 	 orr r0,r0,r3,lsl#17
 1909 11de B863     	 str r0,[r7,#56]
 1910 11e0 DB13     	 asrs r3,r3,#15
 1911 11e2 FB63     	 str r3,[r7,#60]
 1912 11e4 BB6B     	 ldr r3,[r7,#56]
 1913 11e6 C7F8B433 	 str r3,[r7,#948]
 1914 11ea D7F8B433 	 ldr r3,[r7,#948]
 1915              	
 1916 11ee 03F30F03 	 ssat r3,#16,r3
 1917              	
 1918              	 .thumb
 1919 11f2 C7F8B033 	 str r3,[r7,#944]
 1920 11f6 D7F8B033 	 ldr r3,[r7,#944]
 1921              	.LBE137:
 1922 11fa C7F8AC33 	 str r3,[r7,#940]
 1923              	.LBB138:
 1924 11fe 07F58363 	 add r3,r7,#1048
 1925 1202 D3E90023 	 ldrd r2,[r3]
 1926 1206 D00B     	 lsrs r0,r2,#15
 1927 1208 3863     	 str r0,[r7,#48]
 1928 120a 386B     	 ldr r0,[r7,#48]
 1929 120c 40EA4340 	 orr r0,r0,r3,lsl#17
 1930 1210 3863     	 str r0,[r7,#48]
 1931 1212 DB13     	 asrs r3,r3,#15
 1932 1214 7B63     	 str r3,[r7,#52]
 1933 1216 3B6B     	 ldr r3,[r7,#48]
 1934 1218 C7F8A833 	 str r3,[r7,#936]
 1935 121c D7F8A833 	 ldr r3,[r7,#936]
 1936              	
 1937 1220 03F30F03 	 ssat r3,#16,r3
 1938              	
 1939              	 .thumb
 1940 1224 C7F8A433 	 str r3,[r7,#932]
 1941 1228 D7F8A433 	 ldr r3,[r7,#932]
 1942              	.LBE138:
 1943 122c C7F8A033 	 str r3,[r7,#928]
 1944 1230 D7F8AC23 	 ldr r2,[r7,#940]
 1945 1234 D7F8A033 	 ldr r3,[r7,#928]
 1946              	
 1947 1238 C2EA0343 	 pkhbt r3,r2,r3,lsl#16
 1948              	
 1949              	 .thumb
 1950 123c C7F89C33 	 str r3,[r7,#924]
 1951 1240 D7F89C33 	 ldr r3,[r7,#924]
 1952              	.LBE136:
 485:../Dave/Generated/CMSIS_DSP/FilteringFunctions/arm_conv_partial_q15.c ****         __PKHBT(__SSAT((acc0 >> 15), 16), __SSAT((acc1 >> 15), 16), 16);
 1953              	 .loc 1 485 0
 1954 1244 0B60     	 str r3,[r1]
 487:../Dave/Generated/CMSIS_DSP/FilteringFunctions/arm_conv_partial_q15.c ****       *__SIMD32(pOut)++ =
 1955              	 .loc 1 487 0
 1956 1246 07F5AE72 	 add r2,r7,#348
 1957 124a 1168     	 ldr r1,[r2]
 1958 124c 0B1D     	 adds r3,r1,#4
 1959 124e 1360     	 str r3,[r2]
 1960              	.LBB139:
 1961              	.LBB140:
 488:../Dave/Generated/CMSIS_DSP/FilteringFunctions/arm_conv_partial_q15.c ****         __PKHBT(__SSAT((acc2 >> 15), 16), __SSAT((acc3 >> 15), 16), 16);
 1962              	 .loc 1 488 0
 1963 1250 07F58263 	 add r3,r7,#1040
 1964 1254 D3E90023 	 ldrd r2,[r3]
 1965 1258 D00B     	 lsrs r0,r2,#15
 1966 125a B862     	 str r0,[r7,#40]
 1967 125c B86A     	 ldr r0,[r7,#40]
 1968 125e 40EA4340 	 orr r0,r0,r3,lsl#17
 1969 1262 B862     	 str r0,[r7,#40]
 1970 1264 DB13     	 asrs r3,r3,#15
 1971 1266 FB62     	 str r3,[r7,#44]
 1972 1268 BB6A     	 ldr r3,[r7,#40]
 1973 126a C7F89833 	 str r3,[r7,#920]
 1974 126e D7F89833 	 ldr r3,[r7,#920]
 1975              	
 1976 1272 03F30F03 	 ssat r3,#16,r3
 1977              	
 1978              	 .thumb
 1979 1276 C7F89433 	 str r3,[r7,#916]
 1980 127a D7F89433 	 ldr r3,[r7,#916]
 1981              	.LBE140:
 1982 127e C7F89033 	 str r3,[r7,#912]
 1983              	.LBB141:
 1984 1282 07F58163 	 add r3,r7,#1032
 1985 1286 D3E90023 	 ldrd r2,[r3]
 1986 128a D00B     	 lsrs r0,r2,#15
 1987 128c 3862     	 str r0,[r7,#32]
 1988 128e 386A     	 ldr r0,[r7,#32]
 1989 1290 40EA4340 	 orr r0,r0,r3,lsl#17
 1990 1294 3862     	 str r0,[r7,#32]
 1991 1296 DB13     	 asrs r3,r3,#15
 1992 1298 7B62     	 str r3,[r7,#36]
 1993 129a 3B6A     	 ldr r3,[r7,#32]
 1994 129c C7F88C33 	 str r3,[r7,#908]
 1995 12a0 D7F88C33 	 ldr r3,[r7,#908]
 1996              	
 1997 12a4 03F30F03 	 ssat r3,#16,r3
 1998              	
 1999              	 .thumb
 2000 12a8 C7F88833 	 str r3,[r7,#904]
 2001 12ac D7F88833 	 ldr r3,[r7,#904]
 2002              	.LBE141:
 2003 12b0 C7F88433 	 str r3,[r7,#900]
 2004 12b4 D7F89023 	 ldr r2,[r7,#912]
 2005 12b8 D7F88433 	 ldr r3,[r7,#900]
 2006              	
 2007 12bc C2EA0343 	 pkhbt r3,r2,r3,lsl#16
 2008              	
 2009              	 .thumb
 2010 12c0 C7F88033 	 str r3,[r7,#896]
 2011 12c4 D7F88033 	 ldr r3,[r7,#896]
 2012              	.LBE139:
 487:../Dave/Generated/CMSIS_DSP/FilteringFunctions/arm_conv_partial_q15.c ****       *__SIMD32(pOut)++ =
 2013              	 .loc 1 487 0
 2014 12c8 0B60     	 str r3,[r1]
 489:../Dave/Generated/CMSIS_DSP/FilteringFunctions/arm_conv_partial_q15.c **** 
 490:../Dave/Generated/CMSIS_DSP/FilteringFunctions/arm_conv_partial_q15.c **** #else
 491:../Dave/Generated/CMSIS_DSP/FilteringFunctions/arm_conv_partial_q15.c **** 
 492:../Dave/Generated/CMSIS_DSP/FilteringFunctions/arm_conv_partial_q15.c ****       *__SIMD32(pOut)++ =
 493:../Dave/Generated/CMSIS_DSP/FilteringFunctions/arm_conv_partial_q15.c ****         __PKHBT(__SSAT((acc1 >> 15), 16), __SSAT((acc0 >> 15), 16), 16);
 494:../Dave/Generated/CMSIS_DSP/FilteringFunctions/arm_conv_partial_q15.c ****       *__SIMD32(pOut)++ =
 495:../Dave/Generated/CMSIS_DSP/FilteringFunctions/arm_conv_partial_q15.c ****         __PKHBT(__SSAT((acc3 >> 15), 16), __SSAT((acc2 >> 15), 16), 16);
 496:../Dave/Generated/CMSIS_DSP/FilteringFunctions/arm_conv_partial_q15.c **** 
 497:../Dave/Generated/CMSIS_DSP/FilteringFunctions/arm_conv_partial_q15.c **** #endif /*      #ifndef  ARM_MATH_BIG_ENDIAN    */
 498:../Dave/Generated/CMSIS_DSP/FilteringFunctions/arm_conv_partial_q15.c **** 
 499:../Dave/Generated/CMSIS_DSP/FilteringFunctions/arm_conv_partial_q15.c ****       /* Increment the pointer pIn1 index, count by 4 */
 500:../Dave/Generated/CMSIS_DSP/FilteringFunctions/arm_conv_partial_q15.c ****       count += 4u;
 2015              	 .loc 1 500 0
 2016 12ca D7F8EC33 	 ldr r3,[r7,#1004]
 2017 12ce 0433     	 adds r3,r3,#4
 2018 12d0 C7F8EC33 	 str r3,[r7,#1004]
 501:../Dave/Generated/CMSIS_DSP/FilteringFunctions/arm_conv_partial_q15.c **** 
 502:../Dave/Generated/CMSIS_DSP/FilteringFunctions/arm_conv_partial_q15.c ****       /* Update the inputA and inputB pointers for next MAC calculation */
 503:../Dave/Generated/CMSIS_DSP/FilteringFunctions/arm_conv_partial_q15.c ****       px = pIn1 + count;
 2019              	 .loc 1 503 0
 2020 12d4 D7F8EC33 	 ldr r3,[r7,#1004]
 2021 12d8 5A00     	 lsls r2,r3,#1
 2022 12da D7F83434 	 ldr r3,[r7,#1076]
 2023 12de 1A44     	 add r2,r2,r3
 2024 12e0 07F5AC73 	 add r3,r7,#344
 2025 12e4 1A60     	 str r2,[r3]
 504:../Dave/Generated/CMSIS_DSP/FilteringFunctions/arm_conv_partial_q15.c ****       py = pSrc2;
 2026              	 .loc 1 504 0
 2027 12e6 07F5AA72 	 add r2,r7,#340
 2028 12ea D7F80034 	 ldr r3,[r7,#1024]
 2029 12ee 1360     	 str r3,[r2]
 505:../Dave/Generated/CMSIS_DSP/FilteringFunctions/arm_conv_partial_q15.c **** 
 506:../Dave/Generated/CMSIS_DSP/FilteringFunctions/arm_conv_partial_q15.c ****         /* Decrement the loop counter */
 507:../Dave/Generated/CMSIS_DSP/FilteringFunctions/arm_conv_partial_q15.c ****         blkCnt--;
 2030              	 .loc 1 507 0
 2031 12f0 D7F8E833 	 ldr r3,[r7,#1000]
 2032 12f4 013B     	 subs r3,r3,#1
 2033 12f6 C7F8E833 	 str r3,[r7,#1000]
 2034              	.L32:
 319:../Dave/Generated/CMSIS_DSP/FilteringFunctions/arm_conv_partial_q15.c ****     {
 2035              	 .loc 1 319 0
 2036 12fa D7F8E833 	 ldr r3,[r7,#1000]
 2037 12fe 002B     	 cmp r3,#0
 2038 1300 7FF45BA9 	 bne .L61
 508:../Dave/Generated/CMSIS_DSP/FilteringFunctions/arm_conv_partial_q15.c ****       }
 509:../Dave/Generated/CMSIS_DSP/FilteringFunctions/arm_conv_partial_q15.c **** 
 510:../Dave/Generated/CMSIS_DSP/FilteringFunctions/arm_conv_partial_q15.c ****       /* If the blockSize2 is not a multiple of 4, compute any remaining output samples here.   
 511:../Dave/Generated/CMSIS_DSP/FilteringFunctions/arm_conv_partial_q15.c ****        ** No loop unrolling is used. */
 512:../Dave/Generated/CMSIS_DSP/FilteringFunctions/arm_conv_partial_q15.c ****       blkCnt = (uint32_t) blockSize2 % 0x4u;
 2039              	 .loc 1 512 0
 2040 1304 D7F8D433 	 ldr r3,[r7,#980]
 2041 1308 03F00303 	 and r3,r3,#3
 2042 130c C7F8E833 	 str r3,[r7,#1000]
 513:../Dave/Generated/CMSIS_DSP/FilteringFunctions/arm_conv_partial_q15.c ****   	  
 514:../Dave/Generated/CMSIS_DSP/FilteringFunctions/arm_conv_partial_q15.c ****       while(blkCnt > 0u)
 2043              	 .loc 1 514 0
 2044 1310 0BE1     	 b .L62
 2045              	.L67:
 515:../Dave/Generated/CMSIS_DSP/FilteringFunctions/arm_conv_partial_q15.c ****       {
 516:../Dave/Generated/CMSIS_DSP/FilteringFunctions/arm_conv_partial_q15.c ****         /* Accumulator is made zero for every iteration */
 517:../Dave/Generated/CMSIS_DSP/FilteringFunctions/arm_conv_partial_q15.c ****         sum = 0;
 2046              	 .loc 1 517 0
 2047 1312 4FF00002 	 mov r2,#0
 2048 1316 4FF00003 	 mov r3,#0
 2049 131a 07F58561 	 add r1,r7,#1064
 2050 131e C1E90023 	 strd r2,[r1]
 518:../Dave/Generated/CMSIS_DSP/FilteringFunctions/arm_conv_partial_q15.c **** 
 519:../Dave/Generated/CMSIS_DSP/FilteringFunctions/arm_conv_partial_q15.c ****         /* Apply loop unrolling and compute 4 MACs simultaneously. */
 520:../Dave/Generated/CMSIS_DSP/FilteringFunctions/arm_conv_partial_q15.c ****         k = srcBLen >> 2u;
 2051              	 .loc 1 520 0
 2052 1322 07F14003 	 add r3,r7,#64
 2053 1326 1B68     	 ldr r3,[r3]
 2054 1328 9B08     	 lsrs r3,r3,#2
 2055 132a C7F8F033 	 str r3,[r7,#1008]
 521:../Dave/Generated/CMSIS_DSP/FilteringFunctions/arm_conv_partial_q15.c **** 
 522:../Dave/Generated/CMSIS_DSP/FilteringFunctions/arm_conv_partial_q15.c ****         /* First part of the processing with loop unrolling.  Compute 4 MACs at a time.   
 523:../Dave/Generated/CMSIS_DSP/FilteringFunctions/arm_conv_partial_q15.c ****          ** a second loop below computes MACs for the remaining 1 to 3 samples. */
 524:../Dave/Generated/CMSIS_DSP/FilteringFunctions/arm_conv_partial_q15.c ****         while(k > 0u)
 2056              	 .loc 1 524 0
 2057 132e 8CE0     	 b .L63
 2058              	.L64:
 525:../Dave/Generated/CMSIS_DSP/FilteringFunctions/arm_conv_partial_q15.c ****         {
 526:../Dave/Generated/CMSIS_DSP/FilteringFunctions/arm_conv_partial_q15.c ****           /* Perform the multiply-accumulates */
 527:../Dave/Generated/CMSIS_DSP/FilteringFunctions/arm_conv_partial_q15.c ****           sum += (q63_t) ((q31_t) * px++ * *py--);
 2059              	 .loc 1 527 0
 2060 1330 07F5AC73 	 add r3,r7,#344
 2061 1334 1B68     	 ldr r3,[r3]
 2062 1336 991C     	 adds r1,r3,#2
 2063 1338 07F5AC72 	 add r2,r7,#344
 2064 133c 1160     	 str r1,[r2]
 2065 133e 1B88     	 ldrh r3,[r3]
 2066 1340 1AB2     	 sxth r2,r3
 2067 1342 07F5AA73 	 add r3,r7,#340
 2068 1346 1B68     	 ldr r3,[r3]
 2069 1348 981E     	 subs r0,r3,#2
 2070 134a 07F5AA71 	 add r1,r7,#340
 2071 134e 0860     	 str r0,[r1]
 2072 1350 1B88     	 ldrh r3,[r3]
 2073 1352 1BB2     	 sxth r3,r3
 2074 1354 03FB02F3 	 mul r3,r3,r2
 2075 1358 1A46     	 mov r2,r3
 2076 135a 4FEAE273 	 asr r3,r2,#31
 2077 135e 07F58561 	 add r1,r7,#1064
 2078 1362 D1E90001 	 ldrd r0,[r1]
 2079 1366 1218     	 adds r2,r2,r0
 2080 1368 43EB0103 	 adc r3,r3,r1
 2081 136c 07F58561 	 add r1,r7,#1064
 2082 1370 C1E90023 	 strd r2,[r1]
 528:../Dave/Generated/CMSIS_DSP/FilteringFunctions/arm_conv_partial_q15.c ****           sum += (q63_t) ((q31_t) * px++ * *py--);
 2083              	 .loc 1 528 0
 2084 1374 07F5AC73 	 add r3,r7,#344
 2085 1378 1B68     	 ldr r3,[r3]
 2086 137a 991C     	 adds r1,r3,#2
 2087 137c 07F5AC72 	 add r2,r7,#344
 2088 1380 1160     	 str r1,[r2]
 2089 1382 1B88     	 ldrh r3,[r3]
 2090 1384 1AB2     	 sxth r2,r3
 2091 1386 07F5AA73 	 add r3,r7,#340
 2092 138a 1B68     	 ldr r3,[r3]
 2093 138c 981E     	 subs r0,r3,#2
 2094 138e 07F5AA71 	 add r1,r7,#340
 2095 1392 0860     	 str r0,[r1]
 2096 1394 1B88     	 ldrh r3,[r3]
 2097 1396 1BB2     	 sxth r3,r3
 2098 1398 03FB02F3 	 mul r3,r3,r2
 2099 139c 1A46     	 mov r2,r3
 2100 139e 4FEAE273 	 asr r3,r2,#31
 2101 13a2 07F58561 	 add r1,r7,#1064
 2102 13a6 D1E90001 	 ldrd r0,[r1]
 2103 13aa 1218     	 adds r2,r2,r0
 2104 13ac 43EB0103 	 adc r3,r3,r1
 2105 13b0 07F58561 	 add r1,r7,#1064
 2106 13b4 C1E90023 	 strd r2,[r1]
 529:../Dave/Generated/CMSIS_DSP/FilteringFunctions/arm_conv_partial_q15.c ****           sum += (q63_t) ((q31_t) * px++ * *py--);
 2107              	 .loc 1 529 0
 2108 13b8 07F5AC73 	 add r3,r7,#344
 2109 13bc 1B68     	 ldr r3,[r3]
 2110 13be 991C     	 adds r1,r3,#2
 2111 13c0 07F5AC72 	 add r2,r7,#344
 2112 13c4 1160     	 str r1,[r2]
 2113 13c6 1B88     	 ldrh r3,[r3]
 2114 13c8 1AB2     	 sxth r2,r3
 2115 13ca 07F5AA73 	 add r3,r7,#340
 2116 13ce 1B68     	 ldr r3,[r3]
 2117 13d0 981E     	 subs r0,r3,#2
 2118 13d2 07F5AA71 	 add r1,r7,#340
 2119 13d6 0860     	 str r0,[r1]
 2120 13d8 1B88     	 ldrh r3,[r3]
 2121 13da 1BB2     	 sxth r3,r3
 2122 13dc 03FB02F3 	 mul r3,r3,r2
 2123 13e0 1A46     	 mov r2,r3
 2124 13e2 4FEAE273 	 asr r3,r2,#31
 2125 13e6 07F58561 	 add r1,r7,#1064
 2126 13ea D1E90001 	 ldrd r0,[r1]
 2127 13ee 1218     	 adds r2,r2,r0
 2128 13f0 43EB0103 	 adc r3,r3,r1
 2129 13f4 07F58561 	 add r1,r7,#1064
 2130 13f8 C1E90023 	 strd r2,[r1]
 530:../Dave/Generated/CMSIS_DSP/FilteringFunctions/arm_conv_partial_q15.c ****           sum += (q63_t) ((q31_t) * px++ * *py--);
 2131              	 .loc 1 530 0
 2132 13fc 07F5AC73 	 add r3,r7,#344
 2133 1400 1B68     	 ldr r3,[r3]
 2134 1402 991C     	 adds r1,r3,#2
 2135 1404 07F5AC72 	 add r2,r7,#344
 2136 1408 1160     	 str r1,[r2]
 2137 140a 1B88     	 ldrh r3,[r3]
 2138 140c 1AB2     	 sxth r2,r3
 2139 140e 07F5AA73 	 add r3,r7,#340
 2140 1412 1B68     	 ldr r3,[r3]
 2141 1414 981E     	 subs r0,r3,#2
 2142 1416 07F5AA71 	 add r1,r7,#340
 2143 141a 0860     	 str r0,[r1]
 2144 141c 1B88     	 ldrh r3,[r3]
 2145 141e 1BB2     	 sxth r3,r3
 2146 1420 03FB02F3 	 mul r3,r3,r2
 2147 1424 1A46     	 mov r2,r3
 2148 1426 4FEAE273 	 asr r3,r2,#31
 2149 142a 07F58561 	 add r1,r7,#1064
 2150 142e D1E90001 	 ldrd r0,[r1]
 2151 1432 1218     	 adds r2,r2,r0
 2152 1434 43EB0103 	 adc r3,r3,r1
 2153 1438 07F58561 	 add r1,r7,#1064
 2154 143c C1E90023 	 strd r2,[r1]
 531:../Dave/Generated/CMSIS_DSP/FilteringFunctions/arm_conv_partial_q15.c **** 
 532:../Dave/Generated/CMSIS_DSP/FilteringFunctions/arm_conv_partial_q15.c ****           /* Decrement the loop counter */
 533:../Dave/Generated/CMSIS_DSP/FilteringFunctions/arm_conv_partial_q15.c ****           k--;
 2155              	 .loc 1 533 0
 2156 1440 D7F8F033 	 ldr r3,[r7,#1008]
 2157 1444 013B     	 subs r3,r3,#1
 2158 1446 C7F8F033 	 str r3,[r7,#1008]
 2159              	.L63:
 524:../Dave/Generated/CMSIS_DSP/FilteringFunctions/arm_conv_partial_q15.c ****         {
 2160              	 .loc 1 524 0
 2161 144a D7F8F033 	 ldr r3,[r7,#1008]
 2162 144e 002B     	 cmp r3,#0
 2163 1450 7FF46EAF 	 bne .L64
 534:../Dave/Generated/CMSIS_DSP/FilteringFunctions/arm_conv_partial_q15.c ****         }
 535:../Dave/Generated/CMSIS_DSP/FilteringFunctions/arm_conv_partial_q15.c **** 
 536:../Dave/Generated/CMSIS_DSP/FilteringFunctions/arm_conv_partial_q15.c ****         /* If the srcBLen is not a multiple of 4, compute any remaining MACs here.   
 537:../Dave/Generated/CMSIS_DSP/FilteringFunctions/arm_conv_partial_q15.c ****          ** No loop unrolling is used. */
 538:../Dave/Generated/CMSIS_DSP/FilteringFunctions/arm_conv_partial_q15.c ****         k = srcBLen % 0x4u;
 2164              	 .loc 1 538 0
 2165 1454 07F14003 	 add r3,r7,#64
 2166 1458 1B68     	 ldr r3,[r3]
 2167 145a 03F00303 	 and r3,r3,#3
 2168 145e C7F8F033 	 str r3,[r7,#1008]
 539:../Dave/Generated/CMSIS_DSP/FilteringFunctions/arm_conv_partial_q15.c **** 
 540:../Dave/Generated/CMSIS_DSP/FilteringFunctions/arm_conv_partial_q15.c ****         while(k > 0u)
 2169              	 .loc 1 540 0
 2170 1462 26E0     	 b .L65
 2171              	.L66:
 541:../Dave/Generated/CMSIS_DSP/FilteringFunctions/arm_conv_partial_q15.c ****         {
 542:../Dave/Generated/CMSIS_DSP/FilteringFunctions/arm_conv_partial_q15.c ****           /* Perform the multiply-accumulates */
 543:../Dave/Generated/CMSIS_DSP/FilteringFunctions/arm_conv_partial_q15.c ****           sum += (q63_t) ((q31_t) * px++ * *py--);
 2172              	 .loc 1 543 0
 2173 1464 07F5AC73 	 add r3,r7,#344
 2174 1468 1B68     	 ldr r3,[r3]
 2175 146a 991C     	 adds r1,r3,#2
 2176 146c 07F5AC72 	 add r2,r7,#344
 2177 1470 1160     	 str r1,[r2]
 2178 1472 1B88     	 ldrh r3,[r3]
 2179 1474 1AB2     	 sxth r2,r3
 2180 1476 07F5AA73 	 add r3,r7,#340
 2181 147a 1B68     	 ldr r3,[r3]
 2182 147c 981E     	 subs r0,r3,#2
 2183 147e 07F5AA71 	 add r1,r7,#340
 2184 1482 0860     	 str r0,[r1]
 2185 1484 1B88     	 ldrh r3,[r3]
 2186 1486 1BB2     	 sxth r3,r3
 2187 1488 03FB02F3 	 mul r3,r3,r2
 2188 148c 1A46     	 mov r2,r3
 2189 148e 4FEAE273 	 asr r3,r2,#31
 2190 1492 07F58561 	 add r1,r7,#1064
 2191 1496 D1E90001 	 ldrd r0,[r1]
 2192 149a 1218     	 adds r2,r2,r0
 2193 149c 43EB0103 	 adc r3,r3,r1
 2194 14a0 07F58561 	 add r1,r7,#1064
 2195 14a4 C1E90023 	 strd r2,[r1]
 544:../Dave/Generated/CMSIS_DSP/FilteringFunctions/arm_conv_partial_q15.c **** 
 545:../Dave/Generated/CMSIS_DSP/FilteringFunctions/arm_conv_partial_q15.c ****           /* Decrement the loop counter */
 546:../Dave/Generated/CMSIS_DSP/FilteringFunctions/arm_conv_partial_q15.c ****           k--;
 2196              	 .loc 1 546 0
 2197 14a8 D7F8F033 	 ldr r3,[r7,#1008]
 2198 14ac 013B     	 subs r3,r3,#1
 2199 14ae C7F8F033 	 str r3,[r7,#1008]
 2200              	.L65:
 540:../Dave/Generated/CMSIS_DSP/FilteringFunctions/arm_conv_partial_q15.c ****         {
 2201              	 .loc 1 540 0
 2202 14b2 D7F8F033 	 ldr r3,[r7,#1008]
 2203 14b6 002B     	 cmp r3,#0
 2204 14b8 D4D1     	 bne .L66
 547:../Dave/Generated/CMSIS_DSP/FilteringFunctions/arm_conv_partial_q15.c ****         }
 548:../Dave/Generated/CMSIS_DSP/FilteringFunctions/arm_conv_partial_q15.c **** 
 549:../Dave/Generated/CMSIS_DSP/FilteringFunctions/arm_conv_partial_q15.c ****         /* Store the result in the accumulator in the destination buffer. */
 550:../Dave/Generated/CMSIS_DSP/FilteringFunctions/arm_conv_partial_q15.c ****         *pOut++ = (q15_t) (__SSAT(sum >> 15, 16));
 2205              	 .loc 1 550 0
 2206 14ba 07F5AE73 	 add r3,r7,#348
 2207 14be 1968     	 ldr r1,[r3]
 2208 14c0 8A1C     	 adds r2,r1,#2
 2209 14c2 07F5AE73 	 add r3,r7,#348
 2210 14c6 1A60     	 str r2,[r3]
 2211              	.LBB142:
 2212 14c8 07F58563 	 add r3,r7,#1064
 2213 14cc D3E90023 	 ldrd r2,[r3]
 2214 14d0 D00B     	 lsrs r0,r2,#15
 2215 14d2 B861     	 str r0,[r7,#24]
 2216 14d4 B869     	 ldr r0,[r7,#24]
 2217 14d6 40EA4340 	 orr r0,r0,r3,lsl#17
 2218 14da B861     	 str r0,[r7,#24]
 2219 14dc DB13     	 asrs r3,r3,#15
 2220 14de FB61     	 str r3,[r7,#28]
 2221 14e0 BB69     	 ldr r3,[r7,#24]
 2222 14e2 C7F87C33 	 str r3,[r7,#892]
 2223 14e6 D7F87C33 	 ldr r3,[r7,#892]
 2224              	
 2225 14ea 03F30F03 	 ssat r3,#16,r3
 2226              	
 2227              	 .thumb
 2228 14ee C7F87833 	 str r3,[r7,#888]
 2229 14f2 D7F87833 	 ldr r3,[r7,#888]
 2230              	.LBE142:
 2231 14f6 9BB2     	 uxth r3,r3
 2232 14f8 0B80     	 strh r3,[r1]
 551:../Dave/Generated/CMSIS_DSP/FilteringFunctions/arm_conv_partial_q15.c **** 
 552:../Dave/Generated/CMSIS_DSP/FilteringFunctions/arm_conv_partial_q15.c ****         /* Increment the pointer pIn1 index, count by 1 */
 553:../Dave/Generated/CMSIS_DSP/FilteringFunctions/arm_conv_partial_q15.c ****         count++;
 2233              	 .loc 1 553 0
 2234 14fa D7F8EC33 	 ldr r3,[r7,#1004]
 2235 14fe 0133     	 adds r3,r3,#1
 2236 1500 C7F8EC33 	 str r3,[r7,#1004]
 554:../Dave/Generated/CMSIS_DSP/FilteringFunctions/arm_conv_partial_q15.c **** 
 555:../Dave/Generated/CMSIS_DSP/FilteringFunctions/arm_conv_partial_q15.c ****         /* Update the inputA and inputB pointers for next MAC calculation */
 556:../Dave/Generated/CMSIS_DSP/FilteringFunctions/arm_conv_partial_q15.c ****         px = pIn1 + count;
 2237              	 .loc 1 556 0
 2238 1504 D7F8EC33 	 ldr r3,[r7,#1004]
 2239 1508 5B00     	 lsls r3,r3,#1
 2240 150a D7F83424 	 ldr r2,[r7,#1076]
 2241 150e 1A44     	 add r2,r2,r3
 2242 1510 07F5AC73 	 add r3,r7,#344
 2243 1514 1A60     	 str r2,[r3]
 557:../Dave/Generated/CMSIS_DSP/FilteringFunctions/arm_conv_partial_q15.c ****         py = pSrc2;
 2244              	 .loc 1 557 0
 2245 1516 07F5AA73 	 add r3,r7,#340
 2246 151a D7F80024 	 ldr r2,[r7,#1024]
 2247 151e 1A60     	 str r2,[r3]
 558:../Dave/Generated/CMSIS_DSP/FilteringFunctions/arm_conv_partial_q15.c **** 
 559:../Dave/Generated/CMSIS_DSP/FilteringFunctions/arm_conv_partial_q15.c ****         /* Decrement the loop counter */
 560:../Dave/Generated/CMSIS_DSP/FilteringFunctions/arm_conv_partial_q15.c ****         blkCnt--;
 2248              	 .loc 1 560 0
 2249 1520 D7F8E833 	 ldr r3,[r7,#1000]
 2250 1524 013B     	 subs r3,r3,#1
 2251 1526 C7F8E833 	 str r3,[r7,#1000]
 2252              	.L62:
 514:../Dave/Generated/CMSIS_DSP/FilteringFunctions/arm_conv_partial_q15.c ****       {
 2253              	 .loc 1 514 0
 2254 152a D7F8E833 	 ldr r3,[r7,#1000]
 2255 152e 002B     	 cmp r3,#0
 2256 1530 7FF4EFAE 	 bne .L67
 2257 1534 79E0     	 b .L68
 2258              	.L31:
 561:../Dave/Generated/CMSIS_DSP/FilteringFunctions/arm_conv_partial_q15.c ****       }
 562:../Dave/Generated/CMSIS_DSP/FilteringFunctions/arm_conv_partial_q15.c ****     }
 563:../Dave/Generated/CMSIS_DSP/FilteringFunctions/arm_conv_partial_q15.c ****     else
 564:../Dave/Generated/CMSIS_DSP/FilteringFunctions/arm_conv_partial_q15.c ****     {
 565:../Dave/Generated/CMSIS_DSP/FilteringFunctions/arm_conv_partial_q15.c ****       /* If the srcBLen is not a multiple of 4,   
 566:../Dave/Generated/CMSIS_DSP/FilteringFunctions/arm_conv_partial_q15.c ****        * the blockSize2 loop cannot be unrolled by 4 */
 567:../Dave/Generated/CMSIS_DSP/FilteringFunctions/arm_conv_partial_q15.c ****       blkCnt = (uint32_t) blockSize2;
 2259              	 .loc 1 567 0
 2260 1536 D7F8D433 	 ldr r3,[r7,#980]
 2261 153a C7F8E833 	 str r3,[r7,#1000]
 568:../Dave/Generated/CMSIS_DSP/FilteringFunctions/arm_conv_partial_q15.c **** 
 569:../Dave/Generated/CMSIS_DSP/FilteringFunctions/arm_conv_partial_q15.c ****       while(blkCnt > 0u)
 2262              	 .loc 1 569 0
 2263 153e 70E0     	 b .L69
 2264              	.L72:
 570:../Dave/Generated/CMSIS_DSP/FilteringFunctions/arm_conv_partial_q15.c ****       {
 571:../Dave/Generated/CMSIS_DSP/FilteringFunctions/arm_conv_partial_q15.c ****         /* Accumulator is made zero for every iteration */
 572:../Dave/Generated/CMSIS_DSP/FilteringFunctions/arm_conv_partial_q15.c ****         sum = 0;
 2265              	 .loc 1 572 0
 2266 1540 4FF00002 	 mov r2,#0
 2267 1544 4FF00003 	 mov r3,#0
 2268 1548 07F58561 	 add r1,r7,#1064
 2269 154c C1E90023 	 strd r2,[r1]
 573:../Dave/Generated/CMSIS_DSP/FilteringFunctions/arm_conv_partial_q15.c **** 
 574:../Dave/Generated/CMSIS_DSP/FilteringFunctions/arm_conv_partial_q15.c ****         /* srcBLen number of MACS should be performed */
 575:../Dave/Generated/CMSIS_DSP/FilteringFunctions/arm_conv_partial_q15.c ****         k = srcBLen;
 2270              	 .loc 1 575 0
 2271 1550 07F14003 	 add r3,r7,#64
 2272 1554 1B68     	 ldr r3,[r3]
 2273 1556 C7F8F033 	 str r3,[r7,#1008]
 576:../Dave/Generated/CMSIS_DSP/FilteringFunctions/arm_conv_partial_q15.c **** 
 577:../Dave/Generated/CMSIS_DSP/FilteringFunctions/arm_conv_partial_q15.c ****         while(k > 0u)
 2274              	 .loc 1 577 0
 2275 155a 26E0     	 b .L70
 2276              	.L71:
 578:../Dave/Generated/CMSIS_DSP/FilteringFunctions/arm_conv_partial_q15.c ****         {
 579:../Dave/Generated/CMSIS_DSP/FilteringFunctions/arm_conv_partial_q15.c ****           /* Perform the multiply-accumulate */
 580:../Dave/Generated/CMSIS_DSP/FilteringFunctions/arm_conv_partial_q15.c ****           sum += (q63_t) ((q31_t) * px++ * *py--);
 2277              	 .loc 1 580 0
 2278 155c 07F5AC73 	 add r3,r7,#344
 2279 1560 1B68     	 ldr r3,[r3]
 2280 1562 991C     	 adds r1,r3,#2
 2281 1564 07F5AC72 	 add r2,r7,#344
 2282 1568 1160     	 str r1,[r2]
 2283 156a 1B88     	 ldrh r3,[r3]
 2284 156c 1AB2     	 sxth r2,r3
 2285 156e 07F5AA73 	 add r3,r7,#340
 2286 1572 1B68     	 ldr r3,[r3]
 2287 1574 981E     	 subs r0,r3,#2
 2288 1576 07F5AA71 	 add r1,r7,#340
 2289 157a 0860     	 str r0,[r1]
 2290 157c 1B88     	 ldrh r3,[r3]
 2291 157e 1BB2     	 sxth r3,r3
 2292 1580 03FB02F3 	 mul r3,r3,r2
 2293 1584 1A46     	 mov r2,r3
 2294 1586 4FEAE273 	 asr r3,r2,#31
 2295 158a 07F58561 	 add r1,r7,#1064
 2296 158e D1E90001 	 ldrd r0,[r1]
 2297 1592 1218     	 adds r2,r2,r0
 2298 1594 43EB0103 	 adc r3,r3,r1
 2299 1598 07F58561 	 add r1,r7,#1064
 2300 159c C1E90023 	 strd r2,[r1]
 581:../Dave/Generated/CMSIS_DSP/FilteringFunctions/arm_conv_partial_q15.c **** 
 582:../Dave/Generated/CMSIS_DSP/FilteringFunctions/arm_conv_partial_q15.c ****           /* Decrement the loop counter */
 583:../Dave/Generated/CMSIS_DSP/FilteringFunctions/arm_conv_partial_q15.c ****           k--;
 2301              	 .loc 1 583 0
 2302 15a0 D7F8F033 	 ldr r3,[r7,#1008]
 2303 15a4 013B     	 subs r3,r3,#1
 2304 15a6 C7F8F033 	 str r3,[r7,#1008]
 2305              	.L70:
 577:../Dave/Generated/CMSIS_DSP/FilteringFunctions/arm_conv_partial_q15.c ****         {
 2306              	 .loc 1 577 0
 2307 15aa D7F8F033 	 ldr r3,[r7,#1008]
 2308 15ae 002B     	 cmp r3,#0
 2309 15b0 D4D1     	 bne .L71
 584:../Dave/Generated/CMSIS_DSP/FilteringFunctions/arm_conv_partial_q15.c ****         }
 585:../Dave/Generated/CMSIS_DSP/FilteringFunctions/arm_conv_partial_q15.c **** 
 586:../Dave/Generated/CMSIS_DSP/FilteringFunctions/arm_conv_partial_q15.c ****         /* Store the result in the accumulator in the destination buffer. */
 587:../Dave/Generated/CMSIS_DSP/FilteringFunctions/arm_conv_partial_q15.c ****         *pOut++ = (q15_t) (__SSAT(sum >> 15, 16));
 2310              	 .loc 1 587 0
 2311 15b2 07F5AE73 	 add r3,r7,#348
 2312 15b6 1968     	 ldr r1,[r3]
 2313 15b8 8A1C     	 adds r2,r1,#2
 2314 15ba 07F5AE73 	 add r3,r7,#348
 2315 15be 1A60     	 str r2,[r3]
 2316              	.LBB143:
 2317 15c0 07F58563 	 add r3,r7,#1064
 2318 15c4 D3E90023 	 ldrd r2,[r3]
 2319 15c8 D00B     	 lsrs r0,r2,#15
 2320 15ca 3861     	 str r0,[r7,#16]
 2321 15cc 3869     	 ldr r0,[r7,#16]
 2322 15ce 40EA4340 	 orr r0,r0,r3,lsl#17
 2323 15d2 3861     	 str r0,[r7,#16]
 2324 15d4 DB13     	 asrs r3,r3,#15
 2325 15d6 7B61     	 str r3,[r7,#20]
 2326 15d8 3B69     	 ldr r3,[r7,#16]
 2327 15da C7F87433 	 str r3,[r7,#884]
 2328 15de D7F87433 	 ldr r3,[r7,#884]
 2329              	
 2330 15e2 03F30F03 	 ssat r3,#16,r3
 2331              	
 2332              	 .thumb
 2333 15e6 C7F87033 	 str r3,[r7,#880]
 2334 15ea D7F87033 	 ldr r3,[r7,#880]
 2335              	.LBE143:
 2336 15ee 9BB2     	 uxth r3,r3
 2337 15f0 0B80     	 strh r3,[r1]
 588:../Dave/Generated/CMSIS_DSP/FilteringFunctions/arm_conv_partial_q15.c **** 
 589:../Dave/Generated/CMSIS_DSP/FilteringFunctions/arm_conv_partial_q15.c ****         /* Increment the MAC count */
 590:../Dave/Generated/CMSIS_DSP/FilteringFunctions/arm_conv_partial_q15.c ****         count++;
 2338              	 .loc 1 590 0
 2339 15f2 D7F8EC33 	 ldr r3,[r7,#1004]
 2340 15f6 0133     	 adds r3,r3,#1
 2341 15f8 C7F8EC33 	 str r3,[r7,#1004]
 591:../Dave/Generated/CMSIS_DSP/FilteringFunctions/arm_conv_partial_q15.c **** 
 592:../Dave/Generated/CMSIS_DSP/FilteringFunctions/arm_conv_partial_q15.c ****         /* Update the inputA and inputB pointers for next MAC calculation */
 593:../Dave/Generated/CMSIS_DSP/FilteringFunctions/arm_conv_partial_q15.c ****         px = pIn1 + count;
 2342              	 .loc 1 593 0
 2343 15fc D7F8EC33 	 ldr r3,[r7,#1004]
 2344 1600 5B00     	 lsls r3,r3,#1
 2345 1602 D7F83424 	 ldr r2,[r7,#1076]
 2346 1606 1A44     	 add r2,r2,r3
 2347 1608 07F5AC73 	 add r3,r7,#344
 2348 160c 1A60     	 str r2,[r3]
 594:../Dave/Generated/CMSIS_DSP/FilteringFunctions/arm_conv_partial_q15.c ****         py = pSrc2;
 2349              	 .loc 1 594 0
 2350 160e 07F5AA73 	 add r3,r7,#340
 2351 1612 D7F80024 	 ldr r2,[r7,#1024]
 2352 1616 1A60     	 str r2,[r3]
 595:../Dave/Generated/CMSIS_DSP/FilteringFunctions/arm_conv_partial_q15.c ****   
 596:../Dave/Generated/CMSIS_DSP/FilteringFunctions/arm_conv_partial_q15.c ****         /* Decrement the loop counter */
 597:../Dave/Generated/CMSIS_DSP/FilteringFunctions/arm_conv_partial_q15.c ****         blkCnt--;
 2353              	 .loc 1 597 0
 2354 1618 D7F8E833 	 ldr r3,[r7,#1000]
 2355 161c 013B     	 subs r3,r3,#1
 2356 161e C7F8E833 	 str r3,[r7,#1000]
 2357              	.L69:
 569:../Dave/Generated/CMSIS_DSP/FilteringFunctions/arm_conv_partial_q15.c ****       {
 2358              	 .loc 1 569 0
 2359 1622 D7F8E833 	 ldr r3,[r7,#1000]
 2360 1626 002B     	 cmp r3,#0
 2361 1628 8AD1     	 bne .L72
 2362              	.L68:
 598:../Dave/Generated/CMSIS_DSP/FilteringFunctions/arm_conv_partial_q15.c ****       }
 599:../Dave/Generated/CMSIS_DSP/FilteringFunctions/arm_conv_partial_q15.c ****     }
 600:../Dave/Generated/CMSIS_DSP/FilteringFunctions/arm_conv_partial_q15.c **** 
 601:../Dave/Generated/CMSIS_DSP/FilteringFunctions/arm_conv_partial_q15.c **** 
 602:../Dave/Generated/CMSIS_DSP/FilteringFunctions/arm_conv_partial_q15.c ****     /* --------------------------   
 603:../Dave/Generated/CMSIS_DSP/FilteringFunctions/arm_conv_partial_q15.c ****      * Initializations of stage3   
 604:../Dave/Generated/CMSIS_DSP/FilteringFunctions/arm_conv_partial_q15.c ****      * -------------------------*/
 605:../Dave/Generated/CMSIS_DSP/FilteringFunctions/arm_conv_partial_q15.c **** 
 606:../Dave/Generated/CMSIS_DSP/FilteringFunctions/arm_conv_partial_q15.c ****     /* sum += x[srcALen-srcBLen+1] * y[srcBLen-1] + x[srcALen-srcBLen+2] * y[srcBLen-2] +...+ x[src
 607:../Dave/Generated/CMSIS_DSP/FilteringFunctions/arm_conv_partial_q15.c ****      * sum += x[srcALen-srcBLen+2] * y[srcBLen-1] + x[srcALen-srcBLen+3] * y[srcBLen-2] +...+ x[src
 608:../Dave/Generated/CMSIS_DSP/FilteringFunctions/arm_conv_partial_q15.c ****      * ....   
 609:../Dave/Generated/CMSIS_DSP/FilteringFunctions/arm_conv_partial_q15.c ****      * sum +=  x[srcALen-2] * y[srcBLen-1] + x[srcALen-1] * y[srcBLen-2]   
 610:../Dave/Generated/CMSIS_DSP/FilteringFunctions/arm_conv_partial_q15.c ****      * sum +=  x[srcALen-1] * y[srcBLen-1]   
 611:../Dave/Generated/CMSIS_DSP/FilteringFunctions/arm_conv_partial_q15.c ****      */
 612:../Dave/Generated/CMSIS_DSP/FilteringFunctions/arm_conv_partial_q15.c **** 
 613:../Dave/Generated/CMSIS_DSP/FilteringFunctions/arm_conv_partial_q15.c ****     /* In this stage the MAC operations are decreased by 1 for every iteration.   
