   1              	 .syntax unified
   2              	 .cpu cortex-m4
   3              	 .fpu softvfp
   4              	 .eabi_attribute 20,1
   5              	 .eabi_attribute 21,1
   6              	 .eabi_attribute 23,3
   7              	 .eabi_attribute 24,1
   8              	 .eabi_attribute 25,1
   9              	 .eabi_attribute 26,1
  10              	 .eabi_attribute 30,6
  11              	 .eabi_attribute 34,1
  12              	 .eabi_attribute 18,4
  13              	 .thumb
  14              	 .file "arm_fir_interpolate_q31.c"
  15              	 .text
  16              	.Ltext0:
  17              	 .cfi_sections .debug_frame
  18              	 .section .text.arm_fir_interpolate_q31,"ax",%progbits
  19              	 .align 2
  20              	 .global arm_fir_interpolate_q31
  21              	 .thumb
  22              	 .thumb_func
  24              	arm_fir_interpolate_q31:
  25              	.LFB139:
  26              	 .file 1 "../Dave/Generated/CMSIS_DSP/FilteringFunctions/arm_fir_interpolate_q31.c"
   1:../Dave/Generated/CMSIS_DSP/FilteringFunctions/arm_fir_interpolate_q31.c **** /*-----------------------------------------------------------------------------    
   2:../Dave/Generated/CMSIS_DSP/FilteringFunctions/arm_fir_interpolate_q31.c **** * Copyright (C) 2010-2014 ARM Limited. All rights reserved.    
   3:../Dave/Generated/CMSIS_DSP/FilteringFunctions/arm_fir_interpolate_q31.c **** *    
   4:../Dave/Generated/CMSIS_DSP/FilteringFunctions/arm_fir_interpolate_q31.c **** * $Date:        12. March 2014
   5:../Dave/Generated/CMSIS_DSP/FilteringFunctions/arm_fir_interpolate_q31.c **** * $Revision: 	V1.4.4
   6:../Dave/Generated/CMSIS_DSP/FilteringFunctions/arm_fir_interpolate_q31.c **** *    
   7:../Dave/Generated/CMSIS_DSP/FilteringFunctions/arm_fir_interpolate_q31.c **** * Project: 	    CMSIS DSP Library    
   8:../Dave/Generated/CMSIS_DSP/FilteringFunctions/arm_fir_interpolate_q31.c **** * Title:		arm_fir_interpolate_q31.c    
   9:../Dave/Generated/CMSIS_DSP/FilteringFunctions/arm_fir_interpolate_q31.c **** *    
  10:../Dave/Generated/CMSIS_DSP/FilteringFunctions/arm_fir_interpolate_q31.c **** * Description:	Q31 FIR interpolation.    
  11:../Dave/Generated/CMSIS_DSP/FilteringFunctions/arm_fir_interpolate_q31.c **** *    
  12:../Dave/Generated/CMSIS_DSP/FilteringFunctions/arm_fir_interpolate_q31.c **** * Target Processor: Cortex-M4/Cortex-M3/Cortex-M0
  13:../Dave/Generated/CMSIS_DSP/FilteringFunctions/arm_fir_interpolate_q31.c **** *  
  14:../Dave/Generated/CMSIS_DSP/FilteringFunctions/arm_fir_interpolate_q31.c **** * Redistribution and use in source and binary forms, with or without 
  15:../Dave/Generated/CMSIS_DSP/FilteringFunctions/arm_fir_interpolate_q31.c **** * modification, are permitted provided that the following conditions
  16:../Dave/Generated/CMSIS_DSP/FilteringFunctions/arm_fir_interpolate_q31.c **** * are met:
  17:../Dave/Generated/CMSIS_DSP/FilteringFunctions/arm_fir_interpolate_q31.c **** *   - Redistributions of source code must retain the above copyright
  18:../Dave/Generated/CMSIS_DSP/FilteringFunctions/arm_fir_interpolate_q31.c **** *     notice, this list of conditions and the following disclaimer.
  19:../Dave/Generated/CMSIS_DSP/FilteringFunctions/arm_fir_interpolate_q31.c **** *   - Redistributions in binary form must reproduce the above copyright
  20:../Dave/Generated/CMSIS_DSP/FilteringFunctions/arm_fir_interpolate_q31.c **** *     notice, this list of conditions and the following disclaimer in
  21:../Dave/Generated/CMSIS_DSP/FilteringFunctions/arm_fir_interpolate_q31.c **** *     the documentation and/or other materials provided with the 
  22:../Dave/Generated/CMSIS_DSP/FilteringFunctions/arm_fir_interpolate_q31.c **** *     distribution.
  23:../Dave/Generated/CMSIS_DSP/FilteringFunctions/arm_fir_interpolate_q31.c **** *   - Neither the name of ARM LIMITED nor the names of its contributors
  24:../Dave/Generated/CMSIS_DSP/FilteringFunctions/arm_fir_interpolate_q31.c **** *     may be used to endorse or promote products derived from this
  25:../Dave/Generated/CMSIS_DSP/FilteringFunctions/arm_fir_interpolate_q31.c **** *     software without specific prior written permission.
  26:../Dave/Generated/CMSIS_DSP/FilteringFunctions/arm_fir_interpolate_q31.c **** *
  27:../Dave/Generated/CMSIS_DSP/FilteringFunctions/arm_fir_interpolate_q31.c **** * THIS SOFTWARE IS PROVIDED BY THE COPYRIGHT HOLDERS AND CONTRIBUTORS
  28:../Dave/Generated/CMSIS_DSP/FilteringFunctions/arm_fir_interpolate_q31.c **** * "AS IS" AND ANY EXPRESS OR IMPLIED WARRANTIES, INCLUDING, BUT NOT
  29:../Dave/Generated/CMSIS_DSP/FilteringFunctions/arm_fir_interpolate_q31.c **** * LIMITED TO, THE IMPLIED WARRANTIES OF MERCHANTABILITY AND FITNESS
  30:../Dave/Generated/CMSIS_DSP/FilteringFunctions/arm_fir_interpolate_q31.c **** * FOR A PARTICULAR PURPOSE ARE DISCLAIMED. IN NO EVENT SHALL THE 
  31:../Dave/Generated/CMSIS_DSP/FilteringFunctions/arm_fir_interpolate_q31.c **** * COPYRIGHT OWNER OR CONTRIBUTORS BE LIABLE FOR ANY DIRECT, INDIRECT,
  32:../Dave/Generated/CMSIS_DSP/FilteringFunctions/arm_fir_interpolate_q31.c **** * INCIDENTAL, SPECIAL, EXEMPLARY, OR CONSEQUENTIAL DAMAGES (INCLUDING,
  33:../Dave/Generated/CMSIS_DSP/FilteringFunctions/arm_fir_interpolate_q31.c **** * BUT NOT LIMITED TO, PROCUREMENT OF SUBSTITUTE GOODS OR SERVICES;
  34:../Dave/Generated/CMSIS_DSP/FilteringFunctions/arm_fir_interpolate_q31.c **** * LOSS OF USE, DATA, OR PROFITS; OR BUSINESS INTERRUPTION) HOWEVER
  35:../Dave/Generated/CMSIS_DSP/FilteringFunctions/arm_fir_interpolate_q31.c **** * CAUSED AND ON ANY THEORY OF LIABILITY, WHETHER IN CONTRACT, STRICT
  36:../Dave/Generated/CMSIS_DSP/FilteringFunctions/arm_fir_interpolate_q31.c **** * LIABILITY, OR TORT (INCLUDING NEGLIGENCE OR OTHERWISE) ARISING IN
  37:../Dave/Generated/CMSIS_DSP/FilteringFunctions/arm_fir_interpolate_q31.c **** * ANY WAY OUT OF THE USE OF THIS SOFTWARE, EVEN IF ADVISED OF THE
  38:../Dave/Generated/CMSIS_DSP/FilteringFunctions/arm_fir_interpolate_q31.c **** * POSSIBILITY OF SUCH DAMAGE.  
  39:../Dave/Generated/CMSIS_DSP/FilteringFunctions/arm_fir_interpolate_q31.c **** * ---------------------------------------------------------------------------*/
  40:../Dave/Generated/CMSIS_DSP/FilteringFunctions/arm_fir_interpolate_q31.c **** 
  41:../Dave/Generated/CMSIS_DSP/FilteringFunctions/arm_fir_interpolate_q31.c **** #include "CMSIS_DSP/cmsis_dsp.h"
  42:../Dave/Generated/CMSIS_DSP/FilteringFunctions/arm_fir_interpolate_q31.c **** 
  43:../Dave/Generated/CMSIS_DSP/FilteringFunctions/arm_fir_interpolate_q31.c **** /**    
  44:../Dave/Generated/CMSIS_DSP/FilteringFunctions/arm_fir_interpolate_q31.c ****  * @ingroup groupFilters    
  45:../Dave/Generated/CMSIS_DSP/FilteringFunctions/arm_fir_interpolate_q31.c ****  */
  46:../Dave/Generated/CMSIS_DSP/FilteringFunctions/arm_fir_interpolate_q31.c **** 
  47:../Dave/Generated/CMSIS_DSP/FilteringFunctions/arm_fir_interpolate_q31.c **** /**    
  48:../Dave/Generated/CMSIS_DSP/FilteringFunctions/arm_fir_interpolate_q31.c ****  * @addtogroup FIR_Interpolate    
  49:../Dave/Generated/CMSIS_DSP/FilteringFunctions/arm_fir_interpolate_q31.c ****  * @{    
  50:../Dave/Generated/CMSIS_DSP/FilteringFunctions/arm_fir_interpolate_q31.c ****  */
  51:../Dave/Generated/CMSIS_DSP/FilteringFunctions/arm_fir_interpolate_q31.c **** 
  52:../Dave/Generated/CMSIS_DSP/FilteringFunctions/arm_fir_interpolate_q31.c **** /**    
  53:../Dave/Generated/CMSIS_DSP/FilteringFunctions/arm_fir_interpolate_q31.c ****  * @brief Processing function for the Q31 FIR interpolator.    
  54:../Dave/Generated/CMSIS_DSP/FilteringFunctions/arm_fir_interpolate_q31.c ****  * @param[in] *S        points to an instance of the Q31 FIR interpolator structure.    
  55:../Dave/Generated/CMSIS_DSP/FilteringFunctions/arm_fir_interpolate_q31.c ****  * @param[in] *pSrc     points to the block of input data.    
  56:../Dave/Generated/CMSIS_DSP/FilteringFunctions/arm_fir_interpolate_q31.c ****  * @param[out] *pDst    points to the block of output data.    
  57:../Dave/Generated/CMSIS_DSP/FilteringFunctions/arm_fir_interpolate_q31.c ****  * @param[in] blockSize number of input samples to process per call.    
  58:../Dave/Generated/CMSIS_DSP/FilteringFunctions/arm_fir_interpolate_q31.c ****  * @return none.    
  59:../Dave/Generated/CMSIS_DSP/FilteringFunctions/arm_fir_interpolate_q31.c ****  *    
  60:../Dave/Generated/CMSIS_DSP/FilteringFunctions/arm_fir_interpolate_q31.c ****  * <b>Scaling and Overflow Behavior:</b>    
  61:../Dave/Generated/CMSIS_DSP/FilteringFunctions/arm_fir_interpolate_q31.c ****  * \par    
  62:../Dave/Generated/CMSIS_DSP/FilteringFunctions/arm_fir_interpolate_q31.c ****  * The function is implemented using an internal 64-bit accumulator.    
  63:../Dave/Generated/CMSIS_DSP/FilteringFunctions/arm_fir_interpolate_q31.c ****  * The accumulator has a 2.62 format and maintains full precision of the intermediate multiplicatio
  64:../Dave/Generated/CMSIS_DSP/FilteringFunctions/arm_fir_interpolate_q31.c ****  * Thus, if the accumulator result overflows it wraps around rather than clip.    
  65:../Dave/Generated/CMSIS_DSP/FilteringFunctions/arm_fir_interpolate_q31.c ****  * In order to avoid overflows completely the input signal must be scaled down by <code>1/(numTaps/
  66:../Dave/Generated/CMSIS_DSP/FilteringFunctions/arm_fir_interpolate_q31.c ****  * since <code>numTaps/L</code> additions occur per output sample.    
  67:../Dave/Generated/CMSIS_DSP/FilteringFunctions/arm_fir_interpolate_q31.c ****  * After all multiply-accumulates are performed, the 2.62 accumulator is truncated to 1.32 format a
  68:../Dave/Generated/CMSIS_DSP/FilteringFunctions/arm_fir_interpolate_q31.c ****  */
  69:../Dave/Generated/CMSIS_DSP/FilteringFunctions/arm_fir_interpolate_q31.c **** 
  70:../Dave/Generated/CMSIS_DSP/FilteringFunctions/arm_fir_interpolate_q31.c **** #ifndef ARM_MATH_CM0_FAMILY
  71:../Dave/Generated/CMSIS_DSP/FilteringFunctions/arm_fir_interpolate_q31.c **** 
  72:../Dave/Generated/CMSIS_DSP/FilteringFunctions/arm_fir_interpolate_q31.c ****   /* Run the below code for Cortex-M4 and Cortex-M3 */
  73:../Dave/Generated/CMSIS_DSP/FilteringFunctions/arm_fir_interpolate_q31.c **** 
  74:../Dave/Generated/CMSIS_DSP/FilteringFunctions/arm_fir_interpolate_q31.c **** void arm_fir_interpolate_q31(
  75:../Dave/Generated/CMSIS_DSP/FilteringFunctions/arm_fir_interpolate_q31.c ****   const arm_fir_interpolate_instance_q31 * S,
  76:../Dave/Generated/CMSIS_DSP/FilteringFunctions/arm_fir_interpolate_q31.c ****   q31_t * pSrc,
  77:../Dave/Generated/CMSIS_DSP/FilteringFunctions/arm_fir_interpolate_q31.c ****   q31_t * pDst,
  78:../Dave/Generated/CMSIS_DSP/FilteringFunctions/arm_fir_interpolate_q31.c ****   uint32_t blockSize)
  79:../Dave/Generated/CMSIS_DSP/FilteringFunctions/arm_fir_interpolate_q31.c **** {
  27              	 .loc 1 79 0
  28              	 .cfi_startproc
  29              	 
  30              	 
  31 0000 2DE9F04F 	 push {r4,r5,r6,r7,r8,r9,r10,fp,lr}
  32              	.LCFI0:
  33              	 .cfi_def_cfa_offset 36
  34              	 .cfi_offset 4,-36
  35              	 .cfi_offset 5,-32
  36              	 .cfi_offset 6,-28
  37              	 .cfi_offset 7,-24
  38              	 .cfi_offset 8,-20
  39              	 .cfi_offset 9,-16
  40              	 .cfi_offset 10,-12
  41              	 .cfi_offset 11,-8
  42              	 .cfi_offset 14,-4
  43 0004 9BB0     	 sub sp,sp,#108
  44              	.LCFI1:
  45              	 .cfi_def_cfa_offset 144
  46 0006 00AF     	 add r7,sp,#0
  47              	.LCFI2:
  48              	 .cfi_def_cfa_register 7
  49 0008 F860     	 str r0,[r7,#12]
  50 000a B960     	 str r1,[r7,#8]
  51 000c 7A60     	 str r2,[r7,#4]
  52 000e 3B60     	 str r3,[r7]
  80:../Dave/Generated/CMSIS_DSP/FilteringFunctions/arm_fir_interpolate_q31.c ****   q31_t *pState = S->pState;                     /* State pointer */
  53              	 .loc 1 80 0
  54 0010 FB68     	 ldr r3,[r7,#12]
  55 0012 9B68     	 ldr r3,[r3,#8]
  56 0014 7B66     	 str r3,[r7,#100]
  81:../Dave/Generated/CMSIS_DSP/FilteringFunctions/arm_fir_interpolate_q31.c ****   q31_t *pCoeffs = S->pCoeffs;                   /* Coefficient pointer */
  57              	 .loc 1 81 0
  58 0016 FB68     	 ldr r3,[r7,#12]
  59 0018 5B68     	 ldr r3,[r3,#4]
  60 001a 7B62     	 str r3,[r7,#36]
  82:../Dave/Generated/CMSIS_DSP/FilteringFunctions/arm_fir_interpolate_q31.c ****   q31_t *pStateCurnt;                            /* Points to the current sample of the state */
  83:../Dave/Generated/CMSIS_DSP/FilteringFunctions/arm_fir_interpolate_q31.c ****   q31_t *ptr1, *ptr2;                            /* Temporary pointers for state and coefficient bu
  84:../Dave/Generated/CMSIS_DSP/FilteringFunctions/arm_fir_interpolate_q31.c ****   q63_t sum0;                                    /* Accumulators */
  85:../Dave/Generated/CMSIS_DSP/FilteringFunctions/arm_fir_interpolate_q31.c ****   q31_t x0, c0;                                  /* Temporary variables to hold state and coefficie
  86:../Dave/Generated/CMSIS_DSP/FilteringFunctions/arm_fir_interpolate_q31.c ****   uint32_t i, blkCnt, j;                         /* Loop counters */
  87:../Dave/Generated/CMSIS_DSP/FilteringFunctions/arm_fir_interpolate_q31.c ****   uint16_t phaseLen = S->phaseLength, tapCnt;    /* Length of each polyphase filter component */
  61              	 .loc 1 87 0
  62 001c FB68     	 ldr r3,[r7,#12]
  63 001e 5B88     	 ldrh r3,[r3,#2]
  64 0020 7B84     	 strh r3,[r7,#34]
  88:../Dave/Generated/CMSIS_DSP/FilteringFunctions/arm_fir_interpolate_q31.c **** 
  89:../Dave/Generated/CMSIS_DSP/FilteringFunctions/arm_fir_interpolate_q31.c ****   uint32_t blkCntN2;
  90:../Dave/Generated/CMSIS_DSP/FilteringFunctions/arm_fir_interpolate_q31.c ****   q63_t acc0, acc1;
  91:../Dave/Generated/CMSIS_DSP/FilteringFunctions/arm_fir_interpolate_q31.c ****   q31_t x1;
  92:../Dave/Generated/CMSIS_DSP/FilteringFunctions/arm_fir_interpolate_q31.c **** 
  93:../Dave/Generated/CMSIS_DSP/FilteringFunctions/arm_fir_interpolate_q31.c ****   /* S->pState buffer contains previous frame (phaseLen - 1) samples */
  94:../Dave/Generated/CMSIS_DSP/FilteringFunctions/arm_fir_interpolate_q31.c ****   /* pStateCurnt points to the location where the new input data should be written */
  95:../Dave/Generated/CMSIS_DSP/FilteringFunctions/arm_fir_interpolate_q31.c ****   pStateCurnt = S->pState + ((q31_t) phaseLen - 1);
  65              	 .loc 1 95 0
  66 0022 FB68     	 ldr r3,[r7,#12]
  67 0024 9A68     	 ldr r2,[r3,#8]
  68 0026 7B8C     	 ldrh r3,[r7,#34]
  69 0028 03F18043 	 add r3,r3,#1073741824
  70 002c 013B     	 subs r3,r3,#1
  71 002e 9B00     	 lsls r3,r3,#2
  72 0030 1344     	 add r3,r3,r2
  73 0032 3B66     	 str r3,[r7,#96]
  96:../Dave/Generated/CMSIS_DSP/FilteringFunctions/arm_fir_interpolate_q31.c **** 
  97:../Dave/Generated/CMSIS_DSP/FilteringFunctions/arm_fir_interpolate_q31.c ****   /* Initialise  blkCnt */
  98:../Dave/Generated/CMSIS_DSP/FilteringFunctions/arm_fir_interpolate_q31.c ****   blkCnt = blockSize / 2;
  74              	 .loc 1 98 0
  75 0034 3B68     	 ldr r3,[r7]
  76 0036 5B08     	 lsrs r3,r3,#1
  77 0038 7B64     	 str r3,[r7,#68]
  99:../Dave/Generated/CMSIS_DSP/FilteringFunctions/arm_fir_interpolate_q31.c ****   blkCntN2 = blockSize - (2 * blkCnt);
  78              	 .loc 1 99 0
  79 003a 7B6C     	 ldr r3,[r7,#68]
  80 003c 5B00     	 lsls r3,r3,#1
  81 003e 3A68     	 ldr r2,[r7]
  82 0040 D31A     	 subs r3,r2,r3
  83 0042 FB61     	 str r3,[r7,#28]
 100:../Dave/Generated/CMSIS_DSP/FilteringFunctions/arm_fir_interpolate_q31.c **** 
 101:../Dave/Generated/CMSIS_DSP/FilteringFunctions/arm_fir_interpolate_q31.c ****   /* Samples loop unrolled by 2 */
 102:../Dave/Generated/CMSIS_DSP/FilteringFunctions/arm_fir_interpolate_q31.c ****   while(blkCnt > 0u)
  84              	 .loc 1 102 0
  85 0044 B3E1     	 b .L2
  86              	.L9:
 103:../Dave/Generated/CMSIS_DSP/FilteringFunctions/arm_fir_interpolate_q31.c ****   {
 104:../Dave/Generated/CMSIS_DSP/FilteringFunctions/arm_fir_interpolate_q31.c ****     /* Copy new input sample into the state buffer */
 105:../Dave/Generated/CMSIS_DSP/FilteringFunctions/arm_fir_interpolate_q31.c ****     *pStateCurnt++ = *pSrc++;
  87              	 .loc 1 105 0
  88 0046 3B6E     	 ldr r3,[r7,#96]
  89 0048 1A1D     	 adds r2,r3,#4
  90 004a 3A66     	 str r2,[r7,#96]
  91 004c BA68     	 ldr r2,[r7,#8]
  92 004e 111D     	 adds r1,r2,#4
  93 0050 B960     	 str r1,[r7,#8]
  94 0052 1268     	 ldr r2,[r2]
  95 0054 1A60     	 str r2,[r3]
 106:../Dave/Generated/CMSIS_DSP/FilteringFunctions/arm_fir_interpolate_q31.c ****     *pStateCurnt++ = *pSrc++;
  96              	 .loc 1 106 0
  97 0056 3B6E     	 ldr r3,[r7,#96]
  98 0058 1A1D     	 adds r2,r3,#4
  99 005a 3A66     	 str r2,[r7,#96]
 100 005c BA68     	 ldr r2,[r7,#8]
 101 005e 111D     	 adds r1,r2,#4
 102 0060 B960     	 str r1,[r7,#8]
 103 0062 1268     	 ldr r2,[r2]
 104 0064 1A60     	 str r2,[r3]
 107:../Dave/Generated/CMSIS_DSP/FilteringFunctions/arm_fir_interpolate_q31.c **** 
 108:../Dave/Generated/CMSIS_DSP/FilteringFunctions/arm_fir_interpolate_q31.c ****     /* Address modifier index of coefficient buffer */
 109:../Dave/Generated/CMSIS_DSP/FilteringFunctions/arm_fir_interpolate_q31.c ****     j = 1u;
 105              	 .loc 1 109 0
 106 0066 0123     	 movs r3,#1
 107 0068 3B64     	 str r3,[r7,#64]
 110:../Dave/Generated/CMSIS_DSP/FilteringFunctions/arm_fir_interpolate_q31.c **** 
 111:../Dave/Generated/CMSIS_DSP/FilteringFunctions/arm_fir_interpolate_q31.c ****     /* Loop over the Interpolation factor. */
 112:../Dave/Generated/CMSIS_DSP/FilteringFunctions/arm_fir_interpolate_q31.c ****     i = (S->L);
 108              	 .loc 1 112 0
 109 006a FB68     	 ldr r3,[r7,#12]
 110 006c 1B78     	 ldrb r3,[r3]
 111 006e BB64     	 str r3,[r7,#72]
 113:../Dave/Generated/CMSIS_DSP/FilteringFunctions/arm_fir_interpolate_q31.c **** 
 114:../Dave/Generated/CMSIS_DSP/FilteringFunctions/arm_fir_interpolate_q31.c ****     while(i > 0u)
 112              	 .loc 1 114 0
 113 0070 8DE1     	 b .L3
 114              	.L8:
 115:../Dave/Generated/CMSIS_DSP/FilteringFunctions/arm_fir_interpolate_q31.c ****     {
 116:../Dave/Generated/CMSIS_DSP/FilteringFunctions/arm_fir_interpolate_q31.c ****       /* Set accumulator to zero */
 117:../Dave/Generated/CMSIS_DSP/FilteringFunctions/arm_fir_interpolate_q31.c ****       acc0 = 0;
 115              	 .loc 1 117 0
 116 0072 4FF00002 	 mov r2,#0
 117 0076 4FF00003 	 mov r3,#0
 118 007a C7E90C23 	 strd r2,[r7,#48]
 118:../Dave/Generated/CMSIS_DSP/FilteringFunctions/arm_fir_interpolate_q31.c ****       acc1 = 0;
 119              	 .loc 1 118 0
 120 007e 4FF00002 	 mov r2,#0
 121 0082 4FF00003 	 mov r3,#0
 122 0086 C7E90A23 	 strd r2,[r7,#40]
 119:../Dave/Generated/CMSIS_DSP/FilteringFunctions/arm_fir_interpolate_q31.c **** 
 120:../Dave/Generated/CMSIS_DSP/FilteringFunctions/arm_fir_interpolate_q31.c ****       /* Initialize state pointer */
 121:../Dave/Generated/CMSIS_DSP/FilteringFunctions/arm_fir_interpolate_q31.c ****       ptr1 = pState;
 123              	 .loc 1 121 0
 124 008a 7B6E     	 ldr r3,[r7,#100]
 125 008c FB65     	 str r3,[r7,#92]
 122:../Dave/Generated/CMSIS_DSP/FilteringFunctions/arm_fir_interpolate_q31.c **** 
 123:../Dave/Generated/CMSIS_DSP/FilteringFunctions/arm_fir_interpolate_q31.c ****       /* Initialize coefficient pointer */
 124:../Dave/Generated/CMSIS_DSP/FilteringFunctions/arm_fir_interpolate_q31.c ****       ptr2 = pCoeffs + (S->L - j);
 126              	 .loc 1 124 0
 127 008e FB68     	 ldr r3,[r7,#12]
 128 0090 1B78     	 ldrb r3,[r3]
 129 0092 1A46     	 mov r2,r3
 130 0094 3B6C     	 ldr r3,[r7,#64]
 131 0096 D31A     	 subs r3,r2,r3
 132 0098 9B00     	 lsls r3,r3,#2
 133 009a 7A6A     	 ldr r2,[r7,#36]
 134 009c 1344     	 add r3,r3,r2
 135 009e BB65     	 str r3,[r7,#88]
 125:../Dave/Generated/CMSIS_DSP/FilteringFunctions/arm_fir_interpolate_q31.c **** 
 126:../Dave/Generated/CMSIS_DSP/FilteringFunctions/arm_fir_interpolate_q31.c ****       /* Loop over the polyPhase length. Unroll by a factor of 4.        
 127:../Dave/Generated/CMSIS_DSP/FilteringFunctions/arm_fir_interpolate_q31.c ****        ** Repeat until we've computed numTaps-(4*S->L) coefficients. */
 128:../Dave/Generated/CMSIS_DSP/FilteringFunctions/arm_fir_interpolate_q31.c ****       tapCnt = phaseLen >> 2u;
 136              	 .loc 1 128 0
 137 00a0 7B8C     	 ldrh r3,[r7,#34]
 138 00a2 9B08     	 lsrs r3,r3,#2
 139 00a4 FB87     	 strh r3,[r7,#62]
 129:../Dave/Generated/CMSIS_DSP/FilteringFunctions/arm_fir_interpolate_q31.c **** 
 130:../Dave/Generated/CMSIS_DSP/FilteringFunctions/arm_fir_interpolate_q31.c ****       x0 = *(ptr1++);
 140              	 .loc 1 130 0
 141 00a6 FB6D     	 ldr r3,[r7,#92]
 142 00a8 1A1D     	 adds r2,r3,#4
 143 00aa FA65     	 str r2,[r7,#92]
 144 00ac 1B68     	 ldr r3,[r3]
 145 00ae FB64     	 str r3,[r7,#76]
 131:../Dave/Generated/CMSIS_DSP/FilteringFunctions/arm_fir_interpolate_q31.c **** 
 132:../Dave/Generated/CMSIS_DSP/FilteringFunctions/arm_fir_interpolate_q31.c ****       while(tapCnt > 0u)
 146              	 .loc 1 132 0
 147 00b0 FBE0     	 b .L4
 148              	.L5:
 133:../Dave/Generated/CMSIS_DSP/FilteringFunctions/arm_fir_interpolate_q31.c ****       {
 134:../Dave/Generated/CMSIS_DSP/FilteringFunctions/arm_fir_interpolate_q31.c **** 
 135:../Dave/Generated/CMSIS_DSP/FilteringFunctions/arm_fir_interpolate_q31.c ****         /* Read the input sample */
 136:../Dave/Generated/CMSIS_DSP/FilteringFunctions/arm_fir_interpolate_q31.c ****         x1 = *(ptr1++);
 149              	 .loc 1 136 0
 150 00b2 FB6D     	 ldr r3,[r7,#92]
 151 00b4 1A1D     	 adds r2,r3,#4
 152 00b6 FA65     	 str r2,[r7,#92]
 153 00b8 1B68     	 ldr r3,[r3]
 154 00ba BB61     	 str r3,[r7,#24]
 137:../Dave/Generated/CMSIS_DSP/FilteringFunctions/arm_fir_interpolate_q31.c **** 
 138:../Dave/Generated/CMSIS_DSP/FilteringFunctions/arm_fir_interpolate_q31.c ****         /* Read the coefficient */
 139:../Dave/Generated/CMSIS_DSP/FilteringFunctions/arm_fir_interpolate_q31.c ****         c0 = *(ptr2);
 155              	 .loc 1 139 0
 156 00bc BB6D     	 ldr r3,[r7,#88]
 157 00be 1B68     	 ldr r3,[r3]
 158 00c0 7B61     	 str r3,[r7,#20]
 140:../Dave/Generated/CMSIS_DSP/FilteringFunctions/arm_fir_interpolate_q31.c **** 
 141:../Dave/Generated/CMSIS_DSP/FilteringFunctions/arm_fir_interpolate_q31.c ****         /* Perform the multiply-accumulate */
 142:../Dave/Generated/CMSIS_DSP/FilteringFunctions/arm_fir_interpolate_q31.c ****         acc0 += (q63_t) x0 *c0;
 159              	 .loc 1 142 0
 160 00c2 FB6C     	 ldr r3,[r7,#76]
 161 00c4 1846     	 mov r0,r3
 162 00c6 4FEAE071 	 asr r1,r0,#31
 163 00ca 7B69     	 ldr r3,[r7,#20]
 164 00cc 1A46     	 mov r2,r3
 165 00ce 4FEAE273 	 asr r3,r2,#31
 166 00d2 02FB01FE 	 mul lr,r2,r1
 167 00d6 00FB03F6 	 mul r6,r0,r3
 168 00da 7644     	 add r6,r6,lr
 169 00dc A0FB0223 	 umull r2,r3,r0,r2
 170 00e0 F118     	 adds r1,r6,r3
 171 00e2 0B46     	 mov r3,r1
 172 00e4 D7E90C01 	 ldrd r0,[r7,#48]
 173 00e8 1218     	 adds r2,r2,r0
 174 00ea 43EB0103 	 adc r3,r3,r1
 175 00ee C7E90C23 	 strd r2,[r7,#48]
 143:../Dave/Generated/CMSIS_DSP/FilteringFunctions/arm_fir_interpolate_q31.c ****         acc1 += (q63_t) x1 *c0;
 176              	 .loc 1 143 0
 177 00f2 BB69     	 ldr r3,[r7,#24]
 178 00f4 1846     	 mov r0,r3
 179 00f6 4FEAE071 	 asr r1,r0,#31
 180 00fa 7B69     	 ldr r3,[r7,#20]
 181 00fc 1A46     	 mov r2,r3
 182 00fe 4FEAE273 	 asr r3,r2,#31
 183 0102 02FB01FE 	 mul lr,r2,r1
 184 0106 00FB03F6 	 mul r6,r0,r3
 185 010a 7644     	 add r6,r6,lr
 186 010c A0FB0223 	 umull r2,r3,r0,r2
 187 0110 F118     	 adds r1,r6,r3
 188 0112 0B46     	 mov r3,r1
 189 0114 D7E90A01 	 ldrd r0,[r7,#40]
 190 0118 1218     	 adds r2,r2,r0
 191 011a 43EB0103 	 adc r3,r3,r1
 192 011e C7E90A23 	 strd r2,[r7,#40]
 144:../Dave/Generated/CMSIS_DSP/FilteringFunctions/arm_fir_interpolate_q31.c **** 
 145:../Dave/Generated/CMSIS_DSP/FilteringFunctions/arm_fir_interpolate_q31.c **** 
 146:../Dave/Generated/CMSIS_DSP/FilteringFunctions/arm_fir_interpolate_q31.c ****         /* Read the coefficient */
 147:../Dave/Generated/CMSIS_DSP/FilteringFunctions/arm_fir_interpolate_q31.c ****         c0 = *(ptr2 + S->L);
 193              	 .loc 1 147 0
 194 0122 FB68     	 ldr r3,[r7,#12]
 195 0124 1B78     	 ldrb r3,[r3]
 196 0126 9B00     	 lsls r3,r3,#2
 197 0128 BA6D     	 ldr r2,[r7,#88]
 198 012a 1344     	 add r3,r3,r2
 199 012c 1B68     	 ldr r3,[r3]
 200 012e 7B61     	 str r3,[r7,#20]
 148:../Dave/Generated/CMSIS_DSP/FilteringFunctions/arm_fir_interpolate_q31.c **** 
 149:../Dave/Generated/CMSIS_DSP/FilteringFunctions/arm_fir_interpolate_q31.c ****         /* Read the input sample */
 150:../Dave/Generated/CMSIS_DSP/FilteringFunctions/arm_fir_interpolate_q31.c ****         x0 = *(ptr1++);
 201              	 .loc 1 150 0
 202 0130 FB6D     	 ldr r3,[r7,#92]
 203 0132 1A1D     	 adds r2,r3,#4
 204 0134 FA65     	 str r2,[r7,#92]
 205 0136 1B68     	 ldr r3,[r3]
 206 0138 FB64     	 str r3,[r7,#76]
 151:../Dave/Generated/CMSIS_DSP/FilteringFunctions/arm_fir_interpolate_q31.c **** 
 152:../Dave/Generated/CMSIS_DSP/FilteringFunctions/arm_fir_interpolate_q31.c ****         /* Perform the multiply-accumulate */
 153:../Dave/Generated/CMSIS_DSP/FilteringFunctions/arm_fir_interpolate_q31.c ****         acc0 += (q63_t) x1 *c0;
 207              	 .loc 1 153 0
 208 013a BB69     	 ldr r3,[r7,#24]
 209 013c 1846     	 mov r0,r3
 210 013e 4FEAE071 	 asr r1,r0,#31
 211 0142 7B69     	 ldr r3,[r7,#20]
 212 0144 1A46     	 mov r2,r3
 213 0146 4FEAE273 	 asr r3,r2,#31
 214 014a 02FB01FE 	 mul lr,r2,r1
 215 014e 00FB03F6 	 mul r6,r0,r3
 216 0152 7644     	 add r6,r6,lr
 217 0154 A0FB0223 	 umull r2,r3,r0,r2
 218 0158 F118     	 adds r1,r6,r3
 219 015a 0B46     	 mov r3,r1
 220 015c D7E90C01 	 ldrd r0,[r7,#48]
 221 0160 1218     	 adds r2,r2,r0
 222 0162 43EB0103 	 adc r3,r3,r1
 223 0166 C7E90C23 	 strd r2,[r7,#48]
 154:../Dave/Generated/CMSIS_DSP/FilteringFunctions/arm_fir_interpolate_q31.c ****         acc1 += (q63_t) x0 *c0;
 224              	 .loc 1 154 0
 225 016a FB6C     	 ldr r3,[r7,#76]
 226 016c 1846     	 mov r0,r3
 227 016e 4FEAE071 	 asr r1,r0,#31
 228 0172 7B69     	 ldr r3,[r7,#20]
 229 0174 1A46     	 mov r2,r3
 230 0176 4FEAE273 	 asr r3,r2,#31
 231 017a 02FB01FE 	 mul lr,r2,r1
 232 017e 00FB03F6 	 mul r6,r0,r3
 233 0182 7644     	 add r6,r6,lr
 234 0184 A0FB0223 	 umull r2,r3,r0,r2
 235 0188 F118     	 adds r1,r6,r3
 236 018a 0B46     	 mov r3,r1
 237 018c D7E90A01 	 ldrd r0,[r7,#40]
 238 0190 1218     	 adds r2,r2,r0
 239 0192 43EB0103 	 adc r3,r3,r1
 240 0196 C7E90A23 	 strd r2,[r7,#40]
 155:../Dave/Generated/CMSIS_DSP/FilteringFunctions/arm_fir_interpolate_q31.c **** 
 156:../Dave/Generated/CMSIS_DSP/FilteringFunctions/arm_fir_interpolate_q31.c **** 
 157:../Dave/Generated/CMSIS_DSP/FilteringFunctions/arm_fir_interpolate_q31.c ****         /* Read the coefficient */
 158:../Dave/Generated/CMSIS_DSP/FilteringFunctions/arm_fir_interpolate_q31.c ****         c0 = *(ptr2 + S->L * 2);
 241              	 .loc 1 158 0
 242 019a FB68     	 ldr r3,[r7,#12]
 243 019c 1B78     	 ldrb r3,[r3]
 244 019e DB00     	 lsls r3,r3,#3
 245 01a0 1A46     	 mov r2,r3
 246 01a2 BB6D     	 ldr r3,[r7,#88]
 247 01a4 1344     	 add r3,r3,r2
 248 01a6 1B68     	 ldr r3,[r3]
 249 01a8 7B61     	 str r3,[r7,#20]
 159:../Dave/Generated/CMSIS_DSP/FilteringFunctions/arm_fir_interpolate_q31.c **** 
 160:../Dave/Generated/CMSIS_DSP/FilteringFunctions/arm_fir_interpolate_q31.c ****         /* Read the input sample */
 161:../Dave/Generated/CMSIS_DSP/FilteringFunctions/arm_fir_interpolate_q31.c ****         x1 = *(ptr1++);
 250              	 .loc 1 161 0
 251 01aa FB6D     	 ldr r3,[r7,#92]
 252 01ac 1A1D     	 adds r2,r3,#4
 253 01ae FA65     	 str r2,[r7,#92]
 254 01b0 1B68     	 ldr r3,[r3]
 255 01b2 BB61     	 str r3,[r7,#24]
 162:../Dave/Generated/CMSIS_DSP/FilteringFunctions/arm_fir_interpolate_q31.c **** 
 163:../Dave/Generated/CMSIS_DSP/FilteringFunctions/arm_fir_interpolate_q31.c ****         /* Perform the multiply-accumulate */
 164:../Dave/Generated/CMSIS_DSP/FilteringFunctions/arm_fir_interpolate_q31.c ****         acc0 += (q63_t) x0 *c0;
 256              	 .loc 1 164 0
 257 01b4 FB6C     	 ldr r3,[r7,#76]
 258 01b6 1846     	 mov r0,r3
 259 01b8 4FEAE071 	 asr r1,r0,#31
 260 01bc 7B69     	 ldr r3,[r7,#20]
 261 01be 1A46     	 mov r2,r3
 262 01c0 4FEAE273 	 asr r3,r2,#31
 263 01c4 02FB01FE 	 mul lr,r2,r1
 264 01c8 00FB03F6 	 mul r6,r0,r3
 265 01cc 7644     	 add r6,r6,lr
 266 01ce A0FB0223 	 umull r2,r3,r0,r2
 267 01d2 F118     	 adds r1,r6,r3
 268 01d4 0B46     	 mov r3,r1
 269 01d6 D7E90C01 	 ldrd r0,[r7,#48]
 270 01da 1218     	 adds r2,r2,r0
 271 01dc 43EB0103 	 adc r3,r3,r1
 272 01e0 C7E90C23 	 strd r2,[r7,#48]
 165:../Dave/Generated/CMSIS_DSP/FilteringFunctions/arm_fir_interpolate_q31.c ****         acc1 += (q63_t) x1 *c0;
 273              	 .loc 1 165 0
 274 01e4 BB69     	 ldr r3,[r7,#24]
 275 01e6 1846     	 mov r0,r3
 276 01e8 4FEAE071 	 asr r1,r0,#31
 277 01ec 7B69     	 ldr r3,[r7,#20]
 278 01ee 1A46     	 mov r2,r3
 279 01f0 4FEAE273 	 asr r3,r2,#31
 280 01f4 02FB01FE 	 mul lr,r2,r1
 281 01f8 00FB03F6 	 mul r6,r0,r3
 282 01fc 7644     	 add r6,r6,lr
 283 01fe A0FB0223 	 umull r2,r3,r0,r2
 284 0202 F118     	 adds r1,r6,r3
 285 0204 0B46     	 mov r3,r1
 286 0206 D7E90A01 	 ldrd r0,[r7,#40]
 287 020a 1218     	 adds r2,r2,r0
 288 020c 43EB0103 	 adc r3,r3,r1
 289 0210 C7E90A23 	 strd r2,[r7,#40]
 166:../Dave/Generated/CMSIS_DSP/FilteringFunctions/arm_fir_interpolate_q31.c **** 
 167:../Dave/Generated/CMSIS_DSP/FilteringFunctions/arm_fir_interpolate_q31.c ****         /* Read the coefficient */
 168:../Dave/Generated/CMSIS_DSP/FilteringFunctions/arm_fir_interpolate_q31.c ****         c0 = *(ptr2 + S->L * 3);
 290              	 .loc 1 168 0
 291 0214 FB68     	 ldr r3,[r7,#12]
 292 0216 1B78     	 ldrb r3,[r3]
 293 0218 1A46     	 mov r2,r3
 294 021a 1346     	 mov r3,r2
 295 021c 5B00     	 lsls r3,r3,#1
 296 021e 1344     	 add r3,r3,r2
 297 0220 9B00     	 lsls r3,r3,#2
 298 0222 1A46     	 mov r2,r3
 299 0224 BB6D     	 ldr r3,[r7,#88]
 300 0226 1344     	 add r3,r3,r2
 301 0228 1B68     	 ldr r3,[r3]
 302 022a 7B61     	 str r3,[r7,#20]
 169:../Dave/Generated/CMSIS_DSP/FilteringFunctions/arm_fir_interpolate_q31.c **** 
 170:../Dave/Generated/CMSIS_DSP/FilteringFunctions/arm_fir_interpolate_q31.c ****         /* Read the input sample */
 171:../Dave/Generated/CMSIS_DSP/FilteringFunctions/arm_fir_interpolate_q31.c ****         x0 = *(ptr1++);
 303              	 .loc 1 171 0
 304 022c FB6D     	 ldr r3,[r7,#92]
 305 022e 1A1D     	 adds r2,r3,#4
 306 0230 FA65     	 str r2,[r7,#92]
 307 0232 1B68     	 ldr r3,[r3]
 308 0234 FB64     	 str r3,[r7,#76]
 172:../Dave/Generated/CMSIS_DSP/FilteringFunctions/arm_fir_interpolate_q31.c **** 
 173:../Dave/Generated/CMSIS_DSP/FilteringFunctions/arm_fir_interpolate_q31.c ****         /* Perform the multiply-accumulate */
 174:../Dave/Generated/CMSIS_DSP/FilteringFunctions/arm_fir_interpolate_q31.c ****         acc0 += (q63_t) x1 *c0;
 309              	 .loc 1 174 0
 310 0236 BB69     	 ldr r3,[r7,#24]
 311 0238 1846     	 mov r0,r3
 312 023a 4FEAE071 	 asr r1,r0,#31
 313 023e 7B69     	 ldr r3,[r7,#20]
 314 0240 1A46     	 mov r2,r3
 315 0242 4FEAE273 	 asr r3,r2,#31
 316 0246 02FB01FE 	 mul lr,r2,r1
 317 024a 00FB03F6 	 mul r6,r0,r3
 318 024e 7644     	 add r6,r6,lr
 319 0250 A0FB0223 	 umull r2,r3,r0,r2
 320 0254 F118     	 adds r1,r6,r3
 321 0256 0B46     	 mov r3,r1
 322 0258 D7E90C01 	 ldrd r0,[r7,#48]
 323 025c 1218     	 adds r2,r2,r0
 324 025e 43EB0103 	 adc r3,r3,r1
 325 0262 C7E90C23 	 strd r2,[r7,#48]
 175:../Dave/Generated/CMSIS_DSP/FilteringFunctions/arm_fir_interpolate_q31.c ****         acc1 += (q63_t) x0 *c0;
 326              	 .loc 1 175 0
 327 0266 FB6C     	 ldr r3,[r7,#76]
 328 0268 1846     	 mov r0,r3
 329 026a 4FEAE071 	 asr r1,r0,#31
 330 026e 7B69     	 ldr r3,[r7,#20]
 331 0270 1A46     	 mov r2,r3
 332 0272 4FEAE273 	 asr r3,r2,#31
 333 0276 02FB01FE 	 mul lr,r2,r1
 334 027a 00FB03F6 	 mul r6,r0,r3
 335 027e 7644     	 add r6,r6,lr
 336 0280 A0FB0223 	 umull r2,r3,r0,r2
 337 0284 F118     	 adds r1,r6,r3
 338 0286 0B46     	 mov r3,r1
 339 0288 D7E90A01 	 ldrd r0,[r7,#40]
 340 028c 1218     	 adds r2,r2,r0
 341 028e 43EB0103 	 adc r3,r3,r1
 342 0292 C7E90A23 	 strd r2,[r7,#40]
 176:../Dave/Generated/CMSIS_DSP/FilteringFunctions/arm_fir_interpolate_q31.c **** 
 177:../Dave/Generated/CMSIS_DSP/FilteringFunctions/arm_fir_interpolate_q31.c **** 
 178:../Dave/Generated/CMSIS_DSP/FilteringFunctions/arm_fir_interpolate_q31.c ****         /* Upsampling is done by stuffing L-1 zeros between each sample.        
 179:../Dave/Generated/CMSIS_DSP/FilteringFunctions/arm_fir_interpolate_q31.c ****          * So instead of multiplying zeros with coefficients,        
 180:../Dave/Generated/CMSIS_DSP/FilteringFunctions/arm_fir_interpolate_q31.c ****          * Increment the coefficient pointer by interpolation factor times. */
 181:../Dave/Generated/CMSIS_DSP/FilteringFunctions/arm_fir_interpolate_q31.c ****         ptr2 += 4 * S->L;
 343              	 .loc 1 181 0
 344 0296 FB68     	 ldr r3,[r7,#12]
 345 0298 1B78     	 ldrb r3,[r3]
 346 029a 1B01     	 lsls r3,r3,#4
 347 029c 1A46     	 mov r2,r3
 348 029e BB6D     	 ldr r3,[r7,#88]
 349 02a0 1344     	 add r3,r3,r2
 350 02a2 BB65     	 str r3,[r7,#88]
 182:../Dave/Generated/CMSIS_DSP/FilteringFunctions/arm_fir_interpolate_q31.c **** 
 183:../Dave/Generated/CMSIS_DSP/FilteringFunctions/arm_fir_interpolate_q31.c ****         /* Decrement the loop counter */
 184:../Dave/Generated/CMSIS_DSP/FilteringFunctions/arm_fir_interpolate_q31.c ****         tapCnt--;
 351              	 .loc 1 184 0
 352 02a4 FB8F     	 ldrh r3,[r7,#62]
 353 02a6 013B     	 subs r3,r3,#1
 354 02a8 FB87     	 strh r3,[r7,#62]
 355              	.L4:
 132:../Dave/Generated/CMSIS_DSP/FilteringFunctions/arm_fir_interpolate_q31.c ****       {
 356              	 .loc 1 132 0
 357 02aa FB8F     	 ldrh r3,[r7,#62]
 358 02ac 002B     	 cmp r3,#0
 359 02ae 7FF400AF 	 bne .L5
 185:../Dave/Generated/CMSIS_DSP/FilteringFunctions/arm_fir_interpolate_q31.c ****       }
 186:../Dave/Generated/CMSIS_DSP/FilteringFunctions/arm_fir_interpolate_q31.c **** 
 187:../Dave/Generated/CMSIS_DSP/FilteringFunctions/arm_fir_interpolate_q31.c ****       /* If the polyPhase length is not a multiple of 4, compute the remaining filter taps */
 188:../Dave/Generated/CMSIS_DSP/FilteringFunctions/arm_fir_interpolate_q31.c ****       tapCnt = phaseLen % 0x4u;
 360              	 .loc 1 188 0
 361 02b2 7B8C     	 ldrh r3,[r7,#34]
 362 02b4 03F00303 	 and r3,r3,#3
 363 02b8 FB87     	 strh r3,[r7,#62]
 189:../Dave/Generated/CMSIS_DSP/FilteringFunctions/arm_fir_interpolate_q31.c **** 
 190:../Dave/Generated/CMSIS_DSP/FilteringFunctions/arm_fir_interpolate_q31.c ****       while(tapCnt > 0u)
 364              	 .loc 1 190 0
 365 02ba 42E0     	 b .L6
 366              	.L7:
 191:../Dave/Generated/CMSIS_DSP/FilteringFunctions/arm_fir_interpolate_q31.c ****       {
 192:../Dave/Generated/CMSIS_DSP/FilteringFunctions/arm_fir_interpolate_q31.c **** 
 193:../Dave/Generated/CMSIS_DSP/FilteringFunctions/arm_fir_interpolate_q31.c ****         /* Read the input sample */
 194:../Dave/Generated/CMSIS_DSP/FilteringFunctions/arm_fir_interpolate_q31.c ****         x1 = *(ptr1++);
 367              	 .loc 1 194 0
 368 02bc FB6D     	 ldr r3,[r7,#92]
 369 02be 1A1D     	 adds r2,r3,#4
 370 02c0 FA65     	 str r2,[r7,#92]
 371 02c2 1B68     	 ldr r3,[r3]
 372 02c4 BB61     	 str r3,[r7,#24]
 195:../Dave/Generated/CMSIS_DSP/FilteringFunctions/arm_fir_interpolate_q31.c **** 
 196:../Dave/Generated/CMSIS_DSP/FilteringFunctions/arm_fir_interpolate_q31.c ****         /* Read the coefficient */
 197:../Dave/Generated/CMSIS_DSP/FilteringFunctions/arm_fir_interpolate_q31.c ****         c0 = *(ptr2);
 373              	 .loc 1 197 0
 374 02c6 BB6D     	 ldr r3,[r7,#88]
 375 02c8 1B68     	 ldr r3,[r3]
 376 02ca 7B61     	 str r3,[r7,#20]
 198:../Dave/Generated/CMSIS_DSP/FilteringFunctions/arm_fir_interpolate_q31.c **** 
 199:../Dave/Generated/CMSIS_DSP/FilteringFunctions/arm_fir_interpolate_q31.c ****         /* Perform the multiply-accumulate */
 200:../Dave/Generated/CMSIS_DSP/FilteringFunctions/arm_fir_interpolate_q31.c ****         acc0 += (q63_t) x0 *c0;
 377              	 .loc 1 200 0
 378 02cc FB6C     	 ldr r3,[r7,#76]
 379 02ce 1846     	 mov r0,r3
 380 02d0 4FEAE071 	 asr r1,r0,#31
 381 02d4 7B69     	 ldr r3,[r7,#20]
 382 02d6 1A46     	 mov r2,r3
 383 02d8 4FEAE273 	 asr r3,r2,#31
 384 02dc 02FB01FE 	 mul lr,r2,r1
 385 02e0 00FB03F6 	 mul r6,r0,r3
 386 02e4 7644     	 add r6,r6,lr
 387 02e6 A0FB0223 	 umull r2,r3,r0,r2
 388 02ea F118     	 adds r1,r6,r3
 389 02ec 0B46     	 mov r3,r1
 390 02ee D7E90C01 	 ldrd r0,[r7,#48]
 391 02f2 1218     	 adds r2,r2,r0
 392 02f4 43EB0103 	 adc r3,r3,r1
 393 02f8 C7E90C23 	 strd r2,[r7,#48]
 201:../Dave/Generated/CMSIS_DSP/FilteringFunctions/arm_fir_interpolate_q31.c ****         acc1 += (q63_t) x1 *c0;
 394              	 .loc 1 201 0
 395 02fc BB69     	 ldr r3,[r7,#24]
 396 02fe 1846     	 mov r0,r3
 397 0300 4FEAE071 	 asr r1,r0,#31
 398 0304 7B69     	 ldr r3,[r7,#20]
 399 0306 1A46     	 mov r2,r3
 400 0308 4FEAE273 	 asr r3,r2,#31
 401 030c 02FB01FE 	 mul lr,r2,r1
 402 0310 00FB03F6 	 mul r6,r0,r3
 403 0314 7644     	 add r6,r6,lr
 404 0316 A0FB0223 	 umull r2,r3,r0,r2
 405 031a F118     	 adds r1,r6,r3
 406 031c 0B46     	 mov r3,r1
 407 031e D7E90A01 	 ldrd r0,[r7,#40]
 408 0322 1218     	 adds r2,r2,r0
 409 0324 43EB0103 	 adc r3,r3,r1
 410 0328 C7E90A23 	 strd r2,[r7,#40]
 202:../Dave/Generated/CMSIS_DSP/FilteringFunctions/arm_fir_interpolate_q31.c **** 
 203:../Dave/Generated/CMSIS_DSP/FilteringFunctions/arm_fir_interpolate_q31.c ****         /* Increment the coefficient pointer by interpolation factor times. */
 204:../Dave/Generated/CMSIS_DSP/FilteringFunctions/arm_fir_interpolate_q31.c ****         ptr2 += S->L;
 411              	 .loc 1 204 0
 412 032c FB68     	 ldr r3,[r7,#12]
 413 032e 1B78     	 ldrb r3,[r3]
 414 0330 9B00     	 lsls r3,r3,#2
 415 0332 BA6D     	 ldr r2,[r7,#88]
 416 0334 1344     	 add r3,r3,r2
 417 0336 BB65     	 str r3,[r7,#88]
 205:../Dave/Generated/CMSIS_DSP/FilteringFunctions/arm_fir_interpolate_q31.c **** 
 206:../Dave/Generated/CMSIS_DSP/FilteringFunctions/arm_fir_interpolate_q31.c ****         /* update states for next sample processing */
 207:../Dave/Generated/CMSIS_DSP/FilteringFunctions/arm_fir_interpolate_q31.c ****         x0 = x1;
 418              	 .loc 1 207 0
 419 0338 BB69     	 ldr r3,[r7,#24]
 420 033a FB64     	 str r3,[r7,#76]
 208:../Dave/Generated/CMSIS_DSP/FilteringFunctions/arm_fir_interpolate_q31.c **** 
 209:../Dave/Generated/CMSIS_DSP/FilteringFunctions/arm_fir_interpolate_q31.c ****         /* Decrement the loop counter */
 210:../Dave/Generated/CMSIS_DSP/FilteringFunctions/arm_fir_interpolate_q31.c ****         tapCnt--;
 421              	 .loc 1 210 0
 422 033c FB8F     	 ldrh r3,[r7,#62]
 423 033e 013B     	 subs r3,r3,#1
 424 0340 FB87     	 strh r3,[r7,#62]
 425              	.L6:
 190:../Dave/Generated/CMSIS_DSP/FilteringFunctions/arm_fir_interpolate_q31.c ****       {
 426              	 .loc 1 190 0
 427 0342 FB8F     	 ldrh r3,[r7,#62]
 428 0344 002B     	 cmp r3,#0
 429 0346 B9D1     	 bne .L7
 211:../Dave/Generated/CMSIS_DSP/FilteringFunctions/arm_fir_interpolate_q31.c ****       }
 212:../Dave/Generated/CMSIS_DSP/FilteringFunctions/arm_fir_interpolate_q31.c **** 
 213:../Dave/Generated/CMSIS_DSP/FilteringFunctions/arm_fir_interpolate_q31.c ****       /* The result is in the accumulator, store in the destination buffer. */
 214:../Dave/Generated/CMSIS_DSP/FilteringFunctions/arm_fir_interpolate_q31.c ****       *pDst = (q31_t) (acc0 >> 31);
 430              	 .loc 1 214 0
 431 0348 D7E90C23 	 ldrd r2,[r7,#48]
 432 034c 4FEAD278 	 lsr r8,r2,#31
 433 0350 48EA4308 	 orr r8,r8,r3,lsl#1
 434 0354 4FEAE379 	 asr r9,r3,#31
 435 0358 4246     	 mov r2,r8
 436 035a 7B68     	 ldr r3,[r7,#4]
 437 035c 1A60     	 str r2,[r3]
 215:../Dave/Generated/CMSIS_DSP/FilteringFunctions/arm_fir_interpolate_q31.c ****       *(pDst + S->L) = (q31_t) (acc1 >> 31);
 438              	 .loc 1 215 0
 439 035e FB68     	 ldr r3,[r7,#12]
 440 0360 1B78     	 ldrb r3,[r3]
 441 0362 9B00     	 lsls r3,r3,#2
 442 0364 7A68     	 ldr r2,[r7,#4]
 443 0366 D118     	 adds r1,r2,r3
 444 0368 D7E90A23 	 ldrd r2,[r7,#40]
 445 036c 4FEAD27A 	 lsr r10,r2,#31
 446 0370 4AEA430A 	 orr r10,r10,r3,lsl#1
 447 0374 4FEAE37B 	 asr fp,r3,#31
 448 0378 5346     	 mov r3,r10
 449 037a 0B60     	 str r3,[r1]
 216:../Dave/Generated/CMSIS_DSP/FilteringFunctions/arm_fir_interpolate_q31.c **** 
 217:../Dave/Generated/CMSIS_DSP/FilteringFunctions/arm_fir_interpolate_q31.c **** 
 218:../Dave/Generated/CMSIS_DSP/FilteringFunctions/arm_fir_interpolate_q31.c ****       pDst++;
 450              	 .loc 1 218 0
 451 037c 7B68     	 ldr r3,[r7,#4]
 452 037e 0433     	 adds r3,r3,#4
 453 0380 7B60     	 str r3,[r7,#4]
 219:../Dave/Generated/CMSIS_DSP/FilteringFunctions/arm_fir_interpolate_q31.c **** 
 220:../Dave/Generated/CMSIS_DSP/FilteringFunctions/arm_fir_interpolate_q31.c ****       /* Increment the address modifier index of coefficient buffer */
 221:../Dave/Generated/CMSIS_DSP/FilteringFunctions/arm_fir_interpolate_q31.c ****       j++;
 454              	 .loc 1 221 0
 455 0382 3B6C     	 ldr r3,[r7,#64]
 456 0384 0133     	 adds r3,r3,#1
 457 0386 3B64     	 str r3,[r7,#64]
 222:../Dave/Generated/CMSIS_DSP/FilteringFunctions/arm_fir_interpolate_q31.c **** 
 223:../Dave/Generated/CMSIS_DSP/FilteringFunctions/arm_fir_interpolate_q31.c ****       /* Decrement the loop counter */
 224:../Dave/Generated/CMSIS_DSP/FilteringFunctions/arm_fir_interpolate_q31.c ****       i--;
 458              	 .loc 1 224 0
 459 0388 BB6C     	 ldr r3,[r7,#72]
 460 038a 013B     	 subs r3,r3,#1
 461 038c BB64     	 str r3,[r7,#72]
 462              	.L3:
 114:../Dave/Generated/CMSIS_DSP/FilteringFunctions/arm_fir_interpolate_q31.c ****     {
 463              	 .loc 1 114 0
 464 038e BB6C     	 ldr r3,[r7,#72]
 465 0390 002B     	 cmp r3,#0
 466 0392 7FF46EAE 	 bne .L8
 225:../Dave/Generated/CMSIS_DSP/FilteringFunctions/arm_fir_interpolate_q31.c ****     }
 226:../Dave/Generated/CMSIS_DSP/FilteringFunctions/arm_fir_interpolate_q31.c **** 
 227:../Dave/Generated/CMSIS_DSP/FilteringFunctions/arm_fir_interpolate_q31.c ****     /* Advance the state pointer by 1        
 228:../Dave/Generated/CMSIS_DSP/FilteringFunctions/arm_fir_interpolate_q31.c ****      * to process the next group of interpolation factor number samples */
 229:../Dave/Generated/CMSIS_DSP/FilteringFunctions/arm_fir_interpolate_q31.c ****     pState = pState + 2;
 467              	 .loc 1 229 0
 468 0396 7B6E     	 ldr r3,[r7,#100]
 469 0398 0833     	 adds r3,r3,#8
 470 039a 7B66     	 str r3,[r7,#100]
 230:../Dave/Generated/CMSIS_DSP/FilteringFunctions/arm_fir_interpolate_q31.c **** 
 231:../Dave/Generated/CMSIS_DSP/FilteringFunctions/arm_fir_interpolate_q31.c ****     pDst += S->L;
 471              	 .loc 1 231 0
 472 039c FB68     	 ldr r3,[r7,#12]
 473 039e 1B78     	 ldrb r3,[r3]
 474 03a0 9B00     	 lsls r3,r3,#2
 475 03a2 7A68     	 ldr r2,[r7,#4]
 476 03a4 1344     	 add r3,r3,r2
 477 03a6 7B60     	 str r3,[r7,#4]
 232:../Dave/Generated/CMSIS_DSP/FilteringFunctions/arm_fir_interpolate_q31.c **** 
 233:../Dave/Generated/CMSIS_DSP/FilteringFunctions/arm_fir_interpolate_q31.c ****     /* Decrement the loop counter */
 234:../Dave/Generated/CMSIS_DSP/FilteringFunctions/arm_fir_interpolate_q31.c ****     blkCnt--;
 478              	 .loc 1 234 0
 479 03a8 7B6C     	 ldr r3,[r7,#68]
 480 03aa 013B     	 subs r3,r3,#1
 481 03ac 7B64     	 str r3,[r7,#68]
 482              	.L2:
 102:../Dave/Generated/CMSIS_DSP/FilteringFunctions/arm_fir_interpolate_q31.c ****   {
 483              	 .loc 1 102 0
 484 03ae 7B6C     	 ldr r3,[r7,#68]
 485 03b0 002B     	 cmp r3,#0
 486 03b2 7FF448AE 	 bne .L9
 235:../Dave/Generated/CMSIS_DSP/FilteringFunctions/arm_fir_interpolate_q31.c ****   }
 236:../Dave/Generated/CMSIS_DSP/FilteringFunctions/arm_fir_interpolate_q31.c **** 
 237:../Dave/Generated/CMSIS_DSP/FilteringFunctions/arm_fir_interpolate_q31.c ****   /* If the blockSize is not a multiple of 2, compute any remaining output samples here.        
 238:../Dave/Generated/CMSIS_DSP/FilteringFunctions/arm_fir_interpolate_q31.c ****    ** No loop unrolling is used. */
 239:../Dave/Generated/CMSIS_DSP/FilteringFunctions/arm_fir_interpolate_q31.c ****   blkCnt = blkCntN2;
 487              	 .loc 1 239 0
 488 03b6 FB69     	 ldr r3,[r7,#28]
 489 03b8 7B64     	 str r3,[r7,#68]
 240:../Dave/Generated/CMSIS_DSP/FilteringFunctions/arm_fir_interpolate_q31.c **** 
 241:../Dave/Generated/CMSIS_DSP/FilteringFunctions/arm_fir_interpolate_q31.c ****   /* Loop over the blockSize. */
 242:../Dave/Generated/CMSIS_DSP/FilteringFunctions/arm_fir_interpolate_q31.c ****   while(blkCnt > 0u)
 490              	 .loc 1 242 0
 491 03ba 0DE1     	 b .L10
 492              	.L17:
 243:../Dave/Generated/CMSIS_DSP/FilteringFunctions/arm_fir_interpolate_q31.c ****   {
 244:../Dave/Generated/CMSIS_DSP/FilteringFunctions/arm_fir_interpolate_q31.c ****     /* Copy new input sample into the state buffer */
 245:../Dave/Generated/CMSIS_DSP/FilteringFunctions/arm_fir_interpolate_q31.c ****     *pStateCurnt++ = *pSrc++;
 493              	 .loc 1 245 0
 494 03bc 3B6E     	 ldr r3,[r7,#96]
 495 03be 1A1D     	 adds r2,r3,#4
 496 03c0 3A66     	 str r2,[r7,#96]
 497 03c2 BA68     	 ldr r2,[r7,#8]
 498 03c4 111D     	 adds r1,r2,#4
 499 03c6 B960     	 str r1,[r7,#8]
 500 03c8 1268     	 ldr r2,[r2]
 501 03ca 1A60     	 str r2,[r3]
 246:../Dave/Generated/CMSIS_DSP/FilteringFunctions/arm_fir_interpolate_q31.c **** 
 247:../Dave/Generated/CMSIS_DSP/FilteringFunctions/arm_fir_interpolate_q31.c ****     /* Address modifier index of coefficient buffer */
 248:../Dave/Generated/CMSIS_DSP/FilteringFunctions/arm_fir_interpolate_q31.c ****     j = 1u;
 502              	 .loc 1 248 0
 503 03cc 0123     	 movs r3,#1
 504 03ce 3B64     	 str r3,[r7,#64]
 249:../Dave/Generated/CMSIS_DSP/FilteringFunctions/arm_fir_interpolate_q31.c **** 
 250:../Dave/Generated/CMSIS_DSP/FilteringFunctions/arm_fir_interpolate_q31.c ****     /* Loop over the Interpolation factor. */
 251:../Dave/Generated/CMSIS_DSP/FilteringFunctions/arm_fir_interpolate_q31.c ****     i = S->L;
 505              	 .loc 1 251 0
 506 03d0 FB68     	 ldr r3,[r7,#12]
 507 03d2 1B78     	 ldrb r3,[r3]
 508 03d4 BB64     	 str r3,[r7,#72]
 252:../Dave/Generated/CMSIS_DSP/FilteringFunctions/arm_fir_interpolate_q31.c ****     while(i > 0u)
 509              	 .loc 1 252 0
 510 03d6 F5E0     	 b .L11
 511              	.L16:
 253:../Dave/Generated/CMSIS_DSP/FilteringFunctions/arm_fir_interpolate_q31.c ****     {
 254:../Dave/Generated/CMSIS_DSP/FilteringFunctions/arm_fir_interpolate_q31.c ****       /* Set accumulator to zero */
 255:../Dave/Generated/CMSIS_DSP/FilteringFunctions/arm_fir_interpolate_q31.c ****       sum0 = 0;
 512              	 .loc 1 255 0
 513 03d8 4FF00002 	 mov r2,#0
 514 03dc 4FF00003 	 mov r3,#0
 515 03e0 C7E91423 	 strd r2,[r7,#80]
 256:../Dave/Generated/CMSIS_DSP/FilteringFunctions/arm_fir_interpolate_q31.c **** 
 257:../Dave/Generated/CMSIS_DSP/FilteringFunctions/arm_fir_interpolate_q31.c ****       /* Initialize state pointer */
 258:../Dave/Generated/CMSIS_DSP/FilteringFunctions/arm_fir_interpolate_q31.c ****       ptr1 = pState;
 516              	 .loc 1 258 0
 517 03e4 7B6E     	 ldr r3,[r7,#100]
 518 03e6 FB65     	 str r3,[r7,#92]
 259:../Dave/Generated/CMSIS_DSP/FilteringFunctions/arm_fir_interpolate_q31.c **** 
 260:../Dave/Generated/CMSIS_DSP/FilteringFunctions/arm_fir_interpolate_q31.c ****       /* Initialize coefficient pointer */
 261:../Dave/Generated/CMSIS_DSP/FilteringFunctions/arm_fir_interpolate_q31.c ****       ptr2 = pCoeffs + (S->L - j);
 519              	 .loc 1 261 0
 520 03e8 FB68     	 ldr r3,[r7,#12]
 521 03ea 1B78     	 ldrb r3,[r3]
 522 03ec 1A46     	 mov r2,r3
 523 03ee 3B6C     	 ldr r3,[r7,#64]
 524 03f0 D31A     	 subs r3,r2,r3
 525 03f2 9B00     	 lsls r3,r3,#2
 526 03f4 7A6A     	 ldr r2,[r7,#36]
 527 03f6 1344     	 add r3,r3,r2
 528 03f8 BB65     	 str r3,[r7,#88]
 262:../Dave/Generated/CMSIS_DSP/FilteringFunctions/arm_fir_interpolate_q31.c **** 
 263:../Dave/Generated/CMSIS_DSP/FilteringFunctions/arm_fir_interpolate_q31.c ****       /* Loop over the polyPhase length. Unroll by a factor of 4.        
 264:../Dave/Generated/CMSIS_DSP/FilteringFunctions/arm_fir_interpolate_q31.c ****        ** Repeat until we've computed numTaps-(4*S->L) coefficients. */
 265:../Dave/Generated/CMSIS_DSP/FilteringFunctions/arm_fir_interpolate_q31.c ****       tapCnt = phaseLen >> 2;
 529              	 .loc 1 265 0
 530 03fa 7B8C     	 ldrh r3,[r7,#34]
 531 03fc 9B08     	 lsrs r3,r3,#2
 532 03fe FB87     	 strh r3,[r7,#62]
 266:../Dave/Generated/CMSIS_DSP/FilteringFunctions/arm_fir_interpolate_q31.c ****       while(tapCnt > 0u)
 533              	 .loc 1 266 0
 534 0400 9AE0     	 b .L12
 535              	.L13:
 267:../Dave/Generated/CMSIS_DSP/FilteringFunctions/arm_fir_interpolate_q31.c ****       {
 268:../Dave/Generated/CMSIS_DSP/FilteringFunctions/arm_fir_interpolate_q31.c **** 
 269:../Dave/Generated/CMSIS_DSP/FilteringFunctions/arm_fir_interpolate_q31.c ****         /* Read the coefficient */
 270:../Dave/Generated/CMSIS_DSP/FilteringFunctions/arm_fir_interpolate_q31.c ****         c0 = *(ptr2);
 536              	 .loc 1 270 0
 537 0402 BB6D     	 ldr r3,[r7,#88]
 538 0404 1B68     	 ldr r3,[r3]
 539 0406 7B61     	 str r3,[r7,#20]
 271:../Dave/Generated/CMSIS_DSP/FilteringFunctions/arm_fir_interpolate_q31.c **** 
 272:../Dave/Generated/CMSIS_DSP/FilteringFunctions/arm_fir_interpolate_q31.c ****         /* Upsampling is done by stuffing L-1 zeros between each sample.        
 273:../Dave/Generated/CMSIS_DSP/FilteringFunctions/arm_fir_interpolate_q31.c ****          * So instead of multiplying zeros with coefficients,        
 274:../Dave/Generated/CMSIS_DSP/FilteringFunctions/arm_fir_interpolate_q31.c ****          * Increment the coefficient pointer by interpolation factor times. */
 275:../Dave/Generated/CMSIS_DSP/FilteringFunctions/arm_fir_interpolate_q31.c ****         ptr2 += S->L;
 540              	 .loc 1 275 0
 541 0408 FB68     	 ldr r3,[r7,#12]
 542 040a 1B78     	 ldrb r3,[r3]
 543 040c 9B00     	 lsls r3,r3,#2
 544 040e BA6D     	 ldr r2,[r7,#88]
 545 0410 1344     	 add r3,r3,r2
 546 0412 BB65     	 str r3,[r7,#88]
 276:../Dave/Generated/CMSIS_DSP/FilteringFunctions/arm_fir_interpolate_q31.c **** 
 277:../Dave/Generated/CMSIS_DSP/FilteringFunctions/arm_fir_interpolate_q31.c ****         /* Read the input sample */
 278:../Dave/Generated/CMSIS_DSP/FilteringFunctions/arm_fir_interpolate_q31.c ****         x0 = *(ptr1++);
 547              	 .loc 1 278 0
 548 0414 FB6D     	 ldr r3,[r7,#92]
 549 0416 1A1D     	 adds r2,r3,#4
 550 0418 FA65     	 str r2,[r7,#92]
 551 041a 1B68     	 ldr r3,[r3]
 552 041c FB64     	 str r3,[r7,#76]
 279:../Dave/Generated/CMSIS_DSP/FilteringFunctions/arm_fir_interpolate_q31.c **** 
 280:../Dave/Generated/CMSIS_DSP/FilteringFunctions/arm_fir_interpolate_q31.c ****         /* Perform the multiply-accumulate */
 281:../Dave/Generated/CMSIS_DSP/FilteringFunctions/arm_fir_interpolate_q31.c ****         sum0 += (q63_t) x0 *c0;
 553              	 .loc 1 281 0
 554 041e FB6C     	 ldr r3,[r7,#76]
 555 0420 1846     	 mov r0,r3
 556 0422 4FEAE071 	 asr r1,r0,#31
 557 0426 7B69     	 ldr r3,[r7,#20]
 558 0428 1A46     	 mov r2,r3
 559 042a 4FEAE273 	 asr r3,r2,#31
 560 042e 02FB01FE 	 mul lr,r2,r1
 561 0432 00FB03F6 	 mul r6,r0,r3
 562 0436 7644     	 add r6,r6,lr
 563 0438 A0FB0223 	 umull r2,r3,r0,r2
 564 043c F118     	 adds r1,r6,r3
 565 043e 0B46     	 mov r3,r1
 566 0440 D7E91401 	 ldrd r0,[r7,#80]
 567 0444 1218     	 adds r2,r2,r0
 568 0446 43EB0103 	 adc r3,r3,r1
 569 044a C7E91423 	 strd r2,[r7,#80]
 282:../Dave/Generated/CMSIS_DSP/FilteringFunctions/arm_fir_interpolate_q31.c **** 
 283:../Dave/Generated/CMSIS_DSP/FilteringFunctions/arm_fir_interpolate_q31.c ****         /* Read the coefficient */
 284:../Dave/Generated/CMSIS_DSP/FilteringFunctions/arm_fir_interpolate_q31.c ****         c0 = *(ptr2);
 570              	 .loc 1 284 0
 571 044e BB6D     	 ldr r3,[r7,#88]
 572 0450 1B68     	 ldr r3,[r3]
 573 0452 7B61     	 str r3,[r7,#20]
 285:../Dave/Generated/CMSIS_DSP/FilteringFunctions/arm_fir_interpolate_q31.c **** 
 286:../Dave/Generated/CMSIS_DSP/FilteringFunctions/arm_fir_interpolate_q31.c ****         /* Increment the coefficient pointer by interpolation factor times. */
 287:../Dave/Generated/CMSIS_DSP/FilteringFunctions/arm_fir_interpolate_q31.c ****         ptr2 += S->L;
 574              	 .loc 1 287 0
 575 0454 FB68     	 ldr r3,[r7,#12]
 576 0456 1B78     	 ldrb r3,[r3]
 577 0458 9B00     	 lsls r3,r3,#2
 578 045a BA6D     	 ldr r2,[r7,#88]
 579 045c 1344     	 add r3,r3,r2
 580 045e BB65     	 str r3,[r7,#88]
 288:../Dave/Generated/CMSIS_DSP/FilteringFunctions/arm_fir_interpolate_q31.c **** 
 289:../Dave/Generated/CMSIS_DSP/FilteringFunctions/arm_fir_interpolate_q31.c ****         /* Read the input sample */
 290:../Dave/Generated/CMSIS_DSP/FilteringFunctions/arm_fir_interpolate_q31.c ****         x0 = *(ptr1++);
 581              	 .loc 1 290 0
 582 0460 FB6D     	 ldr r3,[r7,#92]
 583 0462 1A1D     	 adds r2,r3,#4
 584 0464 FA65     	 str r2,[r7,#92]
 585 0466 1B68     	 ldr r3,[r3]
 586 0468 FB64     	 str r3,[r7,#76]
 291:../Dave/Generated/CMSIS_DSP/FilteringFunctions/arm_fir_interpolate_q31.c **** 
 292:../Dave/Generated/CMSIS_DSP/FilteringFunctions/arm_fir_interpolate_q31.c ****         /* Perform the multiply-accumulate */
 293:../Dave/Generated/CMSIS_DSP/FilteringFunctions/arm_fir_interpolate_q31.c ****         sum0 += (q63_t) x0 *c0;
 587              	 .loc 1 293 0
 588 046a FB6C     	 ldr r3,[r7,#76]
 589 046c 1846     	 mov r0,r3
 590 046e 4FEAE071 	 asr r1,r0,#31
 591 0472 7B69     	 ldr r3,[r7,#20]
 592 0474 1A46     	 mov r2,r3
 593 0476 4FEAE273 	 asr r3,r2,#31
 594 047a 02FB01FE 	 mul lr,r2,r1
 595 047e 00FB03F6 	 mul r6,r0,r3
 596 0482 7644     	 add r6,r6,lr
 597 0484 A0FB0223 	 umull r2,r3,r0,r2
 598 0488 F118     	 adds r1,r6,r3
 599 048a 0B46     	 mov r3,r1
 600 048c D7E91401 	 ldrd r0,[r7,#80]
 601 0490 1218     	 adds r2,r2,r0
 602 0492 43EB0103 	 adc r3,r3,r1
 603 0496 C7E91423 	 strd r2,[r7,#80]
 294:../Dave/Generated/CMSIS_DSP/FilteringFunctions/arm_fir_interpolate_q31.c **** 
 295:../Dave/Generated/CMSIS_DSP/FilteringFunctions/arm_fir_interpolate_q31.c ****         /* Read the coefficient */
 296:../Dave/Generated/CMSIS_DSP/FilteringFunctions/arm_fir_interpolate_q31.c ****         c0 = *(ptr2);
 604              	 .loc 1 296 0
 605 049a BB6D     	 ldr r3,[r7,#88]
 606 049c 1B68     	 ldr r3,[r3]
 607 049e 7B61     	 str r3,[r7,#20]
 297:../Dave/Generated/CMSIS_DSP/FilteringFunctions/arm_fir_interpolate_q31.c **** 
 298:../Dave/Generated/CMSIS_DSP/FilteringFunctions/arm_fir_interpolate_q31.c ****         /* Increment the coefficient pointer by interpolation factor times. */
 299:../Dave/Generated/CMSIS_DSP/FilteringFunctions/arm_fir_interpolate_q31.c ****         ptr2 += S->L;
 608              	 .loc 1 299 0
 609 04a0 FB68     	 ldr r3,[r7,#12]
 610 04a2 1B78     	 ldrb r3,[r3]
 611 04a4 9B00     	 lsls r3,r3,#2
 612 04a6 BA6D     	 ldr r2,[r7,#88]
 613 04a8 1344     	 add r3,r3,r2
 614 04aa BB65     	 str r3,[r7,#88]
 300:../Dave/Generated/CMSIS_DSP/FilteringFunctions/arm_fir_interpolate_q31.c **** 
 301:../Dave/Generated/CMSIS_DSP/FilteringFunctions/arm_fir_interpolate_q31.c ****         /* Read the input sample */
 302:../Dave/Generated/CMSIS_DSP/FilteringFunctions/arm_fir_interpolate_q31.c ****         x0 = *(ptr1++);
 615              	 .loc 1 302 0
 616 04ac FB6D     	 ldr r3,[r7,#92]
 617 04ae 1A1D     	 adds r2,r3,#4
 618 04b0 FA65     	 str r2,[r7,#92]
 619 04b2 1B68     	 ldr r3,[r3]
 620 04b4 FB64     	 str r3,[r7,#76]
 303:../Dave/Generated/CMSIS_DSP/FilteringFunctions/arm_fir_interpolate_q31.c **** 
 304:../Dave/Generated/CMSIS_DSP/FilteringFunctions/arm_fir_interpolate_q31.c ****         /* Perform the multiply-accumulate */
 305:../Dave/Generated/CMSIS_DSP/FilteringFunctions/arm_fir_interpolate_q31.c ****         sum0 += (q63_t) x0 *c0;
 621              	 .loc 1 305 0
 622 04b6 FB6C     	 ldr r3,[r7,#76]
 623 04b8 1846     	 mov r0,r3
 624 04ba 4FEAE071 	 asr r1,r0,#31
 625 04be 7B69     	 ldr r3,[r7,#20]
 626 04c0 1A46     	 mov r2,r3
 627 04c2 4FEAE273 	 asr r3,r2,#31
 628 04c6 02FB01FE 	 mul lr,r2,r1
 629 04ca 00FB03F6 	 mul r6,r0,r3
 630 04ce 7644     	 add r6,r6,lr
 631 04d0 A0FB0223 	 umull r2,r3,r0,r2
 632 04d4 F118     	 adds r1,r6,r3
 633 04d6 0B46     	 mov r3,r1
 634 04d8 D7E91401 	 ldrd r0,[r7,#80]
 635 04dc 1218     	 adds r2,r2,r0
 636 04de 43EB0103 	 adc r3,r3,r1
 637 04e2 C7E91423 	 strd r2,[r7,#80]
 306:../Dave/Generated/CMSIS_DSP/FilteringFunctions/arm_fir_interpolate_q31.c **** 
 307:../Dave/Generated/CMSIS_DSP/FilteringFunctions/arm_fir_interpolate_q31.c ****         /* Read the coefficient */
 308:../Dave/Generated/CMSIS_DSP/FilteringFunctions/arm_fir_interpolate_q31.c ****         c0 = *(ptr2);
 638              	 .loc 1 308 0
 639 04e6 BB6D     	 ldr r3,[r7,#88]
 640 04e8 1B68     	 ldr r3,[r3]
 641 04ea 7B61     	 str r3,[r7,#20]
 309:../Dave/Generated/CMSIS_DSP/FilteringFunctions/arm_fir_interpolate_q31.c **** 
 310:../Dave/Generated/CMSIS_DSP/FilteringFunctions/arm_fir_interpolate_q31.c ****         /* Increment the coefficient pointer by interpolation factor times. */
 311:../Dave/Generated/CMSIS_DSP/FilteringFunctions/arm_fir_interpolate_q31.c ****         ptr2 += S->L;
 642              	 .loc 1 311 0
 643 04ec FB68     	 ldr r3,[r7,#12]
 644 04ee 1B78     	 ldrb r3,[r3]
 645 04f0 9B00     	 lsls r3,r3,#2
 646 04f2 BA6D     	 ldr r2,[r7,#88]
 647 04f4 1344     	 add r3,r3,r2
 648 04f6 BB65     	 str r3,[r7,#88]
 312:../Dave/Generated/CMSIS_DSP/FilteringFunctions/arm_fir_interpolate_q31.c **** 
 313:../Dave/Generated/CMSIS_DSP/FilteringFunctions/arm_fir_interpolate_q31.c ****         /* Read the input sample */
 314:../Dave/Generated/CMSIS_DSP/FilteringFunctions/arm_fir_interpolate_q31.c ****         x0 = *(ptr1++);
 649              	 .loc 1 314 0
 650 04f8 FB6D     	 ldr r3,[r7,#92]
 651 04fa 1A1D     	 adds r2,r3,#4
 652 04fc FA65     	 str r2,[r7,#92]
 653 04fe 1B68     	 ldr r3,[r3]
 654 0500 FB64     	 str r3,[r7,#76]
 315:../Dave/Generated/CMSIS_DSP/FilteringFunctions/arm_fir_interpolate_q31.c **** 
 316:../Dave/Generated/CMSIS_DSP/FilteringFunctions/arm_fir_interpolate_q31.c ****         /* Perform the multiply-accumulate */
 317:../Dave/Generated/CMSIS_DSP/FilteringFunctions/arm_fir_interpolate_q31.c ****         sum0 += (q63_t) x0 *c0;
 655              	 .loc 1 317 0
 656 0502 FB6C     	 ldr r3,[r7,#76]
 657 0504 1846     	 mov r0,r3
 658 0506 4FEAE071 	 asr r1,r0,#31
 659 050a 7B69     	 ldr r3,[r7,#20]
 660 050c 1A46     	 mov r2,r3
 661 050e 4FEAE273 	 asr r3,r2,#31
 662 0512 02FB01FE 	 mul lr,r2,r1
 663 0516 00FB03F6 	 mul r6,r0,r3
 664 051a 7644     	 add r6,r6,lr
 665 051c A0FB0223 	 umull r2,r3,r0,r2
 666 0520 F118     	 adds r1,r6,r3
 667 0522 0B46     	 mov r3,r1
 668 0524 D7E91401 	 ldrd r0,[r7,#80]
 669 0528 1218     	 adds r2,r2,r0
 670 052a 43EB0103 	 adc r3,r3,r1
 671 052e C7E91423 	 strd r2,[r7,#80]
 318:../Dave/Generated/CMSIS_DSP/FilteringFunctions/arm_fir_interpolate_q31.c **** 
 319:../Dave/Generated/CMSIS_DSP/FilteringFunctions/arm_fir_interpolate_q31.c ****         /* Decrement the loop counter */
 320:../Dave/Generated/CMSIS_DSP/FilteringFunctions/arm_fir_interpolate_q31.c ****         tapCnt--;
 672              	 .loc 1 320 0
 673 0532 FB8F     	 ldrh r3,[r7,#62]
 674 0534 013B     	 subs r3,r3,#1
 675 0536 FB87     	 strh r3,[r7,#62]
 676              	.L12:
 266:../Dave/Generated/CMSIS_DSP/FilteringFunctions/arm_fir_interpolate_q31.c ****       {
 677              	 .loc 1 266 0
 678 0538 FB8F     	 ldrh r3,[r7,#62]
 679 053a 002B     	 cmp r3,#0
 680 053c 7FF461AF 	 bne .L13
 321:../Dave/Generated/CMSIS_DSP/FilteringFunctions/arm_fir_interpolate_q31.c ****       }
 322:../Dave/Generated/CMSIS_DSP/FilteringFunctions/arm_fir_interpolate_q31.c **** 
 323:../Dave/Generated/CMSIS_DSP/FilteringFunctions/arm_fir_interpolate_q31.c ****       /* If the polyPhase length is not a multiple of 4, compute the remaining filter taps */
 324:../Dave/Generated/CMSIS_DSP/FilteringFunctions/arm_fir_interpolate_q31.c ****       tapCnt = phaseLen & 0x3u;
 681              	 .loc 1 324 0
 682 0540 7B8C     	 ldrh r3,[r7,#34]
 683 0542 03F00303 	 and r3,r3,#3
 684 0546 FB87     	 strh r3,[r7,#62]
 325:../Dave/Generated/CMSIS_DSP/FilteringFunctions/arm_fir_interpolate_q31.c **** 
 326:../Dave/Generated/CMSIS_DSP/FilteringFunctions/arm_fir_interpolate_q31.c ****       while(tapCnt > 0u)
 685              	 .loc 1 326 0
 686 0548 28E0     	 b .L14
 687              	.L15:
 327:../Dave/Generated/CMSIS_DSP/FilteringFunctions/arm_fir_interpolate_q31.c ****       {
 328:../Dave/Generated/CMSIS_DSP/FilteringFunctions/arm_fir_interpolate_q31.c ****         /* Read the coefficient */
 329:../Dave/Generated/CMSIS_DSP/FilteringFunctions/arm_fir_interpolate_q31.c ****         c0 = *(ptr2);
 688              	 .loc 1 329 0
 689 054a BB6D     	 ldr r3,[r7,#88]
 690 054c 1B68     	 ldr r3,[r3]
 691 054e 7B61     	 str r3,[r7,#20]
 330:../Dave/Generated/CMSIS_DSP/FilteringFunctions/arm_fir_interpolate_q31.c **** 
 331:../Dave/Generated/CMSIS_DSP/FilteringFunctions/arm_fir_interpolate_q31.c ****         /* Increment the coefficient pointer by interpolation factor times. */
 332:../Dave/Generated/CMSIS_DSP/FilteringFunctions/arm_fir_interpolate_q31.c ****         ptr2 += S->L;
 692              	 .loc 1 332 0
 693 0550 FB68     	 ldr r3,[r7,#12]
 694 0552 1B78     	 ldrb r3,[r3]
 695 0554 9B00     	 lsls r3,r3,#2
 696 0556 BA6D     	 ldr r2,[r7,#88]
 697 0558 1344     	 add r3,r3,r2
 698 055a BB65     	 str r3,[r7,#88]
 333:../Dave/Generated/CMSIS_DSP/FilteringFunctions/arm_fir_interpolate_q31.c **** 
 334:../Dave/Generated/CMSIS_DSP/FilteringFunctions/arm_fir_interpolate_q31.c ****         /* Read the input sample */
 335:../Dave/Generated/CMSIS_DSP/FilteringFunctions/arm_fir_interpolate_q31.c ****         x0 = *(ptr1++);
 699              	 .loc 1 335 0
 700 055c FB6D     	 ldr r3,[r7,#92]
 701 055e 1A1D     	 adds r2,r3,#4
 702 0560 FA65     	 str r2,[r7,#92]
 703 0562 1B68     	 ldr r3,[r3]
 704 0564 FB64     	 str r3,[r7,#76]
 336:../Dave/Generated/CMSIS_DSP/FilteringFunctions/arm_fir_interpolate_q31.c **** 
 337:../Dave/Generated/CMSIS_DSP/FilteringFunctions/arm_fir_interpolate_q31.c ****         /* Perform the multiply-accumulate */
 338:../Dave/Generated/CMSIS_DSP/FilteringFunctions/arm_fir_interpolate_q31.c ****         sum0 += (q63_t) x0 *c0;
 705              	 .loc 1 338 0
 706 0566 FB6C     	 ldr r3,[r7,#76]
 707 0568 1846     	 mov r0,r3
 708 056a 4FEAE071 	 asr r1,r0,#31
 709 056e 7B69     	 ldr r3,[r7,#20]
 710 0570 1A46     	 mov r2,r3
 711 0572 4FEAE273 	 asr r3,r2,#31
 712 0576 02FB01FE 	 mul lr,r2,r1
 713 057a 00FB03F6 	 mul r6,r0,r3
 714 057e 7644     	 add r6,r6,lr
 715 0580 A0FB0223 	 umull r2,r3,r0,r2
 716 0584 F118     	 adds r1,r6,r3
 717 0586 0B46     	 mov r3,r1
 718 0588 D7E91401 	 ldrd r0,[r7,#80]
 719 058c 1218     	 adds r2,r2,r0
 720 058e 43EB0103 	 adc r3,r3,r1
 721 0592 C7E91423 	 strd r2,[r7,#80]
 339:../Dave/Generated/CMSIS_DSP/FilteringFunctions/arm_fir_interpolate_q31.c **** 
 340:../Dave/Generated/CMSIS_DSP/FilteringFunctions/arm_fir_interpolate_q31.c ****         /* Decrement the loop counter */
 341:../Dave/Generated/CMSIS_DSP/FilteringFunctions/arm_fir_interpolate_q31.c ****         tapCnt--;
 722              	 .loc 1 341 0
 723 0596 FB8F     	 ldrh r3,[r7,#62]
 724 0598 013B     	 subs r3,r3,#1
 725 059a FB87     	 strh r3,[r7,#62]
 726              	.L14:
 326:../Dave/Generated/CMSIS_DSP/FilteringFunctions/arm_fir_interpolate_q31.c ****       {
 727              	 .loc 1 326 0
 728 059c FB8F     	 ldrh r3,[r7,#62]
 729 059e 002B     	 cmp r3,#0
 730 05a0 D3D1     	 bne .L15
 342:../Dave/Generated/CMSIS_DSP/FilteringFunctions/arm_fir_interpolate_q31.c ****       }
 343:../Dave/Generated/CMSIS_DSP/FilteringFunctions/arm_fir_interpolate_q31.c **** 
 344:../Dave/Generated/CMSIS_DSP/FilteringFunctions/arm_fir_interpolate_q31.c ****       /* The result is in the accumulator, store in the destination buffer. */
 345:../Dave/Generated/CMSIS_DSP/FilteringFunctions/arm_fir_interpolate_q31.c ****       *pDst++ = (q31_t) (sum0 >> 31);
 731              	 .loc 1 345 0
 732 05a2 7968     	 ldr r1,[r7,#4]
 733 05a4 0B1D     	 adds r3,r1,#4
 734 05a6 7B60     	 str r3,[r7,#4]
 735 05a8 D7E91423 	 ldrd r2,[r7,#80]
 736 05ac D40F     	 lsrs r4,r2,#31
 737 05ae 44EA4304 	 orr r4,r4,r3,lsl#1
 738 05b2 DD17     	 asrs r5,r3,#31
 739 05b4 2346     	 mov r3,r4
 740 05b6 0B60     	 str r3,[r1]
 346:../Dave/Generated/CMSIS_DSP/FilteringFunctions/arm_fir_interpolate_q31.c **** 
 347:../Dave/Generated/CMSIS_DSP/FilteringFunctions/arm_fir_interpolate_q31.c ****       /* Increment the address modifier index of coefficient buffer */
 348:../Dave/Generated/CMSIS_DSP/FilteringFunctions/arm_fir_interpolate_q31.c ****       j++;
 741              	 .loc 1 348 0
 742 05b8 3B6C     	 ldr r3,[r7,#64]
 743 05ba 0133     	 adds r3,r3,#1
 744 05bc 3B64     	 str r3,[r7,#64]
 349:../Dave/Generated/CMSIS_DSP/FilteringFunctions/arm_fir_interpolate_q31.c **** 
 350:../Dave/Generated/CMSIS_DSP/FilteringFunctions/arm_fir_interpolate_q31.c ****       /* Decrement the loop counter */
 351:../Dave/Generated/CMSIS_DSP/FilteringFunctions/arm_fir_interpolate_q31.c ****       i--;
 745              	 .loc 1 351 0
 746 05be BB6C     	 ldr r3,[r7,#72]
 747 05c0 013B     	 subs r3,r3,#1
 748 05c2 BB64     	 str r3,[r7,#72]
 749              	.L11:
 252:../Dave/Generated/CMSIS_DSP/FilteringFunctions/arm_fir_interpolate_q31.c ****     {
 750              	 .loc 1 252 0
 751 05c4 BB6C     	 ldr r3,[r7,#72]
 752 05c6 002B     	 cmp r3,#0
 753 05c8 7FF406AF 	 bne .L16
 352:../Dave/Generated/CMSIS_DSP/FilteringFunctions/arm_fir_interpolate_q31.c ****     }
 353:../Dave/Generated/CMSIS_DSP/FilteringFunctions/arm_fir_interpolate_q31.c **** 
 354:../Dave/Generated/CMSIS_DSP/FilteringFunctions/arm_fir_interpolate_q31.c ****     /* Advance the state pointer by 1        
 355:../Dave/Generated/CMSIS_DSP/FilteringFunctions/arm_fir_interpolate_q31.c ****      * to process the next group of interpolation factor number samples */
 356:../Dave/Generated/CMSIS_DSP/FilteringFunctions/arm_fir_interpolate_q31.c ****     pState = pState + 1;
 754              	 .loc 1 356 0
 755 05cc 7B6E     	 ldr r3,[r7,#100]
 756 05ce 0433     	 adds r3,r3,#4
 757 05d0 7B66     	 str r3,[r7,#100]
 357:../Dave/Generated/CMSIS_DSP/FilteringFunctions/arm_fir_interpolate_q31.c **** 
 358:../Dave/Generated/CMSIS_DSP/FilteringFunctions/arm_fir_interpolate_q31.c ****     /* Decrement the loop counter */
 359:../Dave/Generated/CMSIS_DSP/FilteringFunctions/arm_fir_interpolate_q31.c ****     blkCnt--;
 758              	 .loc 1 359 0
 759 05d2 7B6C     	 ldr r3,[r7,#68]
 760 05d4 013B     	 subs r3,r3,#1
 761 05d6 7B64     	 str r3,[r7,#68]
 762              	.L10:
 242:../Dave/Generated/CMSIS_DSP/FilteringFunctions/arm_fir_interpolate_q31.c ****   {
 763              	 .loc 1 242 0
 764 05d8 7B6C     	 ldr r3,[r7,#68]
 765 05da 002B     	 cmp r3,#0
 766 05dc 7FF4EEAE 	 bne .L17
 360:../Dave/Generated/CMSIS_DSP/FilteringFunctions/arm_fir_interpolate_q31.c ****   }
 361:../Dave/Generated/CMSIS_DSP/FilteringFunctions/arm_fir_interpolate_q31.c **** 
 362:../Dave/Generated/CMSIS_DSP/FilteringFunctions/arm_fir_interpolate_q31.c ****   /* Processing is complete.        
 363:../Dave/Generated/CMSIS_DSP/FilteringFunctions/arm_fir_interpolate_q31.c ****    ** Now copy the last phaseLen - 1 samples to the satrt of the state buffer.        
 364:../Dave/Generated/CMSIS_DSP/FilteringFunctions/arm_fir_interpolate_q31.c ****    ** This prepares the state buffer for the next function call. */
 365:../Dave/Generated/CMSIS_DSP/FilteringFunctions/arm_fir_interpolate_q31.c **** 
 366:../Dave/Generated/CMSIS_DSP/FilteringFunctions/arm_fir_interpolate_q31.c ****   /* Points to the start of the state buffer */
 367:../Dave/Generated/CMSIS_DSP/FilteringFunctions/arm_fir_interpolate_q31.c ****   pStateCurnt = S->pState;
 767              	 .loc 1 367 0
 768 05e0 FB68     	 ldr r3,[r7,#12]
 769 05e2 9B68     	 ldr r3,[r3,#8]
 770 05e4 3B66     	 str r3,[r7,#96]
 368:../Dave/Generated/CMSIS_DSP/FilteringFunctions/arm_fir_interpolate_q31.c **** 
 369:../Dave/Generated/CMSIS_DSP/FilteringFunctions/arm_fir_interpolate_q31.c ****   tapCnt = (phaseLen - 1u) >> 2u;
 771              	 .loc 1 369 0
 772 05e6 7B8C     	 ldrh r3,[r7,#34]
 773 05e8 013B     	 subs r3,r3,#1
 774 05ea 9B08     	 lsrs r3,r3,#2
 775 05ec FB87     	 strh r3,[r7,#62]
 370:../Dave/Generated/CMSIS_DSP/FilteringFunctions/arm_fir_interpolate_q31.c **** 
 371:../Dave/Generated/CMSIS_DSP/FilteringFunctions/arm_fir_interpolate_q31.c ****   /* copy data */
 372:../Dave/Generated/CMSIS_DSP/FilteringFunctions/arm_fir_interpolate_q31.c ****   while(tapCnt > 0u)
 776              	 .loc 1 372 0
 777 05ee 22E0     	 b .L18
 778              	.L19:
 373:../Dave/Generated/CMSIS_DSP/FilteringFunctions/arm_fir_interpolate_q31.c ****   {
 374:../Dave/Generated/CMSIS_DSP/FilteringFunctions/arm_fir_interpolate_q31.c ****     *pStateCurnt++ = *pState++;
 779              	 .loc 1 374 0
 780 05f0 3B6E     	 ldr r3,[r7,#96]
 781 05f2 1A1D     	 adds r2,r3,#4
 782 05f4 3A66     	 str r2,[r7,#96]
 783 05f6 7A6E     	 ldr r2,[r7,#100]
 784 05f8 111D     	 adds r1,r2,#4
 785 05fa 7966     	 str r1,[r7,#100]
 786 05fc 1268     	 ldr r2,[r2]
 787 05fe 1A60     	 str r2,[r3]
 375:../Dave/Generated/CMSIS_DSP/FilteringFunctions/arm_fir_interpolate_q31.c ****     *pStateCurnt++ = *pState++;
 788              	 .loc 1 375 0
 789 0600 3B6E     	 ldr r3,[r7,#96]
 790 0602 1A1D     	 adds r2,r3,#4
 791 0604 3A66     	 str r2,[r7,#96]
 792 0606 7A6E     	 ldr r2,[r7,#100]
 793 0608 111D     	 adds r1,r2,#4
 794 060a 7966     	 str r1,[r7,#100]
 795 060c 1268     	 ldr r2,[r2]
 796 060e 1A60     	 str r2,[r3]
 376:../Dave/Generated/CMSIS_DSP/FilteringFunctions/arm_fir_interpolate_q31.c ****     *pStateCurnt++ = *pState++;
 797              	 .loc 1 376 0
 798 0610 3B6E     	 ldr r3,[r7,#96]
 799 0612 1A1D     	 adds r2,r3,#4
 800 0614 3A66     	 str r2,[r7,#96]
 801 0616 7A6E     	 ldr r2,[r7,#100]
 802 0618 111D     	 adds r1,r2,#4
 803 061a 7966     	 str r1,[r7,#100]
 804 061c 1268     	 ldr r2,[r2]
 805 061e 1A60     	 str r2,[r3]
 377:../Dave/Generated/CMSIS_DSP/FilteringFunctions/arm_fir_interpolate_q31.c ****     *pStateCurnt++ = *pState++;
 806              	 .loc 1 377 0
 807 0620 3B6E     	 ldr r3,[r7,#96]
 808 0622 1A1D     	 adds r2,r3,#4
 809 0624 3A66     	 str r2,[r7,#96]
 810 0626 7A6E     	 ldr r2,[r7,#100]
 811 0628 111D     	 adds r1,r2,#4
 812 062a 7966     	 str r1,[r7,#100]
 813 062c 1268     	 ldr r2,[r2]
 814 062e 1A60     	 str r2,[r3]
 378:../Dave/Generated/CMSIS_DSP/FilteringFunctions/arm_fir_interpolate_q31.c **** 
 379:../Dave/Generated/CMSIS_DSP/FilteringFunctions/arm_fir_interpolate_q31.c ****     /* Decrement the loop counter */
 380:../Dave/Generated/CMSIS_DSP/FilteringFunctions/arm_fir_interpolate_q31.c ****     tapCnt--;
 815              	 .loc 1 380 0
 816 0630 FB8F     	 ldrh r3,[r7,#62]
 817 0632 013B     	 subs r3,r3,#1
 818 0634 FB87     	 strh r3,[r7,#62]
 819              	.L18:
 372:../Dave/Generated/CMSIS_DSP/FilteringFunctions/arm_fir_interpolate_q31.c ****   {
 820              	 .loc 1 372 0
 821 0636 FB8F     	 ldrh r3,[r7,#62]
 822 0638 002B     	 cmp r3,#0
 823 063a D9D1     	 bne .L19
 381:../Dave/Generated/CMSIS_DSP/FilteringFunctions/arm_fir_interpolate_q31.c ****   }
 382:../Dave/Generated/CMSIS_DSP/FilteringFunctions/arm_fir_interpolate_q31.c **** 
 383:../Dave/Generated/CMSIS_DSP/FilteringFunctions/arm_fir_interpolate_q31.c ****   tapCnt = (phaseLen - 1u) % 0x04u;
 824              	 .loc 1 383 0
 825 063c 7B8C     	 ldrh r3,[r7,#34]
 826 063e 013B     	 subs r3,r3,#1
 827 0640 9BB2     	 uxth r3,r3
 828 0642 03F00303 	 and r3,r3,#3
 829 0646 FB87     	 strh r3,[r7,#62]
 384:../Dave/Generated/CMSIS_DSP/FilteringFunctions/arm_fir_interpolate_q31.c **** 
 385:../Dave/Generated/CMSIS_DSP/FilteringFunctions/arm_fir_interpolate_q31.c ****   /* copy data */
 386:../Dave/Generated/CMSIS_DSP/FilteringFunctions/arm_fir_interpolate_q31.c ****   while(tapCnt > 0u)
 830              	 .loc 1 386 0
 831 0648 0AE0     	 b .L20
 832              	.L21:
 387:../Dave/Generated/CMSIS_DSP/FilteringFunctions/arm_fir_interpolate_q31.c ****   {
 388:../Dave/Generated/CMSIS_DSP/FilteringFunctions/arm_fir_interpolate_q31.c ****     *pStateCurnt++ = *pState++;
 833              	 .loc 1 388 0
 834 064a 3B6E     	 ldr r3,[r7,#96]
 835 064c 1A1D     	 adds r2,r3,#4
 836 064e 3A66     	 str r2,[r7,#96]
 837 0650 7A6E     	 ldr r2,[r7,#100]
 838 0652 111D     	 adds r1,r2,#4
 839 0654 7966     	 str r1,[r7,#100]
 840 0656 1268     	 ldr r2,[r2]
 841 0658 1A60     	 str r2,[r3]
 389:../Dave/Generated/CMSIS_DSP/FilteringFunctions/arm_fir_interpolate_q31.c **** 
 390:../Dave/Generated/CMSIS_DSP/FilteringFunctions/arm_fir_interpolate_q31.c ****     /* Decrement the loop counter */
 391:../Dave/Generated/CMSIS_DSP/FilteringFunctions/arm_fir_interpolate_q31.c ****     tapCnt--;
 842              	 .loc 1 391 0
 843 065a FB8F     	 ldrh r3,[r7,#62]
 844 065c 013B     	 subs r3,r3,#1
 845 065e FB87     	 strh r3,[r7,#62]
 846              	.L20:
 386:../Dave/Generated/CMSIS_DSP/FilteringFunctions/arm_fir_interpolate_q31.c ****   {
 847              	 .loc 1 386 0
 848 0660 FB8F     	 ldrh r3,[r7,#62]
 849 0662 002B     	 cmp r3,#0
 850 0664 F1D1     	 bne .L21
 392:../Dave/Generated/CMSIS_DSP/FilteringFunctions/arm_fir_interpolate_q31.c ****   }
 393:../Dave/Generated/CMSIS_DSP/FilteringFunctions/arm_fir_interpolate_q31.c **** 
 394:../Dave/Generated/CMSIS_DSP/FilteringFunctions/arm_fir_interpolate_q31.c **** }
 851              	 .loc 1 394 0
 852 0666 6C37     	 adds r7,r7,#108
 853              	.LCFI3:
 854              	 .cfi_def_cfa_offset 36
 855 0668 BD46     	 mov sp,r7
 856              	.LCFI4:
 857              	 .cfi_def_cfa_register 13
 858              	 
 859 066a BDE8F08F 	 pop {r4,r5,r6,r7,r8,r9,r10,fp,pc}
 860              	 .cfi_endproc
 861              	.LFE139:
 863 066e 00BF     	 .text
 864              	.Letext0:
 865              	 .file 2 "c:\\davev4-64bit\\dave-4.2.6\\eclipse\\arm-gcc-49\\arm-none-eabi\\include\\machine\\_default_types.h"
 866              	 .file 3 "c:\\davev4-64bit\\dave-4.2.6\\eclipse\\arm-gcc-49\\arm-none-eabi\\include\\stdint.h"
 867              	 .file 4 "C:\\Users\\Depes Crystalline\\Desktop\\school\\Active_Bike_Lighting_System\\Radar_Core\\Dave\\Generated/CMSIS_DSP/arm_math.h"