   1              	 .syntax unified
   2              	 .cpu cortex-m4
   3              	 .fpu softvfp
   4              	 .eabi_attribute 20,1
   5              	 .eabi_attribute 21,1
   6              	 .eabi_attribute 23,3
   7              	 .eabi_attribute 24,1
   8              	 .eabi_attribute 25,1
   9              	 .eabi_attribute 26,1
  10              	 .eabi_attribute 30,6
  11              	 .eabi_attribute 34,1
  12              	 .eabi_attribute 18,4
  13              	 .thumb
  14              	 .file "arm_conv_partial_q7.c"
  15              	 .text
  16              	.Ltext0:
  17              	 .cfi_sections .debug_frame
  18              	 .section .text.arm_conv_partial_q7,"ax",%progbits
  19              	 .align 2
  20              	 .global arm_conv_partial_q7
  21              	 .thumb
  22              	 .thumb_func
  24              	arm_conv_partial_q7:
  25              	.LFB139:
  26              	 .file 1 "../Dave/Generated/CMSIS_DSP/FilteringFunctions/arm_conv_partial_q7.c"
   1:../Dave/Generated/CMSIS_DSP/FilteringFunctions/arm_conv_partial_q7.c **** /* ----------------------------------------------------------------------   
   2:../Dave/Generated/CMSIS_DSP/FilteringFunctions/arm_conv_partial_q7.c **** * Copyright (C) 2010-2014 ARM Limited. All rights reserved.   
   3:../Dave/Generated/CMSIS_DSP/FilteringFunctions/arm_conv_partial_q7.c **** *   
   4:../Dave/Generated/CMSIS_DSP/FilteringFunctions/arm_conv_partial_q7.c **** * $Date:        12. March 2014
   5:../Dave/Generated/CMSIS_DSP/FilteringFunctions/arm_conv_partial_q7.c **** * $Revision: 	V1.4.4
   6:../Dave/Generated/CMSIS_DSP/FilteringFunctions/arm_conv_partial_q7.c **** *   
   7:../Dave/Generated/CMSIS_DSP/FilteringFunctions/arm_conv_partial_q7.c **** * Project: 	    CMSIS DSP Library   
   8:../Dave/Generated/CMSIS_DSP/FilteringFunctions/arm_conv_partial_q7.c **** * Title:		arm_conv_partial_q7.c   
   9:../Dave/Generated/CMSIS_DSP/FilteringFunctions/arm_conv_partial_q7.c **** *   
  10:../Dave/Generated/CMSIS_DSP/FilteringFunctions/arm_conv_partial_q7.c **** * Description:	Partial convolution of Q7 sequences.   
  11:../Dave/Generated/CMSIS_DSP/FilteringFunctions/arm_conv_partial_q7.c **** *   
  12:../Dave/Generated/CMSIS_DSP/FilteringFunctions/arm_conv_partial_q7.c **** * Target Processor: Cortex-M4/Cortex-M3/Cortex-M0
  13:../Dave/Generated/CMSIS_DSP/FilteringFunctions/arm_conv_partial_q7.c **** *  
  14:../Dave/Generated/CMSIS_DSP/FilteringFunctions/arm_conv_partial_q7.c **** * Redistribution and use in source and binary forms, with or without 
  15:../Dave/Generated/CMSIS_DSP/FilteringFunctions/arm_conv_partial_q7.c **** * modification, are permitted provided that the following conditions
  16:../Dave/Generated/CMSIS_DSP/FilteringFunctions/arm_conv_partial_q7.c **** * are met:
  17:../Dave/Generated/CMSIS_DSP/FilteringFunctions/arm_conv_partial_q7.c **** *   - Redistributions of source code must retain the above copyright
  18:../Dave/Generated/CMSIS_DSP/FilteringFunctions/arm_conv_partial_q7.c **** *     notice, this list of conditions and the following disclaimer.
  19:../Dave/Generated/CMSIS_DSP/FilteringFunctions/arm_conv_partial_q7.c **** *   - Redistributions in binary form must reproduce the above copyright
  20:../Dave/Generated/CMSIS_DSP/FilteringFunctions/arm_conv_partial_q7.c **** *     notice, this list of conditions and the following disclaimer in
  21:../Dave/Generated/CMSIS_DSP/FilteringFunctions/arm_conv_partial_q7.c **** *     the documentation and/or other materials provided with the 
  22:../Dave/Generated/CMSIS_DSP/FilteringFunctions/arm_conv_partial_q7.c **** *     distribution.
  23:../Dave/Generated/CMSIS_DSP/FilteringFunctions/arm_conv_partial_q7.c **** *   - Neither the name of ARM LIMITED nor the names of its contributors
  24:../Dave/Generated/CMSIS_DSP/FilteringFunctions/arm_conv_partial_q7.c **** *     may be used to endorse or promote products derived from this
  25:../Dave/Generated/CMSIS_DSP/FilteringFunctions/arm_conv_partial_q7.c **** *     software without specific prior written permission.
  26:../Dave/Generated/CMSIS_DSP/FilteringFunctions/arm_conv_partial_q7.c **** *
  27:../Dave/Generated/CMSIS_DSP/FilteringFunctions/arm_conv_partial_q7.c **** * THIS SOFTWARE IS PROVIDED BY THE COPYRIGHT HOLDERS AND CONTRIBUTORS
  28:../Dave/Generated/CMSIS_DSP/FilteringFunctions/arm_conv_partial_q7.c **** * "AS IS" AND ANY EXPRESS OR IMPLIED WARRANTIES, INCLUDING, BUT NOT
  29:../Dave/Generated/CMSIS_DSP/FilteringFunctions/arm_conv_partial_q7.c **** * LIMITED TO, THE IMPLIED WARRANTIES OF MERCHANTABILITY AND FITNESS
  30:../Dave/Generated/CMSIS_DSP/FilteringFunctions/arm_conv_partial_q7.c **** * FOR A PARTICULAR PURPOSE ARE DISCLAIMED. IN NO EVENT SHALL THE 
  31:../Dave/Generated/CMSIS_DSP/FilteringFunctions/arm_conv_partial_q7.c **** * COPYRIGHT OWNER OR CONTRIBUTORS BE LIABLE FOR ANY DIRECT, INDIRECT,
  32:../Dave/Generated/CMSIS_DSP/FilteringFunctions/arm_conv_partial_q7.c **** * INCIDENTAL, SPECIAL, EXEMPLARY, OR CONSEQUENTIAL DAMAGES (INCLUDING,
  33:../Dave/Generated/CMSIS_DSP/FilteringFunctions/arm_conv_partial_q7.c **** * BUT NOT LIMITED TO, PROCUREMENT OF SUBSTITUTE GOODS OR SERVICES;
  34:../Dave/Generated/CMSIS_DSP/FilteringFunctions/arm_conv_partial_q7.c **** * LOSS OF USE, DATA, OR PROFITS; OR BUSINESS INTERRUPTION) HOWEVER
  35:../Dave/Generated/CMSIS_DSP/FilteringFunctions/arm_conv_partial_q7.c **** * CAUSED AND ON ANY THEORY OF LIABILITY, WHETHER IN CONTRACT, STRICT
  36:../Dave/Generated/CMSIS_DSP/FilteringFunctions/arm_conv_partial_q7.c **** * LIABILITY, OR TORT (INCLUDING NEGLIGENCE OR OTHERWISE) ARISING IN
  37:../Dave/Generated/CMSIS_DSP/FilteringFunctions/arm_conv_partial_q7.c **** * ANY WAY OUT OF THE USE OF THIS SOFTWARE, EVEN IF ADVISED OF THE
  38:../Dave/Generated/CMSIS_DSP/FilteringFunctions/arm_conv_partial_q7.c **** * POSSIBILITY OF SUCH DAMAGE.    
  39:../Dave/Generated/CMSIS_DSP/FilteringFunctions/arm_conv_partial_q7.c **** * -------------------------------------------------------------------- */
  40:../Dave/Generated/CMSIS_DSP/FilteringFunctions/arm_conv_partial_q7.c **** 
  41:../Dave/Generated/CMSIS_DSP/FilteringFunctions/arm_conv_partial_q7.c **** #include "CMSIS_DSP/cmsis_dsp.h"
  42:../Dave/Generated/CMSIS_DSP/FilteringFunctions/arm_conv_partial_q7.c **** 
  43:../Dave/Generated/CMSIS_DSP/FilteringFunctions/arm_conv_partial_q7.c **** /**   
  44:../Dave/Generated/CMSIS_DSP/FilteringFunctions/arm_conv_partial_q7.c ****  * @ingroup groupFilters   
  45:../Dave/Generated/CMSIS_DSP/FilteringFunctions/arm_conv_partial_q7.c ****  */
  46:../Dave/Generated/CMSIS_DSP/FilteringFunctions/arm_conv_partial_q7.c **** 
  47:../Dave/Generated/CMSIS_DSP/FilteringFunctions/arm_conv_partial_q7.c **** /**   
  48:../Dave/Generated/CMSIS_DSP/FilteringFunctions/arm_conv_partial_q7.c ****  * @addtogroup PartialConv   
  49:../Dave/Generated/CMSIS_DSP/FilteringFunctions/arm_conv_partial_q7.c ****  * @{   
  50:../Dave/Generated/CMSIS_DSP/FilteringFunctions/arm_conv_partial_q7.c ****  */
  51:../Dave/Generated/CMSIS_DSP/FilteringFunctions/arm_conv_partial_q7.c **** 
  52:../Dave/Generated/CMSIS_DSP/FilteringFunctions/arm_conv_partial_q7.c **** /**   
  53:../Dave/Generated/CMSIS_DSP/FilteringFunctions/arm_conv_partial_q7.c ****  * @brief Partial convolution of Q7 sequences.   
  54:../Dave/Generated/CMSIS_DSP/FilteringFunctions/arm_conv_partial_q7.c ****  * @param[in]       *pSrcA points to the first input sequence.   
  55:../Dave/Generated/CMSIS_DSP/FilteringFunctions/arm_conv_partial_q7.c ****  * @param[in]       srcALen length of the first input sequence.   
  56:../Dave/Generated/CMSIS_DSP/FilteringFunctions/arm_conv_partial_q7.c ****  * @param[in]       *pSrcB points to the second input sequence.   
  57:../Dave/Generated/CMSIS_DSP/FilteringFunctions/arm_conv_partial_q7.c ****  * @param[in]       srcBLen length of the second input sequence.   
  58:../Dave/Generated/CMSIS_DSP/FilteringFunctions/arm_conv_partial_q7.c ****  * @param[out]      *pDst points to the location where the output result is written.   
  59:../Dave/Generated/CMSIS_DSP/FilteringFunctions/arm_conv_partial_q7.c ****  * @param[in]       firstIndex is the first output sample to start with.   
  60:../Dave/Generated/CMSIS_DSP/FilteringFunctions/arm_conv_partial_q7.c ****  * @param[in]       numPoints is the number of output points to be computed.   
  61:../Dave/Generated/CMSIS_DSP/FilteringFunctions/arm_conv_partial_q7.c ****  * @return  Returns either ARM_MATH_SUCCESS if the function completed correctly or ARM_MATH_ARGUMEN
  62:../Dave/Generated/CMSIS_DSP/FilteringFunctions/arm_conv_partial_q7.c ****  *  
  63:../Dave/Generated/CMSIS_DSP/FilteringFunctions/arm_conv_partial_q7.c ****  * \par    
  64:../Dave/Generated/CMSIS_DSP/FilteringFunctions/arm_conv_partial_q7.c ****  * Refer the function <code>arm_conv_partial_opt_q7()</code> for a faster implementation of this fu
  65:../Dave/Generated/CMSIS_DSP/FilteringFunctions/arm_conv_partial_q7.c ****  *  
  66:../Dave/Generated/CMSIS_DSP/FilteringFunctions/arm_conv_partial_q7.c ****  */
  67:../Dave/Generated/CMSIS_DSP/FilteringFunctions/arm_conv_partial_q7.c **** 
  68:../Dave/Generated/CMSIS_DSP/FilteringFunctions/arm_conv_partial_q7.c **** arm_status arm_conv_partial_q7(
  69:../Dave/Generated/CMSIS_DSP/FilteringFunctions/arm_conv_partial_q7.c ****   q7_t * pSrcA,
  70:../Dave/Generated/CMSIS_DSP/FilteringFunctions/arm_conv_partial_q7.c ****   uint32_t srcALen,
  71:../Dave/Generated/CMSIS_DSP/FilteringFunctions/arm_conv_partial_q7.c ****   q7_t * pSrcB,
  72:../Dave/Generated/CMSIS_DSP/FilteringFunctions/arm_conv_partial_q7.c ****   uint32_t srcBLen,
  73:../Dave/Generated/CMSIS_DSP/FilteringFunctions/arm_conv_partial_q7.c ****   q7_t * pDst,
  74:../Dave/Generated/CMSIS_DSP/FilteringFunctions/arm_conv_partial_q7.c ****   uint32_t firstIndex,
  75:../Dave/Generated/CMSIS_DSP/FilteringFunctions/arm_conv_partial_q7.c ****   uint32_t numPoints)
  76:../Dave/Generated/CMSIS_DSP/FilteringFunctions/arm_conv_partial_q7.c **** {
  27              	 .loc 1 76 0
  28              	 .cfi_startproc
  29              	 
  30              	 
  31              	 
  32 0000 90B4     	 push {r4,r7}
  33              	.LCFI0:
  34              	 .cfi_def_cfa_offset 8
  35              	 .cfi_offset 4,-8
  36              	 .cfi_offset 7,-4
  37 0002 E6B0     	 sub sp,sp,#408
  38              	.LCFI1:
  39              	 .cfi_def_cfa_offset 416
  40 0004 00AF     	 add r7,sp,#0
  41              	.LCFI2:
  42              	 .cfi_def_cfa_register 7
  43 0006 07F10C04 	 add r4,r7,#12
  44 000a 2060     	 str r0,[r4]
  45 000c 07F10800 	 add r0,r7,#8
  46 0010 0160     	 str r1,[r0]
  47 0012 391D     	 adds r1,r7,#4
  48 0014 0A60     	 str r2,[r1]
  49 0016 3A46     	 mov r2,r7
  50 0018 1360     	 str r3,[r2]
  77:../Dave/Generated/CMSIS_DSP/FilteringFunctions/arm_conv_partial_q7.c **** 
  78:../Dave/Generated/CMSIS_DSP/FilteringFunctions/arm_conv_partial_q7.c **** 
  79:../Dave/Generated/CMSIS_DSP/FilteringFunctions/arm_conv_partial_q7.c **** #ifndef ARM_MATH_CM0_FAMILY
  80:../Dave/Generated/CMSIS_DSP/FilteringFunctions/arm_conv_partial_q7.c **** 
  81:../Dave/Generated/CMSIS_DSP/FilteringFunctions/arm_conv_partial_q7.c ****   /* Run the below code for Cortex-M4 and Cortex-M3 */
  82:../Dave/Generated/CMSIS_DSP/FilteringFunctions/arm_conv_partial_q7.c **** 
  83:../Dave/Generated/CMSIS_DSP/FilteringFunctions/arm_conv_partial_q7.c ****   q7_t *pIn1;                                    /* inputA pointer */
  84:../Dave/Generated/CMSIS_DSP/FilteringFunctions/arm_conv_partial_q7.c ****   q7_t *pIn2;                                    /* inputB pointer */
  85:../Dave/Generated/CMSIS_DSP/FilteringFunctions/arm_conv_partial_q7.c ****   q7_t *pOut = pDst;                             /* output pointer */
  51              	 .loc 1 85 0
  52 001a D7F8A031 	 ldr r3,[r7,#416]
  53 001e C7F88C31 	 str r3,[r7,#396]
  86:../Dave/Generated/CMSIS_DSP/FilteringFunctions/arm_conv_partial_q7.c ****   q7_t *px;                                      /* Intermediate inputA pointer */
  87:../Dave/Generated/CMSIS_DSP/FilteringFunctions/arm_conv_partial_q7.c ****   q7_t *py;                                      /* Intermediate inputB pointer */
  88:../Dave/Generated/CMSIS_DSP/FilteringFunctions/arm_conv_partial_q7.c ****   q7_t *pSrc1, *pSrc2;                           /* Intermediate pointers */
  89:../Dave/Generated/CMSIS_DSP/FilteringFunctions/arm_conv_partial_q7.c ****   q31_t sum, acc0, acc1, acc2, acc3;             /* Accumulator */
  90:../Dave/Generated/CMSIS_DSP/FilteringFunctions/arm_conv_partial_q7.c ****   q31_t input1, input2;
  91:../Dave/Generated/CMSIS_DSP/FilteringFunctions/arm_conv_partial_q7.c ****   q15_t in1, in2;
  92:../Dave/Generated/CMSIS_DSP/FilteringFunctions/arm_conv_partial_q7.c ****   q7_t x0, x1, x2, x3, c0, c1;
  93:../Dave/Generated/CMSIS_DSP/FilteringFunctions/arm_conv_partial_q7.c ****   uint32_t j, k, count, check, blkCnt;
  94:../Dave/Generated/CMSIS_DSP/FilteringFunctions/arm_conv_partial_q7.c ****   int32_t blockSize1, blockSize2, blockSize3;    /* loop counter */
  95:../Dave/Generated/CMSIS_DSP/FilteringFunctions/arm_conv_partial_q7.c ****   arm_status status;
  96:../Dave/Generated/CMSIS_DSP/FilteringFunctions/arm_conv_partial_q7.c **** 
  97:../Dave/Generated/CMSIS_DSP/FilteringFunctions/arm_conv_partial_q7.c **** 
  98:../Dave/Generated/CMSIS_DSP/FilteringFunctions/arm_conv_partial_q7.c ****   /* Check for range of output samples to be calculated */
  99:../Dave/Generated/CMSIS_DSP/FilteringFunctions/arm_conv_partial_q7.c ****   if((firstIndex + numPoints) > ((srcALen + (srcBLen - 1u))))
  54              	 .loc 1 99 0
  55 0022 D7F8A421 	 ldr r2,[r7,#420]
  56 0026 D7F8A831 	 ldr r3,[r7,#424]
  57 002a 1A44     	 add r2,r2,r3
  58 002c 3946     	 mov r1,r7
  59 002e 07F10803 	 add r3,r7,#8
  60 0032 0968     	 ldr r1,[r1]
  61 0034 1B68     	 ldr r3,[r3]
  62 0036 0B44     	 add r3,r3,r1
  63 0038 013B     	 subs r3,r3,#1
  64 003a 9A42     	 cmp r2,r3
  65 003c 04D9     	 bls .L2
 100:../Dave/Generated/CMSIS_DSP/FilteringFunctions/arm_conv_partial_q7.c ****   {
 101:../Dave/Generated/CMSIS_DSP/FilteringFunctions/arm_conv_partial_q7.c ****     /* Set status as ARM_MATH_ARGUMENT_ERROR */
 102:../Dave/Generated/CMSIS_DSP/FilteringFunctions/arm_conv_partial_q7.c ****     status = ARM_MATH_ARGUMENT_ERROR;
  66              	 .loc 1 102 0
  67 003e FF23     	 movs r3,#255
  68 0040 87F84F31 	 strb r3,[r7,#335]
  69 0044 00F063BF 	 b .L3
  70              	.L2:
 103:../Dave/Generated/CMSIS_DSP/FilteringFunctions/arm_conv_partial_q7.c ****   }
 104:../Dave/Generated/CMSIS_DSP/FilteringFunctions/arm_conv_partial_q7.c ****   else
 105:../Dave/Generated/CMSIS_DSP/FilteringFunctions/arm_conv_partial_q7.c ****   {
 106:../Dave/Generated/CMSIS_DSP/FilteringFunctions/arm_conv_partial_q7.c **** 
 107:../Dave/Generated/CMSIS_DSP/FilteringFunctions/arm_conv_partial_q7.c ****     /* The algorithm implementation is based on the lengths of the inputs. */
 108:../Dave/Generated/CMSIS_DSP/FilteringFunctions/arm_conv_partial_q7.c ****     /* srcB is always made to slide across srcA. */
 109:../Dave/Generated/CMSIS_DSP/FilteringFunctions/arm_conv_partial_q7.c ****     /* So srcBLen is always considered as shorter or equal to srcALen */
 110:../Dave/Generated/CMSIS_DSP/FilteringFunctions/arm_conv_partial_q7.c ****     if(srcALen >= srcBLen)
  71              	 .loc 1 110 0
  72 0048 07F10802 	 add r2,r7,#8
  73 004c 3B46     	 mov r3,r7
  74 004e 1268     	 ldr r2,[r2]
  75 0050 1B68     	 ldr r3,[r3]
  76 0052 9A42     	 cmp r2,r3
  77 0054 09D3     	 bcc .L4
 111:../Dave/Generated/CMSIS_DSP/FilteringFunctions/arm_conv_partial_q7.c ****     {
 112:../Dave/Generated/CMSIS_DSP/FilteringFunctions/arm_conv_partial_q7.c ****       /* Initialization of inputA pointer */
 113:../Dave/Generated/CMSIS_DSP/FilteringFunctions/arm_conv_partial_q7.c ****       pIn1 = pSrcA;
  78              	 .loc 1 113 0
  79 0056 07F10C03 	 add r3,r7,#12
  80 005a 1B68     	 ldr r3,[r3]
  81 005c C7F89431 	 str r3,[r7,#404]
 114:../Dave/Generated/CMSIS_DSP/FilteringFunctions/arm_conv_partial_q7.c **** 
 115:../Dave/Generated/CMSIS_DSP/FilteringFunctions/arm_conv_partial_q7.c ****       /* Initialization of inputB pointer */
 116:../Dave/Generated/CMSIS_DSP/FilteringFunctions/arm_conv_partial_q7.c ****       pIn2 = pSrcB;
  82              	 .loc 1 116 0
  83 0060 3B1D     	 adds r3,r7,#4
  84 0062 1B68     	 ldr r3,[r3]
  85 0064 C7F89031 	 str r3,[r7,#400]
  86 0068 16E0     	 b .L5
  87              	.L4:
 117:../Dave/Generated/CMSIS_DSP/FilteringFunctions/arm_conv_partial_q7.c ****     }
 118:../Dave/Generated/CMSIS_DSP/FilteringFunctions/arm_conv_partial_q7.c ****     else
 119:../Dave/Generated/CMSIS_DSP/FilteringFunctions/arm_conv_partial_q7.c ****     {
 120:../Dave/Generated/CMSIS_DSP/FilteringFunctions/arm_conv_partial_q7.c ****       /* Initialization of inputA pointer */
 121:../Dave/Generated/CMSIS_DSP/FilteringFunctions/arm_conv_partial_q7.c ****       pIn1 = pSrcB;
  88              	 .loc 1 121 0
  89 006a 3B1D     	 adds r3,r7,#4
  90 006c 1B68     	 ldr r3,[r3]
  91 006e C7F89431 	 str r3,[r7,#404]
 122:../Dave/Generated/CMSIS_DSP/FilteringFunctions/arm_conv_partial_q7.c **** 
 123:../Dave/Generated/CMSIS_DSP/FilteringFunctions/arm_conv_partial_q7.c ****       /* Initialization of inputB pointer */
 124:../Dave/Generated/CMSIS_DSP/FilteringFunctions/arm_conv_partial_q7.c ****       pIn2 = pSrcA;
  92              	 .loc 1 124 0
  93 0072 07F10C03 	 add r3,r7,#12
  94 0076 1B68     	 ldr r3,[r3]
  95 0078 C7F89031 	 str r3,[r7,#400]
 125:../Dave/Generated/CMSIS_DSP/FilteringFunctions/arm_conv_partial_q7.c **** 
 126:../Dave/Generated/CMSIS_DSP/FilteringFunctions/arm_conv_partial_q7.c ****       /* srcBLen is always considered as shorter or equal to srcALen */
 127:../Dave/Generated/CMSIS_DSP/FilteringFunctions/arm_conv_partial_q7.c ****       j = srcBLen;
  96              	 .loc 1 127 0
  97 007c 3B46     	 mov r3,r7
  98 007e 1B68     	 ldr r3,[r3]
  99 0080 C7F84831 	 str r3,[r7,#328]
 128:../Dave/Generated/CMSIS_DSP/FilteringFunctions/arm_conv_partial_q7.c ****       srcBLen = srcALen;
 100              	 .loc 1 128 0
 101 0084 3B46     	 mov r3,r7
 102 0086 07F10802 	 add r2,r7,#8
 103 008a 1268     	 ldr r2,[r2]
 104 008c 1A60     	 str r2,[r3]
 129:../Dave/Generated/CMSIS_DSP/FilteringFunctions/arm_conv_partial_q7.c ****       srcALen = j;
 105              	 .loc 1 129 0
 106 008e 07F10803 	 add r3,r7,#8
 107 0092 D7F84821 	 ldr r2,[r7,#328]
 108 0096 1A60     	 str r2,[r3]
 109              	.L5:
 130:../Dave/Generated/CMSIS_DSP/FilteringFunctions/arm_conv_partial_q7.c ****     }
 131:../Dave/Generated/CMSIS_DSP/FilteringFunctions/arm_conv_partial_q7.c **** 
 132:../Dave/Generated/CMSIS_DSP/FilteringFunctions/arm_conv_partial_q7.c ****     /* Conditions to check which loopCounter holds   
 133:../Dave/Generated/CMSIS_DSP/FilteringFunctions/arm_conv_partial_q7.c ****      * the first and last indices of the output samples to be calculated. */
 134:../Dave/Generated/CMSIS_DSP/FilteringFunctions/arm_conv_partial_q7.c ****     check = firstIndex + numPoints;
 110              	 .loc 1 134 0
 111 0098 D7F8A421 	 ldr r2,[r7,#420]
 112 009c D7F8A831 	 ldr r3,[r7,#424]
 113 00a0 1344     	 add r3,r3,r2
 114 00a2 C7F84431 	 str r3,[r7,#324]
 135:../Dave/Generated/CMSIS_DSP/FilteringFunctions/arm_conv_partial_q7.c ****     blockSize3 = ((int32_t)check > (int32_t)srcALen) ? (int32_t)check - (int32_t)srcALen : 0;
 115              	 .loc 1 135 0
 116 00a6 D7F84421 	 ldr r2,[r7,#324]
 117 00aa 07F10803 	 add r3,r7,#8
 118 00ae 1B68     	 ldr r3,[r3]
 119 00b0 9A42     	 cmp r2,r3
 120 00b2 06DD     	 ble .L6
 121              	 .loc 1 135 0 is_stmt 0 discriminator 1
 122 00b4 D7F84421 	 ldr r2,[r7,#324]
 123 00b8 07F10803 	 add r3,r7,#8
 124 00bc 1B68     	 ldr r3,[r3]
 125 00be D31A     	 subs r3,r2,r3
 126 00c0 00E0     	 b .L7
 127              	.L6:
 128              	 .loc 1 135 0 discriminator 2
 129 00c2 0023     	 movs r3,#0
 130              	.L7:
 131              	 .loc 1 135 0 discriminator 4
 132 00c4 C7F85031 	 str r3,[r7,#336]
 136:../Dave/Generated/CMSIS_DSP/FilteringFunctions/arm_conv_partial_q7.c ****     blockSize3 = ((int32_t)firstIndex > (int32_t)srcALen - 1) ? blockSize3 - (int32_t)firstIndex + 
 133              	 .loc 1 136 0 is_stmt 1 discriminator 4
 134 00c8 D7F8A421 	 ldr r2,[r7,#420]
 135 00cc 07F10803 	 add r3,r7,#8
 136 00d0 1B68     	 ldr r3,[r3]
 137 00d2 013B     	 subs r3,r3,#1
 138 00d4 9A42     	 cmp r2,r3
 139 00d6 09DD     	 ble .L8
 140              	 .loc 1 136 0 is_stmt 0 discriminator 1
 141 00d8 D7F8A431 	 ldr r3,[r7,#420]
 142 00dc D7F85021 	 ldr r2,[r7,#336]
 143 00e0 D21A     	 subs r2,r2,r3
 144 00e2 07F10803 	 add r3,r7,#8
 145 00e6 1B68     	 ldr r3,[r3]
 146 00e8 1344     	 add r3,r3,r2
 147 00ea 01E0     	 b .L9
 148              	.L8:
 149              	 .loc 1 136 0 discriminator 2
 150 00ec D7F85031 	 ldr r3,[r7,#336]
 151              	.L9:
 152              	 .loc 1 136 0 discriminator 4
 153 00f0 C7F85031 	 str r3,[r7,#336]
 137:../Dave/Generated/CMSIS_DSP/FilteringFunctions/arm_conv_partial_q7.c ****     blockSize1 = (((int32_t) srcBLen - 1) - (int32_t) firstIndex);
 154              	 .loc 1 137 0 is_stmt 1 discriminator 4
 155 00f4 3B46     	 mov r3,r7
 156 00f6 1A68     	 ldr r2,[r3]
 157 00f8 D7F8A431 	 ldr r3,[r7,#420]
 158 00fc D31A     	 subs r3,r2,r3
 159 00fe 013B     	 subs r3,r3,#1
 160 0100 C7F85431 	 str r3,[r7,#340]
 138:../Dave/Generated/CMSIS_DSP/FilteringFunctions/arm_conv_partial_q7.c ****     blockSize1 = (blockSize1 > 0) ? ((check > (srcBLen - 1u)) ? blockSize1 :
 139:../Dave/Generated/CMSIS_DSP/FilteringFunctions/arm_conv_partial_q7.c ****                                      (int32_t) numPoints) : 0;
 161              	 .loc 1 139 0 discriminator 4
 162 0104 D7F85431 	 ldr r3,[r7,#340]
 163 0108 002B     	 cmp r3,#0
 164 010a 0CDD     	 ble .L10
 138:../Dave/Generated/CMSIS_DSP/FilteringFunctions/arm_conv_partial_q7.c ****     blockSize1 = (blockSize1 > 0) ? ((check > (srcBLen - 1u)) ? blockSize1 :
 165              	 .loc 1 138 0
 166 010c 3B46     	 mov r3,r7
 167 010e 1B68     	 ldr r3,[r3]
 168 0110 5A1E     	 subs r2,r3,#1
 169 0112 D7F84431 	 ldr r3,[r7,#324]
 170 0116 9A42     	 cmp r2,r3
 171 0118 02D3     	 bcc .L11
 138:../Dave/Generated/CMSIS_DSP/FilteringFunctions/arm_conv_partial_q7.c ****     blockSize1 = (blockSize1 > 0) ? ((check > (srcBLen - 1u)) ? blockSize1 :
 172              	 .loc 1 138 0 is_stmt 0 discriminator 1
 173 011a D7F8A831 	 ldr r3,[r7,#424]
 174 011e 03E0     	 b .L13
 175              	.L11:
 138:../Dave/Generated/CMSIS_DSP/FilteringFunctions/arm_conv_partial_q7.c ****     blockSize1 = (blockSize1 > 0) ? ((check > (srcBLen - 1u)) ? blockSize1 :
 176              	 .loc 1 138 0 discriminator 2
 177 0120 D7F85431 	 ldr r3,[r7,#340]
 178 0124 00E0     	 b .L13
 179              	.L10:
 180              	 .loc 1 139 0 is_stmt 1 discriminator 1
 181 0126 0023     	 movs r3,#0
 182              	.L13:
 138:../Dave/Generated/CMSIS_DSP/FilteringFunctions/arm_conv_partial_q7.c ****     blockSize1 = (blockSize1 > 0) ? ((check > (srcBLen - 1u)) ? blockSize1 :
 183              	 .loc 1 138 0
 184 0128 C7F85431 	 str r3,[r7,#340]
 140:../Dave/Generated/CMSIS_DSP/FilteringFunctions/arm_conv_partial_q7.c ****     blockSize2 = (int32_t) check - ((blockSize3 + blockSize1) +
 185              	 .loc 1 140 0
 186 012c D7F84421 	 ldr r2,[r7,#324]
 187 0130 D7F85011 	 ldr r1,[r7,#336]
 188 0134 D7F85431 	 ldr r3,[r7,#340]
 189 0138 1944     	 add r1,r1,r3
 141:../Dave/Generated/CMSIS_DSP/FilteringFunctions/arm_conv_partial_q7.c ****                                     (int32_t) firstIndex);
 190              	 .loc 1 141 0
 191 013a D7F8A431 	 ldr r3,[r7,#420]
 140:../Dave/Generated/CMSIS_DSP/FilteringFunctions/arm_conv_partial_q7.c ****     blockSize2 = (int32_t) check - ((blockSize3 + blockSize1) +
 192              	 .loc 1 140 0
 193 013e 0B44     	 add r3,r3,r1
 194 0140 D31A     	 subs r3,r2,r3
 195 0142 C7F84031 	 str r3,[r7,#320]
 142:../Dave/Generated/CMSIS_DSP/FilteringFunctions/arm_conv_partial_q7.c ****     blockSize2 = (blockSize2 > 0) ? blockSize2 : 0;
 196              	 .loc 1 142 0
 197 0146 D7F84031 	 ldr r3,[r7,#320]
 198 014a 23EAE373 	 bic r3,r3,r3,asr#31
 199 014e C7F84031 	 str r3,[r7,#320]
 143:../Dave/Generated/CMSIS_DSP/FilteringFunctions/arm_conv_partial_q7.c **** 
 144:../Dave/Generated/CMSIS_DSP/FilteringFunctions/arm_conv_partial_q7.c ****     /* conv(x,y) at n = x[n] * y[0] + x[n-1] * y[1] + x[n-2] * y[2] + ...+ x[n-N+1] * y[N -1] */
 145:../Dave/Generated/CMSIS_DSP/FilteringFunctions/arm_conv_partial_q7.c ****     /* The function is internally   
 146:../Dave/Generated/CMSIS_DSP/FilteringFunctions/arm_conv_partial_q7.c ****      * divided into three stages according to the number of multiplications that has to be   
 147:../Dave/Generated/CMSIS_DSP/FilteringFunctions/arm_conv_partial_q7.c ****      * taken place between inputA samples and inputB samples. In the first stage of the   
 148:../Dave/Generated/CMSIS_DSP/FilteringFunctions/arm_conv_partial_q7.c ****      * algorithm, the multiplications increase by one for every iteration.   
 149:../Dave/Generated/CMSIS_DSP/FilteringFunctions/arm_conv_partial_q7.c ****      * In the second stage of the algorithm, srcBLen number of multiplications are done.   
 150:../Dave/Generated/CMSIS_DSP/FilteringFunctions/arm_conv_partial_q7.c ****      * In the third stage of the algorithm, the multiplications decrease by one   
 151:../Dave/Generated/CMSIS_DSP/FilteringFunctions/arm_conv_partial_q7.c ****      * for every iteration. */
 152:../Dave/Generated/CMSIS_DSP/FilteringFunctions/arm_conv_partial_q7.c **** 
 153:../Dave/Generated/CMSIS_DSP/FilteringFunctions/arm_conv_partial_q7.c ****     /* Set the output pointer to point to the firstIndex   
 154:../Dave/Generated/CMSIS_DSP/FilteringFunctions/arm_conv_partial_q7.c ****      * of the output sample to be calculated. */
 155:../Dave/Generated/CMSIS_DSP/FilteringFunctions/arm_conv_partial_q7.c ****     pOut = pDst + firstIndex;
 200              	 .loc 1 155 0
 201 0152 D7F8A021 	 ldr r2,[r7,#416]
 202 0156 D7F8A431 	 ldr r3,[r7,#420]
 203 015a 1344     	 add r3,r3,r2
 204 015c C7F88C31 	 str r3,[r7,#396]
 156:../Dave/Generated/CMSIS_DSP/FilteringFunctions/arm_conv_partial_q7.c **** 
 157:../Dave/Generated/CMSIS_DSP/FilteringFunctions/arm_conv_partial_q7.c ****     /* --------------------------   
 158:../Dave/Generated/CMSIS_DSP/FilteringFunctions/arm_conv_partial_q7.c ****      * Initializations of stage1   
 159:../Dave/Generated/CMSIS_DSP/FilteringFunctions/arm_conv_partial_q7.c ****      * -------------------------*/
 160:../Dave/Generated/CMSIS_DSP/FilteringFunctions/arm_conv_partial_q7.c **** 
 161:../Dave/Generated/CMSIS_DSP/FilteringFunctions/arm_conv_partial_q7.c ****     /* sum = x[0] * y[0]   
 162:../Dave/Generated/CMSIS_DSP/FilteringFunctions/arm_conv_partial_q7.c ****      * sum = x[0] * y[1] + x[1] * y[0]   
 163:../Dave/Generated/CMSIS_DSP/FilteringFunctions/arm_conv_partial_q7.c ****      * ....   
 164:../Dave/Generated/CMSIS_DSP/FilteringFunctions/arm_conv_partial_q7.c ****      * sum = x[0] * y[srcBlen - 1] + x[1] * y[srcBlen - 2] +...+ x[srcBLen - 1] * y[0]   
 165:../Dave/Generated/CMSIS_DSP/FilteringFunctions/arm_conv_partial_q7.c ****      */
 166:../Dave/Generated/CMSIS_DSP/FilteringFunctions/arm_conv_partial_q7.c **** 
 167:../Dave/Generated/CMSIS_DSP/FilteringFunctions/arm_conv_partial_q7.c ****     /* In this stage the MAC operations are increased by 1 for every iteration.   
 168:../Dave/Generated/CMSIS_DSP/FilteringFunctions/arm_conv_partial_q7.c ****        The count variable holds the number of MAC operations performed.   
 169:../Dave/Generated/CMSIS_DSP/FilteringFunctions/arm_conv_partial_q7.c ****        Since the partial convolution starts from from firstIndex   
 170:../Dave/Generated/CMSIS_DSP/FilteringFunctions/arm_conv_partial_q7.c ****        Number of Macs to be performed is firstIndex + 1 */
 171:../Dave/Generated/CMSIS_DSP/FilteringFunctions/arm_conv_partial_q7.c ****     count = 1u + firstIndex;
 205              	 .loc 1 171 0
 206 0160 D7F8A431 	 ldr r3,[r7,#420]
 207 0164 0133     	 adds r3,r3,#1
 208 0166 C7F85C31 	 str r3,[r7,#348]
 172:../Dave/Generated/CMSIS_DSP/FilteringFunctions/arm_conv_partial_q7.c **** 
 173:../Dave/Generated/CMSIS_DSP/FilteringFunctions/arm_conv_partial_q7.c ****     /* Working pointer of inputA */
 174:../Dave/Generated/CMSIS_DSP/FilteringFunctions/arm_conv_partial_q7.c ****     px = pIn1;
 209              	 .loc 1 174 0
 210 016a D7F89431 	 ldr r3,[r7,#404]
 211 016e C7F88831 	 str r3,[r7,#392]
 175:../Dave/Generated/CMSIS_DSP/FilteringFunctions/arm_conv_partial_q7.c **** 
 176:../Dave/Generated/CMSIS_DSP/FilteringFunctions/arm_conv_partial_q7.c ****     /* Working pointer of inputB */
 177:../Dave/Generated/CMSIS_DSP/FilteringFunctions/arm_conv_partial_q7.c ****     pSrc2 = pIn2 + firstIndex;
 212              	 .loc 1 177 0
 213 0172 D7F89021 	 ldr r2,[r7,#400]
 214 0176 D7F8A431 	 ldr r3,[r7,#420]
 215 017a 1344     	 add r3,r3,r2
 216 017c C7F87C31 	 str r3,[r7,#380]
 178:../Dave/Generated/CMSIS_DSP/FilteringFunctions/arm_conv_partial_q7.c ****     py = pSrc2;
 217              	 .loc 1 178 0
 218 0180 D7F87C31 	 ldr r3,[r7,#380]
 219 0184 C7F88431 	 str r3,[r7,#388]
 179:../Dave/Generated/CMSIS_DSP/FilteringFunctions/arm_conv_partial_q7.c **** 
 180:../Dave/Generated/CMSIS_DSP/FilteringFunctions/arm_conv_partial_q7.c ****     /* ------------------------   
 181:../Dave/Generated/CMSIS_DSP/FilteringFunctions/arm_conv_partial_q7.c ****      * Stage1 process   
 182:../Dave/Generated/CMSIS_DSP/FilteringFunctions/arm_conv_partial_q7.c ****      * ----------------------*/
 183:../Dave/Generated/CMSIS_DSP/FilteringFunctions/arm_conv_partial_q7.c **** 
 184:../Dave/Generated/CMSIS_DSP/FilteringFunctions/arm_conv_partial_q7.c ****     /* The first stage starts here */
 185:../Dave/Generated/CMSIS_DSP/FilteringFunctions/arm_conv_partial_q7.c ****     while(blockSize1 > 0)
 220              	 .loc 1 185 0
 221 0188 02E1     	 b .L14
 222              	.L21:
 186:../Dave/Generated/CMSIS_DSP/FilteringFunctions/arm_conv_partial_q7.c ****     {
 187:../Dave/Generated/CMSIS_DSP/FilteringFunctions/arm_conv_partial_q7.c ****       /* Accumulator is made zero for every iteration */
 188:../Dave/Generated/CMSIS_DSP/FilteringFunctions/arm_conv_partial_q7.c ****       sum = 0;
 223              	 .loc 1 188 0
 224 018a 0023     	 movs r3,#0
 225 018c C7F87831 	 str r3,[r7,#376]
 189:../Dave/Generated/CMSIS_DSP/FilteringFunctions/arm_conv_partial_q7.c **** 
 190:../Dave/Generated/CMSIS_DSP/FilteringFunctions/arm_conv_partial_q7.c ****       /* Apply loop unrolling and compute 4 MACs simultaneously. */
 191:../Dave/Generated/CMSIS_DSP/FilteringFunctions/arm_conv_partial_q7.c ****       k = count >> 2u;
 226              	 .loc 1 191 0
 227 0190 D7F85C31 	 ldr r3,[r7,#348]
 228 0194 9B08     	 lsrs r3,r3,#2
 229 0196 C7F86031 	 str r3,[r7,#352]
 192:../Dave/Generated/CMSIS_DSP/FilteringFunctions/arm_conv_partial_q7.c **** 
 193:../Dave/Generated/CMSIS_DSP/FilteringFunctions/arm_conv_partial_q7.c ****       /* First part of the processing with loop unrolling.  Compute 4 MACs at a time.   
 194:../Dave/Generated/CMSIS_DSP/FilteringFunctions/arm_conv_partial_q7.c ****        ** a second loop below computes MACs for the remaining 1 to 3 samples. */
 195:../Dave/Generated/CMSIS_DSP/FilteringFunctions/arm_conv_partial_q7.c ****       while(k > 0u)
 230              	 .loc 1 195 0
 231 019a A4E0     	 b .L15
 232              	.L18:
 196:../Dave/Generated/CMSIS_DSP/FilteringFunctions/arm_conv_partial_q7.c ****       {
 197:../Dave/Generated/CMSIS_DSP/FilteringFunctions/arm_conv_partial_q7.c ****         /* x[0] , x[1] */
 198:../Dave/Generated/CMSIS_DSP/FilteringFunctions/arm_conv_partial_q7.c ****         in1 = (q15_t) * px++;
 233              	 .loc 1 198 0
 234 019c D7F88831 	 ldr r3,[r7,#392]
 235 01a0 5A1C     	 adds r2,r3,#1
 236 01a2 C7F88821 	 str r2,[r7,#392]
 237 01a6 1B78     	 ldrb r3,[r3]
 238 01a8 5BB2     	 sxtb r3,r3
 239 01aa A7F83E31 	 strh r3,[r7,#318]
 199:../Dave/Generated/CMSIS_DSP/FilteringFunctions/arm_conv_partial_q7.c ****         in2 = (q15_t) * px++;
 240              	 .loc 1 199 0
 241 01ae D7F88831 	 ldr r3,[r7,#392]
 242 01b2 5A1C     	 adds r2,r3,#1
 243 01b4 C7F88821 	 str r2,[r7,#392]
 244 01b8 1B78     	 ldrb r3,[r3]
 245 01ba 5BB2     	 sxtb r3,r3
 246 01bc A7F83C31 	 strh r3,[r7,#316]
 200:../Dave/Generated/CMSIS_DSP/FilteringFunctions/arm_conv_partial_q7.c ****         input1 = ((q31_t) in1 & 0x0000FFFF) | ((q31_t) in2 << 16);
 247              	 .loc 1 200 0
 248 01c0 B7F93E31 	 ldrsh r3,[r7,#318]
 249 01c4 9AB2     	 uxth r2,r3
 250 01c6 B7F93C31 	 ldrsh r3,[r7,#316]
 251 01ca 1B04     	 lsls r3,r3,#16
 252 01cc 1343     	 orrs r3,r3,r2
 253 01ce C7F83831 	 str r3,[r7,#312]
 201:../Dave/Generated/CMSIS_DSP/FilteringFunctions/arm_conv_partial_q7.c **** 
 202:../Dave/Generated/CMSIS_DSP/FilteringFunctions/arm_conv_partial_q7.c ****         /* y[srcBLen - 1] , y[srcBLen - 2] */
 203:../Dave/Generated/CMSIS_DSP/FilteringFunctions/arm_conv_partial_q7.c ****         in1 = (q15_t) * py--;
 254              	 .loc 1 203 0
 255 01d2 D7F88431 	 ldr r3,[r7,#388]
 256 01d6 5A1E     	 subs r2,r3,#1
 257 01d8 C7F88421 	 str r2,[r7,#388]
 258 01dc 1B78     	 ldrb r3,[r3]
 259 01de 5BB2     	 sxtb r3,r3
 260 01e0 A7F83E31 	 strh r3,[r7,#318]
 204:../Dave/Generated/CMSIS_DSP/FilteringFunctions/arm_conv_partial_q7.c ****         in2 = (q15_t) * py--;
 261              	 .loc 1 204 0
 262 01e4 D7F88431 	 ldr r3,[r7,#388]
 263 01e8 5A1E     	 subs r2,r3,#1
 264 01ea C7F88421 	 str r2,[r7,#388]
 265 01ee 1B78     	 ldrb r3,[r3]
 266 01f0 5BB2     	 sxtb r3,r3
 267 01f2 A7F83C31 	 strh r3,[r7,#316]
 205:../Dave/Generated/CMSIS_DSP/FilteringFunctions/arm_conv_partial_q7.c ****         input2 = ((q31_t) in1 & 0x0000FFFF) | ((q31_t) in2 << 16);
 268              	 .loc 1 205 0
 269 01f6 B7F93E31 	 ldrsh r3,[r7,#318]
 270 01fa 9AB2     	 uxth r2,r3
 271 01fc B7F93C31 	 ldrsh r3,[r7,#316]
 272 0200 1B04     	 lsls r3,r3,#16
 273 0202 1343     	 orrs r3,r3,r2
 274 0204 C7F83431 	 str r3,[r7,#308]
 206:../Dave/Generated/CMSIS_DSP/FilteringFunctions/arm_conv_partial_q7.c **** 
 207:../Dave/Generated/CMSIS_DSP/FilteringFunctions/arm_conv_partial_q7.c ****         /* x[0] * y[srcBLen - 1] */
 208:../Dave/Generated/CMSIS_DSP/FilteringFunctions/arm_conv_partial_q7.c ****         /* x[1] * y[srcBLen - 2] */
 209:../Dave/Generated/CMSIS_DSP/FilteringFunctions/arm_conv_partial_q7.c ****         sum = __SMLAD(input1, input2, sum);
 275              	 .loc 1 209 0
 276 0208 D7F83811 	 ldr r1,[r7,#312]
 277 020c D7F83421 	 ldr r2,[r7,#308]
 278 0210 D7F87831 	 ldr r3,[r7,#376]
 279 0214 C7F8EC10 	 str r1,[r7,#236]
 280 0218 C7F8E820 	 str r2,[r7,#232]
 281 021c C7F8E430 	 str r3,[r7,#228]
 282              	.LBB38:
 283              	.LBB39:
 284              	 .file 2 "C:\\Users\\Depes Crystalline\\Desktop\\school\\Active_Bike_Lighting_System\\Radar_Core/Libraries/CMSIS/Include/core_cmSimd.h"
   1:C:\Users\Depes Crystalline\Desktop\school\Active_Bike_Lighting_System\Radar_Core/Libraries/CMSIS/Include\core_cmSimd.h **** /**************************************************************************//**
   2:C:\Users\Depes Crystalline\Desktop\school\Active_Bike_Lighting_System\Radar_Core/Libraries/CMSIS/Include\core_cmSimd.h ****  * @file     core_cmSimd.h
   3:C:\Users\Depes Crystalline\Desktop\school\Active_Bike_Lighting_System\Radar_Core/Libraries/CMSIS/Include\core_cmSimd.h ****  * @brief    CMSIS Cortex-M SIMD Header File
   4:C:\Users\Depes Crystalline\Desktop\school\Active_Bike_Lighting_System\Radar_Core/Libraries/CMSIS/Include\core_cmSimd.h ****  * @version  V4.00
   5:C:\Users\Depes Crystalline\Desktop\school\Active_Bike_Lighting_System\Radar_Core/Libraries/CMSIS/Include\core_cmSimd.h ****  * @date     22. August 2014
   6:C:\Users\Depes Crystalline\Desktop\school\Active_Bike_Lighting_System\Radar_Core/Libraries/CMSIS/Include\core_cmSimd.h ****  *
   7:C:\Users\Depes Crystalline\Desktop\school\Active_Bike_Lighting_System\Radar_Core/Libraries/CMSIS/Include\core_cmSimd.h ****  * @note
   8:C:\Users\Depes Crystalline\Desktop\school\Active_Bike_Lighting_System\Radar_Core/Libraries/CMSIS/Include\core_cmSimd.h ****  *
   9:C:\Users\Depes Crystalline\Desktop\school\Active_Bike_Lighting_System\Radar_Core/Libraries/CMSIS/Include\core_cmSimd.h ****  ******************************************************************************/
  10:C:\Users\Depes Crystalline\Desktop\school\Active_Bike_Lighting_System\Radar_Core/Libraries/CMSIS/Include\core_cmSimd.h **** /* Copyright (c) 2009 - 2014 ARM LIMITED
  11:C:\Users\Depes Crystalline\Desktop\school\Active_Bike_Lighting_System\Radar_Core/Libraries/CMSIS/Include\core_cmSimd.h **** 
  12:C:\Users\Depes Crystalline\Desktop\school\Active_Bike_Lighting_System\Radar_Core/Libraries/CMSIS/Include\core_cmSimd.h ****    All rights reserved.
  13:C:\Users\Depes Crystalline\Desktop\school\Active_Bike_Lighting_System\Radar_Core/Libraries/CMSIS/Include\core_cmSimd.h ****    Redistribution and use in source and binary forms, with or without
  14:C:\Users\Depes Crystalline\Desktop\school\Active_Bike_Lighting_System\Radar_Core/Libraries/CMSIS/Include\core_cmSimd.h ****    modification, are permitted provided that the following conditions are met:
  15:C:\Users\Depes Crystalline\Desktop\school\Active_Bike_Lighting_System\Radar_Core/Libraries/CMSIS/Include\core_cmSimd.h ****    - Redistributions of source code must retain the above copyright
  16:C:\Users\Depes Crystalline\Desktop\school\Active_Bike_Lighting_System\Radar_Core/Libraries/CMSIS/Include\core_cmSimd.h ****      notice, this list of conditions and the following disclaimer.
  17:C:\Users\Depes Crystalline\Desktop\school\Active_Bike_Lighting_System\Radar_Core/Libraries/CMSIS/Include\core_cmSimd.h ****    - Redistributions in binary form must reproduce the above copyright
  18:C:\Users\Depes Crystalline\Desktop\school\Active_Bike_Lighting_System\Radar_Core/Libraries/CMSIS/Include\core_cmSimd.h ****      notice, this list of conditions and the following disclaimer in the
  19:C:\Users\Depes Crystalline\Desktop\school\Active_Bike_Lighting_System\Radar_Core/Libraries/CMSIS/Include\core_cmSimd.h ****      documentation and/or other materials provided with the distribution.
  20:C:\Users\Depes Crystalline\Desktop\school\Active_Bike_Lighting_System\Radar_Core/Libraries/CMSIS/Include\core_cmSimd.h ****    - Neither the name of ARM nor the names of its contributors may be used
  21:C:\Users\Depes Crystalline\Desktop\school\Active_Bike_Lighting_System\Radar_Core/Libraries/CMSIS/Include\core_cmSimd.h ****      to endorse or promote products derived from this software without
  22:C:\Users\Depes Crystalline\Desktop\school\Active_Bike_Lighting_System\Radar_Core/Libraries/CMSIS/Include\core_cmSimd.h ****      specific prior written permission.
  23:C:\Users\Depes Crystalline\Desktop\school\Active_Bike_Lighting_System\Radar_Core/Libraries/CMSIS/Include\core_cmSimd.h ****    *
  24:C:\Users\Depes Crystalline\Desktop\school\Active_Bike_Lighting_System\Radar_Core/Libraries/CMSIS/Include\core_cmSimd.h ****    THIS SOFTWARE IS PROVIDED BY THE COPYRIGHT HOLDERS AND CONTRIBUTORS "AS IS"
  25:C:\Users\Depes Crystalline\Desktop\school\Active_Bike_Lighting_System\Radar_Core/Libraries/CMSIS/Include\core_cmSimd.h ****    AND ANY EXPRESS OR IMPLIED WARRANTIES, INCLUDING, BUT NOT LIMITED TO, THE
  26:C:\Users\Depes Crystalline\Desktop\school\Active_Bike_Lighting_System\Radar_Core/Libraries/CMSIS/Include\core_cmSimd.h ****    IMPLIED WARRANTIES OF MERCHANTABILITY AND FITNESS FOR A PARTICULAR PURPOSE
  27:C:\Users\Depes Crystalline\Desktop\school\Active_Bike_Lighting_System\Radar_Core/Libraries/CMSIS/Include\core_cmSimd.h ****    ARE DISCLAIMED. IN NO EVENT SHALL COPYRIGHT HOLDERS AND CONTRIBUTORS BE
  28:C:\Users\Depes Crystalline\Desktop\school\Active_Bike_Lighting_System\Radar_Core/Libraries/CMSIS/Include\core_cmSimd.h ****    LIABLE FOR ANY DIRECT, INDIRECT, INCIDENTAL, SPECIAL, EXEMPLARY, OR
  29:C:\Users\Depes Crystalline\Desktop\school\Active_Bike_Lighting_System\Radar_Core/Libraries/CMSIS/Include\core_cmSimd.h ****    CONSEQUENTIAL DAMAGES (INCLUDING, BUT NOT LIMITED TO, PROCUREMENT OF
  30:C:\Users\Depes Crystalline\Desktop\school\Active_Bike_Lighting_System\Radar_Core/Libraries/CMSIS/Include\core_cmSimd.h ****    SUBSTITUTE GOODS OR SERVICES; LOSS OF USE, DATA, OR PROFITS; OR BUSINESS
  31:C:\Users\Depes Crystalline\Desktop\school\Active_Bike_Lighting_System\Radar_Core/Libraries/CMSIS/Include\core_cmSimd.h ****    INTERRUPTION) HOWEVER CAUSED AND ON ANY THEORY OF LIABILITY, WHETHER IN
  32:C:\Users\Depes Crystalline\Desktop\school\Active_Bike_Lighting_System\Radar_Core/Libraries/CMSIS/Include\core_cmSimd.h ****    CONTRACT, STRICT LIABILITY, OR TORT (INCLUDING NEGLIGENCE OR OTHERWISE)
  33:C:\Users\Depes Crystalline\Desktop\school\Active_Bike_Lighting_System\Radar_Core/Libraries/CMSIS/Include\core_cmSimd.h ****    ARISING IN ANY WAY OUT OF THE USE OF THIS SOFTWARE, EVEN IF ADVISED OF THE
  34:C:\Users\Depes Crystalline\Desktop\school\Active_Bike_Lighting_System\Radar_Core/Libraries/CMSIS/Include\core_cmSimd.h ****    POSSIBILITY OF SUCH DAMAGE.
  35:C:\Users\Depes Crystalline\Desktop\school\Active_Bike_Lighting_System\Radar_Core/Libraries/CMSIS/Include\core_cmSimd.h ****    ---------------------------------------------------------------------------*/
  36:C:\Users\Depes Crystalline\Desktop\school\Active_Bike_Lighting_System\Radar_Core/Libraries/CMSIS/Include\core_cmSimd.h **** 
  37:C:\Users\Depes Crystalline\Desktop\school\Active_Bike_Lighting_System\Radar_Core/Libraries/CMSIS/Include\core_cmSimd.h **** 
  38:C:\Users\Depes Crystalline\Desktop\school\Active_Bike_Lighting_System\Radar_Core/Libraries/CMSIS/Include\core_cmSimd.h **** #if defined ( __ICCARM__ )
  39:C:\Users\Depes Crystalline\Desktop\school\Active_Bike_Lighting_System\Radar_Core/Libraries/CMSIS/Include\core_cmSimd.h ****  #pragma system_include  /* treat file as system include file for MISRA check */
  40:C:\Users\Depes Crystalline\Desktop\school\Active_Bike_Lighting_System\Radar_Core/Libraries/CMSIS/Include\core_cmSimd.h **** #endif
  41:C:\Users\Depes Crystalline\Desktop\school\Active_Bike_Lighting_System\Radar_Core/Libraries/CMSIS/Include\core_cmSimd.h **** 
  42:C:\Users\Depes Crystalline\Desktop\school\Active_Bike_Lighting_System\Radar_Core/Libraries/CMSIS/Include\core_cmSimd.h **** #ifndef __CORE_CMSIMD_H
  43:C:\Users\Depes Crystalline\Desktop\school\Active_Bike_Lighting_System\Radar_Core/Libraries/CMSIS/Include\core_cmSimd.h **** #define __CORE_CMSIMD_H
  44:C:\Users\Depes Crystalline\Desktop\school\Active_Bike_Lighting_System\Radar_Core/Libraries/CMSIS/Include\core_cmSimd.h **** 
  45:C:\Users\Depes Crystalline\Desktop\school\Active_Bike_Lighting_System\Radar_Core/Libraries/CMSIS/Include\core_cmSimd.h **** #ifdef __cplusplus
  46:C:\Users\Depes Crystalline\Desktop\school\Active_Bike_Lighting_System\Radar_Core/Libraries/CMSIS/Include\core_cmSimd.h ****  extern "C" {
  47:C:\Users\Depes Crystalline\Desktop\school\Active_Bike_Lighting_System\Radar_Core/Libraries/CMSIS/Include\core_cmSimd.h **** #endif
  48:C:\Users\Depes Crystalline\Desktop\school\Active_Bike_Lighting_System\Radar_Core/Libraries/CMSIS/Include\core_cmSimd.h **** 
  49:C:\Users\Depes Crystalline\Desktop\school\Active_Bike_Lighting_System\Radar_Core/Libraries/CMSIS/Include\core_cmSimd.h **** 
  50:C:\Users\Depes Crystalline\Desktop\school\Active_Bike_Lighting_System\Radar_Core/Libraries/CMSIS/Include\core_cmSimd.h **** /*******************************************************************************
  51:C:\Users\Depes Crystalline\Desktop\school\Active_Bike_Lighting_System\Radar_Core/Libraries/CMSIS/Include\core_cmSimd.h ****  *                Hardware Abstraction Layer
  52:C:\Users\Depes Crystalline\Desktop\school\Active_Bike_Lighting_System\Radar_Core/Libraries/CMSIS/Include\core_cmSimd.h ****  ******************************************************************************/
  53:C:\Users\Depes Crystalline\Desktop\school\Active_Bike_Lighting_System\Radar_Core/Libraries/CMSIS/Include\core_cmSimd.h **** 
  54:C:\Users\Depes Crystalline\Desktop\school\Active_Bike_Lighting_System\Radar_Core/Libraries/CMSIS/Include\core_cmSimd.h **** 
  55:C:\Users\Depes Crystalline\Desktop\school\Active_Bike_Lighting_System\Radar_Core/Libraries/CMSIS/Include\core_cmSimd.h **** /* ###################  Compiler specific Intrinsics  ########################### */
  56:C:\Users\Depes Crystalline\Desktop\school\Active_Bike_Lighting_System\Radar_Core/Libraries/CMSIS/Include\core_cmSimd.h **** /** \defgroup CMSIS_SIMD_intrinsics CMSIS SIMD Intrinsics
  57:C:\Users\Depes Crystalline\Desktop\school\Active_Bike_Lighting_System\Radar_Core/Libraries/CMSIS/Include\core_cmSimd.h ****   Access to dedicated SIMD instructions
  58:C:\Users\Depes Crystalline\Desktop\school\Active_Bike_Lighting_System\Radar_Core/Libraries/CMSIS/Include\core_cmSimd.h ****   @{
  59:C:\Users\Depes Crystalline\Desktop\school\Active_Bike_Lighting_System\Radar_Core/Libraries/CMSIS/Include\core_cmSimd.h **** */
  60:C:\Users\Depes Crystalline\Desktop\school\Active_Bike_Lighting_System\Radar_Core/Libraries/CMSIS/Include\core_cmSimd.h **** 
  61:C:\Users\Depes Crystalline\Desktop\school\Active_Bike_Lighting_System\Radar_Core/Libraries/CMSIS/Include\core_cmSimd.h **** #if   defined ( __CC_ARM ) /*------------------RealView Compiler -----------------*/
  62:C:\Users\Depes Crystalline\Desktop\school\Active_Bike_Lighting_System\Radar_Core/Libraries/CMSIS/Include\core_cmSimd.h **** /* ARM armcc specific functions */
  63:C:\Users\Depes Crystalline\Desktop\school\Active_Bike_Lighting_System\Radar_Core/Libraries/CMSIS/Include\core_cmSimd.h **** #define __SADD8                           __sadd8
  64:C:\Users\Depes Crystalline\Desktop\school\Active_Bike_Lighting_System\Radar_Core/Libraries/CMSIS/Include\core_cmSimd.h **** #define __QADD8                           __qadd8
  65:C:\Users\Depes Crystalline\Desktop\school\Active_Bike_Lighting_System\Radar_Core/Libraries/CMSIS/Include\core_cmSimd.h **** #define __SHADD8                          __shadd8
  66:C:\Users\Depes Crystalline\Desktop\school\Active_Bike_Lighting_System\Radar_Core/Libraries/CMSIS/Include\core_cmSimd.h **** #define __UADD8                           __uadd8
  67:C:\Users\Depes Crystalline\Desktop\school\Active_Bike_Lighting_System\Radar_Core/Libraries/CMSIS/Include\core_cmSimd.h **** #define __UQADD8                          __uqadd8
  68:C:\Users\Depes Crystalline\Desktop\school\Active_Bike_Lighting_System\Radar_Core/Libraries/CMSIS/Include\core_cmSimd.h **** #define __UHADD8                          __uhadd8
  69:C:\Users\Depes Crystalline\Desktop\school\Active_Bike_Lighting_System\Radar_Core/Libraries/CMSIS/Include\core_cmSimd.h **** #define __SSUB8                           __ssub8
  70:C:\Users\Depes Crystalline\Desktop\school\Active_Bike_Lighting_System\Radar_Core/Libraries/CMSIS/Include\core_cmSimd.h **** #define __QSUB8                           __qsub8
  71:C:\Users\Depes Crystalline\Desktop\school\Active_Bike_Lighting_System\Radar_Core/Libraries/CMSIS/Include\core_cmSimd.h **** #define __SHSUB8                          __shsub8
  72:C:\Users\Depes Crystalline\Desktop\school\Active_Bike_Lighting_System\Radar_Core/Libraries/CMSIS/Include\core_cmSimd.h **** #define __USUB8                           __usub8
  73:C:\Users\Depes Crystalline\Desktop\school\Active_Bike_Lighting_System\Radar_Core/Libraries/CMSIS/Include\core_cmSimd.h **** #define __UQSUB8                          __uqsub8
  74:C:\Users\Depes Crystalline\Desktop\school\Active_Bike_Lighting_System\Radar_Core/Libraries/CMSIS/Include\core_cmSimd.h **** #define __UHSUB8                          __uhsub8
  75:C:\Users\Depes Crystalline\Desktop\school\Active_Bike_Lighting_System\Radar_Core/Libraries/CMSIS/Include\core_cmSimd.h **** #define __SADD16                          __sadd16
  76:C:\Users\Depes Crystalline\Desktop\school\Active_Bike_Lighting_System\Radar_Core/Libraries/CMSIS/Include\core_cmSimd.h **** #define __QADD16                          __qadd16
  77:C:\Users\Depes Crystalline\Desktop\school\Active_Bike_Lighting_System\Radar_Core/Libraries/CMSIS/Include\core_cmSimd.h **** #define __SHADD16                         __shadd16
  78:C:\Users\Depes Crystalline\Desktop\school\Active_Bike_Lighting_System\Radar_Core/Libraries/CMSIS/Include\core_cmSimd.h **** #define __UADD16                          __uadd16
  79:C:\Users\Depes Crystalline\Desktop\school\Active_Bike_Lighting_System\Radar_Core/Libraries/CMSIS/Include\core_cmSimd.h **** #define __UQADD16                         __uqadd16
  80:C:\Users\Depes Crystalline\Desktop\school\Active_Bike_Lighting_System\Radar_Core/Libraries/CMSIS/Include\core_cmSimd.h **** #define __UHADD16                         __uhadd16
  81:C:\Users\Depes Crystalline\Desktop\school\Active_Bike_Lighting_System\Radar_Core/Libraries/CMSIS/Include\core_cmSimd.h **** #define __SSUB16                          __ssub16
  82:C:\Users\Depes Crystalline\Desktop\school\Active_Bike_Lighting_System\Radar_Core/Libraries/CMSIS/Include\core_cmSimd.h **** #define __QSUB16                          __qsub16
  83:C:\Users\Depes Crystalline\Desktop\school\Active_Bike_Lighting_System\Radar_Core/Libraries/CMSIS/Include\core_cmSimd.h **** #define __SHSUB16                         __shsub16
  84:C:\Users\Depes Crystalline\Desktop\school\Active_Bike_Lighting_System\Radar_Core/Libraries/CMSIS/Include\core_cmSimd.h **** #define __USUB16                          __usub16
  85:C:\Users\Depes Crystalline\Desktop\school\Active_Bike_Lighting_System\Radar_Core/Libraries/CMSIS/Include\core_cmSimd.h **** #define __UQSUB16                         __uqsub16
  86:C:\Users\Depes Crystalline\Desktop\school\Active_Bike_Lighting_System\Radar_Core/Libraries/CMSIS/Include\core_cmSimd.h **** #define __UHSUB16                         __uhsub16
  87:C:\Users\Depes Crystalline\Desktop\school\Active_Bike_Lighting_System\Radar_Core/Libraries/CMSIS/Include\core_cmSimd.h **** #define __SASX                            __sasx
  88:C:\Users\Depes Crystalline\Desktop\school\Active_Bike_Lighting_System\Radar_Core/Libraries/CMSIS/Include\core_cmSimd.h **** #define __QASX                            __qasx
  89:C:\Users\Depes Crystalline\Desktop\school\Active_Bike_Lighting_System\Radar_Core/Libraries/CMSIS/Include\core_cmSimd.h **** #define __SHASX                           __shasx
  90:C:\Users\Depes Crystalline\Desktop\school\Active_Bike_Lighting_System\Radar_Core/Libraries/CMSIS/Include\core_cmSimd.h **** #define __UASX                            __uasx
  91:C:\Users\Depes Crystalline\Desktop\school\Active_Bike_Lighting_System\Radar_Core/Libraries/CMSIS/Include\core_cmSimd.h **** #define __UQASX                           __uqasx
  92:C:\Users\Depes Crystalline\Desktop\school\Active_Bike_Lighting_System\Radar_Core/Libraries/CMSIS/Include\core_cmSimd.h **** #define __UHASX                           __uhasx
  93:C:\Users\Depes Crystalline\Desktop\school\Active_Bike_Lighting_System\Radar_Core/Libraries/CMSIS/Include\core_cmSimd.h **** #define __SSAX                            __ssax
  94:C:\Users\Depes Crystalline\Desktop\school\Active_Bike_Lighting_System\Radar_Core/Libraries/CMSIS/Include\core_cmSimd.h **** #define __QSAX                            __qsax
  95:C:\Users\Depes Crystalline\Desktop\school\Active_Bike_Lighting_System\Radar_Core/Libraries/CMSIS/Include\core_cmSimd.h **** #define __SHSAX                           __shsax
  96:C:\Users\Depes Crystalline\Desktop\school\Active_Bike_Lighting_System\Radar_Core/Libraries/CMSIS/Include\core_cmSimd.h **** #define __USAX                            __usax
  97:C:\Users\Depes Crystalline\Desktop\school\Active_Bike_Lighting_System\Radar_Core/Libraries/CMSIS/Include\core_cmSimd.h **** #define __UQSAX                           __uqsax
  98:C:\Users\Depes Crystalline\Desktop\school\Active_Bike_Lighting_System\Radar_Core/Libraries/CMSIS/Include\core_cmSimd.h **** #define __UHSAX                           __uhsax
  99:C:\Users\Depes Crystalline\Desktop\school\Active_Bike_Lighting_System\Radar_Core/Libraries/CMSIS/Include\core_cmSimd.h **** #define __USAD8                           __usad8
 100:C:\Users\Depes Crystalline\Desktop\school\Active_Bike_Lighting_System\Radar_Core/Libraries/CMSIS/Include\core_cmSimd.h **** #define __USADA8                          __usada8
 101:C:\Users\Depes Crystalline\Desktop\school\Active_Bike_Lighting_System\Radar_Core/Libraries/CMSIS/Include\core_cmSimd.h **** #define __SSAT16                          __ssat16
 102:C:\Users\Depes Crystalline\Desktop\school\Active_Bike_Lighting_System\Radar_Core/Libraries/CMSIS/Include\core_cmSimd.h **** #define __USAT16                          __usat16
 103:C:\Users\Depes Crystalline\Desktop\school\Active_Bike_Lighting_System\Radar_Core/Libraries/CMSIS/Include\core_cmSimd.h **** #define __UXTB16                          __uxtb16
 104:C:\Users\Depes Crystalline\Desktop\school\Active_Bike_Lighting_System\Radar_Core/Libraries/CMSIS/Include\core_cmSimd.h **** #define __UXTAB16                         __uxtab16
 105:C:\Users\Depes Crystalline\Desktop\school\Active_Bike_Lighting_System\Radar_Core/Libraries/CMSIS/Include\core_cmSimd.h **** #define __SXTB16                          __sxtb16
 106:C:\Users\Depes Crystalline\Desktop\school\Active_Bike_Lighting_System\Radar_Core/Libraries/CMSIS/Include\core_cmSimd.h **** #define __SXTAB16                         __sxtab16
 107:C:\Users\Depes Crystalline\Desktop\school\Active_Bike_Lighting_System\Radar_Core/Libraries/CMSIS/Include\core_cmSimd.h **** #define __SMUAD                           __smuad
 108:C:\Users\Depes Crystalline\Desktop\school\Active_Bike_Lighting_System\Radar_Core/Libraries/CMSIS/Include\core_cmSimd.h **** #define __SMUADX                          __smuadx
 109:C:\Users\Depes Crystalline\Desktop\school\Active_Bike_Lighting_System\Radar_Core/Libraries/CMSIS/Include\core_cmSimd.h **** #define __SMLAD                           __smlad
 110:C:\Users\Depes Crystalline\Desktop\school\Active_Bike_Lighting_System\Radar_Core/Libraries/CMSIS/Include\core_cmSimd.h **** #define __SMLADX                          __smladx
 111:C:\Users\Depes Crystalline\Desktop\school\Active_Bike_Lighting_System\Radar_Core/Libraries/CMSIS/Include\core_cmSimd.h **** #define __SMLALD                          __smlald
 112:C:\Users\Depes Crystalline\Desktop\school\Active_Bike_Lighting_System\Radar_Core/Libraries/CMSIS/Include\core_cmSimd.h **** #define __SMLALDX                         __smlaldx
 113:C:\Users\Depes Crystalline\Desktop\school\Active_Bike_Lighting_System\Radar_Core/Libraries/CMSIS/Include\core_cmSimd.h **** #define __SMUSD                           __smusd
 114:C:\Users\Depes Crystalline\Desktop\school\Active_Bike_Lighting_System\Radar_Core/Libraries/CMSIS/Include\core_cmSimd.h **** #define __SMUSDX                          __smusdx
 115:C:\Users\Depes Crystalline\Desktop\school\Active_Bike_Lighting_System\Radar_Core/Libraries/CMSIS/Include\core_cmSimd.h **** #define __SMLSD                           __smlsd
 116:C:\Users\Depes Crystalline\Desktop\school\Active_Bike_Lighting_System\Radar_Core/Libraries/CMSIS/Include\core_cmSimd.h **** #define __SMLSDX                          __smlsdx
 117:C:\Users\Depes Crystalline\Desktop\school\Active_Bike_Lighting_System\Radar_Core/Libraries/CMSIS/Include\core_cmSimd.h **** #define __SMLSLD                          __smlsld
 118:C:\Users\Depes Crystalline\Desktop\school\Active_Bike_Lighting_System\Radar_Core/Libraries/CMSIS/Include\core_cmSimd.h **** #define __SMLSLDX                         __smlsldx
 119:C:\Users\Depes Crystalline\Desktop\school\Active_Bike_Lighting_System\Radar_Core/Libraries/CMSIS/Include\core_cmSimd.h **** #define __SEL                             __sel
 120:C:\Users\Depes Crystalline\Desktop\school\Active_Bike_Lighting_System\Radar_Core/Libraries/CMSIS/Include\core_cmSimd.h **** #define __QADD                            __qadd
 121:C:\Users\Depes Crystalline\Desktop\school\Active_Bike_Lighting_System\Radar_Core/Libraries/CMSIS/Include\core_cmSimd.h **** #define __QSUB                            __qsub
 122:C:\Users\Depes Crystalline\Desktop\school\Active_Bike_Lighting_System\Radar_Core/Libraries/CMSIS/Include\core_cmSimd.h **** 
 123:C:\Users\Depes Crystalline\Desktop\school\Active_Bike_Lighting_System\Radar_Core/Libraries/CMSIS/Include\core_cmSimd.h **** #define __PKHBT(ARG1,ARG2,ARG3)          ( ((((uint32_t)(ARG1))          ) & 0x0000FFFFUL) |  \
 124:C:\Users\Depes Crystalline\Desktop\school\Active_Bike_Lighting_System\Radar_Core/Libraries/CMSIS/Include\core_cmSimd.h ****                                            ((((uint32_t)(ARG2)) << (ARG3)) & 0xFFFF0000UL)  )
 125:C:\Users\Depes Crystalline\Desktop\school\Active_Bike_Lighting_System\Radar_Core/Libraries/CMSIS/Include\core_cmSimd.h **** 
 126:C:\Users\Depes Crystalline\Desktop\school\Active_Bike_Lighting_System\Radar_Core/Libraries/CMSIS/Include\core_cmSimd.h **** #define __PKHTB(ARG1,ARG2,ARG3)          ( ((((uint32_t)(ARG1))          ) & 0xFFFF0000UL) |  \
 127:C:\Users\Depes Crystalline\Desktop\school\Active_Bike_Lighting_System\Radar_Core/Libraries/CMSIS/Include\core_cmSimd.h ****                                            ((((uint32_t)(ARG2)) >> (ARG3)) & 0x0000FFFFUL)  )
 128:C:\Users\Depes Crystalline\Desktop\school\Active_Bike_Lighting_System\Radar_Core/Libraries/CMSIS/Include\core_cmSimd.h **** 
 129:C:\Users\Depes Crystalline\Desktop\school\Active_Bike_Lighting_System\Radar_Core/Libraries/CMSIS/Include\core_cmSimd.h **** #define __SMMLA(ARG1,ARG2,ARG3)          ( (int32_t)((((int64_t)(ARG1) * (ARG2)) + \
 130:C:\Users\Depes Crystalline\Desktop\school\Active_Bike_Lighting_System\Radar_Core/Libraries/CMSIS/Include\core_cmSimd.h ****                                                       ((int64_t)(ARG3) << 32)      ) >> 32))
 131:C:\Users\Depes Crystalline\Desktop\school\Active_Bike_Lighting_System\Radar_Core/Libraries/CMSIS/Include\core_cmSimd.h **** 
 132:C:\Users\Depes Crystalline\Desktop\school\Active_Bike_Lighting_System\Radar_Core/Libraries/CMSIS/Include\core_cmSimd.h **** 
 133:C:\Users\Depes Crystalline\Desktop\school\Active_Bike_Lighting_System\Radar_Core/Libraries/CMSIS/Include\core_cmSimd.h **** #elif defined ( __GNUC__ ) /*------------------ GNU Compiler ---------------------*/
 134:C:\Users\Depes Crystalline\Desktop\school\Active_Bike_Lighting_System\Radar_Core/Libraries/CMSIS/Include\core_cmSimd.h **** /* GNU gcc specific functions */
 135:C:\Users\Depes Crystalline\Desktop\school\Active_Bike_Lighting_System\Radar_Core/Libraries/CMSIS/Include\core_cmSimd.h **** __attribute__( ( always_inline ) ) __STATIC_INLINE uint32_t __SADD8(uint32_t op1, uint32_t op2)
 136:C:\Users\Depes Crystalline\Desktop\school\Active_Bike_Lighting_System\Radar_Core/Libraries/CMSIS/Include\core_cmSimd.h **** {
 137:C:\Users\Depes Crystalline\Desktop\school\Active_Bike_Lighting_System\Radar_Core/Libraries/CMSIS/Include\core_cmSimd.h ****   uint32_t result;
 138:C:\Users\Depes Crystalline\Desktop\school\Active_Bike_Lighting_System\Radar_Core/Libraries/CMSIS/Include\core_cmSimd.h **** 
 139:C:\Users\Depes Crystalline\Desktop\school\Active_Bike_Lighting_System\Radar_Core/Libraries/CMSIS/Include\core_cmSimd.h ****   __ASM volatile ("sadd8 %0, %1, %2" : "=r" (result) : "r" (op1), "r" (op2) );
 140:C:\Users\Depes Crystalline\Desktop\school\Active_Bike_Lighting_System\Radar_Core/Libraries/CMSIS/Include\core_cmSimd.h ****   return(result);
 141:C:\Users\Depes Crystalline\Desktop\school\Active_Bike_Lighting_System\Radar_Core/Libraries/CMSIS/Include\core_cmSimd.h **** }
 142:C:\Users\Depes Crystalline\Desktop\school\Active_Bike_Lighting_System\Radar_Core/Libraries/CMSIS/Include\core_cmSimd.h **** 
 143:C:\Users\Depes Crystalline\Desktop\school\Active_Bike_Lighting_System\Radar_Core/Libraries/CMSIS/Include\core_cmSimd.h **** __attribute__( ( always_inline ) ) __STATIC_INLINE uint32_t __QADD8(uint32_t op1, uint32_t op2)
 144:C:\Users\Depes Crystalline\Desktop\school\Active_Bike_Lighting_System\Radar_Core/Libraries/CMSIS/Include\core_cmSimd.h **** {
 145:C:\Users\Depes Crystalline\Desktop\school\Active_Bike_Lighting_System\Radar_Core/Libraries/CMSIS/Include\core_cmSimd.h ****   uint32_t result;
 146:C:\Users\Depes Crystalline\Desktop\school\Active_Bike_Lighting_System\Radar_Core/Libraries/CMSIS/Include\core_cmSimd.h **** 
 147:C:\Users\Depes Crystalline\Desktop\school\Active_Bike_Lighting_System\Radar_Core/Libraries/CMSIS/Include\core_cmSimd.h ****   __ASM volatile ("qadd8 %0, %1, %2" : "=r" (result) : "r" (op1), "r" (op2) );
 148:C:\Users\Depes Crystalline\Desktop\school\Active_Bike_Lighting_System\Radar_Core/Libraries/CMSIS/Include\core_cmSimd.h ****   return(result);
 149:C:\Users\Depes Crystalline\Desktop\school\Active_Bike_Lighting_System\Radar_Core/Libraries/CMSIS/Include\core_cmSimd.h **** }
 150:C:\Users\Depes Crystalline\Desktop\school\Active_Bike_Lighting_System\Radar_Core/Libraries/CMSIS/Include\core_cmSimd.h **** 
 151:C:\Users\Depes Crystalline\Desktop\school\Active_Bike_Lighting_System\Radar_Core/Libraries/CMSIS/Include\core_cmSimd.h **** __attribute__( ( always_inline ) ) __STATIC_INLINE uint32_t __SHADD8(uint32_t op1, uint32_t op2)
 152:C:\Users\Depes Crystalline\Desktop\school\Active_Bike_Lighting_System\Radar_Core/Libraries/CMSIS/Include\core_cmSimd.h **** {
 153:C:\Users\Depes Crystalline\Desktop\school\Active_Bike_Lighting_System\Radar_Core/Libraries/CMSIS/Include\core_cmSimd.h ****   uint32_t result;
 154:C:\Users\Depes Crystalline\Desktop\school\Active_Bike_Lighting_System\Radar_Core/Libraries/CMSIS/Include\core_cmSimd.h **** 
 155:C:\Users\Depes Crystalline\Desktop\school\Active_Bike_Lighting_System\Radar_Core/Libraries/CMSIS/Include\core_cmSimd.h ****   __ASM volatile ("shadd8 %0, %1, %2" : "=r" (result) : "r" (op1), "r" (op2) );
 156:C:\Users\Depes Crystalline\Desktop\school\Active_Bike_Lighting_System\Radar_Core/Libraries/CMSIS/Include\core_cmSimd.h ****   return(result);
 157:C:\Users\Depes Crystalline\Desktop\school\Active_Bike_Lighting_System\Radar_Core/Libraries/CMSIS/Include\core_cmSimd.h **** }
 158:C:\Users\Depes Crystalline\Desktop\school\Active_Bike_Lighting_System\Radar_Core/Libraries/CMSIS/Include\core_cmSimd.h **** 
 159:C:\Users\Depes Crystalline\Desktop\school\Active_Bike_Lighting_System\Radar_Core/Libraries/CMSIS/Include\core_cmSimd.h **** __attribute__( ( always_inline ) ) __STATIC_INLINE uint32_t __UADD8(uint32_t op1, uint32_t op2)
 160:C:\Users\Depes Crystalline\Desktop\school\Active_Bike_Lighting_System\Radar_Core/Libraries/CMSIS/Include\core_cmSimd.h **** {
 161:C:\Users\Depes Crystalline\Desktop\school\Active_Bike_Lighting_System\Radar_Core/Libraries/CMSIS/Include\core_cmSimd.h ****   uint32_t result;
 162:C:\Users\Depes Crystalline\Desktop\school\Active_Bike_Lighting_System\Radar_Core/Libraries/CMSIS/Include\core_cmSimd.h **** 
 163:C:\Users\Depes Crystalline\Desktop\school\Active_Bike_Lighting_System\Radar_Core/Libraries/CMSIS/Include\core_cmSimd.h ****   __ASM volatile ("uadd8 %0, %1, %2" : "=r" (result) : "r" (op1), "r" (op2) );
 164:C:\Users\Depes Crystalline\Desktop\school\Active_Bike_Lighting_System\Radar_Core/Libraries/CMSIS/Include\core_cmSimd.h ****   return(result);
 165:C:\Users\Depes Crystalline\Desktop\school\Active_Bike_Lighting_System\Radar_Core/Libraries/CMSIS/Include\core_cmSimd.h **** }
 166:C:\Users\Depes Crystalline\Desktop\school\Active_Bike_Lighting_System\Radar_Core/Libraries/CMSIS/Include\core_cmSimd.h **** 
 167:C:\Users\Depes Crystalline\Desktop\school\Active_Bike_Lighting_System\Radar_Core/Libraries/CMSIS/Include\core_cmSimd.h **** __attribute__( ( always_inline ) ) __STATIC_INLINE uint32_t __UQADD8(uint32_t op1, uint32_t op2)
 168:C:\Users\Depes Crystalline\Desktop\school\Active_Bike_Lighting_System\Radar_Core/Libraries/CMSIS/Include\core_cmSimd.h **** {
 169:C:\Users\Depes Crystalline\Desktop\school\Active_Bike_Lighting_System\Radar_Core/Libraries/CMSIS/Include\core_cmSimd.h ****   uint32_t result;
 170:C:\Users\Depes Crystalline\Desktop\school\Active_Bike_Lighting_System\Radar_Core/Libraries/CMSIS/Include\core_cmSimd.h **** 
 171:C:\Users\Depes Crystalline\Desktop\school\Active_Bike_Lighting_System\Radar_Core/Libraries/CMSIS/Include\core_cmSimd.h ****   __ASM volatile ("uqadd8 %0, %1, %2" : "=r" (result) : "r" (op1), "r" (op2) );
 172:C:\Users\Depes Crystalline\Desktop\school\Active_Bike_Lighting_System\Radar_Core/Libraries/CMSIS/Include\core_cmSimd.h ****   return(result);
 173:C:\Users\Depes Crystalline\Desktop\school\Active_Bike_Lighting_System\Radar_Core/Libraries/CMSIS/Include\core_cmSimd.h **** }
 174:C:\Users\Depes Crystalline\Desktop\school\Active_Bike_Lighting_System\Radar_Core/Libraries/CMSIS/Include\core_cmSimd.h **** 
 175:C:\Users\Depes Crystalline\Desktop\school\Active_Bike_Lighting_System\Radar_Core/Libraries/CMSIS/Include\core_cmSimd.h **** __attribute__( ( always_inline ) ) __STATIC_INLINE uint32_t __UHADD8(uint32_t op1, uint32_t op2)
 176:C:\Users\Depes Crystalline\Desktop\school\Active_Bike_Lighting_System\Radar_Core/Libraries/CMSIS/Include\core_cmSimd.h **** {
 177:C:\Users\Depes Crystalline\Desktop\school\Active_Bike_Lighting_System\Radar_Core/Libraries/CMSIS/Include\core_cmSimd.h ****   uint32_t result;
 178:C:\Users\Depes Crystalline\Desktop\school\Active_Bike_Lighting_System\Radar_Core/Libraries/CMSIS/Include\core_cmSimd.h **** 
 179:C:\Users\Depes Crystalline\Desktop\school\Active_Bike_Lighting_System\Radar_Core/Libraries/CMSIS/Include\core_cmSimd.h ****   __ASM volatile ("uhadd8 %0, %1, %2" : "=r" (result) : "r" (op1), "r" (op2) );
 180:C:\Users\Depes Crystalline\Desktop\school\Active_Bike_Lighting_System\Radar_Core/Libraries/CMSIS/Include\core_cmSimd.h ****   return(result);
 181:C:\Users\Depes Crystalline\Desktop\school\Active_Bike_Lighting_System\Radar_Core/Libraries/CMSIS/Include\core_cmSimd.h **** }
 182:C:\Users\Depes Crystalline\Desktop\school\Active_Bike_Lighting_System\Radar_Core/Libraries/CMSIS/Include\core_cmSimd.h **** 
 183:C:\Users\Depes Crystalline\Desktop\school\Active_Bike_Lighting_System\Radar_Core/Libraries/CMSIS/Include\core_cmSimd.h **** 
 184:C:\Users\Depes Crystalline\Desktop\school\Active_Bike_Lighting_System\Radar_Core/Libraries/CMSIS/Include\core_cmSimd.h **** __attribute__( ( always_inline ) ) __STATIC_INLINE uint32_t __SSUB8(uint32_t op1, uint32_t op2)
 185:C:\Users\Depes Crystalline\Desktop\school\Active_Bike_Lighting_System\Radar_Core/Libraries/CMSIS/Include\core_cmSimd.h **** {
 186:C:\Users\Depes Crystalline\Desktop\school\Active_Bike_Lighting_System\Radar_Core/Libraries/CMSIS/Include\core_cmSimd.h ****   uint32_t result;
 187:C:\Users\Depes Crystalline\Desktop\school\Active_Bike_Lighting_System\Radar_Core/Libraries/CMSIS/Include\core_cmSimd.h **** 
 188:C:\Users\Depes Crystalline\Desktop\school\Active_Bike_Lighting_System\Radar_Core/Libraries/CMSIS/Include\core_cmSimd.h ****   __ASM volatile ("ssub8 %0, %1, %2" : "=r" (result) : "r" (op1), "r" (op2) );
 189:C:\Users\Depes Crystalline\Desktop\school\Active_Bike_Lighting_System\Radar_Core/Libraries/CMSIS/Include\core_cmSimd.h ****   return(result);
 190:C:\Users\Depes Crystalline\Desktop\school\Active_Bike_Lighting_System\Radar_Core/Libraries/CMSIS/Include\core_cmSimd.h **** }
 191:C:\Users\Depes Crystalline\Desktop\school\Active_Bike_Lighting_System\Radar_Core/Libraries/CMSIS/Include\core_cmSimd.h **** 
 192:C:\Users\Depes Crystalline\Desktop\school\Active_Bike_Lighting_System\Radar_Core/Libraries/CMSIS/Include\core_cmSimd.h **** __attribute__( ( always_inline ) ) __STATIC_INLINE uint32_t __QSUB8(uint32_t op1, uint32_t op2)
 193:C:\Users\Depes Crystalline\Desktop\school\Active_Bike_Lighting_System\Radar_Core/Libraries/CMSIS/Include\core_cmSimd.h **** {
 194:C:\Users\Depes Crystalline\Desktop\school\Active_Bike_Lighting_System\Radar_Core/Libraries/CMSIS/Include\core_cmSimd.h ****   uint32_t result;
 195:C:\Users\Depes Crystalline\Desktop\school\Active_Bike_Lighting_System\Radar_Core/Libraries/CMSIS/Include\core_cmSimd.h **** 
 196:C:\Users\Depes Crystalline\Desktop\school\Active_Bike_Lighting_System\Radar_Core/Libraries/CMSIS/Include\core_cmSimd.h ****   __ASM volatile ("qsub8 %0, %1, %2" : "=r" (result) : "r" (op1), "r" (op2) );
 197:C:\Users\Depes Crystalline\Desktop\school\Active_Bike_Lighting_System\Radar_Core/Libraries/CMSIS/Include\core_cmSimd.h ****   return(result);
 198:C:\Users\Depes Crystalline\Desktop\school\Active_Bike_Lighting_System\Radar_Core/Libraries/CMSIS/Include\core_cmSimd.h **** }
 199:C:\Users\Depes Crystalline\Desktop\school\Active_Bike_Lighting_System\Radar_Core/Libraries/CMSIS/Include\core_cmSimd.h **** 
 200:C:\Users\Depes Crystalline\Desktop\school\Active_Bike_Lighting_System\Radar_Core/Libraries/CMSIS/Include\core_cmSimd.h **** __attribute__( ( always_inline ) ) __STATIC_INLINE uint32_t __SHSUB8(uint32_t op1, uint32_t op2)
 201:C:\Users\Depes Crystalline\Desktop\school\Active_Bike_Lighting_System\Radar_Core/Libraries/CMSIS/Include\core_cmSimd.h **** {
 202:C:\Users\Depes Crystalline\Desktop\school\Active_Bike_Lighting_System\Radar_Core/Libraries/CMSIS/Include\core_cmSimd.h ****   uint32_t result;
 203:C:\Users\Depes Crystalline\Desktop\school\Active_Bike_Lighting_System\Radar_Core/Libraries/CMSIS/Include\core_cmSimd.h **** 
 204:C:\Users\Depes Crystalline\Desktop\school\Active_Bike_Lighting_System\Radar_Core/Libraries/CMSIS/Include\core_cmSimd.h ****   __ASM volatile ("shsub8 %0, %1, %2" : "=r" (result) : "r" (op1), "r" (op2) );
 205:C:\Users\Depes Crystalline\Desktop\school\Active_Bike_Lighting_System\Radar_Core/Libraries/CMSIS/Include\core_cmSimd.h ****   return(result);
 206:C:\Users\Depes Crystalline\Desktop\school\Active_Bike_Lighting_System\Radar_Core/Libraries/CMSIS/Include\core_cmSimd.h **** }
 207:C:\Users\Depes Crystalline\Desktop\school\Active_Bike_Lighting_System\Radar_Core/Libraries/CMSIS/Include\core_cmSimd.h **** 
 208:C:\Users\Depes Crystalline\Desktop\school\Active_Bike_Lighting_System\Radar_Core/Libraries/CMSIS/Include\core_cmSimd.h **** __attribute__( ( always_inline ) ) __STATIC_INLINE uint32_t __USUB8(uint32_t op1, uint32_t op2)
 209:C:\Users\Depes Crystalline\Desktop\school\Active_Bike_Lighting_System\Radar_Core/Libraries/CMSIS/Include\core_cmSimd.h **** {
 210:C:\Users\Depes Crystalline\Desktop\school\Active_Bike_Lighting_System\Radar_Core/Libraries/CMSIS/Include\core_cmSimd.h ****   uint32_t result;
 211:C:\Users\Depes Crystalline\Desktop\school\Active_Bike_Lighting_System\Radar_Core/Libraries/CMSIS/Include\core_cmSimd.h **** 
 212:C:\Users\Depes Crystalline\Desktop\school\Active_Bike_Lighting_System\Radar_Core/Libraries/CMSIS/Include\core_cmSimd.h ****   __ASM volatile ("usub8 %0, %1, %2" : "=r" (result) : "r" (op1), "r" (op2) );
 213:C:\Users\Depes Crystalline\Desktop\school\Active_Bike_Lighting_System\Radar_Core/Libraries/CMSIS/Include\core_cmSimd.h ****   return(result);
 214:C:\Users\Depes Crystalline\Desktop\school\Active_Bike_Lighting_System\Radar_Core/Libraries/CMSIS/Include\core_cmSimd.h **** }
 215:C:\Users\Depes Crystalline\Desktop\school\Active_Bike_Lighting_System\Radar_Core/Libraries/CMSIS/Include\core_cmSimd.h **** 
 216:C:\Users\Depes Crystalline\Desktop\school\Active_Bike_Lighting_System\Radar_Core/Libraries/CMSIS/Include\core_cmSimd.h **** __attribute__( ( always_inline ) ) __STATIC_INLINE uint32_t __UQSUB8(uint32_t op1, uint32_t op2)
 217:C:\Users\Depes Crystalline\Desktop\school\Active_Bike_Lighting_System\Radar_Core/Libraries/CMSIS/Include\core_cmSimd.h **** {
 218:C:\Users\Depes Crystalline\Desktop\school\Active_Bike_Lighting_System\Radar_Core/Libraries/CMSIS/Include\core_cmSimd.h ****   uint32_t result;
 219:C:\Users\Depes Crystalline\Desktop\school\Active_Bike_Lighting_System\Radar_Core/Libraries/CMSIS/Include\core_cmSimd.h **** 
 220:C:\Users\Depes Crystalline\Desktop\school\Active_Bike_Lighting_System\Radar_Core/Libraries/CMSIS/Include\core_cmSimd.h ****   __ASM volatile ("uqsub8 %0, %1, %2" : "=r" (result) : "r" (op1), "r" (op2) );
 221:C:\Users\Depes Crystalline\Desktop\school\Active_Bike_Lighting_System\Radar_Core/Libraries/CMSIS/Include\core_cmSimd.h ****   return(result);
 222:C:\Users\Depes Crystalline\Desktop\school\Active_Bike_Lighting_System\Radar_Core/Libraries/CMSIS/Include\core_cmSimd.h **** }
 223:C:\Users\Depes Crystalline\Desktop\school\Active_Bike_Lighting_System\Radar_Core/Libraries/CMSIS/Include\core_cmSimd.h **** 
 224:C:\Users\Depes Crystalline\Desktop\school\Active_Bike_Lighting_System\Radar_Core/Libraries/CMSIS/Include\core_cmSimd.h **** __attribute__( ( always_inline ) ) __STATIC_INLINE uint32_t __UHSUB8(uint32_t op1, uint32_t op2)
 225:C:\Users\Depes Crystalline\Desktop\school\Active_Bike_Lighting_System\Radar_Core/Libraries/CMSIS/Include\core_cmSimd.h **** {
 226:C:\Users\Depes Crystalline\Desktop\school\Active_Bike_Lighting_System\Radar_Core/Libraries/CMSIS/Include\core_cmSimd.h ****   uint32_t result;
 227:C:\Users\Depes Crystalline\Desktop\school\Active_Bike_Lighting_System\Radar_Core/Libraries/CMSIS/Include\core_cmSimd.h **** 
 228:C:\Users\Depes Crystalline\Desktop\school\Active_Bike_Lighting_System\Radar_Core/Libraries/CMSIS/Include\core_cmSimd.h ****   __ASM volatile ("uhsub8 %0, %1, %2" : "=r" (result) : "r" (op1), "r" (op2) );
 229:C:\Users\Depes Crystalline\Desktop\school\Active_Bike_Lighting_System\Radar_Core/Libraries/CMSIS/Include\core_cmSimd.h ****   return(result);
 230:C:\Users\Depes Crystalline\Desktop\school\Active_Bike_Lighting_System\Radar_Core/Libraries/CMSIS/Include\core_cmSimd.h **** }
 231:C:\Users\Depes Crystalline\Desktop\school\Active_Bike_Lighting_System\Radar_Core/Libraries/CMSIS/Include\core_cmSimd.h **** 
 232:C:\Users\Depes Crystalline\Desktop\school\Active_Bike_Lighting_System\Radar_Core/Libraries/CMSIS/Include\core_cmSimd.h **** 
 233:C:\Users\Depes Crystalline\Desktop\school\Active_Bike_Lighting_System\Radar_Core/Libraries/CMSIS/Include\core_cmSimd.h **** __attribute__( ( always_inline ) ) __STATIC_INLINE uint32_t __SADD16(uint32_t op1, uint32_t op2)
 234:C:\Users\Depes Crystalline\Desktop\school\Active_Bike_Lighting_System\Radar_Core/Libraries/CMSIS/Include\core_cmSimd.h **** {
 235:C:\Users\Depes Crystalline\Desktop\school\Active_Bike_Lighting_System\Radar_Core/Libraries/CMSIS/Include\core_cmSimd.h ****   uint32_t result;
 236:C:\Users\Depes Crystalline\Desktop\school\Active_Bike_Lighting_System\Radar_Core/Libraries/CMSIS/Include\core_cmSimd.h **** 
 237:C:\Users\Depes Crystalline\Desktop\school\Active_Bike_Lighting_System\Radar_Core/Libraries/CMSIS/Include\core_cmSimd.h ****   __ASM volatile ("sadd16 %0, %1, %2" : "=r" (result) : "r" (op1), "r" (op2) );
 238:C:\Users\Depes Crystalline\Desktop\school\Active_Bike_Lighting_System\Radar_Core/Libraries/CMSIS/Include\core_cmSimd.h ****   return(result);
 239:C:\Users\Depes Crystalline\Desktop\school\Active_Bike_Lighting_System\Radar_Core/Libraries/CMSIS/Include\core_cmSimd.h **** }
 240:C:\Users\Depes Crystalline\Desktop\school\Active_Bike_Lighting_System\Radar_Core/Libraries/CMSIS/Include\core_cmSimd.h **** 
 241:C:\Users\Depes Crystalline\Desktop\school\Active_Bike_Lighting_System\Radar_Core/Libraries/CMSIS/Include\core_cmSimd.h **** __attribute__( ( always_inline ) ) __STATIC_INLINE uint32_t __QADD16(uint32_t op1, uint32_t op2)
 242:C:\Users\Depes Crystalline\Desktop\school\Active_Bike_Lighting_System\Radar_Core/Libraries/CMSIS/Include\core_cmSimd.h **** {
 243:C:\Users\Depes Crystalline\Desktop\school\Active_Bike_Lighting_System\Radar_Core/Libraries/CMSIS/Include\core_cmSimd.h ****   uint32_t result;
 244:C:\Users\Depes Crystalline\Desktop\school\Active_Bike_Lighting_System\Radar_Core/Libraries/CMSIS/Include\core_cmSimd.h **** 
 245:C:\Users\Depes Crystalline\Desktop\school\Active_Bike_Lighting_System\Radar_Core/Libraries/CMSIS/Include\core_cmSimd.h ****   __ASM volatile ("qadd16 %0, %1, %2" : "=r" (result) : "r" (op1), "r" (op2) );
 246:C:\Users\Depes Crystalline\Desktop\school\Active_Bike_Lighting_System\Radar_Core/Libraries/CMSIS/Include\core_cmSimd.h ****   return(result);
 247:C:\Users\Depes Crystalline\Desktop\school\Active_Bike_Lighting_System\Radar_Core/Libraries/CMSIS/Include\core_cmSimd.h **** }
 248:C:\Users\Depes Crystalline\Desktop\school\Active_Bike_Lighting_System\Radar_Core/Libraries/CMSIS/Include\core_cmSimd.h **** 
 249:C:\Users\Depes Crystalline\Desktop\school\Active_Bike_Lighting_System\Radar_Core/Libraries/CMSIS/Include\core_cmSimd.h **** __attribute__( ( always_inline ) ) __STATIC_INLINE uint32_t __SHADD16(uint32_t op1, uint32_t op2)
 250:C:\Users\Depes Crystalline\Desktop\school\Active_Bike_Lighting_System\Radar_Core/Libraries/CMSIS/Include\core_cmSimd.h **** {
 251:C:\Users\Depes Crystalline\Desktop\school\Active_Bike_Lighting_System\Radar_Core/Libraries/CMSIS/Include\core_cmSimd.h ****   uint32_t result;
 252:C:\Users\Depes Crystalline\Desktop\school\Active_Bike_Lighting_System\Radar_Core/Libraries/CMSIS/Include\core_cmSimd.h **** 
 253:C:\Users\Depes Crystalline\Desktop\school\Active_Bike_Lighting_System\Radar_Core/Libraries/CMSIS/Include\core_cmSimd.h ****   __ASM volatile ("shadd16 %0, %1, %2" : "=r" (result) : "r" (op1), "r" (op2) );
 254:C:\Users\Depes Crystalline\Desktop\school\Active_Bike_Lighting_System\Radar_Core/Libraries/CMSIS/Include\core_cmSimd.h ****   return(result);
 255:C:\Users\Depes Crystalline\Desktop\school\Active_Bike_Lighting_System\Radar_Core/Libraries/CMSIS/Include\core_cmSimd.h **** }
 256:C:\Users\Depes Crystalline\Desktop\school\Active_Bike_Lighting_System\Radar_Core/Libraries/CMSIS/Include\core_cmSimd.h **** 
 257:C:\Users\Depes Crystalline\Desktop\school\Active_Bike_Lighting_System\Radar_Core/Libraries/CMSIS/Include\core_cmSimd.h **** __attribute__( ( always_inline ) ) __STATIC_INLINE uint32_t __UADD16(uint32_t op1, uint32_t op2)
 258:C:\Users\Depes Crystalline\Desktop\school\Active_Bike_Lighting_System\Radar_Core/Libraries/CMSIS/Include\core_cmSimd.h **** {
 259:C:\Users\Depes Crystalline\Desktop\school\Active_Bike_Lighting_System\Radar_Core/Libraries/CMSIS/Include\core_cmSimd.h ****   uint32_t result;
 260:C:\Users\Depes Crystalline\Desktop\school\Active_Bike_Lighting_System\Radar_Core/Libraries/CMSIS/Include\core_cmSimd.h **** 
 261:C:\Users\Depes Crystalline\Desktop\school\Active_Bike_Lighting_System\Radar_Core/Libraries/CMSIS/Include\core_cmSimd.h ****   __ASM volatile ("uadd16 %0, %1, %2" : "=r" (result) : "r" (op1), "r" (op2) );
 262:C:\Users\Depes Crystalline\Desktop\school\Active_Bike_Lighting_System\Radar_Core/Libraries/CMSIS/Include\core_cmSimd.h ****   return(result);
 263:C:\Users\Depes Crystalline\Desktop\school\Active_Bike_Lighting_System\Radar_Core/Libraries/CMSIS/Include\core_cmSimd.h **** }
 264:C:\Users\Depes Crystalline\Desktop\school\Active_Bike_Lighting_System\Radar_Core/Libraries/CMSIS/Include\core_cmSimd.h **** 
 265:C:\Users\Depes Crystalline\Desktop\school\Active_Bike_Lighting_System\Radar_Core/Libraries/CMSIS/Include\core_cmSimd.h **** __attribute__( ( always_inline ) ) __STATIC_INLINE uint32_t __UQADD16(uint32_t op1, uint32_t op2)
 266:C:\Users\Depes Crystalline\Desktop\school\Active_Bike_Lighting_System\Radar_Core/Libraries/CMSIS/Include\core_cmSimd.h **** {
 267:C:\Users\Depes Crystalline\Desktop\school\Active_Bike_Lighting_System\Radar_Core/Libraries/CMSIS/Include\core_cmSimd.h ****   uint32_t result;
 268:C:\Users\Depes Crystalline\Desktop\school\Active_Bike_Lighting_System\Radar_Core/Libraries/CMSIS/Include\core_cmSimd.h **** 
 269:C:\Users\Depes Crystalline\Desktop\school\Active_Bike_Lighting_System\Radar_Core/Libraries/CMSIS/Include\core_cmSimd.h ****   __ASM volatile ("uqadd16 %0, %1, %2" : "=r" (result) : "r" (op1), "r" (op2) );
 270:C:\Users\Depes Crystalline\Desktop\school\Active_Bike_Lighting_System\Radar_Core/Libraries/CMSIS/Include\core_cmSimd.h ****   return(result);
 271:C:\Users\Depes Crystalline\Desktop\school\Active_Bike_Lighting_System\Radar_Core/Libraries/CMSIS/Include\core_cmSimd.h **** }
 272:C:\Users\Depes Crystalline\Desktop\school\Active_Bike_Lighting_System\Radar_Core/Libraries/CMSIS/Include\core_cmSimd.h **** 
 273:C:\Users\Depes Crystalline\Desktop\school\Active_Bike_Lighting_System\Radar_Core/Libraries/CMSIS/Include\core_cmSimd.h **** __attribute__( ( always_inline ) ) __STATIC_INLINE uint32_t __UHADD16(uint32_t op1, uint32_t op2)
 274:C:\Users\Depes Crystalline\Desktop\school\Active_Bike_Lighting_System\Radar_Core/Libraries/CMSIS/Include\core_cmSimd.h **** {
 275:C:\Users\Depes Crystalline\Desktop\school\Active_Bike_Lighting_System\Radar_Core/Libraries/CMSIS/Include\core_cmSimd.h ****   uint32_t result;
 276:C:\Users\Depes Crystalline\Desktop\school\Active_Bike_Lighting_System\Radar_Core/Libraries/CMSIS/Include\core_cmSimd.h **** 
 277:C:\Users\Depes Crystalline\Desktop\school\Active_Bike_Lighting_System\Radar_Core/Libraries/CMSIS/Include\core_cmSimd.h ****   __ASM volatile ("uhadd16 %0, %1, %2" : "=r" (result) : "r" (op1), "r" (op2) );
 278:C:\Users\Depes Crystalline\Desktop\school\Active_Bike_Lighting_System\Radar_Core/Libraries/CMSIS/Include\core_cmSimd.h ****   return(result);
 279:C:\Users\Depes Crystalline\Desktop\school\Active_Bike_Lighting_System\Radar_Core/Libraries/CMSIS/Include\core_cmSimd.h **** }
 280:C:\Users\Depes Crystalline\Desktop\school\Active_Bike_Lighting_System\Radar_Core/Libraries/CMSIS/Include\core_cmSimd.h **** 
 281:C:\Users\Depes Crystalline\Desktop\school\Active_Bike_Lighting_System\Radar_Core/Libraries/CMSIS/Include\core_cmSimd.h **** __attribute__( ( always_inline ) ) __STATIC_INLINE uint32_t __SSUB16(uint32_t op1, uint32_t op2)
 282:C:\Users\Depes Crystalline\Desktop\school\Active_Bike_Lighting_System\Radar_Core/Libraries/CMSIS/Include\core_cmSimd.h **** {
 283:C:\Users\Depes Crystalline\Desktop\school\Active_Bike_Lighting_System\Radar_Core/Libraries/CMSIS/Include\core_cmSimd.h ****   uint32_t result;
 284:C:\Users\Depes Crystalline\Desktop\school\Active_Bike_Lighting_System\Radar_Core/Libraries/CMSIS/Include\core_cmSimd.h **** 
 285:C:\Users\Depes Crystalline\Desktop\school\Active_Bike_Lighting_System\Radar_Core/Libraries/CMSIS/Include\core_cmSimd.h ****   __ASM volatile ("ssub16 %0, %1, %2" : "=r" (result) : "r" (op1), "r" (op2) );
 286:C:\Users\Depes Crystalline\Desktop\school\Active_Bike_Lighting_System\Radar_Core/Libraries/CMSIS/Include\core_cmSimd.h ****   return(result);
 287:C:\Users\Depes Crystalline\Desktop\school\Active_Bike_Lighting_System\Radar_Core/Libraries/CMSIS/Include\core_cmSimd.h **** }
 288:C:\Users\Depes Crystalline\Desktop\school\Active_Bike_Lighting_System\Radar_Core/Libraries/CMSIS/Include\core_cmSimd.h **** 
 289:C:\Users\Depes Crystalline\Desktop\school\Active_Bike_Lighting_System\Radar_Core/Libraries/CMSIS/Include\core_cmSimd.h **** __attribute__( ( always_inline ) ) __STATIC_INLINE uint32_t __QSUB16(uint32_t op1, uint32_t op2)
 290:C:\Users\Depes Crystalline\Desktop\school\Active_Bike_Lighting_System\Radar_Core/Libraries/CMSIS/Include\core_cmSimd.h **** {
 291:C:\Users\Depes Crystalline\Desktop\school\Active_Bike_Lighting_System\Radar_Core/Libraries/CMSIS/Include\core_cmSimd.h ****   uint32_t result;
 292:C:\Users\Depes Crystalline\Desktop\school\Active_Bike_Lighting_System\Radar_Core/Libraries/CMSIS/Include\core_cmSimd.h **** 
 293:C:\Users\Depes Crystalline\Desktop\school\Active_Bike_Lighting_System\Radar_Core/Libraries/CMSIS/Include\core_cmSimd.h ****   __ASM volatile ("qsub16 %0, %1, %2" : "=r" (result) : "r" (op1), "r" (op2) );
 294:C:\Users\Depes Crystalline\Desktop\school\Active_Bike_Lighting_System\Radar_Core/Libraries/CMSIS/Include\core_cmSimd.h ****   return(result);
 295:C:\Users\Depes Crystalline\Desktop\school\Active_Bike_Lighting_System\Radar_Core/Libraries/CMSIS/Include\core_cmSimd.h **** }
 296:C:\Users\Depes Crystalline\Desktop\school\Active_Bike_Lighting_System\Radar_Core/Libraries/CMSIS/Include\core_cmSimd.h **** 
 297:C:\Users\Depes Crystalline\Desktop\school\Active_Bike_Lighting_System\Radar_Core/Libraries/CMSIS/Include\core_cmSimd.h **** __attribute__( ( always_inline ) ) __STATIC_INLINE uint32_t __SHSUB16(uint32_t op1, uint32_t op2)
 298:C:\Users\Depes Crystalline\Desktop\school\Active_Bike_Lighting_System\Radar_Core/Libraries/CMSIS/Include\core_cmSimd.h **** {
 299:C:\Users\Depes Crystalline\Desktop\school\Active_Bike_Lighting_System\Radar_Core/Libraries/CMSIS/Include\core_cmSimd.h ****   uint32_t result;
 300:C:\Users\Depes Crystalline\Desktop\school\Active_Bike_Lighting_System\Radar_Core/Libraries/CMSIS/Include\core_cmSimd.h **** 
 301:C:\Users\Depes Crystalline\Desktop\school\Active_Bike_Lighting_System\Radar_Core/Libraries/CMSIS/Include\core_cmSimd.h ****   __ASM volatile ("shsub16 %0, %1, %2" : "=r" (result) : "r" (op1), "r" (op2) );
 302:C:\Users\Depes Crystalline\Desktop\school\Active_Bike_Lighting_System\Radar_Core/Libraries/CMSIS/Include\core_cmSimd.h ****   return(result);
 303:C:\Users\Depes Crystalline\Desktop\school\Active_Bike_Lighting_System\Radar_Core/Libraries/CMSIS/Include\core_cmSimd.h **** }
 304:C:\Users\Depes Crystalline\Desktop\school\Active_Bike_Lighting_System\Radar_Core/Libraries/CMSIS/Include\core_cmSimd.h **** 
 305:C:\Users\Depes Crystalline\Desktop\school\Active_Bike_Lighting_System\Radar_Core/Libraries/CMSIS/Include\core_cmSimd.h **** __attribute__( ( always_inline ) ) __STATIC_INLINE uint32_t __USUB16(uint32_t op1, uint32_t op2)
 306:C:\Users\Depes Crystalline\Desktop\school\Active_Bike_Lighting_System\Radar_Core/Libraries/CMSIS/Include\core_cmSimd.h **** {
 307:C:\Users\Depes Crystalline\Desktop\school\Active_Bike_Lighting_System\Radar_Core/Libraries/CMSIS/Include\core_cmSimd.h ****   uint32_t result;
 308:C:\Users\Depes Crystalline\Desktop\school\Active_Bike_Lighting_System\Radar_Core/Libraries/CMSIS/Include\core_cmSimd.h **** 
 309:C:\Users\Depes Crystalline\Desktop\school\Active_Bike_Lighting_System\Radar_Core/Libraries/CMSIS/Include\core_cmSimd.h ****   __ASM volatile ("usub16 %0, %1, %2" : "=r" (result) : "r" (op1), "r" (op2) );
 310:C:\Users\Depes Crystalline\Desktop\school\Active_Bike_Lighting_System\Radar_Core/Libraries/CMSIS/Include\core_cmSimd.h ****   return(result);
 311:C:\Users\Depes Crystalline\Desktop\school\Active_Bike_Lighting_System\Radar_Core/Libraries/CMSIS/Include\core_cmSimd.h **** }
 312:C:\Users\Depes Crystalline\Desktop\school\Active_Bike_Lighting_System\Radar_Core/Libraries/CMSIS/Include\core_cmSimd.h **** 
 313:C:\Users\Depes Crystalline\Desktop\school\Active_Bike_Lighting_System\Radar_Core/Libraries/CMSIS/Include\core_cmSimd.h **** __attribute__( ( always_inline ) ) __STATIC_INLINE uint32_t __UQSUB16(uint32_t op1, uint32_t op2)
 314:C:\Users\Depes Crystalline\Desktop\school\Active_Bike_Lighting_System\Radar_Core/Libraries/CMSIS/Include\core_cmSimd.h **** {
 315:C:\Users\Depes Crystalline\Desktop\school\Active_Bike_Lighting_System\Radar_Core/Libraries/CMSIS/Include\core_cmSimd.h ****   uint32_t result;
 316:C:\Users\Depes Crystalline\Desktop\school\Active_Bike_Lighting_System\Radar_Core/Libraries/CMSIS/Include\core_cmSimd.h **** 
 317:C:\Users\Depes Crystalline\Desktop\school\Active_Bike_Lighting_System\Radar_Core/Libraries/CMSIS/Include\core_cmSimd.h ****   __ASM volatile ("uqsub16 %0, %1, %2" : "=r" (result) : "r" (op1), "r" (op2) );
 318:C:\Users\Depes Crystalline\Desktop\school\Active_Bike_Lighting_System\Radar_Core/Libraries/CMSIS/Include\core_cmSimd.h ****   return(result);
 319:C:\Users\Depes Crystalline\Desktop\school\Active_Bike_Lighting_System\Radar_Core/Libraries/CMSIS/Include\core_cmSimd.h **** }
 320:C:\Users\Depes Crystalline\Desktop\school\Active_Bike_Lighting_System\Radar_Core/Libraries/CMSIS/Include\core_cmSimd.h **** 
 321:C:\Users\Depes Crystalline\Desktop\school\Active_Bike_Lighting_System\Radar_Core/Libraries/CMSIS/Include\core_cmSimd.h **** __attribute__( ( always_inline ) ) __STATIC_INLINE uint32_t __UHSUB16(uint32_t op1, uint32_t op2)
 322:C:\Users\Depes Crystalline\Desktop\school\Active_Bike_Lighting_System\Radar_Core/Libraries/CMSIS/Include\core_cmSimd.h **** {
 323:C:\Users\Depes Crystalline\Desktop\school\Active_Bike_Lighting_System\Radar_Core/Libraries/CMSIS/Include\core_cmSimd.h ****   uint32_t result;
 324:C:\Users\Depes Crystalline\Desktop\school\Active_Bike_Lighting_System\Radar_Core/Libraries/CMSIS/Include\core_cmSimd.h **** 
 325:C:\Users\Depes Crystalline\Desktop\school\Active_Bike_Lighting_System\Radar_Core/Libraries/CMSIS/Include\core_cmSimd.h ****   __ASM volatile ("uhsub16 %0, %1, %2" : "=r" (result) : "r" (op1), "r" (op2) );
 326:C:\Users\Depes Crystalline\Desktop\school\Active_Bike_Lighting_System\Radar_Core/Libraries/CMSIS/Include\core_cmSimd.h ****   return(result);
 327:C:\Users\Depes Crystalline\Desktop\school\Active_Bike_Lighting_System\Radar_Core/Libraries/CMSIS/Include\core_cmSimd.h **** }
 328:C:\Users\Depes Crystalline\Desktop\school\Active_Bike_Lighting_System\Radar_Core/Libraries/CMSIS/Include\core_cmSimd.h **** 
 329:C:\Users\Depes Crystalline\Desktop\school\Active_Bike_Lighting_System\Radar_Core/Libraries/CMSIS/Include\core_cmSimd.h **** __attribute__( ( always_inline ) ) __STATIC_INLINE uint32_t __SASX(uint32_t op1, uint32_t op2)
 330:C:\Users\Depes Crystalline\Desktop\school\Active_Bike_Lighting_System\Radar_Core/Libraries/CMSIS/Include\core_cmSimd.h **** {
 331:C:\Users\Depes Crystalline\Desktop\school\Active_Bike_Lighting_System\Radar_Core/Libraries/CMSIS/Include\core_cmSimd.h ****   uint32_t result;
 332:C:\Users\Depes Crystalline\Desktop\school\Active_Bike_Lighting_System\Radar_Core/Libraries/CMSIS/Include\core_cmSimd.h **** 
 333:C:\Users\Depes Crystalline\Desktop\school\Active_Bike_Lighting_System\Radar_Core/Libraries/CMSIS/Include\core_cmSimd.h ****   __ASM volatile ("sasx %0, %1, %2" : "=r" (result) : "r" (op1), "r" (op2) );
 334:C:\Users\Depes Crystalline\Desktop\school\Active_Bike_Lighting_System\Radar_Core/Libraries/CMSIS/Include\core_cmSimd.h ****   return(result);
 335:C:\Users\Depes Crystalline\Desktop\school\Active_Bike_Lighting_System\Radar_Core/Libraries/CMSIS/Include\core_cmSimd.h **** }
 336:C:\Users\Depes Crystalline\Desktop\school\Active_Bike_Lighting_System\Radar_Core/Libraries/CMSIS/Include\core_cmSimd.h **** 
 337:C:\Users\Depes Crystalline\Desktop\school\Active_Bike_Lighting_System\Radar_Core/Libraries/CMSIS/Include\core_cmSimd.h **** __attribute__( ( always_inline ) ) __STATIC_INLINE uint32_t __QASX(uint32_t op1, uint32_t op2)
 338:C:\Users\Depes Crystalline\Desktop\school\Active_Bike_Lighting_System\Radar_Core/Libraries/CMSIS/Include\core_cmSimd.h **** {
 339:C:\Users\Depes Crystalline\Desktop\school\Active_Bike_Lighting_System\Radar_Core/Libraries/CMSIS/Include\core_cmSimd.h ****   uint32_t result;
 340:C:\Users\Depes Crystalline\Desktop\school\Active_Bike_Lighting_System\Radar_Core/Libraries/CMSIS/Include\core_cmSimd.h **** 
 341:C:\Users\Depes Crystalline\Desktop\school\Active_Bike_Lighting_System\Radar_Core/Libraries/CMSIS/Include\core_cmSimd.h ****   __ASM volatile ("qasx %0, %1, %2" : "=r" (result) : "r" (op1), "r" (op2) );
 342:C:\Users\Depes Crystalline\Desktop\school\Active_Bike_Lighting_System\Radar_Core/Libraries/CMSIS/Include\core_cmSimd.h ****   return(result);
 343:C:\Users\Depes Crystalline\Desktop\school\Active_Bike_Lighting_System\Radar_Core/Libraries/CMSIS/Include\core_cmSimd.h **** }
 344:C:\Users\Depes Crystalline\Desktop\school\Active_Bike_Lighting_System\Radar_Core/Libraries/CMSIS/Include\core_cmSimd.h **** 
 345:C:\Users\Depes Crystalline\Desktop\school\Active_Bike_Lighting_System\Radar_Core/Libraries/CMSIS/Include\core_cmSimd.h **** __attribute__( ( always_inline ) ) __STATIC_INLINE uint32_t __SHASX(uint32_t op1, uint32_t op2)
 346:C:\Users\Depes Crystalline\Desktop\school\Active_Bike_Lighting_System\Radar_Core/Libraries/CMSIS/Include\core_cmSimd.h **** {
 347:C:\Users\Depes Crystalline\Desktop\school\Active_Bike_Lighting_System\Radar_Core/Libraries/CMSIS/Include\core_cmSimd.h ****   uint32_t result;
 348:C:\Users\Depes Crystalline\Desktop\school\Active_Bike_Lighting_System\Radar_Core/Libraries/CMSIS/Include\core_cmSimd.h **** 
 349:C:\Users\Depes Crystalline\Desktop\school\Active_Bike_Lighting_System\Radar_Core/Libraries/CMSIS/Include\core_cmSimd.h ****   __ASM volatile ("shasx %0, %1, %2" : "=r" (result) : "r" (op1), "r" (op2) );
 350:C:\Users\Depes Crystalline\Desktop\school\Active_Bike_Lighting_System\Radar_Core/Libraries/CMSIS/Include\core_cmSimd.h ****   return(result);
 351:C:\Users\Depes Crystalline\Desktop\school\Active_Bike_Lighting_System\Radar_Core/Libraries/CMSIS/Include\core_cmSimd.h **** }
 352:C:\Users\Depes Crystalline\Desktop\school\Active_Bike_Lighting_System\Radar_Core/Libraries/CMSIS/Include\core_cmSimd.h **** 
 353:C:\Users\Depes Crystalline\Desktop\school\Active_Bike_Lighting_System\Radar_Core/Libraries/CMSIS/Include\core_cmSimd.h **** __attribute__( ( always_inline ) ) __STATIC_INLINE uint32_t __UASX(uint32_t op1, uint32_t op2)
 354:C:\Users\Depes Crystalline\Desktop\school\Active_Bike_Lighting_System\Radar_Core/Libraries/CMSIS/Include\core_cmSimd.h **** {
 355:C:\Users\Depes Crystalline\Desktop\school\Active_Bike_Lighting_System\Radar_Core/Libraries/CMSIS/Include\core_cmSimd.h ****   uint32_t result;
 356:C:\Users\Depes Crystalline\Desktop\school\Active_Bike_Lighting_System\Radar_Core/Libraries/CMSIS/Include\core_cmSimd.h **** 
 357:C:\Users\Depes Crystalline\Desktop\school\Active_Bike_Lighting_System\Radar_Core/Libraries/CMSIS/Include\core_cmSimd.h ****   __ASM volatile ("uasx %0, %1, %2" : "=r" (result) : "r" (op1), "r" (op2) );
 358:C:\Users\Depes Crystalline\Desktop\school\Active_Bike_Lighting_System\Radar_Core/Libraries/CMSIS/Include\core_cmSimd.h ****   return(result);
 359:C:\Users\Depes Crystalline\Desktop\school\Active_Bike_Lighting_System\Radar_Core/Libraries/CMSIS/Include\core_cmSimd.h **** }
 360:C:\Users\Depes Crystalline\Desktop\school\Active_Bike_Lighting_System\Radar_Core/Libraries/CMSIS/Include\core_cmSimd.h **** 
 361:C:\Users\Depes Crystalline\Desktop\school\Active_Bike_Lighting_System\Radar_Core/Libraries/CMSIS/Include\core_cmSimd.h **** __attribute__( ( always_inline ) ) __STATIC_INLINE uint32_t __UQASX(uint32_t op1, uint32_t op2)
 362:C:\Users\Depes Crystalline\Desktop\school\Active_Bike_Lighting_System\Radar_Core/Libraries/CMSIS/Include\core_cmSimd.h **** {
 363:C:\Users\Depes Crystalline\Desktop\school\Active_Bike_Lighting_System\Radar_Core/Libraries/CMSIS/Include\core_cmSimd.h ****   uint32_t result;
 364:C:\Users\Depes Crystalline\Desktop\school\Active_Bike_Lighting_System\Radar_Core/Libraries/CMSIS/Include\core_cmSimd.h **** 
 365:C:\Users\Depes Crystalline\Desktop\school\Active_Bike_Lighting_System\Radar_Core/Libraries/CMSIS/Include\core_cmSimd.h ****   __ASM volatile ("uqasx %0, %1, %2" : "=r" (result) : "r" (op1), "r" (op2) );
 366:C:\Users\Depes Crystalline\Desktop\school\Active_Bike_Lighting_System\Radar_Core/Libraries/CMSIS/Include\core_cmSimd.h ****   return(result);
 367:C:\Users\Depes Crystalline\Desktop\school\Active_Bike_Lighting_System\Radar_Core/Libraries/CMSIS/Include\core_cmSimd.h **** }
 368:C:\Users\Depes Crystalline\Desktop\school\Active_Bike_Lighting_System\Radar_Core/Libraries/CMSIS/Include\core_cmSimd.h **** 
 369:C:\Users\Depes Crystalline\Desktop\school\Active_Bike_Lighting_System\Radar_Core/Libraries/CMSIS/Include\core_cmSimd.h **** __attribute__( ( always_inline ) ) __STATIC_INLINE uint32_t __UHASX(uint32_t op1, uint32_t op2)
 370:C:\Users\Depes Crystalline\Desktop\school\Active_Bike_Lighting_System\Radar_Core/Libraries/CMSIS/Include\core_cmSimd.h **** {
 371:C:\Users\Depes Crystalline\Desktop\school\Active_Bike_Lighting_System\Radar_Core/Libraries/CMSIS/Include\core_cmSimd.h ****   uint32_t result;
 372:C:\Users\Depes Crystalline\Desktop\school\Active_Bike_Lighting_System\Radar_Core/Libraries/CMSIS/Include\core_cmSimd.h **** 
 373:C:\Users\Depes Crystalline\Desktop\school\Active_Bike_Lighting_System\Radar_Core/Libraries/CMSIS/Include\core_cmSimd.h ****   __ASM volatile ("uhasx %0, %1, %2" : "=r" (result) : "r" (op1), "r" (op2) );
 374:C:\Users\Depes Crystalline\Desktop\school\Active_Bike_Lighting_System\Radar_Core/Libraries/CMSIS/Include\core_cmSimd.h ****   return(result);
 375:C:\Users\Depes Crystalline\Desktop\school\Active_Bike_Lighting_System\Radar_Core/Libraries/CMSIS/Include\core_cmSimd.h **** }
 376:C:\Users\Depes Crystalline\Desktop\school\Active_Bike_Lighting_System\Radar_Core/Libraries/CMSIS/Include\core_cmSimd.h **** 
 377:C:\Users\Depes Crystalline\Desktop\school\Active_Bike_Lighting_System\Radar_Core/Libraries/CMSIS/Include\core_cmSimd.h **** __attribute__( ( always_inline ) ) __STATIC_INLINE uint32_t __SSAX(uint32_t op1, uint32_t op2)
 378:C:\Users\Depes Crystalline\Desktop\school\Active_Bike_Lighting_System\Radar_Core/Libraries/CMSIS/Include\core_cmSimd.h **** {
 379:C:\Users\Depes Crystalline\Desktop\school\Active_Bike_Lighting_System\Radar_Core/Libraries/CMSIS/Include\core_cmSimd.h ****   uint32_t result;
 380:C:\Users\Depes Crystalline\Desktop\school\Active_Bike_Lighting_System\Radar_Core/Libraries/CMSIS/Include\core_cmSimd.h **** 
 381:C:\Users\Depes Crystalline\Desktop\school\Active_Bike_Lighting_System\Radar_Core/Libraries/CMSIS/Include\core_cmSimd.h ****   __ASM volatile ("ssax %0, %1, %2" : "=r" (result) : "r" (op1), "r" (op2) );
 382:C:\Users\Depes Crystalline\Desktop\school\Active_Bike_Lighting_System\Radar_Core/Libraries/CMSIS/Include\core_cmSimd.h ****   return(result);
 383:C:\Users\Depes Crystalline\Desktop\school\Active_Bike_Lighting_System\Radar_Core/Libraries/CMSIS/Include\core_cmSimd.h **** }
 384:C:\Users\Depes Crystalline\Desktop\school\Active_Bike_Lighting_System\Radar_Core/Libraries/CMSIS/Include\core_cmSimd.h **** 
 385:C:\Users\Depes Crystalline\Desktop\school\Active_Bike_Lighting_System\Radar_Core/Libraries/CMSIS/Include\core_cmSimd.h **** __attribute__( ( always_inline ) ) __STATIC_INLINE uint32_t __QSAX(uint32_t op1, uint32_t op2)
 386:C:\Users\Depes Crystalline\Desktop\school\Active_Bike_Lighting_System\Radar_Core/Libraries/CMSIS/Include\core_cmSimd.h **** {
 387:C:\Users\Depes Crystalline\Desktop\school\Active_Bike_Lighting_System\Radar_Core/Libraries/CMSIS/Include\core_cmSimd.h ****   uint32_t result;
 388:C:\Users\Depes Crystalline\Desktop\school\Active_Bike_Lighting_System\Radar_Core/Libraries/CMSIS/Include\core_cmSimd.h **** 
 389:C:\Users\Depes Crystalline\Desktop\school\Active_Bike_Lighting_System\Radar_Core/Libraries/CMSIS/Include\core_cmSimd.h ****   __ASM volatile ("qsax %0, %1, %2" : "=r" (result) : "r" (op1), "r" (op2) );
 390:C:\Users\Depes Crystalline\Desktop\school\Active_Bike_Lighting_System\Radar_Core/Libraries/CMSIS/Include\core_cmSimd.h ****   return(result);
 391:C:\Users\Depes Crystalline\Desktop\school\Active_Bike_Lighting_System\Radar_Core/Libraries/CMSIS/Include\core_cmSimd.h **** }
 392:C:\Users\Depes Crystalline\Desktop\school\Active_Bike_Lighting_System\Radar_Core/Libraries/CMSIS/Include\core_cmSimd.h **** 
 393:C:\Users\Depes Crystalline\Desktop\school\Active_Bike_Lighting_System\Radar_Core/Libraries/CMSIS/Include\core_cmSimd.h **** __attribute__( ( always_inline ) ) __STATIC_INLINE uint32_t __SHSAX(uint32_t op1, uint32_t op2)
 394:C:\Users\Depes Crystalline\Desktop\school\Active_Bike_Lighting_System\Radar_Core/Libraries/CMSIS/Include\core_cmSimd.h **** {
 395:C:\Users\Depes Crystalline\Desktop\school\Active_Bike_Lighting_System\Radar_Core/Libraries/CMSIS/Include\core_cmSimd.h ****   uint32_t result;
 396:C:\Users\Depes Crystalline\Desktop\school\Active_Bike_Lighting_System\Radar_Core/Libraries/CMSIS/Include\core_cmSimd.h **** 
 397:C:\Users\Depes Crystalline\Desktop\school\Active_Bike_Lighting_System\Radar_Core/Libraries/CMSIS/Include\core_cmSimd.h ****   __ASM volatile ("shsax %0, %1, %2" : "=r" (result) : "r" (op1), "r" (op2) );
 398:C:\Users\Depes Crystalline\Desktop\school\Active_Bike_Lighting_System\Radar_Core/Libraries/CMSIS/Include\core_cmSimd.h ****   return(result);
 399:C:\Users\Depes Crystalline\Desktop\school\Active_Bike_Lighting_System\Radar_Core/Libraries/CMSIS/Include\core_cmSimd.h **** }
 400:C:\Users\Depes Crystalline\Desktop\school\Active_Bike_Lighting_System\Radar_Core/Libraries/CMSIS/Include\core_cmSimd.h **** 
 401:C:\Users\Depes Crystalline\Desktop\school\Active_Bike_Lighting_System\Radar_Core/Libraries/CMSIS/Include\core_cmSimd.h **** __attribute__( ( always_inline ) ) __STATIC_INLINE uint32_t __USAX(uint32_t op1, uint32_t op2)
 402:C:\Users\Depes Crystalline\Desktop\school\Active_Bike_Lighting_System\Radar_Core/Libraries/CMSIS/Include\core_cmSimd.h **** {
 403:C:\Users\Depes Crystalline\Desktop\school\Active_Bike_Lighting_System\Radar_Core/Libraries/CMSIS/Include\core_cmSimd.h ****   uint32_t result;
 404:C:\Users\Depes Crystalline\Desktop\school\Active_Bike_Lighting_System\Radar_Core/Libraries/CMSIS/Include\core_cmSimd.h **** 
 405:C:\Users\Depes Crystalline\Desktop\school\Active_Bike_Lighting_System\Radar_Core/Libraries/CMSIS/Include\core_cmSimd.h ****   __ASM volatile ("usax %0, %1, %2" : "=r" (result) : "r" (op1), "r" (op2) );
 406:C:\Users\Depes Crystalline\Desktop\school\Active_Bike_Lighting_System\Radar_Core/Libraries/CMSIS/Include\core_cmSimd.h ****   return(result);
 407:C:\Users\Depes Crystalline\Desktop\school\Active_Bike_Lighting_System\Radar_Core/Libraries/CMSIS/Include\core_cmSimd.h **** }
 408:C:\Users\Depes Crystalline\Desktop\school\Active_Bike_Lighting_System\Radar_Core/Libraries/CMSIS/Include\core_cmSimd.h **** 
 409:C:\Users\Depes Crystalline\Desktop\school\Active_Bike_Lighting_System\Radar_Core/Libraries/CMSIS/Include\core_cmSimd.h **** __attribute__( ( always_inline ) ) __STATIC_INLINE uint32_t __UQSAX(uint32_t op1, uint32_t op2)
 410:C:\Users\Depes Crystalline\Desktop\school\Active_Bike_Lighting_System\Radar_Core/Libraries/CMSIS/Include\core_cmSimd.h **** {
 411:C:\Users\Depes Crystalline\Desktop\school\Active_Bike_Lighting_System\Radar_Core/Libraries/CMSIS/Include\core_cmSimd.h ****   uint32_t result;
 412:C:\Users\Depes Crystalline\Desktop\school\Active_Bike_Lighting_System\Radar_Core/Libraries/CMSIS/Include\core_cmSimd.h **** 
 413:C:\Users\Depes Crystalline\Desktop\school\Active_Bike_Lighting_System\Radar_Core/Libraries/CMSIS/Include\core_cmSimd.h ****   __ASM volatile ("uqsax %0, %1, %2" : "=r" (result) : "r" (op1), "r" (op2) );
 414:C:\Users\Depes Crystalline\Desktop\school\Active_Bike_Lighting_System\Radar_Core/Libraries/CMSIS/Include\core_cmSimd.h ****   return(result);
 415:C:\Users\Depes Crystalline\Desktop\school\Active_Bike_Lighting_System\Radar_Core/Libraries/CMSIS/Include\core_cmSimd.h **** }
 416:C:\Users\Depes Crystalline\Desktop\school\Active_Bike_Lighting_System\Radar_Core/Libraries/CMSIS/Include\core_cmSimd.h **** 
 417:C:\Users\Depes Crystalline\Desktop\school\Active_Bike_Lighting_System\Radar_Core/Libraries/CMSIS/Include\core_cmSimd.h **** __attribute__( ( always_inline ) ) __STATIC_INLINE uint32_t __UHSAX(uint32_t op1, uint32_t op2)
 418:C:\Users\Depes Crystalline\Desktop\school\Active_Bike_Lighting_System\Radar_Core/Libraries/CMSIS/Include\core_cmSimd.h **** {
 419:C:\Users\Depes Crystalline\Desktop\school\Active_Bike_Lighting_System\Radar_Core/Libraries/CMSIS/Include\core_cmSimd.h ****   uint32_t result;
 420:C:\Users\Depes Crystalline\Desktop\school\Active_Bike_Lighting_System\Radar_Core/Libraries/CMSIS/Include\core_cmSimd.h **** 
 421:C:\Users\Depes Crystalline\Desktop\school\Active_Bike_Lighting_System\Radar_Core/Libraries/CMSIS/Include\core_cmSimd.h ****   __ASM volatile ("uhsax %0, %1, %2" : "=r" (result) : "r" (op1), "r" (op2) );
 422:C:\Users\Depes Crystalline\Desktop\school\Active_Bike_Lighting_System\Radar_Core/Libraries/CMSIS/Include\core_cmSimd.h ****   return(result);
 423:C:\Users\Depes Crystalline\Desktop\school\Active_Bike_Lighting_System\Radar_Core/Libraries/CMSIS/Include\core_cmSimd.h **** }
 424:C:\Users\Depes Crystalline\Desktop\school\Active_Bike_Lighting_System\Radar_Core/Libraries/CMSIS/Include\core_cmSimd.h **** 
 425:C:\Users\Depes Crystalline\Desktop\school\Active_Bike_Lighting_System\Radar_Core/Libraries/CMSIS/Include\core_cmSimd.h **** __attribute__( ( always_inline ) ) __STATIC_INLINE uint32_t __USAD8(uint32_t op1, uint32_t op2)
 426:C:\Users\Depes Crystalline\Desktop\school\Active_Bike_Lighting_System\Radar_Core/Libraries/CMSIS/Include\core_cmSimd.h **** {
 427:C:\Users\Depes Crystalline\Desktop\school\Active_Bike_Lighting_System\Radar_Core/Libraries/CMSIS/Include\core_cmSimd.h ****   uint32_t result;
 428:C:\Users\Depes Crystalline\Desktop\school\Active_Bike_Lighting_System\Radar_Core/Libraries/CMSIS/Include\core_cmSimd.h **** 
 429:C:\Users\Depes Crystalline\Desktop\school\Active_Bike_Lighting_System\Radar_Core/Libraries/CMSIS/Include\core_cmSimd.h ****   __ASM volatile ("usad8 %0, %1, %2" : "=r" (result) : "r" (op1), "r" (op2) );
 430:C:\Users\Depes Crystalline\Desktop\school\Active_Bike_Lighting_System\Radar_Core/Libraries/CMSIS/Include\core_cmSimd.h ****   return(result);
 431:C:\Users\Depes Crystalline\Desktop\school\Active_Bike_Lighting_System\Radar_Core/Libraries/CMSIS/Include\core_cmSimd.h **** }
 432:C:\Users\Depes Crystalline\Desktop\school\Active_Bike_Lighting_System\Radar_Core/Libraries/CMSIS/Include\core_cmSimd.h **** 
 433:C:\Users\Depes Crystalline\Desktop\school\Active_Bike_Lighting_System\Radar_Core/Libraries/CMSIS/Include\core_cmSimd.h **** __attribute__( ( always_inline ) ) __STATIC_INLINE uint32_t __USADA8(uint32_t op1, uint32_t op2, ui
 434:C:\Users\Depes Crystalline\Desktop\school\Active_Bike_Lighting_System\Radar_Core/Libraries/CMSIS/Include\core_cmSimd.h **** {
 435:C:\Users\Depes Crystalline\Desktop\school\Active_Bike_Lighting_System\Radar_Core/Libraries/CMSIS/Include\core_cmSimd.h ****   uint32_t result;
 436:C:\Users\Depes Crystalline\Desktop\school\Active_Bike_Lighting_System\Radar_Core/Libraries/CMSIS/Include\core_cmSimd.h **** 
 437:C:\Users\Depes Crystalline\Desktop\school\Active_Bike_Lighting_System\Radar_Core/Libraries/CMSIS/Include\core_cmSimd.h ****   __ASM volatile ("usada8 %0, %1, %2, %3" : "=r" (result) : "r" (op1), "r" (op2), "r" (op3) );
 438:C:\Users\Depes Crystalline\Desktop\school\Active_Bike_Lighting_System\Radar_Core/Libraries/CMSIS/Include\core_cmSimd.h ****   return(result);
 439:C:\Users\Depes Crystalline\Desktop\school\Active_Bike_Lighting_System\Radar_Core/Libraries/CMSIS/Include\core_cmSimd.h **** }
 440:C:\Users\Depes Crystalline\Desktop\school\Active_Bike_Lighting_System\Radar_Core/Libraries/CMSIS/Include\core_cmSimd.h **** 
 441:C:\Users\Depes Crystalline\Desktop\school\Active_Bike_Lighting_System\Radar_Core/Libraries/CMSIS/Include\core_cmSimd.h **** #define __SSAT16(ARG1,ARG2) \
 442:C:\Users\Depes Crystalline\Desktop\school\Active_Bike_Lighting_System\Radar_Core/Libraries/CMSIS/Include\core_cmSimd.h **** ({                          \
 443:C:\Users\Depes Crystalline\Desktop\school\Active_Bike_Lighting_System\Radar_Core/Libraries/CMSIS/Include\core_cmSimd.h ****   uint32_t __RES, __ARG1 = (ARG1); \
 444:C:\Users\Depes Crystalline\Desktop\school\Active_Bike_Lighting_System\Radar_Core/Libraries/CMSIS/Include\core_cmSimd.h ****   __ASM ("ssat16 %0, %1, %2" : "=r" (__RES) :  "I" (ARG2), "r" (__ARG1) ); \
 445:C:\Users\Depes Crystalline\Desktop\school\Active_Bike_Lighting_System\Radar_Core/Libraries/CMSIS/Include\core_cmSimd.h ****   __RES; \
 446:C:\Users\Depes Crystalline\Desktop\school\Active_Bike_Lighting_System\Radar_Core/Libraries/CMSIS/Include\core_cmSimd.h ****  })
 447:C:\Users\Depes Crystalline\Desktop\school\Active_Bike_Lighting_System\Radar_Core/Libraries/CMSIS/Include\core_cmSimd.h **** 
 448:C:\Users\Depes Crystalline\Desktop\school\Active_Bike_Lighting_System\Radar_Core/Libraries/CMSIS/Include\core_cmSimd.h **** #define __USAT16(ARG1,ARG2) \
 449:C:\Users\Depes Crystalline\Desktop\school\Active_Bike_Lighting_System\Radar_Core/Libraries/CMSIS/Include\core_cmSimd.h **** ({                          \
 450:C:\Users\Depes Crystalline\Desktop\school\Active_Bike_Lighting_System\Radar_Core/Libraries/CMSIS/Include\core_cmSimd.h ****   uint32_t __RES, __ARG1 = (ARG1); \
 451:C:\Users\Depes Crystalline\Desktop\school\Active_Bike_Lighting_System\Radar_Core/Libraries/CMSIS/Include\core_cmSimd.h ****   __ASM ("usat16 %0, %1, %2" : "=r" (__RES) :  "I" (ARG2), "r" (__ARG1) ); \
 452:C:\Users\Depes Crystalline\Desktop\school\Active_Bike_Lighting_System\Radar_Core/Libraries/CMSIS/Include\core_cmSimd.h ****   __RES; \
 453:C:\Users\Depes Crystalline\Desktop\school\Active_Bike_Lighting_System\Radar_Core/Libraries/CMSIS/Include\core_cmSimd.h ****  })
 454:C:\Users\Depes Crystalline\Desktop\school\Active_Bike_Lighting_System\Radar_Core/Libraries/CMSIS/Include\core_cmSimd.h **** 
 455:C:\Users\Depes Crystalline\Desktop\school\Active_Bike_Lighting_System\Radar_Core/Libraries/CMSIS/Include\core_cmSimd.h **** __attribute__( ( always_inline ) ) __STATIC_INLINE uint32_t __UXTB16(uint32_t op1)
 456:C:\Users\Depes Crystalline\Desktop\school\Active_Bike_Lighting_System\Radar_Core/Libraries/CMSIS/Include\core_cmSimd.h **** {
 457:C:\Users\Depes Crystalline\Desktop\school\Active_Bike_Lighting_System\Radar_Core/Libraries/CMSIS/Include\core_cmSimd.h ****   uint32_t result;
 458:C:\Users\Depes Crystalline\Desktop\school\Active_Bike_Lighting_System\Radar_Core/Libraries/CMSIS/Include\core_cmSimd.h **** 
 459:C:\Users\Depes Crystalline\Desktop\school\Active_Bike_Lighting_System\Radar_Core/Libraries/CMSIS/Include\core_cmSimd.h ****   __ASM volatile ("uxtb16 %0, %1" : "=r" (result) : "r" (op1));
 460:C:\Users\Depes Crystalline\Desktop\school\Active_Bike_Lighting_System\Radar_Core/Libraries/CMSIS/Include\core_cmSimd.h ****   return(result);
 461:C:\Users\Depes Crystalline\Desktop\school\Active_Bike_Lighting_System\Radar_Core/Libraries/CMSIS/Include\core_cmSimd.h **** }
 462:C:\Users\Depes Crystalline\Desktop\school\Active_Bike_Lighting_System\Radar_Core/Libraries/CMSIS/Include\core_cmSimd.h **** 
 463:C:\Users\Depes Crystalline\Desktop\school\Active_Bike_Lighting_System\Radar_Core/Libraries/CMSIS/Include\core_cmSimd.h **** __attribute__( ( always_inline ) ) __STATIC_INLINE uint32_t __UXTAB16(uint32_t op1, uint32_t op2)
 464:C:\Users\Depes Crystalline\Desktop\school\Active_Bike_Lighting_System\Radar_Core/Libraries/CMSIS/Include\core_cmSimd.h **** {
 465:C:\Users\Depes Crystalline\Desktop\school\Active_Bike_Lighting_System\Radar_Core/Libraries/CMSIS/Include\core_cmSimd.h ****   uint32_t result;
 466:C:\Users\Depes Crystalline\Desktop\school\Active_Bike_Lighting_System\Radar_Core/Libraries/CMSIS/Include\core_cmSimd.h **** 
 467:C:\Users\Depes Crystalline\Desktop\school\Active_Bike_Lighting_System\Radar_Core/Libraries/CMSIS/Include\core_cmSimd.h ****   __ASM volatile ("uxtab16 %0, %1, %2" : "=r" (result) : "r" (op1), "r" (op2) );
 468:C:\Users\Depes Crystalline\Desktop\school\Active_Bike_Lighting_System\Radar_Core/Libraries/CMSIS/Include\core_cmSimd.h ****   return(result);
 469:C:\Users\Depes Crystalline\Desktop\school\Active_Bike_Lighting_System\Radar_Core/Libraries/CMSIS/Include\core_cmSimd.h **** }
 470:C:\Users\Depes Crystalline\Desktop\school\Active_Bike_Lighting_System\Radar_Core/Libraries/CMSIS/Include\core_cmSimd.h **** 
 471:C:\Users\Depes Crystalline\Desktop\school\Active_Bike_Lighting_System\Radar_Core/Libraries/CMSIS/Include\core_cmSimd.h **** __attribute__( ( always_inline ) ) __STATIC_INLINE uint32_t __SXTB16(uint32_t op1)
 472:C:\Users\Depes Crystalline\Desktop\school\Active_Bike_Lighting_System\Radar_Core/Libraries/CMSIS/Include\core_cmSimd.h **** {
 473:C:\Users\Depes Crystalline\Desktop\school\Active_Bike_Lighting_System\Radar_Core/Libraries/CMSIS/Include\core_cmSimd.h ****   uint32_t result;
 474:C:\Users\Depes Crystalline\Desktop\school\Active_Bike_Lighting_System\Radar_Core/Libraries/CMSIS/Include\core_cmSimd.h **** 
 475:C:\Users\Depes Crystalline\Desktop\school\Active_Bike_Lighting_System\Radar_Core/Libraries/CMSIS/Include\core_cmSimd.h ****   __ASM volatile ("sxtb16 %0, %1" : "=r" (result) : "r" (op1));
 476:C:\Users\Depes Crystalline\Desktop\school\Active_Bike_Lighting_System\Radar_Core/Libraries/CMSIS/Include\core_cmSimd.h ****   return(result);
 477:C:\Users\Depes Crystalline\Desktop\school\Active_Bike_Lighting_System\Radar_Core/Libraries/CMSIS/Include\core_cmSimd.h **** }
 478:C:\Users\Depes Crystalline\Desktop\school\Active_Bike_Lighting_System\Radar_Core/Libraries/CMSIS/Include\core_cmSimd.h **** 
 479:C:\Users\Depes Crystalline\Desktop\school\Active_Bike_Lighting_System\Radar_Core/Libraries/CMSIS/Include\core_cmSimd.h **** __attribute__( ( always_inline ) ) __STATIC_INLINE uint32_t __SXTAB16(uint32_t op1, uint32_t op2)
 480:C:\Users\Depes Crystalline\Desktop\school\Active_Bike_Lighting_System\Radar_Core/Libraries/CMSIS/Include\core_cmSimd.h **** {
 481:C:\Users\Depes Crystalline\Desktop\school\Active_Bike_Lighting_System\Radar_Core/Libraries/CMSIS/Include\core_cmSimd.h ****   uint32_t result;
 482:C:\Users\Depes Crystalline\Desktop\school\Active_Bike_Lighting_System\Radar_Core/Libraries/CMSIS/Include\core_cmSimd.h **** 
 483:C:\Users\Depes Crystalline\Desktop\school\Active_Bike_Lighting_System\Radar_Core/Libraries/CMSIS/Include\core_cmSimd.h ****   __ASM volatile ("sxtab16 %0, %1, %2" : "=r" (result) : "r" (op1), "r" (op2) );
 484:C:\Users\Depes Crystalline\Desktop\school\Active_Bike_Lighting_System\Radar_Core/Libraries/CMSIS/Include\core_cmSimd.h ****   return(result);
 485:C:\Users\Depes Crystalline\Desktop\school\Active_Bike_Lighting_System\Radar_Core/Libraries/CMSIS/Include\core_cmSimd.h **** }
 486:C:\Users\Depes Crystalline\Desktop\school\Active_Bike_Lighting_System\Radar_Core/Libraries/CMSIS/Include\core_cmSimd.h **** 
 487:C:\Users\Depes Crystalline\Desktop\school\Active_Bike_Lighting_System\Radar_Core/Libraries/CMSIS/Include\core_cmSimd.h **** __attribute__( ( always_inline ) ) __STATIC_INLINE uint32_t __SMUAD  (uint32_t op1, uint32_t op2)
 488:C:\Users\Depes Crystalline\Desktop\school\Active_Bike_Lighting_System\Radar_Core/Libraries/CMSIS/Include\core_cmSimd.h **** {
 489:C:\Users\Depes Crystalline\Desktop\school\Active_Bike_Lighting_System\Radar_Core/Libraries/CMSIS/Include\core_cmSimd.h ****   uint32_t result;
 490:C:\Users\Depes Crystalline\Desktop\school\Active_Bike_Lighting_System\Radar_Core/Libraries/CMSIS/Include\core_cmSimd.h **** 
 491:C:\Users\Depes Crystalline\Desktop\school\Active_Bike_Lighting_System\Radar_Core/Libraries/CMSIS/Include\core_cmSimd.h ****   __ASM volatile ("smuad %0, %1, %2" : "=r" (result) : "r" (op1), "r" (op2) );
 492:C:\Users\Depes Crystalline\Desktop\school\Active_Bike_Lighting_System\Radar_Core/Libraries/CMSIS/Include\core_cmSimd.h ****   return(result);
 493:C:\Users\Depes Crystalline\Desktop\school\Active_Bike_Lighting_System\Radar_Core/Libraries/CMSIS/Include\core_cmSimd.h **** }
 494:C:\Users\Depes Crystalline\Desktop\school\Active_Bike_Lighting_System\Radar_Core/Libraries/CMSIS/Include\core_cmSimd.h **** 
 495:C:\Users\Depes Crystalline\Desktop\school\Active_Bike_Lighting_System\Radar_Core/Libraries/CMSIS/Include\core_cmSimd.h **** __attribute__( ( always_inline ) ) __STATIC_INLINE uint32_t __SMUADX (uint32_t op1, uint32_t op2)
 496:C:\Users\Depes Crystalline\Desktop\school\Active_Bike_Lighting_System\Radar_Core/Libraries/CMSIS/Include\core_cmSimd.h **** {
 497:C:\Users\Depes Crystalline\Desktop\school\Active_Bike_Lighting_System\Radar_Core/Libraries/CMSIS/Include\core_cmSimd.h ****   uint32_t result;
 498:C:\Users\Depes Crystalline\Desktop\school\Active_Bike_Lighting_System\Radar_Core/Libraries/CMSIS/Include\core_cmSimd.h **** 
 499:C:\Users\Depes Crystalline\Desktop\school\Active_Bike_Lighting_System\Radar_Core/Libraries/CMSIS/Include\core_cmSimd.h ****   __ASM volatile ("smuadx %0, %1, %2" : "=r" (result) : "r" (op1), "r" (op2) );
 500:C:\Users\Depes Crystalline\Desktop\school\Active_Bike_Lighting_System\Radar_Core/Libraries/CMSIS/Include\core_cmSimd.h ****   return(result);
 501:C:\Users\Depes Crystalline\Desktop\school\Active_Bike_Lighting_System\Radar_Core/Libraries/CMSIS/Include\core_cmSimd.h **** }
 502:C:\Users\Depes Crystalline\Desktop\school\Active_Bike_Lighting_System\Radar_Core/Libraries/CMSIS/Include\core_cmSimd.h **** 
 503:C:\Users\Depes Crystalline\Desktop\school\Active_Bike_Lighting_System\Radar_Core/Libraries/CMSIS/Include\core_cmSimd.h **** __attribute__( ( always_inline ) ) __STATIC_INLINE uint32_t __SMLAD (uint32_t op1, uint32_t op2, ui
 504:C:\Users\Depes Crystalline\Desktop\school\Active_Bike_Lighting_System\Radar_Core/Libraries/CMSIS/Include\core_cmSimd.h **** {
 505:C:\Users\Depes Crystalline\Desktop\school\Active_Bike_Lighting_System\Radar_Core/Libraries/CMSIS/Include\core_cmSimd.h ****   uint32_t result;
 506:C:\Users\Depes Crystalline\Desktop\school\Active_Bike_Lighting_System\Radar_Core/Libraries/CMSIS/Include\core_cmSimd.h **** 
 507:C:\Users\Depes Crystalline\Desktop\school\Active_Bike_Lighting_System\Radar_Core/Libraries/CMSIS/Include\core_cmSimd.h ****   __ASM volatile ("smlad %0, %1, %2, %3" : "=r" (result) : "r" (op1), "r" (op2), "r" (op3) );
 285              	 .loc 2 507 0
 286 0220 D7F8EC30 	 ldr r3,[r7,#236]
 287 0224 D7F8E820 	 ldr r2,[r7,#232]
 288 0228 D7F8E410 	 ldr r1,[r7,#228]
 289              	
 290 022c 23FB0213 	 smlad r3,r3,r2,r1
 291              	
 292              	 .thumb
 293 0230 C7F8E030 	 str r3,[r7,#224]
 508:C:\Users\Depes Crystalline\Desktop\school\Active_Bike_Lighting_System\Radar_Core/Libraries/CMSIS/Include\core_cmSimd.h ****   return(result);
 294              	 .loc 2 508 0
 295 0234 D7F8E030 	 ldr r3,[r7,#224]
 296              	.LBE39:
 297              	.LBE38:
 298              	 .loc 1 209 0
 299 0238 C7F87831 	 str r3,[r7,#376]
 210:../Dave/Generated/CMSIS_DSP/FilteringFunctions/arm_conv_partial_q7.c **** 
 211:../Dave/Generated/CMSIS_DSP/FilteringFunctions/arm_conv_partial_q7.c ****         /* x[2] , x[3] */
 212:../Dave/Generated/CMSIS_DSP/FilteringFunctions/arm_conv_partial_q7.c ****         in1 = (q15_t) * px++;
 300              	 .loc 1 212 0
 301 023c D7F88831 	 ldr r3,[r7,#392]
 302 0240 5A1C     	 adds r2,r3,#1
 303 0242 C7F88821 	 str r2,[r7,#392]
 304 0246 1B78     	 ldrb r3,[r3]
 305 0248 5BB2     	 sxtb r3,r3
 306 024a A7F83E31 	 strh r3,[r7,#318]
 213:../Dave/Generated/CMSIS_DSP/FilteringFunctions/arm_conv_partial_q7.c ****         in2 = (q15_t) * px++;
 307              	 .loc 1 213 0
 308 024e D7F88831 	 ldr r3,[r7,#392]
 309 0252 5A1C     	 adds r2,r3,#1
 310 0254 C7F88821 	 str r2,[r7,#392]
 311 0258 1B78     	 ldrb r3,[r3]
 312 025a 5BB2     	 sxtb r3,r3
 313 025c A7F83C31 	 strh r3,[r7,#316]
 214:../Dave/Generated/CMSIS_DSP/FilteringFunctions/arm_conv_partial_q7.c ****         input1 = ((q31_t) in1 & 0x0000FFFF) | ((q31_t) in2 << 16);
 314              	 .loc 1 214 0
 315 0260 B7F93E31 	 ldrsh r3,[r7,#318]
 316 0264 9AB2     	 uxth r2,r3
 317 0266 B7F93C31 	 ldrsh r3,[r7,#316]
 318 026a 1B04     	 lsls r3,r3,#16
 319 026c 1343     	 orrs r3,r3,r2
 320 026e C7F83831 	 str r3,[r7,#312]
 215:../Dave/Generated/CMSIS_DSP/FilteringFunctions/arm_conv_partial_q7.c **** 
 216:../Dave/Generated/CMSIS_DSP/FilteringFunctions/arm_conv_partial_q7.c ****         /* y[srcBLen - 3] , y[srcBLen - 4] */
 217:../Dave/Generated/CMSIS_DSP/FilteringFunctions/arm_conv_partial_q7.c ****         in1 = (q15_t) * py--;
 321              	 .loc 1 217 0
 322 0272 D7F88431 	 ldr r3,[r7,#388]
 323 0276 5A1E     	 subs r2,r3,#1
 324 0278 C7F88421 	 str r2,[r7,#388]
 325 027c 1B78     	 ldrb r3,[r3]
 326 027e 5BB2     	 sxtb r3,r3
 327 0280 A7F83E31 	 strh r3,[r7,#318]
 218:../Dave/Generated/CMSIS_DSP/FilteringFunctions/arm_conv_partial_q7.c ****         in2 = (q15_t) * py--;
 328              	 .loc 1 218 0
 329 0284 D7F88431 	 ldr r3,[r7,#388]
 330 0288 5A1E     	 subs r2,r3,#1
 331 028a C7F88421 	 str r2,[r7,#388]
 332 028e 1B78     	 ldrb r3,[r3]
 333 0290 5BB2     	 sxtb r3,r3
 334 0292 A7F83C31 	 strh r3,[r7,#316]
 219:../Dave/Generated/CMSIS_DSP/FilteringFunctions/arm_conv_partial_q7.c ****         input2 = ((q31_t) in1 & 0x0000FFFF) | ((q31_t) in2 << 16);
 335              	 .loc 1 219 0
 336 0296 B7F93E31 	 ldrsh r3,[r7,#318]
 337 029a 9AB2     	 uxth r2,r3
 338 029c B7F93C31 	 ldrsh r3,[r7,#316]
 339 02a0 1B04     	 lsls r3,r3,#16
 340 02a2 1343     	 orrs r3,r3,r2
 341 02a4 C7F83431 	 str r3,[r7,#308]
 220:../Dave/Generated/CMSIS_DSP/FilteringFunctions/arm_conv_partial_q7.c **** 
 221:../Dave/Generated/CMSIS_DSP/FilteringFunctions/arm_conv_partial_q7.c ****         /* x[2] * y[srcBLen - 3] */
 222:../Dave/Generated/CMSIS_DSP/FilteringFunctions/arm_conv_partial_q7.c ****         /* x[3] * y[srcBLen - 4] */
 223:../Dave/Generated/CMSIS_DSP/FilteringFunctions/arm_conv_partial_q7.c ****         sum = __SMLAD(input1, input2, sum);
 342              	 .loc 1 223 0
 343 02a8 D7F83811 	 ldr r1,[r7,#312]
 344 02ac D7F83421 	 ldr r2,[r7,#308]
 345 02b0 D7F87831 	 ldr r3,[r7,#376]
 346 02b4 C7F8DC10 	 str r1,[r7,#220]
 347 02b8 C7F8D820 	 str r2,[r7,#216]
 348 02bc C7F8D430 	 str r3,[r7,#212]
 349              	.LBB40:
 350              	.LBB41:
 507:C:\Users\Depes Crystalline\Desktop\school\Active_Bike_Lighting_System\Radar_Core/Libraries/CMSIS/Include\core_cmSimd.h ****   return(result);
 351              	 .loc 2 507 0
 352 02c0 D7F8DC30 	 ldr r3,[r7,#220]
 353 02c4 D7F8D820 	 ldr r2,[r7,#216]
 354 02c8 D7F8D410 	 ldr r1,[r7,#212]
 355              	
 356 02cc 23FB0213 	 smlad r3,r3,r2,r1
 357              	
 358              	 .thumb
 359 02d0 C7F8D030 	 str r3,[r7,#208]
 360              	 .loc 2 508 0
 361 02d4 D7F8D030 	 ldr r3,[r7,#208]
 362              	.LBE41:
 363              	.LBE40:
 364              	 .loc 1 223 0
 365 02d8 C7F87831 	 str r3,[r7,#376]
 224:../Dave/Generated/CMSIS_DSP/FilteringFunctions/arm_conv_partial_q7.c **** 
 225:../Dave/Generated/CMSIS_DSP/FilteringFunctions/arm_conv_partial_q7.c ****         /* Decrement the loop counter */
 226:../Dave/Generated/CMSIS_DSP/FilteringFunctions/arm_conv_partial_q7.c ****         k--;
 366              	 .loc 1 226 0
 367 02dc D7F86031 	 ldr r3,[r7,#352]
 368 02e0 013B     	 subs r3,r3,#1
 369 02e2 C7F86031 	 str r3,[r7,#352]
 370              	.L15:
 195:../Dave/Generated/CMSIS_DSP/FilteringFunctions/arm_conv_partial_q7.c ****       {
 371              	 .loc 1 195 0
 372 02e6 D7F86031 	 ldr r3,[r7,#352]
 373 02ea 002B     	 cmp r3,#0
 374 02ec 7FF456AF 	 bne .L18
 227:../Dave/Generated/CMSIS_DSP/FilteringFunctions/arm_conv_partial_q7.c ****       }
 228:../Dave/Generated/CMSIS_DSP/FilteringFunctions/arm_conv_partial_q7.c **** 
 229:../Dave/Generated/CMSIS_DSP/FilteringFunctions/arm_conv_partial_q7.c ****       /* If the count is not a multiple of 4, compute any remaining MACs here.   
 230:../Dave/Generated/CMSIS_DSP/FilteringFunctions/arm_conv_partial_q7.c ****        ** No loop unrolling is used. */
 231:../Dave/Generated/CMSIS_DSP/FilteringFunctions/arm_conv_partial_q7.c ****       k = count % 0x4u;
 375              	 .loc 1 231 0
 376 02f0 D7F85C31 	 ldr r3,[r7,#348]
 377 02f4 03F00303 	 and r3,r3,#3
 378 02f8 C7F86031 	 str r3,[r7,#352]
 232:../Dave/Generated/CMSIS_DSP/FilteringFunctions/arm_conv_partial_q7.c **** 
 233:../Dave/Generated/CMSIS_DSP/FilteringFunctions/arm_conv_partial_q7.c ****       while(k > 0u)
 379              	 .loc 1 233 0
 380 02fc 19E0     	 b .L19
 381              	.L20:
 234:../Dave/Generated/CMSIS_DSP/FilteringFunctions/arm_conv_partial_q7.c ****       {
 235:../Dave/Generated/CMSIS_DSP/FilteringFunctions/arm_conv_partial_q7.c ****         /* Perform the multiply-accumulates */
 236:../Dave/Generated/CMSIS_DSP/FilteringFunctions/arm_conv_partial_q7.c ****         sum += ((q31_t) * px++ * *py--);
 382              	 .loc 1 236 0
 383 02fe D7F88831 	 ldr r3,[r7,#392]
 384 0302 5A1C     	 adds r2,r3,#1
 385 0304 C7F88821 	 str r2,[r7,#392]
 386 0308 1B78     	 ldrb r3,[r3]
 387 030a 5AB2     	 sxtb r2,r3
 388 030c D7F88431 	 ldr r3,[r7,#388]
 389 0310 591E     	 subs r1,r3,#1
 390 0312 C7F88411 	 str r1,[r7,#388]
 391 0316 1B78     	 ldrb r3,[r3]
 392 0318 5BB2     	 sxtb r3,r3
 393 031a 03FB02F3 	 mul r3,r3,r2
 394 031e D7F87821 	 ldr r2,[r7,#376]
 395 0322 1344     	 add r3,r3,r2
 396 0324 C7F87831 	 str r3,[r7,#376]
 237:../Dave/Generated/CMSIS_DSP/FilteringFunctions/arm_conv_partial_q7.c **** 
 238:../Dave/Generated/CMSIS_DSP/FilteringFunctions/arm_conv_partial_q7.c ****         /* Decrement the loop counter */
 239:../Dave/Generated/CMSIS_DSP/FilteringFunctions/arm_conv_partial_q7.c ****         k--;
 397              	 .loc 1 239 0
 398 0328 D7F86031 	 ldr r3,[r7,#352]
 399 032c 013B     	 subs r3,r3,#1
 400 032e C7F86031 	 str r3,[r7,#352]
 401              	.L19:
 233:../Dave/Generated/CMSIS_DSP/FilteringFunctions/arm_conv_partial_q7.c ****       {
 402              	 .loc 1 233 0
 403 0332 D7F86031 	 ldr r3,[r7,#352]
 404 0336 002B     	 cmp r3,#0
 405 0338 E1D1     	 bne .L20
 240:../Dave/Generated/CMSIS_DSP/FilteringFunctions/arm_conv_partial_q7.c ****       }
 241:../Dave/Generated/CMSIS_DSP/FilteringFunctions/arm_conv_partial_q7.c **** 
 242:../Dave/Generated/CMSIS_DSP/FilteringFunctions/arm_conv_partial_q7.c ****       /* Store the result in the accumulator in the destination buffer. */
 243:../Dave/Generated/CMSIS_DSP/FilteringFunctions/arm_conv_partial_q7.c ****       *pOut++ = (q7_t) (__SSAT(sum >> 7, 8));
 406              	 .loc 1 243 0
 407 033a D7F88C31 	 ldr r3,[r7,#396]
 408 033e 5A1C     	 adds r2,r3,#1
 409 0340 C7F88C21 	 str r2,[r7,#396]
 410              	.LBB42:
 411 0344 D7F87821 	 ldr r2,[r7,#376]
 412 0348 D211     	 asrs r2,r2,#7
 413 034a C7F83021 	 str r2,[r7,#304]
 414 034e D7F83021 	 ldr r2,[r7,#304]
 415              	
 416 0352 02F30702 	 ssat r2,#8,r2
 417              	
 418              	 .thumb
 419 0356 C7F82C21 	 str r2,[r7,#300]
 420 035a D7F82C21 	 ldr r2,[r7,#300]
 421              	.LBE42:
 422 035e D2B2     	 uxtb r2,r2
 423 0360 1A70     	 strb r2,[r3]
 244:../Dave/Generated/CMSIS_DSP/FilteringFunctions/arm_conv_partial_q7.c **** 
 245:../Dave/Generated/CMSIS_DSP/FilteringFunctions/arm_conv_partial_q7.c ****       /* Update the inputA and inputB pointers for next MAC calculation */
 246:../Dave/Generated/CMSIS_DSP/FilteringFunctions/arm_conv_partial_q7.c ****       py = ++pSrc2;
 424              	 .loc 1 246 0
 425 0362 D7F87C31 	 ldr r3,[r7,#380]
 426 0366 0133     	 adds r3,r3,#1
 427 0368 C7F87C31 	 str r3,[r7,#380]
 428 036c D7F87C31 	 ldr r3,[r7,#380]
 429 0370 C7F88431 	 str r3,[r7,#388]
 247:../Dave/Generated/CMSIS_DSP/FilteringFunctions/arm_conv_partial_q7.c ****       px = pIn1;
 430              	 .loc 1 247 0
 431 0374 D7F89431 	 ldr r3,[r7,#404]
 432 0378 C7F88831 	 str r3,[r7,#392]
 248:../Dave/Generated/CMSIS_DSP/FilteringFunctions/arm_conv_partial_q7.c **** 
 249:../Dave/Generated/CMSIS_DSP/FilteringFunctions/arm_conv_partial_q7.c ****       /* Increment the MAC count */
 250:../Dave/Generated/CMSIS_DSP/FilteringFunctions/arm_conv_partial_q7.c ****       count++;
 433              	 .loc 1 250 0
 434 037c D7F85C31 	 ldr r3,[r7,#348]
 435 0380 0133     	 adds r3,r3,#1
 436 0382 C7F85C31 	 str r3,[r7,#348]
 251:../Dave/Generated/CMSIS_DSP/FilteringFunctions/arm_conv_partial_q7.c **** 
 252:../Dave/Generated/CMSIS_DSP/FilteringFunctions/arm_conv_partial_q7.c ****       /* Decrement the loop counter */
 253:../Dave/Generated/CMSIS_DSP/FilteringFunctions/arm_conv_partial_q7.c ****       blockSize1--;
 437              	 .loc 1 253 0
 438 0386 D7F85431 	 ldr r3,[r7,#340]
 439 038a 013B     	 subs r3,r3,#1
 440 038c C7F85431 	 str r3,[r7,#340]
 441              	.L14:
 185:../Dave/Generated/CMSIS_DSP/FilteringFunctions/arm_conv_partial_q7.c ****     {
 442              	 .loc 1 185 0
 443 0390 D7F85431 	 ldr r3,[r7,#340]
 444 0394 002B     	 cmp r3,#0
 445 0396 3FF7F8AE 	 bgt .L21
 254:../Dave/Generated/CMSIS_DSP/FilteringFunctions/arm_conv_partial_q7.c ****     }
 255:../Dave/Generated/CMSIS_DSP/FilteringFunctions/arm_conv_partial_q7.c **** 
 256:../Dave/Generated/CMSIS_DSP/FilteringFunctions/arm_conv_partial_q7.c ****     /* --------------------------   
 257:../Dave/Generated/CMSIS_DSP/FilteringFunctions/arm_conv_partial_q7.c ****      * Initializations of stage2   
 258:../Dave/Generated/CMSIS_DSP/FilteringFunctions/arm_conv_partial_q7.c ****      * ------------------------*/
 259:../Dave/Generated/CMSIS_DSP/FilteringFunctions/arm_conv_partial_q7.c **** 
 260:../Dave/Generated/CMSIS_DSP/FilteringFunctions/arm_conv_partial_q7.c ****     /* sum = x[0] * y[srcBLen-1] + x[1] * y[srcBLen-2] +...+ x[srcBLen-1] * y[0]   
 261:../Dave/Generated/CMSIS_DSP/FilteringFunctions/arm_conv_partial_q7.c ****      * sum = x[1] * y[srcBLen-1] + x[2] * y[srcBLen-2] +...+ x[srcBLen] * y[0]   
 262:../Dave/Generated/CMSIS_DSP/FilteringFunctions/arm_conv_partial_q7.c ****      * ....   
 263:../Dave/Generated/CMSIS_DSP/FilteringFunctions/arm_conv_partial_q7.c ****      * sum = x[srcALen-srcBLen-2] * y[srcBLen-1] + x[srcALen] * y[srcBLen-2] +...+ x[srcALen-1] * y
 264:../Dave/Generated/CMSIS_DSP/FilteringFunctions/arm_conv_partial_q7.c ****      */
 265:../Dave/Generated/CMSIS_DSP/FilteringFunctions/arm_conv_partial_q7.c **** 
 266:../Dave/Generated/CMSIS_DSP/FilteringFunctions/arm_conv_partial_q7.c ****     /* Working pointer of inputA */
 267:../Dave/Generated/CMSIS_DSP/FilteringFunctions/arm_conv_partial_q7.c ****     if((int32_t)firstIndex - (int32_t)srcBLen + 1 > 0)
 446              	 .loc 1 267 0
 447 039a D7F8A421 	 ldr r2,[r7,#420]
 448 039e 3B46     	 mov r3,r7
 449 03a0 1B68     	 ldr r3,[r3]
 450 03a2 D31A     	 subs r3,r2,r3
 451 03a4 0133     	 adds r3,r3,#1
 452 03a6 002B     	 cmp r3,#0
 453 03a8 0BDD     	 ble .L22
 268:../Dave/Generated/CMSIS_DSP/FilteringFunctions/arm_conv_partial_q7.c ****     {
 269:../Dave/Generated/CMSIS_DSP/FilteringFunctions/arm_conv_partial_q7.c ****       px = pIn1 + firstIndex - srcBLen + 1;
 454              	 .loc 1 269 0
 455 03aa 3B46     	 mov r3,r7
 456 03ac D7F8A421 	 ldr r2,[r7,#420]
 457 03b0 1B68     	 ldr r3,[r3]
 458 03b2 D31A     	 subs r3,r2,r3
 459 03b4 0133     	 adds r3,r3,#1
 460 03b6 D7F89421 	 ldr r2,[r7,#404]
 461 03ba 1344     	 add r3,r3,r2
 462 03bc C7F88831 	 str r3,[r7,#392]
 463 03c0 03E0     	 b .L23
 464              	.L22:
 270:../Dave/Generated/CMSIS_DSP/FilteringFunctions/arm_conv_partial_q7.c ****     }
 271:../Dave/Generated/CMSIS_DSP/FilteringFunctions/arm_conv_partial_q7.c ****     else
 272:../Dave/Generated/CMSIS_DSP/FilteringFunctions/arm_conv_partial_q7.c ****     {
 273:../Dave/Generated/CMSIS_DSP/FilteringFunctions/arm_conv_partial_q7.c ****       px = pIn1;
 465              	 .loc 1 273 0
 466 03c2 D7F89431 	 ldr r3,[r7,#404]
 467 03c6 C7F88831 	 str r3,[r7,#392]
 468              	.L23:
 274:../Dave/Generated/CMSIS_DSP/FilteringFunctions/arm_conv_partial_q7.c ****     }
 275:../Dave/Generated/CMSIS_DSP/FilteringFunctions/arm_conv_partial_q7.c **** 
 276:../Dave/Generated/CMSIS_DSP/FilteringFunctions/arm_conv_partial_q7.c ****     /* Working pointer of inputB */
 277:../Dave/Generated/CMSIS_DSP/FilteringFunctions/arm_conv_partial_q7.c ****     pSrc2 = pIn2 + (srcBLen - 1u);
 469              	 .loc 1 277 0
 470 03ca 3B46     	 mov r3,r7
 471 03cc 1B68     	 ldr r3,[r3]
 472 03ce 013B     	 subs r3,r3,#1
 473 03d0 D7F89021 	 ldr r2,[r7,#400]
 474 03d4 1344     	 add r3,r3,r2
 475 03d6 C7F87C31 	 str r3,[r7,#380]
 278:../Dave/Generated/CMSIS_DSP/FilteringFunctions/arm_conv_partial_q7.c ****     py = pSrc2;
 476              	 .loc 1 278 0
 477 03da D7F87C31 	 ldr r3,[r7,#380]
 478 03de C7F88431 	 str r3,[r7,#388]
 279:../Dave/Generated/CMSIS_DSP/FilteringFunctions/arm_conv_partial_q7.c **** 
 280:../Dave/Generated/CMSIS_DSP/FilteringFunctions/arm_conv_partial_q7.c ****     /* count is index by which the pointer pIn1 to be incremented */
 281:../Dave/Generated/CMSIS_DSP/FilteringFunctions/arm_conv_partial_q7.c ****     count = 0u;
 479              	 .loc 1 281 0
 480 03e2 0023     	 movs r3,#0
 481 03e4 C7F85C31 	 str r3,[r7,#348]
 282:../Dave/Generated/CMSIS_DSP/FilteringFunctions/arm_conv_partial_q7.c **** 
 283:../Dave/Generated/CMSIS_DSP/FilteringFunctions/arm_conv_partial_q7.c ****     /* -------------------   
 284:../Dave/Generated/CMSIS_DSP/FilteringFunctions/arm_conv_partial_q7.c ****      * Stage2 process   
 285:../Dave/Generated/CMSIS_DSP/FilteringFunctions/arm_conv_partial_q7.c ****      * ------------------*/
 286:../Dave/Generated/CMSIS_DSP/FilteringFunctions/arm_conv_partial_q7.c **** 
 287:../Dave/Generated/CMSIS_DSP/FilteringFunctions/arm_conv_partial_q7.c ****     /* Stage2 depends on srcBLen as in this stage srcBLen number of MACS are performed.   
 288:../Dave/Generated/CMSIS_DSP/FilteringFunctions/arm_conv_partial_q7.c ****      * So, to loop unroll over blockSize2,   
 289:../Dave/Generated/CMSIS_DSP/FilteringFunctions/arm_conv_partial_q7.c ****      * srcBLen should be greater than or equal to 4 */
 290:../Dave/Generated/CMSIS_DSP/FilteringFunctions/arm_conv_partial_q7.c ****     if(srcBLen >= 4u)
 482              	 .loc 1 290 0
 483 03e8 3B46     	 mov r3,r7
 484 03ea 1B68     	 ldr r3,[r3]
 485 03ec 032B     	 cmp r3,#3
 486 03ee 40F2F983 	 bls .L24
 291:../Dave/Generated/CMSIS_DSP/FilteringFunctions/arm_conv_partial_q7.c ****     {
 292:../Dave/Generated/CMSIS_DSP/FilteringFunctions/arm_conv_partial_q7.c ****       /* Loop unroll over blockSize2, by 4 */
 293:../Dave/Generated/CMSIS_DSP/FilteringFunctions/arm_conv_partial_q7.c ****       blkCnt = ((uint32_t) blockSize2 >> 2u);
 487              	 .loc 1 293 0
 488 03f2 D7F84031 	 ldr r3,[r7,#320]
 489 03f6 9B08     	 lsrs r3,r3,#2
 490 03f8 C7F85831 	 str r3,[r7,#344]
 294:../Dave/Generated/CMSIS_DSP/FilteringFunctions/arm_conv_partial_q7.c **** 
 295:../Dave/Generated/CMSIS_DSP/FilteringFunctions/arm_conv_partial_q7.c ****       while(blkCnt > 0u)
 491              	 .loc 1 295 0
 492 03fc CFE2     	 b .L25
 493              	.L37:
 296:../Dave/Generated/CMSIS_DSP/FilteringFunctions/arm_conv_partial_q7.c ****       {
 297:../Dave/Generated/CMSIS_DSP/FilteringFunctions/arm_conv_partial_q7.c ****         /* Set all accumulators to zero */
 298:../Dave/Generated/CMSIS_DSP/FilteringFunctions/arm_conv_partial_q7.c ****         acc0 = 0;
 494              	 .loc 1 298 0
 495 03fe 0023     	 movs r3,#0
 496 0400 C7F87431 	 str r3,[r7,#372]
 299:../Dave/Generated/CMSIS_DSP/FilteringFunctions/arm_conv_partial_q7.c ****         acc1 = 0;
 497              	 .loc 1 299 0
 498 0404 0023     	 movs r3,#0
 499 0406 C7F87031 	 str r3,[r7,#368]
 300:../Dave/Generated/CMSIS_DSP/FilteringFunctions/arm_conv_partial_q7.c ****         acc2 = 0;
 500              	 .loc 1 300 0
 501 040a 0023     	 movs r3,#0
 502 040c C7F86C31 	 str r3,[r7,#364]
 301:../Dave/Generated/CMSIS_DSP/FilteringFunctions/arm_conv_partial_q7.c ****         acc3 = 0;
 503              	 .loc 1 301 0
 504 0410 0023     	 movs r3,#0
 505 0412 C7F86831 	 str r3,[r7,#360]
 302:../Dave/Generated/CMSIS_DSP/FilteringFunctions/arm_conv_partial_q7.c **** 
 303:../Dave/Generated/CMSIS_DSP/FilteringFunctions/arm_conv_partial_q7.c ****         /* read x[0], x[1], x[2] samples */
 304:../Dave/Generated/CMSIS_DSP/FilteringFunctions/arm_conv_partial_q7.c ****         x0 = *(px++);
 506              	 .loc 1 304 0
 507 0416 D7F88831 	 ldr r3,[r7,#392]
 508 041a 5A1C     	 adds r2,r3,#1
 509 041c C7F88821 	 str r2,[r7,#392]
 510 0420 1B78     	 ldrb r3,[r3]
 511 0422 87F86731 	 strb r3,[r7,#359]
 305:../Dave/Generated/CMSIS_DSP/FilteringFunctions/arm_conv_partial_q7.c ****         x1 = *(px++);
 512              	 .loc 1 305 0
 513 0426 D7F88831 	 ldr r3,[r7,#392]
 514 042a 5A1C     	 adds r2,r3,#1
 515 042c C7F88821 	 str r2,[r7,#392]
 516 0430 1B78     	 ldrb r3,[r3]
 517 0432 87F86631 	 strb r3,[r7,#358]
 306:../Dave/Generated/CMSIS_DSP/FilteringFunctions/arm_conv_partial_q7.c ****         x2 = *(px++);
 518              	 .loc 1 306 0
 519 0436 D7F88831 	 ldr r3,[r7,#392]
 520 043a 5A1C     	 adds r2,r3,#1
 521 043c C7F88821 	 str r2,[r7,#392]
 522 0440 1B78     	 ldrb r3,[r3]
 523 0442 87F86531 	 strb r3,[r7,#357]
 307:../Dave/Generated/CMSIS_DSP/FilteringFunctions/arm_conv_partial_q7.c **** 
 308:../Dave/Generated/CMSIS_DSP/FilteringFunctions/arm_conv_partial_q7.c ****         /* Apply loop unrolling and compute 4 MACs simultaneously. */
 309:../Dave/Generated/CMSIS_DSP/FilteringFunctions/arm_conv_partial_q7.c ****         k = srcBLen >> 2u;
 524              	 .loc 1 309 0
 525 0446 3B46     	 mov r3,r7
 526 0448 1B68     	 ldr r3,[r3]
 527 044a 9B08     	 lsrs r3,r3,#2
 528 044c C7F86031 	 str r3,[r7,#352]
 529              	.L34:
 310:../Dave/Generated/CMSIS_DSP/FilteringFunctions/arm_conv_partial_q7.c **** 
 311:../Dave/Generated/CMSIS_DSP/FilteringFunctions/arm_conv_partial_q7.c ****         /* First part of the processing with loop unrolling.  Compute 4 MACs at a time.   
 312:../Dave/Generated/CMSIS_DSP/FilteringFunctions/arm_conv_partial_q7.c ****          ** a second loop below computes MACs for the remaining 1 to 3 samples. */
 313:../Dave/Generated/CMSIS_DSP/FilteringFunctions/arm_conv_partial_q7.c ****         do
 314:../Dave/Generated/CMSIS_DSP/FilteringFunctions/arm_conv_partial_q7.c ****         {
 315:../Dave/Generated/CMSIS_DSP/FilteringFunctions/arm_conv_partial_q7.c ****           /* Read y[srcBLen - 1] sample */
 316:../Dave/Generated/CMSIS_DSP/FilteringFunctions/arm_conv_partial_q7.c ****           c0 = *(py--);
 530              	 .loc 1 316 0 discriminator 1
 531 0450 D7F88431 	 ldr r3,[r7,#388]
 532 0454 5A1E     	 subs r2,r3,#1
 533 0456 C7F88421 	 str r2,[r7,#388]
 534 045a 1B78     	 ldrb r3,[r3]
 535 045c 87F82B31 	 strb r3,[r7,#299]
 317:../Dave/Generated/CMSIS_DSP/FilteringFunctions/arm_conv_partial_q7.c ****           /* Read y[srcBLen - 2] sample */
 318:../Dave/Generated/CMSIS_DSP/FilteringFunctions/arm_conv_partial_q7.c ****           c1 = *(py--);
 536              	 .loc 1 318 0 discriminator 1
 537 0460 D7F88431 	 ldr r3,[r7,#388]
 538 0464 5A1E     	 subs r2,r3,#1
 539 0466 C7F88421 	 str r2,[r7,#388]
 540 046a 1B78     	 ldrb r3,[r3]
 541 046c 87F82A31 	 strb r3,[r7,#298]
 319:../Dave/Generated/CMSIS_DSP/FilteringFunctions/arm_conv_partial_q7.c **** 
 320:../Dave/Generated/CMSIS_DSP/FilteringFunctions/arm_conv_partial_q7.c ****           /* Read x[3] sample */
 321:../Dave/Generated/CMSIS_DSP/FilteringFunctions/arm_conv_partial_q7.c ****           x3 = *(px++);
 542              	 .loc 1 321 0 discriminator 1
 543 0470 D7F88831 	 ldr r3,[r7,#392]
 544 0474 5A1C     	 adds r2,r3,#1
 545 0476 C7F88821 	 str r2,[r7,#392]
 546 047a 1B78     	 ldrb r3,[r3]
 547 047c 87F82931 	 strb r3,[r7,#297]
 322:../Dave/Generated/CMSIS_DSP/FilteringFunctions/arm_conv_partial_q7.c **** 
 323:../Dave/Generated/CMSIS_DSP/FilteringFunctions/arm_conv_partial_q7.c ****           /* x[0] and x[1] are packed */
 324:../Dave/Generated/CMSIS_DSP/FilteringFunctions/arm_conv_partial_q7.c ****           in1 = (q15_t) x0;
 548              	 .loc 1 324 0 discriminator 1
 549 0480 97F96731 	 ldrsb r3,[r7,#359]
 550 0484 A7F83E31 	 strh r3,[r7,#318]
 325:../Dave/Generated/CMSIS_DSP/FilteringFunctions/arm_conv_partial_q7.c ****           in2 = (q15_t) x1;
 551              	 .loc 1 325 0 discriminator 1
 552 0488 97F96631 	 ldrsb r3,[r7,#358]
 553 048c A7F83C31 	 strh r3,[r7,#316]
 326:../Dave/Generated/CMSIS_DSP/FilteringFunctions/arm_conv_partial_q7.c **** 
 327:../Dave/Generated/CMSIS_DSP/FilteringFunctions/arm_conv_partial_q7.c ****           input1 = ((q31_t) in1 & 0x0000FFFF) | ((q31_t) in2 << 16);
 554              	 .loc 1 327 0 discriminator 1
 555 0490 B7F93E31 	 ldrsh r3,[r7,#318]
 556 0494 9AB2     	 uxth r2,r3
 557 0496 B7F93C31 	 ldrsh r3,[r7,#316]
 558 049a 1B04     	 lsls r3,r3,#16
 559 049c 1343     	 orrs r3,r3,r2
 560 049e C7F83831 	 str r3,[r7,#312]
 328:../Dave/Generated/CMSIS_DSP/FilteringFunctions/arm_conv_partial_q7.c **** 
 329:../Dave/Generated/CMSIS_DSP/FilteringFunctions/arm_conv_partial_q7.c ****           /* y[srcBLen - 1]   and y[srcBLen - 2] are packed */
 330:../Dave/Generated/CMSIS_DSP/FilteringFunctions/arm_conv_partial_q7.c ****           in1 = (q15_t) c0;
 561              	 .loc 1 330 0 discriminator 1
 562 04a2 97F92B31 	 ldrsb r3,[r7,#299]
 563 04a6 A7F83E31 	 strh r3,[r7,#318]
 331:../Dave/Generated/CMSIS_DSP/FilteringFunctions/arm_conv_partial_q7.c ****           in2 = (q15_t) c1;
 564              	 .loc 1 331 0 discriminator 1
 565 04aa 97F92A31 	 ldrsb r3,[r7,#298]
 566 04ae A7F83C31 	 strh r3,[r7,#316]
 332:../Dave/Generated/CMSIS_DSP/FilteringFunctions/arm_conv_partial_q7.c **** 
 333:../Dave/Generated/CMSIS_DSP/FilteringFunctions/arm_conv_partial_q7.c ****           input2 = ((q31_t) in1 & 0x0000FFFF) | ((q31_t) in2 << 16);
 567              	 .loc 1 333 0 discriminator 1
 568 04b2 B7F93E31 	 ldrsh r3,[r7,#318]
 569 04b6 9AB2     	 uxth r2,r3
 570 04b8 B7F93C31 	 ldrsh r3,[r7,#316]
 571 04bc 1B04     	 lsls r3,r3,#16
 572 04be 1343     	 orrs r3,r3,r2
 573 04c0 C7F83431 	 str r3,[r7,#308]
 334:../Dave/Generated/CMSIS_DSP/FilteringFunctions/arm_conv_partial_q7.c **** 
 335:../Dave/Generated/CMSIS_DSP/FilteringFunctions/arm_conv_partial_q7.c ****           /* acc0 += x[0] * y[srcBLen - 1] + x[1] * y[srcBLen - 2]  */
 336:../Dave/Generated/CMSIS_DSP/FilteringFunctions/arm_conv_partial_q7.c ****           acc0 = __SMLAD(input1, input2, acc0);
 574              	 .loc 1 336 0 discriminator 1
 575 04c4 D7F83811 	 ldr r1,[r7,#312]
 576 04c8 D7F83421 	 ldr r2,[r7,#308]
 577 04cc D7F87431 	 ldr r3,[r7,#372]
 578 04d0 C7F8CC10 	 str r1,[r7,#204]
 579 04d4 C7F8C820 	 str r2,[r7,#200]
 580 04d8 C7F8C430 	 str r3,[r7,#196]
 581              	.LBB43:
 582              	.LBB44:
 507:C:\Users\Depes Crystalline\Desktop\school\Active_Bike_Lighting_System\Radar_Core/Libraries/CMSIS/Include\core_cmSimd.h ****   return(result);
 583              	 .loc 2 507 0 discriminator 1
 584 04dc D7F8CC30 	 ldr r3,[r7,#204]
 585 04e0 D7F8C820 	 ldr r2,[r7,#200]
 586 04e4 D7F8C410 	 ldr r1,[r7,#196]
 587              	
 588 04e8 23FB0213 	 smlad r3,r3,r2,r1
 589              	
 590              	 .thumb
 591 04ec C7F8C030 	 str r3,[r7,#192]
 592              	 .loc 2 508 0 discriminator 1
 593 04f0 D7F8C030 	 ldr r3,[r7,#192]
 594              	.LBE44:
 595              	.LBE43:
 596              	 .loc 1 336 0 discriminator 1
 597 04f4 C7F87431 	 str r3,[r7,#372]
 337:../Dave/Generated/CMSIS_DSP/FilteringFunctions/arm_conv_partial_q7.c **** 
 338:../Dave/Generated/CMSIS_DSP/FilteringFunctions/arm_conv_partial_q7.c ****           /* x[1] and x[2] are packed */
 339:../Dave/Generated/CMSIS_DSP/FilteringFunctions/arm_conv_partial_q7.c ****           in1 = (q15_t) x1;
 598              	 .loc 1 339 0 discriminator 1
 599 04f8 97F96631 	 ldrsb r3,[r7,#358]
 600 04fc A7F83E31 	 strh r3,[r7,#318]
 340:../Dave/Generated/CMSIS_DSP/FilteringFunctions/arm_conv_partial_q7.c ****           in2 = (q15_t) x2;
 601              	 .loc 1 340 0 discriminator 1
 602 0500 97F96531 	 ldrsb r3,[r7,#357]
 603 0504 A7F83C31 	 strh r3,[r7,#316]
 341:../Dave/Generated/CMSIS_DSP/FilteringFunctions/arm_conv_partial_q7.c **** 
 342:../Dave/Generated/CMSIS_DSP/FilteringFunctions/arm_conv_partial_q7.c ****           input1 = ((q31_t) in1 & 0x0000FFFF) | ((q31_t) in2 << 16);
 604              	 .loc 1 342 0 discriminator 1
 605 0508 B7F93E31 	 ldrsh r3,[r7,#318]
 606 050c 9AB2     	 uxth r2,r3
 607 050e B7F93C31 	 ldrsh r3,[r7,#316]
 608 0512 1B04     	 lsls r3,r3,#16
 609 0514 1343     	 orrs r3,r3,r2
 610 0516 C7F83831 	 str r3,[r7,#312]
 343:../Dave/Generated/CMSIS_DSP/FilteringFunctions/arm_conv_partial_q7.c **** 
 344:../Dave/Generated/CMSIS_DSP/FilteringFunctions/arm_conv_partial_q7.c ****           /* acc1 += x[1] * y[srcBLen - 1] + x[2] * y[srcBLen - 2]  */
 345:../Dave/Generated/CMSIS_DSP/FilteringFunctions/arm_conv_partial_q7.c ****           acc1 = __SMLAD(input1, input2, acc1);
 611              	 .loc 1 345 0 discriminator 1
 612 051a D7F83811 	 ldr r1,[r7,#312]
 613 051e D7F83421 	 ldr r2,[r7,#308]
 614 0522 D7F87031 	 ldr r3,[r7,#368]
 615 0526 C7F8BC10 	 str r1,[r7,#188]
 616 052a C7F8B820 	 str r2,[r7,#184]
 617 052e C7F8B430 	 str r3,[r7,#180]
 618              	.LBB45:
 619              	.LBB46:
 507:C:\Users\Depes Crystalline\Desktop\school\Active_Bike_Lighting_System\Radar_Core/Libraries/CMSIS/Include\core_cmSimd.h ****   return(result);
 620              	 .loc 2 507 0 discriminator 1
 621 0532 D7F8BC30 	 ldr r3,[r7,#188]
 622 0536 D7F8B820 	 ldr r2,[r7,#184]
 623 053a D7F8B410 	 ldr r1,[r7,#180]
 624              	
 625 053e 23FB0213 	 smlad r3,r3,r2,r1
 626              	
 627              	 .thumb
 628 0542 C7F8B030 	 str r3,[r7,#176]
 629              	 .loc 2 508 0 discriminator 1
 630 0546 D7F8B030 	 ldr r3,[r7,#176]
 631              	.LBE46:
 632              	.LBE45:
 633              	 .loc 1 345 0 discriminator 1
 634 054a C7F87031 	 str r3,[r7,#368]
 346:../Dave/Generated/CMSIS_DSP/FilteringFunctions/arm_conv_partial_q7.c **** 
 347:../Dave/Generated/CMSIS_DSP/FilteringFunctions/arm_conv_partial_q7.c ****           /* x[2] and x[3] are packed */
 348:../Dave/Generated/CMSIS_DSP/FilteringFunctions/arm_conv_partial_q7.c ****           in1 = (q15_t) x2;
 635              	 .loc 1 348 0 discriminator 1
 636 054e 97F96531 	 ldrsb r3,[r7,#357]
 637 0552 A7F83E31 	 strh r3,[r7,#318]
 349:../Dave/Generated/CMSIS_DSP/FilteringFunctions/arm_conv_partial_q7.c ****           in2 = (q15_t) x3;
 638              	 .loc 1 349 0 discriminator 1
 639 0556 97F92931 	 ldrsb r3,[r7,#297]
 640 055a A7F83C31 	 strh r3,[r7,#316]
 350:../Dave/Generated/CMSIS_DSP/FilteringFunctions/arm_conv_partial_q7.c **** 
 351:../Dave/Generated/CMSIS_DSP/FilteringFunctions/arm_conv_partial_q7.c ****           input1 = ((q31_t) in1 & 0x0000FFFF) | ((q31_t) in2 << 16);
 641              	 .loc 1 351 0 discriminator 1
 642 055e B7F93E31 	 ldrsh r3,[r7,#318]
 643 0562 9AB2     	 uxth r2,r3
 644 0564 B7F93C31 	 ldrsh r3,[r7,#316]
 645 0568 1B04     	 lsls r3,r3,#16
 646 056a 1343     	 orrs r3,r3,r2
 647 056c C7F83831 	 str r3,[r7,#312]
 352:../Dave/Generated/CMSIS_DSP/FilteringFunctions/arm_conv_partial_q7.c **** 
 353:../Dave/Generated/CMSIS_DSP/FilteringFunctions/arm_conv_partial_q7.c ****           /* acc2 += x[2] * y[srcBLen - 1] + x[3] * y[srcBLen - 2]  */
 354:../Dave/Generated/CMSIS_DSP/FilteringFunctions/arm_conv_partial_q7.c ****           acc2 = __SMLAD(input1, input2, acc2);
 648              	 .loc 1 354 0 discriminator 1
 649 0570 D7F83811 	 ldr r1,[r7,#312]
 650 0574 D7F83421 	 ldr r2,[r7,#308]
 651 0578 D7F86C31 	 ldr r3,[r7,#364]
 652 057c C7F8AC10 	 str r1,[r7,#172]
 653 0580 C7F8A820 	 str r2,[r7,#168]
 654 0584 C7F8A430 	 str r3,[r7,#164]
 655              	.LBB47:
 656              	.LBB48:
 507:C:\Users\Depes Crystalline\Desktop\school\Active_Bike_Lighting_System\Radar_Core/Libraries/CMSIS/Include\core_cmSimd.h ****   return(result);
 657              	 .loc 2 507 0 discriminator 1
 658 0588 D7F8AC30 	 ldr r3,[r7,#172]
 659 058c D7F8A820 	 ldr r2,[r7,#168]
 660 0590 D7F8A410 	 ldr r1,[r7,#164]
 661              	
 662 0594 23FB0213 	 smlad r3,r3,r2,r1
 663              	
 664              	 .thumb
 665 0598 C7F8A030 	 str r3,[r7,#160]
 666              	 .loc 2 508 0 discriminator 1
 667 059c D7F8A030 	 ldr r3,[r7,#160]
 668              	.LBE48:
 669              	.LBE47:
 670              	 .loc 1 354 0 discriminator 1
 671 05a0 C7F86C31 	 str r3,[r7,#364]
 355:../Dave/Generated/CMSIS_DSP/FilteringFunctions/arm_conv_partial_q7.c **** 
 356:../Dave/Generated/CMSIS_DSP/FilteringFunctions/arm_conv_partial_q7.c ****           /* Read x[4] sample */
 357:../Dave/Generated/CMSIS_DSP/FilteringFunctions/arm_conv_partial_q7.c ****           x0 = *(px++);
 672              	 .loc 1 357 0 discriminator 1
 673 05a4 D7F88831 	 ldr r3,[r7,#392]
 674 05a8 5A1C     	 adds r2,r3,#1
 675 05aa C7F88821 	 str r2,[r7,#392]
 676 05ae 1B78     	 ldrb r3,[r3]
 677 05b0 87F86731 	 strb r3,[r7,#359]
 358:../Dave/Generated/CMSIS_DSP/FilteringFunctions/arm_conv_partial_q7.c **** 
 359:../Dave/Generated/CMSIS_DSP/FilteringFunctions/arm_conv_partial_q7.c ****           /* x[3] and x[4] are packed */
 360:../Dave/Generated/CMSIS_DSP/FilteringFunctions/arm_conv_partial_q7.c ****           in1 = (q15_t) x3;
 678              	 .loc 1 360 0 discriminator 1
 679 05b4 97F92931 	 ldrsb r3,[r7,#297]
 680 05b8 A7F83E31 	 strh r3,[r7,#318]
 361:../Dave/Generated/CMSIS_DSP/FilteringFunctions/arm_conv_partial_q7.c ****           in2 = (q15_t) x0;
 681              	 .loc 1 361 0 discriminator 1
 682 05bc 97F96731 	 ldrsb r3,[r7,#359]
 683 05c0 A7F83C31 	 strh r3,[r7,#316]
 362:../Dave/Generated/CMSIS_DSP/FilteringFunctions/arm_conv_partial_q7.c **** 
 363:../Dave/Generated/CMSIS_DSP/FilteringFunctions/arm_conv_partial_q7.c ****           input1 = ((q31_t) in1 & 0x0000FFFF) | ((q31_t) in2 << 16);
 684              	 .loc 1 363 0 discriminator 1
 685 05c4 B7F93E31 	 ldrsh r3,[r7,#318]
 686 05c8 9AB2     	 uxth r2,r3
 687 05ca B7F93C31 	 ldrsh r3,[r7,#316]
 688 05ce 1B04     	 lsls r3,r3,#16
 689 05d0 1343     	 orrs r3,r3,r2
 690 05d2 C7F83831 	 str r3,[r7,#312]
 364:../Dave/Generated/CMSIS_DSP/FilteringFunctions/arm_conv_partial_q7.c **** 
 365:../Dave/Generated/CMSIS_DSP/FilteringFunctions/arm_conv_partial_q7.c ****           /* acc3 += x[3] * y[srcBLen - 1] + x[4] * y[srcBLen - 2]  */
 366:../Dave/Generated/CMSIS_DSP/FilteringFunctions/arm_conv_partial_q7.c ****           acc3 = __SMLAD(input1, input2, acc3);
 691              	 .loc 1 366 0 discriminator 1
 692 05d6 D7F83831 	 ldr r3,[r7,#312]
 693 05da D7F83411 	 ldr r1,[r7,#308]
 694 05de D7F86821 	 ldr r2,[r7,#360]
 695 05e2 C7F89C30 	 str r3,[r7,#156]
 696 05e6 07F19803 	 add r3,r7,#152
 697 05ea 1960     	 str r1,[r3]
 698 05ec 07F19403 	 add r3,r7,#148
 699 05f0 1A60     	 str r2,[r3]
 700              	.LBB49:
 701              	.LBB50:
 507:C:\Users\Depes Crystalline\Desktop\school\Active_Bike_Lighting_System\Radar_Core/Libraries/CMSIS/Include\core_cmSimd.h ****   return(result);
 702              	 .loc 2 507 0 discriminator 1
 703 05f2 D7F89C30 	 ldr r3,[r7,#156]
 704 05f6 07F19802 	 add r2,r7,#152
 705 05fa 1268     	 ldr r2,[r2]
 706 05fc 07F19401 	 add r1,r7,#148
 707 0600 0968     	 ldr r1,[r1]
 708              	
 709 0602 23FB0212 	 smlad r2,r3,r2,r1
 710              	
 711              	 .thumb
 712 0606 07F19003 	 add r3,r7,#144
 713 060a 1A60     	 str r2,[r3]
 714              	 .loc 2 508 0 discriminator 1
 715 060c 07F19003 	 add r3,r7,#144
 716 0610 1B68     	 ldr r3,[r3]
 717              	.LBE50:
 718              	.LBE49:
 719              	 .loc 1 366 0 discriminator 1
 720 0612 C7F86831 	 str r3,[r7,#360]
 367:../Dave/Generated/CMSIS_DSP/FilteringFunctions/arm_conv_partial_q7.c **** 
 368:../Dave/Generated/CMSIS_DSP/FilteringFunctions/arm_conv_partial_q7.c ****           /* Read y[srcBLen - 3] sample */
 369:../Dave/Generated/CMSIS_DSP/FilteringFunctions/arm_conv_partial_q7.c ****           c0 = *(py--);
 721              	 .loc 1 369 0 discriminator 1
 722 0616 D7F88431 	 ldr r3,[r7,#388]
 723 061a 5A1E     	 subs r2,r3,#1
 724 061c C7F88421 	 str r2,[r7,#388]
 725 0620 1B78     	 ldrb r3,[r3]
 726 0622 87F82B31 	 strb r3,[r7,#299]
 370:../Dave/Generated/CMSIS_DSP/FilteringFunctions/arm_conv_partial_q7.c ****           /* Read y[srcBLen - 4] sample */
 371:../Dave/Generated/CMSIS_DSP/FilteringFunctions/arm_conv_partial_q7.c ****           c1 = *(py--);
 727              	 .loc 1 371 0 discriminator 1
 728 0626 D7F88431 	 ldr r3,[r7,#388]
 729 062a 5A1E     	 subs r2,r3,#1
 730 062c C7F88421 	 str r2,[r7,#388]
 731 0630 1B78     	 ldrb r3,[r3]
 732 0632 87F82A31 	 strb r3,[r7,#298]
 372:../Dave/Generated/CMSIS_DSP/FilteringFunctions/arm_conv_partial_q7.c **** 
 373:../Dave/Generated/CMSIS_DSP/FilteringFunctions/arm_conv_partial_q7.c ****           /* Read x[5] sample */
 374:../Dave/Generated/CMSIS_DSP/FilteringFunctions/arm_conv_partial_q7.c ****           x1 = *(px++);
 733              	 .loc 1 374 0 discriminator 1
 734 0636 D7F88831 	 ldr r3,[r7,#392]
 735 063a 5A1C     	 adds r2,r3,#1
 736 063c C7F88821 	 str r2,[r7,#392]
 737 0640 1B78     	 ldrb r3,[r3]
 738 0642 87F86631 	 strb r3,[r7,#358]
 375:../Dave/Generated/CMSIS_DSP/FilteringFunctions/arm_conv_partial_q7.c **** 
 376:../Dave/Generated/CMSIS_DSP/FilteringFunctions/arm_conv_partial_q7.c ****           /* x[2] and x[3] are packed */
 377:../Dave/Generated/CMSIS_DSP/FilteringFunctions/arm_conv_partial_q7.c ****           in1 = (q15_t) x2;
 739              	 .loc 1 377 0 discriminator 1
 740 0646 97F96531 	 ldrsb r3,[r7,#357]
 741 064a A7F83E31 	 strh r3,[r7,#318]
 378:../Dave/Generated/CMSIS_DSP/FilteringFunctions/arm_conv_partial_q7.c ****           in2 = (q15_t) x3;
 742              	 .loc 1 378 0 discriminator 1
 743 064e 97F92931 	 ldrsb r3,[r7,#297]
 744 0652 A7F83C31 	 strh r3,[r7,#316]
 379:../Dave/Generated/CMSIS_DSP/FilteringFunctions/arm_conv_partial_q7.c **** 
 380:../Dave/Generated/CMSIS_DSP/FilteringFunctions/arm_conv_partial_q7.c ****           input1 = ((q31_t) in1 & 0x0000FFFF) | ((q31_t) in2 << 16);
 745              	 .loc 1 380 0 discriminator 1
 746 0656 B7F93E31 	 ldrsh r3,[r7,#318]
 747 065a 9AB2     	 uxth r2,r3
 748 065c B7F93C31 	 ldrsh r3,[r7,#316]
 749 0660 1B04     	 lsls r3,r3,#16
 750 0662 1343     	 orrs r3,r3,r2
 751 0664 C7F83831 	 str r3,[r7,#312]
 381:../Dave/Generated/CMSIS_DSP/FilteringFunctions/arm_conv_partial_q7.c **** 
 382:../Dave/Generated/CMSIS_DSP/FilteringFunctions/arm_conv_partial_q7.c ****           /* y[srcBLen - 3] and y[srcBLen - 4] are packed */
 383:../Dave/Generated/CMSIS_DSP/FilteringFunctions/arm_conv_partial_q7.c ****           in1 = (q15_t) c0;
 752              	 .loc 1 383 0 discriminator 1
 753 0668 97F92B31 	 ldrsb r3,[r7,#299]
 754 066c A7F83E31 	 strh r3,[r7,#318]
 384:../Dave/Generated/CMSIS_DSP/FilteringFunctions/arm_conv_partial_q7.c ****           in2 = (q15_t) c1;
 755              	 .loc 1 384 0 discriminator 1
 756 0670 97F92A31 	 ldrsb r3,[r7,#298]
 757 0674 A7F83C31 	 strh r3,[r7,#316]
 385:../Dave/Generated/CMSIS_DSP/FilteringFunctions/arm_conv_partial_q7.c **** 
 386:../Dave/Generated/CMSIS_DSP/FilteringFunctions/arm_conv_partial_q7.c ****           input2 = ((q31_t) in1 & 0x0000FFFF) | ((q31_t) in2 << 16);
 758              	 .loc 1 386 0 discriminator 1
 759 0678 B7F93E31 	 ldrsh r3,[r7,#318]
 760 067c 9AB2     	 uxth r2,r3
 761 067e B7F93C31 	 ldrsh r3,[r7,#316]
 762 0682 1B04     	 lsls r3,r3,#16
 763 0684 1343     	 orrs r3,r3,r2
 764 0686 C7F83431 	 str r3,[r7,#308]
 387:../Dave/Generated/CMSIS_DSP/FilteringFunctions/arm_conv_partial_q7.c **** 
 388:../Dave/Generated/CMSIS_DSP/FilteringFunctions/arm_conv_partial_q7.c ****           /* acc0 += x[2] * y[srcBLen - 3] + x[3] * y[srcBLen - 4]  */
 389:../Dave/Generated/CMSIS_DSP/FilteringFunctions/arm_conv_partial_q7.c ****           acc0 = __SMLAD(input1, input2, acc0);
 765              	 .loc 1 389 0 discriminator 1
 766 068a D7F83801 	 ldr r0,[r7,#312]
 767 068e D7F83411 	 ldr r1,[r7,#308]
 768 0692 D7F87421 	 ldr r2,[r7,#372]
 769 0696 07F18C03 	 add r3,r7,#140
 770 069a 1860     	 str r0,[r3]
 771 069c 07F18803 	 add r3,r7,#136
 772 06a0 1960     	 str r1,[r3]
 773 06a2 07F18403 	 add r3,r7,#132
 774 06a6 1A60     	 str r2,[r3]
 775              	.LBB51:
 776              	.LBB52:
 507:C:\Users\Depes Crystalline\Desktop\school\Active_Bike_Lighting_System\Radar_Core/Libraries/CMSIS/Include\core_cmSimd.h ****   return(result);
 777              	 .loc 2 507 0 discriminator 1
 778 06a8 07F18C03 	 add r3,r7,#140
 779 06ac 1B68     	 ldr r3,[r3]
 780 06ae 07F18802 	 add r2,r7,#136
 781 06b2 1268     	 ldr r2,[r2]
 782 06b4 07F18401 	 add r1,r7,#132
 783 06b8 0968     	 ldr r1,[r1]
 784              	
 785 06ba 23FB0212 	 smlad r2,r3,r2,r1
 786              	
 787              	 .thumb
 788 06be 07F18003 	 add r3,r7,#128
 789 06c2 1A60     	 str r2,[r3]
 790              	 .loc 2 508 0 discriminator 1
 791 06c4 07F18003 	 add r3,r7,#128
 792 06c8 1B68     	 ldr r3,[r3]
 793              	.LBE52:
 794              	.LBE51:
 795              	 .loc 1 389 0 discriminator 1
 796 06ca C7F87431 	 str r3,[r7,#372]
 390:../Dave/Generated/CMSIS_DSP/FilteringFunctions/arm_conv_partial_q7.c **** 
 391:../Dave/Generated/CMSIS_DSP/FilteringFunctions/arm_conv_partial_q7.c ****           /* x[3] and x[4] are packed */
 392:../Dave/Generated/CMSIS_DSP/FilteringFunctions/arm_conv_partial_q7.c ****           in1 = (q15_t) x3;
 797              	 .loc 1 392 0 discriminator 1
 798 06ce 97F92931 	 ldrsb r3,[r7,#297]
 799 06d2 A7F83E31 	 strh r3,[r7,#318]
 393:../Dave/Generated/CMSIS_DSP/FilteringFunctions/arm_conv_partial_q7.c ****           in2 = (q15_t) x0;
 800              	 .loc 1 393 0 discriminator 1
 801 06d6 97F96731 	 ldrsb r3,[r7,#359]
 802 06da A7F83C31 	 strh r3,[r7,#316]
 394:../Dave/Generated/CMSIS_DSP/FilteringFunctions/arm_conv_partial_q7.c **** 
 395:../Dave/Generated/CMSIS_DSP/FilteringFunctions/arm_conv_partial_q7.c ****           input1 = ((q31_t) in1 & 0x0000FFFF) | ((q31_t) in2 << 16);
 803              	 .loc 1 395 0 discriminator 1
 804 06de B7F93E31 	 ldrsh r3,[r7,#318]
 805 06e2 9AB2     	 uxth r2,r3
 806 06e4 B7F93C31 	 ldrsh r3,[r7,#316]
 807 06e8 1B04     	 lsls r3,r3,#16
 808 06ea 1343     	 orrs r3,r3,r2
 809 06ec C7F83831 	 str r3,[r7,#312]
 396:../Dave/Generated/CMSIS_DSP/FilteringFunctions/arm_conv_partial_q7.c **** 
 397:../Dave/Generated/CMSIS_DSP/FilteringFunctions/arm_conv_partial_q7.c ****           /* acc1 += x[3] * y[srcBLen - 3] + x[4] * y[srcBLen - 4]  */
 398:../Dave/Generated/CMSIS_DSP/FilteringFunctions/arm_conv_partial_q7.c ****           acc1 = __SMLAD(input1, input2, acc1);
 810              	 .loc 1 398 0 discriminator 1
 811 06f0 D7F83801 	 ldr r0,[r7,#312]
 812 06f4 D7F83411 	 ldr r1,[r7,#308]
 813 06f8 D7F87021 	 ldr r2,[r7,#368]
 814 06fc 07F17C03 	 add r3,r7,#124
 815 0700 1860     	 str r0,[r3]
 816 0702 07F17803 	 add r3,r7,#120
 817 0706 1960     	 str r1,[r3]
 818 0708 07F17403 	 add r3,r7,#116
 819 070c 1A60     	 str r2,[r3]
 820              	.LBB53:
 821              	.LBB54:
 507:C:\Users\Depes Crystalline\Desktop\school\Active_Bike_Lighting_System\Radar_Core/Libraries/CMSIS/Include\core_cmSimd.h ****   return(result);
 822              	 .loc 2 507 0 discriminator 1
 823 070e 07F17C03 	 add r3,r7,#124
 824 0712 1B68     	 ldr r3,[r3]
 825 0714 07F17802 	 add r2,r7,#120
 826 0718 1268     	 ldr r2,[r2]
 827 071a 07F17401 	 add r1,r7,#116
 828 071e 0968     	 ldr r1,[r1]
 829              	
 830 0720 23FB0212 	 smlad r2,r3,r2,r1
 831              	
 832              	 .thumb
 833 0724 07F17003 	 add r3,r7,#112
 834 0728 1A60     	 str r2,[r3]
 835              	 .loc 2 508 0 discriminator 1
 836 072a 07F17003 	 add r3,r7,#112
 837 072e 1B68     	 ldr r3,[r3]
 838              	.LBE54:
 839              	.LBE53:
 840              	 .loc 1 398 0 discriminator 1
 841 0730 C7F87031 	 str r3,[r7,#368]
 399:../Dave/Generated/CMSIS_DSP/FilteringFunctions/arm_conv_partial_q7.c **** 
 400:../Dave/Generated/CMSIS_DSP/FilteringFunctions/arm_conv_partial_q7.c ****           /* x[4] and x[5] are packed */
 401:../Dave/Generated/CMSIS_DSP/FilteringFunctions/arm_conv_partial_q7.c ****           in1 = (q15_t) x0;
 842              	 .loc 1 401 0 discriminator 1
 843 0734 97F96731 	 ldrsb r3,[r7,#359]
 844 0738 A7F83E31 	 strh r3,[r7,#318]
 402:../Dave/Generated/CMSIS_DSP/FilteringFunctions/arm_conv_partial_q7.c ****           in2 = (q15_t) x1;
 845              	 .loc 1 402 0 discriminator 1
 846 073c 97F96631 	 ldrsb r3,[r7,#358]
 847 0740 A7F83C31 	 strh r3,[r7,#316]
 403:../Dave/Generated/CMSIS_DSP/FilteringFunctions/arm_conv_partial_q7.c **** 
 404:../Dave/Generated/CMSIS_DSP/FilteringFunctions/arm_conv_partial_q7.c ****           input1 = ((q31_t) in1 & 0x0000FFFF) | ((q31_t) in2 << 16);
 848              	 .loc 1 404 0 discriminator 1
 849 0744 B7F93E31 	 ldrsh r3,[r7,#318]
 850 0748 9AB2     	 uxth r2,r3
 851 074a B7F93C31 	 ldrsh r3,[r7,#316]
 852 074e 1B04     	 lsls r3,r3,#16
 853 0750 1343     	 orrs r3,r3,r2
 854 0752 C7F83831 	 str r3,[r7,#312]
 405:../Dave/Generated/CMSIS_DSP/FilteringFunctions/arm_conv_partial_q7.c **** 
 406:../Dave/Generated/CMSIS_DSP/FilteringFunctions/arm_conv_partial_q7.c ****           /* acc2 += x[4] * y[srcBLen - 3] + x[5] * y[srcBLen - 4]  */
 407:../Dave/Generated/CMSIS_DSP/FilteringFunctions/arm_conv_partial_q7.c ****           acc2 = __SMLAD(input1, input2, acc2);
 855              	 .loc 1 407 0 discriminator 1
 856 0756 D7F83801 	 ldr r0,[r7,#312]
 857 075a D7F83411 	 ldr r1,[r7,#308]
 858 075e D7F86C21 	 ldr r2,[r7,#364]
 859 0762 07F16C03 	 add r3,r7,#108
 860 0766 1860     	 str r0,[r3]
 861 0768 07F16803 	 add r3,r7,#104
 862 076c 1960     	 str r1,[r3]
 863 076e 07F16403 	 add r3,r7,#100
 864 0772 1A60     	 str r2,[r3]
 865              	.LBB55:
 866              	.LBB56:
 507:C:\Users\Depes Crystalline\Desktop\school\Active_Bike_Lighting_System\Radar_Core/Libraries/CMSIS/Include\core_cmSimd.h ****   return(result);
 867              	 .loc 2 507 0 discriminator 1
 868 0774 07F16C03 	 add r3,r7,#108
 869 0778 1B68     	 ldr r3,[r3]
 870 077a 07F16802 	 add r2,r7,#104
 871 077e 1268     	 ldr r2,[r2]
 872 0780 07F16401 	 add r1,r7,#100
 873 0784 0968     	 ldr r1,[r1]
 874              	
 875 0786 23FB0212 	 smlad r2,r3,r2,r1
 876              	
 877              	 .thumb
 878 078a 07F16003 	 add r3,r7,#96
 879 078e 1A60     	 str r2,[r3]
 880              	 .loc 2 508 0 discriminator 1
 881 0790 07F16003 	 add r3,r7,#96
 882 0794 1B68     	 ldr r3,[r3]
 883              	.LBE56:
 884              	.LBE55:
 885              	 .loc 1 407 0 discriminator 1
 886 0796 C7F86C31 	 str r3,[r7,#364]
 408:../Dave/Generated/CMSIS_DSP/FilteringFunctions/arm_conv_partial_q7.c **** 
 409:../Dave/Generated/CMSIS_DSP/FilteringFunctions/arm_conv_partial_q7.c ****           /* Read x[6] sample */
 410:../Dave/Generated/CMSIS_DSP/FilteringFunctions/arm_conv_partial_q7.c ****           x2 = *(px++);
 887              	 .loc 1 410 0 discriminator 1
 888 079a D7F88831 	 ldr r3,[r7,#392]
 889 079e 5A1C     	 adds r2,r3,#1
 890 07a0 C7F88821 	 str r2,[r7,#392]
 891 07a4 1B78     	 ldrb r3,[r3]
 892 07a6 87F86531 	 strb r3,[r7,#357]
 411:../Dave/Generated/CMSIS_DSP/FilteringFunctions/arm_conv_partial_q7.c **** 
 412:../Dave/Generated/CMSIS_DSP/FilteringFunctions/arm_conv_partial_q7.c ****           /* x[5] and x[6] are packed */
 413:../Dave/Generated/CMSIS_DSP/FilteringFunctions/arm_conv_partial_q7.c ****           in1 = (q15_t) x1;
 893              	 .loc 1 413 0 discriminator 1
 894 07aa 97F96631 	 ldrsb r3,[r7,#358]
 895 07ae A7F83E31 	 strh r3,[r7,#318]
 414:../Dave/Generated/CMSIS_DSP/FilteringFunctions/arm_conv_partial_q7.c ****           in2 = (q15_t) x2;
 896              	 .loc 1 414 0 discriminator 1
 897 07b2 97F96531 	 ldrsb r3,[r7,#357]
 898 07b6 A7F83C31 	 strh r3,[r7,#316]
 415:../Dave/Generated/CMSIS_DSP/FilteringFunctions/arm_conv_partial_q7.c **** 
 416:../Dave/Generated/CMSIS_DSP/FilteringFunctions/arm_conv_partial_q7.c ****           input1 = ((q31_t) in1 & 0x0000FFFF) | ((q31_t) in2 << 16);
 899              	 .loc 1 416 0 discriminator 1
 900 07ba B7F93E31 	 ldrsh r3,[r7,#318]
 901 07be 9AB2     	 uxth r2,r3
 902 07c0 B7F93C31 	 ldrsh r3,[r7,#316]
 903 07c4 1B04     	 lsls r3,r3,#16
 904 07c6 1343     	 orrs r3,r3,r2
 905 07c8 C7F83831 	 str r3,[r7,#312]
 417:../Dave/Generated/CMSIS_DSP/FilteringFunctions/arm_conv_partial_q7.c **** 
 418:../Dave/Generated/CMSIS_DSP/FilteringFunctions/arm_conv_partial_q7.c ****           /* acc3 += x[5] * y[srcBLen - 3] + x[6] * y[srcBLen - 4]  */
 419:../Dave/Generated/CMSIS_DSP/FilteringFunctions/arm_conv_partial_q7.c ****           acc3 = __SMLAD(input1, input2, acc3);
 906              	 .loc 1 419 0 discriminator 1
 907 07cc D7F83801 	 ldr r0,[r7,#312]
 908 07d0 D7F83411 	 ldr r1,[r7,#308]
 909 07d4 D7F86821 	 ldr r2,[r7,#360]
 910 07d8 07F15C03 	 add r3,r7,#92
 911 07dc 1860     	 str r0,[r3]
 912 07de 07F15803 	 add r3,r7,#88
 913 07e2 1960     	 str r1,[r3]
 914 07e4 07F15403 	 add r3,r7,#84
 915 07e8 1A60     	 str r2,[r3]
 916              	.LBB57:
 917              	.LBB58:
 507:C:\Users\Depes Crystalline\Desktop\school\Active_Bike_Lighting_System\Radar_Core/Libraries/CMSIS/Include\core_cmSimd.h ****   return(result);
 918              	 .loc 2 507 0 discriminator 1
 919 07ea 07F15C03 	 add r3,r7,#92
 920 07ee 1B68     	 ldr r3,[r3]
 921 07f0 07F15802 	 add r2,r7,#88
 922 07f4 1268     	 ldr r2,[r2]
 923 07f6 07F15401 	 add r1,r7,#84
 924 07fa 0968     	 ldr r1,[r1]
 925              	
 926 07fc 23FB0212 	 smlad r2,r3,r2,r1
 927              	
 928              	 .thumb
 929 0800 07F15003 	 add r3,r7,#80
 930 0804 1A60     	 str r2,[r3]
 931              	 .loc 2 508 0 discriminator 1
 932 0806 07F15003 	 add r3,r7,#80
 933 080a 1B68     	 ldr r3,[r3]
 934              	.LBE58:
 935              	.LBE57:
 936              	 .loc 1 419 0 discriminator 1
 937 080c C7F86831 	 str r3,[r7,#360]
 420:../Dave/Generated/CMSIS_DSP/FilteringFunctions/arm_conv_partial_q7.c **** 
 421:../Dave/Generated/CMSIS_DSP/FilteringFunctions/arm_conv_partial_q7.c ****         } while(--k);
 938              	 .loc 1 421 0 discriminator 1
 939 0810 D7F86031 	 ldr r3,[r7,#352]
 940 0814 013B     	 subs r3,r3,#1
 941 0816 C7F86031 	 str r3,[r7,#352]
 942 081a D7F86031 	 ldr r3,[r7,#352]
 943 081e 002B     	 cmp r3,#0
 944 0820 7FF416AE 	 bne .L34
 422:../Dave/Generated/CMSIS_DSP/FilteringFunctions/arm_conv_partial_q7.c **** 
 423:../Dave/Generated/CMSIS_DSP/FilteringFunctions/arm_conv_partial_q7.c ****         /* If the srcBLen is not a multiple of 4, compute any remaining MACs here.   
 424:../Dave/Generated/CMSIS_DSP/FilteringFunctions/arm_conv_partial_q7.c ****          ** No loop unrolling is used. */
 425:../Dave/Generated/CMSIS_DSP/FilteringFunctions/arm_conv_partial_q7.c ****         k = srcBLen % 0x4u;
 945              	 .loc 1 425 0
 946 0824 3B46     	 mov r3,r7
 947 0826 1B68     	 ldr r3,[r3]
 948 0828 03F00303 	 and r3,r3,#3
 949 082c C7F86031 	 str r3,[r7,#352]
 426:../Dave/Generated/CMSIS_DSP/FilteringFunctions/arm_conv_partial_q7.c **** 
 427:../Dave/Generated/CMSIS_DSP/FilteringFunctions/arm_conv_partial_q7.c ****         while(k > 0u)
 950              	 .loc 1 427 0
 951 0830 4CE0     	 b .L35
 952              	.L36:
 428:../Dave/Generated/CMSIS_DSP/FilteringFunctions/arm_conv_partial_q7.c ****         {
 429:../Dave/Generated/CMSIS_DSP/FilteringFunctions/arm_conv_partial_q7.c ****           /* Read y[srcBLen - 5] sample */
 430:../Dave/Generated/CMSIS_DSP/FilteringFunctions/arm_conv_partial_q7.c ****           c0 = *(py--);
 953              	 .loc 1 430 0
 954 0832 D7F88431 	 ldr r3,[r7,#388]
 955 0836 5A1E     	 subs r2,r3,#1
 956 0838 C7F88421 	 str r2,[r7,#388]
 957 083c 1B78     	 ldrb r3,[r3]
 958 083e 87F82B31 	 strb r3,[r7,#299]
 431:../Dave/Generated/CMSIS_DSP/FilteringFunctions/arm_conv_partial_q7.c **** 
 432:../Dave/Generated/CMSIS_DSP/FilteringFunctions/arm_conv_partial_q7.c ****           /* Read x[7] sample */
 433:../Dave/Generated/CMSIS_DSP/FilteringFunctions/arm_conv_partial_q7.c ****           x3 = *(px++);
 959              	 .loc 1 433 0
 960 0842 D7F88831 	 ldr r3,[r7,#392]
 961 0846 5A1C     	 adds r2,r3,#1
 962 0848 C7F88821 	 str r2,[r7,#392]
 963 084c 1B78     	 ldrb r3,[r3]
 964 084e 87F82931 	 strb r3,[r7,#297]
 434:../Dave/Generated/CMSIS_DSP/FilteringFunctions/arm_conv_partial_q7.c **** 
 435:../Dave/Generated/CMSIS_DSP/FilteringFunctions/arm_conv_partial_q7.c ****           /* Perform the multiply-accumulates */
 436:../Dave/Generated/CMSIS_DSP/FilteringFunctions/arm_conv_partial_q7.c ****           /* acc0 +=  x[4] * y[srcBLen - 5] */
 437:../Dave/Generated/CMSIS_DSP/FilteringFunctions/arm_conv_partial_q7.c ****           acc0 += ((q31_t) x0 * c0);
 965              	 .loc 1 437 0
 966 0852 97F96731 	 ldrsb r3,[r7,#359]
 967 0856 97F92B21 	 ldrsb r2,[r7,#299]
 968 085a 02FB03F3 	 mul r3,r2,r3
 969 085e D7F87421 	 ldr r2,[r7,#372]
 970 0862 1344     	 add r3,r3,r2
 971 0864 C7F87431 	 str r3,[r7,#372]
 438:../Dave/Generated/CMSIS_DSP/FilteringFunctions/arm_conv_partial_q7.c ****           /* acc1 +=  x[5] * y[srcBLen - 5] */
 439:../Dave/Generated/CMSIS_DSP/FilteringFunctions/arm_conv_partial_q7.c ****           acc1 += ((q31_t) x1 * c0);
 972              	 .loc 1 439 0
 973 0868 97F96631 	 ldrsb r3,[r7,#358]
 974 086c 97F92B21 	 ldrsb r2,[r7,#299]
 975 0870 02FB03F3 	 mul r3,r2,r3
 976 0874 D7F87021 	 ldr r2,[r7,#368]
 977 0878 1344     	 add r3,r3,r2
 978 087a C7F87031 	 str r3,[r7,#368]
 440:../Dave/Generated/CMSIS_DSP/FilteringFunctions/arm_conv_partial_q7.c ****           /* acc2 +=  x[6] * y[srcBLen - 5] */
 441:../Dave/Generated/CMSIS_DSP/FilteringFunctions/arm_conv_partial_q7.c ****           acc2 += ((q31_t) x2 * c0);
 979              	 .loc 1 441 0
 980 087e 97F96531 	 ldrsb r3,[r7,#357]
 981 0882 97F92B21 	 ldrsb r2,[r7,#299]
 982 0886 02FB03F3 	 mul r3,r2,r3
 983 088a D7F86C21 	 ldr r2,[r7,#364]
 984 088e 1344     	 add r3,r3,r2
 985 0890 C7F86C31 	 str r3,[r7,#364]
 442:../Dave/Generated/CMSIS_DSP/FilteringFunctions/arm_conv_partial_q7.c ****           /* acc3 +=  x[7] * y[srcBLen - 5] */
 443:../Dave/Generated/CMSIS_DSP/FilteringFunctions/arm_conv_partial_q7.c ****           acc3 += ((q31_t) x3 * c0);
 986              	 .loc 1 443 0
 987 0894 97F92931 	 ldrsb r3,[r7,#297]
 988 0898 97F92B21 	 ldrsb r2,[r7,#299]
 989 089c 02FB03F3 	 mul r3,r2,r3
 990 08a0 D7F86821 	 ldr r2,[r7,#360]
 991 08a4 1344     	 add r3,r3,r2
 992 08a6 C7F86831 	 str r3,[r7,#360]
 444:../Dave/Generated/CMSIS_DSP/FilteringFunctions/arm_conv_partial_q7.c **** 
 445:../Dave/Generated/CMSIS_DSP/FilteringFunctions/arm_conv_partial_q7.c ****           /* Reuse the present samples for the next MAC */
 446:../Dave/Generated/CMSIS_DSP/FilteringFunctions/arm_conv_partial_q7.c ****           x0 = x1;
 993              	 .loc 1 446 0
 994 08aa 97F86631 	 ldrb r3,[r7,#358]
 995 08ae 87F86731 	 strb r3,[r7,#359]
 447:../Dave/Generated/CMSIS_DSP/FilteringFunctions/arm_conv_partial_q7.c ****           x1 = x2;
 996              	 .loc 1 447 0
 997 08b2 97F86531 	 ldrb r3,[r7,#357]
 998 08b6 87F86631 	 strb r3,[r7,#358]
 448:../Dave/Generated/CMSIS_DSP/FilteringFunctions/arm_conv_partial_q7.c ****           x2 = x3;
 999              	 .loc 1 448 0
 1000 08ba 97F82931 	 ldrb r3,[r7,#297]
 1001 08be 87F86531 	 strb r3,[r7,#357]
 449:../Dave/Generated/CMSIS_DSP/FilteringFunctions/arm_conv_partial_q7.c **** 
 450:../Dave/Generated/CMSIS_DSP/FilteringFunctions/arm_conv_partial_q7.c ****           /* Decrement the loop counter */
 451:../Dave/Generated/CMSIS_DSP/FilteringFunctions/arm_conv_partial_q7.c ****           k--;
 1002              	 .loc 1 451 0
 1003 08c2 D7F86031 	 ldr r3,[r7,#352]
 1004 08c6 013B     	 subs r3,r3,#1
 1005 08c8 C7F86031 	 str r3,[r7,#352]
 1006              	.L35:
 427:../Dave/Generated/CMSIS_DSP/FilteringFunctions/arm_conv_partial_q7.c ****         {
 1007              	 .loc 1 427 0
 1008 08cc D7F86031 	 ldr r3,[r7,#352]
 1009 08d0 002B     	 cmp r3,#0
 1010 08d2 AED1     	 bne .L36
 452:../Dave/Generated/CMSIS_DSP/FilteringFunctions/arm_conv_partial_q7.c ****         }
 453:../Dave/Generated/CMSIS_DSP/FilteringFunctions/arm_conv_partial_q7.c **** 
 454:../Dave/Generated/CMSIS_DSP/FilteringFunctions/arm_conv_partial_q7.c ****         /* Store the result in the accumulator in the destination buffer. */
 455:../Dave/Generated/CMSIS_DSP/FilteringFunctions/arm_conv_partial_q7.c ****         *pOut++ = (q7_t) (__SSAT(acc0 >> 7, 8));
 1011              	 .loc 1 455 0
 1012 08d4 D7F88C31 	 ldr r3,[r7,#396]
 1013 08d8 5A1C     	 adds r2,r3,#1
 1014 08da C7F88C21 	 str r2,[r7,#396]
 1015              	.LBB59:
 1016 08de D7F87421 	 ldr r2,[r7,#372]
 1017 08e2 D211     	 asrs r2,r2,#7
 1018 08e4 C7F82421 	 str r2,[r7,#292]
 1019 08e8 D7F82421 	 ldr r2,[r7,#292]
 1020              	
 1021 08ec 02F30702 	 ssat r2,#8,r2
 1022              	
 1023              	 .thumb
 1024 08f0 C7F82021 	 str r2,[r7,#288]
 1025 08f4 D7F82021 	 ldr r2,[r7,#288]
 1026              	.LBE59:
 1027 08f8 D2B2     	 uxtb r2,r2
 1028 08fa 1A70     	 strb r2,[r3]
 456:../Dave/Generated/CMSIS_DSP/FilteringFunctions/arm_conv_partial_q7.c ****         *pOut++ = (q7_t) (__SSAT(acc1 >> 7, 8));
 1029              	 .loc 1 456 0
 1030 08fc D7F88C31 	 ldr r3,[r7,#396]
 1031 0900 5A1C     	 adds r2,r3,#1
 1032 0902 C7F88C21 	 str r2,[r7,#396]
 1033              	.LBB60:
 1034 0906 D7F87021 	 ldr r2,[r7,#368]
 1035 090a D211     	 asrs r2,r2,#7
 1036 090c C7F81C21 	 str r2,[r7,#284]
 1037 0910 D7F81C21 	 ldr r2,[r7,#284]
 1038              	
 1039 0914 02F30702 	 ssat r2,#8,r2
 1040              	
 1041              	 .thumb
 1042 0918 C7F81821 	 str r2,[r7,#280]
 1043 091c D7F81821 	 ldr r2,[r7,#280]
 1044              	.LBE60:
 1045 0920 D2B2     	 uxtb r2,r2
 1046 0922 1A70     	 strb r2,[r3]
 457:../Dave/Generated/CMSIS_DSP/FilteringFunctions/arm_conv_partial_q7.c ****         *pOut++ = (q7_t) (__SSAT(acc2 >> 7, 8));
 1047              	 .loc 1 457 0
 1048 0924 D7F88C31 	 ldr r3,[r7,#396]
 1049 0928 5A1C     	 adds r2,r3,#1
 1050 092a C7F88C21 	 str r2,[r7,#396]
 1051              	.LBB61:
 1052 092e D7F86C21 	 ldr r2,[r7,#364]
 1053 0932 D211     	 asrs r2,r2,#7
 1054 0934 C7F81421 	 str r2,[r7,#276]
 1055 0938 D7F81421 	 ldr r2,[r7,#276]
 1056              	
 1057 093c 02F30702 	 ssat r2,#8,r2
 1058              	
 1059              	 .thumb
 1060 0940 C7F81021 	 str r2,[r7,#272]
 1061 0944 D7F81021 	 ldr r2,[r7,#272]
 1062              	.LBE61:
 1063 0948 D2B2     	 uxtb r2,r2
 1064 094a 1A70     	 strb r2,[r3]
 458:../Dave/Generated/CMSIS_DSP/FilteringFunctions/arm_conv_partial_q7.c ****         *pOut++ = (q7_t) (__SSAT(acc3 >> 7, 8));
 1065              	 .loc 1 458 0
 1066 094c D7F88C31 	 ldr r3,[r7,#396]
 1067 0950 5A1C     	 adds r2,r3,#1
 1068 0952 C7F88C21 	 str r2,[r7,#396]
 1069              	.LBB62:
 1070 0956 D7F86821 	 ldr r2,[r7,#360]
 1071 095a D211     	 asrs r2,r2,#7
 1072 095c C7F80C21 	 str r2,[r7,#268]
 1073 0960 D7F80C21 	 ldr r2,[r7,#268]
 1074              	
 1075 0964 02F30702 	 ssat r2,#8,r2
 1076              	
 1077              	 .thumb
 1078 0968 C7F80821 	 str r2,[r7,#264]
 1079 096c D7F80821 	 ldr r2,[r7,#264]
 1080              	.LBE62:
 1081 0970 D2B2     	 uxtb r2,r2
 1082 0972 1A70     	 strb r2,[r3]
 459:../Dave/Generated/CMSIS_DSP/FilteringFunctions/arm_conv_partial_q7.c **** 
 460:../Dave/Generated/CMSIS_DSP/FilteringFunctions/arm_conv_partial_q7.c ****         /* Increment the pointer pIn1 index, count by 4 */
 461:../Dave/Generated/CMSIS_DSP/FilteringFunctions/arm_conv_partial_q7.c ****         count += 4u;
 1083              	 .loc 1 461 0
 1084 0974 D7F85C31 	 ldr r3,[r7,#348]
 1085 0978 0433     	 adds r3,r3,#4
 1086 097a C7F85C31 	 str r3,[r7,#348]
 462:../Dave/Generated/CMSIS_DSP/FilteringFunctions/arm_conv_partial_q7.c **** 
 463:../Dave/Generated/CMSIS_DSP/FilteringFunctions/arm_conv_partial_q7.c ****         /* Update the inputA and inputB pointers for next MAC calculation */
 464:../Dave/Generated/CMSIS_DSP/FilteringFunctions/arm_conv_partial_q7.c ****         px = pIn1 + count;
 1087              	 .loc 1 464 0
 1088 097e D7F89421 	 ldr r2,[r7,#404]
 1089 0982 D7F85C31 	 ldr r3,[r7,#348]
 1090 0986 1344     	 add r3,r3,r2
 1091 0988 C7F88831 	 str r3,[r7,#392]
 465:../Dave/Generated/CMSIS_DSP/FilteringFunctions/arm_conv_partial_q7.c ****         py = pSrc2;
 1092              	 .loc 1 465 0
 1093 098c D7F87C31 	 ldr r3,[r7,#380]
 1094 0990 C7F88431 	 str r3,[r7,#388]
 466:../Dave/Generated/CMSIS_DSP/FilteringFunctions/arm_conv_partial_q7.c **** 
 467:../Dave/Generated/CMSIS_DSP/FilteringFunctions/arm_conv_partial_q7.c **** 
 468:../Dave/Generated/CMSIS_DSP/FilteringFunctions/arm_conv_partial_q7.c ****         /* Decrement the loop counter */
 469:../Dave/Generated/CMSIS_DSP/FilteringFunctions/arm_conv_partial_q7.c ****         blkCnt--;
 1095              	 .loc 1 469 0
 1096 0994 D7F85831 	 ldr r3,[r7,#344]
 1097 0998 013B     	 subs r3,r3,#1
 1098 099a C7F85831 	 str r3,[r7,#344]
 1099              	.L25:
 295:../Dave/Generated/CMSIS_DSP/FilteringFunctions/arm_conv_partial_q7.c ****       {
 1100              	 .loc 1 295 0
 1101 099e D7F85831 	 ldr r3,[r7,#344]
 1102 09a2 002B     	 cmp r3,#0
 1103 09a4 7FF42BAD 	 bne .L37
 470:../Dave/Generated/CMSIS_DSP/FilteringFunctions/arm_conv_partial_q7.c ****       }
 471:../Dave/Generated/CMSIS_DSP/FilteringFunctions/arm_conv_partial_q7.c **** 
 472:../Dave/Generated/CMSIS_DSP/FilteringFunctions/arm_conv_partial_q7.c ****       /* If the blockSize2 is not a multiple of 4, compute any remaining output samples here.   
 473:../Dave/Generated/CMSIS_DSP/FilteringFunctions/arm_conv_partial_q7.c ****        ** No loop unrolling is used. */
 474:../Dave/Generated/CMSIS_DSP/FilteringFunctions/arm_conv_partial_q7.c ****       blkCnt = (uint32_t) blockSize2 % 0x4u;
 1104              	 .loc 1 474 0
 1105 09a8 D7F84031 	 ldr r3,[r7,#320]
 1106 09ac 03F00303 	 and r3,r3,#3
 1107 09b0 C7F85831 	 str r3,[r7,#344]
 475:../Dave/Generated/CMSIS_DSP/FilteringFunctions/arm_conv_partial_q7.c **** 
 476:../Dave/Generated/CMSIS_DSP/FilteringFunctions/arm_conv_partial_q7.c ****       while(blkCnt > 0u)
 1108              	 .loc 1 476 0
 1109 09b4 10E1     	 b .L38
 1110              	.L45:
 477:../Dave/Generated/CMSIS_DSP/FilteringFunctions/arm_conv_partial_q7.c ****       {
 478:../Dave/Generated/CMSIS_DSP/FilteringFunctions/arm_conv_partial_q7.c ****         /* Accumulator is made zero for every iteration */
 479:../Dave/Generated/CMSIS_DSP/FilteringFunctions/arm_conv_partial_q7.c ****         sum = 0;
 1111              	 .loc 1 479 0
 1112 09b6 0023     	 movs r3,#0
 1113 09b8 C7F87831 	 str r3,[r7,#376]
 480:../Dave/Generated/CMSIS_DSP/FilteringFunctions/arm_conv_partial_q7.c **** 
 481:../Dave/Generated/CMSIS_DSP/FilteringFunctions/arm_conv_partial_q7.c ****         /* Apply loop unrolling and compute 4 MACs simultaneously. */
 482:../Dave/Generated/CMSIS_DSP/FilteringFunctions/arm_conv_partial_q7.c ****         k = srcBLen >> 2u;
 1114              	 .loc 1 482 0
 1115 09bc 3B46     	 mov r3,r7
 1116 09be 1B68     	 ldr r3,[r3]
 1117 09c0 9B08     	 lsrs r3,r3,#2
 1118 09c2 C7F86031 	 str r3,[r7,#352]
 483:../Dave/Generated/CMSIS_DSP/FilteringFunctions/arm_conv_partial_q7.c **** 
 484:../Dave/Generated/CMSIS_DSP/FilteringFunctions/arm_conv_partial_q7.c ****         /* First part of the processing with loop unrolling.  Compute 4 MACs at a time.   
 485:../Dave/Generated/CMSIS_DSP/FilteringFunctions/arm_conv_partial_q7.c ****          ** a second loop below computes MACs for the remaining 1 to 3 samples. */
 486:../Dave/Generated/CMSIS_DSP/FilteringFunctions/arm_conv_partial_q7.c ****         while(k > 0u)
 1119              	 .loc 1 486 0
 1120 09c6 B4E0     	 b .L39
 1121              	.L42:
 487:../Dave/Generated/CMSIS_DSP/FilteringFunctions/arm_conv_partial_q7.c ****         {
 488:../Dave/Generated/CMSIS_DSP/FilteringFunctions/arm_conv_partial_q7.c **** 
 489:../Dave/Generated/CMSIS_DSP/FilteringFunctions/arm_conv_partial_q7.c ****           /* Reading two inputs of SrcA buffer and packing */
 490:../Dave/Generated/CMSIS_DSP/FilteringFunctions/arm_conv_partial_q7.c ****           in1 = (q15_t) * px++;
 1122              	 .loc 1 490 0
 1123 09c8 D7F88831 	 ldr r3,[r7,#392]
 1124 09cc 5A1C     	 adds r2,r3,#1
 1125 09ce C7F88821 	 str r2,[r7,#392]
 1126 09d2 1B78     	 ldrb r3,[r3]
 1127 09d4 5BB2     	 sxtb r3,r3
 1128 09d6 A7F83E31 	 strh r3,[r7,#318]
 491:../Dave/Generated/CMSIS_DSP/FilteringFunctions/arm_conv_partial_q7.c ****           in2 = (q15_t) * px++;
 1129              	 .loc 1 491 0
 1130 09da D7F88831 	 ldr r3,[r7,#392]
 1131 09de 5A1C     	 adds r2,r3,#1
 1132 09e0 C7F88821 	 str r2,[r7,#392]
 1133 09e4 1B78     	 ldrb r3,[r3]
 1134 09e6 5BB2     	 sxtb r3,r3
 1135 09e8 A7F83C31 	 strh r3,[r7,#316]
 492:../Dave/Generated/CMSIS_DSP/FilteringFunctions/arm_conv_partial_q7.c ****           input1 = ((q31_t) in1 & 0x0000FFFF) | ((q31_t) in2 << 16);
 1136              	 .loc 1 492 0
 1137 09ec B7F93E31 	 ldrsh r3,[r7,#318]
 1138 09f0 9AB2     	 uxth r2,r3
 1139 09f2 B7F93C31 	 ldrsh r3,[r7,#316]
 1140 09f6 1B04     	 lsls r3,r3,#16
 1141 09f8 1343     	 orrs r3,r3,r2
 1142 09fa C7F83831 	 str r3,[r7,#312]
 493:../Dave/Generated/CMSIS_DSP/FilteringFunctions/arm_conv_partial_q7.c **** 
 494:../Dave/Generated/CMSIS_DSP/FilteringFunctions/arm_conv_partial_q7.c ****           /* Reading two inputs of SrcB buffer and packing */
 495:../Dave/Generated/CMSIS_DSP/FilteringFunctions/arm_conv_partial_q7.c ****           in1 = (q15_t) * py--;
 1143              	 .loc 1 495 0
 1144 09fe D7F88431 	 ldr r3,[r7,#388]
 1145 0a02 5A1E     	 subs r2,r3,#1
 1146 0a04 C7F88421 	 str r2,[r7,#388]
 1147 0a08 1B78     	 ldrb r3,[r3]
 1148 0a0a 5BB2     	 sxtb r3,r3
 1149 0a0c A7F83E31 	 strh r3,[r7,#318]
 496:../Dave/Generated/CMSIS_DSP/FilteringFunctions/arm_conv_partial_q7.c ****           in2 = (q15_t) * py--;
 1150              	 .loc 1 496 0
 1151 0a10 D7F88431 	 ldr r3,[r7,#388]
 1152 0a14 5A1E     	 subs r2,r3,#1
 1153 0a16 C7F88421 	 str r2,[r7,#388]
 1154 0a1a 1B78     	 ldrb r3,[r3]
 1155 0a1c 5BB2     	 sxtb r3,r3
 1156 0a1e A7F83C31 	 strh r3,[r7,#316]
 497:../Dave/Generated/CMSIS_DSP/FilteringFunctions/arm_conv_partial_q7.c ****           input2 = ((q31_t) in1 & 0x0000FFFF) | ((q31_t) in2 << 16);
 1157              	 .loc 1 497 0
 1158 0a22 B7F93E31 	 ldrsh r3,[r7,#318]
 1159 0a26 9AB2     	 uxth r2,r3
 1160 0a28 B7F93C31 	 ldrsh r3,[r7,#316]
 1161 0a2c 1B04     	 lsls r3,r3,#16
 1162 0a2e 1343     	 orrs r3,r3,r2
 1163 0a30 C7F83431 	 str r3,[r7,#308]
 498:../Dave/Generated/CMSIS_DSP/FilteringFunctions/arm_conv_partial_q7.c **** 
 499:../Dave/Generated/CMSIS_DSP/FilteringFunctions/arm_conv_partial_q7.c ****           /* Perform the multiply-accumulates */
 500:../Dave/Generated/CMSIS_DSP/FilteringFunctions/arm_conv_partial_q7.c ****           sum = __SMLAD(input1, input2, sum);
 1164              	 .loc 1 500 0
 1165 0a34 D7F83801 	 ldr r0,[r7,#312]
 1166 0a38 D7F83411 	 ldr r1,[r7,#308]
 1167 0a3c D7F87821 	 ldr r2,[r7,#376]
 1168 0a40 07F14C03 	 add r3,r7,#76
 1169 0a44 1860     	 str r0,[r3]
 1170 0a46 07F14803 	 add r3,r7,#72
 1171 0a4a 1960     	 str r1,[r3]
 1172 0a4c 07F14403 	 add r3,r7,#68
 1173 0a50 1A60     	 str r2,[r3]
 1174              	.LBB63:
 1175              	.LBB64:
 507:C:\Users\Depes Crystalline\Desktop\school\Active_Bike_Lighting_System\Radar_Core/Libraries/CMSIS/Include\core_cmSimd.h ****   return(result);
 1176              	 .loc 2 507 0
 1177 0a52 07F14C03 	 add r3,r7,#76
 1178 0a56 1B68     	 ldr r3,[r3]
 1179 0a58 07F14802 	 add r2,r7,#72
 1180 0a5c 1268     	 ldr r2,[r2]
 1181 0a5e 07F14401 	 add r1,r7,#68
 1182 0a62 0968     	 ldr r1,[r1]
 1183              	
 1184 0a64 23FB0212 	 smlad r2,r3,r2,r1
 1185              	
 1186              	 .thumb
 1187 0a68 07F14003 	 add r3,r7,#64
 1188 0a6c 1A60     	 str r2,[r3]
 1189              	 .loc 2 508 0
 1190 0a6e 07F14003 	 add r3,r7,#64
 1191 0a72 1B68     	 ldr r3,[r3]
 1192              	.LBE64:
 1193              	.LBE63:
 1194              	 .loc 1 500 0
 1195 0a74 C7F87831 	 str r3,[r7,#376]
 501:../Dave/Generated/CMSIS_DSP/FilteringFunctions/arm_conv_partial_q7.c **** 
 502:../Dave/Generated/CMSIS_DSP/FilteringFunctions/arm_conv_partial_q7.c ****           /* Reading two inputs of SrcA buffer and packing */
 503:../Dave/Generated/CMSIS_DSP/FilteringFunctions/arm_conv_partial_q7.c ****           in1 = (q15_t) * px++;
 1196              	 .loc 1 503 0
 1197 0a78 D7F88831 	 ldr r3,[r7,#392]
 1198 0a7c 5A1C     	 adds r2,r3,#1
 1199 0a7e C7F88821 	 str r2,[r7,#392]
 1200 0a82 1B78     	 ldrb r3,[r3]
 1201 0a84 5BB2     	 sxtb r3,r3
 1202 0a86 A7F83E31 	 strh r3,[r7,#318]
 504:../Dave/Generated/CMSIS_DSP/FilteringFunctions/arm_conv_partial_q7.c ****           in2 = (q15_t) * px++;
 1203              	 .loc 1 504 0
 1204 0a8a D7F88831 	 ldr r3,[r7,#392]
 1205 0a8e 5A1C     	 adds r2,r3,#1
 1206 0a90 C7F88821 	 str r2,[r7,#392]
 1207 0a94 1B78     	 ldrb r3,[r3]
 1208 0a96 5BB2     	 sxtb r3,r3
 1209 0a98 A7F83C31 	 strh r3,[r7,#316]
 505:../Dave/Generated/CMSIS_DSP/FilteringFunctions/arm_conv_partial_q7.c ****           input1 = ((q31_t) in1 & 0x0000FFFF) | ((q31_t) in2 << 16);
 1210              	 .loc 1 505 0
 1211 0a9c B7F93E31 	 ldrsh r3,[r7,#318]
 1212 0aa0 9AB2     	 uxth r2,r3
 1213 0aa2 B7F93C31 	 ldrsh r3,[r7,#316]
 1214 0aa6 1B04     	 lsls r3,r3,#16
 1215 0aa8 1343     	 orrs r3,r3,r2
 1216 0aaa C7F83831 	 str r3,[r7,#312]
 506:../Dave/Generated/CMSIS_DSP/FilteringFunctions/arm_conv_partial_q7.c **** 
 507:../Dave/Generated/CMSIS_DSP/FilteringFunctions/arm_conv_partial_q7.c ****           /* Reading two inputs of SrcB buffer and packing */
 508:../Dave/Generated/CMSIS_DSP/FilteringFunctions/arm_conv_partial_q7.c ****           in1 = (q15_t) * py--;
 1217              	 .loc 1 508 0
 1218 0aae D7F88431 	 ldr r3,[r7,#388]
 1219 0ab2 5A1E     	 subs r2,r3,#1
 1220 0ab4 C7F88421 	 str r2,[r7,#388]
 1221 0ab8 1B78     	 ldrb r3,[r3]
 1222 0aba 5BB2     	 sxtb r3,r3
 1223 0abc A7F83E31 	 strh r3,[r7,#318]
 509:../Dave/Generated/CMSIS_DSP/FilteringFunctions/arm_conv_partial_q7.c ****           in2 = (q15_t) * py--;
 1224              	 .loc 1 509 0
 1225 0ac0 D7F88431 	 ldr r3,[r7,#388]
 1226 0ac4 5A1E     	 subs r2,r3,#1
 1227 0ac6 C7F88421 	 str r2,[r7,#388]
 1228 0aca 1B78     	 ldrb r3,[r3]
 1229 0acc 5BB2     	 sxtb r3,r3
 1230 0ace A7F83C31 	 strh r3,[r7,#316]
 510:../Dave/Generated/CMSIS_DSP/FilteringFunctions/arm_conv_partial_q7.c ****           input2 = ((q31_t) in1 & 0x0000FFFF) | ((q31_t) in2 << 16);
 1231              	 .loc 1 510 0
 1232 0ad2 B7F93E31 	 ldrsh r3,[r7,#318]
 1233 0ad6 9AB2     	 uxth r2,r3
 1234 0ad8 B7F93C31 	 ldrsh r3,[r7,#316]
 1235 0adc 1B04     	 lsls r3,r3,#16
 1236 0ade 1343     	 orrs r3,r3,r2
 1237 0ae0 C7F83431 	 str r3,[r7,#308]
 511:../Dave/Generated/CMSIS_DSP/FilteringFunctions/arm_conv_partial_q7.c **** 
 512:../Dave/Generated/CMSIS_DSP/FilteringFunctions/arm_conv_partial_q7.c ****           /* Perform the multiply-accumulates */
 513:../Dave/Generated/CMSIS_DSP/FilteringFunctions/arm_conv_partial_q7.c ****           sum = __SMLAD(input1, input2, sum);
 1238              	 .loc 1 513 0
 1239 0ae4 D7F83801 	 ldr r0,[r7,#312]
 1240 0ae8 D7F83411 	 ldr r1,[r7,#308]
 1241 0aec D7F87821 	 ldr r2,[r7,#376]
 1242 0af0 07F13C03 	 add r3,r7,#60
 1243 0af4 1860     	 str r0,[r3]
 1244 0af6 07F13803 	 add r3,r7,#56
 1245 0afa 1960     	 str r1,[r3]
 1246 0afc 07F13403 	 add r3,r7,#52
 1247 0b00 1A60     	 str r2,[r3]
 1248              	.LBB65:
 1249              	.LBB66:
 507:C:\Users\Depes Crystalline\Desktop\school\Active_Bike_Lighting_System\Radar_Core/Libraries/CMSIS/Include\core_cmSimd.h ****   return(result);
 1250              	 .loc 2 507 0
 1251 0b02 07F13C03 	 add r3,r7,#60
 1252 0b06 1B68     	 ldr r3,[r3]
 1253 0b08 07F13802 	 add r2,r7,#56
 1254 0b0c 1268     	 ldr r2,[r2]
 1255 0b0e 07F13401 	 add r1,r7,#52
 1256 0b12 0968     	 ldr r1,[r1]
 1257              	
 1258 0b14 23FB0212 	 smlad r2,r3,r2,r1
 1259              	
 1260              	 .thumb
 1261 0b18 07F13003 	 add r3,r7,#48
 1262 0b1c 1A60     	 str r2,[r3]
 1263              	 .loc 2 508 0
 1264 0b1e 07F13003 	 add r3,r7,#48
 1265 0b22 1B68     	 ldr r3,[r3]
 1266              	.LBE66:
 1267              	.LBE65:
 1268              	 .loc 1 513 0
 1269 0b24 C7F87831 	 str r3,[r7,#376]
 514:../Dave/Generated/CMSIS_DSP/FilteringFunctions/arm_conv_partial_q7.c **** 
 515:../Dave/Generated/CMSIS_DSP/FilteringFunctions/arm_conv_partial_q7.c ****           /* Decrement the loop counter */
 516:../Dave/Generated/CMSIS_DSP/FilteringFunctions/arm_conv_partial_q7.c ****           k--;
 1270              	 .loc 1 516 0
 1271 0b28 D7F86031 	 ldr r3,[r7,#352]
 1272 0b2c 013B     	 subs r3,r3,#1
 1273 0b2e C7F86031 	 str r3,[r7,#352]
 1274              	.L39:
 486:../Dave/Generated/CMSIS_DSP/FilteringFunctions/arm_conv_partial_q7.c ****         {
 1275              	 .loc 1 486 0
 1276 0b32 D7F86031 	 ldr r3,[r7,#352]
 1277 0b36 002B     	 cmp r3,#0
 1278 0b38 7FF446AF 	 bne .L42
 517:../Dave/Generated/CMSIS_DSP/FilteringFunctions/arm_conv_partial_q7.c ****         }
 518:../Dave/Generated/CMSIS_DSP/FilteringFunctions/arm_conv_partial_q7.c **** 
 519:../Dave/Generated/CMSIS_DSP/FilteringFunctions/arm_conv_partial_q7.c ****         /* If the srcBLen is not a multiple of 4, compute any remaining MACs here.   
 520:../Dave/Generated/CMSIS_DSP/FilteringFunctions/arm_conv_partial_q7.c ****          ** No loop unrolling is used. */
 521:../Dave/Generated/CMSIS_DSP/FilteringFunctions/arm_conv_partial_q7.c ****         k = srcBLen % 0x4u;
 1279              	 .loc 1 521 0
 1280 0b3c 3B46     	 mov r3,r7
 1281 0b3e 1B68     	 ldr r3,[r3]
 1282 0b40 03F00303 	 and r3,r3,#3
 1283 0b44 C7F86031 	 str r3,[r7,#352]
 522:../Dave/Generated/CMSIS_DSP/FilteringFunctions/arm_conv_partial_q7.c **** 
 523:../Dave/Generated/CMSIS_DSP/FilteringFunctions/arm_conv_partial_q7.c ****         while(k > 0u)
 1284              	 .loc 1 523 0
 1285 0b48 19E0     	 b .L43
 1286              	.L44:
 524:../Dave/Generated/CMSIS_DSP/FilteringFunctions/arm_conv_partial_q7.c ****         {
 525:../Dave/Generated/CMSIS_DSP/FilteringFunctions/arm_conv_partial_q7.c ****           /* Perform the multiply-accumulates */
 526:../Dave/Generated/CMSIS_DSP/FilteringFunctions/arm_conv_partial_q7.c ****           sum += ((q31_t) * px++ * *py--);
 1287              	 .loc 1 526 0
 1288 0b4a D7F88831 	 ldr r3,[r7,#392]
 1289 0b4e 5A1C     	 adds r2,r3,#1
 1290 0b50 C7F88821 	 str r2,[r7,#392]
 1291 0b54 1B78     	 ldrb r3,[r3]
 1292 0b56 5AB2     	 sxtb r2,r3
 1293 0b58 D7F88431 	 ldr r3,[r7,#388]
 1294 0b5c 591E     	 subs r1,r3,#1
 1295 0b5e C7F88411 	 str r1,[r7,#388]
 1296 0b62 1B78     	 ldrb r3,[r3]
 1297 0b64 5BB2     	 sxtb r3,r3
 1298 0b66 03FB02F3 	 mul r3,r3,r2
 1299 0b6a D7F87821 	 ldr r2,[r7,#376]
 1300 0b6e 1344     	 add r3,r3,r2
 1301 0b70 C7F87831 	 str r3,[r7,#376]
 527:../Dave/Generated/CMSIS_DSP/FilteringFunctions/arm_conv_partial_q7.c **** 
 528:../Dave/Generated/CMSIS_DSP/FilteringFunctions/arm_conv_partial_q7.c ****           /* Decrement the loop counter */
 529:../Dave/Generated/CMSIS_DSP/FilteringFunctions/arm_conv_partial_q7.c ****           k--;
 1302              	 .loc 1 529 0
 1303 0b74 D7F86031 	 ldr r3,[r7,#352]
 1304 0b78 013B     	 subs r3,r3,#1
 1305 0b7a C7F86031 	 str r3,[r7,#352]
 1306              	.L43:
 523:../Dave/Generated/CMSIS_DSP/FilteringFunctions/arm_conv_partial_q7.c ****         {
 1307              	 .loc 1 523 0
 1308 0b7e D7F86031 	 ldr r3,[r7,#352]
 1309 0b82 002B     	 cmp r3,#0
 1310 0b84 E1D1     	 bne .L44
 530:../Dave/Generated/CMSIS_DSP/FilteringFunctions/arm_conv_partial_q7.c ****         }
 531:../Dave/Generated/CMSIS_DSP/FilteringFunctions/arm_conv_partial_q7.c **** 
 532:../Dave/Generated/CMSIS_DSP/FilteringFunctions/arm_conv_partial_q7.c ****         /* Store the result in the accumulator in the destination buffer. */
 533:../Dave/Generated/CMSIS_DSP/FilteringFunctions/arm_conv_partial_q7.c ****         *pOut++ = (q7_t) (__SSAT(sum >> 7, 8));
 1311              	 .loc 1 533 0
 1312 0b86 D7F88C31 	 ldr r3,[r7,#396]
 1313 0b8a 5A1C     	 adds r2,r3,#1
 1314 0b8c C7F88C21 	 str r2,[r7,#396]
 1315              	.LBB67:
 1316 0b90 D7F87821 	 ldr r2,[r7,#376]
 1317 0b94 D211     	 asrs r2,r2,#7
 1318 0b96 C7F80421 	 str r2,[r7,#260]
 1319 0b9a D7F80421 	 ldr r2,[r7,#260]
 1320              	
 1321 0b9e 02F30702 	 ssat r2,#8,r2
 1322              	
 1323              	 .thumb
 1324 0ba2 C7F80021 	 str r2,[r7,#256]
 1325 0ba6 D7F80021 	 ldr r2,[r7,#256]
 1326              	.LBE67:
 1327 0baa D2B2     	 uxtb r2,r2
 1328 0bac 1A70     	 strb r2,[r3]
 534:../Dave/Generated/CMSIS_DSP/FilteringFunctions/arm_conv_partial_q7.c **** 
 535:../Dave/Generated/CMSIS_DSP/FilteringFunctions/arm_conv_partial_q7.c ****         /* Increment the pointer pIn1 index, count by 1 */
 536:../Dave/Generated/CMSIS_DSP/FilteringFunctions/arm_conv_partial_q7.c ****  	    count++;
 1329              	 .loc 1 536 0
 1330 0bae D7F85C31 	 ldr r3,[r7,#348]
 1331 0bb2 0133     	 adds r3,r3,#1
 1332 0bb4 C7F85C31 	 str r3,[r7,#348]
 537:../Dave/Generated/CMSIS_DSP/FilteringFunctions/arm_conv_partial_q7.c **** 
 538:../Dave/Generated/CMSIS_DSP/FilteringFunctions/arm_conv_partial_q7.c ****         /* Update the inputA and inputB pointers for next MAC calculation */
 539:../Dave/Generated/CMSIS_DSP/FilteringFunctions/arm_conv_partial_q7.c ****       	px = pIn1 + count;
 1333              	 .loc 1 539 0
 1334 0bb8 D7F89421 	 ldr r2,[r7,#404]
 1335 0bbc D7F85C31 	 ldr r3,[r7,#348]
 1336 0bc0 1344     	 add r3,r3,r2
 1337 0bc2 C7F88831 	 str r3,[r7,#392]
 540:../Dave/Generated/CMSIS_DSP/FilteringFunctions/arm_conv_partial_q7.c ****         py = pSrc2;	
 1338              	 .loc 1 540 0
 1339 0bc6 D7F87C31 	 ldr r3,[r7,#380]
 1340 0bca C7F88431 	 str r3,[r7,#388]
 541:../Dave/Generated/CMSIS_DSP/FilteringFunctions/arm_conv_partial_q7.c **** 
 542:../Dave/Generated/CMSIS_DSP/FilteringFunctions/arm_conv_partial_q7.c ****         /* Decrement the loop counter */
 543:../Dave/Generated/CMSIS_DSP/FilteringFunctions/arm_conv_partial_q7.c ****         blkCnt--;
 1341              	 .loc 1 543 0
 1342 0bce D7F85831 	 ldr r3,[r7,#344]
 1343 0bd2 013B     	 subs r3,r3,#1
 1344 0bd4 C7F85831 	 str r3,[r7,#344]
 1345              	.L38:
 476:../Dave/Generated/CMSIS_DSP/FilteringFunctions/arm_conv_partial_q7.c ****       {
 1346              	 .loc 1 476 0
 1347 0bd8 D7F85831 	 ldr r3,[r7,#344]
 1348 0bdc 002B     	 cmp r3,#0
 1349 0bde 7FF4EAAE 	 bne .L45
 1350 0be2 57E0     	 b .L46
 1351              	.L24:
 544:../Dave/Generated/CMSIS_DSP/FilteringFunctions/arm_conv_partial_q7.c ****       }
 545:../Dave/Generated/CMSIS_DSP/FilteringFunctions/arm_conv_partial_q7.c ****     }
 546:../Dave/Generated/CMSIS_DSP/FilteringFunctions/arm_conv_partial_q7.c ****     else
 547:../Dave/Generated/CMSIS_DSP/FilteringFunctions/arm_conv_partial_q7.c ****     {
 548:../Dave/Generated/CMSIS_DSP/FilteringFunctions/arm_conv_partial_q7.c ****       /* If the srcBLen is not a multiple of 4,   
 549:../Dave/Generated/CMSIS_DSP/FilteringFunctions/arm_conv_partial_q7.c ****        * the blockSize2 loop cannot be unrolled by 4 */
 550:../Dave/Generated/CMSIS_DSP/FilteringFunctions/arm_conv_partial_q7.c ****       blkCnt = (uint32_t) blockSize2;
 1352              	 .loc 1 550 0
 1353 0be4 D7F84031 	 ldr r3,[r7,#320]
 1354 0be8 C7F85831 	 str r3,[r7,#344]
 551:../Dave/Generated/CMSIS_DSP/FilteringFunctions/arm_conv_partial_q7.c **** 
 552:../Dave/Generated/CMSIS_DSP/FilteringFunctions/arm_conv_partial_q7.c ****       while(blkCnt > 0u)
 1355              	 .loc 1 552 0
 1356 0bec 4EE0     	 b .L47
 1357              	.L50:
 553:../Dave/Generated/CMSIS_DSP/FilteringFunctions/arm_conv_partial_q7.c ****       {
 554:../Dave/Generated/CMSIS_DSP/FilteringFunctions/arm_conv_partial_q7.c ****         /* Accumulator is made zero for every iteration */
 555:../Dave/Generated/CMSIS_DSP/FilteringFunctions/arm_conv_partial_q7.c ****         sum = 0;
 1358              	 .loc 1 555 0
 1359 0bee 0023     	 movs r3,#0
 1360 0bf0 C7F87831 	 str r3,[r7,#376]
 556:../Dave/Generated/CMSIS_DSP/FilteringFunctions/arm_conv_partial_q7.c **** 
 557:../Dave/Generated/CMSIS_DSP/FilteringFunctions/arm_conv_partial_q7.c ****         /* srcBLen number of MACS should be performed */
 558:../Dave/Generated/CMSIS_DSP/FilteringFunctions/arm_conv_partial_q7.c ****         k = srcBLen;
 1361              	 .loc 1 558 0
 1362 0bf4 3B46     	 mov r3,r7
 1363 0bf6 1B68     	 ldr r3,[r3]
 1364 0bf8 C7F86031 	 str r3,[r7,#352]
 559:../Dave/Generated/CMSIS_DSP/FilteringFunctions/arm_conv_partial_q7.c **** 
 560:../Dave/Generated/CMSIS_DSP/FilteringFunctions/arm_conv_partial_q7.c ****         while(k > 0u)
 1365              	 .loc 1 560 0
 1366 0bfc 19E0     	 b .L48
 1367              	.L49:
 561:../Dave/Generated/CMSIS_DSP/FilteringFunctions/arm_conv_partial_q7.c ****         {
 562:../Dave/Generated/CMSIS_DSP/FilteringFunctions/arm_conv_partial_q7.c ****           /* Perform the multiply-accumulate */
 563:../Dave/Generated/CMSIS_DSP/FilteringFunctions/arm_conv_partial_q7.c ****           sum += ((q31_t) * px++ * *py--);
 1368              	 .loc 1 563 0
 1369 0bfe D7F88831 	 ldr r3,[r7,#392]
 1370 0c02 5A1C     	 adds r2,r3,#1
 1371 0c04 C7F88821 	 str r2,[r7,#392]
 1372 0c08 1B78     	 ldrb r3,[r3]
 1373 0c0a 5AB2     	 sxtb r2,r3
 1374 0c0c D7F88431 	 ldr r3,[r7,#388]
 1375 0c10 591E     	 subs r1,r3,#1
 1376 0c12 C7F88411 	 str r1,[r7,#388]
 1377 0c16 1B78     	 ldrb r3,[r3]
 1378 0c18 5BB2     	 sxtb r3,r3
 1379 0c1a 03FB02F3 	 mul r3,r3,r2
 1380 0c1e D7F87821 	 ldr r2,[r7,#376]
 1381 0c22 1344     	 add r3,r3,r2
 1382 0c24 C7F87831 	 str r3,[r7,#376]
 564:../Dave/Generated/CMSIS_DSP/FilteringFunctions/arm_conv_partial_q7.c **** 
 565:../Dave/Generated/CMSIS_DSP/FilteringFunctions/arm_conv_partial_q7.c ****           /* Decrement the loop counter */
 566:../Dave/Generated/CMSIS_DSP/FilteringFunctions/arm_conv_partial_q7.c ****           k--;
 1383              	 .loc 1 566 0
 1384 0c28 D7F86031 	 ldr r3,[r7,#352]
 1385 0c2c 013B     	 subs r3,r3,#1
 1386 0c2e C7F86031 	 str r3,[r7,#352]
 1387              	.L48:
 560:../Dave/Generated/CMSIS_DSP/FilteringFunctions/arm_conv_partial_q7.c ****         {
 1388              	 .loc 1 560 0
 1389 0c32 D7F86031 	 ldr r3,[r7,#352]
 1390 0c36 002B     	 cmp r3,#0
 1391 0c38 E1D1     	 bne .L49
 567:../Dave/Generated/CMSIS_DSP/FilteringFunctions/arm_conv_partial_q7.c ****         }
 568:../Dave/Generated/CMSIS_DSP/FilteringFunctions/arm_conv_partial_q7.c **** 
 569:../Dave/Generated/CMSIS_DSP/FilteringFunctions/arm_conv_partial_q7.c ****         /* Store the result in the accumulator in the destination buffer. */
 570:../Dave/Generated/CMSIS_DSP/FilteringFunctions/arm_conv_partial_q7.c ****         *pOut++ = (q7_t) (__SSAT(sum >> 7, 8));
 1392              	 .loc 1 570 0
 1393 0c3a D7F88C31 	 ldr r3,[r7,#396]
 1394 0c3e 5A1C     	 adds r2,r3,#1
 1395 0c40 C7F88C21 	 str r2,[r7,#396]
 1396              	.LBB68:
 1397 0c44 D7F87821 	 ldr r2,[r7,#376]
 1398 0c48 D211     	 asrs r2,r2,#7
 1399 0c4a C7F8FC20 	 str r2,[r7,#252]
 1400 0c4e D7F8FC20 	 ldr r2,[r7,#252]
 1401              	
 1402 0c52 02F30702 	 ssat r2,#8,r2
 1403              	
 1404              	 .thumb
 1405 0c56 C7F8F820 	 str r2,[r7,#248]
 1406 0c5a D7F8F820 	 ldr r2,[r7,#248]
 1407              	.LBE68:
 1408 0c5e D2B2     	 uxtb r2,r2
 1409 0c60 1A70     	 strb r2,[r3]
 571:../Dave/Generated/CMSIS_DSP/FilteringFunctions/arm_conv_partial_q7.c **** 
 572:../Dave/Generated/CMSIS_DSP/FilteringFunctions/arm_conv_partial_q7.c ****         /* Increment the MAC count */
 573:../Dave/Generated/CMSIS_DSP/FilteringFunctions/arm_conv_partial_q7.c ****         count++;
 1410              	 .loc 1 573 0
 1411 0c62 D7F85C31 	 ldr r3,[r7,#348]
 1412 0c66 0133     	 adds r3,r3,#1
 1413 0c68 C7F85C31 	 str r3,[r7,#348]
 574:../Dave/Generated/CMSIS_DSP/FilteringFunctions/arm_conv_partial_q7.c **** 
 575:../Dave/Generated/CMSIS_DSP/FilteringFunctions/arm_conv_partial_q7.c ****         /* Update the inputA and inputB pointers for next MAC calculation */
 576:../Dave/Generated/CMSIS_DSP/FilteringFunctions/arm_conv_partial_q7.c ****         px = pIn1 + count;
 1414              	 .loc 1 576 0
 1415 0c6c D7F89421 	 ldr r2,[r7,#404]
 1416 0c70 D7F85C31 	 ldr r3,[r7,#348]
 1417 0c74 1344     	 add r3,r3,r2
 1418 0c76 C7F88831 	 str r3,[r7,#392]
 577:../Dave/Generated/CMSIS_DSP/FilteringFunctions/arm_conv_partial_q7.c ****         py = pSrc2;
 1419              	 .loc 1 577 0
 1420 0c7a D7F87C31 	 ldr r3,[r7,#380]
 1421 0c7e C7F88431 	 str r3,[r7,#388]
 578:../Dave/Generated/CMSIS_DSP/FilteringFunctions/arm_conv_partial_q7.c **** 
 579:../Dave/Generated/CMSIS_DSP/FilteringFunctions/arm_conv_partial_q7.c ****         /* Decrement the loop counter */
 580:../Dave/Generated/CMSIS_DSP/FilteringFunctions/arm_conv_partial_q7.c ****         blkCnt--;
 1422              	 .loc 1 580 0
 1423 0c82 D7F85831 	 ldr r3,[r7,#344]
 1424 0c86 013B     	 subs r3,r3,#1
 1425 0c88 C7F85831 	 str r3,[r7,#344]
 1426              	.L47:
 552:../Dave/Generated/CMSIS_DSP/FilteringFunctions/arm_conv_partial_q7.c ****       {
 1427              	 .loc 1 552 0
 1428 0c8c D7F85831 	 ldr r3,[r7,#344]
 1429 0c90 002B     	 cmp r3,#0
 1430 0c92 ACD1     	 bne .L50
 1431              	.L46:
 581:../Dave/Generated/CMSIS_DSP/FilteringFunctions/arm_conv_partial_q7.c ****       }
 582:../Dave/Generated/CMSIS_DSP/FilteringFunctions/arm_conv_partial_q7.c ****     }
 583:../Dave/Generated/CMSIS_DSP/FilteringFunctions/arm_conv_partial_q7.c **** 
 584:../Dave/Generated/CMSIS_DSP/FilteringFunctions/arm_conv_partial_q7.c **** 
 585:../Dave/Generated/CMSIS_DSP/FilteringFunctions/arm_conv_partial_q7.c ****     /* --------------------------   
 586:../Dave/Generated/CMSIS_DSP/FilteringFunctions/arm_conv_partial_q7.c ****      * Initializations of stage3   
 587:../Dave/Generated/CMSIS_DSP/FilteringFunctions/arm_conv_partial_q7.c ****      * -------------------------*/
 588:../Dave/Generated/CMSIS_DSP/FilteringFunctions/arm_conv_partial_q7.c **** 
 589:../Dave/Generated/CMSIS_DSP/FilteringFunctions/arm_conv_partial_q7.c ****     /* sum += x[srcALen-srcBLen+1] * y[srcBLen-1] + x[srcALen-srcBLen+2] * y[srcBLen-2] +...+ x[src
 590:../Dave/Generated/CMSIS_DSP/FilteringFunctions/arm_conv_partial_q7.c ****      * sum += x[srcALen-srcBLen+2] * y[srcBLen-1] + x[srcALen-srcBLen+3] * y[srcBLen-2] +...+ x[src
 591:../Dave/Generated/CMSIS_DSP/FilteringFunctions/arm_conv_partial_q7.c ****      * ....   
 592:../Dave/Generated/CMSIS_DSP/FilteringFunctions/arm_conv_partial_q7.c ****      * sum +=  x[srcALen-2] * y[srcBLen-1] + x[srcALen-1] * y[srcBLen-2]   
 593:../Dave/Generated/CMSIS_DSP/FilteringFunctions/arm_conv_partial_q7.c ****      * sum +=  x[srcALen-1] * y[srcBLen-1]   
 594:../Dave/Generated/CMSIS_DSP/FilteringFunctions/arm_conv_partial_q7.c ****      */
 595:../Dave/Generated/CMSIS_DSP/FilteringFunctions/arm_conv_partial_q7.c **** 
 596:../Dave/Generated/CMSIS_DSP/FilteringFunctions/arm_conv_partial_q7.c ****     /* In this stage the MAC operations are decreased by 1 for every iteration.   
 597:../Dave/Generated/CMSIS_DSP/FilteringFunctions/arm_conv_partial_q7.c ****        The count variable holds the number of MAC operations performed */
 598:../Dave/Generated/CMSIS_DSP/FilteringFunctions/arm_conv_partial_q7.c ****     count = srcBLen - 1u;
 1432              	 .loc 1 598 0
 1433 0c94 3B46     	 mov r3,r7
 1434 0c96 1B68     	 ldr r3,[r3]
 1435 0c98 013B     	 subs r3,r3,#1
 1436 0c9a C7F85C31 	 str r3,[r7,#348]
 599:../Dave/Generated/CMSIS_DSP/FilteringFunctions/arm_conv_partial_q7.c **** 
 600:../Dave/Generated/CMSIS_DSP/FilteringFunctions/arm_conv_partial_q7.c ****     /* Working pointer of inputA */
 601:../Dave/Generated/CMSIS_DSP/FilteringFunctions/arm_conv_partial_q7.c ****     pSrc1 = (pIn1 + srcALen) - (srcBLen - 1u);
 1437              	 .loc 1 601 0
 1438 0c9e 07F10802 	 add r2,r7,#8
 1439 0ca2 3B46     	 mov r3,r7
 1440 0ca4 1268     	 ldr r2,[r2]
 1441 0ca6 1B68     	 ldr r3,[r3]
 1442 0ca8 D31A     	 subs r3,r2,r3
 1443 0caa 0133     	 adds r3,r3,#1
 1444 0cac D7F89421 	 ldr r2,[r7,#404]
 1445 0cb0 1344     	 add r3,r3,r2
 1446 0cb2 C7F88031 	 str r3,[r7,#384]
 602:../Dave/Generated/CMSIS_DSP/FilteringFunctions/arm_conv_partial_q7.c ****     px = pSrc1;
 1447              	 .loc 1 602 0
 1448 0cb6 D7F88031 	 ldr r3,[r7,#384]
 1449 0cba C7F88831 	 str r3,[r7,#392]
 603:../Dave/Generated/CMSIS_DSP/FilteringFunctions/arm_conv_partial_q7.c **** 
 604:../Dave/Generated/CMSIS_DSP/FilteringFunctions/arm_conv_partial_q7.c ****     /* Working pointer of inputB */
 605:../Dave/Generated/CMSIS_DSP/FilteringFunctions/arm_conv_partial_q7.c ****     pSrc2 = pIn2 + (srcBLen - 1u);
 1450              	 .loc 1 605 0
 1451 0cbe 3B46     	 mov r3,r7
 1452 0cc0 1B68     	 ldr r3,[r3]
 1453 0cc2 013B     	 subs r3,r3,#1
 1454 0cc4 D7F89021 	 ldr r2,[r7,#400]
 1455 0cc8 1344     	 add r3,r3,r2
 1456 0cca C7F87C31 	 str r3,[r7,#380]
 606:../Dave/Generated/CMSIS_DSP/FilteringFunctions/arm_conv_partial_q7.c ****     py = pSrc2;
 1457              	 .loc 1 606 0
 1458 0cce D7F87C31 	 ldr r3,[r7,#380]
 1459 0cd2 C7F88431 	 str r3,[r7,#388]
 607:../Dave/Generated/CMSIS_DSP/FilteringFunctions/arm_conv_partial_q7.c **** 
 608:../Dave/Generated/CMSIS_DSP/FilteringFunctions/arm_conv_partial_q7.c ****     /* -------------------   
 609:../Dave/Generated/CMSIS_DSP/FilteringFunctions/arm_conv_partial_q7.c ****      * Stage3 process   
 610:../Dave/Generated/CMSIS_DSP/FilteringFunctions/arm_conv_partial_q7.c ****      * ------------------*/
 611:../Dave/Generated/CMSIS_DSP/FilteringFunctions/arm_conv_partial_q7.c **** 
 612:../Dave/Generated/CMSIS_DSP/FilteringFunctions/arm_conv_partial_q7.c ****     while(blockSize3 > 0)
 1460              	 .loc 1 612 0
 1461 0cd6 12E1     	 b .L51
 1462              	.L58:
 613:../Dave/Generated/CMSIS_DSP/FilteringFunctions/arm_conv_partial_q7.c ****     {
 614:../Dave/Generated/CMSIS_DSP/FilteringFunctions/arm_conv_partial_q7.c ****       /* Accumulator is made zero for every iteration */
 615:../Dave/Generated/CMSIS_DSP/FilteringFunctions/arm_conv_partial_q7.c ****       sum = 0;
 1463              	 .loc 1 615 0
 1464 0cd8 0023     	 movs r3,#0
 1465 0cda C7F87831 	 str r3,[r7,#376]
 616:../Dave/Generated/CMSIS_DSP/FilteringFunctions/arm_conv_partial_q7.c **** 
 617:../Dave/Generated/CMSIS_DSP/FilteringFunctions/arm_conv_partial_q7.c ****       /* Apply loop unrolling and compute 4 MACs simultaneously. */
 618:../Dave/Generated/CMSIS_DSP/FilteringFunctions/arm_conv_partial_q7.c ****       k = count >> 2u;
 1466              	 .loc 1 618 0
 1467 0cde D7F85C31 	 ldr r3,[r7,#348]
 1468 0ce2 9B08     	 lsrs r3,r3,#2
 1469 0ce4 C7F86031 	 str r3,[r7,#352]
 619:../Dave/Generated/CMSIS_DSP/FilteringFunctions/arm_conv_partial_q7.c **** 
 620:../Dave/Generated/CMSIS_DSP/FilteringFunctions/arm_conv_partial_q7.c ****       /* First part of the processing with loop unrolling.  Compute 4 MACs at a time.   
 621:../Dave/Generated/CMSIS_DSP/FilteringFunctions/arm_conv_partial_q7.c ****        ** a second loop below computes MACs for the remaining 1 to 3 samples. */
 622:../Dave/Generated/CMSIS_DSP/FilteringFunctions/arm_conv_partial_q7.c ****       while(k > 0u)
 1470              	 .loc 1 622 0
 1471 0ce8 B4E0     	 b .L52
 1472              	.L55:
 623:../Dave/Generated/CMSIS_DSP/FilteringFunctions/arm_conv_partial_q7.c ****       {
 624:../Dave/Generated/CMSIS_DSP/FilteringFunctions/arm_conv_partial_q7.c ****         /* Reading two inputs, x[srcALen - srcBLen + 1] and x[srcALen - srcBLen + 2] of SrcA buffer
 625:../Dave/Generated/CMSIS_DSP/FilteringFunctions/arm_conv_partial_q7.c ****         in1 = (q15_t) * px++;
 1473              	 .loc 1 625 0
 1474 0cea D7F88831 	 ldr r3,[r7,#392]
 1475 0cee 5A1C     	 adds r2,r3,#1
 1476 0cf0 C7F88821 	 str r2,[r7,#392]
 1477 0cf4 1B78     	 ldrb r3,[r3]
 1478 0cf6 5BB2     	 sxtb r3,r3
 1479 0cf8 A7F83E31 	 strh r3,[r7,#318]
 626:../Dave/Generated/CMSIS_DSP/FilteringFunctions/arm_conv_partial_q7.c ****         in2 = (q15_t) * px++;
 1480              	 .loc 1 626 0
 1481 0cfc D7F88831 	 ldr r3,[r7,#392]
 1482 0d00 5A1C     	 adds r2,r3,#1
 1483 0d02 C7F88821 	 str r2,[r7,#392]
 1484 0d06 1B78     	 ldrb r3,[r3]
 1485 0d08 5BB2     	 sxtb r3,r3
 1486 0d0a A7F83C31 	 strh r3,[r7,#316]
 627:../Dave/Generated/CMSIS_DSP/FilteringFunctions/arm_conv_partial_q7.c ****         input1 = ((q31_t) in1 & 0x0000FFFF) | ((q31_t) in2 << 16);
 1487              	 .loc 1 627 0
 1488 0d0e B7F93E31 	 ldrsh r3,[r7,#318]
 1489 0d12 9AB2     	 uxth r2,r3
 1490 0d14 B7F93C31 	 ldrsh r3,[r7,#316]
 1491 0d18 1B04     	 lsls r3,r3,#16
 1492 0d1a 1343     	 orrs r3,r3,r2
 1493 0d1c C7F83831 	 str r3,[r7,#312]
 628:../Dave/Generated/CMSIS_DSP/FilteringFunctions/arm_conv_partial_q7.c **** 
 629:../Dave/Generated/CMSIS_DSP/FilteringFunctions/arm_conv_partial_q7.c ****         /* Reading two inputs, y[srcBLen - 1] and y[srcBLen - 2] of SrcB buffer and packing */
 630:../Dave/Generated/CMSIS_DSP/FilteringFunctions/arm_conv_partial_q7.c ****         in1 = (q15_t) * py--;
 1494              	 .loc 1 630 0
 1495 0d20 D7F88431 	 ldr r3,[r7,#388]
 1496 0d24 5A1E     	 subs r2,r3,#1
 1497 0d26 C7F88421 	 str r2,[r7,#388]
 1498 0d2a 1B78     	 ldrb r3,[r3]
 1499 0d2c 5BB2     	 sxtb r3,r3
 1500 0d2e A7F83E31 	 strh r3,[r7,#318]
 631:../Dave/Generated/CMSIS_DSP/FilteringFunctions/arm_conv_partial_q7.c ****         in2 = (q15_t) * py--;
 1501              	 .loc 1 631 0
 1502 0d32 D7F88431 	 ldr r3,[r7,#388]
 1503 0d36 5A1E     	 subs r2,r3,#1
 1504 0d38 C7F88421 	 str r2,[r7,#388]
 1505 0d3c 1B78     	 ldrb r3,[r3]
 1506 0d3e 5BB2     	 sxtb r3,r3
 1507 0d40 A7F83C31 	 strh r3,[r7,#316]
 632:../Dave/Generated/CMSIS_DSP/FilteringFunctions/arm_conv_partial_q7.c ****         input2 = ((q31_t) in1 & 0x0000FFFF) | ((q31_t) in2 << 16);
 1508              	 .loc 1 632 0
 1509 0d44 B7F93E31 	 ldrsh r3,[r7,#318]
 1510 0d48 9AB2     	 uxth r2,r3
 1511 0d4a B7F93C31 	 ldrsh r3,[r7,#316]
 1512 0d4e 1B04     	 lsls r3,r3,#16
 1513 0d50 1343     	 orrs r3,r3,r2
 1514 0d52 C7F83431 	 str r3,[r7,#308]
 633:../Dave/Generated/CMSIS_DSP/FilteringFunctions/arm_conv_partial_q7.c **** 
 634:../Dave/Generated/CMSIS_DSP/FilteringFunctions/arm_conv_partial_q7.c ****         /* sum += x[srcALen - srcBLen + 1] * y[srcBLen - 1] */
 635:../Dave/Generated/CMSIS_DSP/FilteringFunctions/arm_conv_partial_q7.c ****         /* sum += x[srcALen - srcBLen + 2] * y[srcBLen - 2] */
 636:../Dave/Generated/CMSIS_DSP/FilteringFunctions/arm_conv_partial_q7.c ****         sum = __SMLAD(input1, input2, sum);
 1515              	 .loc 1 636 0
 1516 0d56 D7F83801 	 ldr r0,[r7,#312]
 1517 0d5a D7F83411 	 ldr r1,[r7,#308]
 1518 0d5e D7F87821 	 ldr r2,[r7,#376]
 1519 0d62 07F12C03 	 add r3,r7,#44
 1520 0d66 1860     	 str r0,[r3]
 1521 0d68 07F12803 	 add r3,r7,#40
 1522 0d6c 1960     	 str r1,[r3]
 1523 0d6e 07F12403 	 add r3,r7,#36
 1524 0d72 1A60     	 str r2,[r3]
 1525              	.LBB69:
 1526              	.LBB70:
 507:C:\Users\Depes Crystalline\Desktop\school\Active_Bike_Lighting_System\Radar_Core/Libraries/CMSIS/Include\core_cmSimd.h ****   return(result);
 1527              	 .loc 2 507 0
 1528 0d74 07F12C03 	 add r3,r7,#44
 1529 0d78 1B68     	 ldr r3,[r3]
 1530 0d7a 07F12802 	 add r2,r7,#40
 1531 0d7e 1268     	 ldr r2,[r2]
 1532 0d80 07F12401 	 add r1,r7,#36
 1533 0d84 0968     	 ldr r1,[r1]
 1534              	
 1535 0d86 23FB0212 	 smlad r2,r3,r2,r1
 1536              	
 1537              	 .thumb
 1538 0d8a 07F12003 	 add r3,r7,#32
 1539 0d8e 1A60     	 str r2,[r3]
 1540              	 .loc 2 508 0
 1541 0d90 07F12003 	 add r3,r7,#32
 1542 0d94 1B68     	 ldr r3,[r3]
 1543              	.LBE70:
 1544              	.LBE69:
 1545              	 .loc 1 636 0
 1546 0d96 C7F87831 	 str r3,[r7,#376]
 637:../Dave/Generated/CMSIS_DSP/FilteringFunctions/arm_conv_partial_q7.c **** 
 638:../Dave/Generated/CMSIS_DSP/FilteringFunctions/arm_conv_partial_q7.c ****         /* Reading two inputs, x[srcALen - srcBLen + 3] and x[srcALen - srcBLen + 4] of SrcA buffer
 639:../Dave/Generated/CMSIS_DSP/FilteringFunctions/arm_conv_partial_q7.c ****         in1 = (q15_t) * px++;
 1547              	 .loc 1 639 0
 1548 0d9a D7F88831 	 ldr r3,[r7,#392]
 1549 0d9e 5A1C     	 adds r2,r3,#1
 1550 0da0 C7F88821 	 str r2,[r7,#392]
 1551 0da4 1B78     	 ldrb r3,[r3]
 1552 0da6 5BB2     	 sxtb r3,r3
 1553 0da8 A7F83E31 	 strh r3,[r7,#318]
 640:../Dave/Generated/CMSIS_DSP/FilteringFunctions/arm_conv_partial_q7.c ****         in2 = (q15_t) * px++;
 1554              	 .loc 1 640 0
 1555 0dac D7F88831 	 ldr r3,[r7,#392]
 1556 0db0 5A1C     	 adds r2,r3,#1
 1557 0db2 C7F88821 	 str r2,[r7,#392]
 1558 0db6 1B78     	 ldrb r3,[r3]
 1559 0db8 5BB2     	 sxtb r3,r3
 1560 0dba A7F83C31 	 strh r3,[r7,#316]
 641:../Dave/Generated/CMSIS_DSP/FilteringFunctions/arm_conv_partial_q7.c ****         input1 = ((q31_t) in1 & 0x0000FFFF) | ((q31_t) in2 << 16);
 1561              	 .loc 1 641 0
 1562 0dbe B7F93E31 	 ldrsh r3,[r7,#318]
 1563 0dc2 9AB2     	 uxth r2,r3
 1564 0dc4 B7F93C31 	 ldrsh r3,[r7,#316]
 1565 0dc8 1B04     	 lsls r3,r3,#16
 1566 0dca 1343     	 orrs r3,r3,r2
 1567 0dcc C7F83831 	 str r3,[r7,#312]
 642:../Dave/Generated/CMSIS_DSP/FilteringFunctions/arm_conv_partial_q7.c **** 
 643:../Dave/Generated/CMSIS_DSP/FilteringFunctions/arm_conv_partial_q7.c ****         /* Reading two inputs, y[srcBLen - 3] and y[srcBLen - 4] of SrcB buffer and packing */
 644:../Dave/Generated/CMSIS_DSP/FilteringFunctions/arm_conv_partial_q7.c ****         in1 = (q15_t) * py--;
 1568              	 .loc 1 644 0
 1569 0dd0 D7F88431 	 ldr r3,[r7,#388]
 1570 0dd4 5A1E     	 subs r2,r3,#1
 1571 0dd6 C7F88421 	 str r2,[r7,#388]
 1572 0dda 1B78     	 ldrb r3,[r3]
 1573 0ddc 5BB2     	 sxtb r3,r3
 1574 0dde A7F83E31 	 strh r3,[r7,#318]
 645:../Dave/Generated/CMSIS_DSP/FilteringFunctions/arm_conv_partial_q7.c ****         in2 = (q15_t) * py--;
 1575              	 .loc 1 645 0
 1576 0de2 D7F88431 	 ldr r3,[r7,#388]
 1577 0de6 5A1E     	 subs r2,r3,#1
 1578 0de8 C7F88421 	 str r2,[r7,#388]
 1579 0dec 1B78     	 ldrb r3,[r3]
 1580 0dee 5BB2     	 sxtb r3,r3
 1581 0df0 A7F83C31 	 strh r3,[r7,#316]
 646:../Dave/Generated/CMSIS_DSP/FilteringFunctions/arm_conv_partial_q7.c ****         input2 = ((q31_t) in1 & 0x0000FFFF) | ((q31_t) in2 << 16);
 1582              	 .loc 1 646 0
 1583 0df4 B7F93E31 	 ldrsh r3,[r7,#318]
 1584 0df8 9AB2     	 uxth r2,r3
 1585 0dfa B7F93C31 	 ldrsh r3,[r7,#316]
 1586 0dfe 1B04     	 lsls r3,r3,#16
 1587 0e00 1343     	 orrs r3,r3,r2
 1588 0e02 C7F83431 	 str r3,[r7,#308]
 647:../Dave/Generated/CMSIS_DSP/FilteringFunctions/arm_conv_partial_q7.c **** 
 648:../Dave/Generated/CMSIS_DSP/FilteringFunctions/arm_conv_partial_q7.c ****         /* sum += x[srcALen - srcBLen + 3] * y[srcBLen - 3] */
 649:../Dave/Generated/CMSIS_DSP/FilteringFunctions/arm_conv_partial_q7.c ****         /* sum += x[srcALen - srcBLen + 4] * y[srcBLen - 4] */
 650:../Dave/Generated/CMSIS_DSP/FilteringFunctions/arm_conv_partial_q7.c ****         sum = __SMLAD(input1, input2, sum);
 1589              	 .loc 1 650 0
 1590 0e06 D7F83801 	 ldr r0,[r7,#312]
 1591 0e0a D7F83411 	 ldr r1,[r7,#308]
 1592 0e0e D7F87821 	 ldr r2,[r7,#376]
 1593 0e12 07F11C03 	 add r3,r7,#28
 1594 0e16 1860     	 str r0,[r3]
 1595 0e18 07F11803 	 add r3,r7,#24
 1596 0e1c 1960     	 str r1,[r3]
 1597 0e1e 07F11403 	 add r3,r7,#20
 1598 0e22 1A60     	 str r2,[r3]
 1599              	.LBB71:
 1600              	.LBB72:
 507:C:\Users\Depes Crystalline\Desktop\school\Active_Bike_Lighting_System\Radar_Core/Libraries/CMSIS/Include\core_cmSimd.h ****   return(result);
 1601              	 .loc 2 507 0
 1602 0e24 07F11C03 	 add r3,r7,#28
 1603 0e28 1B68     	 ldr r3,[r3]
 1604 0e2a 07F11802 	 add r2,r7,#24
 1605 0e2e 1268     	 ldr r2,[r2]
 1606 0e30 07F11401 	 add r1,r7,#20
 1607 0e34 0968     	 ldr r1,[r1]
 1608              	
 1609 0e36 23FB0212 	 smlad r2,r3,r2,r1
 1610              	
 1611              	 .thumb
 1612 0e3a 07F11003 	 add r3,r7,#16
 1613 0e3e 1A60     	 str r2,[r3]
 1614              	 .loc 2 508 0
 1615 0e40 07F11003 	 add r3,r7,#16
 1616 0e44 1B68     	 ldr r3,[r3]
 1617              	.LBE72:
 1618              	.LBE71:
 1619              	 .loc 1 650 0
 1620 0e46 C7F87831 	 str r3,[r7,#376]
 651:../Dave/Generated/CMSIS_DSP/FilteringFunctions/arm_conv_partial_q7.c **** 
 652:../Dave/Generated/CMSIS_DSP/FilteringFunctions/arm_conv_partial_q7.c ****         /* Decrement the loop counter */
 653:../Dave/Generated/CMSIS_DSP/FilteringFunctions/arm_conv_partial_q7.c ****         k--;
 1621              	 .loc 1 653 0
 1622 0e4a D7F86031 	 ldr r3,[r7,#352]
 1623 0e4e 013B     	 subs r3,r3,#1
 1624 0e50 C7F86031 	 str r3,[r7,#352]
 1625              	.L52:
 622:../Dave/Generated/CMSIS_DSP/FilteringFunctions/arm_conv_partial_q7.c ****       {
 1626              	 .loc 1 622 0
 1627 0e54 D7F86031 	 ldr r3,[r7,#352]
 1628 0e58 002B     	 cmp r3,#0
 1629 0e5a 7FF446AF 	 bne .L55
 654:../Dave/Generated/CMSIS_DSP/FilteringFunctions/arm_conv_partial_q7.c ****       }
 655:../Dave/Generated/CMSIS_DSP/FilteringFunctions/arm_conv_partial_q7.c **** 
 656:../Dave/Generated/CMSIS_DSP/FilteringFunctions/arm_conv_partial_q7.c ****       /* If the count is not a multiple of 4, compute any remaining MACs here.   
 657:../Dave/Generated/CMSIS_DSP/FilteringFunctions/arm_conv_partial_q7.c ****        ** No loop unrolling is used. */
 658:../Dave/Generated/CMSIS_DSP/FilteringFunctions/arm_conv_partial_q7.c ****       k = count % 0x4u;
 1630              	 .loc 1 658 0
 1631 0e5e D7F85C31 	 ldr r3,[r7,#348]
 1632 0e62 03F00303 	 and r3,r3,#3
 1633 0e66 C7F86031 	 str r3,[r7,#352]
 659:../Dave/Generated/CMSIS_DSP/FilteringFunctions/arm_conv_partial_q7.c **** 
 660:../Dave/Generated/CMSIS_DSP/FilteringFunctions/arm_conv_partial_q7.c ****       while(k > 0u)
 1634              	 .loc 1 660 0
 1635 0e6a 19E0     	 b .L56
 1636              	.L57:
 661:../Dave/Generated/CMSIS_DSP/FilteringFunctions/arm_conv_partial_q7.c ****       {
 662:../Dave/Generated/CMSIS_DSP/FilteringFunctions/arm_conv_partial_q7.c ****         /* Perform the multiply-accumulates */
 663:../Dave/Generated/CMSIS_DSP/FilteringFunctions/arm_conv_partial_q7.c ****         /* sum +=  x[srcALen-1] * y[srcBLen-1] */
 664:../Dave/Generated/CMSIS_DSP/FilteringFunctions/arm_conv_partial_q7.c ****         sum += ((q31_t) * px++ * *py--);
 1637              	 .loc 1 664 0
 1638 0e6c D7F88831 	 ldr r3,[r7,#392]
 1639 0e70 5A1C     	 adds r2,r3,#1
 1640 0e72 C7F88821 	 str r2,[r7,#392]
 1641 0e76 1B78     	 ldrb r3,[r3]
 1642 0e78 5AB2     	 sxtb r2,r3
 1643 0e7a D7F88431 	 ldr r3,[r7,#388]
 1644 0e7e 591E     	 subs r1,r3,#1
 1645 0e80 C7F88411 	 str r1,[r7,#388]
 1646 0e84 1B78     	 ldrb r3,[r3]
 1647 0e86 5BB2     	 sxtb r3,r3
 1648 0e88 03FB02F3 	 mul r3,r3,r2
 1649 0e8c D7F87821 	 ldr r2,[r7,#376]
 1650 0e90 1344     	 add r3,r3,r2
 1651 0e92 C7F87831 	 str r3,[r7,#376]
 665:../Dave/Generated/CMSIS_DSP/FilteringFunctions/arm_conv_partial_q7.c **** 
 666:../Dave/Generated/CMSIS_DSP/FilteringFunctions/arm_conv_partial_q7.c ****         /* Decrement the loop counter */
 667:../Dave/Generated/CMSIS_DSP/FilteringFunctions/arm_conv_partial_q7.c ****         k--;
 1652              	 .loc 1 667 0
 1653 0e96 D7F86031 	 ldr r3,[r7,#352]
 1654 0e9a 013B     	 subs r3,r3,#1
 1655 0e9c C7F86031 	 str r3,[r7,#352]
 1656              	.L56:
 660:../Dave/Generated/CMSIS_DSP/FilteringFunctions/arm_conv_partial_q7.c ****       {
 1657              	 .loc 1 660 0
 1658 0ea0 D7F86031 	 ldr r3,[r7,#352]
 1659 0ea4 002B     	 cmp r3,#0
 1660 0ea6 E1D1     	 bne .L57
 668:../Dave/Generated/CMSIS_DSP/FilteringFunctions/arm_conv_partial_q7.c ****       }
 669:../Dave/Generated/CMSIS_DSP/FilteringFunctions/arm_conv_partial_q7.c **** 
 670:../Dave/Generated/CMSIS_DSP/FilteringFunctions/arm_conv_partial_q7.c ****       /* Store the result in the accumulator in the destination buffer. */
 671:../Dave/Generated/CMSIS_DSP/FilteringFunctions/arm_conv_partial_q7.c ****       *pOut++ = (q7_t) (__SSAT(sum >> 7, 8));
 1661              	 .loc 1 671 0
 1662 0ea8 D7F88C31 	 ldr r3,[r7,#396]
 1663 0eac 5A1C     	 adds r2,r3,#1
 1664 0eae C7F88C21 	 str r2,[r7,#396]
 1665              	.LBB73:
 1666 0eb2 D7F87821 	 ldr r2,[r7,#376]
 1667 0eb6 D211     	 asrs r2,r2,#7
 1668 0eb8 C7F8F420 	 str r2,[r7,#244]
 1669 0ebc D7F8F420 	 ldr r2,[r7,#244]
 1670              	
 1671 0ec0 02F30702 	 ssat r2,#8,r2
 1672              	
 1673              	 .thumb
 1674 0ec4 C7F8F020 	 str r2,[r7,#240]
 1675 0ec8 D7F8F020 	 ldr r2,[r7,#240]
 1676              	.LBE73:
 1677 0ecc D2B2     	 uxtb r2,r2
 1678 0ece 1A70     	 strb r2,[r3]
 672:../Dave/Generated/CMSIS_DSP/FilteringFunctions/arm_conv_partial_q7.c **** 
 673:../Dave/Generated/CMSIS_DSP/FilteringFunctions/arm_conv_partial_q7.c ****       /* Update the inputA and inputB pointers for next MAC calculation */
 674:../Dave/Generated/CMSIS_DSP/FilteringFunctions/arm_conv_partial_q7.c ****       px = ++pSrc1;
 1679              	 .loc 1 674 0
 1680 0ed0 D7F88031 	 ldr r3,[r7,#384]
 1681 0ed4 0133     	 adds r3,r3,#1
 1682 0ed6 C7F88031 	 str r3,[r7,#384]
 1683 0eda D7F88031 	 ldr r3,[r7,#384]
 1684 0ede C7F88831 	 str r3,[r7,#392]
 675:../Dave/Generated/CMSIS_DSP/FilteringFunctions/arm_conv_partial_q7.c ****       py = pSrc2;
 1685              	 .loc 1 675 0
 1686 0ee2 D7F87C31 	 ldr r3,[r7,#380]
 1687 0ee6 C7F88431 	 str r3,[r7,#388]
 676:../Dave/Generated/CMSIS_DSP/FilteringFunctions/arm_conv_partial_q7.c **** 
 677:../Dave/Generated/CMSIS_DSP/FilteringFunctions/arm_conv_partial_q7.c ****       /* Decrement the MAC count */
 678:../Dave/Generated/CMSIS_DSP/FilteringFunctions/arm_conv_partial_q7.c ****       count--;
 1688              	 .loc 1 678 0
 1689 0eea D7F85C31 	 ldr r3,[r7,#348]
 1690 0eee 013B     	 subs r3,r3,#1
 1691 0ef0 C7F85C31 	 str r3,[r7,#348]
 679:../Dave/Generated/CMSIS_DSP/FilteringFunctions/arm_conv_partial_q7.c **** 
 680:../Dave/Generated/CMSIS_DSP/FilteringFunctions/arm_conv_partial_q7.c ****       /* Decrement the loop counter */
 681:../Dave/Generated/CMSIS_DSP/FilteringFunctions/arm_conv_partial_q7.c ****       blockSize3--;
 1692              	 .loc 1 681 0
 1693 0ef4 D7F85031 	 ldr r3,[r7,#336]
 1694 0ef8 013B     	 subs r3,r3,#1
 1695 0efa C7F85031 	 str r3,[r7,#336]
 1696              	.L51:
 612:../Dave/Generated/CMSIS_DSP/FilteringFunctions/arm_conv_partial_q7.c ****     {
 1697              	 .loc 1 612 0
 1698 0efe D7F85031 	 ldr r3,[r7,#336]
 1699 0f02 002B     	 cmp r3,#0
 1700 0f04 3FF7E8AE 	 bgt .L58
 682:../Dave/Generated/CMSIS_DSP/FilteringFunctions/arm_conv_partial_q7.c **** 
 683:../Dave/Generated/CMSIS_DSP/FilteringFunctions/arm_conv_partial_q7.c ****     }
 684:../Dave/Generated/CMSIS_DSP/FilteringFunctions/arm_conv_partial_q7.c **** 
 685:../Dave/Generated/CMSIS_DSP/FilteringFunctions/arm_conv_partial_q7.c ****     /* set status as ARM_MATH_SUCCESS */
 686:../Dave/Generated/CMSIS_DSP/FilteringFunctions/arm_conv_partial_q7.c ****     status = ARM_MATH_SUCCESS;
 1701              	 .loc 1 686 0
 1702 0f08 0023     	 movs r3,#0
 1703 0f0a 87F84F31 	 strb r3,[r7,#335]
 1704              	.L3:
 687:../Dave/Generated/CMSIS_DSP/FilteringFunctions/arm_conv_partial_q7.c ****   }
 688:../Dave/Generated/CMSIS_DSP/FilteringFunctions/arm_conv_partial_q7.c **** 
 689:../Dave/Generated/CMSIS_DSP/FilteringFunctions/arm_conv_partial_q7.c ****   /* Return to application */
 690:../Dave/Generated/CMSIS_DSP/FilteringFunctions/arm_conv_partial_q7.c ****   return (status);
 1705              	 .loc 1 690 0
 1706 0f0e 97F84F31 	 ldrb r3,[r7,#335]
 1707 0f12 5BB2     	 sxtb r3,r3
 691:../Dave/Generated/CMSIS_DSP/FilteringFunctions/arm_conv_partial_q7.c **** 
 692:../Dave/Generated/CMSIS_DSP/FilteringFunctions/arm_conv_partial_q7.c **** #else
 693:../Dave/Generated/CMSIS_DSP/FilteringFunctions/arm_conv_partial_q7.c **** 
 694:../Dave/Generated/CMSIS_DSP/FilteringFunctions/arm_conv_partial_q7.c ****   /* Run the below code for Cortex-M0 */
 695:../Dave/Generated/CMSIS_DSP/FilteringFunctions/arm_conv_partial_q7.c **** 
 696:../Dave/Generated/CMSIS_DSP/FilteringFunctions/arm_conv_partial_q7.c ****   q7_t *pIn1 = pSrcA;                            /* inputA pointer */
 697:../Dave/Generated/CMSIS_DSP/FilteringFunctions/arm_conv_partial_q7.c ****   q7_t *pIn2 = pSrcB;                            /* inputB pointer */
 698:../Dave/Generated/CMSIS_DSP/FilteringFunctions/arm_conv_partial_q7.c ****   q31_t sum;                                     /* Accumulator */
 699:../Dave/Generated/CMSIS_DSP/FilteringFunctions/arm_conv_partial_q7.c ****   uint32_t i, j;                                 /* loop counters */
 700:../Dave/Generated/CMSIS_DSP/FilteringFunctions/arm_conv_partial_q7.c ****   arm_status status;                             /* status of Partial convolution */
 701:../Dave/Generated/CMSIS_DSP/FilteringFunctions/arm_conv_partial_q7.c **** 
 702:../Dave/Generated/CMSIS_DSP/FilteringFunctions/arm_conv_partial_q7.c ****   /* Check for range of output samples to be calculated */
 703:../Dave/Generated/CMSIS_DSP/FilteringFunctions/arm_conv_partial_q7.c ****   if((firstIndex + numPoints) > ((srcALen + (srcBLen - 1u))))
 704:../Dave/Generated/CMSIS_DSP/FilteringFunctions/arm_conv_partial_q7.c ****   {
 705:../Dave/Generated/CMSIS_DSP/FilteringFunctions/arm_conv_partial_q7.c ****     /* Set status as ARM_ARGUMENT_ERROR */
 706:../Dave/Generated/CMSIS_DSP/FilteringFunctions/arm_conv_partial_q7.c ****     status = ARM_MATH_ARGUMENT_ERROR;
 707:../Dave/Generated/CMSIS_DSP/FilteringFunctions/arm_conv_partial_q7.c ****   }
 708:../Dave/Generated/CMSIS_DSP/FilteringFunctions/arm_conv_partial_q7.c ****   else
 709:../Dave/Generated/CMSIS_DSP/FilteringFunctions/arm_conv_partial_q7.c ****   {
 710:../Dave/Generated/CMSIS_DSP/FilteringFunctions/arm_conv_partial_q7.c ****     /* Loop to calculate convolution for output length number of values */
 711:../Dave/Generated/CMSIS_DSP/FilteringFunctions/arm_conv_partial_q7.c ****     for (i = firstIndex; i <= (firstIndex + numPoints - 1); i++)
 712:../Dave/Generated/CMSIS_DSP/FilteringFunctions/arm_conv_partial_q7.c ****     {
 713:../Dave/Generated/CMSIS_DSP/FilteringFunctions/arm_conv_partial_q7.c ****       /* Initialize sum with zero to carry on MAC operations */
 714:../Dave/Generated/CMSIS_DSP/FilteringFunctions/arm_conv_partial_q7.c ****       sum = 0;
 715:../Dave/Generated/CMSIS_DSP/FilteringFunctions/arm_conv_partial_q7.c **** 
 716:../Dave/Generated/CMSIS_DSP/FilteringFunctions/arm_conv_partial_q7.c ****       /* Loop to perform MAC operations according to convolution equation */
 717:../Dave/Generated/CMSIS_DSP/FilteringFunctions/arm_conv_partial_q7.c ****       for (j = 0; j <= i; j++)
 718:../Dave/Generated/CMSIS_DSP/FilteringFunctions/arm_conv_partial_q7.c ****       {
 719:../Dave/Generated/CMSIS_DSP/FilteringFunctions/arm_conv_partial_q7.c ****         /* Check the array limitations */
 720:../Dave/Generated/CMSIS_DSP/FilteringFunctions/arm_conv_partial_q7.c ****         if(((i - j) < srcBLen) && (j < srcALen))
 721:../Dave/Generated/CMSIS_DSP/FilteringFunctions/arm_conv_partial_q7.c ****         {
 722:../Dave/Generated/CMSIS_DSP/FilteringFunctions/arm_conv_partial_q7.c ****           /* z[i] += x[i-j] * y[j] */
 723:../Dave/Generated/CMSIS_DSP/FilteringFunctions/arm_conv_partial_q7.c ****           sum += ((q15_t) pIn1[j] * (pIn2[i - j]));
 724:../Dave/Generated/CMSIS_DSP/FilteringFunctions/arm_conv_partial_q7.c ****         }
 725:../Dave/Generated/CMSIS_DSP/FilteringFunctions/arm_conv_partial_q7.c ****       }
 726:../Dave/Generated/CMSIS_DSP/FilteringFunctions/arm_conv_partial_q7.c **** 
 727:../Dave/Generated/CMSIS_DSP/FilteringFunctions/arm_conv_partial_q7.c ****       /* Store the output in the destination buffer */
 728:../Dave/Generated/CMSIS_DSP/FilteringFunctions/arm_conv_partial_q7.c ****       pDst[i] = (q7_t) __SSAT((sum >> 7u), 8u);
 729:../Dave/Generated/CMSIS_DSP/FilteringFunctions/arm_conv_partial_q7.c ****     }
 730:../Dave/Generated/CMSIS_DSP/FilteringFunctions/arm_conv_partial_q7.c ****     /* set status as ARM_SUCCESS as there are no argument errors */
 731:../Dave/Generated/CMSIS_DSP/FilteringFunctions/arm_conv_partial_q7.c ****     status = ARM_MATH_SUCCESS;
 732:../Dave/Generated/CMSIS_DSP/FilteringFunctions/arm_conv_partial_q7.c ****   }
 733:../Dave/Generated/CMSIS_DSP/FilteringFunctions/arm_conv_partial_q7.c ****   return (status);
 734:../Dave/Generated/CMSIS_DSP/FilteringFunctions/arm_conv_partial_q7.c **** 
 735:../Dave/Generated/CMSIS_DSP/FilteringFunctions/arm_conv_partial_q7.c **** #endif /*  #ifndef ARM_MATH_CM0_FAMILY */
 736:../Dave/Generated/CMSIS_DSP/FilteringFunctions/arm_conv_partial_q7.c **** 
 737:../Dave/Generated/CMSIS_DSP/FilteringFunctions/arm_conv_partial_q7.c **** }
 1708              	 .loc 1 737 0
 1709 0f14 1846     	 mov r0,r3
 1710 0f16 07F5CC77 	 add r7,r7,#408
 1711              	.LCFI3:
 1712              	 .cfi_def_cfa_offset 8
 1713 0f1a BD46     	 mov sp,r7
 1714              	.LCFI4:
 1715              	 .cfi_def_cfa_register 13
 1716              	 
 1717 0f1c 90BC     	 pop {r4,r7}
 1718              	.LCFI5:
 1719              	 .cfi_restore 7
 1720              	 .cfi_restore 4
 1721              	 .cfi_def_cfa_offset 0
 1722 0f1e 7047     	 bx lr
 1723              	 .cfi_endproc
 1724              	.LFE139:
 1726              	 .text
 1727              	.Letext0:
 1728              	 .file 3 "c:\\davev4-64bit\\dave-4.2.6\\eclipse\\arm-gcc-49\\arm-none-eabi\\include\\machine\\_default_types.h"
 1729              	 .file 4 "c:\\davev4-64bit\\dave-4.2.6\\eclipse\\arm-gcc-49\\arm-none-eabi\\include\\stdint.h"
 1730              	 .file 5 "C:\\Users\\Depes Crystalline\\Desktop\\school\\Active_Bike_Lighting_System\\Radar_Core\\Dave\\Generated/CMSIS_DSP/arm_math.h"