   1              	 .syntax unified
   2              	 .cpu cortex-m4
   3              	 .fpu softvfp
   4              	 .eabi_attribute 20,1
   5              	 .eabi_attribute 21,1
   6              	 .eabi_attribute 23,3
   7              	 .eabi_attribute 24,1
   8              	 .eabi_attribute 25,1
   9              	 .eabi_attribute 26,1
  10              	 .eabi_attribute 30,6
  11              	 .eabi_attribute 34,1
  12              	 .eabi_attribute 18,4
  13              	 .thumb
  14              	 .file "dac.c"
  15              	 .text
  16              	.Ltext0:
  17              	 .cfi_sections .debug_frame
  18              	 .section .text.XMC_DAC_EnableSimultaneousDataMode,"ax",%progbits
  19              	 .align 2
  20              	 .thumb
  21              	 .thumb_func
  23              	XMC_DAC_EnableSimultaneousDataMode:
  24              	.LFB128:
  25              	 .file 1 "C:\\Users\\Depes Crystalline\\Desktop\\school\\Active_Bike_Lighting_System\\Radar_Core\\Libraries\\XMCLib\\inc/xmc_dac.h"
   1:C:\Users\Depes Crystalline\Desktop\school\Active_Bike_Lighting_System\Radar_Core\Libraries\XMCLib\inc\xmc_dac.h **** /**
   2:C:\Users\Depes Crystalline\Desktop\school\Active_Bike_Lighting_System\Radar_Core\Libraries\XMCLib\inc\xmc_dac.h ****  * @file xmc_dac.h
   3:C:\Users\Depes Crystalline\Desktop\school\Active_Bike_Lighting_System\Radar_Core\Libraries\XMCLib\inc\xmc_dac.h ****  * @date 2015-06-19 
   4:C:\Users\Depes Crystalline\Desktop\school\Active_Bike_Lighting_System\Radar_Core\Libraries\XMCLib\inc\xmc_dac.h ****  *
   5:C:\Users\Depes Crystalline\Desktop\school\Active_Bike_Lighting_System\Radar_Core\Libraries\XMCLib\inc\xmc_dac.h ****  * @cond
   6:C:\Users\Depes Crystalline\Desktop\school\Active_Bike_Lighting_System\Radar_Core\Libraries\XMCLib\inc\xmc_dac.h ****  **********************************************************************************
   7:C:\Users\Depes Crystalline\Desktop\school\Active_Bike_Lighting_System\Radar_Core\Libraries\XMCLib\inc\xmc_dac.h ****  * XMClib v2.0.0 - XMC Peripheral Driver Library
   8:C:\Users\Depes Crystalline\Desktop\school\Active_Bike_Lighting_System\Radar_Core\Libraries\XMCLib\inc\xmc_dac.h ****  *
   9:C:\Users\Depes Crystalline\Desktop\school\Active_Bike_Lighting_System\Radar_Core\Libraries\XMCLib\inc\xmc_dac.h ****  * Copyright (c) 2015, Infineon Technologies AG
  10:C:\Users\Depes Crystalline\Desktop\school\Active_Bike_Lighting_System\Radar_Core\Libraries\XMCLib\inc\xmc_dac.h ****  * All rights reserved.                        
  11:C:\Users\Depes Crystalline\Desktop\school\Active_Bike_Lighting_System\Radar_Core\Libraries\XMCLib\inc\xmc_dac.h ****  *                                             
  12:C:\Users\Depes Crystalline\Desktop\school\Active_Bike_Lighting_System\Radar_Core\Libraries\XMCLib\inc\xmc_dac.h ****  * Redistribution and use in source and binary forms, with or without           
  13:C:\Users\Depes Crystalline\Desktop\school\Active_Bike_Lighting_System\Radar_Core\Libraries\XMCLib\inc\xmc_dac.h ****  * modification,are permitted provided that the following conditions are met:   
  14:C:\Users\Depes Crystalline\Desktop\school\Active_Bike_Lighting_System\Radar_Core\Libraries\XMCLib\inc\xmc_dac.h ****  *                                                                              
  15:C:\Users\Depes Crystalline\Desktop\school\Active_Bike_Lighting_System\Radar_Core\Libraries\XMCLib\inc\xmc_dac.h ****  *   Redistributions of source code must retain the above copyright notice,      
  16:C:\Users\Depes Crystalline\Desktop\school\Active_Bike_Lighting_System\Radar_Core\Libraries\XMCLib\inc\xmc_dac.h ****  *   this list of conditions and the following disclaimer.                        
  17:C:\Users\Depes Crystalline\Desktop\school\Active_Bike_Lighting_System\Radar_Core\Libraries\XMCLib\inc\xmc_dac.h ****  * 
  18:C:\Users\Depes Crystalline\Desktop\school\Active_Bike_Lighting_System\Radar_Core\Libraries\XMCLib\inc\xmc_dac.h ****  *   Redistributions in binary form must reproduce the above copyright notice,   
  19:C:\Users\Depes Crystalline\Desktop\school\Active_Bike_Lighting_System\Radar_Core\Libraries\XMCLib\inc\xmc_dac.h ****  *   this list of conditions and the following disclaimer in the documentation    
  20:C:\Users\Depes Crystalline\Desktop\school\Active_Bike_Lighting_System\Radar_Core\Libraries\XMCLib\inc\xmc_dac.h ****  *   and/or other materials provided with the distribution.                       
  21:C:\Users\Depes Crystalline\Desktop\school\Active_Bike_Lighting_System\Radar_Core\Libraries\XMCLib\inc\xmc_dac.h ****  * 
  22:C:\Users\Depes Crystalline\Desktop\school\Active_Bike_Lighting_System\Radar_Core\Libraries\XMCLib\inc\xmc_dac.h ****  *   Neither the name of the copyright holders nor the names of its contributors 
  23:C:\Users\Depes Crystalline\Desktop\school\Active_Bike_Lighting_System\Radar_Core\Libraries\XMCLib\inc\xmc_dac.h ****  *   may be used to endorse or promote products derived from this software without
  24:C:\Users\Depes Crystalline\Desktop\school\Active_Bike_Lighting_System\Radar_Core\Libraries\XMCLib\inc\xmc_dac.h ****  *   specific prior written permission.                                           
  25:C:\Users\Depes Crystalline\Desktop\school\Active_Bike_Lighting_System\Radar_Core\Libraries\XMCLib\inc\xmc_dac.h ****  *                                                                              
  26:C:\Users\Depes Crystalline\Desktop\school\Active_Bike_Lighting_System\Radar_Core\Libraries\XMCLib\inc\xmc_dac.h ****  * THIS SOFTWARE IS PROVIDED BY THE COPYRIGHT HOLDERS AND CONTRIBUTORS "AS IS"  
  27:C:\Users\Depes Crystalline\Desktop\school\Active_Bike_Lighting_System\Radar_Core\Libraries\XMCLib\inc\xmc_dac.h ****  * AND ANY EXPRESS OR IMPLIED WARRANTIES, INCLUDING, BUT NOT LIMITED TO, THE    
  28:C:\Users\Depes Crystalline\Desktop\school\Active_Bike_Lighting_System\Radar_Core\Libraries\XMCLib\inc\xmc_dac.h ****  * IMPLIED WARRANTIES OF MERCHANTABILITY AND FITNESS FOR A PARTICULAR PURPOSE   
  29:C:\Users\Depes Crystalline\Desktop\school\Active_Bike_Lighting_System\Radar_Core\Libraries\XMCLib\inc\xmc_dac.h ****  * ARE  DISCLAIMED. IN NO EVENT SHALL THE COPYRIGHT HOLDER OR CONTRIBUTORS BE   
  30:C:\Users\Depes Crystalline\Desktop\school\Active_Bike_Lighting_System\Radar_Core\Libraries\XMCLib\inc\xmc_dac.h ****  * LIABLE  FOR ANY DIRECT, INDIRECT, INCIDENTAL, SPECIAL, EXEMPLARY, OR         
  31:C:\Users\Depes Crystalline\Desktop\school\Active_Bike_Lighting_System\Radar_Core\Libraries\XMCLib\inc\xmc_dac.h ****  * CONSEQUENTIAL DAMAGES (INCLUDING, BUT NOT LIMITED TO, PROCUREMENT OF         
  32:C:\Users\Depes Crystalline\Desktop\school\Active_Bike_Lighting_System\Radar_Core\Libraries\XMCLib\inc\xmc_dac.h ****  * SUBSTITUTE GOODS OR  SERVICES; LOSS OF USE, DATA, OR PROFITS; OR BUSINESS    
  33:C:\Users\Depes Crystalline\Desktop\school\Active_Bike_Lighting_System\Radar_Core\Libraries\XMCLib\inc\xmc_dac.h ****  * INTERRUPTION) HOWEVER CAUSED AND ON ANY THEORY OF LIABILITY, WHETHER IN      
  34:C:\Users\Depes Crystalline\Desktop\school\Active_Bike_Lighting_System\Radar_Core\Libraries\XMCLib\inc\xmc_dac.h ****  * CONTRACT, STRICT LIABILITY,OR TORT (INCLUDING NEGLIGENCE OR OTHERWISE)       
  35:C:\Users\Depes Crystalline\Desktop\school\Active_Bike_Lighting_System\Radar_Core\Libraries\XMCLib\inc\xmc_dac.h ****  * ARISING IN ANY WAY OUT OF THE USE OF THIS SOFTWARE, EVEN IF ADVISED OF THE   
  36:C:\Users\Depes Crystalline\Desktop\school\Active_Bike_Lighting_System\Radar_Core\Libraries\XMCLib\inc\xmc_dac.h ****  * POSSIBILITY OF SUCH DAMAGE.                                                  
  37:C:\Users\Depes Crystalline\Desktop\school\Active_Bike_Lighting_System\Radar_Core\Libraries\XMCLib\inc\xmc_dac.h ****  *                                                                              
  38:C:\Users\Depes Crystalline\Desktop\school\Active_Bike_Lighting_System\Radar_Core\Libraries\XMCLib\inc\xmc_dac.h ****  * To improve the quality of the software, users are encouraged to share        
  39:C:\Users\Depes Crystalline\Desktop\school\Active_Bike_Lighting_System\Radar_Core\Libraries\XMCLib\inc\xmc_dac.h ****  * modifications, enhancements or bug fixes with Infineon Technologies AG       
  40:C:\Users\Depes Crystalline\Desktop\school\Active_Bike_Lighting_System\Radar_Core\Libraries\XMCLib\inc\xmc_dac.h ****  * dave@infineon.com).                                                          
  41:C:\Users\Depes Crystalline\Desktop\school\Active_Bike_Lighting_System\Radar_Core\Libraries\XMCLib\inc\xmc_dac.h ****  **********************************************************************************
  42:C:\Users\Depes Crystalline\Desktop\school\Active_Bike_Lighting_System\Radar_Core\Libraries\XMCLib\inc\xmc_dac.h ****  *
  43:C:\Users\Depes Crystalline\Desktop\school\Active_Bike_Lighting_System\Radar_Core\Libraries\XMCLib\inc\xmc_dac.h ****  * Change History
  44:C:\Users\Depes Crystalline\Desktop\school\Active_Bike_Lighting_System\Radar_Core\Libraries\XMCLib\inc\xmc_dac.h ****  * --------------
  45:C:\Users\Depes Crystalline\Desktop\school\Active_Bike_Lighting_System\Radar_Core\Libraries\XMCLib\inc\xmc_dac.h ****  *
  46:C:\Users\Depes Crystalline\Desktop\school\Active_Bike_Lighting_System\Radar_Core\Libraries\XMCLib\inc\xmc_dac.h ****  * 2015-02-18:
  47:C:\Users\Depes Crystalline\Desktop\school\Active_Bike_Lighting_System\Radar_Core\Libraries\XMCLib\inc\xmc_dac.h ****  *     - Initial version
  48:C:\Users\Depes Crystalline\Desktop\school\Active_Bike_Lighting_System\Radar_Core\Libraries\XMCLib\inc\xmc_dac.h ****  *      
  49:C:\Users\Depes Crystalline\Desktop\school\Active_Bike_Lighting_System\Radar_Core\Libraries\XMCLib\inc\xmc_dac.h ****  * 2015-02-20:
  50:C:\Users\Depes Crystalline\Desktop\school\Active_Bike_Lighting_System\Radar_Core\Libraries\XMCLib\inc\xmc_dac.h ****  *     - Driver description added
  51:C:\Users\Depes Crystalline\Desktop\school\Active_Bike_Lighting_System\Radar_Core\Libraries\XMCLib\inc\xmc_dac.h ****  *
  52:C:\Users\Depes Crystalline\Desktop\school\Active_Bike_Lighting_System\Radar_Core\Libraries\XMCLib\inc\xmc_dac.h ****  * 2015-06-19:
  53:C:\Users\Depes Crystalline\Desktop\school\Active_Bike_Lighting_System\Radar_Core\Libraries\XMCLib\inc\xmc_dac.h ****  *     - Removed version macros and declaration of GetDriverVersion API
  54:C:\Users\Depes Crystalline\Desktop\school\Active_Bike_Lighting_System\Radar_Core\Libraries\XMCLib\inc\xmc_dac.h ****  * @endcond 
  55:C:\Users\Depes Crystalline\Desktop\school\Active_Bike_Lighting_System\Radar_Core\Libraries\XMCLib\inc\xmc_dac.h ****  *
  56:C:\Users\Depes Crystalline\Desktop\school\Active_Bike_Lighting_System\Radar_Core\Libraries\XMCLib\inc\xmc_dac.h ****  */
  57:C:\Users\Depes Crystalline\Desktop\school\Active_Bike_Lighting_System\Radar_Core\Libraries\XMCLib\inc\xmc_dac.h **** 
  58:C:\Users\Depes Crystalline\Desktop\school\Active_Bike_Lighting_System\Radar_Core\Libraries\XMCLib\inc\xmc_dac.h **** #ifndef XMC_DAC_H
  59:C:\Users\Depes Crystalline\Desktop\school\Active_Bike_Lighting_System\Radar_Core\Libraries\XMCLib\inc\xmc_dac.h **** #define XMC_DAC_H
  60:C:\Users\Depes Crystalline\Desktop\school\Active_Bike_Lighting_System\Radar_Core\Libraries\XMCLib\inc\xmc_dac.h **** 
  61:C:\Users\Depes Crystalline\Desktop\school\Active_Bike_Lighting_System\Radar_Core\Libraries\XMCLib\inc\xmc_dac.h **** /*******************************************************************************
  62:C:\Users\Depes Crystalline\Desktop\school\Active_Bike_Lighting_System\Radar_Core\Libraries\XMCLib\inc\xmc_dac.h ****  * HEADER FILES
  63:C:\Users\Depes Crystalline\Desktop\school\Active_Bike_Lighting_System\Radar_Core\Libraries\XMCLib\inc\xmc_dac.h ****  *******************************************************************************/
  64:C:\Users\Depes Crystalline\Desktop\school\Active_Bike_Lighting_System\Radar_Core\Libraries\XMCLib\inc\xmc_dac.h **** 
  65:C:\Users\Depes Crystalline\Desktop\school\Active_Bike_Lighting_System\Radar_Core\Libraries\XMCLib\inc\xmc_dac.h **** #include <xmc_common.h>
  66:C:\Users\Depes Crystalline\Desktop\school\Active_Bike_Lighting_System\Radar_Core\Libraries\XMCLib\inc\xmc_dac.h **** 
  67:C:\Users\Depes Crystalline\Desktop\school\Active_Bike_Lighting_System\Radar_Core\Libraries\XMCLib\inc\xmc_dac.h **** /* DAC peripheral is not available on XMC1X devices. */
  68:C:\Users\Depes Crystalline\Desktop\school\Active_Bike_Lighting_System\Radar_Core\Libraries\XMCLib\inc\xmc_dac.h **** #if defined(DAC)
  69:C:\Users\Depes Crystalline\Desktop\school\Active_Bike_Lighting_System\Radar_Core\Libraries\XMCLib\inc\xmc_dac.h **** 
  70:C:\Users\Depes Crystalline\Desktop\school\Active_Bike_Lighting_System\Radar_Core\Libraries\XMCLib\inc\xmc_dac.h **** /**
  71:C:\Users\Depes Crystalline\Desktop\school\Active_Bike_Lighting_System\Radar_Core\Libraries\XMCLib\inc\xmc_dac.h ****  * @addtogroup XMClib
  72:C:\Users\Depes Crystalline\Desktop\school\Active_Bike_Lighting_System\Radar_Core\Libraries\XMCLib\inc\xmc_dac.h ****  * @{
  73:C:\Users\Depes Crystalline\Desktop\school\Active_Bike_Lighting_System\Radar_Core\Libraries\XMCLib\inc\xmc_dac.h ****  */
  74:C:\Users\Depes Crystalline\Desktop\school\Active_Bike_Lighting_System\Radar_Core\Libraries\XMCLib\inc\xmc_dac.h **** 
  75:C:\Users\Depes Crystalline\Desktop\school\Active_Bike_Lighting_System\Radar_Core\Libraries\XMCLib\inc\xmc_dac.h **** /**
  76:C:\Users\Depes Crystalline\Desktop\school\Active_Bike_Lighting_System\Radar_Core\Libraries\XMCLib\inc\xmc_dac.h ****  * @addtogroup DAC
  77:C:\Users\Depes Crystalline\Desktop\school\Active_Bike_Lighting_System\Radar_Core\Libraries\XMCLib\inc\xmc_dac.h ****  * @{
  78:C:\Users\Depes Crystalline\Desktop\school\Active_Bike_Lighting_System\Radar_Core\Libraries\XMCLib\inc\xmc_dac.h ****  *
  79:C:\Users\Depes Crystalline\Desktop\school\Active_Bike_Lighting_System\Radar_Core\Libraries\XMCLib\inc\xmc_dac.h ****  * @brief Digital to Analog Converter (DAC) driver for XMC 4000 microcontroller family. <br>
  80:C:\Users\Depes Crystalline\Desktop\school\Active_Bike_Lighting_System\Radar_Core\Libraries\XMCLib\inc\xmc_dac.h ****  *
  81:C:\Users\Depes Crystalline\Desktop\school\Active_Bike_Lighting_System\Radar_Core\Libraries\XMCLib\inc\xmc_dac.h ****  * DAC driver uses DAC peripheral to convert digital value to analog value. XMC4000 microcontroller
  82:C:\Users\Depes Crystalline\Desktop\school\Active_Bike_Lighting_System\Radar_Core\Libraries\XMCLib\inc\xmc_dac.h ****  * and maximum conversion rate of 2MHz with full accuracy and 5MHz with reduced accuracy.
  83:C:\Users\Depes Crystalline\Desktop\school\Active_Bike_Lighting_System\Radar_Core\Libraries\XMCLib\inc\xmc_dac.h ****  * It consists of inbuilt pattern generator, ramp generator and noise generator modes. Additionally
  84:C:\Users\Depes Crystalline\Desktop\school\Active_Bike_Lighting_System\Radar_Core\Libraries\XMCLib\inc\xmc_dac.h ****  * in single value mode and in data mode.
  85:C:\Users\Depes Crystalline\Desktop\school\Active_Bike_Lighting_System\Radar_Core\Libraries\XMCLib\inc\xmc_dac.h ****  * It has DMA handling capability to generate custom waveforms in data mode without CPU interventio
  86:C:\Users\Depes Crystalline\Desktop\school\Active_Bike_Lighting_System\Radar_Core\Libraries\XMCLib\inc\xmc_dac.h ****  *
  87:C:\Users\Depes Crystalline\Desktop\school\Active_Bike_Lighting_System\Radar_Core\Libraries\XMCLib\inc\xmc_dac.h ****  * DAC driver features:
  88:C:\Users\Depes Crystalline\Desktop\school\Active_Bike_Lighting_System\Radar_Core\Libraries\XMCLib\inc\xmc_dac.h ****  * -#  Configuration structure XMC_DAC_CH_CONFIG_t and initialization function XMC_DAC_CH_Init() to
  89:C:\Users\Depes Crystalline\Desktop\school\Active_Bike_Lighting_System\Radar_Core\Libraries\XMCLib\inc\xmc_dac.h ****  * -#  Pattern Generator Mode:
  90:C:\Users\Depes Crystalline\Desktop\school\Active_Bike_Lighting_System\Radar_Core\Libraries\XMCLib\inc\xmc_dac.h ****  * 	- DAC is configured in pattern generator mode using XMC_DAC_CH_StartPatternMode()
  91:C:\Users\Depes Crystalline\Desktop\school\Active_Bike_Lighting_System\Radar_Core\Libraries\XMCLib\inc\xmc_dac.h ****  * 	- XMC_DAC_CH_SetPattern() is used to set the waveform pattern values in pattern register for on
  92:C:\Users\Depes Crystalline\Desktop\school\Active_Bike_Lighting_System\Radar_Core\Libraries\XMCLib\inc\xmc_dac.h ****  * 	- Allows to change the trigger frequency using XMC_DAC_CH_SetPatternFrequency()
  93:C:\Users\Depes Crystalline\Desktop\school\Active_Bike_Lighting_System\Radar_Core\Libraries\XMCLib\inc\xmc_dac.h ****  * -#  Single Value Mode:
  94:C:\Users\Depes Crystalline\Desktop\school\Active_Bike_Lighting_System\Radar_Core\Libraries\XMCLib\inc\xmc_dac.h ****  * 	- DAC is configured in single value mode using XMC_DAC_CH_StartSingleValueMode()
  95:C:\Users\Depes Crystalline\Desktop\school\Active_Bike_Lighting_System\Radar_Core\Libraries\XMCLib\inc\xmc_dac.h ****  * 	- Allows to change the trigger frequency using XMC_DAC_CH_SetFrequency()
  96:C:\Users\Depes Crystalline\Desktop\school\Active_Bike_Lighting_System\Radar_Core\Libraries\XMCLib\inc\xmc_dac.h ****  * -# Data Mode:
  97:C:\Users\Depes Crystalline\Desktop\school\Active_Bike_Lighting_System\Radar_Core\Libraries\XMCLib\inc\xmc_dac.h ****  * 	- DAC is configured in data mode using XMC_DAC_CH_StartDataMode()
  98:C:\Users\Depes Crystalline\Desktop\school\Active_Bike_Lighting_System\Radar_Core\Libraries\XMCLib\inc\xmc_dac.h ****  * 	- Allows to change the trigger frequency using XMC_DAC_CH_SetFrequency()
  99:C:\Users\Depes Crystalline\Desktop\school\Active_Bike_Lighting_System\Radar_Core\Libraries\XMCLib\inc\xmc_dac.h ****  * -# Ramp Mode:
 100:C:\Users\Depes Crystalline\Desktop\school\Active_Bike_Lighting_System\Radar_Core\Libraries\XMCLib\inc\xmc_dac.h ****  *  - DAC is configured in ramp generator mode using XMC_DAC_CH_StartRampMode()
 101:C:\Users\Depes Crystalline\Desktop\school\Active_Bike_Lighting_System\Radar_Core\Libraries\XMCLib\inc\xmc_dac.h ****  *  - Allows to change the trigger frequency using XMC_DAC_CH_SetRampFrequency()
 102:C:\Users\Depes Crystalline\Desktop\school\Active_Bike_Lighting_System\Radar_Core\Libraries\XMCLib\inc\xmc_dac.h ****  *  - Allows to set the start and stop values of the ramp using XMC_DAC_CH_SetRampStart() and XMC_D
 103:C:\Users\Depes Crystalline\Desktop\school\Active_Bike_Lighting_System\Radar_Core\Libraries\XMCLib\inc\xmc_dac.h ****  * -# Noise Mode:
 104:C:\Users\Depes Crystalline\Desktop\school\Active_Bike_Lighting_System\Radar_Core\Libraries\XMCLib\inc\xmc_dac.h ****  * 	- DAC is configured in noise mode using XMC_DAC_CH_StartNoiseMode()
 105:C:\Users\Depes Crystalline\Desktop\school\Active_Bike_Lighting_System\Radar_Core\Libraries\XMCLib\inc\xmc_dac.h ****  * 	- Allows to change the trigger frequency using XMC_DAC_CH_SetFrequency()
 106:C:\Users\Depes Crystalline\Desktop\school\Active_Bike_Lighting_System\Radar_Core\Libraries\XMCLib\inc\xmc_dac.h ****  * -# Allows to change the scale, offset dynamically using XMC_DAC_CH_SetOutputScale() and XMC_DAC_
 107:C:\Users\Depes Crystalline\Desktop\school\Active_Bike_Lighting_System\Radar_Core\Libraries\XMCLib\inc\xmc_dac.h ****  * -# Allows to select one of the eight possible trigger sources using XMC_DAC_CH_SetTrigger()
 108:C:\Users\Depes Crystalline\Desktop\school\Active_Bike_Lighting_System\Radar_Core\Libraries\XMCLib\inc\xmc_dac.h ****  * -# 2 DAC channels can be used in synchronization in single value mode and data mode to generate 
 109:C:\Users\Depes Crystalline\Desktop\school\Active_Bike_Lighting_System\Radar_Core\Libraries\XMCLib\inc\xmc_dac.h ****  */
 110:C:\Users\Depes Crystalline\Desktop\school\Active_Bike_Lighting_System\Radar_Core\Libraries\XMCLib\inc\xmc_dac.h **** 
 111:C:\Users\Depes Crystalline\Desktop\school\Active_Bike_Lighting_System\Radar_Core\Libraries\XMCLib\inc\xmc_dac.h **** /*******************************************************************************
 112:C:\Users\Depes Crystalline\Desktop\school\Active_Bike_Lighting_System\Radar_Core\Libraries\XMCLib\inc\xmc_dac.h ****  * MACROS
 113:C:\Users\Depes Crystalline\Desktop\school\Active_Bike_Lighting_System\Radar_Core\Libraries\XMCLib\inc\xmc_dac.h ****  *******************************************************************************/
 114:C:\Users\Depes Crystalline\Desktop\school\Active_Bike_Lighting_System\Radar_Core\Libraries\XMCLib\inc\xmc_dac.h **** 
 115:C:\Users\Depes Crystalline\Desktop\school\Active_Bike_Lighting_System\Radar_Core\Libraries\XMCLib\inc\xmc_dac.h **** #define XMC_DAC0 ((XMC_DAC_t *)DAC_BASE)         /**< DAC module register base */
 116:C:\Users\Depes Crystalline\Desktop\school\Active_Bike_Lighting_System\Radar_Core\Libraries\XMCLib\inc\xmc_dac.h **** 
 117:C:\Users\Depes Crystalline\Desktop\school\Active_Bike_Lighting_System\Radar_Core\Libraries\XMCLib\inc\xmc_dac.h **** #define XMC_DAC_DACCFG_NEGATE_Msk (0x10000000UL) /*< DAC negation enable mask in XMC44 device */
 118:C:\Users\Depes Crystalline\Desktop\school\Active_Bike_Lighting_System\Radar_Core\Libraries\XMCLib\inc\xmc_dac.h **** #define XMC_DAC_NO_CHANNELS (2U)                 /**< DAC maximum channels */
 119:C:\Users\Depes Crystalline\Desktop\school\Active_Bike_Lighting_System\Radar_Core\Libraries\XMCLib\inc\xmc_dac.h **** #define XMC_DAC_SAMPLES_PER_PERIOD (32U)         /**< DAC samples per period in pattern mode */
 120:C:\Users\Depes Crystalline\Desktop\school\Active_Bike_Lighting_System\Radar_Core\Libraries\XMCLib\inc\xmc_dac.h **** 
 121:C:\Users\Depes Crystalline\Desktop\school\Active_Bike_Lighting_System\Radar_Core\Libraries\XMCLib\inc\xmc_dac.h **** #define XMC_DAC_PATTERN_TRIANGLE  {0U, 4U, 8U, 12U, 16U, 19U, 23U, 27U, 31U} /**< First quarter Tri
 122:C:\Users\Depes Crystalline\Desktop\school\Active_Bike_Lighting_System\Radar_Core\Libraries\XMCLib\inc\xmc_dac.h **** #define XMC_DAC_PATTERN_SINE      {0U, 6U, 12U, 17U, 22U, 26U, 29U, 30U, 31U} /**< First quarter Si
 123:C:\Users\Depes Crystalline\Desktop\school\Active_Bike_Lighting_System\Radar_Core\Libraries\XMCLib\inc\xmc_dac.h **** #define XMC_DAC_PATTERN_RECTANGLE {31U, 31U, 31U, 31U, 31U, 31U, 31U, 31U, 31U} /**< First quarter 
 124:C:\Users\Depes Crystalline\Desktop\school\Active_Bike_Lighting_System\Radar_Core\Libraries\XMCLib\inc\xmc_dac.h **** 
 125:C:\Users\Depes Crystalline\Desktop\school\Active_Bike_Lighting_System\Radar_Core\Libraries\XMCLib\inc\xmc_dac.h **** #define XMC_DAC_IS_DAC_VALID(PTR)  ( ((PTR) == XMC_DAC0))  /*< Pointer validation for DAC module */
 126:C:\Users\Depes Crystalline\Desktop\school\Active_Bike_Lighting_System\Radar_Core\Libraries\XMCLib\inc\xmc_dac.h **** #define XMC_DAC_IS_CHANNEL_VALID(CH)  (((CH) == 0U) || ((CH) == 1U)) /*< CH validation */
 127:C:\Users\Depes Crystalline\Desktop\school\Active_Bike_Lighting_System\Radar_Core\Libraries\XMCLib\inc\xmc_dac.h **** 
 128:C:\Users\Depes Crystalline\Desktop\school\Active_Bike_Lighting_System\Radar_Core\Libraries\XMCLib\inc\xmc_dac.h **** /*******************************************************************************
 129:C:\Users\Depes Crystalline\Desktop\school\Active_Bike_Lighting_System\Radar_Core\Libraries\XMCLib\inc\xmc_dac.h ****  * ENUMS
 130:C:\Users\Depes Crystalline\Desktop\school\Active_Bike_Lighting_System\Radar_Core\Libraries\XMCLib\inc\xmc_dac.h ****  *******************************************************************************/
 131:C:\Users\Depes Crystalline\Desktop\school\Active_Bike_Lighting_System\Radar_Core\Libraries\XMCLib\inc\xmc_dac.h **** 
 132:C:\Users\Depes Crystalline\Desktop\school\Active_Bike_Lighting_System\Radar_Core\Libraries\XMCLib\inc\xmc_dac.h **** /**
 133:C:\Users\Depes Crystalline\Desktop\school\Active_Bike_Lighting_System\Radar_Core\Libraries\XMCLib\inc\xmc_dac.h ****  * Return types of the API's
 134:C:\Users\Depes Crystalline\Desktop\school\Active_Bike_Lighting_System\Radar_Core\Libraries\XMCLib\inc\xmc_dac.h ****  */
 135:C:\Users\Depes Crystalline\Desktop\school\Active_Bike_Lighting_System\Radar_Core\Libraries\XMCLib\inc\xmc_dac.h **** typedef enum XMC_DAC_CH_STATUS
 136:C:\Users\Depes Crystalline\Desktop\school\Active_Bike_Lighting_System\Radar_Core\Libraries\XMCLib\inc\xmc_dac.h **** {
 137:C:\Users\Depes Crystalline\Desktop\school\Active_Bike_Lighting_System\Radar_Core\Libraries\XMCLib\inc\xmc_dac.h ****   XMC_DAC_CH_STATUS_OK              = 0U, /**< Status is ok, no error detected */
 138:C:\Users\Depes Crystalline\Desktop\school\Active_Bike_Lighting_System\Radar_Core\Libraries\XMCLib\inc\xmc_dac.h ****   XMC_DAC_CH_STATUS_ERROR           = 1U, /**< Error detected */
 139:C:\Users\Depes Crystalline\Desktop\school\Active_Bike_Lighting_System\Radar_Core\Libraries\XMCLib\inc\xmc_dac.h ****   XMC_DAC_CH_STATUS_BUSY            = 2U, /**< DAC is busy */
 140:C:\Users\Depes Crystalline\Desktop\school\Active_Bike_Lighting_System\Radar_Core\Libraries\XMCLib\inc\xmc_dac.h ****   XMC_DAC_CH_STATUS_ERROR_FREQ2LOW  = 3U, /**< Frequency can't be configured. Frequency is to low. 
 141:C:\Users\Depes Crystalline\Desktop\school\Active_Bike_Lighting_System\Radar_Core\Libraries\XMCLib\inc\xmc_dac.h ****   XMC_DAC_CH_STATUS_ERROR_FREQ2HIGH = 4U  /**< Frequency can't be configured. Frequency is to high.
 142:C:\Users\Depes Crystalline\Desktop\school\Active_Bike_Lighting_System\Radar_Core\Libraries\XMCLib\inc\xmc_dac.h **** } XMC_DAC_CH_STATUS_t;
 143:C:\Users\Depes Crystalline\Desktop\school\Active_Bike_Lighting_System\Radar_Core\Libraries\XMCLib\inc\xmc_dac.h **** 
 144:C:\Users\Depes Crystalline\Desktop\school\Active_Bike_Lighting_System\Radar_Core\Libraries\XMCLib\inc\xmc_dac.h **** /**
 145:C:\Users\Depes Crystalline\Desktop\school\Active_Bike_Lighting_System\Radar_Core\Libraries\XMCLib\inc\xmc_dac.h ****  * Operating modes of DAC
 146:C:\Users\Depes Crystalline\Desktop\school\Active_Bike_Lighting_System\Radar_Core\Libraries\XMCLib\inc\xmc_dac.h ****  */
 147:C:\Users\Depes Crystalline\Desktop\school\Active_Bike_Lighting_System\Radar_Core\Libraries\XMCLib\inc\xmc_dac.h **** typedef enum XMC_DAC_CH_MODE
 148:C:\Users\Depes Crystalline\Desktop\school\Active_Bike_Lighting_System\Radar_Core\Libraries\XMCLib\inc\xmc_dac.h **** {
 149:C:\Users\Depes Crystalline\Desktop\school\Active_Bike_Lighting_System\Radar_Core\Libraries\XMCLib\inc\xmc_dac.h ****   XMC_DAC_CH_MODE_IDLE    = 0x0U << DAC_DAC0CFG0_MODE_Pos,    /**< DAC is disabled */
 150:C:\Users\Depes Crystalline\Desktop\school\Active_Bike_Lighting_System\Radar_Core\Libraries\XMCLib\inc\xmc_dac.h ****   XMC_DAC_CH_MODE_SINGLE  = 0x1U << DAC_DAC0CFG0_MODE_Pos,    /**< Single value mode - single data 
 151:C:\Users\Depes Crystalline\Desktop\school\Active_Bike_Lighting_System\Radar_Core\Libraries\XMCLib\inc\xmc_dac.h ****   XMC_DAC_CH_MODE_DATA    = 0x2U << DAC_DAC0CFG0_MODE_Pos,    /**< Data mode - continuous data proc
 152:C:\Users\Depes Crystalline\Desktop\school\Active_Bike_Lighting_System\Radar_Core\Libraries\XMCLib\inc\xmc_dac.h ****   XMC_DAC_CH_MODE_PATTERN = 0x3U << DAC_DAC0CFG0_MODE_Pos,    /**< Pattern mode - inbuilt pattern w
 153:C:\Users\Depes Crystalline\Desktop\school\Active_Bike_Lighting_System\Radar_Core\Libraries\XMCLib\inc\xmc_dac.h ****                                                                    Sine, Triangle, Rectangle */
 154:C:\Users\Depes Crystalline\Desktop\school\Active_Bike_Lighting_System\Radar_Core\Libraries\XMCLib\inc\xmc_dac.h ****   XMC_DAC_CH_MODE_NOISE   = 0x4U << DAC_DAC0CFG0_MODE_Pos,    /**< Noise mode - pseudo-random noise
 155:C:\Users\Depes Crystalline\Desktop\school\Active_Bike_Lighting_System\Radar_Core\Libraries\XMCLib\inc\xmc_dac.h ****   XMC_DAC_CH_MODE_RAMP    = 0x5U << DAC_DAC0CFG0_MODE_Pos     /**< Ramp mode - ramp generation */
 156:C:\Users\Depes Crystalline\Desktop\school\Active_Bike_Lighting_System\Radar_Core\Libraries\XMCLib\inc\xmc_dac.h **** } XMC_DAC_CH_MODE_t;
 157:C:\Users\Depes Crystalline\Desktop\school\Active_Bike_Lighting_System\Radar_Core\Libraries\XMCLib\inc\xmc_dac.h **** 
 158:C:\Users\Depes Crystalline\Desktop\school\Active_Bike_Lighting_System\Radar_Core\Libraries\XMCLib\inc\xmc_dac.h **** /**
 159:C:\Users\Depes Crystalline\Desktop\school\Active_Bike_Lighting_System\Radar_Core\Libraries\XMCLib\inc\xmc_dac.h ****  * Trigger sources for the data update
 160:C:\Users\Depes Crystalline\Desktop\school\Active_Bike_Lighting_System\Radar_Core\Libraries\XMCLib\inc\xmc_dac.h ****  */
 161:C:\Users\Depes Crystalline\Desktop\school\Active_Bike_Lighting_System\Radar_Core\Libraries\XMCLib\inc\xmc_dac.h **** typedef enum XMC_DAC_CH_TRIGGER
 162:C:\Users\Depes Crystalline\Desktop\school\Active_Bike_Lighting_System\Radar_Core\Libraries\XMCLib\inc\xmc_dac.h **** {
 163:C:\Users\Depes Crystalline\Desktop\school\Active_Bike_Lighting_System\Radar_Core\Libraries\XMCLib\inc\xmc_dac.h ****   XMC_DAC_CH_TRIGGER_INTERNAL =
 164:C:\Users\Depes Crystalline\Desktop\school\Active_Bike_Lighting_System\Radar_Core\Libraries\XMCLib\inc\xmc_dac.h ****       (0x0U << DAC_DAC0CFG1_TRIGMOD_Pos),                                      /**< Internal trigge
 165:C:\Users\Depes Crystalline\Desktop\school\Active_Bike_Lighting_System\Radar_Core\Libraries\XMCLib\inc\xmc_dac.h ****   XMC_DAC_CH_TRIGGER_EXTERNAL_CCU80_SR1 =
 166:C:\Users\Depes Crystalline\Desktop\school\Active_Bike_Lighting_System\Radar_Core\Libraries\XMCLib\inc\xmc_dac.h ****       (0x1U << DAC_DAC0CFG1_TRIGMOD_Pos) | 0x0U,                               /**< External trigge
 167:C:\Users\Depes Crystalline\Desktop\school\Active_Bike_Lighting_System\Radar_Core\Libraries\XMCLib\inc\xmc_dac.h ****   XMC_DAC_CH_TRIGGER_EXTERNAL_CCU40_SR1 =
 168:C:\Users\Depes Crystalline\Desktop\school\Active_Bike_Lighting_System\Radar_Core\Libraries\XMCLib\inc\xmc_dac.h ****       (0x1U << DAC_DAC0CFG1_TRIGMOD_Pos) | (0x2U << DAC_DAC0CFG1_TRIGSEL_Pos), /**< External trigge
 169:C:\Users\Depes Crystalline\Desktop\school\Active_Bike_Lighting_System\Radar_Core\Libraries\XMCLib\inc\xmc_dac.h ****   XMC_DAC_CH_TRIGGER_EXTERNAL_CCU41_SR1 =
 170:C:\Users\Depes Crystalline\Desktop\school\Active_Bike_Lighting_System\Radar_Core\Libraries\XMCLib\inc\xmc_dac.h ****       (0x1U << DAC_DAC0CFG1_TRIGMOD_Pos) | (0x3U << DAC_DAC0CFG1_TRIGSEL_Pos), /**< External trigge
 171:C:\Users\Depes Crystalline\Desktop\school\Active_Bike_Lighting_System\Radar_Core\Libraries\XMCLib\inc\xmc_dac.h ****   XMC_DAC_CH_TRIGGER_EXTERNAL_P2_9 =
 172:C:\Users\Depes Crystalline\Desktop\school\Active_Bike_Lighting_System\Radar_Core\Libraries\XMCLib\inc\xmc_dac.h ****       (0x1U << DAC_DAC0CFG1_TRIGMOD_Pos) | (0x4U << DAC_DAC0CFG1_TRIGSEL_Pos), /**< External trigge
 173:C:\Users\Depes Crystalline\Desktop\school\Active_Bike_Lighting_System\Radar_Core\Libraries\XMCLib\inc\xmc_dac.h ****   XMC_DAC_CH_TRIGGER_EXTERNAL_P2_8 =
 174:C:\Users\Depes Crystalline\Desktop\school\Active_Bike_Lighting_System\Radar_Core\Libraries\XMCLib\inc\xmc_dac.h ****       (0x1U << DAC_DAC0CFG1_TRIGMOD_Pos) | (0x5U << DAC_DAC0CFG1_TRIGSEL_Pos), /**< External trigge
 175:C:\Users\Depes Crystalline\Desktop\school\Active_Bike_Lighting_System\Radar_Core\Libraries\XMCLib\inc\xmc_dac.h ****   XMC_DAC_CH_TRIGGER_EXTERNAL_U0C0_DX1INS =
 176:C:\Users\Depes Crystalline\Desktop\school\Active_Bike_Lighting_System\Radar_Core\Libraries\XMCLib\inc\xmc_dac.h ****       (0x1U << DAC_DAC0CFG1_TRIGMOD_Pos) | (0x6U << DAC_DAC0CFG1_TRIGSEL_Pos), /**< External trigge
 177:C:\Users\Depes Crystalline\Desktop\school\Active_Bike_Lighting_System\Radar_Core\Libraries\XMCLib\inc\xmc_dac.h ****   XMC_DAC_CH_TRIGGER_EXTERNAL_U1C0_DX1INS =
 178:C:\Users\Depes Crystalline\Desktop\school\Active_Bike_Lighting_System\Radar_Core\Libraries\XMCLib\inc\xmc_dac.h ****       (0x1U << DAC_DAC0CFG1_TRIGMOD_Pos) | (0x7U << DAC_DAC0CFG1_TRIGSEL_Pos), /**< External trigge
 179:C:\Users\Depes Crystalline\Desktop\school\Active_Bike_Lighting_System\Radar_Core\Libraries\XMCLib\inc\xmc_dac.h ****   XMC_DAC_CH_TRIGGER_SOFTWARE =
 180:C:\Users\Depes Crystalline\Desktop\school\Active_Bike_Lighting_System\Radar_Core\Libraries\XMCLib\inc\xmc_dac.h ****       (0x2U << DAC_DAC0CFG1_TRIGMOD_Pos)                                       /**< Software trigge
 181:C:\Users\Depes Crystalline\Desktop\school\Active_Bike_Lighting_System\Radar_Core\Libraries\XMCLib\inc\xmc_dac.h **** } XMC_DAC_CH_TRIGGER_t;
 182:C:\Users\Depes Crystalline\Desktop\school\Active_Bike_Lighting_System\Radar_Core\Libraries\XMCLib\inc\xmc_dac.h **** 
 183:C:\Users\Depes Crystalline\Desktop\school\Active_Bike_Lighting_System\Radar_Core\Libraries\XMCLib\inc\xmc_dac.h **** /**
 184:C:\Users\Depes Crystalline\Desktop\school\Active_Bike_Lighting_System\Radar_Core\Libraries\XMCLib\inc\xmc_dac.h ****  * Data type of the input data
 185:C:\Users\Depes Crystalline\Desktop\school\Active_Bike_Lighting_System\Radar_Core\Libraries\XMCLib\inc\xmc_dac.h ****  */
 186:C:\Users\Depes Crystalline\Desktop\school\Active_Bike_Lighting_System\Radar_Core\Libraries\XMCLib\inc\xmc_dac.h **** typedef enum XMC_DAC_CH_DATA_TYPE
 187:C:\Users\Depes Crystalline\Desktop\school\Active_Bike_Lighting_System\Radar_Core\Libraries\XMCLib\inc\xmc_dac.h **** {
 188:C:\Users\Depes Crystalline\Desktop\school\Active_Bike_Lighting_System\Radar_Core\Libraries\XMCLib\inc\xmc_dac.h ****   XMC_DAC_CH_DATA_TYPE_UNSIGNED = 0U , /**< input data is unsigned */
 189:C:\Users\Depes Crystalline\Desktop\school\Active_Bike_Lighting_System\Radar_Core\Libraries\XMCLib\inc\xmc_dac.h ****   XMC_DAC_CH_DATA_TYPE_SIGNED = 1U     /**< input data is signed */
 190:C:\Users\Depes Crystalline\Desktop\school\Active_Bike_Lighting_System\Radar_Core\Libraries\XMCLib\inc\xmc_dac.h **** } XMC_DAC_CH_DATA_TYPE_t;
 191:C:\Users\Depes Crystalline\Desktop\school\Active_Bike_Lighting_System\Radar_Core\Libraries\XMCLib\inc\xmc_dac.h **** 
 192:C:\Users\Depes Crystalline\Desktop\school\Active_Bike_Lighting_System\Radar_Core\Libraries\XMCLib\inc\xmc_dac.h **** /**
 193:C:\Users\Depes Crystalline\Desktop\school\Active_Bike_Lighting_System\Radar_Core\Libraries\XMCLib\inc\xmc_dac.h ****  * Scaling of the input data
 194:C:\Users\Depes Crystalline\Desktop\school\Active_Bike_Lighting_System\Radar_Core\Libraries\XMCLib\inc\xmc_dac.h ****  */
 195:C:\Users\Depes Crystalline\Desktop\school\Active_Bike_Lighting_System\Radar_Core\Libraries\XMCLib\inc\xmc_dac.h **** typedef enum XMC_DAC_CH_OUTPUT_SCALE
 196:C:\Users\Depes Crystalline\Desktop\school\Active_Bike_Lighting_System\Radar_Core\Libraries\XMCLib\inc\xmc_dac.h **** {
 197:C:\Users\Depes Crystalline\Desktop\school\Active_Bike_Lighting_System\Radar_Core\Libraries\XMCLib\inc\xmc_dac.h ****   XMC_DAC_CH_OUTPUT_SCALE_NONE =
 198:C:\Users\Depes Crystalline\Desktop\school\Active_Bike_Lighting_System\Radar_Core\Libraries\XMCLib\inc\xmc_dac.h ****       0x0U,                                                                   /**< No scaling */
 199:C:\Users\Depes Crystalline\Desktop\school\Active_Bike_Lighting_System\Radar_Core\Libraries\XMCLib\inc\xmc_dac.h ****   XMC_DAC_CH_OUTPUT_SCALE_MUL_2 =
 200:C:\Users\Depes Crystalline\Desktop\school\Active_Bike_Lighting_System\Radar_Core\Libraries\XMCLib\inc\xmc_dac.h ****       (0x1U << DAC_DAC0CFG1_MULDIV_Pos) | (0x1U << DAC_DAC0CFG1_SCALE_Pos),   /**< multiplied by 2 
 201:C:\Users\Depes Crystalline\Desktop\school\Active_Bike_Lighting_System\Radar_Core\Libraries\XMCLib\inc\xmc_dac.h ****   XMC_DAC_CH_OUTPUT_SCALE_MUL_4 =
 202:C:\Users\Depes Crystalline\Desktop\school\Active_Bike_Lighting_System\Radar_Core\Libraries\XMCLib\inc\xmc_dac.h ****       (0x1U << DAC_DAC0CFG1_MULDIV_Pos) | (0x2U << DAC_DAC0CFG1_SCALE_Pos),   /**< multiplied by 4 
 203:C:\Users\Depes Crystalline\Desktop\school\Active_Bike_Lighting_System\Radar_Core\Libraries\XMCLib\inc\xmc_dac.h ****   XMC_DAC_CH_OUTPUT_SCALE_MUL_8 =
 204:C:\Users\Depes Crystalline\Desktop\school\Active_Bike_Lighting_System\Radar_Core\Libraries\XMCLib\inc\xmc_dac.h ****       (0x1U << DAC_DAC0CFG1_MULDIV_Pos) | (0x3U << DAC_DAC0CFG1_SCALE_Pos),   /**< multiplied by 8 
 205:C:\Users\Depes Crystalline\Desktop\school\Active_Bike_Lighting_System\Radar_Core\Libraries\XMCLib\inc\xmc_dac.h ****   XMC_DAC_CH_OUTPUT_SCALE_MUL_16 =
 206:C:\Users\Depes Crystalline\Desktop\school\Active_Bike_Lighting_System\Radar_Core\Libraries\XMCLib\inc\xmc_dac.h ****       (0x1U << DAC_DAC0CFG1_MULDIV_Pos) | (0x4U << DAC_DAC0CFG1_SCALE_Pos),   /**< multiplied by 16
 207:C:\Users\Depes Crystalline\Desktop\school\Active_Bike_Lighting_System\Radar_Core\Libraries\XMCLib\inc\xmc_dac.h ****   XMC_DAC_CH_OUTPUT_SCALE_MUL_32 =
 208:C:\Users\Depes Crystalline\Desktop\school\Active_Bike_Lighting_System\Radar_Core\Libraries\XMCLib\inc\xmc_dac.h ****       (0x1U << DAC_DAC0CFG1_MULDIV_Pos) | (0x5U << DAC_DAC0CFG1_SCALE_Pos),   /**< multiplied by 32
 209:C:\Users\Depes Crystalline\Desktop\school\Active_Bike_Lighting_System\Radar_Core\Libraries\XMCLib\inc\xmc_dac.h ****   XMC_DAC_CH_OUTPUT_SCALE_MUL_64 =
 210:C:\Users\Depes Crystalline\Desktop\school\Active_Bike_Lighting_System\Radar_Core\Libraries\XMCLib\inc\xmc_dac.h ****       (0x1U << DAC_DAC0CFG1_MULDIV_Pos) | (0x6U << DAC_DAC0CFG1_SCALE_Pos),   /**< multiplied by 64
 211:C:\Users\Depes Crystalline\Desktop\school\Active_Bike_Lighting_System\Radar_Core\Libraries\XMCLib\inc\xmc_dac.h ****   XMC_DAC_CH_OUTPUT_SCALE_MUL_128 =
 212:C:\Users\Depes Crystalline\Desktop\school\Active_Bike_Lighting_System\Radar_Core\Libraries\XMCLib\inc\xmc_dac.h ****       (0x1U << DAC_DAC0CFG1_MULDIV_Pos) | (0x7U << DAC_DAC0CFG1_SCALE_Pos),   /**< multiplied by 12
 213:C:\Users\Depes Crystalline\Desktop\school\Active_Bike_Lighting_System\Radar_Core\Libraries\XMCLib\inc\xmc_dac.h ****   XMC_DAC_CH_OUTPUT_SCALE_DIV_2 =
 214:C:\Users\Depes Crystalline\Desktop\school\Active_Bike_Lighting_System\Radar_Core\Libraries\XMCLib\inc\xmc_dac.h ****       0x1U << DAC_DAC0CFG1_SCALE_Pos,                                         /**< divided by 2 */
 215:C:\Users\Depes Crystalline\Desktop\school\Active_Bike_Lighting_System\Radar_Core\Libraries\XMCLib\inc\xmc_dac.h ****   XMC_DAC_CH_OUTPUT_SCALE_DIV_4 =
 216:C:\Users\Depes Crystalline\Desktop\school\Active_Bike_Lighting_System\Radar_Core\Libraries\XMCLib\inc\xmc_dac.h ****       0x2U << DAC_DAC0CFG1_SCALE_Pos,                                         /**< divided by 4 */
 217:C:\Users\Depes Crystalline\Desktop\school\Active_Bike_Lighting_System\Radar_Core\Libraries\XMCLib\inc\xmc_dac.h ****   XMC_DAC_CH_OUTPUT_SCALE_DIV_8 =
 218:C:\Users\Depes Crystalline\Desktop\school\Active_Bike_Lighting_System\Radar_Core\Libraries\XMCLib\inc\xmc_dac.h ****       0x3U << DAC_DAC0CFG1_SCALE_Pos,                                         /**< divided by 8 */
 219:C:\Users\Depes Crystalline\Desktop\school\Active_Bike_Lighting_System\Radar_Core\Libraries\XMCLib\inc\xmc_dac.h ****   XMC_DAC_CH_OUTPUT_SCALE_DIV_16 =
 220:C:\Users\Depes Crystalline\Desktop\school\Active_Bike_Lighting_System\Radar_Core\Libraries\XMCLib\inc\xmc_dac.h ****       0x4U << DAC_DAC0CFG1_SCALE_Pos,                                         /**< divided by 16 */
 221:C:\Users\Depes Crystalline\Desktop\school\Active_Bike_Lighting_System\Radar_Core\Libraries\XMCLib\inc\xmc_dac.h ****   XMC_DAC_CH_OUTPUT_SCALE_DIV_32 =
 222:C:\Users\Depes Crystalline\Desktop\school\Active_Bike_Lighting_System\Radar_Core\Libraries\XMCLib\inc\xmc_dac.h ****       0x5U << DAC_DAC0CFG1_SCALE_Pos,                                         /**< divided by 32 */
 223:C:\Users\Depes Crystalline\Desktop\school\Active_Bike_Lighting_System\Radar_Core\Libraries\XMCLib\inc\xmc_dac.h ****   XMC_DAC_CH_OUTPUT_SCALE_DIV_64 =
 224:C:\Users\Depes Crystalline\Desktop\school\Active_Bike_Lighting_System\Radar_Core\Libraries\XMCLib\inc\xmc_dac.h ****       0x6U << DAC_DAC0CFG1_SCALE_Pos,                                         /**< divided by 64 */
 225:C:\Users\Depes Crystalline\Desktop\school\Active_Bike_Lighting_System\Radar_Core\Libraries\XMCLib\inc\xmc_dac.h ****   XMC_DAC_CH_OUTPUT_SCALE_DIV_128 =
 226:C:\Users\Depes Crystalline\Desktop\school\Active_Bike_Lighting_System\Radar_Core\Libraries\XMCLib\inc\xmc_dac.h ****       0x7U << DAC_DAC0CFG1_SCALE_Pos                                          /**< divided by 128 *
 227:C:\Users\Depes Crystalline\Desktop\school\Active_Bike_Lighting_System\Radar_Core\Libraries\XMCLib\inc\xmc_dac.h **** } XMC_DAC_CH_OUTPUT_SCALE_t;
 228:C:\Users\Depes Crystalline\Desktop\school\Active_Bike_Lighting_System\Radar_Core\Libraries\XMCLib\inc\xmc_dac.h **** 
 229:C:\Users\Depes Crystalline\Desktop\school\Active_Bike_Lighting_System\Radar_Core\Libraries\XMCLib\inc\xmc_dac.h **** /**
 230:C:\Users\Depes Crystalline\Desktop\school\Active_Bike_Lighting_System\Radar_Core\Libraries\XMCLib\inc\xmc_dac.h ****  * Negation of input data (applicable only for XMC44 device)
 231:C:\Users\Depes Crystalline\Desktop\school\Active_Bike_Lighting_System\Radar_Core\Libraries\XMCLib\inc\xmc_dac.h ****  */
 232:C:\Users\Depes Crystalline\Desktop\school\Active_Bike_Lighting_System\Radar_Core\Libraries\XMCLib\inc\xmc_dac.h **** typedef enum XMC_DAC_CH_OUTPUT_NEGATION
 233:C:\Users\Depes Crystalline\Desktop\school\Active_Bike_Lighting_System\Radar_Core\Libraries\XMCLib\inc\xmc_dac.h **** {
 234:C:\Users\Depes Crystalline\Desktop\school\Active_Bike_Lighting_System\Radar_Core\Libraries\XMCLib\inc\xmc_dac.h ****   XMC_DAC_CH_OUTPUT_NEGATION_DISABLED = 0U,                   /**< XMC_DAC_CH_OUTPUT_NEGATION_DISAB
 235:C:\Users\Depes Crystalline\Desktop\school\Active_Bike_Lighting_System\Radar_Core\Libraries\XMCLib\inc\xmc_dac.h ****   XMC_DAC_CH_OUTPUT_NEGATION_ENABLED = 1U                     /**< XMC_DAC_CH_OUTPUT_NEGATION_ENABL
 236:C:\Users\Depes Crystalline\Desktop\school\Active_Bike_Lighting_System\Radar_Core\Libraries\XMCLib\inc\xmc_dac.h **** } XMC_DAC_CH_OUTPUT_NEGATION_t;
 237:C:\Users\Depes Crystalline\Desktop\school\Active_Bike_Lighting_System\Radar_Core\Libraries\XMCLib\inc\xmc_dac.h **** 
 238:C:\Users\Depes Crystalline\Desktop\school\Active_Bike_Lighting_System\Radar_Core\Libraries\XMCLib\inc\xmc_dac.h **** /**
 239:C:\Users\Depes Crystalline\Desktop\school\Active_Bike_Lighting_System\Radar_Core\Libraries\XMCLib\inc\xmc_dac.h ****  * Output sign signal for the Pattern Generation Mode
 240:C:\Users\Depes Crystalline\Desktop\school\Active_Bike_Lighting_System\Radar_Core\Libraries\XMCLib\inc\xmc_dac.h ****  */
 241:C:\Users\Depes Crystalline\Desktop\school\Active_Bike_Lighting_System\Radar_Core\Libraries\XMCLib\inc\xmc_dac.h **** typedef enum XMC_DAC_CH_PATTERN_SIGN_OUTPUT
 242:C:\Users\Depes Crystalline\Desktop\school\Active_Bike_Lighting_System\Radar_Core\Libraries\XMCLib\inc\xmc_dac.h **** {
 243:C:\Users\Depes Crystalline\Desktop\school\Active_Bike_Lighting_System\Radar_Core\Libraries\XMCLib\inc\xmc_dac.h ****   XMC_DAC_CH_PATTERN_SIGN_OUTPUT_DISABLED = 0U,  /**< Sign output signal generation is disabled */
 244:C:\Users\Depes Crystalline\Desktop\school\Active_Bike_Lighting_System\Radar_Core\Libraries\XMCLib\inc\xmc_dac.h ****   XMC_DAC_CH_PATTERN_SIGN_OUTPUT_ENABLED = 1U    /**< Sign output signal generation is enabled */
 245:C:\Users\Depes Crystalline\Desktop\school\Active_Bike_Lighting_System\Radar_Core\Libraries\XMCLib\inc\xmc_dac.h **** } XMC_DAC_CH_PATTERN_SIGN_OUTPUT_t;
 246:C:\Users\Depes Crystalline\Desktop\school\Active_Bike_Lighting_System\Radar_Core\Libraries\XMCLib\inc\xmc_dac.h **** 
 247:C:\Users\Depes Crystalline\Desktop\school\Active_Bike_Lighting_System\Radar_Core\Libraries\XMCLib\inc\xmc_dac.h **** /*******************************************************************************
 248:C:\Users\Depes Crystalline\Desktop\school\Active_Bike_Lighting_System\Radar_Core\Libraries\XMCLib\inc\xmc_dac.h ****  * DATA STRUCTURES
 249:C:\Users\Depes Crystalline\Desktop\school\Active_Bike_Lighting_System\Radar_Core\Libraries\XMCLib\inc\xmc_dac.h ****  *******************************************************************************/
 250:C:\Users\Depes Crystalline\Desktop\school\Active_Bike_Lighting_System\Radar_Core\Libraries\XMCLib\inc\xmc_dac.h **** /**
 251:C:\Users\Depes Crystalline\Desktop\school\Active_Bike_Lighting_System\Radar_Core\Libraries\XMCLib\inc\xmc_dac.h ****  * DAC peripheral registers configuration.
 252:C:\Users\Depes Crystalline\Desktop\school\Active_Bike_Lighting_System\Radar_Core\Libraries\XMCLib\inc\xmc_dac.h ****  */
 253:C:\Users\Depes Crystalline\Desktop\school\Active_Bike_Lighting_System\Radar_Core\Libraries\XMCLib\inc\xmc_dac.h **** typedef struct
 254:C:\Users\Depes Crystalline\Desktop\school\Active_Bike_Lighting_System\Radar_Core\Libraries\XMCLib\inc\xmc_dac.h **** {
 255:C:\Users\Depes Crystalline\Desktop\school\Active_Bike_Lighting_System\Radar_Core\Libraries\XMCLib\inc\xmc_dac.h ****   __I  uint32_t  ID;
 256:C:\Users\Depes Crystalline\Desktop\school\Active_Bike_Lighting_System\Radar_Core\Libraries\XMCLib\inc\xmc_dac.h **** 
 257:C:\Users\Depes Crystalline\Desktop\school\Active_Bike_Lighting_System\Radar_Core\Libraries\XMCLib\inc\xmc_dac.h ****   struct
 258:C:\Users\Depes Crystalline\Desktop\school\Active_Bike_Lighting_System\Radar_Core\Libraries\XMCLib\inc\xmc_dac.h ****   {
 259:C:\Users\Depes Crystalline\Desktop\school\Active_Bike_Lighting_System\Radar_Core\Libraries\XMCLib\inc\xmc_dac.h ****      __IO uint32_t low;
 260:C:\Users\Depes Crystalline\Desktop\school\Active_Bike_Lighting_System\Radar_Core\Libraries\XMCLib\inc\xmc_dac.h ****      __IO uint32_t high;
 261:C:\Users\Depes Crystalline\Desktop\school\Active_Bike_Lighting_System\Radar_Core\Libraries\XMCLib\inc\xmc_dac.h ****   } DACCFG[XMC_DAC_NO_CHANNELS];
 262:C:\Users\Depes Crystalline\Desktop\school\Active_Bike_Lighting_System\Radar_Core\Libraries\XMCLib\inc\xmc_dac.h **** 
 263:C:\Users\Depes Crystalline\Desktop\school\Active_Bike_Lighting_System\Radar_Core\Libraries\XMCLib\inc\xmc_dac.h ****   __IO uint32_t DACDATA[XMC_DAC_NO_CHANNELS];
 264:C:\Users\Depes Crystalline\Desktop\school\Active_Bike_Lighting_System\Radar_Core\Libraries\XMCLib\inc\xmc_dac.h ****   __IO uint32_t DAC01DATA;
 265:C:\Users\Depes Crystalline\Desktop\school\Active_Bike_Lighting_System\Radar_Core\Libraries\XMCLib\inc\xmc_dac.h **** 
 266:C:\Users\Depes Crystalline\Desktop\school\Active_Bike_Lighting_System\Radar_Core\Libraries\XMCLib\inc\xmc_dac.h ****   struct
 267:C:\Users\Depes Crystalline\Desktop\school\Active_Bike_Lighting_System\Radar_Core\Libraries\XMCLib\inc\xmc_dac.h ****   {
 268:C:\Users\Depes Crystalline\Desktop\school\Active_Bike_Lighting_System\Radar_Core\Libraries\XMCLib\inc\xmc_dac.h ****      __IO uint32_t low;
 269:C:\Users\Depes Crystalline\Desktop\school\Active_Bike_Lighting_System\Radar_Core\Libraries\XMCLib\inc\xmc_dac.h ****      __IO uint32_t high;
 270:C:\Users\Depes Crystalline\Desktop\school\Active_Bike_Lighting_System\Radar_Core\Libraries\XMCLib\inc\xmc_dac.h ****   } DACPAT[XMC_DAC_NO_CHANNELS];
 271:C:\Users\Depes Crystalline\Desktop\school\Active_Bike_Lighting_System\Radar_Core\Libraries\XMCLib\inc\xmc_dac.h **** 
 272:C:\Users\Depes Crystalline\Desktop\school\Active_Bike_Lighting_System\Radar_Core\Libraries\XMCLib\inc\xmc_dac.h **** } XMC_DAC_t;
 273:C:\Users\Depes Crystalline\Desktop\school\Active_Bike_Lighting_System\Radar_Core\Libraries\XMCLib\inc\xmc_dac.h **** 
 274:C:\Users\Depes Crystalline\Desktop\school\Active_Bike_Lighting_System\Radar_Core\Libraries\XMCLib\inc\xmc_dac.h **** /*Anonymous structure/union guard start*/
 275:C:\Users\Depes Crystalline\Desktop\school\Active_Bike_Lighting_System\Radar_Core\Libraries\XMCLib\inc\xmc_dac.h **** #if defined(__CC_ARM)
 276:C:\Users\Depes Crystalline\Desktop\school\Active_Bike_Lighting_System\Radar_Core\Libraries\XMCLib\inc\xmc_dac.h ****   #pragma push
 277:C:\Users\Depes Crystalline\Desktop\school\Active_Bike_Lighting_System\Radar_Core\Libraries\XMCLib\inc\xmc_dac.h ****   #pragma anon_unions
 278:C:\Users\Depes Crystalline\Desktop\school\Active_Bike_Lighting_System\Radar_Core\Libraries\XMCLib\inc\xmc_dac.h **** #elif defined(__TASKING__)
 279:C:\Users\Depes Crystalline\Desktop\school\Active_Bike_Lighting_System\Radar_Core\Libraries\XMCLib\inc\xmc_dac.h ****   #pragma warning 586
 280:C:\Users\Depes Crystalline\Desktop\school\Active_Bike_Lighting_System\Radar_Core\Libraries\XMCLib\inc\xmc_dac.h **** #endif
 281:C:\Users\Depes Crystalline\Desktop\school\Active_Bike_Lighting_System\Radar_Core\Libraries\XMCLib\inc\xmc_dac.h **** 
 282:C:\Users\Depes Crystalline\Desktop\school\Active_Bike_Lighting_System\Radar_Core\Libraries\XMCLib\inc\xmc_dac.h **** /**
 283:C:\Users\Depes Crystalline\Desktop\school\Active_Bike_Lighting_System\Radar_Core\Libraries\XMCLib\inc\xmc_dac.h ****  * Channel related configuration
 284:C:\Users\Depes Crystalline\Desktop\school\Active_Bike_Lighting_System\Radar_Core\Libraries\XMCLib\inc\xmc_dac.h ****  */
 285:C:\Users\Depes Crystalline\Desktop\school\Active_Bike_Lighting_System\Radar_Core\Libraries\XMCLib\inc\xmc_dac.h **** typedef struct XMC_DAC_CH_CONFIG
 286:C:\Users\Depes Crystalline\Desktop\school\Active_Bike_Lighting_System\Radar_Core\Libraries\XMCLib\inc\xmc_dac.h **** {
 287:C:\Users\Depes Crystalline\Desktop\school\Active_Bike_Lighting_System\Radar_Core\Libraries\XMCLib\inc\xmc_dac.h ****   union
 288:C:\Users\Depes Crystalline\Desktop\school\Active_Bike_Lighting_System\Radar_Core\Libraries\XMCLib\inc\xmc_dac.h ****   {
 289:C:\Users\Depes Crystalline\Desktop\school\Active_Bike_Lighting_System\Radar_Core\Libraries\XMCLib\inc\xmc_dac.h ****   struct
 290:C:\Users\Depes Crystalline\Desktop\school\Active_Bike_Lighting_System\Radar_Core\Libraries\XMCLib\inc\xmc_dac.h ****   {
 291:C:\Users\Depes Crystalline\Desktop\school\Active_Bike_Lighting_System\Radar_Core\Libraries\XMCLib\inc\xmc_dac.h ****     uint32_t :23;                /**< Not used bits */
 292:C:\Users\Depes Crystalline\Desktop\school\Active_Bike_Lighting_System\Radar_Core\Libraries\XMCLib\inc\xmc_dac.h ****     uint32_t data_type:1;        /**< input data type - unsigned / signed */
 293:C:\Users\Depes Crystalline\Desktop\school\Active_Bike_Lighting_System\Radar_Core\Libraries\XMCLib\inc\xmc_dac.h ****     uint32_t :4;                 /**< Not used bits */
 294:C:\Users\Depes Crystalline\Desktop\school\Active_Bike_Lighting_System\Radar_Core\Libraries\XMCLib\inc\xmc_dac.h ****     uint32_t output_negation:1;  /**< Negation of the output waveform enabled/disabled */
 295:C:\Users\Depes Crystalline\Desktop\school\Active_Bike_Lighting_System\Radar_Core\Libraries\XMCLib\inc\xmc_dac.h ****     uint32_t :3;
 296:C:\Users\Depes Crystalline\Desktop\school\Active_Bike_Lighting_System\Radar_Core\Libraries\XMCLib\inc\xmc_dac.h ****   };
 297:C:\Users\Depes Crystalline\Desktop\school\Active_Bike_Lighting_System\Radar_Core\Libraries\XMCLib\inc\xmc_dac.h ****   uint32_t cfg0;
 298:C:\Users\Depes Crystalline\Desktop\school\Active_Bike_Lighting_System\Radar_Core\Libraries\XMCLib\inc\xmc_dac.h ****   };
 299:C:\Users\Depes Crystalline\Desktop\school\Active_Bike_Lighting_System\Radar_Core\Libraries\XMCLib\inc\xmc_dac.h ****   union
 300:C:\Users\Depes Crystalline\Desktop\school\Active_Bike_Lighting_System\Radar_Core\Libraries\XMCLib\inc\xmc_dac.h ****   {
 301:C:\Users\Depes Crystalline\Desktop\school\Active_Bike_Lighting_System\Radar_Core\Libraries\XMCLib\inc\xmc_dac.h ****   struct
 302:C:\Users\Depes Crystalline\Desktop\school\Active_Bike_Lighting_System\Radar_Core\Libraries\XMCLib\inc\xmc_dac.h ****   {
 303:C:\Users\Depes Crystalline\Desktop\school\Active_Bike_Lighting_System\Radar_Core\Libraries\XMCLib\inc\xmc_dac.h ****     uint32_t output_scale:4;  /**< Scale value of type XMC_DAC_CH_OUTPUT_SCALE_t. It includes scali
 304:C:\Users\Depes Crystalline\Desktop\school\Active_Bike_Lighting_System\Radar_Core\Libraries\XMCLib\inc\xmc_dac.h ****     uint32_t output_offset:8; /**< offset value */
 305:C:\Users\Depes Crystalline\Desktop\school\Active_Bike_Lighting_System\Radar_Core\Libraries\XMCLib\inc\xmc_dac.h ****     uint32_t :20;
 306:C:\Users\Depes Crystalline\Desktop\school\Active_Bike_Lighting_System\Radar_Core\Libraries\XMCLib\inc\xmc_dac.h ****   };
 307:C:\Users\Depes Crystalline\Desktop\school\Active_Bike_Lighting_System\Radar_Core\Libraries\XMCLib\inc\xmc_dac.h ****   uint32_t cfg1;
 308:C:\Users\Depes Crystalline\Desktop\school\Active_Bike_Lighting_System\Radar_Core\Libraries\XMCLib\inc\xmc_dac.h ****   };
 309:C:\Users\Depes Crystalline\Desktop\school\Active_Bike_Lighting_System\Radar_Core\Libraries\XMCLib\inc\xmc_dac.h **** } XMC_DAC_CH_CONFIG_t;
 310:C:\Users\Depes Crystalline\Desktop\school\Active_Bike_Lighting_System\Radar_Core\Libraries\XMCLib\inc\xmc_dac.h **** /*Anonymous structure/union guard end*/
 311:C:\Users\Depes Crystalline\Desktop\school\Active_Bike_Lighting_System\Radar_Core\Libraries\XMCLib\inc\xmc_dac.h **** #if defined(__CC_ARM)
 312:C:\Users\Depes Crystalline\Desktop\school\Active_Bike_Lighting_System\Radar_Core\Libraries\XMCLib\inc\xmc_dac.h ****   #pragma pop
 313:C:\Users\Depes Crystalline\Desktop\school\Active_Bike_Lighting_System\Radar_Core\Libraries\XMCLib\inc\xmc_dac.h **** #elif defined(__TASKING__)
 314:C:\Users\Depes Crystalline\Desktop\school\Active_Bike_Lighting_System\Radar_Core\Libraries\XMCLib\inc\xmc_dac.h ****   #pragma warning restore
 315:C:\Users\Depes Crystalline\Desktop\school\Active_Bike_Lighting_System\Radar_Core\Libraries\XMCLib\inc\xmc_dac.h **** #endif
 316:C:\Users\Depes Crystalline\Desktop\school\Active_Bike_Lighting_System\Radar_Core\Libraries\XMCLib\inc\xmc_dac.h **** /*******************************************************************************
 317:C:\Users\Depes Crystalline\Desktop\school\Active_Bike_Lighting_System\Radar_Core\Libraries\XMCLib\inc\xmc_dac.h ****  * API PROTOTYPES
 318:C:\Users\Depes Crystalline\Desktop\school\Active_Bike_Lighting_System\Radar_Core\Libraries\XMCLib\inc\xmc_dac.h ****  *******************************************************************************/
 319:C:\Users\Depes Crystalline\Desktop\school\Active_Bike_Lighting_System\Radar_Core\Libraries\XMCLib\inc\xmc_dac.h **** 
 320:C:\Users\Depes Crystalline\Desktop\school\Active_Bike_Lighting_System\Radar_Core\Libraries\XMCLib\inc\xmc_dac.h **** #ifdef __cplusplus
 321:C:\Users\Depes Crystalline\Desktop\school\Active_Bike_Lighting_System\Radar_Core\Libraries\XMCLib\inc\xmc_dac.h **** extern "C" {
 322:C:\Users\Depes Crystalline\Desktop\school\Active_Bike_Lighting_System\Radar_Core\Libraries\XMCLib\inc\xmc_dac.h **** #endif
 323:C:\Users\Depes Crystalline\Desktop\school\Active_Bike_Lighting_System\Radar_Core\Libraries\XMCLib\inc\xmc_dac.h **** 
 324:C:\Users\Depes Crystalline\Desktop\school\Active_Bike_Lighting_System\Radar_Core\Libraries\XMCLib\inc\xmc_dac.h **** /**
 325:C:\Users\Depes Crystalline\Desktop\school\Active_Bike_Lighting_System\Radar_Core\Libraries\XMCLib\inc\xmc_dac.h ****  * @param dac Pointer to an instance of DAC module
 326:C:\Users\Depes Crystalline\Desktop\school\Active_Bike_Lighting_System\Radar_Core\Libraries\XMCLib\inc\xmc_dac.h ****  *
 327:C:\Users\Depes Crystalline\Desktop\school\Active_Bike_Lighting_System\Radar_Core\Libraries\XMCLib\inc\xmc_dac.h ****  * @return None
 328:C:\Users\Depes Crystalline\Desktop\school\Active_Bike_Lighting_System\Radar_Core\Libraries\XMCLib\inc\xmc_dac.h ****  *
 329:C:\Users\Depes Crystalline\Desktop\school\Active_Bike_Lighting_System\Radar_Core\Libraries\XMCLib\inc\xmc_dac.h ****  * \par<b>Description:</b><br>
 330:C:\Users\Depes Crystalline\Desktop\school\Active_Bike_Lighting_System\Radar_Core\Libraries\XMCLib\inc\xmc_dac.h ****  * Enables DAC clock and releases DAC reset.<br>
 331:C:\Users\Depes Crystalline\Desktop\school\Active_Bike_Lighting_System\Radar_Core\Libraries\XMCLib\inc\xmc_dac.h ****  *
 332:C:\Users\Depes Crystalline\Desktop\school\Active_Bike_Lighting_System\Radar_Core\Libraries\XMCLib\inc\xmc_dac.h ****  * \par
 333:C:\Users\Depes Crystalline\Desktop\school\Active_Bike_Lighting_System\Radar_Core\Libraries\XMCLib\inc\xmc_dac.h ****  * Enabling DAC is the first step of DAC initialisation. This API is called by XMC_DAC_CH_Init().
 334:C:\Users\Depes Crystalline\Desktop\school\Active_Bike_Lighting_System\Radar_Core\Libraries\XMCLib\inc\xmc_dac.h ****  * DAC clock is enabled by setting \a DAC bit of \a CGATCLR1 register. DAC reset is released by set
 335:C:\Users\Depes Crystalline\Desktop\school\Active_Bike_Lighting_System\Radar_Core\Libraries\XMCLib\inc\xmc_dac.h ****  *
 336:C:\Users\Depes Crystalline\Desktop\school\Active_Bike_Lighting_System\Radar_Core\Libraries\XMCLib\inc\xmc_dac.h ****  *
 337:C:\Users\Depes Crystalline\Desktop\school\Active_Bike_Lighting_System\Radar_Core\Libraries\XMCLib\inc\xmc_dac.h ****  * \par<b>Related APIs:</b><BR>
 338:C:\Users\Depes Crystalline\Desktop\school\Active_Bike_Lighting_System\Radar_Core\Libraries\XMCLib\inc\xmc_dac.h ****  * XMC_DAC_IsEnabled(), XMC_DAC_Disable(), XMC_DAC_CH_Init()\n\n\n
 339:C:\Users\Depes Crystalline\Desktop\school\Active_Bike_Lighting_System\Radar_Core\Libraries\XMCLib\inc\xmc_dac.h ****  *
 340:C:\Users\Depes Crystalline\Desktop\school\Active_Bike_Lighting_System\Radar_Core\Libraries\XMCLib\inc\xmc_dac.h ****  */
 341:C:\Users\Depes Crystalline\Desktop\school\Active_Bike_Lighting_System\Radar_Core\Libraries\XMCLib\inc\xmc_dac.h **** void XMC_DAC_Enable(XMC_DAC_t *const dac);
 342:C:\Users\Depes Crystalline\Desktop\school\Active_Bike_Lighting_System\Radar_Core\Libraries\XMCLib\inc\xmc_dac.h **** 
 343:C:\Users\Depes Crystalline\Desktop\school\Active_Bike_Lighting_System\Radar_Core\Libraries\XMCLib\inc\xmc_dac.h **** /**
 344:C:\Users\Depes Crystalline\Desktop\school\Active_Bike_Lighting_System\Radar_Core\Libraries\XMCLib\inc\xmc_dac.h ****  * @param dac Pointer to an instance of DAC module
 345:C:\Users\Depes Crystalline\Desktop\school\Active_Bike_Lighting_System\Radar_Core\Libraries\XMCLib\inc\xmc_dac.h ****  *
 346:C:\Users\Depes Crystalline\Desktop\school\Active_Bike_Lighting_System\Radar_Core\Libraries\XMCLib\inc\xmc_dac.h ****  * @return None
 347:C:\Users\Depes Crystalline\Desktop\school\Active_Bike_Lighting_System\Radar_Core\Libraries\XMCLib\inc\xmc_dac.h ****  *
 348:C:\Users\Depes Crystalline\Desktop\school\Active_Bike_Lighting_System\Radar_Core\Libraries\XMCLib\inc\xmc_dac.h ****  * \par<b>Description:</b><br>
 349:C:\Users\Depes Crystalline\Desktop\school\Active_Bike_Lighting_System\Radar_Core\Libraries\XMCLib\inc\xmc_dac.h ****  * Disables DAC clock and resets DAC.
 350:C:\Users\Depes Crystalline\Desktop\school\Active_Bike_Lighting_System\Radar_Core\Libraries\XMCLib\inc\xmc_dac.h ****  *
 351:C:\Users\Depes Crystalline\Desktop\school\Active_Bike_Lighting_System\Radar_Core\Libraries\XMCLib\inc\xmc_dac.h ****  * \par
 352:C:\Users\Depes Crystalline\Desktop\school\Active_Bike_Lighting_System\Radar_Core\Libraries\XMCLib\inc\xmc_dac.h ****  * DAC clock is disabled by setting \a DAC bit of \a CGATSET1 register. DAC is reset by setting \a 
 353:C:\Users\Depes Crystalline\Desktop\school\Active_Bike_Lighting_System\Radar_Core\Libraries\XMCLib\inc\xmc_dac.h ****  *
 354:C:\Users\Depes Crystalline\Desktop\school\Active_Bike_Lighting_System\Radar_Core\Libraries\XMCLib\inc\xmc_dac.h ****  * \par<b>Related APIs:</b><BR>
 355:C:\Users\Depes Crystalline\Desktop\school\Active_Bike_Lighting_System\Radar_Core\Libraries\XMCLib\inc\xmc_dac.h ****  * XMC_DAC_IsEnabled(), XMC_DAC_Enable()\n\n\n
 356:C:\Users\Depes Crystalline\Desktop\school\Active_Bike_Lighting_System\Radar_Core\Libraries\XMCLib\inc\xmc_dac.h ****  *
 357:C:\Users\Depes Crystalline\Desktop\school\Active_Bike_Lighting_System\Radar_Core\Libraries\XMCLib\inc\xmc_dac.h ****  */
 358:C:\Users\Depes Crystalline\Desktop\school\Active_Bike_Lighting_System\Radar_Core\Libraries\XMCLib\inc\xmc_dac.h **** void XMC_DAC_Disable(XMC_DAC_t *const dac);
 359:C:\Users\Depes Crystalline\Desktop\school\Active_Bike_Lighting_System\Radar_Core\Libraries\XMCLib\inc\xmc_dac.h **** 
 360:C:\Users\Depes Crystalline\Desktop\school\Active_Bike_Lighting_System\Radar_Core\Libraries\XMCLib\inc\xmc_dac.h **** /**
 361:C:\Users\Depes Crystalline\Desktop\school\Active_Bike_Lighting_System\Radar_Core\Libraries\XMCLib\inc\xmc_dac.h ****  * @param dac Pointer to an instance of DAC module
 362:C:\Users\Depes Crystalline\Desktop\school\Active_Bike_Lighting_System\Radar_Core\Libraries\XMCLib\inc\xmc_dac.h ****  *
 363:C:\Users\Depes Crystalline\Desktop\school\Active_Bike_Lighting_System\Radar_Core\Libraries\XMCLib\inc\xmc_dac.h ****  * @return bool<br>
 364:C:\Users\Depes Crystalline\Desktop\school\Active_Bike_Lighting_System\Radar_Core\Libraries\XMCLib\inc\xmc_dac.h ****  * true  - if DAC is enabled<br>
 365:C:\Users\Depes Crystalline\Desktop\school\Active_Bike_Lighting_System\Radar_Core\Libraries\XMCLib\inc\xmc_dac.h ****  * false - if DAC is disabled
 366:C:\Users\Depes Crystalline\Desktop\school\Active_Bike_Lighting_System\Radar_Core\Libraries\XMCLib\inc\xmc_dac.h ****  *
 367:C:\Users\Depes Crystalline\Desktop\school\Active_Bike_Lighting_System\Radar_Core\Libraries\XMCLib\inc\xmc_dac.h ****  * \par<b>Description:</b><br>
 368:C:\Users\Depes Crystalline\Desktop\school\Active_Bike_Lighting_System\Radar_Core\Libraries\XMCLib\inc\xmc_dac.h ****  * Returns the state of the DAC.
 369:C:\Users\Depes Crystalline\Desktop\school\Active_Bike_Lighting_System\Radar_Core\Libraries\XMCLib\inc\xmc_dac.h ****  *
 370:C:\Users\Depes Crystalline\Desktop\school\Active_Bike_Lighting_System\Radar_Core\Libraries\XMCLib\inc\xmc_dac.h ****  * \par
 371:C:\Users\Depes Crystalline\Desktop\school\Active_Bike_Lighting_System\Radar_Core\Libraries\XMCLib\inc\xmc_dac.h ****  * DAC enabled status is determined by referring to \a DACRS bit of \a PRSTAT1 register.
 372:C:\Users\Depes Crystalline\Desktop\school\Active_Bike_Lighting_System\Radar_Core\Libraries\XMCLib\inc\xmc_dac.h ****  *
 373:C:\Users\Depes Crystalline\Desktop\school\Active_Bike_Lighting_System\Radar_Core\Libraries\XMCLib\inc\xmc_dac.h ****  * \par<b>Related APIs:</b><BR>
 374:C:\Users\Depes Crystalline\Desktop\school\Active_Bike_Lighting_System\Radar_Core\Libraries\XMCLib\inc\xmc_dac.h ****  * XMC_DAC_Enable(), XMC_DAC_Disable()\n\n\n
 375:C:\Users\Depes Crystalline\Desktop\school\Active_Bike_Lighting_System\Radar_Core\Libraries\XMCLib\inc\xmc_dac.h ****  *
 376:C:\Users\Depes Crystalline\Desktop\school\Active_Bike_Lighting_System\Radar_Core\Libraries\XMCLib\inc\xmc_dac.h ****  */
 377:C:\Users\Depes Crystalline\Desktop\school\Active_Bike_Lighting_System\Radar_Core\Libraries\XMCLib\inc\xmc_dac.h **** bool XMC_DAC_IsEnabled(const XMC_DAC_t *const dac);
 378:C:\Users\Depes Crystalline\Desktop\school\Active_Bike_Lighting_System\Radar_Core\Libraries\XMCLib\inc\xmc_dac.h **** 
 379:C:\Users\Depes Crystalline\Desktop\school\Active_Bike_Lighting_System\Radar_Core\Libraries\XMCLib\inc\xmc_dac.h **** /**
 380:C:\Users\Depes Crystalline\Desktop\school\Active_Bike_Lighting_System\Radar_Core\Libraries\XMCLib\inc\xmc_dac.h ****  * @param dac Pointer to an instance of DAC module
 381:C:\Users\Depes Crystalline\Desktop\school\Active_Bike_Lighting_System\Radar_Core\Libraries\XMCLib\inc\xmc_dac.h ****  *
 382:C:\Users\Depes Crystalline\Desktop\school\Active_Bike_Lighting_System\Radar_Core\Libraries\XMCLib\inc\xmc_dac.h ****  * @return None
 383:C:\Users\Depes Crystalline\Desktop\school\Active_Bike_Lighting_System\Radar_Core\Libraries\XMCLib\inc\xmc_dac.h ****  *
 384:C:\Users\Depes Crystalline\Desktop\school\Active_Bike_Lighting_System\Radar_Core\Libraries\XMCLib\inc\xmc_dac.h ****  * \par<b>Description:</b><br>
 385:C:\Users\Depes Crystalline\Desktop\school\Active_Bike_Lighting_System\Radar_Core\Libraries\XMCLib\inc\xmc_dac.h ****  * DAC switches to Simultaneous data mode from Independent data mode.
 386:C:\Users\Depes Crystalline\Desktop\school\Active_Bike_Lighting_System\Radar_Core\Libraries\XMCLib\inc\xmc_dac.h ****  *
 387:C:\Users\Depes Crystalline\Desktop\school\Active_Bike_Lighting_System\Radar_Core\Libraries\XMCLib\inc\xmc_dac.h ****  * \par
 388:C:\Users\Depes Crystalline\Desktop\school\Active_Bike_Lighting_System\Radar_Core\Libraries\XMCLib\inc\xmc_dac.h ****  * Independent data mode is the default data mode.
 389:C:\Users\Depes Crystalline\Desktop\school\Active_Bike_Lighting_System\Radar_Core\Libraries\XMCLib\inc\xmc_dac.h ****  * Simultaneous data mode is enabled by setting \a DATMOD bit of \a DAC0CFG1 register.
 390:C:\Users\Depes Crystalline\Desktop\school\Active_Bike_Lighting_System\Radar_Core\Libraries\XMCLib\inc\xmc_dac.h ****  *
 391:C:\Users\Depes Crystalline\Desktop\school\Active_Bike_Lighting_System\Radar_Core\Libraries\XMCLib\inc\xmc_dac.h ****  * \par<b>Note:</b><br>
 392:C:\Users\Depes Crystalline\Desktop\school\Active_Bike_Lighting_System\Radar_Core\Libraries\XMCLib\inc\xmc_dac.h ****  * Set channel 0 and channel 1 to Data mode before calling this API.
 393:C:\Users\Depes Crystalline\Desktop\school\Active_Bike_Lighting_System\Radar_Core\Libraries\XMCLib\inc\xmc_dac.h ****  *
 394:C:\Users\Depes Crystalline\Desktop\school\Active_Bike_Lighting_System\Radar_Core\Libraries\XMCLib\inc\xmc_dac.h ****  * \par<b>Related APIs:</b><BR>
 395:C:\Users\Depes Crystalline\Desktop\school\Active_Bike_Lighting_System\Radar_Core\Libraries\XMCLib\inc\xmc_dac.h ****  * XMC_DAC_CH_StartSingleValueMode(), XMC_DAC_CH_StartDataMode(), XMC_DAC_SimultaneousWrite(), XMC_
 396:C:\Users\Depes Crystalline\Desktop\school\Active_Bike_Lighting_System\Radar_Core\Libraries\XMCLib\inc\xmc_dac.h ****  *
 397:C:\Users\Depes Crystalline\Desktop\school\Active_Bike_Lighting_System\Radar_Core\Libraries\XMCLib\inc\xmc_dac.h ****  */
 398:C:\Users\Depes Crystalline\Desktop\school\Active_Bike_Lighting_System\Radar_Core\Libraries\XMCLib\inc\xmc_dac.h **** __STATIC_INLINE void XMC_DAC_EnableSimultaneousDataMode(XMC_DAC_t *const dac)
 399:C:\Users\Depes Crystalline\Desktop\school\Active_Bike_Lighting_System\Radar_Core\Libraries\XMCLib\inc\xmc_dac.h **** {
  26              	 .loc 1 399 0
  27              	 .cfi_startproc
  28              	 
  29              	 
  30              	 
  31 0000 80B4     	 push {r7}
  32              	.LCFI0:
  33              	 .cfi_def_cfa_offset 4
  34              	 .cfi_offset 7,-4
  35 0002 83B0     	 sub sp,sp,#12
  36              	.LCFI1:
  37              	 .cfi_def_cfa_offset 16
  38 0004 00AF     	 add r7,sp,#0
  39              	.LCFI2:
  40              	 .cfi_def_cfa_register 7
  41 0006 7860     	 str r0,[r7,#4]
 400:C:\Users\Depes Crystalline\Desktop\school\Active_Bike_Lighting_System\Radar_Core\Libraries\XMCLib\inc\xmc_dac.h ****   dac->DACCFG[0].high |= DAC_DAC0CFG1_DATMOD_Msk;
  42              	 .loc 1 400 0
  43 0008 7B68     	 ldr r3,[r7,#4]
  44 000a 9B68     	 ldr r3,[r3,#8]
  45 000c 43F40042 	 orr r2,r3,#32768
  46 0010 7B68     	 ldr r3,[r7,#4]
  47 0012 9A60     	 str r2,[r3,#8]
 401:C:\Users\Depes Crystalline\Desktop\school\Active_Bike_Lighting_System\Radar_Core\Libraries\XMCLib\inc\xmc_dac.h **** }
  48              	 .loc 1 401 0
  49 0014 0C37     	 adds r7,r7,#12
  50              	.LCFI3:
  51              	 .cfi_def_cfa_offset 4
  52 0016 BD46     	 mov sp,r7
  53              	.LCFI4:
  54              	 .cfi_def_cfa_register 13
  55              	 
  56 0018 5DF8047B 	 ldr r7,[sp],#4
  57              	.LCFI5:
  58              	 .cfi_restore 7
  59              	 .cfi_def_cfa_offset 0
  60 001c 7047     	 bx lr
  61              	 .cfi_endproc
  62              	.LFE128:
  64 001e 00BF     	 .section .text.XMC_DAC_SimultaneousWrite,"ax",%progbits
  65              	 .align 2
  66              	 .thumb
  67              	 .thumb_func
  69              	XMC_DAC_SimultaneousWrite:
  70              	.LFB130:
 402:C:\Users\Depes Crystalline\Desktop\school\Active_Bike_Lighting_System\Radar_Core\Libraries\XMCLib\inc\xmc_dac.h **** 
 403:C:\Users\Depes Crystalline\Desktop\school\Active_Bike_Lighting_System\Radar_Core\Libraries\XMCLib\inc\xmc_dac.h **** /**
 404:C:\Users\Depes Crystalline\Desktop\school\Active_Bike_Lighting_System\Radar_Core\Libraries\XMCLib\inc\xmc_dac.h ****  * @param dac Pointer to an instance of DAC module
 405:C:\Users\Depes Crystalline\Desktop\school\Active_Bike_Lighting_System\Radar_Core\Libraries\XMCLib\inc\xmc_dac.h ****  *
 406:C:\Users\Depes Crystalline\Desktop\school\Active_Bike_Lighting_System\Radar_Core\Libraries\XMCLib\inc\xmc_dac.h ****  * @return None
 407:C:\Users\Depes Crystalline\Desktop\school\Active_Bike_Lighting_System\Radar_Core\Libraries\XMCLib\inc\xmc_dac.h ****  *
 408:C:\Users\Depes Crystalline\Desktop\school\Active_Bike_Lighting_System\Radar_Core\Libraries\XMCLib\inc\xmc_dac.h ****  * \par<b>Description:</b><br>
 409:C:\Users\Depes Crystalline\Desktop\school\Active_Bike_Lighting_System\Radar_Core\Libraries\XMCLib\inc\xmc_dac.h ****  * DAC switches to independent data mode from simultaneous Data mode.
 410:C:\Users\Depes Crystalline\Desktop\school\Active_Bike_Lighting_System\Radar_Core\Libraries\XMCLib\inc\xmc_dac.h ****  *
 411:C:\Users\Depes Crystalline\Desktop\school\Active_Bike_Lighting_System\Radar_Core\Libraries\XMCLib\inc\xmc_dac.h ****  * \par
 412:C:\Users\Depes Crystalline\Desktop\school\Active_Bike_Lighting_System\Radar_Core\Libraries\XMCLib\inc\xmc_dac.h ****  * Independent data mode is the default data mode.
 413:C:\Users\Depes Crystalline\Desktop\school\Active_Bike_Lighting_System\Radar_Core\Libraries\XMCLib\inc\xmc_dac.h ****  * Simultaneous data mode is disabled by clearing \a DATMOD bit of \a DAC0CFG1 register.
 414:C:\Users\Depes Crystalline\Desktop\school\Active_Bike_Lighting_System\Radar_Core\Libraries\XMCLib\inc\xmc_dac.h ****  *
 415:C:\Users\Depes Crystalline\Desktop\school\Active_Bike_Lighting_System\Radar_Core\Libraries\XMCLib\inc\xmc_dac.h ****  * \par<b>Related APIs:</b><BR>
 416:C:\Users\Depes Crystalline\Desktop\school\Active_Bike_Lighting_System\Radar_Core\Libraries\XMCLib\inc\xmc_dac.h ****  * XMC_DAC_CH_StartDataMode(), XMC_DAC_EnableSimultaneousDataMode()\n\n\n
 417:C:\Users\Depes Crystalline\Desktop\school\Active_Bike_Lighting_System\Radar_Core\Libraries\XMCLib\inc\xmc_dac.h ****  *
 418:C:\Users\Depes Crystalline\Desktop\school\Active_Bike_Lighting_System\Radar_Core\Libraries\XMCLib\inc\xmc_dac.h ****  */
 419:C:\Users\Depes Crystalline\Desktop\school\Active_Bike_Lighting_System\Radar_Core\Libraries\XMCLib\inc\xmc_dac.h **** __STATIC_INLINE void XMC_DAC_DisableSimultaneousDataMode(XMC_DAC_t *const dac)
 420:C:\Users\Depes Crystalline\Desktop\school\Active_Bike_Lighting_System\Radar_Core\Libraries\XMCLib\inc\xmc_dac.h **** {
 421:C:\Users\Depes Crystalline\Desktop\school\Active_Bike_Lighting_System\Radar_Core\Libraries\XMCLib\inc\xmc_dac.h ****   dac->DACCFG[0].high &= ~DAC_DAC0CFG1_DATMOD_Msk;
 422:C:\Users\Depes Crystalline\Desktop\school\Active_Bike_Lighting_System\Radar_Core\Libraries\XMCLib\inc\xmc_dac.h **** }
 423:C:\Users\Depes Crystalline\Desktop\school\Active_Bike_Lighting_System\Radar_Core\Libraries\XMCLib\inc\xmc_dac.h **** 
 424:C:\Users\Depes Crystalline\Desktop\school\Active_Bike_Lighting_System\Radar_Core\Libraries\XMCLib\inc\xmc_dac.h **** /**
 425:C:\Users\Depes Crystalline\Desktop\school\Active_Bike_Lighting_System\Radar_Core\Libraries\XMCLib\inc\xmc_dac.h ****  * @param dac Pointer to an instance of DAC module
 426:C:\Users\Depes Crystalline\Desktop\school\Active_Bike_Lighting_System\Radar_Core\Libraries\XMCLib\inc\xmc_dac.h ****  * @param data0 Data for DAC channel 0 [0-4095]
 427:C:\Users\Depes Crystalline\Desktop\school\Active_Bike_Lighting_System\Radar_Core\Libraries\XMCLib\inc\xmc_dac.h ****  * @param data1 Data for DAC channel 1 [0-4095]
 428:C:\Users\Depes Crystalline\Desktop\school\Active_Bike_Lighting_System\Radar_Core\Libraries\XMCLib\inc\xmc_dac.h ****  *
 429:C:\Users\Depes Crystalline\Desktop\school\Active_Bike_Lighting_System\Radar_Core\Libraries\XMCLib\inc\xmc_dac.h ****  * @return None
 430:C:\Users\Depes Crystalline\Desktop\school\Active_Bike_Lighting_System\Radar_Core\Libraries\XMCLib\inc\xmc_dac.h ****  *
 431:C:\Users\Depes Crystalline\Desktop\school\Active_Bike_Lighting_System\Radar_Core\Libraries\XMCLib\inc\xmc_dac.h ****  * \par<b>Description:</b><br>
 432:C:\Users\Depes Crystalline\Desktop\school\Active_Bike_Lighting_System\Radar_Core\Libraries\XMCLib\inc\xmc_dac.h ****  * The data (\e data0 & \e data1) to be converted by channel 0 & channel 1 are updated to \a DATA1 
 433:C:\Users\Depes Crystalline\Desktop\school\Active_Bike_Lighting_System\Radar_Core\Libraries\XMCLib\inc\xmc_dac.h ****  * data0 and data1 have the range of [0-4095].
 434:C:\Users\Depes Crystalline\Desktop\school\Active_Bike_Lighting_System\Radar_Core\Libraries\XMCLib\inc\xmc_dac.h ****  *
 435:C:\Users\Depes Crystalline\Desktop\school\Active_Bike_Lighting_System\Radar_Core\Libraries\XMCLib\inc\xmc_dac.h ****  * \par<b>Note:</b><br>
 436:C:\Users\Depes Crystalline\Desktop\school\Active_Bike_Lighting_System\Radar_Core\Libraries\XMCLib\inc\xmc_dac.h ****  * Channel 0 and Channel 1 should be set to simultaneous data mode before calling this API.
 437:C:\Users\Depes Crystalline\Desktop\school\Active_Bike_Lighting_System\Radar_Core\Libraries\XMCLib\inc\xmc_dac.h ****  *
 438:C:\Users\Depes Crystalline\Desktop\school\Active_Bike_Lighting_System\Radar_Core\Libraries\XMCLib\inc\xmc_dac.h ****  * \par<b>Related APIs:</b><BR>
 439:C:\Users\Depes Crystalline\Desktop\school\Active_Bike_Lighting_System\Radar_Core\Libraries\XMCLib\inc\xmc_dac.h ****  * XMC_DAC_EnableSimultaneousDataMode()\n\n\n
 440:C:\Users\Depes Crystalline\Desktop\school\Active_Bike_Lighting_System\Radar_Core\Libraries\XMCLib\inc\xmc_dac.h ****  *
 441:C:\Users\Depes Crystalline\Desktop\school\Active_Bike_Lighting_System\Radar_Core\Libraries\XMCLib\inc\xmc_dac.h ****  */
 442:C:\Users\Depes Crystalline\Desktop\school\Active_Bike_Lighting_System\Radar_Core\Libraries\XMCLib\inc\xmc_dac.h **** __STATIC_INLINE void XMC_DAC_SimultaneousWrite(XMC_DAC_t *const dac, const uint16_t data0, const ui
 443:C:\Users\Depes Crystalline\Desktop\school\Active_Bike_Lighting_System\Radar_Core\Libraries\XMCLib\inc\xmc_dac.h **** {
  71              	 .loc 1 443 0
  72              	 .cfi_startproc
  73              	 
  74              	 
  75              	 
  76 0000 80B4     	 push {r7}
  77              	.LCFI6:
  78              	 .cfi_def_cfa_offset 4
  79              	 .cfi_offset 7,-4
  80 0002 83B0     	 sub sp,sp,#12
  81              	.LCFI7:
  82              	 .cfi_def_cfa_offset 16
  83 0004 00AF     	 add r7,sp,#0
  84              	.LCFI8:
  85              	 .cfi_def_cfa_register 7
  86 0006 7860     	 str r0,[r7,#4]
  87 0008 0B46     	 mov r3,r1
  88 000a 7B80     	 strh r3,[r7,#2]
  89 000c 1346     	 mov r3,r2
  90 000e 3B80     	 strh r3,[r7]
 444:C:\Users\Depes Crystalline\Desktop\school\Active_Bike_Lighting_System\Radar_Core\Libraries\XMCLib\inc\xmc_dac.h ****   dac->DAC01DATA = (data0 << DAC_DAC01DATA_DATA0_Pos) | (data1 << DAC_DAC01DATA_DATA1_Pos);
  91              	 .loc 1 444 0
  92 0010 7A88     	 ldrh r2,[r7,#2]
  93 0012 3B88     	 ldrh r3,[r7]
  94 0014 1B04     	 lsls r3,r3,#16
  95 0016 1343     	 orrs r3,r3,r2
  96 0018 1A46     	 mov r2,r3
  97 001a 7B68     	 ldr r3,[r7,#4]
  98 001c DA61     	 str r2,[r3,#28]
 445:C:\Users\Depes Crystalline\Desktop\school\Active_Bike_Lighting_System\Radar_Core\Libraries\XMCLib\inc\xmc_dac.h **** }
  99              	 .loc 1 445 0
 100 001e 0C37     	 adds r7,r7,#12
 101              	.LCFI9:
 102              	 .cfi_def_cfa_offset 4
 103 0020 BD46     	 mov sp,r7
 104              	.LCFI10:
 105              	 .cfi_def_cfa_register 13
 106              	 
 107 0022 5DF8047B 	 ldr r7,[sp],#4
 108              	.LCFI11:
 109              	 .cfi_restore 7
 110              	 .cfi_def_cfa_offset 0
 111 0026 7047     	 bx lr
 112              	 .cfi_endproc
 113              	.LFE130:
 115              	 .section .text.XMC_DAC_CH_Write,"ax",%progbits
 116              	 .align 2
 117              	 .thumb
 118              	 .thumb_func
 120              	XMC_DAC_CH_Write:
 121              	.LFB134:
 446:C:\Users\Depes Crystalline\Desktop\school\Active_Bike_Lighting_System\Radar_Core\Libraries\XMCLib\inc\xmc_dac.h **** 
 447:C:\Users\Depes Crystalline\Desktop\school\Active_Bike_Lighting_System\Radar_Core\Libraries\XMCLib\inc\xmc_dac.h **** /**
 448:C:\Users\Depes Crystalline\Desktop\school\Active_Bike_Lighting_System\Radar_Core\Libraries\XMCLib\inc\xmc_dac.h ****  * @param dac Pointer to an instance of DAC module
 449:C:\Users\Depes Crystalline\Desktop\school\Active_Bike_Lighting_System\Radar_Core\Libraries\XMCLib\inc\xmc_dac.h ****  * @param channel DAC channel number
 450:C:\Users\Depes Crystalline\Desktop\school\Active_Bike_Lighting_System\Radar_Core\Libraries\XMCLib\inc\xmc_dac.h ****  * @param config Pointer to the DAC channel configuration structure
 451:C:\Users\Depes Crystalline\Desktop\school\Active_Bike_Lighting_System\Radar_Core\Libraries\XMCLib\inc\xmc_dac.h ****  *
 452:C:\Users\Depes Crystalline\Desktop\school\Active_Bike_Lighting_System\Radar_Core\Libraries\XMCLib\inc\xmc_dac.h ****  * @return None
 453:C:\Users\Depes Crystalline\Desktop\school\Active_Bike_Lighting_System\Radar_Core\Libraries\XMCLib\inc\xmc_dac.h ****  *
 454:C:\Users\Depes Crystalline\Desktop\school\Active_Bike_Lighting_System\Radar_Core\Libraries\XMCLib\inc\xmc_dac.h ****  * \par<b>Description:</b><br>
 455:C:\Users\Depes Crystalline\Desktop\school\Active_Bike_Lighting_System\Radar_Core\Libraries\XMCLib\inc\xmc_dac.h ****  * Initialises and configures the DAC \e channel with the configuration date pointed by \e config.
 456:C:\Users\Depes Crystalline\Desktop\school\Active_Bike_Lighting_System\Radar_Core\Libraries\XMCLib\inc\xmc_dac.h ****  *
 457:C:\Users\Depes Crystalline\Desktop\school\Active_Bike_Lighting_System\Radar_Core\Libraries\XMCLib\inc\xmc_dac.h ****  * \par
 458:C:\Users\Depes Crystalline\Desktop\school\Active_Bike_Lighting_System\Radar_Core\Libraries\XMCLib\inc\xmc_dac.h ****  * DAC channel is initialised by configuring the registers \a DAC0CFG0 and \a DAC0CFG1 registers (f
 459:C:\Users\Depes Crystalline\Desktop\school\Active_Bike_Lighting_System\Radar_Core\Libraries\XMCLib\inc\xmc_dac.h ****  * It enables the channel output by calling XMC_DAC_CH_EnableOutput().
 460:C:\Users\Depes Crystalline\Desktop\school\Active_Bike_Lighting_System\Radar_Core\Libraries\XMCLib\inc\xmc_dac.h ****  *
 461:C:\Users\Depes Crystalline\Desktop\school\Active_Bike_Lighting_System\Radar_Core\Libraries\XMCLib\inc\xmc_dac.h ****  */
 462:C:\Users\Depes Crystalline\Desktop\school\Active_Bike_Lighting_System\Radar_Core\Libraries\XMCLib\inc\xmc_dac.h **** void XMC_DAC_CH_Init(XMC_DAC_t *const dac, const uint8_t channel, const XMC_DAC_CH_CONFIG_t *const 
 463:C:\Users\Depes Crystalline\Desktop\school\Active_Bike_Lighting_System\Radar_Core\Libraries\XMCLib\inc\xmc_dac.h **** 
 464:C:\Users\Depes Crystalline\Desktop\school\Active_Bike_Lighting_System\Radar_Core\Libraries\XMCLib\inc\xmc_dac.h **** /**
 465:C:\Users\Depes Crystalline\Desktop\school\Active_Bike_Lighting_System\Radar_Core\Libraries\XMCLib\inc\xmc_dac.h ****  * @param dac Pointer to an instance of DAC module
 466:C:\Users\Depes Crystalline\Desktop\school\Active_Bike_Lighting_System\Radar_Core\Libraries\XMCLib\inc\xmc_dac.h ****  * @param channel DAC channel number
 467:C:\Users\Depes Crystalline\Desktop\school\Active_Bike_Lighting_System\Radar_Core\Libraries\XMCLib\inc\xmc_dac.h ****  *
 468:C:\Users\Depes Crystalline\Desktop\school\Active_Bike_Lighting_System\Radar_Core\Libraries\XMCLib\inc\xmc_dac.h ****  * @return None
 469:C:\Users\Depes Crystalline\Desktop\school\Active_Bike_Lighting_System\Radar_Core\Libraries\XMCLib\inc\xmc_dac.h ****  *
 470:C:\Users\Depes Crystalline\Desktop\school\Active_Bike_Lighting_System\Radar_Core\Libraries\XMCLib\inc\xmc_dac.h ****  * \par<b>Description:</b><br>
 471:C:\Users\Depes Crystalline\Desktop\school\Active_Bike_Lighting_System\Radar_Core\Libraries\XMCLib\inc\xmc_dac.h ****  * Channel \a channel output is enabled by setting the \a ANAEN bit of \a DAC0CFG1 register (for ch
 472:C:\Users\Depes Crystalline\Desktop\school\Active_Bike_Lighting_System\Radar_Core\Libraries\XMCLib\inc\xmc_dac.h ****  *
 473:C:\Users\Depes Crystalline\Desktop\school\Active_Bike_Lighting_System\Radar_Core\Libraries\XMCLib\inc\xmc_dac.h ****  * \par<b>Note:</b><BR>
 474:C:\Users\Depes Crystalline\Desktop\school\Active_Bike_Lighting_System\Radar_Core\Libraries\XMCLib\inc\xmc_dac.h ****  * \a tSTARTUP time for DAC analog output starts after the \a ANAEN bit is set to one.
 475:C:\Users\Depes Crystalline\Desktop\school\Active_Bike_Lighting_System\Radar_Core\Libraries\XMCLib\inc\xmc_dac.h ****  * After the expiry of the startup time the default value is driven to DAC output and a new value c
 476:C:\Users\Depes Crystalline\Desktop\school\Active_Bike_Lighting_System\Radar_Core\Libraries\XMCLib\inc\xmc_dac.h ****  *
 477:C:\Users\Depes Crystalline\Desktop\school\Active_Bike_Lighting_System\Radar_Core\Libraries\XMCLib\inc\xmc_dac.h ****  * \par<b>Related APIs:</b><BR>
 478:C:\Users\Depes Crystalline\Desktop\school\Active_Bike_Lighting_System\Radar_Core\Libraries\XMCLib\inc\xmc_dac.h ****  * XMC_DAC_CH_DisableOutput(), XMC_DAC_CH_IsOutputEnabled()\n\n\n
 479:C:\Users\Depes Crystalline\Desktop\school\Active_Bike_Lighting_System\Radar_Core\Libraries\XMCLib\inc\xmc_dac.h ****  *
 480:C:\Users\Depes Crystalline\Desktop\school\Active_Bike_Lighting_System\Radar_Core\Libraries\XMCLib\inc\xmc_dac.h ****  */
 481:C:\Users\Depes Crystalline\Desktop\school\Active_Bike_Lighting_System\Radar_Core\Libraries\XMCLib\inc\xmc_dac.h **** __STATIC_INLINE void XMC_DAC_CH_EnableOutput(XMC_DAC_t *const dac, const uint8_t channel)
 482:C:\Users\Depes Crystalline\Desktop\school\Active_Bike_Lighting_System\Radar_Core\Libraries\XMCLib\inc\xmc_dac.h **** {
 483:C:\Users\Depes Crystalline\Desktop\school\Active_Bike_Lighting_System\Radar_Core\Libraries\XMCLib\inc\xmc_dac.h ****   dac->DACCFG[channel].high |= DAC_DAC0CFG1_ANAEN_Msk;
 484:C:\Users\Depes Crystalline\Desktop\school\Active_Bike_Lighting_System\Radar_Core\Libraries\XMCLib\inc\xmc_dac.h **** }
 485:C:\Users\Depes Crystalline\Desktop\school\Active_Bike_Lighting_System\Radar_Core\Libraries\XMCLib\inc\xmc_dac.h **** 
 486:C:\Users\Depes Crystalline\Desktop\school\Active_Bike_Lighting_System\Radar_Core\Libraries\XMCLib\inc\xmc_dac.h **** /**
 487:C:\Users\Depes Crystalline\Desktop\school\Active_Bike_Lighting_System\Radar_Core\Libraries\XMCLib\inc\xmc_dac.h ****  * @param dac Pointer to an instance of DAC module
 488:C:\Users\Depes Crystalline\Desktop\school\Active_Bike_Lighting_System\Radar_Core\Libraries\XMCLib\inc\xmc_dac.h ****  * @param channel DAC channel number
 489:C:\Users\Depes Crystalline\Desktop\school\Active_Bike_Lighting_System\Radar_Core\Libraries\XMCLib\inc\xmc_dac.h ****  *
 490:C:\Users\Depes Crystalline\Desktop\school\Active_Bike_Lighting_System\Radar_Core\Libraries\XMCLib\inc\xmc_dac.h ****  * @return None
 491:C:\Users\Depes Crystalline\Desktop\school\Active_Bike_Lighting_System\Radar_Core\Libraries\XMCLib\inc\xmc_dac.h ****  *
 492:C:\Users\Depes Crystalline\Desktop\school\Active_Bike_Lighting_System\Radar_Core\Libraries\XMCLib\inc\xmc_dac.h ****  * \par<b>Description:</b><br>
 493:C:\Users\Depes Crystalline\Desktop\school\Active_Bike_Lighting_System\Radar_Core\Libraries\XMCLib\inc\xmc_dac.h ****  * Channel \a channel output is disabled by clearing the \a ANAEN bit of \a DAC0CFG1 register (for 
 494:C:\Users\Depes Crystalline\Desktop\school\Active_Bike_Lighting_System\Radar_Core\Libraries\XMCLib\inc\xmc_dac.h ****  *
 495:C:\Users\Depes Crystalline\Desktop\school\Active_Bike_Lighting_System\Radar_Core\Libraries\XMCLib\inc\xmc_dac.h ****  * \par
 496:C:\Users\Depes Crystalline\Desktop\school\Active_Bike_Lighting_System\Radar_Core\Libraries\XMCLib\inc\xmc_dac.h ****  * A call to this API stops driving the converted digital input to its output.
 497:C:\Users\Depes Crystalline\Desktop\school\Active_Bike_Lighting_System\Radar_Core\Libraries\XMCLib\inc\xmc_dac.h ****  *
 498:C:\Users\Depes Crystalline\Desktop\school\Active_Bike_Lighting_System\Radar_Core\Libraries\XMCLib\inc\xmc_dac.h ****  * \par<b>Related APIs:</b><BR>
 499:C:\Users\Depes Crystalline\Desktop\school\Active_Bike_Lighting_System\Radar_Core\Libraries\XMCLib\inc\xmc_dac.h ****  * XMC_DAC_CH_EnableOutput(), XMC_DAC_CH_IsOutputEnabled()\n\n\n
 500:C:\Users\Depes Crystalline\Desktop\school\Active_Bike_Lighting_System\Radar_Core\Libraries\XMCLib\inc\xmc_dac.h ****  *
 501:C:\Users\Depes Crystalline\Desktop\school\Active_Bike_Lighting_System\Radar_Core\Libraries\XMCLib\inc\xmc_dac.h ****  */
 502:C:\Users\Depes Crystalline\Desktop\school\Active_Bike_Lighting_System\Radar_Core\Libraries\XMCLib\inc\xmc_dac.h **** __STATIC_INLINE void XMC_DAC_CH_DisableOutput(XMC_DAC_t *const dac, const uint8_t channel)
 503:C:\Users\Depes Crystalline\Desktop\school\Active_Bike_Lighting_System\Radar_Core\Libraries\XMCLib\inc\xmc_dac.h **** {
 504:C:\Users\Depes Crystalline\Desktop\school\Active_Bike_Lighting_System\Radar_Core\Libraries\XMCLib\inc\xmc_dac.h ****   dac->DACCFG[channel].high &= ~DAC_DAC0CFG1_ANAEN_Msk;
 505:C:\Users\Depes Crystalline\Desktop\school\Active_Bike_Lighting_System\Radar_Core\Libraries\XMCLib\inc\xmc_dac.h **** }
 506:C:\Users\Depes Crystalline\Desktop\school\Active_Bike_Lighting_System\Radar_Core\Libraries\XMCLib\inc\xmc_dac.h **** 
 507:C:\Users\Depes Crystalline\Desktop\school\Active_Bike_Lighting_System\Radar_Core\Libraries\XMCLib\inc\xmc_dac.h **** /**
 508:C:\Users\Depes Crystalline\Desktop\school\Active_Bike_Lighting_System\Radar_Core\Libraries\XMCLib\inc\xmc_dac.h ****  * @param dac Pointer to an instance of DAC module
 509:C:\Users\Depes Crystalline\Desktop\school\Active_Bike_Lighting_System\Radar_Core\Libraries\XMCLib\inc\xmc_dac.h ****  * @param channel DAC channel number
 510:C:\Users\Depes Crystalline\Desktop\school\Active_Bike_Lighting_System\Radar_Core\Libraries\XMCLib\inc\xmc_dac.h ****  *
 511:C:\Users\Depes Crystalline\Desktop\school\Active_Bike_Lighting_System\Radar_Core\Libraries\XMCLib\inc\xmc_dac.h ****  * @return bool <BR>
 512:C:\Users\Depes Crystalline\Desktop\school\Active_Bike_Lighting_System\Radar_Core\Libraries\XMCLib\inc\xmc_dac.h ****  * true  - if analog output is enabled <BR>
 513:C:\Users\Depes Crystalline\Desktop\school\Active_Bike_Lighting_System\Radar_Core\Libraries\XMCLib\inc\xmc_dac.h ****  * false - if analog output is disabled <BR>
 514:C:\Users\Depes Crystalline\Desktop\school\Active_Bike_Lighting_System\Radar_Core\Libraries\XMCLib\inc\xmc_dac.h ****  *
 515:C:\Users\Depes Crystalline\Desktop\school\Active_Bike_Lighting_System\Radar_Core\Libraries\XMCLib\inc\xmc_dac.h ****  * \par<b>Description:</b><br>
 516:C:\Users\Depes Crystalline\Desktop\school\Active_Bike_Lighting_System\Radar_Core\Libraries\XMCLib\inc\xmc_dac.h ****  * Returns the status of DAC analog output.
 517:C:\Users\Depes Crystalline\Desktop\school\Active_Bike_Lighting_System\Radar_Core\Libraries\XMCLib\inc\xmc_dac.h ****  *
 518:C:\Users\Depes Crystalline\Desktop\school\Active_Bike_Lighting_System\Radar_Core\Libraries\XMCLib\inc\xmc_dac.h ****  * \par
 519:C:\Users\Depes Crystalline\Desktop\school\Active_Bike_Lighting_System\Radar_Core\Libraries\XMCLib\inc\xmc_dac.h ****  * Channel \a channel output enabled or disabled is determined by reading the \a ANAEN bit of \a DA
 520:C:\Users\Depes Crystalline\Desktop\school\Active_Bike_Lighting_System\Radar_Core\Libraries\XMCLib\inc\xmc_dac.h ****  *
 521:C:\Users\Depes Crystalline\Desktop\school\Active_Bike_Lighting_System\Radar_Core\Libraries\XMCLib\inc\xmc_dac.h ****  * \par<b>Related APIs:</b><BR>
 522:C:\Users\Depes Crystalline\Desktop\school\Active_Bike_Lighting_System\Radar_Core\Libraries\XMCLib\inc\xmc_dac.h ****  * XMC_DAC_CH_EnableOutput(), XMC_DAC_CH_DisableOutput()\n\n\n
 523:C:\Users\Depes Crystalline\Desktop\school\Active_Bike_Lighting_System\Radar_Core\Libraries\XMCLib\inc\xmc_dac.h ****  *
 524:C:\Users\Depes Crystalline\Desktop\school\Active_Bike_Lighting_System\Radar_Core\Libraries\XMCLib\inc\xmc_dac.h ****  */
 525:C:\Users\Depes Crystalline\Desktop\school\Active_Bike_Lighting_System\Radar_Core\Libraries\XMCLib\inc\xmc_dac.h **** __STATIC_INLINE bool XMC_DAC_CH_IsOutputEnabled(const XMC_DAC_t *const dac, const uint8_t channel)
 526:C:\Users\Depes Crystalline\Desktop\school\Active_Bike_Lighting_System\Radar_Core\Libraries\XMCLib\inc\xmc_dac.h **** {
 527:C:\Users\Depes Crystalline\Desktop\school\Active_Bike_Lighting_System\Radar_Core\Libraries\XMCLib\inc\xmc_dac.h ****   return (bool)(dac->DACCFG[channel].high & DAC_DAC0CFG1_ANAEN_Msk);
 528:C:\Users\Depes Crystalline\Desktop\school\Active_Bike_Lighting_System\Radar_Core\Libraries\XMCLib\inc\xmc_dac.h **** }
 529:C:\Users\Depes Crystalline\Desktop\school\Active_Bike_Lighting_System\Radar_Core\Libraries\XMCLib\inc\xmc_dac.h **** 
 530:C:\Users\Depes Crystalline\Desktop\school\Active_Bike_Lighting_System\Radar_Core\Libraries\XMCLib\inc\xmc_dac.h **** /**
 531:C:\Users\Depes Crystalline\Desktop\school\Active_Bike_Lighting_System\Radar_Core\Libraries\XMCLib\inc\xmc_dac.h ****  * @param dac Pointer to an instance of DAC module
 532:C:\Users\Depes Crystalline\Desktop\school\Active_Bike_Lighting_System\Radar_Core\Libraries\XMCLib\inc\xmc_dac.h ****  * @param channel DAC channel number
 533:C:\Users\Depes Crystalline\Desktop\school\Active_Bike_Lighting_System\Radar_Core\Libraries\XMCLib\inc\xmc_dac.h ****  * @param data Data to be written  [0-4095]
 534:C:\Users\Depes Crystalline\Desktop\school\Active_Bike_Lighting_System\Radar_Core\Libraries\XMCLib\inc\xmc_dac.h ****  *
 535:C:\Users\Depes Crystalline\Desktop\school\Active_Bike_Lighting_System\Radar_Core\Libraries\XMCLib\inc\xmc_dac.h ****  * @return None
 536:C:\Users\Depes Crystalline\Desktop\school\Active_Bike_Lighting_System\Radar_Core\Libraries\XMCLib\inc\xmc_dac.h ****  *
 537:C:\Users\Depes Crystalline\Desktop\school\Active_Bike_Lighting_System\Radar_Core\Libraries\XMCLib\inc\xmc_dac.h ****  * \par<b>Description:</b><br>
 538:C:\Users\Depes Crystalline\Desktop\school\Active_Bike_Lighting_System\Radar_Core\Libraries\XMCLib\inc\xmc_dac.h ****  * Writes the \e data to the \e channel's DATA register.
 539:C:\Users\Depes Crystalline\Desktop\school\Active_Bike_Lighting_System\Radar_Core\Libraries\XMCLib\inc\xmc_dac.h ****  *
 540:C:\Users\Depes Crystalline\Desktop\school\Active_Bike_Lighting_System\Radar_Core\Libraries\XMCLib\inc\xmc_dac.h ****  * \par
 541:C:\Users\Depes Crystalline\Desktop\school\Active_Bike_Lighting_System\Radar_Core\Libraries\XMCLib\inc\xmc_dac.h ****  * The \e data is then converted and driven to the output.
 542:C:\Users\Depes Crystalline\Desktop\school\Active_Bike_Lighting_System\Radar_Core\Libraries\XMCLib\inc\xmc_dac.h ****  * If the trigger is set, On a trigger event the data in DATA register is converted and driven to \
 543:C:\Users\Depes Crystalline\Desktop\school\Active_Bike_Lighting_System\Radar_Core\Libraries\XMCLib\inc\xmc_dac.h ****  * Data \a data is written to the \a channel by loading \a data to \a DATA0 bit-field of \a DAC0DAT
 544:C:\Users\Depes Crystalline\Desktop\school\Active_Bike_Lighting_System\Radar_Core\Libraries\XMCLib\inc\xmc_dac.h ****  * data has the range of [0-4095].
 545:C:\Users\Depes Crystalline\Desktop\school\Active_Bike_Lighting_System\Radar_Core\Libraries\XMCLib\inc\xmc_dac.h ****  *
 546:C:\Users\Depes Crystalline\Desktop\school\Active_Bike_Lighting_System\Radar_Core\Libraries\XMCLib\inc\xmc_dac.h ****  * \par<b>Note:</b><br>
 547:C:\Users\Depes Crystalline\Desktop\school\Active_Bike_Lighting_System\Radar_Core\Libraries\XMCLib\inc\xmc_dac.h ****  * The API can be used for Single Value Mode, Data Mode (Individual) & Ramp Mode.
 548:C:\Users\Depes Crystalline\Desktop\school\Active_Bike_Lighting_System\Radar_Core\Libraries\XMCLib\inc\xmc_dac.h ****  * Call XMC_DAC_CH_EnableOutput() API to enable analog output.
 549:C:\Users\Depes Crystalline\Desktop\school\Active_Bike_Lighting_System\Radar_Core\Libraries\XMCLib\inc\xmc_dac.h ****  *
 550:C:\Users\Depes Crystalline\Desktop\school\Active_Bike_Lighting_System\Radar_Core\Libraries\XMCLib\inc\xmc_dac.h ****  * \par<b>Related APIs:</b><BR>
 551:C:\Users\Depes Crystalline\Desktop\school\Active_Bike_Lighting_System\Radar_Core\Libraries\XMCLib\inc\xmc_dac.h ****  * XMC_DAC_CH_StartSingleValueMode(), XMC_DAC_CH_StartDataMode(), XMC_DAC_CH_StartRampMode()\n\n\n
 552:C:\Users\Depes Crystalline\Desktop\school\Active_Bike_Lighting_System\Radar_Core\Libraries\XMCLib\inc\xmc_dac.h ****  *
 553:C:\Users\Depes Crystalline\Desktop\school\Active_Bike_Lighting_System\Radar_Core\Libraries\XMCLib\inc\xmc_dac.h ****  */
 554:C:\Users\Depes Crystalline\Desktop\school\Active_Bike_Lighting_System\Radar_Core\Libraries\XMCLib\inc\xmc_dac.h **** __STATIC_INLINE void XMC_DAC_CH_Write(XMC_DAC_t *const dac, const uint8_t channel, const uint16_t d
 555:C:\Users\Depes Crystalline\Desktop\school\Active_Bike_Lighting_System\Radar_Core\Libraries\XMCLib\inc\xmc_dac.h **** {
 122              	 .loc 1 555 0
 123              	 .cfi_startproc
 124              	 
 125              	 
 126              	 
 127 0000 80B4     	 push {r7}
 128              	.LCFI12:
 129              	 .cfi_def_cfa_offset 4
 130              	 .cfi_offset 7,-4
 131 0002 83B0     	 sub sp,sp,#12
 132              	.LCFI13:
 133              	 .cfi_def_cfa_offset 16
 134 0004 00AF     	 add r7,sp,#0
 135              	.LCFI14:
 136              	 .cfi_def_cfa_register 7
 137 0006 7860     	 str r0,[r7,#4]
 138 0008 0B46     	 mov r3,r1
 139 000a FB70     	 strb r3,[r7,#3]
 140 000c 1346     	 mov r3,r2
 141 000e 3B80     	 strh r3,[r7]
 556:C:\Users\Depes Crystalline\Desktop\school\Active_Bike_Lighting_System\Radar_Core\Libraries\XMCLib\inc\xmc_dac.h ****   dac->DACDATA[channel] = data;
 142              	 .loc 1 556 0
 143 0010 FB78     	 ldrb r3,[r7,#3]
 144 0012 3A88     	 ldrh r2,[r7]
 145 0014 7968     	 ldr r1,[r7,#4]
 146 0016 0433     	 adds r3,r3,#4
 147 0018 9B00     	 lsls r3,r3,#2
 148 001a 0B44     	 add r3,r3,r1
 149 001c 5A60     	 str r2,[r3,#4]
 557:C:\Users\Depes Crystalline\Desktop\school\Active_Bike_Lighting_System\Radar_Core\Libraries\XMCLib\inc\xmc_dac.h **** }
 150              	 .loc 1 557 0
 151 001e 0C37     	 adds r7,r7,#12
 152              	.LCFI15:
 153              	 .cfi_def_cfa_offset 4
 154 0020 BD46     	 mov sp,r7
 155              	.LCFI16:
 156              	 .cfi_def_cfa_register 13
 157              	 
 158 0022 5DF8047B 	 ldr r7,[sp],#4
 159              	.LCFI17:
 160              	 .cfi_restore 7
 161              	 .cfi_def_cfa_offset 0
 162 0026 7047     	 bx lr
 163              	 .cfi_endproc
 164              	.LFE134:
 166              	 .section .text.XMC_DAC_CH_SetRampStart,"ax",%progbits
 167              	 .align 2
 168              	 .thumb
 169              	 .thumb_func
 171              	XMC_DAC_CH_SetRampStart:
 172              	.LFB137:
 558:C:\Users\Depes Crystalline\Desktop\school\Active_Bike_Lighting_System\Radar_Core\Libraries\XMCLib\inc\xmc_dac.h **** 
 559:C:\Users\Depes Crystalline\Desktop\school\Active_Bike_Lighting_System\Radar_Core\Libraries\XMCLib\inc\xmc_dac.h **** /**
 560:C:\Users\Depes Crystalline\Desktop\school\Active_Bike_Lighting_System\Radar_Core\Libraries\XMCLib\inc\xmc_dac.h ****  * @param dac Pointer to an instance of DAC module
 561:C:\Users\Depes Crystalline\Desktop\school\Active_Bike_Lighting_System\Radar_Core\Libraries\XMCLib\inc\xmc_dac.h ****  * @param channel DAC channel number
 562:C:\Users\Depes Crystalline\Desktop\school\Active_Bike_Lighting_System\Radar_Core\Libraries\XMCLib\inc\xmc_dac.h ****  *
 563:C:\Users\Depes Crystalline\Desktop\school\Active_Bike_Lighting_System\Radar_Core\Libraries\XMCLib\inc\xmc_dac.h ****  * @return None
 564:C:\Users\Depes Crystalline\Desktop\school\Active_Bike_Lighting_System\Radar_Core\Libraries\XMCLib\inc\xmc_dac.h ****  *
 565:C:\Users\Depes Crystalline\Desktop\school\Active_Bike_Lighting_System\Radar_Core\Libraries\XMCLib\inc\xmc_dac.h ****  * \par<b>Description:</b><br>
 566:C:\Users\Depes Crystalline\Desktop\school\Active_Bike_Lighting_System\Radar_Core\Libraries\XMCLib\inc\xmc_dac.h ****  * Sets the \e channel to Single Value Mode by calling XMC_DAC_CH_SetMode().
 567:C:\Users\Depes Crystalline\Desktop\school\Active_Bike_Lighting_System\Radar_Core\Libraries\XMCLib\inc\xmc_dac.h ****  *
 568:C:\Users\Depes Crystalline\Desktop\school\Active_Bike_Lighting_System\Radar_Core\Libraries\XMCLib\inc\xmc_dac.h ****  * \par<b>Note:</b><br>
 569:C:\Users\Depes Crystalline\Desktop\school\Active_Bike_Lighting_System\Radar_Core\Libraries\XMCLib\inc\xmc_dac.h ****  * Call XMC_DAC_CH_Write() API to write the data.
 570:C:\Users\Depes Crystalline\Desktop\school\Active_Bike_Lighting_System\Radar_Core\Libraries\XMCLib\inc\xmc_dac.h ****  *
 571:C:\Users\Depes Crystalline\Desktop\school\Active_Bike_Lighting_System\Radar_Core\Libraries\XMCLib\inc\xmc_dac.h ****  * \par<b>Related APIs:</b><BR>
 572:C:\Users\Depes Crystalline\Desktop\school\Active_Bike_Lighting_System\Radar_Core\Libraries\XMCLib\inc\xmc_dac.h ****  * XMC_DAC_CH_Write()\n\n\n
 573:C:\Users\Depes Crystalline\Desktop\school\Active_Bike_Lighting_System\Radar_Core\Libraries\XMCLib\inc\xmc_dac.h ****  *
 574:C:\Users\Depes Crystalline\Desktop\school\Active_Bike_Lighting_System\Radar_Core\Libraries\XMCLib\inc\xmc_dac.h ****  */
 575:C:\Users\Depes Crystalline\Desktop\school\Active_Bike_Lighting_System\Radar_Core\Libraries\XMCLib\inc\xmc_dac.h **** XMC_DAC_CH_STATUS_t XMC_DAC_CH_StartSingleValueMode(XMC_DAC_t *const dac, const uint8_t channel);
 576:C:\Users\Depes Crystalline\Desktop\school\Active_Bike_Lighting_System\Radar_Core\Libraries\XMCLib\inc\xmc_dac.h **** 
 577:C:\Users\Depes Crystalline\Desktop\school\Active_Bike_Lighting_System\Radar_Core\Libraries\XMCLib\inc\xmc_dac.h **** /**
 578:C:\Users\Depes Crystalline\Desktop\school\Active_Bike_Lighting_System\Radar_Core\Libraries\XMCLib\inc\xmc_dac.h ****  * @param dac Pointer to an instance of DAC module
 579:C:\Users\Depes Crystalline\Desktop\school\Active_Bike_Lighting_System\Radar_Core\Libraries\XMCLib\inc\xmc_dac.h ****  * @param channel DAC channel number
 580:C:\Users\Depes Crystalline\Desktop\school\Active_Bike_Lighting_System\Radar_Core\Libraries\XMCLib\inc\xmc_dac.h ****  * @param trigger Data points update trigger
 581:C:\Users\Depes Crystalline\Desktop\school\Active_Bike_Lighting_System\Radar_Core\Libraries\XMCLib\inc\xmc_dac.h ****  * @param frequency Waveform frequency [Hz]
 582:C:\Users\Depes Crystalline\Desktop\school\Active_Bike_Lighting_System\Radar_Core\Libraries\XMCLib\inc\xmc_dac.h ****  *
 583:C:\Users\Depes Crystalline\Desktop\school\Active_Bike_Lighting_System\Radar_Core\Libraries\XMCLib\inc\xmc_dac.h ****  * @return XMC_DAC_CH_STATUS_t status
 584:C:\Users\Depes Crystalline\Desktop\school\Active_Bike_Lighting_System\Radar_Core\Libraries\XMCLib\inc\xmc_dac.h ****  *
 585:C:\Users\Depes Crystalline\Desktop\school\Active_Bike_Lighting_System\Radar_Core\Libraries\XMCLib\inc\xmc_dac.h ****  * \par<b>Description:</b><br>
 586:C:\Users\Depes Crystalline\Desktop\school\Active_Bike_Lighting_System\Radar_Core\Libraries\XMCLib\inc\xmc_dac.h ****  * Sets the \e channel to Data mode. Trigger and frequency are configured.
 587:C:\Users\Depes Crystalline\Desktop\school\Active_Bike_Lighting_System\Radar_Core\Libraries\XMCLib\inc\xmc_dac.h ****  *
 588:C:\Users\Depes Crystalline\Desktop\school\Active_Bike_Lighting_System\Radar_Core\Libraries\XMCLib\inc\xmc_dac.h ****  * \par<b>Note:</b><br>
 589:C:\Users\Depes Crystalline\Desktop\school\Active_Bike_Lighting_System\Radar_Core\Libraries\XMCLib\inc\xmc_dac.h ****  * Call XMC_DAC_CH_Write() API to write the data. Call XMC_DAC_EnableSimultaneousDataMode() to swit
 590:C:\Users\Depes Crystalline\Desktop\school\Active_Bike_Lighting_System\Radar_Core\Libraries\XMCLib\inc\xmc_dac.h ****  *
 591:C:\Users\Depes Crystalline\Desktop\school\Active_Bike_Lighting_System\Radar_Core\Libraries\XMCLib\inc\xmc_dac.h ****  * \par<b>Related APIs:</b><BR>
 592:C:\Users\Depes Crystalline\Desktop\school\Active_Bike_Lighting_System\Radar_Core\Libraries\XMCLib\inc\xmc_dac.h ****  * XMC_DAC_CH_Init(), XMC_DAC_CH_Write(), XMC_DAC_EnableSimultaneousDataMode() \n\n\n
 593:C:\Users\Depes Crystalline\Desktop\school\Active_Bike_Lighting_System\Radar_Core\Libraries\XMCLib\inc\xmc_dac.h ****  *
 594:C:\Users\Depes Crystalline\Desktop\school\Active_Bike_Lighting_System\Radar_Core\Libraries\XMCLib\inc\xmc_dac.h ****  */
 595:C:\Users\Depes Crystalline\Desktop\school\Active_Bike_Lighting_System\Radar_Core\Libraries\XMCLib\inc\xmc_dac.h **** XMC_DAC_CH_STATUS_t XMC_DAC_CH_StartDataMode(XMC_DAC_t *const dac,
 596:C:\Users\Depes Crystalline\Desktop\school\Active_Bike_Lighting_System\Radar_Core\Libraries\XMCLib\inc\xmc_dac.h ****                                              const uint8_t channel,
 597:C:\Users\Depes Crystalline\Desktop\school\Active_Bike_Lighting_System\Radar_Core\Libraries\XMCLib\inc\xmc_dac.h ****                                              const XMC_DAC_CH_TRIGGER_t trigger,
 598:C:\Users\Depes Crystalline\Desktop\school\Active_Bike_Lighting_System\Radar_Core\Libraries\XMCLib\inc\xmc_dac.h ****                                              const uint32_t frequency);
 599:C:\Users\Depes Crystalline\Desktop\school\Active_Bike_Lighting_System\Radar_Core\Libraries\XMCLib\inc\xmc_dac.h **** 
 600:C:\Users\Depes Crystalline\Desktop\school\Active_Bike_Lighting_System\Radar_Core\Libraries\XMCLib\inc\xmc_dac.h **** /**
 601:C:\Users\Depes Crystalline\Desktop\school\Active_Bike_Lighting_System\Radar_Core\Libraries\XMCLib\inc\xmc_dac.h ****  * @param dac Pointer to an instance of DAC module
 602:C:\Users\Depes Crystalline\Desktop\school\Active_Bike_Lighting_System\Radar_Core\Libraries\XMCLib\inc\xmc_dac.h ****  * @param channel DAC channel number
 603:C:\Users\Depes Crystalline\Desktop\school\Active_Bike_Lighting_System\Radar_Core\Libraries\XMCLib\inc\xmc_dac.h ****  * @param start Start point of the ramp [0-4095]
 604:C:\Users\Depes Crystalline\Desktop\school\Active_Bike_Lighting_System\Radar_Core\Libraries\XMCLib\inc\xmc_dac.h ****  * @param stop Stop point of the ramp [0-4095]
 605:C:\Users\Depes Crystalline\Desktop\school\Active_Bike_Lighting_System\Radar_Core\Libraries\XMCLib\inc\xmc_dac.h ****  * @param trigger Data points update trigger
 606:C:\Users\Depes Crystalline\Desktop\school\Active_Bike_Lighting_System\Radar_Core\Libraries\XMCLib\inc\xmc_dac.h ****  * @param frequency Ramp frequency in [Hz]
 607:C:\Users\Depes Crystalline\Desktop\school\Active_Bike_Lighting_System\Radar_Core\Libraries\XMCLib\inc\xmc_dac.h ****  *
 608:C:\Users\Depes Crystalline\Desktop\school\Active_Bike_Lighting_System\Radar_Core\Libraries\XMCLib\inc\xmc_dac.h ****  * @return XMC_DAC_CH_STATUS_t status
 609:C:\Users\Depes Crystalline\Desktop\school\Active_Bike_Lighting_System\Radar_Core\Libraries\XMCLib\inc\xmc_dac.h ****  *
 610:C:\Users\Depes Crystalline\Desktop\school\Active_Bike_Lighting_System\Radar_Core\Libraries\XMCLib\inc\xmc_dac.h ****  * \par<b>Description:</b><br>
 611:C:\Users\Depes Crystalline\Desktop\school\Active_Bike_Lighting_System\Radar_Core\Libraries\XMCLib\inc\xmc_dac.h ****  * Sets the \e channel to Ramp mode. Trigger, frequency, start and stop values are configured.
 612:C:\Users\Depes Crystalline\Desktop\school\Active_Bike_Lighting_System\Radar_Core\Libraries\XMCLib\inc\xmc_dac.h ****  * On a \e trigger ramp values are converted and driven to \e channel output.
 613:C:\Users\Depes Crystalline\Desktop\school\Active_Bike_Lighting_System\Radar_Core\Libraries\XMCLib\inc\xmc_dac.h ****  * Start and stop have the range of [0-4095]. Stop should be equal or greater than start. 
 614:C:\Users\Depes Crystalline\Desktop\school\Active_Bike_Lighting_System\Radar_Core\Libraries\XMCLib\inc\xmc_dac.h ****  *
 615:C:\Users\Depes Crystalline\Desktop\school\Active_Bike_Lighting_System\Radar_Core\Libraries\XMCLib\inc\xmc_dac.h ****  * \par<b>Note:</b><br>
 616:C:\Users\Depes Crystalline\Desktop\school\Active_Bike_Lighting_System\Radar_Core\Libraries\XMCLib\inc\xmc_dac.h ****  * If the ramp counter reaches its \e stop value, it restarts from the \e start value with the next
 617:C:\Users\Depes Crystalline\Desktop\school\Active_Bike_Lighting_System\Radar_Core\Libraries\XMCLib\inc\xmc_dac.h ****  *
 618:C:\Users\Depes Crystalline\Desktop\school\Active_Bike_Lighting_System\Radar_Core\Libraries\XMCLib\inc\xmc_dac.h ****  * \par<b>Related APIs:</b><BR>
 619:C:\Users\Depes Crystalline\Desktop\school\Active_Bike_Lighting_System\Radar_Core\Libraries\XMCLib\inc\xmc_dac.h ****  * XMC_DAC_CH_Init(), XMC_DAC_CH_GetRampStart(), XMC_DAC_CH_GetRampStop() \n\n\n
 620:C:\Users\Depes Crystalline\Desktop\school\Active_Bike_Lighting_System\Radar_Core\Libraries\XMCLib\inc\xmc_dac.h ****  *
 621:C:\Users\Depes Crystalline\Desktop\school\Active_Bike_Lighting_System\Radar_Core\Libraries\XMCLib\inc\xmc_dac.h ****  */
 622:C:\Users\Depes Crystalline\Desktop\school\Active_Bike_Lighting_System\Radar_Core\Libraries\XMCLib\inc\xmc_dac.h **** XMC_DAC_CH_STATUS_t XMC_DAC_CH_StartRampMode(XMC_DAC_t *const dac,
 623:C:\Users\Depes Crystalline\Desktop\school\Active_Bike_Lighting_System\Radar_Core\Libraries\XMCLib\inc\xmc_dac.h ****                                              const uint8_t channel,
 624:C:\Users\Depes Crystalline\Desktop\school\Active_Bike_Lighting_System\Radar_Core\Libraries\XMCLib\inc\xmc_dac.h ****                                              const uint16_t start,
 625:C:\Users\Depes Crystalline\Desktop\school\Active_Bike_Lighting_System\Radar_Core\Libraries\XMCLib\inc\xmc_dac.h ****                                              const uint16_t stop,
 626:C:\Users\Depes Crystalline\Desktop\school\Active_Bike_Lighting_System\Radar_Core\Libraries\XMCLib\inc\xmc_dac.h ****                                              const XMC_DAC_CH_TRIGGER_t trigger,
 627:C:\Users\Depes Crystalline\Desktop\school\Active_Bike_Lighting_System\Radar_Core\Libraries\XMCLib\inc\xmc_dac.h ****                                              const uint32_t frequency);
 628:C:\Users\Depes Crystalline\Desktop\school\Active_Bike_Lighting_System\Radar_Core\Libraries\XMCLib\inc\xmc_dac.h **** 
 629:C:\Users\Depes Crystalline\Desktop\school\Active_Bike_Lighting_System\Radar_Core\Libraries\XMCLib\inc\xmc_dac.h **** /**
 630:C:\Users\Depes Crystalline\Desktop\school\Active_Bike_Lighting_System\Radar_Core\Libraries\XMCLib\inc\xmc_dac.h ****  * @param dac Pointer to an instance of DAC module
 631:C:\Users\Depes Crystalline\Desktop\school\Active_Bike_Lighting_System\Radar_Core\Libraries\XMCLib\inc\xmc_dac.h ****  * @param channel DAC channel number
 632:C:\Users\Depes Crystalline\Desktop\school\Active_Bike_Lighting_System\Radar_Core\Libraries\XMCLib\inc\xmc_dac.h ****  * @param pattern Data table of a pattern
 633:C:\Users\Depes Crystalline\Desktop\school\Active_Bike_Lighting_System\Radar_Core\Libraries\XMCLib\inc\xmc_dac.h ****  * @param sign_output Sign information of the waveform
 634:C:\Users\Depes Crystalline\Desktop\school\Active_Bike_Lighting_System\Radar_Core\Libraries\XMCLib\inc\xmc_dac.h ****  * @param trigger Data points update trigger
 635:C:\Users\Depes Crystalline\Desktop\school\Active_Bike_Lighting_System\Radar_Core\Libraries\XMCLib\inc\xmc_dac.h ****  * @param frequency Waveform frequency in [Hz]
 636:C:\Users\Depes Crystalline\Desktop\school\Active_Bike_Lighting_System\Radar_Core\Libraries\XMCLib\inc\xmc_dac.h ****  *
 637:C:\Users\Depes Crystalline\Desktop\school\Active_Bike_Lighting_System\Radar_Core\Libraries\XMCLib\inc\xmc_dac.h ****  * @return XMC_DAC_CH_STATUS_t status
 638:C:\Users\Depes Crystalline\Desktop\school\Active_Bike_Lighting_System\Radar_Core\Libraries\XMCLib\inc\xmc_dac.h ****  *
 639:C:\Users\Depes Crystalline\Desktop\school\Active_Bike_Lighting_System\Radar_Core\Libraries\XMCLib\inc\xmc_dac.h ****  * \par<b>Description:</b><br>
 640:C:\Users\Depes Crystalline\Desktop\school\Active_Bike_Lighting_System\Radar_Core\Libraries\XMCLib\inc\xmc_dac.h ****  * Sets the \e channel to Pattern mode. Trigger, frequency, sign output and data are configured.
 641:C:\Users\Depes Crystalline\Desktop\school\Active_Bike_Lighting_System\Radar_Core\Libraries\XMCLib\inc\xmc_dac.h ****  * On a \e trigger, the \e pattern values are converted and driven to \e channel output.
 642:C:\Users\Depes Crystalline\Desktop\school\Active_Bike_Lighting_System\Radar_Core\Libraries\XMCLib\inc\xmc_dac.h ****  *
 643:C:\Users\Depes Crystalline\Desktop\school\Active_Bike_Lighting_System\Radar_Core\Libraries\XMCLib\inc\xmc_dac.h ****  * \par<b>Related APIs:</b><BR>
 644:C:\Users\Depes Crystalline\Desktop\school\Active_Bike_Lighting_System\Radar_Core\Libraries\XMCLib\inc\xmc_dac.h ****  * XMC_DAC_CH_Init(), XMC_DAC_CH_DisablePatternSignOutput() \n\n\n
 645:C:\Users\Depes Crystalline\Desktop\school\Active_Bike_Lighting_System\Radar_Core\Libraries\XMCLib\inc\xmc_dac.h ****  *
 646:C:\Users\Depes Crystalline\Desktop\school\Active_Bike_Lighting_System\Radar_Core\Libraries\XMCLib\inc\xmc_dac.h ****  */
 647:C:\Users\Depes Crystalline\Desktop\school\Active_Bike_Lighting_System\Radar_Core\Libraries\XMCLib\inc\xmc_dac.h **** XMC_DAC_CH_STATUS_t XMC_DAC_CH_StartPatternMode(XMC_DAC_t *const dac,
 648:C:\Users\Depes Crystalline\Desktop\school\Active_Bike_Lighting_System\Radar_Core\Libraries\XMCLib\inc\xmc_dac.h ****                                                 const uint8_t channel,
 649:C:\Users\Depes Crystalline\Desktop\school\Active_Bike_Lighting_System\Radar_Core\Libraries\XMCLib\inc\xmc_dac.h ****                                                 const uint8_t *const pattern,
 650:C:\Users\Depes Crystalline\Desktop\school\Active_Bike_Lighting_System\Radar_Core\Libraries\XMCLib\inc\xmc_dac.h ****                                                 const XMC_DAC_CH_PATTERN_SIGN_OUTPUT_t sign_output,
 651:C:\Users\Depes Crystalline\Desktop\school\Active_Bike_Lighting_System\Radar_Core\Libraries\XMCLib\inc\xmc_dac.h ****                                                 const XMC_DAC_CH_TRIGGER_t trigger,
 652:C:\Users\Depes Crystalline\Desktop\school\Active_Bike_Lighting_System\Radar_Core\Libraries\XMCLib\inc\xmc_dac.h ****                                                 const uint32_t frequency);
 653:C:\Users\Depes Crystalline\Desktop\school\Active_Bike_Lighting_System\Radar_Core\Libraries\XMCLib\inc\xmc_dac.h **** 
 654:C:\Users\Depes Crystalline\Desktop\school\Active_Bike_Lighting_System\Radar_Core\Libraries\XMCLib\inc\xmc_dac.h **** /**
 655:C:\Users\Depes Crystalline\Desktop\school\Active_Bike_Lighting_System\Radar_Core\Libraries\XMCLib\inc\xmc_dac.h ****  * @param dac Pointer to an instance of DAC module
 656:C:\Users\Depes Crystalline\Desktop\school\Active_Bike_Lighting_System\Radar_Core\Libraries\XMCLib\inc\xmc_dac.h ****  * @param channel DAC channel number
 657:C:\Users\Depes Crystalline\Desktop\school\Active_Bike_Lighting_System\Radar_Core\Libraries\XMCLib\inc\xmc_dac.h ****  * @param trigger Data points update trigger
 658:C:\Users\Depes Crystalline\Desktop\school\Active_Bike_Lighting_System\Radar_Core\Libraries\XMCLib\inc\xmc_dac.h ****  * @param frequency Waveform frequency in [Hz]
 659:C:\Users\Depes Crystalline\Desktop\school\Active_Bike_Lighting_System\Radar_Core\Libraries\XMCLib\inc\xmc_dac.h ****  *
 660:C:\Users\Depes Crystalline\Desktop\school\Active_Bike_Lighting_System\Radar_Core\Libraries\XMCLib\inc\xmc_dac.h ****  * @return XMC_DAC_CH_STATUS_t status
 661:C:\Users\Depes Crystalline\Desktop\school\Active_Bike_Lighting_System\Radar_Core\Libraries\XMCLib\inc\xmc_dac.h ****  *
 662:C:\Users\Depes Crystalline\Desktop\school\Active_Bike_Lighting_System\Radar_Core\Libraries\XMCLib\inc\xmc_dac.h ****  * \par<b>Description:</b><br>
 663:C:\Users\Depes Crystalline\Desktop\school\Active_Bike_Lighting_System\Radar_Core\Libraries\XMCLib\inc\xmc_dac.h ****  * Sets the \e channel to Noise mode. Trigger and frequency are configured.
 664:C:\Users\Depes Crystalline\Desktop\school\Active_Bike_Lighting_System\Radar_Core\Libraries\XMCLib\inc\xmc_dac.h ****  * On a \e trigger the DAC starts converting and drives to \e channel output.
 665:C:\Users\Depes Crystalline\Desktop\school\Active_Bike_Lighting_System\Radar_Core\Libraries\XMCLib\inc\xmc_dac.h ****  *
 666:C:\Users\Depes Crystalline\Desktop\school\Active_Bike_Lighting_System\Radar_Core\Libraries\XMCLib\inc\xmc_dac.h ****  * \par<b>Related APIs:</b><BR>
 667:C:\Users\Depes Crystalline\Desktop\school\Active_Bike_Lighting_System\Radar_Core\Libraries\XMCLib\inc\xmc_dac.h ****  * XMC_DAC_CH_Init()\n\n\n
 668:C:\Users\Depes Crystalline\Desktop\school\Active_Bike_Lighting_System\Radar_Core\Libraries\XMCLib\inc\xmc_dac.h ****  *
 669:C:\Users\Depes Crystalline\Desktop\school\Active_Bike_Lighting_System\Radar_Core\Libraries\XMCLib\inc\xmc_dac.h ****  */
 670:C:\Users\Depes Crystalline\Desktop\school\Active_Bike_Lighting_System\Radar_Core\Libraries\XMCLib\inc\xmc_dac.h **** XMC_DAC_CH_STATUS_t XMC_DAC_CH_StartNoiseMode(XMC_DAC_t *const dac,
 671:C:\Users\Depes Crystalline\Desktop\school\Active_Bike_Lighting_System\Radar_Core\Libraries\XMCLib\inc\xmc_dac.h ****                                               const uint8_t channel,
 672:C:\Users\Depes Crystalline\Desktop\school\Active_Bike_Lighting_System\Radar_Core\Libraries\XMCLib\inc\xmc_dac.h ****                                               const XMC_DAC_CH_TRIGGER_t trigger,
 673:C:\Users\Depes Crystalline\Desktop\school\Active_Bike_Lighting_System\Radar_Core\Libraries\XMCLib\inc\xmc_dac.h ****                                               const uint32_t frequency);
 674:C:\Users\Depes Crystalline\Desktop\school\Active_Bike_Lighting_System\Radar_Core\Libraries\XMCLib\inc\xmc_dac.h **** 
 675:C:\Users\Depes Crystalline\Desktop\school\Active_Bike_Lighting_System\Radar_Core\Libraries\XMCLib\inc\xmc_dac.h **** /**
 676:C:\Users\Depes Crystalline\Desktop\school\Active_Bike_Lighting_System\Radar_Core\Libraries\XMCLib\inc\xmc_dac.h ****  * @param dac Pointer to an instance of DAC module
 677:C:\Users\Depes Crystalline\Desktop\school\Active_Bike_Lighting_System\Radar_Core\Libraries\XMCLib\inc\xmc_dac.h ****  * @param channel DAC channel number
 678:C:\Users\Depes Crystalline\Desktop\school\Active_Bike_Lighting_System\Radar_Core\Libraries\XMCLib\inc\xmc_dac.h ****  * @param pattern Pointer to the data table
 679:C:\Users\Depes Crystalline\Desktop\school\Active_Bike_Lighting_System\Radar_Core\Libraries\XMCLib\inc\xmc_dac.h ****  *
 680:C:\Users\Depes Crystalline\Desktop\school\Active_Bike_Lighting_System\Radar_Core\Libraries\XMCLib\inc\xmc_dac.h ****  * @return None
 681:C:\Users\Depes Crystalline\Desktop\school\Active_Bike_Lighting_System\Radar_Core\Libraries\XMCLib\inc\xmc_dac.h ****  *
 682:C:\Users\Depes Crystalline\Desktop\school\Active_Bike_Lighting_System\Radar_Core\Libraries\XMCLib\inc\xmc_dac.h ****  * \par<b>Description:</b><br>
 683:C:\Users\Depes Crystalline\Desktop\school\Active_Bike_Lighting_System\Radar_Core\Libraries\XMCLib\inc\xmc_dac.h ****  * The data for the Pattern mode is written to the \a DAC0PATL and \a DAC0PATH registers.
 684:C:\Users\Depes Crystalline\Desktop\school\Active_Bike_Lighting_System\Radar_Core\Libraries\XMCLib\inc\xmc_dac.h ****  * The API is called by XMC_DAC_CH_StartPatternMode().
 685:C:\Users\Depes Crystalline\Desktop\school\Active_Bike_Lighting_System\Radar_Core\Libraries\XMCLib\inc\xmc_dac.h ****  *
 686:C:\Users\Depes Crystalline\Desktop\school\Active_Bike_Lighting_System\Radar_Core\Libraries\XMCLib\inc\xmc_dac.h ****  * \par<b>Note:</b><br>
 687:C:\Users\Depes Crystalline\Desktop\school\Active_Bike_Lighting_System\Radar_Core\Libraries\XMCLib\inc\xmc_dac.h ****  * Call this API if the \a channel is set to Pattern mode.
 688:C:\Users\Depes Crystalline\Desktop\school\Active_Bike_Lighting_System\Radar_Core\Libraries\XMCLib\inc\xmc_dac.h ****  *
 689:C:\Users\Depes Crystalline\Desktop\school\Active_Bike_Lighting_System\Radar_Core\Libraries\XMCLib\inc\xmc_dac.h ****  * \par<b>Related APIs:</b><BR>
 690:C:\Users\Depes Crystalline\Desktop\school\Active_Bike_Lighting_System\Radar_Core\Libraries\XMCLib\inc\xmc_dac.h ****  * XMC_DAC_CH_EnablePatternSignOutput(), XMC_DAC_CH_DisablePatternSignOutput()\n\n\n
 691:C:\Users\Depes Crystalline\Desktop\school\Active_Bike_Lighting_System\Radar_Core\Libraries\XMCLib\inc\xmc_dac.h ****  *
 692:C:\Users\Depes Crystalline\Desktop\school\Active_Bike_Lighting_System\Radar_Core\Libraries\XMCLib\inc\xmc_dac.h ****  */
 693:C:\Users\Depes Crystalline\Desktop\school\Active_Bike_Lighting_System\Radar_Core\Libraries\XMCLib\inc\xmc_dac.h **** void XMC_DAC_CH_SetPattern(XMC_DAC_t *const dac, const uint8_t channel, const uint8_t *const patter
 694:C:\Users\Depes Crystalline\Desktop\school\Active_Bike_Lighting_System\Radar_Core\Libraries\XMCLib\inc\xmc_dac.h **** 
 695:C:\Users\Depes Crystalline\Desktop\school\Active_Bike_Lighting_System\Radar_Core\Libraries\XMCLib\inc\xmc_dac.h **** /**
 696:C:\Users\Depes Crystalline\Desktop\school\Active_Bike_Lighting_System\Radar_Core\Libraries\XMCLib\inc\xmc_dac.h ****  * @param dac Pointer to an instance of DAC module
 697:C:\Users\Depes Crystalline\Desktop\school\Active_Bike_Lighting_System\Radar_Core\Libraries\XMCLib\inc\xmc_dac.h ****  * @param channel DAC channel number
 698:C:\Users\Depes Crystalline\Desktop\school\Active_Bike_Lighting_System\Radar_Core\Libraries\XMCLib\inc\xmc_dac.h ****  *
 699:C:\Users\Depes Crystalline\Desktop\school\Active_Bike_Lighting_System\Radar_Core\Libraries\XMCLib\inc\xmc_dac.h ****  * @return None
 700:C:\Users\Depes Crystalline\Desktop\school\Active_Bike_Lighting_System\Radar_Core\Libraries\XMCLib\inc\xmc_dac.h ****  *
 701:C:\Users\Depes Crystalline\Desktop\school\Active_Bike_Lighting_System\Radar_Core\Libraries\XMCLib\inc\xmc_dac.h ****  * \par<b>Description:</b><br>
 702:C:\Users\Depes Crystalline\Desktop\school\Active_Bike_Lighting_System\Radar_Core\Libraries\XMCLib\inc\xmc_dac.h ****  * Enables the output sign information for Pattern Mode.
 703:C:\Users\Depes Crystalline\Desktop\school\Active_Bike_Lighting_System\Radar_Core\Libraries\XMCLib\inc\xmc_dac.h ****  *
 704:C:\Users\Depes Crystalline\Desktop\school\Active_Bike_Lighting_System\Radar_Core\Libraries\XMCLib\inc\xmc_dac.h ****  * \par
 705:C:\Users\Depes Crystalline\Desktop\school\Active_Bike_Lighting_System\Radar_Core\Libraries\XMCLib\inc\xmc_dac.h ****  * Sign output is enabled by setting \a SIGNEN bit of \a DAC0CFG0 register (for channel 0) / DAC1CF
 706:C:\Users\Depes Crystalline\Desktop\school\Active_Bike_Lighting_System\Radar_Core\Libraries\XMCLib\inc\xmc_dac.h ****  *
 707:C:\Users\Depes Crystalline\Desktop\school\Active_Bike_Lighting_System\Radar_Core\Libraries\XMCLib\inc\xmc_dac.h ****  * \par<b>Note:</b><br>
 708:C:\Users\Depes Crystalline\Desktop\school\Active_Bike_Lighting_System\Radar_Core\Libraries\XMCLib\inc\xmc_dac.h ****  * Call this API if the \e channel is set to Pattern mode.
 709:C:\Users\Depes Crystalline\Desktop\school\Active_Bike_Lighting_System\Radar_Core\Libraries\XMCLib\inc\xmc_dac.h ****  *
 710:C:\Users\Depes Crystalline\Desktop\school\Active_Bike_Lighting_System\Radar_Core\Libraries\XMCLib\inc\xmc_dac.h ****  * \par<b>Related APIs:</b><BR>
 711:C:\Users\Depes Crystalline\Desktop\school\Active_Bike_Lighting_System\Radar_Core\Libraries\XMCLib\inc\xmc_dac.h ****  * XMC_DAC_CH_StartPatternMode(), XMC_DAC_CH_DisablePatternSignOutput()\n\n\n
 712:C:\Users\Depes Crystalline\Desktop\school\Active_Bike_Lighting_System\Radar_Core\Libraries\XMCLib\inc\xmc_dac.h ****  *
 713:C:\Users\Depes Crystalline\Desktop\school\Active_Bike_Lighting_System\Radar_Core\Libraries\XMCLib\inc\xmc_dac.h ****  */
 714:C:\Users\Depes Crystalline\Desktop\school\Active_Bike_Lighting_System\Radar_Core\Libraries\XMCLib\inc\xmc_dac.h **** __STATIC_INLINE void XMC_DAC_CH_EnablePatternSignOutput(XMC_DAC_t *const dac,
 715:C:\Users\Depes Crystalline\Desktop\school\Active_Bike_Lighting_System\Radar_Core\Libraries\XMCLib\inc\xmc_dac.h ****                                                      const uint8_t channel)
 716:C:\Users\Depes Crystalline\Desktop\school\Active_Bike_Lighting_System\Radar_Core\Libraries\XMCLib\inc\xmc_dac.h **** {
 717:C:\Users\Depes Crystalline\Desktop\school\Active_Bike_Lighting_System\Radar_Core\Libraries\XMCLib\inc\xmc_dac.h ****   dac->DACCFG[channel].low |= DAC_DAC0CFG0_SIGNEN_Msk;
 718:C:\Users\Depes Crystalline\Desktop\school\Active_Bike_Lighting_System\Radar_Core\Libraries\XMCLib\inc\xmc_dac.h **** }
 719:C:\Users\Depes Crystalline\Desktop\school\Active_Bike_Lighting_System\Radar_Core\Libraries\XMCLib\inc\xmc_dac.h **** 
 720:C:\Users\Depes Crystalline\Desktop\school\Active_Bike_Lighting_System\Radar_Core\Libraries\XMCLib\inc\xmc_dac.h **** /**
 721:C:\Users\Depes Crystalline\Desktop\school\Active_Bike_Lighting_System\Radar_Core\Libraries\XMCLib\inc\xmc_dac.h ****  * @param dac Pointer to an instance of DAC module
 722:C:\Users\Depes Crystalline\Desktop\school\Active_Bike_Lighting_System\Radar_Core\Libraries\XMCLib\inc\xmc_dac.h ****  * @param channel DAC channel number
 723:C:\Users\Depes Crystalline\Desktop\school\Active_Bike_Lighting_System\Radar_Core\Libraries\XMCLib\inc\xmc_dac.h ****  *
 724:C:\Users\Depes Crystalline\Desktop\school\Active_Bike_Lighting_System\Radar_Core\Libraries\XMCLib\inc\xmc_dac.h ****  * @return None
 725:C:\Users\Depes Crystalline\Desktop\school\Active_Bike_Lighting_System\Radar_Core\Libraries\XMCLib\inc\xmc_dac.h ****  *
 726:C:\Users\Depes Crystalline\Desktop\school\Active_Bike_Lighting_System\Radar_Core\Libraries\XMCLib\inc\xmc_dac.h ****  * \par<b>Description:</b><br>
 727:C:\Users\Depes Crystalline\Desktop\school\Active_Bike_Lighting_System\Radar_Core\Libraries\XMCLib\inc\xmc_dac.h ****  * Disables output sign information for Pattern Mode.
 728:C:\Users\Depes Crystalline\Desktop\school\Active_Bike_Lighting_System\Radar_Core\Libraries\XMCLib\inc\xmc_dac.h ****  *
 729:C:\Users\Depes Crystalline\Desktop\school\Active_Bike_Lighting_System\Radar_Core\Libraries\XMCLib\inc\xmc_dac.h ****  * \par
 730:C:\Users\Depes Crystalline\Desktop\school\Active_Bike_Lighting_System\Radar_Core\Libraries\XMCLib\inc\xmc_dac.h ****  * Sign output is disabled by clearing \a SIGNEN bit of \a DAC0CFG0 register (for channel 0) / DAC1
 731:C:\Users\Depes Crystalline\Desktop\school\Active_Bike_Lighting_System\Radar_Core\Libraries\XMCLib\inc\xmc_dac.h ****  *
 732:C:\Users\Depes Crystalline\Desktop\school\Active_Bike_Lighting_System\Radar_Core\Libraries\XMCLib\inc\xmc_dac.h ****  * \par<b>Note:</b><br>
 733:C:\Users\Depes Crystalline\Desktop\school\Active_Bike_Lighting_System\Radar_Core\Libraries\XMCLib\inc\xmc_dac.h ****  * Call this API if the \e channel is set to Pattern mode.
 734:C:\Users\Depes Crystalline\Desktop\school\Active_Bike_Lighting_System\Radar_Core\Libraries\XMCLib\inc\xmc_dac.h ****  *
 735:C:\Users\Depes Crystalline\Desktop\school\Active_Bike_Lighting_System\Radar_Core\Libraries\XMCLib\inc\xmc_dac.h ****  * \par<b>Related APIs:</b><BR>
 736:C:\Users\Depes Crystalline\Desktop\school\Active_Bike_Lighting_System\Radar_Core\Libraries\XMCLib\inc\xmc_dac.h ****  * XMC_DAC_CH_StartPatternMode(), XMC_DAC_CH_EnablePatternSignOutput()\n\n\n
 737:C:\Users\Depes Crystalline\Desktop\school\Active_Bike_Lighting_System\Radar_Core\Libraries\XMCLib\inc\xmc_dac.h ****  *
 738:C:\Users\Depes Crystalline\Desktop\school\Active_Bike_Lighting_System\Radar_Core\Libraries\XMCLib\inc\xmc_dac.h ****  */
 739:C:\Users\Depes Crystalline\Desktop\school\Active_Bike_Lighting_System\Radar_Core\Libraries\XMCLib\inc\xmc_dac.h **** __STATIC_INLINE void XMC_DAC_CH_DisablePatternSignOutput(XMC_DAC_t *const dac,
 740:C:\Users\Depes Crystalline\Desktop\school\Active_Bike_Lighting_System\Radar_Core\Libraries\XMCLib\inc\xmc_dac.h ****                                                      const uint8_t channel)
 741:C:\Users\Depes Crystalline\Desktop\school\Active_Bike_Lighting_System\Radar_Core\Libraries\XMCLib\inc\xmc_dac.h **** {
 742:C:\Users\Depes Crystalline\Desktop\school\Active_Bike_Lighting_System\Radar_Core\Libraries\XMCLib\inc\xmc_dac.h ****   dac->DACCFG[channel].low &= ~DAC_DAC0CFG0_SIGNEN_Msk;
 743:C:\Users\Depes Crystalline\Desktop\school\Active_Bike_Lighting_System\Radar_Core\Libraries\XMCLib\inc\xmc_dac.h **** }
 744:C:\Users\Depes Crystalline\Desktop\school\Active_Bike_Lighting_System\Radar_Core\Libraries\XMCLib\inc\xmc_dac.h **** 
 745:C:\Users\Depes Crystalline\Desktop\school\Active_Bike_Lighting_System\Radar_Core\Libraries\XMCLib\inc\xmc_dac.h **** /**
 746:C:\Users\Depes Crystalline\Desktop\school\Active_Bike_Lighting_System\Radar_Core\Libraries\XMCLib\inc\xmc_dac.h ****  * @param dac Pointer to an instance of DAC module
 747:C:\Users\Depes Crystalline\Desktop\school\Active_Bike_Lighting_System\Radar_Core\Libraries\XMCLib\inc\xmc_dac.h ****  * @param channel DAC channel number
 748:C:\Users\Depes Crystalline\Desktop\school\Active_Bike_Lighting_System\Radar_Core\Libraries\XMCLib\inc\xmc_dac.h ****  * @param start Ramp start point [0-4095]
 749:C:\Users\Depes Crystalline\Desktop\school\Active_Bike_Lighting_System\Radar_Core\Libraries\XMCLib\inc\xmc_dac.h ****  *
 750:C:\Users\Depes Crystalline\Desktop\school\Active_Bike_Lighting_System\Radar_Core\Libraries\XMCLib\inc\xmc_dac.h ****  * @return None
 751:C:\Users\Depes Crystalline\Desktop\school\Active_Bike_Lighting_System\Radar_Core\Libraries\XMCLib\inc\xmc_dac.h ****  *
 752:C:\Users\Depes Crystalline\Desktop\school\Active_Bike_Lighting_System\Radar_Core\Libraries\XMCLib\inc\xmc_dac.h ****  * \par<b>Description:</b><br>
 753:C:\Users\Depes Crystalline\Desktop\school\Active_Bike_Lighting_System\Radar_Core\Libraries\XMCLib\inc\xmc_dac.h ****  * Sets the ramp start value by writing to the register \a DAC0DATA (for \e channel 0) or \a DAC1DA
 754:C:\Users\Depes Crystalline\Desktop\school\Active_Bike_Lighting_System\Radar_Core\Libraries\XMCLib\inc\xmc_dac.h ****  * If the ramp counter reaches its stop value, it restarts from the \a start value with the next tr
 755:C:\Users\Depes Crystalline\Desktop\school\Active_Bike_Lighting_System\Radar_Core\Libraries\XMCLib\inc\xmc_dac.h ****  * Ensure \e start value is lower than the stop value.
 756:C:\Users\Depes Crystalline\Desktop\school\Active_Bike_Lighting_System\Radar_Core\Libraries\XMCLib\inc\xmc_dac.h ****  *
 757:C:\Users\Depes Crystalline\Desktop\school\Active_Bike_Lighting_System\Radar_Core\Libraries\XMCLib\inc\xmc_dac.h ****  * \par<b>Note:</b><br>
 758:C:\Users\Depes Crystalline\Desktop\school\Active_Bike_Lighting_System\Radar_Core\Libraries\XMCLib\inc\xmc_dac.h ****  * Call this API if the \a channel is set to Ramp mode.
 759:C:\Users\Depes Crystalline\Desktop\school\Active_Bike_Lighting_System\Radar_Core\Libraries\XMCLib\inc\xmc_dac.h ****  * Start value is a 12 bit data.
 760:C:\Users\Depes Crystalline\Desktop\school\Active_Bike_Lighting_System\Radar_Core\Libraries\XMCLib\inc\xmc_dac.h ****  *
 761:C:\Users\Depes Crystalline\Desktop\school\Active_Bike_Lighting_System\Radar_Core\Libraries\XMCLib\inc\xmc_dac.h ****  * \par<b>Related APIs:</b><BR>
 762:C:\Users\Depes Crystalline\Desktop\school\Active_Bike_Lighting_System\Radar_Core\Libraries\XMCLib\inc\xmc_dac.h ****  * XMC_DAC_CH_GetRampStart(), XMC_DAC_CH_GetRampStop(), XMC_DAC_CH_SetRampStop()\n\n\n
 763:C:\Users\Depes Crystalline\Desktop\school\Active_Bike_Lighting_System\Radar_Core\Libraries\XMCLib\inc\xmc_dac.h ****  *
 764:C:\Users\Depes Crystalline\Desktop\school\Active_Bike_Lighting_System\Radar_Core\Libraries\XMCLib\inc\xmc_dac.h ****  */
 765:C:\Users\Depes Crystalline\Desktop\school\Active_Bike_Lighting_System\Radar_Core\Libraries\XMCLib\inc\xmc_dac.h **** __STATIC_INLINE void XMC_DAC_CH_SetRampStart(XMC_DAC_t *const dac, const uint8_t channel, const uin
 766:C:\Users\Depes Crystalline\Desktop\school\Active_Bike_Lighting_System\Radar_Core\Libraries\XMCLib\inc\xmc_dac.h **** {
 173              	 .loc 1 766 0
 174              	 .cfi_startproc
 175              	 
 176              	 
 177              	 
 178 0000 80B4     	 push {r7}
 179              	.LCFI18:
 180              	 .cfi_def_cfa_offset 4
 181              	 .cfi_offset 7,-4
 182 0002 83B0     	 sub sp,sp,#12
 183              	.LCFI19:
 184              	 .cfi_def_cfa_offset 16
 185 0004 00AF     	 add r7,sp,#0
 186              	.LCFI20:
 187              	 .cfi_def_cfa_register 7
 188 0006 7860     	 str r0,[r7,#4]
 189 0008 0B46     	 mov r3,r1
 190 000a FB70     	 strb r3,[r7,#3]
 191 000c 1346     	 mov r3,r2
 192 000e 3B80     	 strh r3,[r7]
 767:C:\Users\Depes Crystalline\Desktop\school\Active_Bike_Lighting_System\Radar_Core\Libraries\XMCLib\inc\xmc_dac.h ****   dac->DACDATA[channel] = start;
 193              	 .loc 1 767 0
 194 0010 FB78     	 ldrb r3,[r7,#3]
 195 0012 3A88     	 ldrh r2,[r7]
 196 0014 7968     	 ldr r1,[r7,#4]
 197 0016 0433     	 adds r3,r3,#4
 198 0018 9B00     	 lsls r3,r3,#2
 199 001a 0B44     	 add r3,r3,r1
 200 001c 5A60     	 str r2,[r3,#4]
 768:C:\Users\Depes Crystalline\Desktop\school\Active_Bike_Lighting_System\Radar_Core\Libraries\XMCLib\inc\xmc_dac.h **** }
 201              	 .loc 1 768 0
 202 001e 0C37     	 adds r7,r7,#12
 203              	.LCFI21:
 204              	 .cfi_def_cfa_offset 4
 205 0020 BD46     	 mov sp,r7
 206              	.LCFI22:
 207              	 .cfi_def_cfa_register 13
 208              	 
 209 0022 5DF8047B 	 ldr r7,[sp],#4
 210              	.LCFI23:
 211              	 .cfi_restore 7
 212              	 .cfi_def_cfa_offset 0
 213 0026 7047     	 bx lr
 214              	 .cfi_endproc
 215              	.LFE137:
 217              	 .section .text.XMC_DAC_CH_SetRampStop,"ax",%progbits
 218              	 .align 2
 219              	 .thumb
 220              	 .thumb_func
 222              	XMC_DAC_CH_SetRampStop:
 223              	.LFB139:
 769:C:\Users\Depes Crystalline\Desktop\school\Active_Bike_Lighting_System\Radar_Core\Libraries\XMCLib\inc\xmc_dac.h **** 
 770:C:\Users\Depes Crystalline\Desktop\school\Active_Bike_Lighting_System\Radar_Core\Libraries\XMCLib\inc\xmc_dac.h **** /**
 771:C:\Users\Depes Crystalline\Desktop\school\Active_Bike_Lighting_System\Radar_Core\Libraries\XMCLib\inc\xmc_dac.h ****  * @param dac Pointer to an instance of DAC module
 772:C:\Users\Depes Crystalline\Desktop\school\Active_Bike_Lighting_System\Radar_Core\Libraries\XMCLib\inc\xmc_dac.h ****  * @param channel DAC channel number
 773:C:\Users\Depes Crystalline\Desktop\school\Active_Bike_Lighting_System\Radar_Core\Libraries\XMCLib\inc\xmc_dac.h ****  *
 774:C:\Users\Depes Crystalline\Desktop\school\Active_Bike_Lighting_System\Radar_Core\Libraries\XMCLib\inc\xmc_dac.h ****  * @return uint16_t
 775:C:\Users\Depes Crystalline\Desktop\school\Active_Bike_Lighting_System\Radar_Core\Libraries\XMCLib\inc\xmc_dac.h ****  *
 776:C:\Users\Depes Crystalline\Desktop\school\Active_Bike_Lighting_System\Radar_Core\Libraries\XMCLib\inc\xmc_dac.h ****  * \par<b>Description:</b><br>
 777:C:\Users\Depes Crystalline\Desktop\school\Active_Bike_Lighting_System\Radar_Core\Libraries\XMCLib\inc\xmc_dac.h ****  * Gets the ramp start value by reading \a DATA0 bit-field of \a DAC0DATA register (for channel 0) 
 778:C:\Users\Depes Crystalline\Desktop\school\Active_Bike_Lighting_System\Radar_Core\Libraries\XMCLib\inc\xmc_dac.h ****  * If the ramp counter reaches its stop value, it restarts from the start value with the next trigg
 779:C:\Users\Depes Crystalline\Desktop\school\Active_Bike_Lighting_System\Radar_Core\Libraries\XMCLib\inc\xmc_dac.h ****  *
 780:C:\Users\Depes Crystalline\Desktop\school\Active_Bike_Lighting_System\Radar_Core\Libraries\XMCLib\inc\xmc_dac.h ****  * \par<b>Note:</b><br>
 781:C:\Users\Depes Crystalline\Desktop\school\Active_Bike_Lighting_System\Radar_Core\Libraries\XMCLib\inc\xmc_dac.h ****  * Call this API if the \e channel is set to Ramp mode.
 782:C:\Users\Depes Crystalline\Desktop\school\Active_Bike_Lighting_System\Radar_Core\Libraries\XMCLib\inc\xmc_dac.h ****  *
 783:C:\Users\Depes Crystalline\Desktop\school\Active_Bike_Lighting_System\Radar_Core\Libraries\XMCLib\inc\xmc_dac.h ****  * \par<b>Related APIs:</b><BR>
 784:C:\Users\Depes Crystalline\Desktop\school\Active_Bike_Lighting_System\Radar_Core\Libraries\XMCLib\inc\xmc_dac.h ****  * XMC_DAC_CH_SetRampStart(), XMC_DAC_CH_StartRampMode(), XMC_DAC_CH_GetRampStop(), XMC_DAC_CH_SetR
 785:C:\Users\Depes Crystalline\Desktop\school\Active_Bike_Lighting_System\Radar_Core\Libraries\XMCLib\inc\xmc_dac.h ****  *
 786:C:\Users\Depes Crystalline\Desktop\school\Active_Bike_Lighting_System\Radar_Core\Libraries\XMCLib\inc\xmc_dac.h ****  */
 787:C:\Users\Depes Crystalline\Desktop\school\Active_Bike_Lighting_System\Radar_Core\Libraries\XMCLib\inc\xmc_dac.h **** __STATIC_INLINE uint16_t XMC_DAC_CH_GetRampStart(XMC_DAC_t *const dac, const uint8_t channel)
 788:C:\Users\Depes Crystalline\Desktop\school\Active_Bike_Lighting_System\Radar_Core\Libraries\XMCLib\inc\xmc_dac.h **** {
 789:C:\Users\Depes Crystalline\Desktop\school\Active_Bike_Lighting_System\Radar_Core\Libraries\XMCLib\inc\xmc_dac.h ****   return (uint16_t)(dac->DACDATA[channel]);
 790:C:\Users\Depes Crystalline\Desktop\school\Active_Bike_Lighting_System\Radar_Core\Libraries\XMCLib\inc\xmc_dac.h **** }
 791:C:\Users\Depes Crystalline\Desktop\school\Active_Bike_Lighting_System\Radar_Core\Libraries\XMCLib\inc\xmc_dac.h **** 
 792:C:\Users\Depes Crystalline\Desktop\school\Active_Bike_Lighting_System\Radar_Core\Libraries\XMCLib\inc\xmc_dac.h **** /**
 793:C:\Users\Depes Crystalline\Desktop\school\Active_Bike_Lighting_System\Radar_Core\Libraries\XMCLib\inc\xmc_dac.h ****  * @param dac Pointer to an instance of DAC module
 794:C:\Users\Depes Crystalline\Desktop\school\Active_Bike_Lighting_System\Radar_Core\Libraries\XMCLib\inc\xmc_dac.h ****  * @param channel DAC channel number
 795:C:\Users\Depes Crystalline\Desktop\school\Active_Bike_Lighting_System\Radar_Core\Libraries\XMCLib\inc\xmc_dac.h ****  * @param stop Ramp stop point [0-4095]
 796:C:\Users\Depes Crystalline\Desktop\school\Active_Bike_Lighting_System\Radar_Core\Libraries\XMCLib\inc\xmc_dac.h ****  *
 797:C:\Users\Depes Crystalline\Desktop\school\Active_Bike_Lighting_System\Radar_Core\Libraries\XMCLib\inc\xmc_dac.h ****  * @return None
 798:C:\Users\Depes Crystalline\Desktop\school\Active_Bike_Lighting_System\Radar_Core\Libraries\XMCLib\inc\xmc_dac.h ****  *
 799:C:\Users\Depes Crystalline\Desktop\school\Active_Bike_Lighting_System\Radar_Core\Libraries\XMCLib\inc\xmc_dac.h ****  * \par<b>Description:</b><br>
 800:C:\Users\Depes Crystalline\Desktop\school\Active_Bike_Lighting_System\Radar_Core\Libraries\XMCLib\inc\xmc_dac.h ****  * Sets the ramp stop value by writing to the bit-field \a DATA0 (for \e channel 0) or \a DATA1 (fo
 801:C:\Users\Depes Crystalline\Desktop\school\Active_Bike_Lighting_System\Radar_Core\Libraries\XMCLib\inc\xmc_dac.h ****  * If the ramp counter reaches its \a stop value, it restarts from the start value with the next tr
 802:C:\Users\Depes Crystalline\Desktop\school\Active_Bike_Lighting_System\Radar_Core\Libraries\XMCLib\inc\xmc_dac.h ****  * Ensure \e stop value is higher than the start value.
 803:C:\Users\Depes Crystalline\Desktop\school\Active_Bike_Lighting_System\Radar_Core\Libraries\XMCLib\inc\xmc_dac.h ****  *
 804:C:\Users\Depes Crystalline\Desktop\school\Active_Bike_Lighting_System\Radar_Core\Libraries\XMCLib\inc\xmc_dac.h ****  * \par<b>Note:</b><br>
 805:C:\Users\Depes Crystalline\Desktop\school\Active_Bike_Lighting_System\Radar_Core\Libraries\XMCLib\inc\xmc_dac.h ****  * Call this API if the \e channel is set to Ramp mode.
 806:C:\Users\Depes Crystalline\Desktop\school\Active_Bike_Lighting_System\Radar_Core\Libraries\XMCLib\inc\xmc_dac.h ****  * Stop value is a 12 bit data.
 807:C:\Users\Depes Crystalline\Desktop\school\Active_Bike_Lighting_System\Radar_Core\Libraries\XMCLib\inc\xmc_dac.h ****  *
 808:C:\Users\Depes Crystalline\Desktop\school\Active_Bike_Lighting_System\Radar_Core\Libraries\XMCLib\inc\xmc_dac.h ****  * \par<b>Related APIs:</b><BR>
 809:C:\Users\Depes Crystalline\Desktop\school\Active_Bike_Lighting_System\Radar_Core\Libraries\XMCLib\inc\xmc_dac.h ****  * XMC_DAC_CH_GetRampStop(), XMC_DAC_CH_SetRampStart()\n\n\n
 810:C:\Users\Depes Crystalline\Desktop\school\Active_Bike_Lighting_System\Radar_Core\Libraries\XMCLib\inc\xmc_dac.h ****  *
 811:C:\Users\Depes Crystalline\Desktop\school\Active_Bike_Lighting_System\Radar_Core\Libraries\XMCLib\inc\xmc_dac.h ****  */
 812:C:\Users\Depes Crystalline\Desktop\school\Active_Bike_Lighting_System\Radar_Core\Libraries\XMCLib\inc\xmc_dac.h **** __STATIC_INLINE void XMC_DAC_CH_SetRampStop(XMC_DAC_t *const dac, const uint8_t channel, const uint
 813:C:\Users\Depes Crystalline\Desktop\school\Active_Bike_Lighting_System\Radar_Core\Libraries\XMCLib\inc\xmc_dac.h **** {
 224              	 .loc 1 813 0
 225              	 .cfi_startproc
 226              	 
 227              	 
 228              	 
 229 0000 80B4     	 push {r7}
 230              	.LCFI24:
 231              	 .cfi_def_cfa_offset 4
 232              	 .cfi_offset 7,-4
 233 0002 83B0     	 sub sp,sp,#12
 234              	.LCFI25:
 235              	 .cfi_def_cfa_offset 16
 236 0004 00AF     	 add r7,sp,#0
 237              	.LCFI26:
 238              	 .cfi_def_cfa_register 7
 239 0006 7860     	 str r0,[r7,#4]
 240 0008 0B46     	 mov r3,r1
 241 000a FB70     	 strb r3,[r7,#3]
 242 000c 1346     	 mov r3,r2
 243 000e 3B80     	 strh r3,[r7]
 814:C:\Users\Depes Crystalline\Desktop\school\Active_Bike_Lighting_System\Radar_Core\Libraries\XMCLib\inc\xmc_dac.h ****   dac->DAC01DATA = (dac->DAC01DATA & ~(DAC_DAC01DATA_DATA0_Msk << (channel * DAC_DAC01DATA_DATA1_Po
 244              	 .loc 1 814 0
 245 0010 7B68     	 ldr r3,[r7,#4]
 246 0012 DA69     	 ldr r2,[r3,#28]
 247 0014 FB78     	 ldrb r3,[r7,#3]
 248 0016 1B01     	 lsls r3,r3,#4
 249 0018 1946     	 mov r1,r3
 250 001a 40F6FF73 	 movw r3,#4095
 251 001e 8B40     	 lsls r3,r3,r1
 252 0020 DB43     	 mvns r3,r3
 253 0022 1340     	 ands r3,r3,r2
 815:C:\Users\Depes Crystalline\Desktop\school\Active_Bike_Lighting_System\Radar_Core\Libraries\XMCLib\inc\xmc_dac.h ****                (stop << (channel * DAC_DAC01DATA_DATA1_Pos));
 254              	 .loc 1 815 0
 255 0024 3A88     	 ldrh r2,[r7]
 256 0026 F978     	 ldrb r1,[r7,#3]
 257 0028 0901     	 lsls r1,r1,#4
 258 002a 8A40     	 lsls r2,r2,r1
 814:C:\Users\Depes Crystalline\Desktop\school\Active_Bike_Lighting_System\Radar_Core\Libraries\XMCLib\inc\xmc_dac.h ****   dac->DAC01DATA = (dac->DAC01DATA & ~(DAC_DAC01DATA_DATA0_Msk << (channel * DAC_DAC01DATA_DATA1_Po
 259              	 .loc 1 814 0
 260 002c 1A43     	 orrs r2,r2,r3
 261 002e 7B68     	 ldr r3,[r7,#4]
 262 0030 DA61     	 str r2,[r3,#28]
 816:C:\Users\Depes Crystalline\Desktop\school\Active_Bike_Lighting_System\Radar_Core\Libraries\XMCLib\inc\xmc_dac.h **** }
 263              	 .loc 1 816 0
 264 0032 0C37     	 adds r7,r7,#12
 265              	.LCFI27:
 266              	 .cfi_def_cfa_offset 4
 267 0034 BD46     	 mov sp,r7
 268              	.LCFI28:
 269              	 .cfi_def_cfa_register 13
 270              	 
 271 0036 5DF8047B 	 ldr r7,[sp],#4
 272              	.LCFI29:
 273              	 .cfi_restore 7
 274              	 .cfi_def_cfa_offset 0
 275 003a 7047     	 bx lr
 276              	 .cfi_endproc
 277              	.LFE139:
 279              	 .section .text.XMC_DAC_CH_SetMode,"ax",%progbits
 280              	 .align 2
 281              	 .thumb
 282              	 .thumb_func
 284              	XMC_DAC_CH_SetMode:
 285              	.LFB143:
 817:C:\Users\Depes Crystalline\Desktop\school\Active_Bike_Lighting_System\Radar_Core\Libraries\XMCLib\inc\xmc_dac.h **** 
 818:C:\Users\Depes Crystalline\Desktop\school\Active_Bike_Lighting_System\Radar_Core\Libraries\XMCLib\inc\xmc_dac.h **** /**
 819:C:\Users\Depes Crystalline\Desktop\school\Active_Bike_Lighting_System\Radar_Core\Libraries\XMCLib\inc\xmc_dac.h ****  * @param dac Pointer to an instance of DAC module
 820:C:\Users\Depes Crystalline\Desktop\school\Active_Bike_Lighting_System\Radar_Core\Libraries\XMCLib\inc\xmc_dac.h ****  * @param channel DAC channel number
 821:C:\Users\Depes Crystalline\Desktop\school\Active_Bike_Lighting_System\Radar_Core\Libraries\XMCLib\inc\xmc_dac.h ****  *
 822:C:\Users\Depes Crystalline\Desktop\school\Active_Bike_Lighting_System\Radar_Core\Libraries\XMCLib\inc\xmc_dac.h ****  * @return uint16_t
 823:C:\Users\Depes Crystalline\Desktop\school\Active_Bike_Lighting_System\Radar_Core\Libraries\XMCLib\inc\xmc_dac.h ****  *
 824:C:\Users\Depes Crystalline\Desktop\school\Active_Bike_Lighting_System\Radar_Core\Libraries\XMCLib\inc\xmc_dac.h ****  * \par<b>Description:</b><br>
 825:C:\Users\Depes Crystalline\Desktop\school\Active_Bike_Lighting_System\Radar_Core\Libraries\XMCLib\inc\xmc_dac.h ****  * Gets the ramp stop value by reading \a DATA0 bit-field of \a DAC01DATA register (for channel 0) 
 826:C:\Users\Depes Crystalline\Desktop\school\Active_Bike_Lighting_System\Radar_Core\Libraries\XMCLib\inc\xmc_dac.h ****  * If the ramp counter reaches its stop value, it restarts from the start value with the next trigg
 827:C:\Users\Depes Crystalline\Desktop\school\Active_Bike_Lighting_System\Radar_Core\Libraries\XMCLib\inc\xmc_dac.h ****  *
 828:C:\Users\Depes Crystalline\Desktop\school\Active_Bike_Lighting_System\Radar_Core\Libraries\XMCLib\inc\xmc_dac.h ****  * \par<b>Note:</b><br>
 829:C:\Users\Depes Crystalline\Desktop\school\Active_Bike_Lighting_System\Radar_Core\Libraries\XMCLib\inc\xmc_dac.h ****  * Call this API if the \e channel is set to Ramp mode.
 830:C:\Users\Depes Crystalline\Desktop\school\Active_Bike_Lighting_System\Radar_Core\Libraries\XMCLib\inc\xmc_dac.h ****  *
 831:C:\Users\Depes Crystalline\Desktop\school\Active_Bike_Lighting_System\Radar_Core\Libraries\XMCLib\inc\xmc_dac.h ****  * \par<b>Related APIs:</b><BR>
 832:C:\Users\Depes Crystalline\Desktop\school\Active_Bike_Lighting_System\Radar_Core\Libraries\XMCLib\inc\xmc_dac.h ****  * XMC_DAC_CH_SetRampStop(), XMC_DAC_CH_StartRampMode(), XMC_DAC_CH_GetRampStart()\n\n\n
 833:C:\Users\Depes Crystalline\Desktop\school\Active_Bike_Lighting_System\Radar_Core\Libraries\XMCLib\inc\xmc_dac.h ****  *
 834:C:\Users\Depes Crystalline\Desktop\school\Active_Bike_Lighting_System\Radar_Core\Libraries\XMCLib\inc\xmc_dac.h ****  */
 835:C:\Users\Depes Crystalline\Desktop\school\Active_Bike_Lighting_System\Radar_Core\Libraries\XMCLib\inc\xmc_dac.h **** __STATIC_INLINE uint16_t XMC_DAC_CH_GetRampStop(XMC_DAC_t *const dac, const uint8_t channel)
 836:C:\Users\Depes Crystalline\Desktop\school\Active_Bike_Lighting_System\Radar_Core\Libraries\XMCLib\inc\xmc_dac.h **** {
 837:C:\Users\Depes Crystalline\Desktop\school\Active_Bike_Lighting_System\Radar_Core\Libraries\XMCLib\inc\xmc_dac.h ****   return((dac->DAC01DATA >> (channel * DAC_DAC01DATA_DATA1_Pos)) & DAC_DAC01DATA_DATA0_Msk);
 838:C:\Users\Depes Crystalline\Desktop\school\Active_Bike_Lighting_System\Radar_Core\Libraries\XMCLib\inc\xmc_dac.h **** }
 839:C:\Users\Depes Crystalline\Desktop\school\Active_Bike_Lighting_System\Radar_Core\Libraries\XMCLib\inc\xmc_dac.h **** 
 840:C:\Users\Depes Crystalline\Desktop\school\Active_Bike_Lighting_System\Radar_Core\Libraries\XMCLib\inc\xmc_dac.h **** /**
 841:C:\Users\Depes Crystalline\Desktop\school\Active_Bike_Lighting_System\Radar_Core\Libraries\XMCLib\inc\xmc_dac.h ****  * @param dac Pointer to an instance of DAC module
 842:C:\Users\Depes Crystalline\Desktop\school\Active_Bike_Lighting_System\Radar_Core\Libraries\XMCLib\inc\xmc_dac.h ****  * @param channel DAC channel number
 843:C:\Users\Depes Crystalline\Desktop\school\Active_Bike_Lighting_System\Radar_Core\Libraries\XMCLib\inc\xmc_dac.h ****  * @param trigger Trigger source
 844:C:\Users\Depes Crystalline\Desktop\school\Active_Bike_Lighting_System\Radar_Core\Libraries\XMCLib\inc\xmc_dac.h ****  *
 845:C:\Users\Depes Crystalline\Desktop\school\Active_Bike_Lighting_System\Radar_Core\Libraries\XMCLib\inc\xmc_dac.h ****  * @return None
 846:C:\Users\Depes Crystalline\Desktop\school\Active_Bike_Lighting_System\Radar_Core\Libraries\XMCLib\inc\xmc_dac.h ****  *
 847:C:\Users\Depes Crystalline\Desktop\school\Active_Bike_Lighting_System\Radar_Core\Libraries\XMCLib\inc\xmc_dac.h ****  * \par<b>Description:</b><br>
 848:C:\Users\Depes Crystalline\Desktop\school\Active_Bike_Lighting_System\Radar_Core\Libraries\XMCLib\inc\xmc_dac.h ****  * Selects the \e trigger source for the \e channel by configuring the bits TRIGSEL & TRIGMOD of CF
 849:C:\Users\Depes Crystalline\Desktop\school\Active_Bike_Lighting_System\Radar_Core\Libraries\XMCLib\inc\xmc_dac.h ****  *
 850:C:\Users\Depes Crystalline\Desktop\school\Active_Bike_Lighting_System\Radar_Core\Libraries\XMCLib\inc\xmc_dac.h ****  * \par
 851:C:\Users\Depes Crystalline\Desktop\school\Active_Bike_Lighting_System\Radar_Core\Libraries\XMCLib\inc\xmc_dac.h ****  * Channel \a channel trigger source is selected by \a TRIGSEL bit-field of \a DAC0CFG1 register (f
 852:C:\Users\Depes Crystalline\Desktop\school\Active_Bike_Lighting_System\Radar_Core\Libraries\XMCLib\inc\xmc_dac.h ****  *
 853:C:\Users\Depes Crystalline\Desktop\school\Active_Bike_Lighting_System\Radar_Core\Libraries\XMCLib\inc\xmc_dac.h ****  */
 854:C:\Users\Depes Crystalline\Desktop\school\Active_Bike_Lighting_System\Radar_Core\Libraries\XMCLib\inc\xmc_dac.h **** __STATIC_INLINE void XMC_DAC_CH_SetTrigger(XMC_DAC_t *const dac, const uint8_t channel, const XMC_D
 855:C:\Users\Depes Crystalline\Desktop\school\Active_Bike_Lighting_System\Radar_Core\Libraries\XMCLib\inc\xmc_dac.h **** {
 856:C:\Users\Depes Crystalline\Desktop\school\Active_Bike_Lighting_System\Radar_Core\Libraries\XMCLib\inc\xmc_dac.h ****   dac->DACCFG[channel].high = (dac->DACCFG[channel].high & ~(DAC_DAC0CFG1_TRIGSEL_Msk | DAC_DAC0CFG
 857:C:\Users\Depes Crystalline\Desktop\school\Active_Bike_Lighting_System\Radar_Core\Libraries\XMCLib\inc\xmc_dac.h ****                               trigger;
 858:C:\Users\Depes Crystalline\Desktop\school\Active_Bike_Lighting_System\Radar_Core\Libraries\XMCLib\inc\xmc_dac.h **** }
 859:C:\Users\Depes Crystalline\Desktop\school\Active_Bike_Lighting_System\Radar_Core\Libraries\XMCLib\inc\xmc_dac.h **** 
 860:C:\Users\Depes Crystalline\Desktop\school\Active_Bike_Lighting_System\Radar_Core\Libraries\XMCLib\inc\xmc_dac.h **** /**
 861:C:\Users\Depes Crystalline\Desktop\school\Active_Bike_Lighting_System\Radar_Core\Libraries\XMCLib\inc\xmc_dac.h ****  * @param dac Pointer to an instance of DAC module
 862:C:\Users\Depes Crystalline\Desktop\school\Active_Bike_Lighting_System\Radar_Core\Libraries\XMCLib\inc\xmc_dac.h ****  * @param channel DAC channel number
 863:C:\Users\Depes Crystalline\Desktop\school\Active_Bike_Lighting_System\Radar_Core\Libraries\XMCLib\inc\xmc_dac.h ****  * @param frequency Waveform frequency in [Hz]
 864:C:\Users\Depes Crystalline\Desktop\school\Active_Bike_Lighting_System\Radar_Core\Libraries\XMCLib\inc\xmc_dac.h ****  *
 865:C:\Users\Depes Crystalline\Desktop\school\Active_Bike_Lighting_System\Radar_Core\Libraries\XMCLib\inc\xmc_dac.h ****  * @return XMC_DAC_CH_STATUS_t
 866:C:\Users\Depes Crystalline\Desktop\school\Active_Bike_Lighting_System\Radar_Core\Libraries\XMCLib\inc\xmc_dac.h ****  *
 867:C:\Users\Depes Crystalline\Desktop\school\Active_Bike_Lighting_System\Radar_Core\Libraries\XMCLib\inc\xmc_dac.h ****  * \par<b>Description:</b><br>
 868:C:\Users\Depes Crystalline\Desktop\school\Active_Bike_Lighting_System\Radar_Core\Libraries\XMCLib\inc\xmc_dac.h ****  * Sets the \e frequency of DAC channel.
 869:C:\Users\Depes Crystalline\Desktop\school\Active_Bike_Lighting_System\Radar_Core\Libraries\XMCLib\inc\xmc_dac.h ****  *
 870:C:\Users\Depes Crystalline\Desktop\school\Active_Bike_Lighting_System\Radar_Core\Libraries\XMCLib\inc\xmc_dac.h ****  * \par
 871:C:\Users\Depes Crystalline\Desktop\school\Active_Bike_Lighting_System\Radar_Core\Libraries\XMCLib\inc\xmc_dac.h ****  * The value \e frequency acts as clock divider. The smallest \e frequency divider value is 16.
 872:C:\Users\Depes Crystalline\Desktop\school\Active_Bike_Lighting_System\Radar_Core\Libraries\XMCLib\inc\xmc_dac.h ****  * A valid \e frequency value should be within the range XMC_DAC_MIN_FREQ_DIVIDER to XMC_DAC_MAX_FR
 873:C:\Users\Depes Crystalline\Desktop\school\Active_Bike_Lighting_System\Radar_Core\Libraries\XMCLib\inc\xmc_dac.h ****  * Frequency \a frequency is configured by setting \a FREQ bit-field of \a DAC0CFG0 register (for c
 874:C:\Users\Depes Crystalline\Desktop\school\Active_Bike_Lighting_System\Radar_Core\Libraries\XMCLib\inc\xmc_dac.h ****  *
 875:C:\Users\Depes Crystalline\Desktop\school\Active_Bike_Lighting_System\Radar_Core\Libraries\XMCLib\inc\xmc_dac.h ****  * \par<b>Note:</b><br>
 876:C:\Users\Depes Crystalline\Desktop\school\Active_Bike_Lighting_System\Radar_Core\Libraries\XMCLib\inc\xmc_dac.h ****  * Call this API only for Single value mode, Data mode and Noise mode.
 877:C:\Users\Depes Crystalline\Desktop\school\Active_Bike_Lighting_System\Radar_Core\Libraries\XMCLib\inc\xmc_dac.h ****  * Call XMC_DAC_CH_SetRampFrequency() in case of Ramp mode and XMC_DAC_CH_SetPatternFrequency() in 
 878:C:\Users\Depes Crystalline\Desktop\school\Active_Bike_Lighting_System\Radar_Core\Libraries\XMCLib\inc\xmc_dac.h ****  *
 879:C:\Users\Depes Crystalline\Desktop\school\Active_Bike_Lighting_System\Radar_Core\Libraries\XMCLib\inc\xmc_dac.h ****  * \par<b>Related APIs:</b><BR>
 880:C:\Users\Depes Crystalline\Desktop\school\Active_Bike_Lighting_System\Radar_Core\Libraries\XMCLib\inc\xmc_dac.h ****  * XMC_DAC_CH_SetRampFrequency(), XMC_DAC_CH_SetPatternFrequency()\n\n\n
 881:C:\Users\Depes Crystalline\Desktop\school\Active_Bike_Lighting_System\Radar_Core\Libraries\XMCLib\inc\xmc_dac.h ****  *
 882:C:\Users\Depes Crystalline\Desktop\school\Active_Bike_Lighting_System\Radar_Core\Libraries\XMCLib\inc\xmc_dac.h ****  */
 883:C:\Users\Depes Crystalline\Desktop\school\Active_Bike_Lighting_System\Radar_Core\Libraries\XMCLib\inc\xmc_dac.h **** XMC_DAC_CH_STATUS_t XMC_DAC_CH_SetFrequency(XMC_DAC_t *const dac, const uint8_t channel, const uint
 884:C:\Users\Depes Crystalline\Desktop\school\Active_Bike_Lighting_System\Radar_Core\Libraries\XMCLib\inc\xmc_dac.h **** 
 885:C:\Users\Depes Crystalline\Desktop\school\Active_Bike_Lighting_System\Radar_Core\Libraries\XMCLib\inc\xmc_dac.h **** /**
 886:C:\Users\Depes Crystalline\Desktop\school\Active_Bike_Lighting_System\Radar_Core\Libraries\XMCLib\inc\xmc_dac.h ****  * @param dac Pointer to an instance of DAC module
 887:C:\Users\Depes Crystalline\Desktop\school\Active_Bike_Lighting_System\Radar_Core\Libraries\XMCLib\inc\xmc_dac.h ****  * @param channel DAC channel number
 888:C:\Users\Depes Crystalline\Desktop\school\Active_Bike_Lighting_System\Radar_Core\Libraries\XMCLib\inc\xmc_dac.h ****  * @param frequency [Hz]
 889:C:\Users\Depes Crystalline\Desktop\school\Active_Bike_Lighting_System\Radar_Core\Libraries\XMCLib\inc\xmc_dac.h ****  *
 890:C:\Users\Depes Crystalline\Desktop\school\Active_Bike_Lighting_System\Radar_Core\Libraries\XMCLib\inc\xmc_dac.h ****  * @return XMC_DAC_CH_STATUS_t
 891:C:\Users\Depes Crystalline\Desktop\school\Active_Bike_Lighting_System\Radar_Core\Libraries\XMCLib\inc\xmc_dac.h ****  *
 892:C:\Users\Depes Crystalline\Desktop\school\Active_Bike_Lighting_System\Radar_Core\Libraries\XMCLib\inc\xmc_dac.h ****  * \par<b>Description:</b><br>
 893:C:\Users\Depes Crystalline\Desktop\school\Active_Bike_Lighting_System\Radar_Core\Libraries\XMCLib\inc\xmc_dac.h ****  * Sets the \e frequency of DAC channel by calling XMC_DAC_CH_SetFrequency().
 894:C:\Users\Depes Crystalline\Desktop\school\Active_Bike_Lighting_System\Radar_Core\Libraries\XMCLib\inc\xmc_dac.h ****  *
 895:C:\Users\Depes Crystalline\Desktop\school\Active_Bike_Lighting_System\Radar_Core\Libraries\XMCLib\inc\xmc_dac.h ****  * \par
 896:C:\Users\Depes Crystalline\Desktop\school\Active_Bike_Lighting_System\Radar_Core\Libraries\XMCLib\inc\xmc_dac.h ****  * For the Ramp mode, the \a frequency of operation depends on the total number of sample points (\
 897:C:\Users\Depes Crystalline\Desktop\school\Active_Bike_Lighting_System\Radar_Core\Libraries\XMCLib\inc\xmc_dac.h ****  * Frequency \e frequency is multiplied by the total number of sample points, so that each trigger 
 898:C:\Users\Depes Crystalline\Desktop\school\Active_Bike_Lighting_System\Radar_Core\Libraries\XMCLib\inc\xmc_dac.h ****  *
 899:C:\Users\Depes Crystalline\Desktop\school\Active_Bike_Lighting_System\Radar_Core\Libraries\XMCLib\inc\xmc_dac.h ****  * \par<b>Note:</b><br>
 900:C:\Users\Depes Crystalline\Desktop\school\Active_Bike_Lighting_System\Radar_Core\Libraries\XMCLib\inc\xmc_dac.h ****  * Call this API only if the \a channel is set to Ramp mode.
 901:C:\Users\Depes Crystalline\Desktop\school\Active_Bike_Lighting_System\Radar_Core\Libraries\XMCLib\inc\xmc_dac.h ****  *
 902:C:\Users\Depes Crystalline\Desktop\school\Active_Bike_Lighting_System\Radar_Core\Libraries\XMCLib\inc\xmc_dac.h ****  * \par<b>Related APIs:</b><BR>
 903:C:\Users\Depes Crystalline\Desktop\school\Active_Bike_Lighting_System\Radar_Core\Libraries\XMCLib\inc\xmc_dac.h ****  * XMC_DAC_CH_StartRampMode()\n\n\n
 904:C:\Users\Depes Crystalline\Desktop\school\Active_Bike_Lighting_System\Radar_Core\Libraries\XMCLib\inc\xmc_dac.h ****  *
 905:C:\Users\Depes Crystalline\Desktop\school\Active_Bike_Lighting_System\Radar_Core\Libraries\XMCLib\inc\xmc_dac.h ****  */
 906:C:\Users\Depes Crystalline\Desktop\school\Active_Bike_Lighting_System\Radar_Core\Libraries\XMCLib\inc\xmc_dac.h **** XMC_DAC_CH_STATUS_t XMC_DAC_CH_SetRampFrequency(XMC_DAC_t *const dac, const uint8_t channel, const 
 907:C:\Users\Depes Crystalline\Desktop\school\Active_Bike_Lighting_System\Radar_Core\Libraries\XMCLib\inc\xmc_dac.h **** 
 908:C:\Users\Depes Crystalline\Desktop\school\Active_Bike_Lighting_System\Radar_Core\Libraries\XMCLib\inc\xmc_dac.h **** /**
 909:C:\Users\Depes Crystalline\Desktop\school\Active_Bike_Lighting_System\Radar_Core\Libraries\XMCLib\inc\xmc_dac.h ****  * @param dac Pointer to an instance of DAC module
 910:C:\Users\Depes Crystalline\Desktop\school\Active_Bike_Lighting_System\Radar_Core\Libraries\XMCLib\inc\xmc_dac.h ****  * @param channel DAC channel number
 911:C:\Users\Depes Crystalline\Desktop\school\Active_Bike_Lighting_System\Radar_Core\Libraries\XMCLib\inc\xmc_dac.h ****  * @param frequency in [Hz]
 912:C:\Users\Depes Crystalline\Desktop\school\Active_Bike_Lighting_System\Radar_Core\Libraries\XMCLib\inc\xmc_dac.h ****  *
 913:C:\Users\Depes Crystalline\Desktop\school\Active_Bike_Lighting_System\Radar_Core\Libraries\XMCLib\inc\xmc_dac.h ****  * @return XMC_DAC_CH_STATUS_t
 914:C:\Users\Depes Crystalline\Desktop\school\Active_Bike_Lighting_System\Radar_Core\Libraries\XMCLib\inc\xmc_dac.h ****  *
 915:C:\Users\Depes Crystalline\Desktop\school\Active_Bike_Lighting_System\Radar_Core\Libraries\XMCLib\inc\xmc_dac.h ****  * \par<b>Description:</b><br>
 916:C:\Users\Depes Crystalline\Desktop\school\Active_Bike_Lighting_System\Radar_Core\Libraries\XMCLib\inc\xmc_dac.h ****  * Sets the \e frequency of DAC channel by calling XMC_DAC_CH_SetFrequency().
 917:C:\Users\Depes Crystalline\Desktop\school\Active_Bike_Lighting_System\Radar_Core\Libraries\XMCLib\inc\xmc_dac.h ****  *
 918:C:\Users\Depes Crystalline\Desktop\school\Active_Bike_Lighting_System\Radar_Core\Libraries\XMCLib\inc\xmc_dac.h ****  * \par
 919:C:\Users\Depes Crystalline\Desktop\school\Active_Bike_Lighting_System\Radar_Core\Libraries\XMCLib\inc\xmc_dac.h ****  * For the Pattern mode, the \a frequency of operation depends on the total number of sample points
 920:C:\Users\Depes Crystalline\Desktop\school\Active_Bike_Lighting_System\Radar_Core\Libraries\XMCLib\inc\xmc_dac.h ****  * Frequency \e frequency is multiplied by the total number of sample points, so that each trigger 
 921:C:\Users\Depes Crystalline\Desktop\school\Active_Bike_Lighting_System\Radar_Core\Libraries\XMCLib\inc\xmc_dac.h ****  *
 922:C:\Users\Depes Crystalline\Desktop\school\Active_Bike_Lighting_System\Radar_Core\Libraries\XMCLib\inc\xmc_dac.h ****  * \par<b>Note:</b><br>
 923:C:\Users\Depes Crystalline\Desktop\school\Active_Bike_Lighting_System\Radar_Core\Libraries\XMCLib\inc\xmc_dac.h ****  * Call this API only if the \a channel is set to Pattern mode.
 924:C:\Users\Depes Crystalline\Desktop\school\Active_Bike_Lighting_System\Radar_Core\Libraries\XMCLib\inc\xmc_dac.h ****  *
 925:C:\Users\Depes Crystalline\Desktop\school\Active_Bike_Lighting_System\Radar_Core\Libraries\XMCLib\inc\xmc_dac.h ****  * \par<b>Related APIs:</b><BR>
 926:C:\Users\Depes Crystalline\Desktop\school\Active_Bike_Lighting_System\Radar_Core\Libraries\XMCLib\inc\xmc_dac.h ****  * XMC_DAC_CH_StartPatternMode()\n\n\n
 927:C:\Users\Depes Crystalline\Desktop\school\Active_Bike_Lighting_System\Radar_Core\Libraries\XMCLib\inc\xmc_dac.h ****  *
 928:C:\Users\Depes Crystalline\Desktop\school\Active_Bike_Lighting_System\Radar_Core\Libraries\XMCLib\inc\xmc_dac.h ****  */
 929:C:\Users\Depes Crystalline\Desktop\school\Active_Bike_Lighting_System\Radar_Core\Libraries\XMCLib\inc\xmc_dac.h **** __STATIC_INLINE XMC_DAC_CH_STATUS_t XMC_DAC_CH_SetPatternFrequency(XMC_DAC_t *const dac,
 930:C:\Users\Depes Crystalline\Desktop\school\Active_Bike_Lighting_System\Radar_Core\Libraries\XMCLib\inc\xmc_dac.h ****                                                                    const uint8_t channel,
 931:C:\Users\Depes Crystalline\Desktop\school\Active_Bike_Lighting_System\Radar_Core\Libraries\XMCLib\inc\xmc_dac.h ****                                                                    const uint32_t frequency)
 932:C:\Users\Depes Crystalline\Desktop\school\Active_Bike_Lighting_System\Radar_Core\Libraries\XMCLib\inc\xmc_dac.h **** {
 933:C:\Users\Depes Crystalline\Desktop\school\Active_Bike_Lighting_System\Radar_Core\Libraries\XMCLib\inc\xmc_dac.h ****   return XMC_DAC_CH_SetFrequency(dac, channel, frequency * XMC_DAC_SAMPLES_PER_PERIOD);
 934:C:\Users\Depes Crystalline\Desktop\school\Active_Bike_Lighting_System\Radar_Core\Libraries\XMCLib\inc\xmc_dac.h **** }
 935:C:\Users\Depes Crystalline\Desktop\school\Active_Bike_Lighting_System\Radar_Core\Libraries\XMCLib\inc\xmc_dac.h **** 
 936:C:\Users\Depes Crystalline\Desktop\school\Active_Bike_Lighting_System\Radar_Core\Libraries\XMCLib\inc\xmc_dac.h **** /**
 937:C:\Users\Depes Crystalline\Desktop\school\Active_Bike_Lighting_System\Radar_Core\Libraries\XMCLib\inc\xmc_dac.h ****  * @param dac Pointer to an instance of DAC module
 938:C:\Users\Depes Crystalline\Desktop\school\Active_Bike_Lighting_System\Radar_Core\Libraries\XMCLib\inc\xmc_dac.h ****  * @param channel DAC channel number
 939:C:\Users\Depes Crystalline\Desktop\school\Active_Bike_Lighting_System\Radar_Core\Libraries\XMCLib\inc\xmc_dac.h ****  * @param mode DAC operation mode
 940:C:\Users\Depes Crystalline\Desktop\school\Active_Bike_Lighting_System\Radar_Core\Libraries\XMCLib\inc\xmc_dac.h ****  *
 941:C:\Users\Depes Crystalline\Desktop\school\Active_Bike_Lighting_System\Radar_Core\Libraries\XMCLib\inc\xmc_dac.h ****  * @return None
 942:C:\Users\Depes Crystalline\Desktop\school\Active_Bike_Lighting_System\Radar_Core\Libraries\XMCLib\inc\xmc_dac.h ****  *
 943:C:\Users\Depes Crystalline\Desktop\school\Active_Bike_Lighting_System\Radar_Core\Libraries\XMCLib\inc\xmc_dac.h ****  * \par<b>Description:</b><br>
 944:C:\Users\Depes Crystalline\Desktop\school\Active_Bike_Lighting_System\Radar_Core\Libraries\XMCLib\inc\xmc_dac.h ****  * Sets the operating \e mode for the \e channel by setting the \a MODE bit-field of \a DAC0CFG0 re
 945:C:\Users\Depes Crystalline\Desktop\school\Active_Bike_Lighting_System\Radar_Core\Libraries\XMCLib\inc\xmc_dac.h ****  * Different modes of DAC operation are defined by enum XMC_DAC_CH_MODE_t.
 946:C:\Users\Depes Crystalline\Desktop\school\Active_Bike_Lighting_System\Radar_Core\Libraries\XMCLib\inc\xmc_dac.h ****  *
 947:C:\Users\Depes Crystalline\Desktop\school\Active_Bike_Lighting_System\Radar_Core\Libraries\XMCLib\inc\xmc_dac.h ****  */
 948:C:\Users\Depes Crystalline\Desktop\school\Active_Bike_Lighting_System\Radar_Core\Libraries\XMCLib\inc\xmc_dac.h **** __STATIC_INLINE void XMC_DAC_CH_SetMode(XMC_DAC_t *const dac, const uint8_t channel, const XMC_DAC_
 949:C:\Users\Depes Crystalline\Desktop\school\Active_Bike_Lighting_System\Radar_Core\Libraries\XMCLib\inc\xmc_dac.h **** {
 286              	 .loc 1 949 0
 287              	 .cfi_startproc
 288              	 
 289              	 
 290              	 
 291 0000 80B4     	 push {r7}
 292              	.LCFI30:
 293              	 .cfi_def_cfa_offset 4
 294              	 .cfi_offset 7,-4
 295 0002 85B0     	 sub sp,sp,#20
 296              	.LCFI31:
 297              	 .cfi_def_cfa_offset 24
 298 0004 00AF     	 add r7,sp,#0
 299              	.LCFI32:
 300              	 .cfi_def_cfa_register 7
 301 0006 F860     	 str r0,[r7,#12]
 302 0008 0B46     	 mov r3,r1
 303 000a 7A60     	 str r2,[r7,#4]
 304 000c FB72     	 strb r3,[r7,#11]
 950:C:\Users\Depes Crystalline\Desktop\school\Active_Bike_Lighting_System\Radar_Core\Libraries\XMCLib\inc\xmc_dac.h ****   dac->DACCFG[channel].low = (dac->DACCFG[channel].low & ~DAC_DAC0CFG0_MODE_Msk) |
 305              	 .loc 1 950 0
 306 000e F87A     	 ldrb r0,[r7,#11]
 307 0010 FB7A     	 ldrb r3,[r7,#11]
 308 0012 FA68     	 ldr r2,[r7,#12]
 309 0014 DB00     	 lsls r3,r3,#3
 310 0016 1344     	 add r3,r3,r2
 311 0018 5B68     	 ldr r3,[r3,#4]
 312 001a 23F4E002 	 bic r2,r3,#7340032
 313 001e 7B68     	 ldr r3,[r7,#4]
 314 0020 1A43     	 orrs r2,r2,r3
 315 0022 F968     	 ldr r1,[r7,#12]
 316 0024 C300     	 lsls r3,r0,#3
 317 0026 0B44     	 add r3,r3,r1
 318 0028 5A60     	 str r2,[r3,#4]
 951:C:\Users\Depes Crystalline\Desktop\school\Active_Bike_Lighting_System\Radar_Core\Libraries\XMCLib\inc\xmc_dac.h ****                              mode;
 952:C:\Users\Depes Crystalline\Desktop\school\Active_Bike_Lighting_System\Radar_Core\Libraries\XMCLib\inc\xmc_dac.h **** }
 319              	 .loc 1 952 0
 320 002a 1437     	 adds r7,r7,#20
 321              	.LCFI33:
 322              	 .cfi_def_cfa_offset 4
 323 002c BD46     	 mov sp,r7
 324              	.LCFI34:
 325              	 .cfi_def_cfa_register 13
 326              	 
 327 002e 5DF8047B 	 ldr r7,[sp],#4
 328              	.LCFI35:
 329              	 .cfi_restore 7
 330              	 .cfi_def_cfa_offset 0
 331 0032 7047     	 bx lr
 332              	 .cfi_endproc
 333              	.LFE143:
 335              	 .section .text.XMC_DAC_CH_EnableEvent,"ax",%progbits
 336              	 .align 2
 337              	 .thumb
 338              	 .thumb_func
 340              	XMC_DAC_CH_EnableEvent:
 341              	.LFB147:
 953:C:\Users\Depes Crystalline\Desktop\school\Active_Bike_Lighting_System\Radar_Core\Libraries\XMCLib\inc\xmc_dac.h **** 
 954:C:\Users\Depes Crystalline\Desktop\school\Active_Bike_Lighting_System\Radar_Core\Libraries\XMCLib\inc\xmc_dac.h **** /**
 955:C:\Users\Depes Crystalline\Desktop\school\Active_Bike_Lighting_System\Radar_Core\Libraries\XMCLib\inc\xmc_dac.h ****  * @param dac Pointer to an instance of DAC module
 956:C:\Users\Depes Crystalline\Desktop\school\Active_Bike_Lighting_System\Radar_Core\Libraries\XMCLib\inc\xmc_dac.h ****  * @param channel DAC channel number
 957:C:\Users\Depes Crystalline\Desktop\school\Active_Bike_Lighting_System\Radar_Core\Libraries\XMCLib\inc\xmc_dac.h ****  *
 958:C:\Users\Depes Crystalline\Desktop\school\Active_Bike_Lighting_System\Radar_Core\Libraries\XMCLib\inc\xmc_dac.h ****  * @return None
 959:C:\Users\Depes Crystalline\Desktop\school\Active_Bike_Lighting_System\Radar_Core\Libraries\XMCLib\inc\xmc_dac.h ****  *
 960:C:\Users\Depes Crystalline\Desktop\school\Active_Bike_Lighting_System\Radar_Core\Libraries\XMCLib\inc\xmc_dac.h ****  * \par<b>Description:</b><br>
 961:C:\Users\Depes Crystalline\Desktop\school\Active_Bike_Lighting_System\Radar_Core\Libraries\XMCLib\inc\xmc_dac.h ****  * Sets the \e channel's data to signed type by setting \a SIGN bit of \a DAC0CFG0 register (for ch
 962:C:\Users\Depes Crystalline\Desktop\school\Active_Bike_Lighting_System\Radar_Core\Libraries\XMCLib\inc\xmc_dac.h ****  * The data for the conversion would then be treated as signed data type.
 963:C:\Users\Depes Crystalline\Desktop\school\Active_Bike_Lighting_System\Radar_Core\Libraries\XMCLib\inc\xmc_dac.h ****  *
 964:C:\Users\Depes Crystalline\Desktop\school\Active_Bike_Lighting_System\Radar_Core\Libraries\XMCLib\inc\xmc_dac.h ****  * \par<b>Note:</b><br>
 965:C:\Users\Depes Crystalline\Desktop\school\Active_Bike_Lighting_System\Radar_Core\Libraries\XMCLib\inc\xmc_dac.h ****  * Offset and scaling can be applied to the data by calling XMC_DAC_CH_SetOutputOffset(), XMC_DAC_C
 966:C:\Users\Depes Crystalline\Desktop\school\Active_Bike_Lighting_System\Radar_Core\Libraries\XMCLib\inc\xmc_dac.h ****  *
 967:C:\Users\Depes Crystalline\Desktop\school\Active_Bike_Lighting_System\Radar_Core\Libraries\XMCLib\inc\xmc_dac.h ****  * \par<b>Related APIs:</b><BR>
 968:C:\Users\Depes Crystalline\Desktop\school\Active_Bike_Lighting_System\Radar_Core\Libraries\XMCLib\inc\xmc_dac.h ****  * XMC_DAC_CH_SetUnsignedDataType()\n\n\n
 969:C:\Users\Depes Crystalline\Desktop\school\Active_Bike_Lighting_System\Radar_Core\Libraries\XMCLib\inc\xmc_dac.h ****  *
 970:C:\Users\Depes Crystalline\Desktop\school\Active_Bike_Lighting_System\Radar_Core\Libraries\XMCLib\inc\xmc_dac.h ****  */
 971:C:\Users\Depes Crystalline\Desktop\school\Active_Bike_Lighting_System\Radar_Core\Libraries\XMCLib\inc\xmc_dac.h **** __STATIC_INLINE void XMC_DAC_CH_SetSignedDataType(XMC_DAC_t *const dac, const uint8_t channel)
 972:C:\Users\Depes Crystalline\Desktop\school\Active_Bike_Lighting_System\Radar_Core\Libraries\XMCLib\inc\xmc_dac.h **** {
 973:C:\Users\Depes Crystalline\Desktop\school\Active_Bike_Lighting_System\Radar_Core\Libraries\XMCLib\inc\xmc_dac.h ****   dac->DACCFG[channel].low |= (DAC_DAC0CFG0_SIGN_Msk);
 974:C:\Users\Depes Crystalline\Desktop\school\Active_Bike_Lighting_System\Radar_Core\Libraries\XMCLib\inc\xmc_dac.h **** }
 975:C:\Users\Depes Crystalline\Desktop\school\Active_Bike_Lighting_System\Radar_Core\Libraries\XMCLib\inc\xmc_dac.h **** 
 976:C:\Users\Depes Crystalline\Desktop\school\Active_Bike_Lighting_System\Radar_Core\Libraries\XMCLib\inc\xmc_dac.h **** /**
 977:C:\Users\Depes Crystalline\Desktop\school\Active_Bike_Lighting_System\Radar_Core\Libraries\XMCLib\inc\xmc_dac.h ****  * @param dac Pointer to an instance of DAC module
 978:C:\Users\Depes Crystalline\Desktop\school\Active_Bike_Lighting_System\Radar_Core\Libraries\XMCLib\inc\xmc_dac.h ****  * @param channel DAC channel number
 979:C:\Users\Depes Crystalline\Desktop\school\Active_Bike_Lighting_System\Radar_Core\Libraries\XMCLib\inc\xmc_dac.h ****  *
 980:C:\Users\Depes Crystalline\Desktop\school\Active_Bike_Lighting_System\Radar_Core\Libraries\XMCLib\inc\xmc_dac.h ****  * @return None
 981:C:\Users\Depes Crystalline\Desktop\school\Active_Bike_Lighting_System\Radar_Core\Libraries\XMCLib\inc\xmc_dac.h ****  *
 982:C:\Users\Depes Crystalline\Desktop\school\Active_Bike_Lighting_System\Radar_Core\Libraries\XMCLib\inc\xmc_dac.h ****  * \par<b>Description:</b><br>
 983:C:\Users\Depes Crystalline\Desktop\school\Active_Bike_Lighting_System\Radar_Core\Libraries\XMCLib\inc\xmc_dac.h ****  * Sets the \e channel's data to unsigned type by clearing \a SIGN bit of \a DAC0CFG0 register (for
 984:C:\Users\Depes Crystalline\Desktop\school\Active_Bike_Lighting_System\Radar_Core\Libraries\XMCLib\inc\xmc_dac.h ****  * The data for the conversion would then be treated as unsigned data type.
 985:C:\Users\Depes Crystalline\Desktop\school\Active_Bike_Lighting_System\Radar_Core\Libraries\XMCLib\inc\xmc_dac.h ****  *
 986:C:\Users\Depes Crystalline\Desktop\school\Active_Bike_Lighting_System\Radar_Core\Libraries\XMCLib\inc\xmc_dac.h ****  * \par<b>Note:</b><br>
 987:C:\Users\Depes Crystalline\Desktop\school\Active_Bike_Lighting_System\Radar_Core\Libraries\XMCLib\inc\xmc_dac.h ****  * Offset and scaling can be applied to the data by calling XMC_DAC_CH_SetOutputOffset(), XMC_DAC_C
 988:C:\Users\Depes Crystalline\Desktop\school\Active_Bike_Lighting_System\Radar_Core\Libraries\XMCLib\inc\xmc_dac.h ****  *
 989:C:\Users\Depes Crystalline\Desktop\school\Active_Bike_Lighting_System\Radar_Core\Libraries\XMCLib\inc\xmc_dac.h ****  * \par<b>Related APIs:</b><BR>
 990:C:\Users\Depes Crystalline\Desktop\school\Active_Bike_Lighting_System\Radar_Core\Libraries\XMCLib\inc\xmc_dac.h ****  * XMC_DAC_CH_SetSignedDataType()\n\n\n
 991:C:\Users\Depes Crystalline\Desktop\school\Active_Bike_Lighting_System\Radar_Core\Libraries\XMCLib\inc\xmc_dac.h ****  *
 992:C:\Users\Depes Crystalline\Desktop\school\Active_Bike_Lighting_System\Radar_Core\Libraries\XMCLib\inc\xmc_dac.h ****  */
 993:C:\Users\Depes Crystalline\Desktop\school\Active_Bike_Lighting_System\Radar_Core\Libraries\XMCLib\inc\xmc_dac.h **** __STATIC_INLINE void XMC_DAC_CH_SetUnsignedDataType(XMC_DAC_t *const dac, const uint8_t channel)
 994:C:\Users\Depes Crystalline\Desktop\school\Active_Bike_Lighting_System\Radar_Core\Libraries\XMCLib\inc\xmc_dac.h **** {
 995:C:\Users\Depes Crystalline\Desktop\school\Active_Bike_Lighting_System\Radar_Core\Libraries\XMCLib\inc\xmc_dac.h ****   dac->DACCFG[channel].low &= ~(DAC_DAC0CFG0_SIGN_Msk);
 996:C:\Users\Depes Crystalline\Desktop\school\Active_Bike_Lighting_System\Radar_Core\Libraries\XMCLib\inc\xmc_dac.h **** }
 997:C:\Users\Depes Crystalline\Desktop\school\Active_Bike_Lighting_System\Radar_Core\Libraries\XMCLib\inc\xmc_dac.h **** 
 998:C:\Users\Depes Crystalline\Desktop\school\Active_Bike_Lighting_System\Radar_Core\Libraries\XMCLib\inc\xmc_dac.h **** /**
 999:C:\Users\Depes Crystalline\Desktop\school\Active_Bike_Lighting_System\Radar_Core\Libraries\XMCLib\inc\xmc_dac.h ****  * @param dac Pointer to an instance of DAC module
1000:C:\Users\Depes Crystalline\Desktop\school\Active_Bike_Lighting_System\Radar_Core\Libraries\XMCLib\inc\xmc_dac.h ****  * @param channel DAC channel number
1001:C:\Users\Depes Crystalline\Desktop\school\Active_Bike_Lighting_System\Radar_Core\Libraries\XMCLib\inc\xmc_dac.h ****  *
1002:C:\Users\Depes Crystalline\Desktop\school\Active_Bike_Lighting_System\Radar_Core\Libraries\XMCLib\inc\xmc_dac.h ****  * @return None
1003:C:\Users\Depes Crystalline\Desktop\school\Active_Bike_Lighting_System\Radar_Core\Libraries\XMCLib\inc\xmc_dac.h ****  *
1004:C:\Users\Depes Crystalline\Desktop\school\Active_Bike_Lighting_System\Radar_Core\Libraries\XMCLib\inc\xmc_dac.h ****  * \par<b>Description:</b><br>
1005:C:\Users\Depes Crystalline\Desktop\school\Active_Bike_Lighting_System\Radar_Core\Libraries\XMCLib\inc\xmc_dac.h ****  * A call to this API generates a trigger pulse by setting \a SWTRIG bit of \a DAC0CFG1 register (f
1006:C:\Users\Depes Crystalline\Desktop\school\Active_Bike_Lighting_System\Radar_Core\Libraries\XMCLib\inc\xmc_dac.h ****  * provided the \a TRIGMOD bit of CFG register is set to \a XMC_DAC_CH_TRIGGER_SOFTWARE.
1007:C:\Users\Depes Crystalline\Desktop\school\Active_Bike_Lighting_System\Radar_Core\Libraries\XMCLib\inc\xmc_dac.h ****  *
1008:C:\Users\Depes Crystalline\Desktop\school\Active_Bike_Lighting_System\Radar_Core\Libraries\XMCLib\inc\xmc_dac.h ****  * \par<b>Note:</b><br>
1009:C:\Users\Depes Crystalline\Desktop\school\Active_Bike_Lighting_System\Radar_Core\Libraries\XMCLib\inc\xmc_dac.h ****  * If the \e channel is set to simultaneous data mode, SWTRIG bit of \e channel 1 is not valid.
1010:C:\Users\Depes Crystalline\Desktop\school\Active_Bike_Lighting_System\Radar_Core\Libraries\XMCLib\inc\xmc_dac.h ****  * Only \a SWTRIG bit of channel 0 is used for channel 1.
1011:C:\Users\Depes Crystalline\Desktop\school\Active_Bike_Lighting_System\Radar_Core\Libraries\XMCLib\inc\xmc_dac.h ****  *
1012:C:\Users\Depes Crystalline\Desktop\school\Active_Bike_Lighting_System\Radar_Core\Libraries\XMCLib\inc\xmc_dac.h ****  * \par<b>Related APIs:</b><BR>
1013:C:\Users\Depes Crystalline\Desktop\school\Active_Bike_Lighting_System\Radar_Core\Libraries\XMCLib\inc\xmc_dac.h ****  * XMC_DAC_CH_SetTrigger(), XMC_DAC_CH_EnableEvent()\n\n\n
1014:C:\Users\Depes Crystalline\Desktop\school\Active_Bike_Lighting_System\Radar_Core\Libraries\XMCLib\inc\xmc_dac.h ****  *
1015:C:\Users\Depes Crystalline\Desktop\school\Active_Bike_Lighting_System\Radar_Core\Libraries\XMCLib\inc\xmc_dac.h ****  */
1016:C:\Users\Depes Crystalline\Desktop\school\Active_Bike_Lighting_System\Radar_Core\Libraries\XMCLib\inc\xmc_dac.h **** __STATIC_INLINE void XMC_DAC_CH_SoftwareTrigger(XMC_DAC_t *const dac, const uint8_t channel)
1017:C:\Users\Depes Crystalline\Desktop\school\Active_Bike_Lighting_System\Radar_Core\Libraries\XMCLib\inc\xmc_dac.h **** {
1018:C:\Users\Depes Crystalline\Desktop\school\Active_Bike_Lighting_System\Radar_Core\Libraries\XMCLib\inc\xmc_dac.h ****   dac->DACCFG[channel].high |= DAC_DAC0CFG1_SWTRIG_Msk;
1019:C:\Users\Depes Crystalline\Desktop\school\Active_Bike_Lighting_System\Radar_Core\Libraries\XMCLib\inc\xmc_dac.h **** }
1020:C:\Users\Depes Crystalline\Desktop\school\Active_Bike_Lighting_System\Radar_Core\Libraries\XMCLib\inc\xmc_dac.h **** 
1021:C:\Users\Depes Crystalline\Desktop\school\Active_Bike_Lighting_System\Radar_Core\Libraries\XMCLib\inc\xmc_dac.h **** /**
1022:C:\Users\Depes Crystalline\Desktop\school\Active_Bike_Lighting_System\Radar_Core\Libraries\XMCLib\inc\xmc_dac.h ****  * @param dac Pointer to an instance of DAC module
1023:C:\Users\Depes Crystalline\Desktop\school\Active_Bike_Lighting_System\Radar_Core\Libraries\XMCLib\inc\xmc_dac.h ****  * @param channel DAC channel number
1024:C:\Users\Depes Crystalline\Desktop\school\Active_Bike_Lighting_System\Radar_Core\Libraries\XMCLib\inc\xmc_dac.h ****  *
1025:C:\Users\Depes Crystalline\Desktop\school\Active_Bike_Lighting_System\Radar_Core\Libraries\XMCLib\inc\xmc_dac.h ****  * @return None
1026:C:\Users\Depes Crystalline\Desktop\school\Active_Bike_Lighting_System\Radar_Core\Libraries\XMCLib\inc\xmc_dac.h ****  *
1027:C:\Users\Depes Crystalline\Desktop\school\Active_Bike_Lighting_System\Radar_Core\Libraries\XMCLib\inc\xmc_dac.h ****  * \par<b>Description:</b><br>
1028:C:\Users\Depes Crystalline\Desktop\school\Active_Bike_Lighting_System\Radar_Core\Libraries\XMCLib\inc\xmc_dac.h ****  * Enables service request by setting \a SREN bit of \a DAC0CFG0 register (for channel 0) / \a DAC1
1029:C:\Users\Depes Crystalline\Desktop\school\Active_Bike_Lighting_System\Radar_Core\Libraries\XMCLib\inc\xmc_dac.h ****  * Trigger signal is generated upon conversion of each data.
1030:C:\Users\Depes Crystalline\Desktop\school\Active_Bike_Lighting_System\Radar_Core\Libraries\XMCLib\inc\xmc_dac.h ****  *
1031:C:\Users\Depes Crystalline\Desktop\school\Active_Bike_Lighting_System\Radar_Core\Libraries\XMCLib\inc\xmc_dac.h ****  * \par<b>Note:</b><br>
1032:C:\Users\Depes Crystalline\Desktop\school\Active_Bike_Lighting_System\Radar_Core\Libraries\XMCLib\inc\xmc_dac.h ****  * The service request signal can be connected to NVIC, DMA.\n
1033:C:\Users\Depes Crystalline\Desktop\school\Active_Bike_Lighting_System\Radar_Core\Libraries\XMCLib\inc\xmc_dac.h ****  *
1034:C:\Users\Depes Crystalline\Desktop\school\Active_Bike_Lighting_System\Radar_Core\Libraries\XMCLib\inc\xmc_dac.h ****  * \par<b>Related APIs:</b><BR>
1035:C:\Users\Depes Crystalline\Desktop\school\Active_Bike_Lighting_System\Radar_Core\Libraries\XMCLib\inc\xmc_dac.h ****  * XMC_DAC_CH_DisableEvent()\n\n\n
1036:C:\Users\Depes Crystalline\Desktop\school\Active_Bike_Lighting_System\Radar_Core\Libraries\XMCLib\inc\xmc_dac.h ****  *
1037:C:\Users\Depes Crystalline\Desktop\school\Active_Bike_Lighting_System\Radar_Core\Libraries\XMCLib\inc\xmc_dac.h ****  */
1038:C:\Users\Depes Crystalline\Desktop\school\Active_Bike_Lighting_System\Radar_Core\Libraries\XMCLib\inc\xmc_dac.h **** __STATIC_INLINE void XMC_DAC_CH_EnableEvent(XMC_DAC_t *const dac, const uint8_t channel)
1039:C:\Users\Depes Crystalline\Desktop\school\Active_Bike_Lighting_System\Radar_Core\Libraries\XMCLib\inc\xmc_dac.h **** {
 342              	 .loc 1 1039 0
 343              	 .cfi_startproc
 344              	 
 345              	 
 346              	 
 347 0000 80B4     	 push {r7}
 348              	.LCFI36:
 349              	 .cfi_def_cfa_offset 4
 350              	 .cfi_offset 7,-4
 351 0002 83B0     	 sub sp,sp,#12
 352              	.LCFI37:
 353              	 .cfi_def_cfa_offset 16
 354 0004 00AF     	 add r7,sp,#0
 355              	.LCFI38:
 356              	 .cfi_def_cfa_register 7
 357 0006 7860     	 str r0,[r7,#4]
 358 0008 0B46     	 mov r3,r1
 359 000a FB70     	 strb r3,[r7,#3]
1040:C:\Users\Depes Crystalline\Desktop\school\Active_Bike_Lighting_System\Radar_Core\Libraries\XMCLib\inc\xmc_dac.h ****   dac->DACCFG[channel].low |= DAC_DAC0CFG0_SREN_Msk;
 360              	 .loc 1 1040 0
 361 000c F878     	 ldrb r0,[r7,#3]
 362 000e FB78     	 ldrb r3,[r7,#3]
 363 0010 7A68     	 ldr r2,[r7,#4]
 364 0012 DB00     	 lsls r3,r3,#3
 365 0014 1344     	 add r3,r3,r2
 366 0016 5B68     	 ldr r3,[r3,#4]
 367 0018 43F08042 	 orr r2,r3,#1073741824
 368 001c 7968     	 ldr r1,[r7,#4]
 369 001e C300     	 lsls r3,r0,#3
 370 0020 0B44     	 add r3,r3,r1
 371 0022 5A60     	 str r2,[r3,#4]
1041:C:\Users\Depes Crystalline\Desktop\school\Active_Bike_Lighting_System\Radar_Core\Libraries\XMCLib\inc\xmc_dac.h **** }
 372              	 .loc 1 1041 0
 373 0024 0C37     	 adds r7,r7,#12
 374              	.LCFI39:
 375              	 .cfi_def_cfa_offset 4
 376 0026 BD46     	 mov sp,r7
 377              	.LCFI40:
 378              	 .cfi_def_cfa_register 13
 379              	 
 380 0028 5DF8047B 	 ldr r7,[sp],#4
 381              	.LCFI41:
 382              	 .cfi_restore 7
 383              	 .cfi_def_cfa_offset 0
 384 002c 7047     	 bx lr
 385              	 .cfi_endproc
 386              	.LFE147:
 388 002e 00BF     	 .section .text.XMC_DAC_CH_SetOutputOffset,"ax",%progbits
 389              	 .align 2
 390              	 .thumb
 391              	 .thumb_func
 393              	XMC_DAC_CH_SetOutputOffset:
 394              	.LFB149:
1042:C:\Users\Depes Crystalline\Desktop\school\Active_Bike_Lighting_System\Radar_Core\Libraries\XMCLib\inc\xmc_dac.h **** 
1043:C:\Users\Depes Crystalline\Desktop\school\Active_Bike_Lighting_System\Radar_Core\Libraries\XMCLib\inc\xmc_dac.h **** /**
1044:C:\Users\Depes Crystalline\Desktop\school\Active_Bike_Lighting_System\Radar_Core\Libraries\XMCLib\inc\xmc_dac.h ****  * @param dac Pointer to an instance of DAC module
1045:C:\Users\Depes Crystalline\Desktop\school\Active_Bike_Lighting_System\Radar_Core\Libraries\XMCLib\inc\xmc_dac.h ****  * @param channel DAC channel number
1046:C:\Users\Depes Crystalline\Desktop\school\Active_Bike_Lighting_System\Radar_Core\Libraries\XMCLib\inc\xmc_dac.h ****  *
1047:C:\Users\Depes Crystalline\Desktop\school\Active_Bike_Lighting_System\Radar_Core\Libraries\XMCLib\inc\xmc_dac.h ****  * @return None
1048:C:\Users\Depes Crystalline\Desktop\school\Active_Bike_Lighting_System\Radar_Core\Libraries\XMCLib\inc\xmc_dac.h ****  *
1049:C:\Users\Depes Crystalline\Desktop\school\Active_Bike_Lighting_System\Radar_Core\Libraries\XMCLib\inc\xmc_dac.h ****  * \par<b>Description:</b><br>
1050:C:\Users\Depes Crystalline\Desktop\school\Active_Bike_Lighting_System\Radar_Core\Libraries\XMCLib\inc\xmc_dac.h ****  * Disables service request by clearing \a SREN bit of \a DAC0CFG0 register (for channel 0) / \a DA
1051:C:\Users\Depes Crystalline\Desktop\school\Active_Bike_Lighting_System\Radar_Core\Libraries\XMCLib\inc\xmc_dac.h ****  *
1052:C:\Users\Depes Crystalline\Desktop\school\Active_Bike_Lighting_System\Radar_Core\Libraries\XMCLib\inc\xmc_dac.h ****  * \par<b>Related APIs:</b><BR>
1053:C:\Users\Depes Crystalline\Desktop\school\Active_Bike_Lighting_System\Radar_Core\Libraries\XMCLib\inc\xmc_dac.h ****  * XMC_DAC_CH_EnableEvent()\n\n\n
1054:C:\Users\Depes Crystalline\Desktop\school\Active_Bike_Lighting_System\Radar_Core\Libraries\XMCLib\inc\xmc_dac.h ****  *
1055:C:\Users\Depes Crystalline\Desktop\school\Active_Bike_Lighting_System\Radar_Core\Libraries\XMCLib\inc\xmc_dac.h ****  */
1056:C:\Users\Depes Crystalline\Desktop\school\Active_Bike_Lighting_System\Radar_Core\Libraries\XMCLib\inc\xmc_dac.h **** __STATIC_INLINE void XMC_DAC_CH_DisableEvent(XMC_DAC_t *const dac, const uint8_t channel)
1057:C:\Users\Depes Crystalline\Desktop\school\Active_Bike_Lighting_System\Radar_Core\Libraries\XMCLib\inc\xmc_dac.h **** {
1058:C:\Users\Depes Crystalline\Desktop\school\Active_Bike_Lighting_System\Radar_Core\Libraries\XMCLib\inc\xmc_dac.h ****   dac->DACCFG[channel].low &= ~DAC_DAC0CFG0_SREN_Msk;
1059:C:\Users\Depes Crystalline\Desktop\school\Active_Bike_Lighting_System\Radar_Core\Libraries\XMCLib\inc\xmc_dac.h **** }
1060:C:\Users\Depes Crystalline\Desktop\school\Active_Bike_Lighting_System\Radar_Core\Libraries\XMCLib\inc\xmc_dac.h **** 
1061:C:\Users\Depes Crystalline\Desktop\school\Active_Bike_Lighting_System\Radar_Core\Libraries\XMCLib\inc\xmc_dac.h **** /**
1062:C:\Users\Depes Crystalline\Desktop\school\Active_Bike_Lighting_System\Radar_Core\Libraries\XMCLib\inc\xmc_dac.h ****  * @param dac Pointer to an instance of DAC module
1063:C:\Users\Depes Crystalline\Desktop\school\Active_Bike_Lighting_System\Radar_Core\Libraries\XMCLib\inc\xmc_dac.h ****  * @param channel DAC channel number
1064:C:\Users\Depes Crystalline\Desktop\school\Active_Bike_Lighting_System\Radar_Core\Libraries\XMCLib\inc\xmc_dac.h ****  * @param offset
1065:C:\Users\Depes Crystalline\Desktop\school\Active_Bike_Lighting_System\Radar_Core\Libraries\XMCLib\inc\xmc_dac.h ****  *
1066:C:\Users\Depes Crystalline\Desktop\school\Active_Bike_Lighting_System\Radar_Core\Libraries\XMCLib\inc\xmc_dac.h ****  * @return None
1067:C:\Users\Depes Crystalline\Desktop\school\Active_Bike_Lighting_System\Radar_Core\Libraries\XMCLib\inc\xmc_dac.h ****  *
1068:C:\Users\Depes Crystalline\Desktop\school\Active_Bike_Lighting_System\Radar_Core\Libraries\XMCLib\inc\xmc_dac.h ****  * \par<b>Description:</b><br>
1069:C:\Users\Depes Crystalline\Desktop\school\Active_Bike_Lighting_System\Radar_Core\Libraries\XMCLib\inc\xmc_dac.h ****  * Sets the offset value.\n
1070:C:\Users\Depes Crystalline\Desktop\school\Active_Bike_Lighting_System\Radar_Core\Libraries\XMCLib\inc\xmc_dac.h ****  * Offset range:0 - 255\n
1071:C:\Users\Depes Crystalline\Desktop\school\Active_Bike_Lighting_System\Radar_Core\Libraries\XMCLib\inc\xmc_dac.h ****  * interpreted as : -128 to 127 (twos complement) in signed mode and 0 to 255 in unsigned mode.
1072:C:\Users\Depes Crystalline\Desktop\school\Active_Bike_Lighting_System\Radar_Core\Libraries\XMCLib\inc\xmc_dac.h ****  *
1073:C:\Users\Depes Crystalline\Desktop\school\Active_Bike_Lighting_System\Radar_Core\Libraries\XMCLib\inc\xmc_dac.h ****  * \par<b>Note:</b><br>
1074:C:\Users\Depes Crystalline\Desktop\school\Active_Bike_Lighting_System\Radar_Core\Libraries\XMCLib\inc\xmc_dac.h ****  * Scaling can be applied to the output data after adding the \e offset value.
1075:C:\Users\Depes Crystalline\Desktop\school\Active_Bike_Lighting_System\Radar_Core\Libraries\XMCLib\inc\xmc_dac.h ****  *
1076:C:\Users\Depes Crystalline\Desktop\school\Active_Bike_Lighting_System\Radar_Core\Libraries\XMCLib\inc\xmc_dac.h ****  * \par
1077:C:\Users\Depes Crystalline\Desktop\school\Active_Bike_Lighting_System\Radar_Core\Libraries\XMCLib\inc\xmc_dac.h ****  * Channel \a channel \a offset value is loaded to the bit-field \a DAC0CFG1 register (for channel 
1078:C:\Users\Depes Crystalline\Desktop\school\Active_Bike_Lighting_System\Radar_Core\Libraries\XMCLib\inc\xmc_dac.h ****  *
1079:C:\Users\Depes Crystalline\Desktop\school\Active_Bike_Lighting_System\Radar_Core\Libraries\XMCLib\inc\xmc_dac.h ****  * \par<b>Related APIs:</b><BR>
1080:C:\Users\Depes Crystalline\Desktop\school\Active_Bike_Lighting_System\Radar_Core\Libraries\XMCLib\inc\xmc_dac.h ****  * XMC_DAC_CH_SetOutputScale()\n\n\n
1081:C:\Users\Depes Crystalline\Desktop\school\Active_Bike_Lighting_System\Radar_Core\Libraries\XMCLib\inc\xmc_dac.h ****  *
1082:C:\Users\Depes Crystalline\Desktop\school\Active_Bike_Lighting_System\Radar_Core\Libraries\XMCLib\inc\xmc_dac.h ****  */
1083:C:\Users\Depes Crystalline\Desktop\school\Active_Bike_Lighting_System\Radar_Core\Libraries\XMCLib\inc\xmc_dac.h **** __STATIC_INLINE void XMC_DAC_CH_SetOutputOffset(XMC_DAC_t *const dac, const uint8_t channel, const 
1084:C:\Users\Depes Crystalline\Desktop\school\Active_Bike_Lighting_System\Radar_Core\Libraries\XMCLib\inc\xmc_dac.h **** {
 395              	 .loc 1 1084 0
 396              	 .cfi_startproc
 397              	 
 398              	 
 399              	 
 400 0000 80B4     	 push {r7}
 401              	.LCFI42:
 402              	 .cfi_def_cfa_offset 4
 403              	 .cfi_offset 7,-4
 404 0002 83B0     	 sub sp,sp,#12
 405              	.LCFI43:
 406              	 .cfi_def_cfa_offset 16
 407 0004 00AF     	 add r7,sp,#0
 408              	.LCFI44:
 409              	 .cfi_def_cfa_register 7
 410 0006 7860     	 str r0,[r7,#4]
 411 0008 0B46     	 mov r3,r1
 412 000a FB70     	 strb r3,[r7,#3]
 413 000c 1346     	 mov r3,r2
 414 000e BB70     	 strb r3,[r7,#2]
1085:C:\Users\Depes Crystalline\Desktop\school\Active_Bike_Lighting_System\Radar_Core\Libraries\XMCLib\inc\xmc_dac.h ****   dac->DACCFG[channel].high = (dac->DACCFG[channel].high & ~DAC_DAC0CFG1_OFFS_Msk) |
 415              	 .loc 1 1085 0
 416 0010 F878     	 ldrb r0,[r7,#3]
 417 0012 FB78     	 ldrb r3,[r7,#3]
 418 0014 7A68     	 ldr r2,[r7,#4]
 419 0016 DB00     	 lsls r3,r3,#3
 420 0018 1344     	 add r3,r3,r2
 421 001a 9B68     	 ldr r3,[r3,#8]
 422 001c 23F47F63 	 bic r3,r3,#4080
1086:C:\Users\Depes Crystalline\Desktop\school\Active_Bike_Lighting_System\Radar_Core\Libraries\XMCLib\inc\xmc_dac.h ****                               offset << DAC_DAC0CFG1_OFFS_Pos;
 423              	 .loc 1 1086 0
 424 0020 BA78     	 ldrb r2,[r7,#2]
 425 0022 1201     	 lsls r2,r2,#4
1085:C:\Users\Depes Crystalline\Desktop\school\Active_Bike_Lighting_System\Radar_Core\Libraries\XMCLib\inc\xmc_dac.h ****   dac->DACCFG[channel].high = (dac->DACCFG[channel].high & ~DAC_DAC0CFG1_OFFS_Msk) |
 426              	 .loc 1 1085 0
 427 0024 1A43     	 orrs r2,r2,r3
 428 0026 7968     	 ldr r1,[r7,#4]
 429 0028 C300     	 lsls r3,r0,#3
 430 002a 0B44     	 add r3,r3,r1
 431 002c 9A60     	 str r2,[r3,#8]
1087:C:\Users\Depes Crystalline\Desktop\school\Active_Bike_Lighting_System\Radar_Core\Libraries\XMCLib\inc\xmc_dac.h **** }
 432              	 .loc 1 1087 0
 433 002e 0C37     	 adds r7,r7,#12
 434              	.LCFI45:
 435              	 .cfi_def_cfa_offset 4
 436 0030 BD46     	 mov sp,r7
 437              	.LCFI46:
 438              	 .cfi_def_cfa_register 13
 439              	 
 440 0032 5DF8047B 	 ldr r7,[sp],#4
 441              	.LCFI47:
 442              	 .cfi_restore 7
 443              	 .cfi_def_cfa_offset 0
 444 0036 7047     	 bx lr
 445              	 .cfi_endproc
 446              	.LFE149:
 448              	 .section .text.XMC_DAC_CH_SetOutputScale,"ax",%progbits
 449              	 .align 2
 450              	 .thumb
 451              	 .thumb_func
 453              	XMC_DAC_CH_SetOutputScale:
 454              	.LFB150:
1088:C:\Users\Depes Crystalline\Desktop\school\Active_Bike_Lighting_System\Radar_Core\Libraries\XMCLib\inc\xmc_dac.h **** 
1089:C:\Users\Depes Crystalline\Desktop\school\Active_Bike_Lighting_System\Radar_Core\Libraries\XMCLib\inc\xmc_dac.h **** /**
1090:C:\Users\Depes Crystalline\Desktop\school\Active_Bike_Lighting_System\Radar_Core\Libraries\XMCLib\inc\xmc_dac.h ****  * @param dac Pointer to an instance of DAC module
1091:C:\Users\Depes Crystalline\Desktop\school\Active_Bike_Lighting_System\Radar_Core\Libraries\XMCLib\inc\xmc_dac.h ****  * @param channel DAC channel number
1092:C:\Users\Depes Crystalline\Desktop\school\Active_Bike_Lighting_System\Radar_Core\Libraries\XMCLib\inc\xmc_dac.h ****  * @param scale Input data scaling
1093:C:\Users\Depes Crystalline\Desktop\school\Active_Bike_Lighting_System\Radar_Core\Libraries\XMCLib\inc\xmc_dac.h ****  *
1094:C:\Users\Depes Crystalline\Desktop\school\Active_Bike_Lighting_System\Radar_Core\Libraries\XMCLib\inc\xmc_dac.h ****  * @return None
1095:C:\Users\Depes Crystalline\Desktop\school\Active_Bike_Lighting_System\Radar_Core\Libraries\XMCLib\inc\xmc_dac.h ****  *
1096:C:\Users\Depes Crystalline\Desktop\school\Active_Bike_Lighting_System\Radar_Core\Libraries\XMCLib\inc\xmc_dac.h ****  * \par<b>Description:</b><br>
1097:C:\Users\Depes Crystalline\Desktop\school\Active_Bike_Lighting_System\Radar_Core\Libraries\XMCLib\inc\xmc_dac.h ****  * Data of the \e channel is scaled.
1098:C:\Users\Depes Crystalline\Desktop\school\Active_Bike_Lighting_System\Radar_Core\Libraries\XMCLib\inc\xmc_dac.h ****  *
1099:C:\Users\Depes Crystalline\Desktop\school\Active_Bike_Lighting_System\Radar_Core\Libraries\XMCLib\inc\xmc_dac.h ****  * \par
1100:C:\Users\Depes Crystalline\Desktop\school\Active_Bike_Lighting_System\Radar_Core\Libraries\XMCLib\inc\xmc_dac.h ****  * The data can either be scaled up-scaled (multiplied), down-scaled (divided) or no scaling (as is
1101:C:\Users\Depes Crystalline\Desktop\school\Active_Bike_Lighting_System\Radar_Core\Libraries\XMCLib\inc\xmc_dac.h ****  * Scaling is configured by setting bit-fields \a MULDIV and \a SCALE of \a DAC0CFG1 register (for 
1102:C:\Users\Depes Crystalline\Desktop\school\Active_Bike_Lighting_System\Radar_Core\Libraries\XMCLib\inc\xmc_dac.h ****  *
1103:C:\Users\Depes Crystalline\Desktop\school\Active_Bike_Lighting_System\Radar_Core\Libraries\XMCLib\inc\xmc_dac.h ****  * \par<b>Related APIs:</b><BR>
1104:C:\Users\Depes Crystalline\Desktop\school\Active_Bike_Lighting_System\Radar_Core\Libraries\XMCLib\inc\xmc_dac.h ****  * XMC_DAC_CH_GetOutputScale()\n\n\n
1105:C:\Users\Depes Crystalline\Desktop\school\Active_Bike_Lighting_System\Radar_Core\Libraries\XMCLib\inc\xmc_dac.h ****  *
1106:C:\Users\Depes Crystalline\Desktop\school\Active_Bike_Lighting_System\Radar_Core\Libraries\XMCLib\inc\xmc_dac.h ****  */
1107:C:\Users\Depes Crystalline\Desktop\school\Active_Bike_Lighting_System\Radar_Core\Libraries\XMCLib\inc\xmc_dac.h **** __STATIC_INLINE void XMC_DAC_CH_SetOutputScale(XMC_DAC_t *const dac, const uint8_t channel, const X
1108:C:\Users\Depes Crystalline\Desktop\school\Active_Bike_Lighting_System\Radar_Core\Libraries\XMCLib\inc\xmc_dac.h **** {
 455              	 .loc 1 1108 0
 456              	 .cfi_startproc
 457              	 
 458              	 
 459              	 
 460 0000 80B4     	 push {r7}
 461              	.LCFI48:
 462              	 .cfi_def_cfa_offset 4
 463              	 .cfi_offset 7,-4
 464 0002 83B0     	 sub sp,sp,#12
 465              	.LCFI49:
 466              	 .cfi_def_cfa_offset 16
 467 0004 00AF     	 add r7,sp,#0
 468              	.LCFI50:
 469              	 .cfi_def_cfa_register 7
 470 0006 7860     	 str r0,[r7,#4]
 471 0008 0B46     	 mov r3,r1
 472 000a FB70     	 strb r3,[r7,#3]
 473 000c 1346     	 mov r3,r2
 474 000e BB70     	 strb r3,[r7,#2]
1109:C:\Users\Depes Crystalline\Desktop\school\Active_Bike_Lighting_System\Radar_Core\Libraries\XMCLib\inc\xmc_dac.h ****   dac->DACCFG[channel].high = (dac->DACCFG[channel].high & ~(DAC_DAC0CFG1_MULDIV_Msk | DAC_DAC0CFG1
 475              	 .loc 1 1109 0
 476 0010 F878     	 ldrb r0,[r7,#3]
 477 0012 FB78     	 ldrb r3,[r7,#3]
 478 0014 7A68     	 ldr r2,[r7,#4]
 479 0016 DB00     	 lsls r3,r3,#3
 480 0018 1344     	 add r3,r3,r2
 481 001a 9B68     	 ldr r3,[r3,#8]
 482 001c 23F00F02 	 bic r2,r3,#15
 483 0020 BB78     	 ldrb r3,[r7,#2]
 484 0022 1A43     	 orrs r2,r2,r3
 485 0024 7968     	 ldr r1,[r7,#4]
 486 0026 C300     	 lsls r3,r0,#3
 487 0028 0B44     	 add r3,r3,r1
 488 002a 9A60     	 str r2,[r3,#8]
1110:C:\Users\Depes Crystalline\Desktop\school\Active_Bike_Lighting_System\Radar_Core\Libraries\XMCLib\inc\xmc_dac.h ****                               scale;
1111:C:\Users\Depes Crystalline\Desktop\school\Active_Bike_Lighting_System\Radar_Core\Libraries\XMCLib\inc\xmc_dac.h **** }
 489              	 .loc 1 1111 0
 490 002c 0C37     	 adds r7,r7,#12
 491              	.LCFI51:
 492              	 .cfi_def_cfa_offset 4
 493 002e BD46     	 mov sp,r7
 494              	.LCFI52:
 495              	 .cfi_def_cfa_register 13
 496              	 
 497 0030 5DF8047B 	 ldr r7,[sp],#4
 498              	.LCFI53:
 499              	 .cfi_restore 7
 500              	 .cfi_def_cfa_offset 0
 501 0034 7047     	 bx lr
 502              	 .cfi_endproc
 503              	.LFE150:
 505 0036 00BF     	 .section .text.XMC_DAC_CH_GetOutputScale,"ax",%progbits
 506              	 .align 2
 507              	 .thumb
 508              	 .thumb_func
 510              	XMC_DAC_CH_GetOutputScale:
 511              	.LFB151:
1112:C:\Users\Depes Crystalline\Desktop\school\Active_Bike_Lighting_System\Radar_Core\Libraries\XMCLib\inc\xmc_dac.h **** 
1113:C:\Users\Depes Crystalline\Desktop\school\Active_Bike_Lighting_System\Radar_Core\Libraries\XMCLib\inc\xmc_dac.h **** /**
1114:C:\Users\Depes Crystalline\Desktop\school\Active_Bike_Lighting_System\Radar_Core\Libraries\XMCLib\inc\xmc_dac.h ****  * @param dac Pointer to an instance of DAC module
1115:C:\Users\Depes Crystalline\Desktop\school\Active_Bike_Lighting_System\Radar_Core\Libraries\XMCLib\inc\xmc_dac.h ****  * @param channel DAC channel number
1116:C:\Users\Depes Crystalline\Desktop\school\Active_Bike_Lighting_System\Radar_Core\Libraries\XMCLib\inc\xmc_dac.h ****  *
1117:C:\Users\Depes Crystalline\Desktop\school\Active_Bike_Lighting_System\Radar_Core\Libraries\XMCLib\inc\xmc_dac.h ****  * @return XMC_DAC_CH_OUTPUT_SCALE_t
1118:C:\Users\Depes Crystalline\Desktop\school\Active_Bike_Lighting_System\Radar_Core\Libraries\XMCLib\inc\xmc_dac.h ****  *
1119:C:\Users\Depes Crystalline\Desktop\school\Active_Bike_Lighting_System\Radar_Core\Libraries\XMCLib\inc\xmc_dac.h ****  * \par<b>Description:</b><br>
1120:C:\Users\Depes Crystalline\Desktop\school\Active_Bike_Lighting_System\Radar_Core\Libraries\XMCLib\inc\xmc_dac.h ****  * Returns scaling information for the data.
1121:C:\Users\Depes Crystalline\Desktop\school\Active_Bike_Lighting_System\Radar_Core\Libraries\XMCLib\inc\xmc_dac.h ****  * The input data could be either up-scaled (multiplied), down-scaled (divided) or without scaling 
1122:C:\Users\Depes Crystalline\Desktop\school\Active_Bike_Lighting_System\Radar_Core\Libraries\XMCLib\inc\xmc_dac.h ****  * Scaling factor is determined by reading bit-fields \a MULDIV and \a SCALE of \a DAC0CFG1 registe
1123:C:\Users\Depes Crystalline\Desktop\school\Active_Bike_Lighting_System\Radar_Core\Libraries\XMCLib\inc\xmc_dac.h ****  *
1124:C:\Users\Depes Crystalline\Desktop\school\Active_Bike_Lighting_System\Radar_Core\Libraries\XMCLib\inc\xmc_dac.h ****  * \par<b>Related APIs:</b><BR>
1125:C:\Users\Depes Crystalline\Desktop\school\Active_Bike_Lighting_System\Radar_Core\Libraries\XMCLib\inc\xmc_dac.h ****  * XMC_DAC_CH_SetOutputScale()\n\n\n
1126:C:\Users\Depes Crystalline\Desktop\school\Active_Bike_Lighting_System\Radar_Core\Libraries\XMCLib\inc\xmc_dac.h ****  *
1127:C:\Users\Depes Crystalline\Desktop\school\Active_Bike_Lighting_System\Radar_Core\Libraries\XMCLib\inc\xmc_dac.h ****  */
1128:C:\Users\Depes Crystalline\Desktop\school\Active_Bike_Lighting_System\Radar_Core\Libraries\XMCLib\inc\xmc_dac.h **** __STATIC_INLINE XMC_DAC_CH_OUTPUT_SCALE_t XMC_DAC_CH_GetOutputScale(XMC_DAC_t *const dac, const uin
1129:C:\Users\Depes Crystalline\Desktop\school\Active_Bike_Lighting_System\Radar_Core\Libraries\XMCLib\inc\xmc_dac.h **** {
 512              	 .loc 1 1129 0
 513              	 .cfi_startproc
 514              	 
 515              	 
 516              	 
 517 0000 80B4     	 push {r7}
 518              	.LCFI54:
 519              	 .cfi_def_cfa_offset 4
 520              	 .cfi_offset 7,-4
 521 0002 83B0     	 sub sp,sp,#12
 522              	.LCFI55:
 523              	 .cfi_def_cfa_offset 16
 524 0004 00AF     	 add r7,sp,#0
 525              	.LCFI56:
 526              	 .cfi_def_cfa_register 7
 527 0006 7860     	 str r0,[r7,#4]
 528 0008 0B46     	 mov r3,r1
 529 000a FB70     	 strb r3,[r7,#3]
1130:C:\Users\Depes Crystalline\Desktop\school\Active_Bike_Lighting_System\Radar_Core\Libraries\XMCLib\inc\xmc_dac.h ****   return (XMC_DAC_CH_OUTPUT_SCALE_t)(dac->DACCFG[channel].high & (DAC_DAC0CFG1_MULDIV_Msk | DAC_DAC
 530              	 .loc 1 1130 0
 531 000c FB78     	 ldrb r3,[r7,#3]
 532 000e 7A68     	 ldr r2,[r7,#4]
 533 0010 DB00     	 lsls r3,r3,#3
 534 0012 1344     	 add r3,r3,r2
 535 0014 9B68     	 ldr r3,[r3,#8]
 536 0016 DBB2     	 uxtb r3,r3
 537 0018 03F00F03 	 and r3,r3,#15
 538 001c DBB2     	 uxtb r3,r3
1131:C:\Users\Depes Crystalline\Desktop\school\Active_Bike_Lighting_System\Radar_Core\Libraries\XMCLib\inc\xmc_dac.h **** }
 539              	 .loc 1 1131 0
 540 001e 1846     	 mov r0,r3
 541 0020 0C37     	 adds r7,r7,#12
 542              	.LCFI57:
 543              	 .cfi_def_cfa_offset 4
 544 0022 BD46     	 mov sp,r7
 545              	.LCFI58:
 546              	 .cfi_def_cfa_register 13
 547              	 
 548 0024 5DF8047B 	 ldr r7,[sp],#4
 549              	.LCFI59:
 550              	 .cfi_restore 7
 551              	 .cfi_def_cfa_offset 0
 552 0028 7047     	 bx lr
 553              	 .cfi_endproc
 554              	.LFE151:
 556 002a 00BF     	 .section .text.XMC_DAC_CH_EnableOutputNegation,"ax",%progbits
 557              	 .align 2
 558              	 .thumb
 559              	 .thumb_func
 561              	XMC_DAC_CH_EnableOutputNegation:
 562              	.LFB152:
1132:C:\Users\Depes Crystalline\Desktop\school\Active_Bike_Lighting_System\Radar_Core\Libraries\XMCLib\inc\xmc_dac.h **** 
1133:C:\Users\Depes Crystalline\Desktop\school\Active_Bike_Lighting_System\Radar_Core\Libraries\XMCLib\inc\xmc_dac.h **** /**
1134:C:\Users\Depes Crystalline\Desktop\school\Active_Bike_Lighting_System\Radar_Core\Libraries\XMCLib\inc\xmc_dac.h ****  * @param dac Pointer to an instance of DAC module
1135:C:\Users\Depes Crystalline\Desktop\school\Active_Bike_Lighting_System\Radar_Core\Libraries\XMCLib\inc\xmc_dac.h ****  * @param channel DAC channel number
1136:C:\Users\Depes Crystalline\Desktop\school\Active_Bike_Lighting_System\Radar_Core\Libraries\XMCLib\inc\xmc_dac.h ****  *
1137:C:\Users\Depes Crystalline\Desktop\school\Active_Bike_Lighting_System\Radar_Core\Libraries\XMCLib\inc\xmc_dac.h ****  * \par<b>Description:</b><br>
1138:C:\Users\Depes Crystalline\Desktop\school\Active_Bike_Lighting_System\Radar_Core\Libraries\XMCLib\inc\xmc_dac.h ****  * Enables output negation.
1139:C:\Users\Depes Crystalline\Desktop\school\Active_Bike_Lighting_System\Radar_Core\Libraries\XMCLib\inc\xmc_dac.h ****  *
1140:C:\Users\Depes Crystalline\Desktop\school\Active_Bike_Lighting_System\Radar_Core\Libraries\XMCLib\inc\xmc_dac.h ****  * \par
1141:C:\Users\Depes Crystalline\Desktop\school\Active_Bike_Lighting_System\Radar_Core\Libraries\XMCLib\inc\xmc_dac.h ****  * By negating the DAC value is converted to its two's complement values.
1142:C:\Users\Depes Crystalline\Desktop\school\Active_Bike_Lighting_System\Radar_Core\Libraries\XMCLib\inc\xmc_dac.h ****  * Can be used in Ramp mode to generate negative ramp.
1143:C:\Users\Depes Crystalline\Desktop\school\Active_Bike_Lighting_System\Radar_Core\Libraries\XMCLib\inc\xmc_dac.h ****  * Negation in enabled by setting \a NEGATE bit of \a DAC0CFG0 register (for channel 0) / \a DAC1CF
1144:C:\Users\Depes Crystalline\Desktop\school\Active_Bike_Lighting_System\Radar_Core\Libraries\XMCLib\inc\xmc_dac.h ****  *
1145:C:\Users\Depes Crystalline\Desktop\school\Active_Bike_Lighting_System\Radar_Core\Libraries\XMCLib\inc\xmc_dac.h ****  * \par<b>Note:</b><br>
1146:C:\Users\Depes Crystalline\Desktop\school\Active_Bike_Lighting_System\Radar_Core\Libraries\XMCLib\inc\xmc_dac.h ****  * Negation feature is applicable only for XMC44 devices. For rest of the devices calling this API 
1147:C:\Users\Depes Crystalline\Desktop\school\Active_Bike_Lighting_System\Radar_Core\Libraries\XMCLib\inc\xmc_dac.h ****  *
1148:C:\Users\Depes Crystalline\Desktop\school\Active_Bike_Lighting_System\Radar_Core\Libraries\XMCLib\inc\xmc_dac.h ****  * \par<b>Related APIs:</b><BR>
1149:C:\Users\Depes Crystalline\Desktop\school\Active_Bike_Lighting_System\Radar_Core\Libraries\XMCLib\inc\xmc_dac.h ****  * XMC_DAC_CH_DisableOutputNegation(), XMC_DAC_CH_StartRampMode()\n\n\n
1150:C:\Users\Depes Crystalline\Desktop\school\Active_Bike_Lighting_System\Radar_Core\Libraries\XMCLib\inc\xmc_dac.h ****  *
1151:C:\Users\Depes Crystalline\Desktop\school\Active_Bike_Lighting_System\Radar_Core\Libraries\XMCLib\inc\xmc_dac.h ****  */
1152:C:\Users\Depes Crystalline\Desktop\school\Active_Bike_Lighting_System\Radar_Core\Libraries\XMCLib\inc\xmc_dac.h **** __STATIC_INLINE void XMC_DAC_CH_EnableOutputNegation(XMC_DAC_t *const dac, const uint8_t channel)
1153:C:\Users\Depes Crystalline\Desktop\school\Active_Bike_Lighting_System\Radar_Core\Libraries\XMCLib\inc\xmc_dac.h **** {
 563              	 .loc 1 1153 0
 564              	 .cfi_startproc
 565              	 
 566              	 
 567              	 
 568 0000 80B4     	 push {r7}
 569              	.LCFI60:
 570              	 .cfi_def_cfa_offset 4
 571              	 .cfi_offset 7,-4
 572 0002 83B0     	 sub sp,sp,#12
 573              	.LCFI61:
 574              	 .cfi_def_cfa_offset 16
 575 0004 00AF     	 add r7,sp,#0
 576              	.LCFI62:
 577              	 .cfi_def_cfa_register 7
 578 0006 7860     	 str r0,[r7,#4]
 579 0008 0B46     	 mov r3,r1
 580 000a FB70     	 strb r3,[r7,#3]
1154:C:\Users\Depes Crystalline\Desktop\school\Active_Bike_Lighting_System\Radar_Core\Libraries\XMCLib\inc\xmc_dac.h ****   dac->DACCFG[channel].low |= XMC_DAC_DACCFG_NEGATE_Msk;
 581              	 .loc 1 1154 0
 582 000c F878     	 ldrb r0,[r7,#3]
 583 000e FB78     	 ldrb r3,[r7,#3]
 584 0010 7A68     	 ldr r2,[r7,#4]
 585 0012 DB00     	 lsls r3,r3,#3
 586 0014 1344     	 add r3,r3,r2
 587 0016 5B68     	 ldr r3,[r3,#4]
 588 0018 43F08052 	 orr r2,r3,#268435456
 589 001c 7968     	 ldr r1,[r7,#4]
 590 001e C300     	 lsls r3,r0,#3
 591 0020 0B44     	 add r3,r3,r1
 592 0022 5A60     	 str r2,[r3,#4]
1155:C:\Users\Depes Crystalline\Desktop\school\Active_Bike_Lighting_System\Radar_Core\Libraries\XMCLib\inc\xmc_dac.h **** }
 593              	 .loc 1 1155 0
 594 0024 0C37     	 adds r7,r7,#12
 595              	.LCFI63:
 596              	 .cfi_def_cfa_offset 4
 597 0026 BD46     	 mov sp,r7
 598              	.LCFI64:
 599              	 .cfi_def_cfa_register 13
 600              	 
 601 0028 5DF8047B 	 ldr r7,[sp],#4
 602              	.LCFI65:
 603              	 .cfi_restore 7
 604              	 .cfi_def_cfa_offset 0
 605 002c 7047     	 bx lr
 606              	 .cfi_endproc
 607              	.LFE152:
 609 002e 00BF     	 .section .text.XMC_DAC_CH_DisableOutputNegation,"ax",%progbits
 610              	 .align 2
 611              	 .thumb
 612              	 .thumb_func
 614              	XMC_DAC_CH_DisableOutputNegation:
 615              	.LFB153:
1156:C:\Users\Depes Crystalline\Desktop\school\Active_Bike_Lighting_System\Radar_Core\Libraries\XMCLib\inc\xmc_dac.h **** 
1157:C:\Users\Depes Crystalline\Desktop\school\Active_Bike_Lighting_System\Radar_Core\Libraries\XMCLib\inc\xmc_dac.h **** /**
1158:C:\Users\Depes Crystalline\Desktop\school\Active_Bike_Lighting_System\Radar_Core\Libraries\XMCLib\inc\xmc_dac.h ****  * @param dac Pointer to an instance of DAC module
1159:C:\Users\Depes Crystalline\Desktop\school\Active_Bike_Lighting_System\Radar_Core\Libraries\XMCLib\inc\xmc_dac.h ****  * @param channel DAC channel number
1160:C:\Users\Depes Crystalline\Desktop\school\Active_Bike_Lighting_System\Radar_Core\Libraries\XMCLib\inc\xmc_dac.h ****  *
1161:C:\Users\Depes Crystalline\Desktop\school\Active_Bike_Lighting_System\Radar_Core\Libraries\XMCLib\inc\xmc_dac.h ****  * \par<b>Description:</b><br>
1162:C:\Users\Depes Crystalline\Desktop\school\Active_Bike_Lighting_System\Radar_Core\Libraries\XMCLib\inc\xmc_dac.h ****  * Disables output negation.
1163:C:\Users\Depes Crystalline\Desktop\school\Active_Bike_Lighting_System\Radar_Core\Libraries\XMCLib\inc\xmc_dac.h ****  *
1164:C:\Users\Depes Crystalline\Desktop\school\Active_Bike_Lighting_System\Radar_Core\Libraries\XMCLib\inc\xmc_dac.h ****  * \par
1165:C:\Users\Depes Crystalline\Desktop\school\Active_Bike_Lighting_System\Radar_Core\Libraries\XMCLib\inc\xmc_dac.h ****  * Negation is disabled by clearing \a NEGATE bit of \a DAC0CFG0 register (for channel 0) / \a DAC1
1166:C:\Users\Depes Crystalline\Desktop\school\Active_Bike_Lighting_System\Radar_Core\Libraries\XMCLib\inc\xmc_dac.h ****  *
1167:C:\Users\Depes Crystalline\Desktop\school\Active_Bike_Lighting_System\Radar_Core\Libraries\XMCLib\inc\xmc_dac.h ****  * \par<b>Note:</b><br>
1168:C:\Users\Depes Crystalline\Desktop\school\Active_Bike_Lighting_System\Radar_Core\Libraries\XMCLib\inc\xmc_dac.h ****  * Negation feature is applicable only for XMC44 devices. For rest of the devices calling this API 
1169:C:\Users\Depes Crystalline\Desktop\school\Active_Bike_Lighting_System\Radar_Core\Libraries\XMCLib\inc\xmc_dac.h ****  *
1170:C:\Users\Depes Crystalline\Desktop\school\Active_Bike_Lighting_System\Radar_Core\Libraries\XMCLib\inc\xmc_dac.h ****  * \par<b>Related APIs:</b><BR>
1171:C:\Users\Depes Crystalline\Desktop\school\Active_Bike_Lighting_System\Radar_Core\Libraries\XMCLib\inc\xmc_dac.h ****  * XMC_DAC_CH_EnableOutputNegation()\n\n\n
1172:C:\Users\Depes Crystalline\Desktop\school\Active_Bike_Lighting_System\Radar_Core\Libraries\XMCLib\inc\xmc_dac.h ****  *
1173:C:\Users\Depes Crystalline\Desktop\school\Active_Bike_Lighting_System\Radar_Core\Libraries\XMCLib\inc\xmc_dac.h ****  */
1174:C:\Users\Depes Crystalline\Desktop\school\Active_Bike_Lighting_System\Radar_Core\Libraries\XMCLib\inc\xmc_dac.h **** __STATIC_INLINE void XMC_DAC_CH_DisableOutputNegation(XMC_DAC_t *const dac, const uint8_t channel)
1175:C:\Users\Depes Crystalline\Desktop\school\Active_Bike_Lighting_System\Radar_Core\Libraries\XMCLib\inc\xmc_dac.h **** {
 616              	 .loc 1 1175 0
 617              	 .cfi_startproc
 618              	 
 619              	 
 620              	 
 621 0000 80B4     	 push {r7}
 622              	.LCFI66:
 623              	 .cfi_def_cfa_offset 4
 624              	 .cfi_offset 7,-4
 625 0002 83B0     	 sub sp,sp,#12
 626              	.LCFI67:
 627              	 .cfi_def_cfa_offset 16
 628 0004 00AF     	 add r7,sp,#0
 629              	.LCFI68:
 630              	 .cfi_def_cfa_register 7
 631 0006 7860     	 str r0,[r7,#4]
 632 0008 0B46     	 mov r3,r1
 633 000a FB70     	 strb r3,[r7,#3]
1176:C:\Users\Depes Crystalline\Desktop\school\Active_Bike_Lighting_System\Radar_Core\Libraries\XMCLib\inc\xmc_dac.h ****   dac->DACCFG[channel].low &= ~XMC_DAC_DACCFG_NEGATE_Msk;
 634              	 .loc 1 1176 0
 635 000c F878     	 ldrb r0,[r7,#3]
 636 000e FB78     	 ldrb r3,[r7,#3]
 637 0010 7A68     	 ldr r2,[r7,#4]
 638 0012 DB00     	 lsls r3,r3,#3
 639 0014 1344     	 add r3,r3,r2
 640 0016 5B68     	 ldr r3,[r3,#4]
 641 0018 23F08052 	 bic r2,r3,#268435456
 642 001c 7968     	 ldr r1,[r7,#4]
 643 001e C300     	 lsls r3,r0,#3
 644 0020 0B44     	 add r3,r3,r1
 645 0022 5A60     	 str r2,[r3,#4]
1177:C:\Users\Depes Crystalline\Desktop\school\Active_Bike_Lighting_System\Radar_Core\Libraries\XMCLib\inc\xmc_dac.h **** }
 646              	 .loc 1 1177 0
 647 0024 0C37     	 adds r7,r7,#12
 648              	.LCFI69:
 649              	 .cfi_def_cfa_offset 4
 650 0026 BD46     	 mov sp,r7
 651              	.LCFI70:
 652              	 .cfi_def_cfa_register 13
 653              	 
 654 0028 5DF8047B 	 ldr r7,[sp],#4
 655              	.LCFI71:
 656              	 .cfi_restore 7
 657              	 .cfi_def_cfa_offset 0
 658 002c 7047     	 bx lr
 659              	 .cfi_endproc
 660              	.LFE153:
 662 002e 00BF     	 .section .text.DAC_Ramp_ScaleUp,"ax",%progbits
 663              	 .align 2
 664              	 .global DAC_Ramp_ScaleUp
 665              	 .thumb
 666              	 .thumb_func
 668              	DAC_Ramp_ScaleUp:
 669              	.LFB188:
 670              	 .file 2 "../Dave/Generated/DAC/dac.c"
   1:../Dave/Generated/DAC/dac.c **** /**
   2:../Dave/Generated/DAC/dac.c ****  * @file dac.c
   3:../Dave/Generated/DAC/dac.c ****  * @date 2015-06-20
   4:../Dave/Generated/DAC/dac.c ****  * This file is generated by DAVE. Any manual modification done to this file will be lost when the 
   5:../Dave/Generated/DAC/dac.c ****  * @cond
   6:../Dave/Generated/DAC/dac.c ****  **************************************************************************************************
   7:../Dave/Generated/DAC/dac.c ****  * DAC v4.0.6 - Generates Pattern, Noise and Ramp waveform. It can be used for single value and dat
   8:../Dave/Generated/DAC/dac.c ****  *
   9:../Dave/Generated/DAC/dac.c ****  * Copyright (c) 2015, Infineon Technologies AG
  10:../Dave/Generated/DAC/dac.c ****  * All rights reserved.
  11:../Dave/Generated/DAC/dac.c ****  *
  12:../Dave/Generated/DAC/dac.c ****  * Redistribution and use in source and binary forms, with or without modification,are permitted pr
  13:../Dave/Generated/DAC/dac.c ****  * following conditions are met:
  14:../Dave/Generated/DAC/dac.c ****  *
  15:../Dave/Generated/DAC/dac.c ****  *   Redistributions of source code must retain the above copyright notice, this list of conditions
  16:../Dave/Generated/DAC/dac.c ****  *   disclaimer.
  17:../Dave/Generated/DAC/dac.c ****  *
  18:../Dave/Generated/DAC/dac.c ****  *   Redistributions in binary form must reproduce the above copyright notice, this list of conditi
  19:../Dave/Generated/DAC/dac.c ****  *   following disclaimer in the documentation and/or other materials provided with the distributio
  20:../Dave/Generated/DAC/dac.c ****  *
  21:../Dave/Generated/DAC/dac.c ****  *   Neither the name of the copyright holders nor the names of its contributors may be used to end
  22:../Dave/Generated/DAC/dac.c ****  *   products derived from this software without specific prior written permission.
  23:../Dave/Generated/DAC/dac.c ****  *
  24:../Dave/Generated/DAC/dac.c ****  * THIS SOFTWARE IS PROVIDED BY THE COPYRIGHT HOLDERS AND CONTRIBUTORS "AS IS" AND ANY EXPRESS OR I
  25:../Dave/Generated/DAC/dac.c ****  * INCLUDING, BUT NOT LIMITED TO, THE IMPLIED WARRANTIES OF MERCHANTABILITY AND FITNESS FOR A PARTI
  26:../Dave/Generated/DAC/dac.c ****  * DISCLAIMED. IN NO EVENT SHALL THE COPYRIGHT HOLDER OR CONTRIBUTORS BE LIABLE  FOR ANY DIRECT, IN
  27:../Dave/Generated/DAC/dac.c ****  * SPECIAL, EXEMPLARY, OR CONSEQUENTIAL DAMAGES (INCLUDING, BUT NOT LIMITED TO, PROCUREMENT OF SUBS
  28:../Dave/Generated/DAC/dac.c ****  * SERVICES; LOSS OF USE, DATA, OR PROFITS; OR BUSINESS INTERRUPTION) HOWEVER CAUSED AND ON ANY THE
  29:../Dave/Generated/DAC/dac.c ****  * WHETHER IN CONTRACT, STRICT LIABILITY,OR TORT (INCLUDING NEGLIGENCE OR OTHERWISE) ARISING IN ANY
  30:../Dave/Generated/DAC/dac.c ****  * USE OF THIS SOFTWARE, EVEN IF ADVISED OF THE POSSIBILITY OF SUCH DAMAGE.
  31:../Dave/Generated/DAC/dac.c ****  *
  32:../Dave/Generated/DAC/dac.c ****  * To improve the quality of the software, users are encouraged to share modifications, enhancement
  33:../Dave/Generated/DAC/dac.c ****  * with Infineon Technologies AG (dave@infineon.com).
  34:../Dave/Generated/DAC/dac.c ****  **************************************************************************************************
  35:../Dave/Generated/DAC/dac.c ****  *
  36:../Dave/Generated/DAC/dac.c ****  * Change History
  37:../Dave/Generated/DAC/dac.c ****  * --------------
  38:../Dave/Generated/DAC/dac.c ****  *
  39:../Dave/Generated/DAC/dac.c ****  * 2015-02-20:
  40:../Dave/Generated/DAC/dac.c ****  *     - Initial version
  41:../Dave/Generated/DAC/dac.c ****  *
  42:../Dave/Generated/DAC/dac.c ****  * 2015-06-20:
  43:../Dave/Generated/DAC/dac.c ****  *     - Single value mode service request option is given only when synchronize with clock option 
  44:../Dave/Generated/DAC/dac.c ****  *
  45:../Dave/Generated/DAC/dac.c ****  * @endcond
  46:../Dave/Generated/DAC/dac.c ****  *
  47:../Dave/Generated/DAC/dac.c ****  */
  48:../Dave/Generated/DAC/dac.c **** /**************************************************************************************************
  49:../Dave/Generated/DAC/dac.c ****  * HEADER FILES
  50:../Dave/Generated/DAC/dac.c ****  **************************************************************************************************
  51:../Dave/Generated/DAC/dac.c **** #include "dac.h"
  52:../Dave/Generated/DAC/dac.c **** 
  53:../Dave/Generated/DAC/dac.c **** /**************************************************************************************************
  54:../Dave/Generated/DAC/dac.c ****  * MACROS
  55:../Dave/Generated/DAC/dac.c ****  **************************************************************************************************
  56:../Dave/Generated/DAC/dac.c **** 
  57:../Dave/Generated/DAC/dac.c **** /**************************************************************************************************
  58:../Dave/Generated/DAC/dac.c ****  * LOCAL DATA
  59:../Dave/Generated/DAC/dac.c ****  **************************************************************************************************
  60:../Dave/Generated/DAC/dac.c **** 
  61:../Dave/Generated/DAC/dac.c **** /**************************************************************************************************
  62:../Dave/Generated/DAC/dac.c ****  * LOCAL ROUTINES
  63:../Dave/Generated/DAC/dac.c ****  **************************************************************************************************
  64:../Dave/Generated/DAC/dac.c **** DAC_STATUS_t DAC_Ramp_ScaleUp(const DAC_t * const HandlePtr,
  65:../Dave/Generated/DAC/dac.c **** uint16_t start_ramp,uint16_t stop_ramp,uint32_t frequency_Hz);
  66:../Dave/Generated/DAC/dac.c **** DAC_STATUS_t DAC_Ramp_ScaleDown(const DAC_t * const HandlePtr,
  67:../Dave/Generated/DAC/dac.c **** uint16_t start_ramp,uint16_t stop_ramp,uint32_t clk_divider);
  68:../Dave/Generated/DAC/dac.c **** void DAC_Ramp_StartStopConfigure(const DAC_t * const HandlePtr,uint16_t start_ramp,uint16_t stop_ra
  69:../Dave/Generated/DAC/dac.c **** /* This API will configure DAC mode depends upon the user configuration */
  70:../Dave/Generated/DAC/dac.c **** XMC_DAC_CH_STATUS_t DAC_ModeConfig(const DAC_t * const HandlePtr);
  71:../Dave/Generated/DAC/dac.c **** 
  72:../Dave/Generated/DAC/dac.c **** /**************************************************************************************************
  73:../Dave/Generated/DAC/dac.c **** * API IMPLEMENTATION
  74:../Dave/Generated/DAC/dac.c **** ***************************************************************************************************
  75:../Dave/Generated/DAC/dac.c **** /*
  76:../Dave/Generated/DAC/dac.c ****  * This API will set Ramp frequency by reducing wave points by scale up operation.
  77:../Dave/Generated/DAC/dac.c **** */
  78:../Dave/Generated/DAC/dac.c **** DAC_STATUS_t DAC_Ramp_ScaleUp(const DAC_t * const HandlePtr,
  79:../Dave/Generated/DAC/dac.c **** uint16_t start_ramp,uint16_t stop_ramp,uint32_t frequency_Hz)
  80:../Dave/Generated/DAC/dac.c **** {
 671              	 .loc 2 80 0
 672              	 .cfi_startproc
 673              	 
 674              	 
 675 0000 80B5     	 push {r7,lr}
 676              	.LCFI72:
 677              	 .cfi_def_cfa_offset 8
 678              	 .cfi_offset 7,-8
 679              	 .cfi_offset 14,-4
 680 0002 8AB0     	 sub sp,sp,#40
 681              	.LCFI73:
 682              	 .cfi_def_cfa_offset 48
 683 0004 00AF     	 add r7,sp,#0
 684              	.LCFI74:
 685              	 .cfi_def_cfa_register 7
 686 0006 F860     	 str r0,[r7,#12]
 687 0008 7B60     	 str r3,[r7,#4]
 688 000a 0B46     	 mov r3,r1
 689 000c 7B81     	 strh r3,[r7,#10]
 690 000e 1346     	 mov r3,r2
 691 0010 3B81     	 strh r3,[r7,#8]
  81:../Dave/Generated/DAC/dac.c ****   DAC_STATUS_t status = DAC_STATUS_SUCCESS;
 692              	 .loc 2 81 0
 693 0012 0023     	 movs r3,#0
 694 0014 87F82730 	 strb r3,[r7,#39]
  82:../Dave/Generated/DAC/dac.c ****   uint8_t shift_count = 0U;
 695              	 .loc 2 82 0
 696 0018 0023     	 movs r3,#0
 697 001a 87F82630 	 strb r3,[r7,#38]
  83:../Dave/Generated/DAC/dac.c ****   uint16_t temp_steps = (uint16_t)((stop_ramp - start_ramp) + 1U);
 698              	 .loc 2 83 0
 699 001e 3A89     	 ldrh r2,[r7,#8]
 700 0020 7B89     	 ldrh r3,[r7,#10]
 701 0022 D31A     	 subs r3,r2,r3
 702 0024 9BB2     	 uxth r3,r3
 703 0026 0133     	 adds r3,r3,#1
 704 0028 BB84     	 strh r3,[r7,#36]
  84:../Dave/Generated/DAC/dac.c ****   uint32_t peripheral_clock_freq_Hz = XMC_SCU_CLOCK_GetPeripheralClockFrequency();
 705              	 .loc 2 84 0
 706 002a FFF7FEFF 	 bl XMC_SCU_CLOCK_GetPeripheralClockFrequency
 707 002e F861     	 str r0,[r7,#28]
  85:../Dave/Generated/DAC/dac.c ****   uint32_t temp_cal_freq = frequency_Hz * temp_steps;
 708              	 .loc 2 85 0
 709 0030 BB8C     	 ldrh r3,[r7,#36]
 710 0032 7A68     	 ldr r2,[r7,#4]
 711 0034 02FB03F3 	 mul r3,r2,r3
 712 0038 3B62     	 str r3,[r7,#32]
  86:../Dave/Generated/DAC/dac.c ****   uint32_t clk_divider;
  87:../Dave/Generated/DAC/dac.c ****   XMC_DAC_CH_OUTPUT_SCALE_t scale = XMC_DAC_CH_OUTPUT_SCALE_NONE;
 713              	 .loc 2 87 0
 714 003a 0023     	 movs r3,#0
 715 003c FB76     	 strb r3,[r7,#27]
  88:../Dave/Generated/DAC/dac.c **** 
  89:../Dave/Generated/DAC/dac.c ****   while((temp_cal_freq > DAC_MAX_FREQUENCY) && (status != DAC_STATUS_API_FAIL))
 716              	 .loc 2 89 0
 717 003e 40E0     	 b .L15
 718              	.L23:
  90:../Dave/Generated/DAC/dac.c ****   {
  91:../Dave/Generated/DAC/dac.c ****     if( DAC_RAMP_MIN_STEPS > temp_steps )
 719              	 .loc 2 91 0
 720 0040 BB8C     	 ldrh r3,[r7,#36]
 721 0042 022B     	 cmp r3,#2
 722 0044 03D8     	 bhi .L16
  92:../Dave/Generated/DAC/dac.c ****     {
  93:../Dave/Generated/DAC/dac.c ****       /* Frequency can't be configured */
  94:../Dave/Generated/DAC/dac.c ****       status = DAC_STATUS_API_FAIL;
 723              	 .loc 2 94 0
 724 0046 0223     	 movs r3,#2
 725 0048 87F82730 	 strb r3,[r7,#39]
 726 004c 39E0     	 b .L15
 727              	.L16:
  95:../Dave/Generated/DAC/dac.c ****     }
  96:../Dave/Generated/DAC/dac.c ****     else
  97:../Dave/Generated/DAC/dac.c ****     {
  98:../Dave/Generated/DAC/dac.c ****       if(shift_count < DAC_MAX_SCALE_SHIFT )
 728              	 .loc 2 98 0
 729 004e 97F82630 	 ldrb r3,[r7,#38]
 730 0052 062B     	 cmp r3,#6
 731 0054 32D8     	 bhi .L17
  99:../Dave/Generated/DAC/dac.c ****       {
 100:../Dave/Generated/DAC/dac.c ****         /* Decrease scaling factor and re-calculate start and stop ramp */
 101:../Dave/Generated/DAC/dac.c ****         stop_ramp = stop_ramp >> 1U;
 732              	 .loc 2 101 0
 733 0056 3B89     	 ldrh r3,[r7,#8]
 734 0058 5B08     	 lsrs r3,r3,#1
 735 005a 3B81     	 strh r3,[r7,#8]
 102:../Dave/Generated/DAC/dac.c ****         start_ramp = start_ramp >> 1U;
 736              	 .loc 2 102 0
 737 005c 7B89     	 ldrh r3,[r7,#10]
 738 005e 5B08     	 lsrs r3,r3,#1
 739 0060 7B81     	 strh r3,[r7,#10]
 103:../Dave/Generated/DAC/dac.c ****         shift_count++;
 740              	 .loc 2 103 0
 741 0062 97F82630 	 ldrb r3,[r7,#38]
 742 0066 0133     	 adds r3,r3,#1
 743 0068 87F82630 	 strb r3,[r7,#38]
 104:../Dave/Generated/DAC/dac.c **** 
 105:../Dave/Generated/DAC/dac.c ****         /* re-calculate clock divider based on change in steps */
 106:../Dave/Generated/DAC/dac.c ****         temp_steps = (uint16_t)((stop_ramp - start_ramp) + 1U);
 744              	 .loc 2 106 0
 745 006c 3A89     	 ldrh r2,[r7,#8]
 746 006e 7B89     	 ldrh r3,[r7,#10]
 747 0070 D31A     	 subs r3,r2,r3
 748 0072 9BB2     	 uxth r3,r3
 749 0074 0133     	 adds r3,r3,#1
 750 0076 BB84     	 strh r3,[r7,#36]
 107:../Dave/Generated/DAC/dac.c ****         if(stop_ramp == start_ramp)
 751              	 .loc 2 107 0
 752 0078 3A89     	 ldrh r2,[r7,#8]
 753 007a 7B89     	 ldrh r3,[r7,#10]
 754 007c 9A42     	 cmp r2,r3
 755 007e 03D1     	 bne .L18
 108:../Dave/Generated/DAC/dac.c ****         {
 109:../Dave/Generated/DAC/dac.c ****           status = DAC_STATUS_API_FAIL;
 756              	 .loc 2 109 0
 757 0080 0223     	 movs r3,#2
 758 0082 87F82730 	 strb r3,[r7,#39]
 759 0086 1CE0     	 b .L15
 760              	.L18:
 110:../Dave/Generated/DAC/dac.c ****         }
 111:../Dave/Generated/DAC/dac.c ****         else
 112:../Dave/Generated/DAC/dac.c ****         {
 113:../Dave/Generated/DAC/dac.c ****           clk_divider = (uint32_t)(peripheral_clock_freq_Hz /
 114:../Dave/Generated/DAC/dac.c ****                                   (temp_steps * frequency_Hz));
 761              	 .loc 2 114 0
 762 0088 BB8C     	 ldrh r3,[r7,#36]
 763 008a 7A68     	 ldr r2,[r7,#4]
 764 008c 02FB03F3 	 mul r3,r2,r3
 113:../Dave/Generated/DAC/dac.c ****                                   (temp_steps * frequency_Hz));
 765              	 .loc 2 113 0
 766 0090 FA69     	 ldr r2,[r7,#28]
 767 0092 B2FBF3F3 	 udiv r3,r2,r3
 768 0096 7B61     	 str r3,[r7,#20]
 115:../Dave/Generated/DAC/dac.c ****           if(clk_divider != 0U)
 769              	 .loc 2 115 0
 770 0098 7B69     	 ldr r3,[r7,#20]
 771 009a 002B     	 cmp r3,#0
 772 009c 05D0     	 beq .L20
 116:../Dave/Generated/DAC/dac.c ****           {
 117:../Dave/Generated/DAC/dac.c ****             temp_cal_freq = (uint32_t)(peripheral_clock_freq_Hz / clk_divider);
 773              	 .loc 2 117 0
 774 009e FA69     	 ldr r2,[r7,#28]
 775 00a0 7B69     	 ldr r3,[r7,#20]
 776 00a2 B2FBF3F3 	 udiv r3,r2,r3
 777 00a6 3B62     	 str r3,[r7,#32]
 778 00a8 01E0     	 b .L21
 779              	.L20:
 118:../Dave/Generated/DAC/dac.c ****           }
 119:../Dave/Generated/DAC/dac.c ****           else
 120:../Dave/Generated/DAC/dac.c ****           {
 121:../Dave/Generated/DAC/dac.c ****             temp_cal_freq = peripheral_clock_freq_Hz;
 780              	 .loc 2 121 0
 781 00aa FB69     	 ldr r3,[r7,#28]
 782 00ac 3B62     	 str r3,[r7,#32]
 783              	.L21:
 122:../Dave/Generated/DAC/dac.c ****           }
 123:../Dave/Generated/DAC/dac.c ****           if(temp_cal_freq < 1U)
 784              	 .loc 2 123 0
 785 00ae 3B6A     	 ldr r3,[r7,#32]
 786 00b0 002B     	 cmp r3,#0
 787 00b2 06D1     	 bne .L15
 124:../Dave/Generated/DAC/dac.c ****           {
 125:../Dave/Generated/DAC/dac.c ****             status = DAC_STATUS_API_FAIL;
 788              	 .loc 2 125 0
 789 00b4 0223     	 movs r3,#2
 790 00b6 87F82730 	 strb r3,[r7,#39]
 791 00ba 02E0     	 b .L15
 792              	.L17:
 126:../Dave/Generated/DAC/dac.c ****           }
 127:../Dave/Generated/DAC/dac.c ****         }
 128:../Dave/Generated/DAC/dac.c ****       }
 129:../Dave/Generated/DAC/dac.c ****       else
 130:../Dave/Generated/DAC/dac.c ****       {
 131:../Dave/Generated/DAC/dac.c ****         /* Frequency Can't be configurable */
 132:../Dave/Generated/DAC/dac.c ****         status = DAC_STATUS_API_FAIL;
 793              	 .loc 2 132 0
 794 00bc 0223     	 movs r3,#2
 795 00be 87F82730 	 strb r3,[r7,#39]
 796              	.L15:
  89:../Dave/Generated/DAC/dac.c ****   {
 797              	 .loc 2 89 0
 798 00c2 3B6A     	 ldr r3,[r7,#32]
 799 00c4 1B4A     	 ldr r2,.L27
 800 00c6 9342     	 cmp r3,r2
 801 00c8 03D9     	 bls .L22
  89:../Dave/Generated/DAC/dac.c ****   {
 802              	 .loc 2 89 0 is_stmt 0 discriminator 1
 803 00ca 97F82730 	 ldrb r3,[r7,#39]
 804 00ce 022B     	 cmp r3,#2
 805 00d0 B6D1     	 bne .L23
 806              	.L22:
 133:../Dave/Generated/DAC/dac.c ****       }
 134:../Dave/Generated/DAC/dac.c ****     }
 135:../Dave/Generated/DAC/dac.c ****   }
 136:../Dave/Generated/DAC/dac.c **** 
 137:../Dave/Generated/DAC/dac.c ****   if(DAC_STATUS_API_FAIL != status)
 807              	 .loc 2 137 0 is_stmt 1
 808 00d2 97F82730 	 ldrb r3,[r7,#39]
 809 00d6 022B     	 cmp r3,#2
 810 00d8 26D0     	 beq .L24
 138:../Dave/Generated/DAC/dac.c ****   {
 139:../Dave/Generated/DAC/dac.c ****     DAC_Ramp_StartStopConfigure(HandlePtr,start_ramp,stop_ramp);
 811              	 .loc 2 139 0
 812 00da 7A89     	 ldrh r2,[r7,#10]
 813 00dc 3B89     	 ldrh r3,[r7,#8]
 814 00de F868     	 ldr r0,[r7,#12]
 815 00e0 1146     	 mov r1,r2
 816 00e2 1A46     	 mov r2,r3
 817 00e4 FFF7FEFF 	 bl DAC_Ramp_StartStopConfigure
 140:../Dave/Generated/DAC/dac.c ****     if(shift_count > 0U)
 818              	 .loc 2 140 0
 819 00e8 97F82630 	 ldrb r3,[r7,#38]
 820 00ec 002B     	 cmp r3,#0
 821 00ee 0ED0     	 beq .L25
 141:../Dave/Generated/DAC/dac.c ****     {
 142:../Dave/Generated/DAC/dac.c ****       /* Scaling required */
 143:../Dave/Generated/DAC/dac.c ****       scale = (XMC_DAC_CH_OUTPUT_SCALE_t)((uint32_t)XMC_DAC_CH_OUTPUT_SCALE_MUL_2 +
 822              	 .loc 2 143 0
 823 00f0 97F82630 	 ldrb r3,[r7,#38]
 824 00f4 0833     	 adds r3,r3,#8
 825 00f6 FB76     	 strb r3,[r7,#27]
 144:../Dave/Generated/DAC/dac.c ****               (shift_count - (uint32_t)1));
 145:../Dave/Generated/DAC/dac.c ****       XMC_DAC_CH_SetOutputScale(HandlePtr->dac_module_ptr, HandlePtr->dac_ch,scale);
 826              	 .loc 2 145 0
 827 00f8 FB68     	 ldr r3,[r7,#12]
 828 00fa 1968     	 ldr r1,[r3]
 829 00fc FB68     	 ldr r3,[r7,#12]
 830 00fe 93F82220 	 ldrb r2,[r3,#34]
 831 0102 FB7E     	 ldrb r3,[r7,#27]
 832 0104 0846     	 mov r0,r1
 833 0106 1146     	 mov r1,r2
 834 0108 1A46     	 mov r2,r3
 835 010a FFF7FEFF 	 bl XMC_DAC_CH_SetOutputScale
 836              	.L25:
 146:../Dave/Generated/DAC/dac.c ****     }
 147:../Dave/Generated/DAC/dac.c ****     status = (DAC_STATUS_t)XMC_DAC_CH_SetFrequency(HandlePtr->dac_module_ptr,
 837              	 .loc 2 147 0
 838 010e FB68     	 ldr r3,[r7,#12]
 839 0110 1A68     	 ldr r2,[r3]
 840 0112 FB68     	 ldr r3,[r7,#12]
 841 0114 93F82230 	 ldrb r3,[r3,#34]
 842 0118 1046     	 mov r0,r2
 843 011a 1946     	 mov r1,r3
 844 011c 3A6A     	 ldr r2,[r7,#32]
 845 011e FFF7FEFF 	 bl XMC_DAC_CH_SetFrequency
 846 0122 0346     	 mov r3,r0
 847 0124 87F82730 	 strb r3,[r7,#39]
 848              	.L24:
 148:../Dave/Generated/DAC/dac.c ****               HandlePtr->dac_ch,temp_cal_freq);
 149:../Dave/Generated/DAC/dac.c ****   }
 150:../Dave/Generated/DAC/dac.c ****   return status;
 849              	 .loc 2 150 0
 850 0128 97F82730 	 ldrb r3,[r7,#39]
 151:../Dave/Generated/DAC/dac.c **** }
 851              	 .loc 2 151 0
 852 012c 1846     	 mov r0,r3
 853 012e 2837     	 adds r7,r7,#40
 854              	.LCFI75:
 855              	 .cfi_def_cfa_offset 8
 856 0130 BD46     	 mov sp,r7
 857              	.LCFI76:
 858              	 .cfi_def_cfa_register 13
 859              	 
 860 0132 80BD     	 pop {r7,pc}
 861              	.L28:
 862              	 .align 2
 863              	.L27:
 864 0134 80841E00 	 .word 2000000
 865              	 .cfi_endproc
 866              	.LFE188:
 868              	 .section .text.DAC_Ramp_ScaleDown,"ax",%progbits
 869              	 .align 2
 870              	 .global DAC_Ramp_ScaleDown
 871              	 .thumb
 872              	 .thumb_func
 874              	DAC_Ramp_ScaleDown:
 875              	.LFB189:
 152:../Dave/Generated/DAC/dac.c **** 
 153:../Dave/Generated/DAC/dac.c **** /*
 154:../Dave/Generated/DAC/dac.c ****  * This API will set Ramp frequency by increasing wave points by scale down operation.
 155:../Dave/Generated/DAC/dac.c **** */
 156:../Dave/Generated/DAC/dac.c **** DAC_STATUS_t DAC_Ramp_ScaleDown(const DAC_t * const HandlePtr,
 157:../Dave/Generated/DAC/dac.c **** uint16_t start_ramp,uint16_t stop_ramp,uint32_t frequency_Hz)
 158:../Dave/Generated/DAC/dac.c **** {
 876              	 .loc 2 158 0
 877              	 .cfi_startproc
 878              	 
 879              	 
 880 0000 80B5     	 push {r7,lr}
 881              	.LCFI77:
 882              	 .cfi_def_cfa_offset 8
 883              	 .cfi_offset 7,-8
 884              	 .cfi_offset 14,-4
 885 0002 8AB0     	 sub sp,sp,#40
 886              	.LCFI78:
 887              	 .cfi_def_cfa_offset 48
 888 0004 00AF     	 add r7,sp,#0
 889              	.LCFI79:
 890              	 .cfi_def_cfa_register 7
 891 0006 F860     	 str r0,[r7,#12]
 892 0008 7B60     	 str r3,[r7,#4]
 893 000a 0B46     	 mov r3,r1
 894 000c 7B81     	 strh r3,[r7,#10]
 895 000e 1346     	 mov r3,r2
 896 0010 3B81     	 strh r3,[r7,#8]
 159:../Dave/Generated/DAC/dac.c ****   DAC_STATUS_t status = DAC_STATUS_SUCCESS;
 897              	 .loc 2 159 0
 898 0012 0023     	 movs r3,#0
 899 0014 87F82730 	 strb r3,[r7,#39]
 160:../Dave/Generated/DAC/dac.c ****   uint8_t shift_count = 0U;
 900              	 .loc 2 160 0
 901 0018 0023     	 movs r3,#0
 902 001a 87F82630 	 strb r3,[r7,#38]
 161:../Dave/Generated/DAC/dac.c ****   uint16_t temp_steps = (uint16_t)((stop_ramp - start_ramp) + 1U);
 903              	 .loc 2 161 0
 904 001e 3A89     	 ldrh r2,[r7,#8]
 905 0020 7B89     	 ldrh r3,[r7,#10]
 906 0022 D31A     	 subs r3,r2,r3
 907 0024 9BB2     	 uxth r3,r3
 908 0026 0133     	 adds r3,r3,#1
 909 0028 BB84     	 strh r3,[r7,#36]
 162:../Dave/Generated/DAC/dac.c ****   uint32_t peripheral_clock_freq_Hz = XMC_SCU_CLOCK_GetPeripheralClockFrequency();
 910              	 .loc 2 162 0
 911 002a FFF7FEFF 	 bl XMC_SCU_CLOCK_GetPeripheralClockFrequency
 912 002e B861     	 str r0,[r7,#24]
 163:../Dave/Generated/DAC/dac.c ****   uint32_t clk_divider = (uint32_t)(peripheral_clock_freq_Hz / (temp_steps * frequency_Hz));
 913              	 .loc 2 163 0
 914 0030 BB8C     	 ldrh r3,[r7,#36]
 915 0032 7A68     	 ldr r2,[r7,#4]
 916 0034 02FB03F3 	 mul r3,r2,r3
 917 0038 BA69     	 ldr r2,[r7,#24]
 918 003a B2FBF3F3 	 udiv r3,r2,r3
 919 003e 3B62     	 str r3,[r7,#32]
 164:../Dave/Generated/DAC/dac.c ****   uint32_t temp_cal_freq = frequency_Hz * temp_steps;
 920              	 .loc 2 164 0
 921 0040 BB8C     	 ldrh r3,[r7,#36]
 922 0042 7A68     	 ldr r2,[r7,#4]
 923 0044 02FB03F3 	 mul r3,r2,r3
 924 0048 FB61     	 str r3,[r7,#28]
 165:../Dave/Generated/DAC/dac.c ****   XMC_DAC_CH_OUTPUT_SCALE_t scale = XMC_DAC_CH_OUTPUT_SCALE_NONE;
 925              	 .loc 2 165 0
 926 004a 0023     	 movs r3,#0
 927 004c FB75     	 strb r3,[r7,#23]
 166:../Dave/Generated/DAC/dac.c **** 
 167:../Dave/Generated/DAC/dac.c ****   while((clk_divider > DAC_MAX_CLK_DIV) && (status != DAC_STATUS_API_FAIL))
 928              	 .loc 2 167 0
 929 004e 49E0     	 b .L30
 930              	.L38:
 168:../Dave/Generated/DAC/dac.c ****   {
 169:../Dave/Generated/DAC/dac.c ****     if( DAC_RAMP_MAX_STEPS < temp_steps )
 931              	 .loc 2 169 0
 932 0050 BB8C     	 ldrh r3,[r7,#36]
 933 0052 B3F5805F 	 cmp r3,#4096
 934 0056 03D3     	 bcc .L31
 170:../Dave/Generated/DAC/dac.c ****     {
 171:../Dave/Generated/DAC/dac.c ****       /* Frequency can't be configured */
 172:../Dave/Generated/DAC/dac.c ****       status = DAC_STATUS_API_FAIL;
 935              	 .loc 2 172 0
 936 0058 0223     	 movs r3,#2
 937 005a 87F82730 	 strb r3,[r7,#39]
 938 005e 41E0     	 b .L30
 939              	.L31:
 173:../Dave/Generated/DAC/dac.c ****     }
 174:../Dave/Generated/DAC/dac.c ****     else
 175:../Dave/Generated/DAC/dac.c ****     {
 176:../Dave/Generated/DAC/dac.c ****       if(shift_count < DAC_MAX_SCALE_SHIFT )
 940              	 .loc 2 176 0
 941 0060 97F82630 	 ldrb r3,[r7,#38]
 942 0064 062B     	 cmp r3,#6
 943 0066 3AD8     	 bhi .L32
 177:../Dave/Generated/DAC/dac.c ****       {
 178:../Dave/Generated/DAC/dac.c ****         /* Increase scaling factor and re-calculate start and stop ramp */
 179:../Dave/Generated/DAC/dac.c ****         stop_ramp = (uint16_t)(stop_ramp << 1U);
 944              	 .loc 2 179 0
 945 0068 3B89     	 ldrh r3,[r7,#8]
 946 006a 5B00     	 lsls r3,r3,#1
 947 006c 3B81     	 strh r3,[r7,#8]
 180:../Dave/Generated/DAC/dac.c ****         start_ramp = (uint16_t)(start_ramp << 1U);
 948              	 .loc 2 180 0
 949 006e 7B89     	 ldrh r3,[r7,#10]
 950 0070 5B00     	 lsls r3,r3,#1
 951 0072 7B81     	 strh r3,[r7,#10]
 181:../Dave/Generated/DAC/dac.c ****         temp_steps = (uint16_t)((stop_ramp - start_ramp) + 1U);
 952              	 .loc 2 181 0
 953 0074 3A89     	 ldrh r2,[r7,#8]
 954 0076 7B89     	 ldrh r3,[r7,#10]
 955 0078 D31A     	 subs r3,r2,r3
 956 007a 9BB2     	 uxth r3,r3
 957 007c 0133     	 adds r3,r3,#1
 958 007e BB84     	 strh r3,[r7,#36]
 182:../Dave/Generated/DAC/dac.c ****         if((stop_ramp <= DAC_RAMP_MAX_STEPS) && (start_ramp <= DAC_RAMP_MAX_STEPS) &&
 959              	 .loc 2 182 0
 960 0080 3B89     	 ldrh r3,[r7,#8]
 961 0082 B3F5805F 	 cmp r3,#4096
 962 0086 26D2     	 bcs .L33
 963              	 .loc 2 182 0 is_stmt 0 discriminator 1
 964 0088 7B89     	 ldrh r3,[r7,#10]
 965 008a B3F5805F 	 cmp r3,#4096
 966 008e 22D2     	 bcs .L33
 967              	 .loc 2 182 0 discriminator 2
 968 0090 3A89     	 ldrh r2,[r7,#8]
 969 0092 7B89     	 ldrh r3,[r7,#10]
 970 0094 9A42     	 cmp r2,r3
 971 0096 1ED0     	 beq .L33
 183:../Dave/Generated/DAC/dac.c ****                                                             (stop_ramp != start_ramp))
 184:../Dave/Generated/DAC/dac.c ****         {
 185:../Dave/Generated/DAC/dac.c ****           shift_count++;
 972              	 .loc 2 185 0 is_stmt 1
 973 0098 97F82630 	 ldrb r3,[r7,#38]
 974 009c 0133     	 adds r3,r3,#1
 975 009e 87F82630 	 strb r3,[r7,#38]
 186:../Dave/Generated/DAC/dac.c ****           /* re-calculate clock divider based on change in steps */
 187:../Dave/Generated/DAC/dac.c ****           clk_divider = (uint32_t)(peripheral_clock_freq_Hz / (temp_steps * frequency_Hz));
 976              	 .loc 2 187 0
 977 00a2 BB8C     	 ldrh r3,[r7,#36]
 978 00a4 7A68     	 ldr r2,[r7,#4]
 979 00a6 02FB03F3 	 mul r3,r2,r3
 980 00aa BA69     	 ldr r2,[r7,#24]
 981 00ac B2FBF3F3 	 udiv r3,r2,r3
 982 00b0 3B62     	 str r3,[r7,#32]
 188:../Dave/Generated/DAC/dac.c ****           if(clk_divider == 0U)
 983              	 .loc 2 188 0
 984 00b2 3B6A     	 ldr r3,[r7,#32]
 985 00b4 002B     	 cmp r3,#0
 986 00b6 01D1     	 bne .L34
 189:../Dave/Generated/DAC/dac.c ****           {
 190:../Dave/Generated/DAC/dac.c ****             clk_divider = 1U;
 987              	 .loc 2 190 0
 988 00b8 0123     	 movs r3,#1
 989 00ba 3B62     	 str r3,[r7,#32]
 990              	.L34:
 191:../Dave/Generated/DAC/dac.c ****           }
 192:../Dave/Generated/DAC/dac.c ****           temp_cal_freq = (uint32_t)(peripheral_clock_freq_Hz / clk_divider);
 991              	 .loc 2 192 0
 992 00bc BA69     	 ldr r2,[r7,#24]
 993 00be 3B6A     	 ldr r3,[r7,#32]
 994 00c0 B2FBF3F3 	 udiv r3,r2,r3
 995 00c4 FB61     	 str r3,[r7,#28]
 193:../Dave/Generated/DAC/dac.c ****           if(temp_cal_freq < 1U)
 996              	 .loc 2 193 0
 997 00c6 FB69     	 ldr r3,[r7,#28]
 998 00c8 002B     	 cmp r3,#0
 999 00ca 03D1     	 bne .L35
 194:../Dave/Generated/DAC/dac.c ****           {
 195:../Dave/Generated/DAC/dac.c ****             status = DAC_STATUS_API_FAIL;
 1000              	 .loc 2 195 0
 1001 00cc 0223     	 movs r3,#2
 1002 00ce 87F82730 	 strb r3,[r7,#39]
 193:../Dave/Generated/DAC/dac.c ****           if(temp_cal_freq < 1U)
 1003              	 .loc 2 193 0
 1004 00d2 03E0     	 b .L36
 1005              	.L35:
 1006 00d4 02E0     	 b .L36
 1007              	.L33:
 196:../Dave/Generated/DAC/dac.c ****           }
 197:../Dave/Generated/DAC/dac.c ****         }
 198:../Dave/Generated/DAC/dac.c ****         else
 199:../Dave/Generated/DAC/dac.c ****         {
 200:../Dave/Generated/DAC/dac.c ****           status = DAC_STATUS_API_FAIL;
 1008              	 .loc 2 200 0
 1009 00d6 0223     	 movs r3,#2
 1010 00d8 87F82730 	 strb r3,[r7,#39]
 1011              	.L36:
 1012 00dc 02E0     	 b .L30
 1013              	.L32:
 201:../Dave/Generated/DAC/dac.c ****         }
 202:../Dave/Generated/DAC/dac.c ****       }
 203:../Dave/Generated/DAC/dac.c ****       else
 204:../Dave/Generated/DAC/dac.c ****       {
 205:../Dave/Generated/DAC/dac.c ****         /* Frequency Can't be configurable */
 206:../Dave/Generated/DAC/dac.c ****         status = DAC_STATUS_API_FAIL;
 1014              	 .loc 2 206 0
 1015 00de 0223     	 movs r3,#2
 1016 00e0 87F82730 	 strb r3,[r7,#39]
 1017              	.L30:
 167:../Dave/Generated/DAC/dac.c ****   {
 1018              	 .loc 2 167 0
 1019 00e4 3B6A     	 ldr r3,[r7,#32]
 1020 00e6 B3F5801F 	 cmp r3,#1048576
 1021 00ea 03D3     	 bcc .L37
 167:../Dave/Generated/DAC/dac.c ****   {
 1022              	 .loc 2 167 0 is_stmt 0 discriminator 1
 1023 00ec 97F82730 	 ldrb r3,[r7,#39]
 1024 00f0 022B     	 cmp r3,#2
 1025 00f2 ADD1     	 bne .L38
 1026              	.L37:
 207:../Dave/Generated/DAC/dac.c ****       }
 208:../Dave/Generated/DAC/dac.c ****     }
 209:../Dave/Generated/DAC/dac.c ****   }
 210:../Dave/Generated/DAC/dac.c ****     
 211:../Dave/Generated/DAC/dac.c ****   if(DAC_STATUS_API_FAIL != status)
 1027              	 .loc 2 211 0 is_stmt 1
 1028 00f4 97F82730 	 ldrb r3,[r7,#39]
 1029 00f8 022B     	 cmp r3,#2
 1030 00fa 25D0     	 beq .L39
 212:../Dave/Generated/DAC/dac.c ****   {
 213:../Dave/Generated/DAC/dac.c ****     DAC_Ramp_StartStopConfigure(HandlePtr,start_ramp,stop_ramp);
 1031              	 .loc 2 213 0
 1032 00fc 7A89     	 ldrh r2,[r7,#10]
 1033 00fe 3B89     	 ldrh r3,[r7,#8]
 1034 0100 F868     	 ldr r0,[r7,#12]
 1035 0102 1146     	 mov r1,r2
 1036 0104 1A46     	 mov r2,r3
 1037 0106 FFF7FEFF 	 bl DAC_Ramp_StartStopConfigure
 214:../Dave/Generated/DAC/dac.c ****     if(shift_count > 0U)
 1038              	 .loc 2 214 0
 1039 010a 97F82630 	 ldrb r3,[r7,#38]
 1040 010e 002B     	 cmp r3,#0
 1041 0110 0DD0     	 beq .L40
 215:../Dave/Generated/DAC/dac.c ****     {
 216:../Dave/Generated/DAC/dac.c ****       /* Scaling required */
 217:../Dave/Generated/DAC/dac.c ****       scale = (XMC_DAC_CH_OUTPUT_SCALE_t)((uint32_t)XMC_DAC_CH_OUTPUT_SCALE_DIV_2 +
 1042              	 .loc 2 217 0
 1043 0112 97F82630 	 ldrb r3,[r7,#38]
 1044 0116 FB75     	 strb r3,[r7,#23]
 218:../Dave/Generated/DAC/dac.c ****                                                         (shift_count - (uint32_t)1));
 219:../Dave/Generated/DAC/dac.c ****       XMC_DAC_CH_SetOutputScale(HandlePtr->dac_module_ptr, HandlePtr->dac_ch,scale);
 1045              	 .loc 2 219 0
 1046 0118 FB68     	 ldr r3,[r7,#12]
 1047 011a 1968     	 ldr r1,[r3]
 1048 011c FB68     	 ldr r3,[r7,#12]
 1049 011e 93F82220 	 ldrb r2,[r3,#34]
 1050 0122 FB7D     	 ldrb r3,[r7,#23]
 1051 0124 0846     	 mov r0,r1
 1052 0126 1146     	 mov r1,r2
 1053 0128 1A46     	 mov r2,r3
 1054 012a FFF7FEFF 	 bl XMC_DAC_CH_SetOutputScale
 1055              	.L40:
 220:../Dave/Generated/DAC/dac.c ****     }
 221:../Dave/Generated/DAC/dac.c ****     status = (DAC_STATUS_t)XMC_DAC_CH_SetFrequency(HandlePtr->dac_module_ptr,
 1056              	 .loc 2 221 0
 1057 012e FB68     	 ldr r3,[r7,#12]
 1058 0130 1A68     	 ldr r2,[r3]
 1059 0132 FB68     	 ldr r3,[r7,#12]
 1060 0134 93F82230 	 ldrb r3,[r3,#34]
 1061 0138 1046     	 mov r0,r2
 1062 013a 1946     	 mov r1,r3
 1063 013c FA69     	 ldr r2,[r7,#28]
 1064 013e FFF7FEFF 	 bl XMC_DAC_CH_SetFrequency
 1065 0142 0346     	 mov r3,r0
 1066 0144 87F82730 	 strb r3,[r7,#39]
 1067              	.L39:
 222:../Dave/Generated/DAC/dac.c ****                                                    HandlePtr->dac_ch,temp_cal_freq);
 223:../Dave/Generated/DAC/dac.c ****   }
 224:../Dave/Generated/DAC/dac.c ****   return status;
 1068              	 .loc 2 224 0
 1069 0148 97F82730 	 ldrb r3,[r7,#39]
 225:../Dave/Generated/DAC/dac.c **** }
 1070              	 .loc 2 225 0
 1071 014c 1846     	 mov r0,r3
 1072 014e 2837     	 adds r7,r7,#40
 1073              	.LCFI80:
 1074              	 .cfi_def_cfa_offset 8
 1075 0150 BD46     	 mov sp,r7
 1076              	.LCFI81:
 1077              	 .cfi_def_cfa_register 13
 1078              	 
 1079 0152 80BD     	 pop {r7,pc}
 1080              	 .cfi_endproc
 1081              	.LFE189:
 1083              	 .section .text.DAC_Ramp_StartStopConfigure,"ax",%progbits
 1084              	 .align 2
 1085              	 .global DAC_Ramp_StartStopConfigure
 1086              	 .thumb
 1087              	 .thumb_func
 1089              	DAC_Ramp_StartStopConfigure:
 1090              	.LFB190:
 226:../Dave/Generated/DAC/dac.c **** 
 227:../Dave/Generated/DAC/dac.c **** /* This API will configure ramp start and stop values */
 228:../Dave/Generated/DAC/dac.c **** void DAC_Ramp_StartStopConfigure(const DAC_t * const HandlePtr,uint16_t start_ramp,uint16_t stop_ra
 229:../Dave/Generated/DAC/dac.c **** {
 1091              	 .loc 2 229 0
 1092              	 .cfi_startproc
 1093              	 
 1094              	 
 1095 0000 80B5     	 push {r7,lr}
 1096              	.LCFI82:
 1097              	 .cfi_def_cfa_offset 8
 1098              	 .cfi_offset 7,-8
 1099              	 .cfi_offset 14,-4
 1100 0002 84B0     	 sub sp,sp,#16
 1101              	.LCFI83:
 1102              	 .cfi_def_cfa_offset 24
 1103 0004 00AF     	 add r7,sp,#0
 1104              	.LCFI84:
 1105              	 .cfi_def_cfa_register 7
 1106 0006 7860     	 str r0,[r7,#4]
 1107 0008 0B46     	 mov r3,r1
 1108 000a 7B80     	 strh r3,[r7,#2]
 1109 000c 1346     	 mov r3,r2
 1110 000e 3B80     	 strh r3,[r7]
 230:../Dave/Generated/DAC/dac.c ****   uint16_t temp_start_ramp;
 231:../Dave/Generated/DAC/dac.c ****   if(HandlePtr->dac_ramp_start_mv > HandlePtr->dac_ramp_stop_mv)
 1111              	 .loc 2 231 0
 1112 0010 7B68     	 ldr r3,[r7,#4]
 1113 0012 9A8B     	 ldrh r2,[r3,#28]
 1114 0014 7B68     	 ldr r3,[r7,#4]
 1115 0016 DB8B     	 ldrh r3,[r3,#30]
 1116 0018 9A42     	 cmp r2,r3
 1117 001a 15D9     	 bls .L43
 232:../Dave/Generated/DAC/dac.c ****   {
 233:../Dave/Generated/DAC/dac.c ****     /* Shift start/stop for negative ramp */
 234:../Dave/Generated/DAC/dac.c ****     temp_start_ramp = start_ramp;
 1118              	 .loc 2 234 0
 1119 001c 7B88     	 ldrh r3,[r7,#2]
 1120 001e FB81     	 strh r3,[r7,#14]
 235:../Dave/Generated/DAC/dac.c ****     start_ramp = DAC_RAMP_MAX_STEPS - stop_ramp;
 1121              	 .loc 2 235 0
 1122 0020 3B88     	 ldrh r3,[r7]
 1123 0022 C3F57F63 	 rsb r3,r3,#4080
 1124 0026 0F33     	 adds r3,r3,#15
 1125 0028 7B80     	 strh r3,[r7,#2]
 236:../Dave/Generated/DAC/dac.c ****     stop_ramp  = DAC_RAMP_MAX_STEPS - temp_start_ramp;
 1126              	 .loc 2 236 0
 1127 002a FB89     	 ldrh r3,[r7,#14]
 1128 002c C3F57F63 	 rsb r3,r3,#4080
 1129 0030 0F33     	 adds r3,r3,#15
 1130 0032 3B80     	 strh r3,[r7]
 237:../Dave/Generated/DAC/dac.c ****     XMC_DAC_CH_EnableOutputNegation(HandlePtr->dac_module_ptr,HandlePtr->dac_ch);
 1131              	 .loc 2 237 0
 1132 0034 7B68     	 ldr r3,[r7,#4]
 1133 0036 1A68     	 ldr r2,[r3]
 1134 0038 7B68     	 ldr r3,[r7,#4]
 1135 003a 93F82230 	 ldrb r3,[r3,#34]
 1136 003e 1046     	 mov r0,r2
 1137 0040 1946     	 mov r1,r3
 1138 0042 FFF7FEFF 	 bl XMC_DAC_CH_EnableOutputNegation
 1139 0046 08E0     	 b .L44
 1140              	.L43:
 238:../Dave/Generated/DAC/dac.c ****   }
 239:../Dave/Generated/DAC/dac.c ****   else
 240:../Dave/Generated/DAC/dac.c ****   {
 241:../Dave/Generated/DAC/dac.c ****     XMC_DAC_CH_DisableOutputNegation(HandlePtr->dac_module_ptr,HandlePtr->dac_ch);
 1141              	 .loc 2 241 0
 1142 0048 7B68     	 ldr r3,[r7,#4]
 1143 004a 1A68     	 ldr r2,[r3]
 1144 004c 7B68     	 ldr r3,[r7,#4]
 1145 004e 93F82230 	 ldrb r3,[r3,#34]
 1146 0052 1046     	 mov r0,r2
 1147 0054 1946     	 mov r1,r3
 1148 0056 FFF7FEFF 	 bl XMC_DAC_CH_DisableOutputNegation
 1149              	.L44:
 242:../Dave/Generated/DAC/dac.c ****   }
 243:../Dave/Generated/DAC/dac.c ****   XMC_DAC_CH_SetRampStart(HandlePtr->dac_module_ptr, HandlePtr->dac_ch, start_ramp);
 1150              	 .loc 2 243 0
 1151 005a 7B68     	 ldr r3,[r7,#4]
 1152 005c 1968     	 ldr r1,[r3]
 1153 005e 7B68     	 ldr r3,[r7,#4]
 1154 0060 93F82220 	 ldrb r2,[r3,#34]
 1155 0064 7B88     	 ldrh r3,[r7,#2]
 1156 0066 0846     	 mov r0,r1
 1157 0068 1146     	 mov r1,r2
 1158 006a 1A46     	 mov r2,r3
 1159 006c FFF7FEFF 	 bl XMC_DAC_CH_SetRampStart
 244:../Dave/Generated/DAC/dac.c ****   XMC_DAC_CH_SetRampStop(HandlePtr->dac_module_ptr, HandlePtr->dac_ch, stop_ramp);
 1160              	 .loc 2 244 0
 1161 0070 7B68     	 ldr r3,[r7,#4]
 1162 0072 1968     	 ldr r1,[r3]
 1163 0074 7B68     	 ldr r3,[r7,#4]
 1164 0076 93F82220 	 ldrb r2,[r3,#34]
 1165 007a 3B88     	 ldrh r3,[r7]
 1166 007c 0846     	 mov r0,r1
 1167 007e 1146     	 mov r1,r2
 1168 0080 1A46     	 mov r2,r3
 1169 0082 FFF7FEFF 	 bl XMC_DAC_CH_SetRampStop
 245:../Dave/Generated/DAC/dac.c **** }
 1170              	 .loc 2 245 0
 1171 0086 1037     	 adds r7,r7,#16
 1172              	.LCFI85:
 1173              	 .cfi_def_cfa_offset 8
 1174 0088 BD46     	 mov sp,r7
 1175              	.LCFI86:
 1176              	 .cfi_def_cfa_register 13
 1177              	 
 1178 008a 80BD     	 pop {r7,pc}
 1179              	 .cfi_endproc
 1180              	.LFE190:
 1182              	 .section .text.DAC_ModeConfig,"ax",%progbits
 1183              	 .align 2
 1184              	 .global DAC_ModeConfig
 1185              	 .thumb
 1186              	 .thumb_func
 1188              	DAC_ModeConfig:
 1189              	.LFB191:
 246:../Dave/Generated/DAC/dac.c **** 
 247:../Dave/Generated/DAC/dac.c **** /* This API will configure DAC mode depends upon the user configuration */
 248:../Dave/Generated/DAC/dac.c **** XMC_DAC_CH_STATUS_t DAC_ModeConfig(const DAC_t * const HandlePtr)
 249:../Dave/Generated/DAC/dac.c **** {
 1190              	 .loc 2 249 0
 1191              	 .cfi_startproc
 1192              	 
 1193              	 
 1194 0000 B0B5     	 push {r4,r5,r7,lr}
 1195              	.LCFI87:
 1196              	 .cfi_def_cfa_offset 16
 1197              	 .cfi_offset 4,-16
 1198              	 .cfi_offset 5,-12
 1199              	 .cfi_offset 7,-8
 1200              	 .cfi_offset 14,-4
 1201 0002 86B0     	 sub sp,sp,#24
 1202              	.LCFI88:
 1203              	 .cfi_def_cfa_offset 40
 1204 0004 02AF     	 add r7,sp,#8
 1205              	.LCFI89:
 1206              	 .cfi_def_cfa 7,32
 1207 0006 7860     	 str r0,[r7,#4]
 250:../Dave/Generated/DAC/dac.c ****   XMC_DAC_CH_STATUS_t api_status = XMC_DAC_CH_STATUS_OK;
 1208              	 .loc 2 250 0
 1209 0008 0023     	 movs r3,#0
 1210 000a FB73     	 strb r3,[r7,#15]
 251:../Dave/Generated/DAC/dac.c ****   /* Initialize DAC configuration created by the user */
 252:../Dave/Generated/DAC/dac.c ****   if ( XMC_DAC_CH_MODE_PATTERN == HandlePtr->dac_mode )
 1211              	 .loc 2 252 0
 1212 000c 7B68     	 ldr r3,[r7,#4]
 1213 000e 9B68     	 ldr r3,[r3,#8]
 1214 0010 B3F5401F 	 cmp r3,#3145728
 1215 0014 15D1     	 bne .L46
 253:../Dave/Generated/DAC/dac.c ****   {
 254:../Dave/Generated/DAC/dac.c ****     api_status = XMC_DAC_CH_StartPatternMode(HandlePtr->dac_module_ptr,HandlePtr->dac_ch,
 1216              	 .loc 2 254 0
 1217 0016 7B68     	 ldr r3,[r7,#4]
 1218 0018 1868     	 ldr r0,[r3]
 1219 001a 7B68     	 ldr r3,[r7,#4]
 1220 001c 93F82210 	 ldrb r1,[r3,#34]
 1221 0020 7B68     	 ldr r3,[r7,#4]
 1222 0022 5D6A     	 ldr r5,[r3,#36]
 1223 0024 7B68     	 ldr r3,[r7,#4]
 1224 0026 1C7C     	 ldrb r4,[r3,#16]
 1225 0028 7B68     	 ldr r3,[r7,#4]
 1226 002a DA68     	 ldr r2,[r3,#12]
 1227 002c 7B68     	 ldr r3,[r7,#4]
 1228 002e 5B69     	 ldr r3,[r3,#20]
 1229 0030 0092     	 str r2,[sp]
 1230 0032 0193     	 str r3,[sp,#4]
 1231 0034 2A46     	 mov r2,r5
 1232 0036 2346     	 mov r3,r4
 1233 0038 FFF7FEFF 	 bl XMC_DAC_CH_StartPatternMode
 1234 003c 0346     	 mov r3,r0
 1235 003e FB73     	 strb r3,[r7,#15]
 1236 0040 85E0     	 b .L47
 1237              	.L46:
 255:../Dave/Generated/DAC/dac.c ****     HandlePtr->dac_pat_table_ptr,HandlePtr->dac_sign_output,
 256:../Dave/Generated/DAC/dac.c ****     HandlePtr->dac_input_trigger,HandlePtr->dac_frequency);
 257:../Dave/Generated/DAC/dac.c ****   }
 258:../Dave/Generated/DAC/dac.c ****   else if ( XMC_DAC_CH_MODE_SINGLE == HandlePtr->dac_mode )
 1238              	 .loc 2 258 0
 1239 0042 7B68     	 ldr r3,[r7,#4]
 1240 0044 9B68     	 ldr r3,[r3,#8]
 1241 0046 B3F5801F 	 cmp r3,#1048576
 1242 004a 15D1     	 bne .L48
 259:../Dave/Generated/DAC/dac.c ****   {
 260:../Dave/Generated/DAC/dac.c ****     api_status = XMC_DAC_CH_StartSingleValueMode(HandlePtr->dac_module_ptr,HandlePtr->dac_ch);
 1243              	 .loc 2 260 0
 1244 004c 7B68     	 ldr r3,[r7,#4]
 1245 004e 1A68     	 ldr r2,[r3]
 1246 0050 7B68     	 ldr r3,[r7,#4]
 1247 0052 93F82230 	 ldrb r3,[r3,#34]
 1248 0056 1046     	 mov r0,r2
 1249 0058 1946     	 mov r1,r3
 1250 005a FFF7FEFF 	 bl XMC_DAC_CH_StartSingleValueMode
 1251 005e 0346     	 mov r3,r0
 1252 0060 FB73     	 strb r3,[r7,#15]
 261:../Dave/Generated/DAC/dac.c ****     /*Initialized data register with zero */
 262:../Dave/Generated/DAC/dac.c ****     XMC_DAC_CH_Write(HandlePtr->dac_module_ptr,HandlePtr->dac_ch,0U);
 1253              	 .loc 2 262 0
 1254 0062 7B68     	 ldr r3,[r7,#4]
 1255 0064 1A68     	 ldr r2,[r3]
 1256 0066 7B68     	 ldr r3,[r7,#4]
 1257 0068 93F82230 	 ldrb r3,[r3,#34]
 1258 006c 1046     	 mov r0,r2
 1259 006e 1946     	 mov r1,r3
 1260 0070 0022     	 movs r2,#0
 1261 0072 FFF7FEFF 	 bl XMC_DAC_CH_Write
 1262 0076 6AE0     	 b .L47
 1263              	.L48:
 263:../Dave/Generated/DAC/dac.c ****   }
 264:../Dave/Generated/DAC/dac.c ****   else if ( XMC_DAC_CH_MODE_DATA ==  HandlePtr->dac_mode )
 1264              	 .loc 2 264 0
 1265 0078 7B68     	 ldr r3,[r7,#4]
 1266 007a 9B68     	 ldr r3,[r3,#8]
 1267 007c B3F5001F 	 cmp r3,#2097152
 1268 0080 25D1     	 bne .L49
 265:../Dave/Generated/DAC/dac.c ****   {
 266:../Dave/Generated/DAC/dac.c ****     api_status = XMC_DAC_CH_StartDataMode(HandlePtr->dac_module_ptr,HandlePtr->dac_ch,
 1269              	 .loc 2 266 0
 1270 0082 7B68     	 ldr r3,[r7,#4]
 1271 0084 1868     	 ldr r0,[r3]
 1272 0086 7B68     	 ldr r3,[r7,#4]
 1273 0088 93F82210 	 ldrb r1,[r3,#34]
 1274 008c 7B68     	 ldr r3,[r7,#4]
 1275 008e DA68     	 ldr r2,[r3,#12]
