   1              	 .syntax unified
   2              	 .cpu cortex-m4
   3              	 .fpu softvfp
   4              	 .eabi_attribute 20,1
   5              	 .eabi_attribute 21,1
   6              	 .eabi_attribute 23,3
   7              	 .eabi_attribute 24,1
   8              	 .eabi_attribute 25,1
   9              	 .eabi_attribute 26,1
  10              	 .eabi_attribute 30,6
  11              	 .eabi_attribute 34,1
  12              	 .eabi_attribute 18,4
  13              	 .thumb
  14              	 .file "dac.c"
  15              	 .text
  16              	.Ltext0:
  17              	 .cfi_sections .debug_frame
  18              	 .section .text.XMC_DAC_EnableSimultaneousDataMode,"ax",%progbits
  19              	 .align 2
  20              	 .thumb
  21              	 .thumb_func
  23              	XMC_DAC_EnableSimultaneousDataMode:
  24              	.LFB128:
  25              	 .file 1 "C:\\Users\\Depes Crystalline\\Desktop\\school\\Active_Bike_Lighting_System\\Radar_Core\\Libraries\\XMCLib\\inc/xmc_dac.h"
   1:C:\Users\Depes Crystalline\Desktop\school\Active_Bike_Lighting_System\Radar_Core\Libraries\XMCLib\inc\xmc_dac.h **** /**
   2:C:\Users\Depes Crystalline\Desktop\school\Active_Bike_Lighting_System\Radar_Core\Libraries\XMCLib\inc\xmc_dac.h ****  * @file xmc_dac.h
   3:C:\Users\Depes Crystalline\Desktop\school\Active_Bike_Lighting_System\Radar_Core\Libraries\XMCLib\inc\xmc_dac.h ****  * @date 2015-06-19 
   4:C:\Users\Depes Crystalline\Desktop\school\Active_Bike_Lighting_System\Radar_Core\Libraries\XMCLib\inc\xmc_dac.h ****  *
   5:C:\Users\Depes Crystalline\Desktop\school\Active_Bike_Lighting_System\Radar_Core\Libraries\XMCLib\inc\xmc_dac.h ****  * @cond
   6:C:\Users\Depes Crystalline\Desktop\school\Active_Bike_Lighting_System\Radar_Core\Libraries\XMCLib\inc\xmc_dac.h ****  **********************************************************************************
   7:C:\Users\Depes Crystalline\Desktop\school\Active_Bike_Lighting_System\Radar_Core\Libraries\XMCLib\inc\xmc_dac.h ****  * XMClib v2.0.0 - XMC Peripheral Driver Library
   8:C:\Users\Depes Crystalline\Desktop\school\Active_Bike_Lighting_System\Radar_Core\Libraries\XMCLib\inc\xmc_dac.h ****  *
   9:C:\Users\Depes Crystalline\Desktop\school\Active_Bike_Lighting_System\Radar_Core\Libraries\XMCLib\inc\xmc_dac.h ****  * Copyright (c) 2015, Infineon Technologies AG
  10:C:\Users\Depes Crystalline\Desktop\school\Active_Bike_Lighting_System\Radar_Core\Libraries\XMCLib\inc\xmc_dac.h ****  * All rights reserved.                        
  11:C:\Users\Depes Crystalline\Desktop\school\Active_Bike_Lighting_System\Radar_Core\Libraries\XMCLib\inc\xmc_dac.h ****  *                                             
  12:C:\Users\Depes Crystalline\Desktop\school\Active_Bike_Lighting_System\Radar_Core\Libraries\XMCLib\inc\xmc_dac.h ****  * Redistribution and use in source and binary forms, with or without           
  13:C:\Users\Depes Crystalline\Desktop\school\Active_Bike_Lighting_System\Radar_Core\Libraries\XMCLib\inc\xmc_dac.h ****  * modification,are permitted provided that the following conditions are met:   
  14:C:\Users\Depes Crystalline\Desktop\school\Active_Bike_Lighting_System\Radar_Core\Libraries\XMCLib\inc\xmc_dac.h ****  *                                                                              
  15:C:\Users\Depes Crystalline\Desktop\school\Active_Bike_Lighting_System\Radar_Core\Libraries\XMCLib\inc\xmc_dac.h ****  *   Redistributions of source code must retain the above copyright notice,      
  16:C:\Users\Depes Crystalline\Desktop\school\Active_Bike_Lighting_System\Radar_Core\Libraries\XMCLib\inc\xmc_dac.h ****  *   this list of conditions and the following disclaimer.                        
  17:C:\Users\Depes Crystalline\Desktop\school\Active_Bike_Lighting_System\Radar_Core\Libraries\XMCLib\inc\xmc_dac.h ****  * 
  18:C:\Users\Depes Crystalline\Desktop\school\Active_Bike_Lighting_System\Radar_Core\Libraries\XMCLib\inc\xmc_dac.h ****  *   Redistributions in binary form must reproduce the above copyright notice,   
  19:C:\Users\Depes Crystalline\Desktop\school\Active_Bike_Lighting_System\Radar_Core\Libraries\XMCLib\inc\xmc_dac.h ****  *   this list of conditions and the following disclaimer in the documentation    
  20:C:\Users\Depes Crystalline\Desktop\school\Active_Bike_Lighting_System\Radar_Core\Libraries\XMCLib\inc\xmc_dac.h ****  *   and/or other materials provided with the distribution.                       
  21:C:\Users\Depes Crystalline\Desktop\school\Active_Bike_Lighting_System\Radar_Core\Libraries\XMCLib\inc\xmc_dac.h ****  * 
  22:C:\Users\Depes Crystalline\Desktop\school\Active_Bike_Lighting_System\Radar_Core\Libraries\XMCLib\inc\xmc_dac.h ****  *   Neither the name of the copyright holders nor the names of its contributors 
  23:C:\Users\Depes Crystalline\Desktop\school\Active_Bike_Lighting_System\Radar_Core\Libraries\XMCLib\inc\xmc_dac.h ****  *   may be used to endorse or promote products derived from this software without
  24:C:\Users\Depes Crystalline\Desktop\school\Active_Bike_Lighting_System\Radar_Core\Libraries\XMCLib\inc\xmc_dac.h ****  *   specific prior written permission.                                           
  25:C:\Users\Depes Crystalline\Desktop\school\Active_Bike_Lighting_System\Radar_Core\Libraries\XMCLib\inc\xmc_dac.h ****  *                                                                              
  26:C:\Users\Depes Crystalline\Desktop\school\Active_Bike_Lighting_System\Radar_Core\Libraries\XMCLib\inc\xmc_dac.h ****  * THIS SOFTWARE IS PROVIDED BY THE COPYRIGHT HOLDERS AND CONTRIBUTORS "AS IS"  
  27:C:\Users\Depes Crystalline\Desktop\school\Active_Bike_Lighting_System\Radar_Core\Libraries\XMCLib\inc\xmc_dac.h ****  * AND ANY EXPRESS OR IMPLIED WARRANTIES, INCLUDING, BUT NOT LIMITED TO, THE    
  28:C:\Users\Depes Crystalline\Desktop\school\Active_Bike_Lighting_System\Radar_Core\Libraries\XMCLib\inc\xmc_dac.h ****  * IMPLIED WARRANTIES OF MERCHANTABILITY AND FITNESS FOR A PARTICULAR PURPOSE   
  29:C:\Users\Depes Crystalline\Desktop\school\Active_Bike_Lighting_System\Radar_Core\Libraries\XMCLib\inc\xmc_dac.h ****  * ARE  DISCLAIMED. IN NO EVENT SHALL THE COPYRIGHT HOLDER OR CONTRIBUTORS BE   
  30:C:\Users\Depes Crystalline\Desktop\school\Active_Bike_Lighting_System\Radar_Core\Libraries\XMCLib\inc\xmc_dac.h ****  * LIABLE  FOR ANY DIRECT, INDIRECT, INCIDENTAL, SPECIAL, EXEMPLARY, OR         
  31:C:\Users\Depes Crystalline\Desktop\school\Active_Bike_Lighting_System\Radar_Core\Libraries\XMCLib\inc\xmc_dac.h ****  * CONSEQUENTIAL DAMAGES (INCLUDING, BUT NOT LIMITED TO, PROCUREMENT OF         
  32:C:\Users\Depes Crystalline\Desktop\school\Active_Bike_Lighting_System\Radar_Core\Libraries\XMCLib\inc\xmc_dac.h ****  * SUBSTITUTE GOODS OR  SERVICES; LOSS OF USE, DATA, OR PROFITS; OR BUSINESS    
  33:C:\Users\Depes Crystalline\Desktop\school\Active_Bike_Lighting_System\Radar_Core\Libraries\XMCLib\inc\xmc_dac.h ****  * INTERRUPTION) HOWEVER CAUSED AND ON ANY THEORY OF LIABILITY, WHETHER IN      
  34:C:\Users\Depes Crystalline\Desktop\school\Active_Bike_Lighting_System\Radar_Core\Libraries\XMCLib\inc\xmc_dac.h ****  * CONTRACT, STRICT LIABILITY,OR TORT (INCLUDING NEGLIGENCE OR OTHERWISE)       
  35:C:\Users\Depes Crystalline\Desktop\school\Active_Bike_Lighting_System\Radar_Core\Libraries\XMCLib\inc\xmc_dac.h ****  * ARISING IN ANY WAY OUT OF THE USE OF THIS SOFTWARE, EVEN IF ADVISED OF THE   
  36:C:\Users\Depes Crystalline\Desktop\school\Active_Bike_Lighting_System\Radar_Core\Libraries\XMCLib\inc\xmc_dac.h ****  * POSSIBILITY OF SUCH DAMAGE.                                                  
  37:C:\Users\Depes Crystalline\Desktop\school\Active_Bike_Lighting_System\Radar_Core\Libraries\XMCLib\inc\xmc_dac.h ****  *                                                                              
  38:C:\Users\Depes Crystalline\Desktop\school\Active_Bike_Lighting_System\Radar_Core\Libraries\XMCLib\inc\xmc_dac.h ****  * To improve the quality of the software, users are encouraged to share        
  39:C:\Users\Depes Crystalline\Desktop\school\Active_Bike_Lighting_System\Radar_Core\Libraries\XMCLib\inc\xmc_dac.h ****  * modifications, enhancements or bug fixes with Infineon Technologies AG       
  40:C:\Users\Depes Crystalline\Desktop\school\Active_Bike_Lighting_System\Radar_Core\Libraries\XMCLib\inc\xmc_dac.h ****  * dave@infineon.com).                                                          
  41:C:\Users\Depes Crystalline\Desktop\school\Active_Bike_Lighting_System\Radar_Core\Libraries\XMCLib\inc\xmc_dac.h ****  **********************************************************************************
  42:C:\Users\Depes Crystalline\Desktop\school\Active_Bike_Lighting_System\Radar_Core\Libraries\XMCLib\inc\xmc_dac.h ****  *
  43:C:\Users\Depes Crystalline\Desktop\school\Active_Bike_Lighting_System\Radar_Core\Libraries\XMCLib\inc\xmc_dac.h ****  * Change History
  44:C:\Users\Depes Crystalline\Desktop\school\Active_Bike_Lighting_System\Radar_Core\Libraries\XMCLib\inc\xmc_dac.h ****  * --------------
  45:C:\Users\Depes Crystalline\Desktop\school\Active_Bike_Lighting_System\Radar_Core\Libraries\XMCLib\inc\xmc_dac.h ****  *
  46:C:\Users\Depes Crystalline\Desktop\school\Active_Bike_Lighting_System\Radar_Core\Libraries\XMCLib\inc\xmc_dac.h ****  * 2015-02-18:
  47:C:\Users\Depes Crystalline\Desktop\school\Active_Bike_Lighting_System\Radar_Core\Libraries\XMCLib\inc\xmc_dac.h ****  *     - Initial version
  48:C:\Users\Depes Crystalline\Desktop\school\Active_Bike_Lighting_System\Radar_Core\Libraries\XMCLib\inc\xmc_dac.h ****  *      
  49:C:\Users\Depes Crystalline\Desktop\school\Active_Bike_Lighting_System\Radar_Core\Libraries\XMCLib\inc\xmc_dac.h ****  * 2015-02-20:
  50:C:\Users\Depes Crystalline\Desktop\school\Active_Bike_Lighting_System\Radar_Core\Libraries\XMCLib\inc\xmc_dac.h ****  *     - Driver description added
  51:C:\Users\Depes Crystalline\Desktop\school\Active_Bike_Lighting_System\Radar_Core\Libraries\XMCLib\inc\xmc_dac.h ****  *
  52:C:\Users\Depes Crystalline\Desktop\school\Active_Bike_Lighting_System\Radar_Core\Libraries\XMCLib\inc\xmc_dac.h ****  * 2015-06-19:
  53:C:\Users\Depes Crystalline\Desktop\school\Active_Bike_Lighting_System\Radar_Core\Libraries\XMCLib\inc\xmc_dac.h ****  *     - Removed version macros and declaration of GetDriverVersion API
  54:C:\Users\Depes Crystalline\Desktop\school\Active_Bike_Lighting_System\Radar_Core\Libraries\XMCLib\inc\xmc_dac.h ****  * @endcond 
  55:C:\Users\Depes Crystalline\Desktop\school\Active_Bike_Lighting_System\Radar_Core\Libraries\XMCLib\inc\xmc_dac.h ****  *
  56:C:\Users\Depes Crystalline\Desktop\school\Active_Bike_Lighting_System\Radar_Core\Libraries\XMCLib\inc\xmc_dac.h ****  */
  57:C:\Users\Depes Crystalline\Desktop\school\Active_Bike_Lighting_System\Radar_Core\Libraries\XMCLib\inc\xmc_dac.h **** 
  58:C:\Users\Depes Crystalline\Desktop\school\Active_Bike_Lighting_System\Radar_Core\Libraries\XMCLib\inc\xmc_dac.h **** #ifndef XMC_DAC_H
  59:C:\Users\Depes Crystalline\Desktop\school\Active_Bike_Lighting_System\Radar_Core\Libraries\XMCLib\inc\xmc_dac.h **** #define XMC_DAC_H
  60:C:\Users\Depes Crystalline\Desktop\school\Active_Bike_Lighting_System\Radar_Core\Libraries\XMCLib\inc\xmc_dac.h **** 
  61:C:\Users\Depes Crystalline\Desktop\school\Active_Bike_Lighting_System\Radar_Core\Libraries\XMCLib\inc\xmc_dac.h **** /*******************************************************************************
  62:C:\Users\Depes Crystalline\Desktop\school\Active_Bike_Lighting_System\Radar_Core\Libraries\XMCLib\inc\xmc_dac.h ****  * HEADER FILES
  63:C:\Users\Depes Crystalline\Desktop\school\Active_Bike_Lighting_System\Radar_Core\Libraries\XMCLib\inc\xmc_dac.h ****  *******************************************************************************/
  64:C:\Users\Depes Crystalline\Desktop\school\Active_Bike_Lighting_System\Radar_Core\Libraries\XMCLib\inc\xmc_dac.h **** 
  65:C:\Users\Depes Crystalline\Desktop\school\Active_Bike_Lighting_System\Radar_Core\Libraries\XMCLib\inc\xmc_dac.h **** #include <xmc_common.h>
  66:C:\Users\Depes Crystalline\Desktop\school\Active_Bike_Lighting_System\Radar_Core\Libraries\XMCLib\inc\xmc_dac.h **** 
  67:C:\Users\Depes Crystalline\Desktop\school\Active_Bike_Lighting_System\Radar_Core\Libraries\XMCLib\inc\xmc_dac.h **** /* DAC peripheral is not available on XMC1X devices. */
  68:C:\Users\Depes Crystalline\Desktop\school\Active_Bike_Lighting_System\Radar_Core\Libraries\XMCLib\inc\xmc_dac.h **** #if defined(DAC)
  69:C:\Users\Depes Crystalline\Desktop\school\Active_Bike_Lighting_System\Radar_Core\Libraries\XMCLib\inc\xmc_dac.h **** 
  70:C:\Users\Depes Crystalline\Desktop\school\Active_Bike_Lighting_System\Radar_Core\Libraries\XMCLib\inc\xmc_dac.h **** /**
  71:C:\Users\Depes Crystalline\Desktop\school\Active_Bike_Lighting_System\Radar_Core\Libraries\XMCLib\inc\xmc_dac.h ****  * @addtogroup XMClib
  72:C:\Users\Depes Crystalline\Desktop\school\Active_Bike_Lighting_System\Radar_Core\Libraries\XMCLib\inc\xmc_dac.h ****  * @{
  73:C:\Users\Depes Crystalline\Desktop\school\Active_Bike_Lighting_System\Radar_Core\Libraries\XMCLib\inc\xmc_dac.h ****  */
  74:C:\Users\Depes Crystalline\Desktop\school\Active_Bike_Lighting_System\Radar_Core\Libraries\XMCLib\inc\xmc_dac.h **** 
  75:C:\Users\Depes Crystalline\Desktop\school\Active_Bike_Lighting_System\Radar_Core\Libraries\XMCLib\inc\xmc_dac.h **** /**
  76:C:\Users\Depes Crystalline\Desktop\school\Active_Bike_Lighting_System\Radar_Core\Libraries\XMCLib\inc\xmc_dac.h ****  * @addtogroup DAC
  77:C:\Users\Depes Crystalline\Desktop\school\Active_Bike_Lighting_System\Radar_Core\Libraries\XMCLib\inc\xmc_dac.h ****  * @{
  78:C:\Users\Depes Crystalline\Desktop\school\Active_Bike_Lighting_System\Radar_Core\Libraries\XMCLib\inc\xmc_dac.h ****  *
  79:C:\Users\Depes Crystalline\Desktop\school\Active_Bike_Lighting_System\Radar_Core\Libraries\XMCLib\inc\xmc_dac.h ****  * @brief Digital to Analog Converter (DAC) driver for XMC 4000 microcontroller family. <br>
  80:C:\Users\Depes Crystalline\Desktop\school\Active_Bike_Lighting_System\Radar_Core\Libraries\XMCLib\inc\xmc_dac.h ****  *
  81:C:\Users\Depes Crystalline\Desktop\school\Active_Bike_Lighting_System\Radar_Core\Libraries\XMCLib\inc\xmc_dac.h ****  * DAC driver uses DAC peripheral to convert digital value to analog value. XMC4000 microcontroller
  82:C:\Users\Depes Crystalline\Desktop\school\Active_Bike_Lighting_System\Radar_Core\Libraries\XMCLib\inc\xmc_dac.h ****  * and maximum conversion rate of 2MHz with full accuracy and 5MHz with reduced accuracy.
  83:C:\Users\Depes Crystalline\Desktop\school\Active_Bike_Lighting_System\Radar_Core\Libraries\XMCLib\inc\xmc_dac.h ****  * It consists of inbuilt pattern generator, ramp generator and noise generator modes. Additionally
  84:C:\Users\Depes Crystalline\Desktop\school\Active_Bike_Lighting_System\Radar_Core\Libraries\XMCLib\inc\xmc_dac.h ****  * in single value mode and in data mode.
  85:C:\Users\Depes Crystalline\Desktop\school\Active_Bike_Lighting_System\Radar_Core\Libraries\XMCLib\inc\xmc_dac.h ****  * It has DMA handling capability to generate custom waveforms in data mode without CPU interventio
  86:C:\Users\Depes Crystalline\Desktop\school\Active_Bike_Lighting_System\Radar_Core\Libraries\XMCLib\inc\xmc_dac.h ****  *
  87:C:\Users\Depes Crystalline\Desktop\school\Active_Bike_Lighting_System\Radar_Core\Libraries\XMCLib\inc\xmc_dac.h ****  * DAC driver features:
  88:C:\Users\Depes Crystalline\Desktop\school\Active_Bike_Lighting_System\Radar_Core\Libraries\XMCLib\inc\xmc_dac.h ****  * -#  Configuration structure XMC_DAC_CH_CONFIG_t and initialization function XMC_DAC_CH_Init() to
  89:C:\Users\Depes Crystalline\Desktop\school\Active_Bike_Lighting_System\Radar_Core\Libraries\XMCLib\inc\xmc_dac.h ****  * -#  Pattern Generator Mode:
  90:C:\Users\Depes Crystalline\Desktop\school\Active_Bike_Lighting_System\Radar_Core\Libraries\XMCLib\inc\xmc_dac.h ****  * 	- DAC is configured in pattern generator mode using XMC_DAC_CH_StartPatternMode()
  91:C:\Users\Depes Crystalline\Desktop\school\Active_Bike_Lighting_System\Radar_Core\Libraries\XMCLib\inc\xmc_dac.h ****  * 	- XMC_DAC_CH_SetPattern() is used to set the waveform pattern values in pattern register for on
  92:C:\Users\Depes Crystalline\Desktop\school\Active_Bike_Lighting_System\Radar_Core\Libraries\XMCLib\inc\xmc_dac.h ****  * 	- Allows to change the trigger frequency using XMC_DAC_CH_SetPatternFrequency()
  93:C:\Users\Depes Crystalline\Desktop\school\Active_Bike_Lighting_System\Radar_Core\Libraries\XMCLib\inc\xmc_dac.h ****  * -#  Single Value Mode:
  94:C:\Users\Depes Crystalline\Desktop\school\Active_Bike_Lighting_System\Radar_Core\Libraries\XMCLib\inc\xmc_dac.h ****  * 	- DAC is configured in single value mode using XMC_DAC_CH_StartSingleValueMode()
  95:C:\Users\Depes Crystalline\Desktop\school\Active_Bike_Lighting_System\Radar_Core\Libraries\XMCLib\inc\xmc_dac.h ****  * 	- Allows to change the trigger frequency using XMC_DAC_CH_SetFrequency()
  96:C:\Users\Depes Crystalline\Desktop\school\Active_Bike_Lighting_System\Radar_Core\Libraries\XMCLib\inc\xmc_dac.h ****  * -# Data Mode:
  97:C:\Users\Depes Crystalline\Desktop\school\Active_Bike_Lighting_System\Radar_Core\Libraries\XMCLib\inc\xmc_dac.h ****  * 	- DAC is configured in data mode using XMC_DAC_CH_StartDataMode()
  98:C:\Users\Depes Crystalline\Desktop\school\Active_Bike_Lighting_System\Radar_Core\Libraries\XMCLib\inc\xmc_dac.h ****  * 	- Allows to change the trigger frequency using XMC_DAC_CH_SetFrequency()
  99:C:\Users\Depes Crystalline\Desktop\school\Active_Bike_Lighting_System\Radar_Core\Libraries\XMCLib\inc\xmc_dac.h ****  * -# Ramp Mode:
 100:C:\Users\Depes Crystalline\Desktop\school\Active_Bike_Lighting_System\Radar_Core\Libraries\XMCLib\inc\xmc_dac.h ****  *  - DAC is configured in ramp generator mode using XMC_DAC_CH_StartRampMode()
 101:C:\Users\Depes Crystalline\Desktop\school\Active_Bike_Lighting_System\Radar_Core\Libraries\XMCLib\inc\xmc_dac.h ****  *  - Allows to change the trigger frequency using XMC_DAC_CH_SetRampFrequency()
 102:C:\Users\Depes Crystalline\Desktop\school\Active_Bike_Lighting_System\Radar_Core\Libraries\XMCLib\inc\xmc_dac.h ****  *  - Allows to set the start and stop values of the ramp using XMC_DAC_CH_SetRampStart() and XMC_D
 103:C:\Users\Depes Crystalline\Desktop\school\Active_Bike_Lighting_System\Radar_Core\Libraries\XMCLib\inc\xmc_dac.h ****  * -# Noise Mode:
 104:C:\Users\Depes Crystalline\Desktop\school\Active_Bike_Lighting_System\Radar_Core\Libraries\XMCLib\inc\xmc_dac.h ****  * 	- DAC is configured in noise mode using XMC_DAC_CH_StartNoiseMode()
 105:C:\Users\Depes Crystalline\Desktop\school\Active_Bike_Lighting_System\Radar_Core\Libraries\XMCLib\inc\xmc_dac.h ****  * 	- Allows to change the trigger frequency using XMC_DAC_CH_SetFrequency()
 106:C:\Users\Depes Crystalline\Desktop\school\Active_Bike_Lighting_System\Radar_Core\Libraries\XMCLib\inc\xmc_dac.h ****  * -# Allows to change the scale, offset dynamically using XMC_DAC_CH_SetOutputScale() and XMC_DAC_
 107:C:\Users\Depes Crystalline\Desktop\school\Active_Bike_Lighting_System\Radar_Core\Libraries\XMCLib\inc\xmc_dac.h ****  * -# Allows to select one of the eight possible trigger sources using XMC_DAC_CH_SetTrigger()
 108:C:\Users\Depes Crystalline\Desktop\school\Active_Bike_Lighting_System\Radar_Core\Libraries\XMCLib\inc\xmc_dac.h ****  * -# 2 DAC channels can be used in synchronization in single value mode and data mode to generate 
 109:C:\Users\Depes Crystalline\Desktop\school\Active_Bike_Lighting_System\Radar_Core\Libraries\XMCLib\inc\xmc_dac.h ****  */
 110:C:\Users\Depes Crystalline\Desktop\school\Active_Bike_Lighting_System\Radar_Core\Libraries\XMCLib\inc\xmc_dac.h **** 
 111:C:\Users\Depes Crystalline\Desktop\school\Active_Bike_Lighting_System\Radar_Core\Libraries\XMCLib\inc\xmc_dac.h **** /*******************************************************************************
 112:C:\Users\Depes Crystalline\Desktop\school\Active_Bike_Lighting_System\Radar_Core\Libraries\XMCLib\inc\xmc_dac.h ****  * MACROS
 113:C:\Users\Depes Crystalline\Desktop\school\Active_Bike_Lighting_System\Radar_Core\Libraries\XMCLib\inc\xmc_dac.h ****  *******************************************************************************/
 114:C:\Users\Depes Crystalline\Desktop\school\Active_Bike_Lighting_System\Radar_Core\Libraries\XMCLib\inc\xmc_dac.h **** 
 115:C:\Users\Depes Crystalline\Desktop\school\Active_Bike_Lighting_System\Radar_Core\Libraries\XMCLib\inc\xmc_dac.h **** #define XMC_DAC0 ((XMC_DAC_t *)DAC_BASE)         /**< DAC module register base */
 116:C:\Users\Depes Crystalline\Desktop\school\Active_Bike_Lighting_System\Radar_Core\Libraries\XMCLib\inc\xmc_dac.h **** 
 117:C:\Users\Depes Crystalline\Desktop\school\Active_Bike_Lighting_System\Radar_Core\Libraries\XMCLib\inc\xmc_dac.h **** #define XMC_DAC_DACCFG_NEGATE_Msk (0x10000000UL) /*< DAC negation enable mask in XMC44 device */
 118:C:\Users\Depes Crystalline\Desktop\school\Active_Bike_Lighting_System\Radar_Core\Libraries\XMCLib\inc\xmc_dac.h **** #define XMC_DAC_NO_CHANNELS (2U)                 /**< DAC maximum channels */
 119:C:\Users\Depes Crystalline\Desktop\school\Active_Bike_Lighting_System\Radar_Core\Libraries\XMCLib\inc\xmc_dac.h **** #define XMC_DAC_SAMPLES_PER_PERIOD (32U)         /**< DAC samples per period in pattern mode */
 120:C:\Users\Depes Crystalline\Desktop\school\Active_Bike_Lighting_System\Radar_Core\Libraries\XMCLib\inc\xmc_dac.h **** 
 121:C:\Users\Depes Crystalline\Desktop\school\Active_Bike_Lighting_System\Radar_Core\Libraries\XMCLib\inc\xmc_dac.h **** #define XMC_DAC_PATTERN_TRIANGLE  {0U, 4U, 8U, 12U, 16U, 19U, 23U, 27U, 31U} /**< First quarter Tri
 122:C:\Users\Depes Crystalline\Desktop\school\Active_Bike_Lighting_System\Radar_Core\Libraries\XMCLib\inc\xmc_dac.h **** #define XMC_DAC_PATTERN_SINE      {0U, 6U, 12U, 17U, 22U, 26U, 29U, 30U, 31U} /**< First quarter Si
 123:C:\Users\Depes Crystalline\Desktop\school\Active_Bike_Lighting_System\Radar_Core\Libraries\XMCLib\inc\xmc_dac.h **** #define XMC_DAC_PATTERN_RECTANGLE {31U, 31U, 31U, 31U, 31U, 31U, 31U, 31U, 31U} /**< First quarter 
 124:C:\Users\Depes Crystalline\Desktop\school\Active_Bike_Lighting_System\Radar_Core\Libraries\XMCLib\inc\xmc_dac.h **** 
 125:C:\Users\Depes Crystalline\Desktop\school\Active_Bike_Lighting_System\Radar_Core\Libraries\XMCLib\inc\xmc_dac.h **** #define XMC_DAC_IS_DAC_VALID(PTR)  ( ((PTR) == XMC_DAC0))  /*< Pointer validation for DAC module */
 126:C:\Users\Depes Crystalline\Desktop\school\Active_Bike_Lighting_System\Radar_Core\Libraries\XMCLib\inc\xmc_dac.h **** #define XMC_DAC_IS_CHANNEL_VALID(CH)  (((CH) == 0U) || ((CH) == 1U)) /*< CH validation */
 127:C:\Users\Depes Crystalline\Desktop\school\Active_Bike_Lighting_System\Radar_Core\Libraries\XMCLib\inc\xmc_dac.h **** 
 128:C:\Users\Depes Crystalline\Desktop\school\Active_Bike_Lighting_System\Radar_Core\Libraries\XMCLib\inc\xmc_dac.h **** /*******************************************************************************
 129:C:\Users\Depes Crystalline\Desktop\school\Active_Bike_Lighting_System\Radar_Core\Libraries\XMCLib\inc\xmc_dac.h ****  * ENUMS
 130:C:\Users\Depes Crystalline\Desktop\school\Active_Bike_Lighting_System\Radar_Core\Libraries\XMCLib\inc\xmc_dac.h ****  *******************************************************************************/
 131:C:\Users\Depes Crystalline\Desktop\school\Active_Bike_Lighting_System\Radar_Core\Libraries\XMCLib\inc\xmc_dac.h **** 
 132:C:\Users\Depes Crystalline\Desktop\school\Active_Bike_Lighting_System\Radar_Core\Libraries\XMCLib\inc\xmc_dac.h **** /**
 133:C:\Users\Depes Crystalline\Desktop\school\Active_Bike_Lighting_System\Radar_Core\Libraries\XMCLib\inc\xmc_dac.h ****  * Return types of the API's
 134:C:\Users\Depes Crystalline\Desktop\school\Active_Bike_Lighting_System\Radar_Core\Libraries\XMCLib\inc\xmc_dac.h ****  */
 135:C:\Users\Depes Crystalline\Desktop\school\Active_Bike_Lighting_System\Radar_Core\Libraries\XMCLib\inc\xmc_dac.h **** typedef enum XMC_DAC_CH_STATUS
 136:C:\Users\Depes Crystalline\Desktop\school\Active_Bike_Lighting_System\Radar_Core\Libraries\XMCLib\inc\xmc_dac.h **** {
 137:C:\Users\Depes Crystalline\Desktop\school\Active_Bike_Lighting_System\Radar_Core\Libraries\XMCLib\inc\xmc_dac.h ****   XMC_DAC_CH_STATUS_OK              = 0U, /**< Status is ok, no error detected */
 138:C:\Users\Depes Crystalline\Desktop\school\Active_Bike_Lighting_System\Radar_Core\Libraries\XMCLib\inc\xmc_dac.h ****   XMC_DAC_CH_STATUS_ERROR           = 1U, /**< Error detected */
 139:C:\Users\Depes Crystalline\Desktop\school\Active_Bike_Lighting_System\Radar_Core\Libraries\XMCLib\inc\xmc_dac.h ****   XMC_DAC_CH_STATUS_BUSY            = 2U, /**< DAC is busy */
 140:C:\Users\Depes Crystalline\Desktop\school\Active_Bike_Lighting_System\Radar_Core\Libraries\XMCLib\inc\xmc_dac.h ****   XMC_DAC_CH_STATUS_ERROR_FREQ2LOW  = 3U, /**< Frequency can't be configured. Frequency is to low. 
 141:C:\Users\Depes Crystalline\Desktop\school\Active_Bike_Lighting_System\Radar_Core\Libraries\XMCLib\inc\xmc_dac.h ****   XMC_DAC_CH_STATUS_ERROR_FREQ2HIGH = 4U  /**< Frequency can't be configured. Frequency is to high.
 142:C:\Users\Depes Crystalline\Desktop\school\Active_Bike_Lighting_System\Radar_Core\Libraries\XMCLib\inc\xmc_dac.h **** } XMC_DAC_CH_STATUS_t;
 143:C:\Users\Depes Crystalline\Desktop\school\Active_Bike_Lighting_System\Radar_Core\Libraries\XMCLib\inc\xmc_dac.h **** 
 144:C:\Users\Depes Crystalline\Desktop\school\Active_Bike_Lighting_System\Radar_Core\Libraries\XMCLib\inc\xmc_dac.h **** /**
 145:C:\Users\Depes Crystalline\Desktop\school\Active_Bike_Lighting_System\Radar_Core\Libraries\XMCLib\inc\xmc_dac.h ****  * Operating modes of DAC
 146:C:\Users\Depes Crystalline\Desktop\school\Active_Bike_Lighting_System\Radar_Core\Libraries\XMCLib\inc\xmc_dac.h ****  */
 147:C:\Users\Depes Crystalline\Desktop\school\Active_Bike_Lighting_System\Radar_Core\Libraries\XMCLib\inc\xmc_dac.h **** typedef enum XMC_DAC_CH_MODE
 148:C:\Users\Depes Crystalline\Desktop\school\Active_Bike_Lighting_System\Radar_Core\Libraries\XMCLib\inc\xmc_dac.h **** {
 149:C:\Users\Depes Crystalline\Desktop\school\Active_Bike_Lighting_System\Radar_Core\Libraries\XMCLib\inc\xmc_dac.h ****   XMC_DAC_CH_MODE_IDLE    = 0x0U << DAC_DAC0CFG0_MODE_Pos,    /**< DAC is disabled */
 150:C:\Users\Depes Crystalline\Desktop\school\Active_Bike_Lighting_System\Radar_Core\Libraries\XMCLib\inc\xmc_dac.h ****   XMC_DAC_CH_MODE_SINGLE  = 0x1U << DAC_DAC0CFG0_MODE_Pos,    /**< Single value mode - single data 
 151:C:\Users\Depes Crystalline\Desktop\school\Active_Bike_Lighting_System\Radar_Core\Libraries\XMCLib\inc\xmc_dac.h ****   XMC_DAC_CH_MODE_DATA    = 0x2U << DAC_DAC0CFG0_MODE_Pos,    /**< Data mode - continuous data proc
 152:C:\Users\Depes Crystalline\Desktop\school\Active_Bike_Lighting_System\Radar_Core\Libraries\XMCLib\inc\xmc_dac.h ****   XMC_DAC_CH_MODE_PATTERN = 0x3U << DAC_DAC0CFG0_MODE_Pos,    /**< Pattern mode - inbuilt pattern w
 153:C:\Users\Depes Crystalline\Desktop\school\Active_Bike_Lighting_System\Radar_Core\Libraries\XMCLib\inc\xmc_dac.h ****                                                                    Sine, Triangle, Rectangle */
 154:C:\Users\Depes Crystalline\Desktop\school\Active_Bike_Lighting_System\Radar_Core\Libraries\XMCLib\inc\xmc_dac.h ****   XMC_DAC_CH_MODE_NOISE   = 0x4U << DAC_DAC0CFG0_MODE_Pos,    /**< Noise mode - pseudo-random noise
 155:C:\Users\Depes Crystalline\Desktop\school\Active_Bike_Lighting_System\Radar_Core\Libraries\XMCLib\inc\xmc_dac.h ****   XMC_DAC_CH_MODE_RAMP    = 0x5U << DAC_DAC0CFG0_MODE_Pos     /**< Ramp mode - ramp generation */
 156:C:\Users\Depes Crystalline\Desktop\school\Active_Bike_Lighting_System\Radar_Core\Libraries\XMCLib\inc\xmc_dac.h **** } XMC_DAC_CH_MODE_t;
 157:C:\Users\Depes Crystalline\Desktop\school\Active_Bike_Lighting_System\Radar_Core\Libraries\XMCLib\inc\xmc_dac.h **** 
 158:C:\Users\Depes Crystalline\Desktop\school\Active_Bike_Lighting_System\Radar_Core\Libraries\XMCLib\inc\xmc_dac.h **** /**
 159:C:\Users\Depes Crystalline\Desktop\school\Active_Bike_Lighting_System\Radar_Core\Libraries\XMCLib\inc\xmc_dac.h ****  * Trigger sources for the data update
 160:C:\Users\Depes Crystalline\Desktop\school\Active_Bike_Lighting_System\Radar_Core\Libraries\XMCLib\inc\xmc_dac.h ****  */
 161:C:\Users\Depes Crystalline\Desktop\school\Active_Bike_Lighting_System\Radar_Core\Libraries\XMCLib\inc\xmc_dac.h **** typedef enum XMC_DAC_CH_TRIGGER
 162:C:\Users\Depes Crystalline\Desktop\school\Active_Bike_Lighting_System\Radar_Core\Libraries\XMCLib\inc\xmc_dac.h **** {
 163:C:\Users\Depes Crystalline\Desktop\school\Active_Bike_Lighting_System\Radar_Core\Libraries\XMCLib\inc\xmc_dac.h ****   XMC_DAC_CH_TRIGGER_INTERNAL =
 164:C:\Users\Depes Crystalline\Desktop\school\Active_Bike_Lighting_System\Radar_Core\Libraries\XMCLib\inc\xmc_dac.h ****       (0x0U << DAC_DAC0CFG1_TRIGMOD_Pos),                                      /**< Internal trigge
 165:C:\Users\Depes Crystalline\Desktop\school\Active_Bike_Lighting_System\Radar_Core\Libraries\XMCLib\inc\xmc_dac.h ****   XMC_DAC_CH_TRIGGER_EXTERNAL_CCU80_SR1 =
 166:C:\Users\Depes Crystalline\Desktop\school\Active_Bike_Lighting_System\Radar_Core\Libraries\XMCLib\inc\xmc_dac.h ****       (0x1U << DAC_DAC0CFG1_TRIGMOD_Pos) | 0x0U,                               /**< External trigge
 167:C:\Users\Depes Crystalline\Desktop\school\Active_Bike_Lighting_System\Radar_Core\Libraries\XMCLib\inc\xmc_dac.h ****   XMC_DAC_CH_TRIGGER_EXTERNAL_CCU40_SR1 =
 168:C:\Users\Depes Crystalline\Desktop\school\Active_Bike_Lighting_System\Radar_Core\Libraries\XMCLib\inc\xmc_dac.h ****       (0x1U << DAC_DAC0CFG1_TRIGMOD_Pos) | (0x2U << DAC_DAC0CFG1_TRIGSEL_Pos), /**< External trigge
 169:C:\Users\Depes Crystalline\Desktop\school\Active_Bike_Lighting_System\Radar_Core\Libraries\XMCLib\inc\xmc_dac.h ****   XMC_DAC_CH_TRIGGER_EXTERNAL_CCU41_SR1 =
 170:C:\Users\Depes Crystalline\Desktop\school\Active_Bike_Lighting_System\Radar_Core\Libraries\XMCLib\inc\xmc_dac.h ****       (0x1U << DAC_DAC0CFG1_TRIGMOD_Pos) | (0x3U << DAC_DAC0CFG1_TRIGSEL_Pos), /**< External trigge
 171:C:\Users\Depes Crystalline\Desktop\school\Active_Bike_Lighting_System\Radar_Core\Libraries\XMCLib\inc\xmc_dac.h ****   XMC_DAC_CH_TRIGGER_EXTERNAL_P2_9 =
 172:C:\Users\Depes Crystalline\Desktop\school\Active_Bike_Lighting_System\Radar_Core\Libraries\XMCLib\inc\xmc_dac.h ****       (0x1U << DAC_DAC0CFG1_TRIGMOD_Pos) | (0x4U << DAC_DAC0CFG1_TRIGSEL_Pos), /**< External trigge
 173:C:\Users\Depes Crystalline\Desktop\school\Active_Bike_Lighting_System\Radar_Core\Libraries\XMCLib\inc\xmc_dac.h ****   XMC_DAC_CH_TRIGGER_EXTERNAL_P2_8 =
 174:C:\Users\Depes Crystalline\Desktop\school\Active_Bike_Lighting_System\Radar_Core\Libraries\XMCLib\inc\xmc_dac.h ****       (0x1U << DAC_DAC0CFG1_TRIGMOD_Pos) | (0x5U << DAC_DAC0CFG1_TRIGSEL_Pos), /**< External trigge
 175:C:\Users\Depes Crystalline\Desktop\school\Active_Bike_Lighting_System\Radar_Core\Libraries\XMCLib\inc\xmc_dac.h ****   XMC_DAC_CH_TRIGGER_EXTERNAL_U0C0_DX1INS =
 176:C:\Users\Depes Crystalline\Desktop\school\Active_Bike_Lighting_System\Radar_Core\Libraries\XMCLib\inc\xmc_dac.h ****       (0x1U << DAC_DAC0CFG1_TRIGMOD_Pos) | (0x6U << DAC_DAC0CFG1_TRIGSEL_Pos), /**< External trigge
 177:C:\Users\Depes Crystalline\Desktop\school\Active_Bike_Lighting_System\Radar_Core\Libraries\XMCLib\inc\xmc_dac.h ****   XMC_DAC_CH_TRIGGER_EXTERNAL_U1C0_DX1INS =
 178:C:\Users\Depes Crystalline\Desktop\school\Active_Bike_Lighting_System\Radar_Core\Libraries\XMCLib\inc\xmc_dac.h ****       (0x1U << DAC_DAC0CFG1_TRIGMOD_Pos) | (0x7U << DAC_DAC0CFG1_TRIGSEL_Pos), /**< External trigge
 179:C:\Users\Depes Crystalline\Desktop\school\Active_Bike_Lighting_System\Radar_Core\Libraries\XMCLib\inc\xmc_dac.h ****   XMC_DAC_CH_TRIGGER_SOFTWARE =
 180:C:\Users\Depes Crystalline\Desktop\school\Active_Bike_Lighting_System\Radar_Core\Libraries\XMCLib\inc\xmc_dac.h ****       (0x2U << DAC_DAC0CFG1_TRIGMOD_Pos)                                       /**< Software trigge
 181:C:\Users\Depes Crystalline\Desktop\school\Active_Bike_Lighting_System\Radar_Core\Libraries\XMCLib\inc\xmc_dac.h **** } XMC_DAC_CH_TRIGGER_t;
 182:C:\Users\Depes Crystalline\Desktop\school\Active_Bike_Lighting_System\Radar_Core\Libraries\XMCLib\inc\xmc_dac.h **** 
 183:C:\Users\Depes Crystalline\Desktop\school\Active_Bike_Lighting_System\Radar_Core\Libraries\XMCLib\inc\xmc_dac.h **** /**
 184:C:\Users\Depes Crystalline\Desktop\school\Active_Bike_Lighting_System\Radar_Core\Libraries\XMCLib\inc\xmc_dac.h ****  * Data type of the input data
 185:C:\Users\Depes Crystalline\Desktop\school\Active_Bike_Lighting_System\Radar_Core\Libraries\XMCLib\inc\xmc_dac.h ****  */
 186:C:\Users\Depes Crystalline\Desktop\school\Active_Bike_Lighting_System\Radar_Core\Libraries\XMCLib\inc\xmc_dac.h **** typedef enum XMC_DAC_CH_DATA_TYPE
 187:C:\Users\Depes Crystalline\Desktop\school\Active_Bike_Lighting_System\Radar_Core\Libraries\XMCLib\inc\xmc_dac.h **** {
 188:C:\Users\Depes Crystalline\Desktop\school\Active_Bike_Lighting_System\Radar_Core\Libraries\XMCLib\inc\xmc_dac.h ****   XMC_DAC_CH_DATA_TYPE_UNSIGNED = 0U , /**< input data is unsigned */
 189:C:\Users\Depes Crystalline\Desktop\school\Active_Bike_Lighting_System\Radar_Core\Libraries\XMCLib\inc\xmc_dac.h ****   XMC_DAC_CH_DATA_TYPE_SIGNED = 1U     /**< input data is signed */
 190:C:\Users\Depes Crystalline\Desktop\school\Active_Bike_Lighting_System\Radar_Core\Libraries\XMCLib\inc\xmc_dac.h **** } XMC_DAC_CH_DATA_TYPE_t;
 191:C:\Users\Depes Crystalline\Desktop\school\Active_Bike_Lighting_System\Radar_Core\Libraries\XMCLib\inc\xmc_dac.h **** 
 192:C:\Users\Depes Crystalline\Desktop\school\Active_Bike_Lighting_System\Radar_Core\Libraries\XMCLib\inc\xmc_dac.h **** /**
 193:C:\Users\Depes Crystalline\Desktop\school\Active_Bike_Lighting_System\Radar_Core\Libraries\XMCLib\inc\xmc_dac.h ****  * Scaling of the input data
 194:C:\Users\Depes Crystalline\Desktop\school\Active_Bike_Lighting_System\Radar_Core\Libraries\XMCLib\inc\xmc_dac.h ****  */
 195:C:\Users\Depes Crystalline\Desktop\school\Active_Bike_Lighting_System\Radar_Core\Libraries\XMCLib\inc\xmc_dac.h **** typedef enum XMC_DAC_CH_OUTPUT_SCALE
 196:C:\Users\Depes Crystalline\Desktop\school\Active_Bike_Lighting_System\Radar_Core\Libraries\XMCLib\inc\xmc_dac.h **** {
 197:C:\Users\Depes Crystalline\Desktop\school\Active_Bike_Lighting_System\Radar_Core\Libraries\XMCLib\inc\xmc_dac.h ****   XMC_DAC_CH_OUTPUT_SCALE_NONE =
 198:C:\Users\Depes Crystalline\Desktop\school\Active_Bike_Lighting_System\Radar_Core\Libraries\XMCLib\inc\xmc_dac.h ****       0x0U,                                                                   /**< No scaling */
 199:C:\Users\Depes Crystalline\Desktop\school\Active_Bike_Lighting_System\Radar_Core\Libraries\XMCLib\inc\xmc_dac.h ****   XMC_DAC_CH_OUTPUT_SCALE_MUL_2 =
 200:C:\Users\Depes Crystalline\Desktop\school\Active_Bike_Lighting_System\Radar_Core\Libraries\XMCLib\inc\xmc_dac.h ****       (0x1U << DAC_DAC0CFG1_MULDIV_Pos) | (0x1U << DAC_DAC0CFG1_SCALE_Pos),   /**< multiplied by 2 
 201:C:\Users\Depes Crystalline\Desktop\school\Active_Bike_Lighting_System\Radar_Core\Libraries\XMCLib\inc\xmc_dac.h ****   XMC_DAC_CH_OUTPUT_SCALE_MUL_4 =
 202:C:\Users\Depes Crystalline\Desktop\school\Active_Bike_Lighting_System\Radar_Core\Libraries\XMCLib\inc\xmc_dac.h ****       (0x1U << DAC_DAC0CFG1_MULDIV_Pos) | (0x2U << DAC_DAC0CFG1_SCALE_Pos),   /**< multiplied by 4 
 203:C:\Users\Depes Crystalline\Desktop\school\Active_Bike_Lighting_System\Radar_Core\Libraries\XMCLib\inc\xmc_dac.h ****   XMC_DAC_CH_OUTPUT_SCALE_MUL_8 =
 204:C:\Users\Depes Crystalline\Desktop\school\Active_Bike_Lighting_System\Radar_Core\Libraries\XMCLib\inc\xmc_dac.h ****       (0x1U << DAC_DAC0CFG1_MULDIV_Pos) | (0x3U << DAC_DAC0CFG1_SCALE_Pos),   /**< multiplied by 8 
 205:C:\Users\Depes Crystalline\Desktop\school\Active_Bike_Lighting_System\Radar_Core\Libraries\XMCLib\inc\xmc_dac.h ****   XMC_DAC_CH_OUTPUT_SCALE_MUL_16 =
 206:C:\Users\Depes Crystalline\Desktop\school\Active_Bike_Lighting_System\Radar_Core\Libraries\XMCLib\inc\xmc_dac.h ****       (0x1U << DAC_DAC0CFG1_MULDIV_Pos) | (0x4U << DAC_DAC0CFG1_SCALE_Pos),   /**< multiplied by 16
 207:C:\Users\Depes Crystalline\Desktop\school\Active_Bike_Lighting_System\Radar_Core\Libraries\XMCLib\inc\xmc_dac.h ****   XMC_DAC_CH_OUTPUT_SCALE_MUL_32 =
 208:C:\Users\Depes Crystalline\Desktop\school\Active_Bike_Lighting_System\Radar_Core\Libraries\XMCLib\inc\xmc_dac.h ****       (0x1U << DAC_DAC0CFG1_MULDIV_Pos) | (0x5U << DAC_DAC0CFG1_SCALE_Pos),   /**< multiplied by 32
 209:C:\Users\Depes Crystalline\Desktop\school\Active_Bike_Lighting_System\Radar_Core\Libraries\XMCLib\inc\xmc_dac.h ****   XMC_DAC_CH_OUTPUT_SCALE_MUL_64 =
 210:C:\Users\Depes Crystalline\Desktop\school\Active_Bike_Lighting_System\Radar_Core\Libraries\XMCLib\inc\xmc_dac.h ****       (0x1U << DAC_DAC0CFG1_MULDIV_Pos) | (0x6U << DAC_DAC0CFG1_SCALE_Pos),   /**< multiplied by 64
 211:C:\Users\Depes Crystalline\Desktop\school\Active_Bike_Lighting_System\Radar_Core\Libraries\XMCLib\inc\xmc_dac.h ****   XMC_DAC_CH_OUTPUT_SCALE_MUL_128 =
 212:C:\Users\Depes Crystalline\Desktop\school\Active_Bike_Lighting_System\Radar_Core\Libraries\XMCLib\inc\xmc_dac.h ****       (0x1U << DAC_DAC0CFG1_MULDIV_Pos) | (0x7U << DAC_DAC0CFG1_SCALE_Pos),   /**< multiplied by 12
 213:C:\Users\Depes Crystalline\Desktop\school\Active_Bike_Lighting_System\Radar_Core\Libraries\XMCLib\inc\xmc_dac.h ****   XMC_DAC_CH_OUTPUT_SCALE_DIV_2 =
 214:C:\Users\Depes Crystalline\Desktop\school\Active_Bike_Lighting_System\Radar_Core\Libraries\XMCLib\inc\xmc_dac.h ****       0x1U << DAC_DAC0CFG1_SCALE_Pos,                                         /**< divided by 2 */
 215:C:\Users\Depes Crystalline\Desktop\school\Active_Bike_Lighting_System\Radar_Core\Libraries\XMCLib\inc\xmc_dac.h ****   XMC_DAC_CH_OUTPUT_SCALE_DIV_4 =
 216:C:\Users\Depes Crystalline\Desktop\school\Active_Bike_Lighting_System\Radar_Core\Libraries\XMCLib\inc\xmc_dac.h ****       0x2U << DAC_DAC0CFG1_SCALE_Pos,                                         /**< divided by 4 */
 217:C:\Users\Depes Crystalline\Desktop\school\Active_Bike_Lighting_System\Radar_Core\Libraries\XMCLib\inc\xmc_dac.h ****   XMC_DAC_CH_OUTPUT_SCALE_DIV_8 =
 218:C:\Users\Depes Crystalline\Desktop\school\Active_Bike_Lighting_System\Radar_Core\Libraries\XMCLib\inc\xmc_dac.h ****       0x3U << DAC_DAC0CFG1_SCALE_Pos,                                         /**< divided by 8 */
 219:C:\Users\Depes Crystalline\Desktop\school\Active_Bike_Lighting_System\Radar_Core\Libraries\XMCLib\inc\xmc_dac.h ****   XMC_DAC_CH_OUTPUT_SCALE_DIV_16 =
 220:C:\Users\Depes Crystalline\Desktop\school\Active_Bike_Lighting_System\Radar_Core\Libraries\XMCLib\inc\xmc_dac.h ****       0x4U << DAC_DAC0CFG1_SCALE_Pos,                                         /**< divided by 16 */
 221:C:\Users\Depes Crystalline\Desktop\school\Active_Bike_Lighting_System\Radar_Core\Libraries\XMCLib\inc\xmc_dac.h ****   XMC_DAC_CH_OUTPUT_SCALE_DIV_32 =
 222:C:\Users\Depes Crystalline\Desktop\school\Active_Bike_Lighting_System\Radar_Core\Libraries\XMCLib\inc\xmc_dac.h ****       0x5U << DAC_DAC0CFG1_SCALE_Pos,                                         /**< divided by 32 */
 223:C:\Users\Depes Crystalline\Desktop\school\Active_Bike_Lighting_System\Radar_Core\Libraries\XMCLib\inc\xmc_dac.h ****   XMC_DAC_CH_OUTPUT_SCALE_DIV_64 =
 224:C:\Users\Depes Crystalline\Desktop\school\Active_Bike_Lighting_System\Radar_Core\Libraries\XMCLib\inc\xmc_dac.h ****       0x6U << DAC_DAC0CFG1_SCALE_Pos,                                         /**< divided by 64 */
 225:C:\Users\Depes Crystalline\Desktop\school\Active_Bike_Lighting_System\Radar_Core\Libraries\XMCLib\inc\xmc_dac.h ****   XMC_DAC_CH_OUTPUT_SCALE_DIV_128 =
 226:C:\Users\Depes Crystalline\Desktop\school\Active_Bike_Lighting_System\Radar_Core\Libraries\XMCLib\inc\xmc_dac.h ****       0x7U << DAC_DAC0CFG1_SCALE_Pos                                          /**< divided by 128 *
 227:C:\Users\Depes Crystalline\Desktop\school\Active_Bike_Lighting_System\Radar_Core\Libraries\XMCLib\inc\xmc_dac.h **** } XMC_DAC_CH_OUTPUT_SCALE_t;
 228:C:\Users\Depes Crystalline\Desktop\school\Active_Bike_Lighting_System\Radar_Core\Libraries\XMCLib\inc\xmc_dac.h **** 
 229:C:\Users\Depes Crystalline\Desktop\school\Active_Bike_Lighting_System\Radar_Core\Libraries\XMCLib\inc\xmc_dac.h **** /**
 230:C:\Users\Depes Crystalline\Desktop\school\Active_Bike_Lighting_System\Radar_Core\Libraries\XMCLib\inc\xmc_dac.h ****  * Negation of input data (applicable only for XMC44 device)
 231:C:\Users\Depes Crystalline\Desktop\school\Active_Bike_Lighting_System\Radar_Core\Libraries\XMCLib\inc\xmc_dac.h ****  */
 232:C:\Users\Depes Crystalline\Desktop\school\Active_Bike_Lighting_System\Radar_Core\Libraries\XMCLib\inc\xmc_dac.h **** typedef enum XMC_DAC_CH_OUTPUT_NEGATION
 233:C:\Users\Depes Crystalline\Desktop\school\Active_Bike_Lighting_System\Radar_Core\Libraries\XMCLib\inc\xmc_dac.h **** {
 234:C:\Users\Depes Crystalline\Desktop\school\Active_Bike_Lighting_System\Radar_Core\Libraries\XMCLib\inc\xmc_dac.h ****   XMC_DAC_CH_OUTPUT_NEGATION_DISABLED = 0U,                   /**< XMC_DAC_CH_OUTPUT_NEGATION_DISAB
 235:C:\Users\Depes Crystalline\Desktop\school\Active_Bike_Lighting_System\Radar_Core\Libraries\XMCLib\inc\xmc_dac.h ****   XMC_DAC_CH_OUTPUT_NEGATION_ENABLED = 1U                     /**< XMC_DAC_CH_OUTPUT_NEGATION_ENABL
 236:C:\Users\Depes Crystalline\Desktop\school\Active_Bike_Lighting_System\Radar_Core\Libraries\XMCLib\inc\xmc_dac.h **** } XMC_DAC_CH_OUTPUT_NEGATION_t;
 237:C:\Users\Depes Crystalline\Desktop\school\Active_Bike_Lighting_System\Radar_Core\Libraries\XMCLib\inc\xmc_dac.h **** 
 238:C:\Users\Depes Crystalline\Desktop\school\Active_Bike_Lighting_System\Radar_Core\Libraries\XMCLib\inc\xmc_dac.h **** /**
 239:C:\Users\Depes Crystalline\Desktop\school\Active_Bike_Lighting_System\Radar_Core\Libraries\XMCLib\inc\xmc_dac.h ****  * Output sign signal for the Pattern Generation Mode
 240:C:\Users\Depes Crystalline\Desktop\school\Active_Bike_Lighting_System\Radar_Core\Libraries\XMCLib\inc\xmc_dac.h ****  */
 241:C:\Users\Depes Crystalline\Desktop\school\Active_Bike_Lighting_System\Radar_Core\Libraries\XMCLib\inc\xmc_dac.h **** typedef enum XMC_DAC_CH_PATTERN_SIGN_OUTPUT
 242:C:\Users\Depes Crystalline\Desktop\school\Active_Bike_Lighting_System\Radar_Core\Libraries\XMCLib\inc\xmc_dac.h **** {
 243:C:\Users\Depes Crystalline\Desktop\school\Active_Bike_Lighting_System\Radar_Core\Libraries\XMCLib\inc\xmc_dac.h ****   XMC_DAC_CH_PATTERN_SIGN_OUTPUT_DISABLED = 0U,  /**< Sign output signal generation is disabled */
 244:C:\Users\Depes Crystalline\Desktop\school\Active_Bike_Lighting_System\Radar_Core\Libraries\XMCLib\inc\xmc_dac.h ****   XMC_DAC_CH_PATTERN_SIGN_OUTPUT_ENABLED = 1U    /**< Sign output signal generation is enabled */
 245:C:\Users\Depes Crystalline\Desktop\school\Active_Bike_Lighting_System\Radar_Core\Libraries\XMCLib\inc\xmc_dac.h **** } XMC_DAC_CH_PATTERN_SIGN_OUTPUT_t;
 246:C:\Users\Depes Crystalline\Desktop\school\Active_Bike_Lighting_System\Radar_Core\Libraries\XMCLib\inc\xmc_dac.h **** 
 247:C:\Users\Depes Crystalline\Desktop\school\Active_Bike_Lighting_System\Radar_Core\Libraries\XMCLib\inc\xmc_dac.h **** /*******************************************************************************
 248:C:\Users\Depes Crystalline\Desktop\school\Active_Bike_Lighting_System\Radar_Core\Libraries\XMCLib\inc\xmc_dac.h ****  * DATA STRUCTURES
 249:C:\Users\Depes Crystalline\Desktop\school\Active_Bike_Lighting_System\Radar_Core\Libraries\XMCLib\inc\xmc_dac.h ****  *******************************************************************************/
 250:C:\Users\Depes Crystalline\Desktop\school\Active_Bike_Lighting_System\Radar_Core\Libraries\XMCLib\inc\xmc_dac.h **** /**
 251:C:\Users\Depes Crystalline\Desktop\school\Active_Bike_Lighting_System\Radar_Core\Libraries\XMCLib\inc\xmc_dac.h ****  * DAC peripheral registers configuration.
 252:C:\Users\Depes Crystalline\Desktop\school\Active_Bike_Lighting_System\Radar_Core\Libraries\XMCLib\inc\xmc_dac.h ****  */
 253:C:\Users\Depes Crystalline\Desktop\school\Active_Bike_Lighting_System\Radar_Core\Libraries\XMCLib\inc\xmc_dac.h **** typedef struct
 254:C:\Users\Depes Crystalline\Desktop\school\Active_Bike_Lighting_System\Radar_Core\Libraries\XMCLib\inc\xmc_dac.h **** {
 255:C:\Users\Depes Crystalline\Desktop\school\Active_Bike_Lighting_System\Radar_Core\Libraries\XMCLib\inc\xmc_dac.h ****   __I  uint32_t  ID;
 256:C:\Users\Depes Crystalline\Desktop\school\Active_Bike_Lighting_System\Radar_Core\Libraries\XMCLib\inc\xmc_dac.h **** 
 257:C:\Users\Depes Crystalline\Desktop\school\Active_Bike_Lighting_System\Radar_Core\Libraries\XMCLib\inc\xmc_dac.h ****   struct
 258:C:\Users\Depes Crystalline\Desktop\school\Active_Bike_Lighting_System\Radar_Core\Libraries\XMCLib\inc\xmc_dac.h ****   {
 259:C:\Users\Depes Crystalline\Desktop\school\Active_Bike_Lighting_System\Radar_Core\Libraries\XMCLib\inc\xmc_dac.h ****      __IO uint32_t low;
 260:C:\Users\Depes Crystalline\Desktop\school\Active_Bike_Lighting_System\Radar_Core\Libraries\XMCLib\inc\xmc_dac.h ****      __IO uint32_t high;
 261:C:\Users\Depes Crystalline\Desktop\school\Active_Bike_Lighting_System\Radar_Core\Libraries\XMCLib\inc\xmc_dac.h ****   } DACCFG[XMC_DAC_NO_CHANNELS];
 262:C:\Users\Depes Crystalline\Desktop\school\Active_Bike_Lighting_System\Radar_Core\Libraries\XMCLib\inc\xmc_dac.h **** 
 263:C:\Users\Depes Crystalline\Desktop\school\Active_Bike_Lighting_System\Radar_Core\Libraries\XMCLib\inc\xmc_dac.h ****   __IO uint32_t DACDATA[XMC_DAC_NO_CHANNELS];
 264:C:\Users\Depes Crystalline\Desktop\school\Active_Bike_Lighting_System\Radar_Core\Libraries\XMCLib\inc\xmc_dac.h ****   __IO uint32_t DAC01DATA;
 265:C:\Users\Depes Crystalline\Desktop\school\Active_Bike_Lighting_System\Radar_Core\Libraries\XMCLib\inc\xmc_dac.h **** 
 266:C:\Users\Depes Crystalline\Desktop\school\Active_Bike_Lighting_System\Radar_Core\Libraries\XMCLib\inc\xmc_dac.h ****   struct
 267:C:\Users\Depes Crystalline\Desktop\school\Active_Bike_Lighting_System\Radar_Core\Libraries\XMCLib\inc\xmc_dac.h ****   {
 268:C:\Users\Depes Crystalline\Desktop\school\Active_Bike_Lighting_System\Radar_Core\Libraries\XMCLib\inc\xmc_dac.h ****      __IO uint32_t low;
 269:C:\Users\Depes Crystalline\Desktop\school\Active_Bike_Lighting_System\Radar_Core\Libraries\XMCLib\inc\xmc_dac.h ****      __IO uint32_t high;
 270:C:\Users\Depes Crystalline\Desktop\school\Active_Bike_Lighting_System\Radar_Core\Libraries\XMCLib\inc\xmc_dac.h ****   } DACPAT[XMC_DAC_NO_CHANNELS];
 271:C:\Users\Depes Crystalline\Desktop\school\Active_Bike_Lighting_System\Radar_Core\Libraries\XMCLib\inc\xmc_dac.h **** 
 272:C:\Users\Depes Crystalline\Desktop\school\Active_Bike_Lighting_System\Radar_Core\Libraries\XMCLib\inc\xmc_dac.h **** } XMC_DAC_t;
 273:C:\Users\Depes Crystalline\Desktop\school\Active_Bike_Lighting_System\Radar_Core\Libraries\XMCLib\inc\xmc_dac.h **** 
 274:C:\Users\Depes Crystalline\Desktop\school\Active_Bike_Lighting_System\Radar_Core\Libraries\XMCLib\inc\xmc_dac.h **** /*Anonymous structure/union guard start*/
 275:C:\Users\Depes Crystalline\Desktop\school\Active_Bike_Lighting_System\Radar_Core\Libraries\XMCLib\inc\xmc_dac.h **** #if defined(__CC_ARM)
 276:C:\Users\Depes Crystalline\Desktop\school\Active_Bike_Lighting_System\Radar_Core\Libraries\XMCLib\inc\xmc_dac.h ****   #pragma push
 277:C:\Users\Depes Crystalline\Desktop\school\Active_Bike_Lighting_System\Radar_Core\Libraries\XMCLib\inc\xmc_dac.h ****   #pragma anon_unions
 278:C:\Users\Depes Crystalline\Desktop\school\Active_Bike_Lighting_System\Radar_Core\Libraries\XMCLib\inc\xmc_dac.h **** #elif defined(__TASKING__)
 279:C:\Users\Depes Crystalline\Desktop\school\Active_Bike_Lighting_System\Radar_Core\Libraries\XMCLib\inc\xmc_dac.h ****   #pragma warning 586
 280:C:\Users\Depes Crystalline\Desktop\school\Active_Bike_Lighting_System\Radar_Core\Libraries\XMCLib\inc\xmc_dac.h **** #endif
 281:C:\Users\Depes Crystalline\Desktop\school\Active_Bike_Lighting_System\Radar_Core\Libraries\XMCLib\inc\xmc_dac.h **** 
 282:C:\Users\Depes Crystalline\Desktop\school\Active_Bike_Lighting_System\Radar_Core\Libraries\XMCLib\inc\xmc_dac.h **** /**
 283:C:\Users\Depes Crystalline\Desktop\school\Active_Bike_Lighting_System\Radar_Core\Libraries\XMCLib\inc\xmc_dac.h ****  * Channel related configuration
 284:C:\Users\Depes Crystalline\Desktop\school\Active_Bike_Lighting_System\Radar_Core\Libraries\XMCLib\inc\xmc_dac.h ****  */
 285:C:\Users\Depes Crystalline\Desktop\school\Active_Bike_Lighting_System\Radar_Core\Libraries\XMCLib\inc\xmc_dac.h **** typedef struct XMC_DAC_CH_CONFIG
 286:C:\Users\Depes Crystalline\Desktop\school\Active_Bike_Lighting_System\Radar_Core\Libraries\XMCLib\inc\xmc_dac.h **** {
 287:C:\Users\Depes Crystalline\Desktop\school\Active_Bike_Lighting_System\Radar_Core\Libraries\XMCLib\inc\xmc_dac.h ****   union
 288:C:\Users\Depes Crystalline\Desktop\school\Active_Bike_Lighting_System\Radar_Core\Libraries\XMCLib\inc\xmc_dac.h ****   {
 289:C:\Users\Depes Crystalline\Desktop\school\Active_Bike_Lighting_System\Radar_Core\Libraries\XMCLib\inc\xmc_dac.h ****   struct
 290:C:\Users\Depes Crystalline\Desktop\school\Active_Bike_Lighting_System\Radar_Core\Libraries\XMCLib\inc\xmc_dac.h ****   {
 291:C:\Users\Depes Crystalline\Desktop\school\Active_Bike_Lighting_System\Radar_Core\Libraries\XMCLib\inc\xmc_dac.h ****     uint32_t :23;                /**< Not used bits */
 292:C:\Users\Depes Crystalline\Desktop\school\Active_Bike_Lighting_System\Radar_Core\Libraries\XMCLib\inc\xmc_dac.h ****     uint32_t data_type:1;        /**< input data type - unsigned / signed */
 293:C:\Users\Depes Crystalline\Desktop\school\Active_Bike_Lighting_System\Radar_Core\Libraries\XMCLib\inc\xmc_dac.h ****     uint32_t :4;                 /**< Not used bits */
 294:C:\Users\Depes Crystalline\Desktop\school\Active_Bike_Lighting_System\Radar_Core\Libraries\XMCLib\inc\xmc_dac.h ****     uint32_t output_negation:1;  /**< Negation of the output waveform enabled/disabled */
 295:C:\Users\Depes Crystalline\Desktop\school\Active_Bike_Lighting_System\Radar_Core\Libraries\XMCLib\inc\xmc_dac.h ****     uint32_t :3;
 296:C:\Users\Depes Crystalline\Desktop\school\Active_Bike_Lighting_System\Radar_Core\Libraries\XMCLib\inc\xmc_dac.h ****   };
 297:C:\Users\Depes Crystalline\Desktop\school\Active_Bike_Lighting_System\Radar_Core\Libraries\XMCLib\inc\xmc_dac.h ****   uint32_t cfg0;
 298:C:\Users\Depes Crystalline\Desktop\school\Active_Bike_Lighting_System\Radar_Core\Libraries\XMCLib\inc\xmc_dac.h ****   };
 299:C:\Users\Depes Crystalline\Desktop\school\Active_Bike_Lighting_System\Radar_Core\Libraries\XMCLib\inc\xmc_dac.h ****   union
 300:C:\Users\Depes Crystalline\Desktop\school\Active_Bike_Lighting_System\Radar_Core\Libraries\XMCLib\inc\xmc_dac.h ****   {
 301:C:\Users\Depes Crystalline\Desktop\school\Active_Bike_Lighting_System\Radar_Core\Libraries\XMCLib\inc\xmc_dac.h ****   struct
 302:C:\Users\Depes Crystalline\Desktop\school\Active_Bike_Lighting_System\Radar_Core\Libraries\XMCLib\inc\xmc_dac.h ****   {
 303:C:\Users\Depes Crystalline\Desktop\school\Active_Bike_Lighting_System\Radar_Core\Libraries\XMCLib\inc\xmc_dac.h ****     uint32_t output_scale:4;  /**< Scale value of type XMC_DAC_CH_OUTPUT_SCALE_t. It includes scali
 304:C:\Users\Depes Crystalline\Desktop\school\Active_Bike_Lighting_System\Radar_Core\Libraries\XMCLib\inc\xmc_dac.h ****     uint32_t output_offset:8; /**< offset value */
 305:C:\Users\Depes Crystalline\Desktop\school\Active_Bike_Lighting_System\Radar_Core\Libraries\XMCLib\inc\xmc_dac.h ****     uint32_t :20;
 306:C:\Users\Depes Crystalline\Desktop\school\Active_Bike_Lighting_System\Radar_Core\Libraries\XMCLib\inc\xmc_dac.h ****   };
 307:C:\Users\Depes Crystalline\Desktop\school\Active_Bike_Lighting_System\Radar_Core\Libraries\XMCLib\inc\xmc_dac.h ****   uint32_t cfg1;
 308:C:\Users\Depes Crystalline\Desktop\school\Active_Bike_Lighting_System\Radar_Core\Libraries\XMCLib\inc\xmc_dac.h ****   };
 309:C:\Users\Depes Crystalline\Desktop\school\Active_Bike_Lighting_System\Radar_Core\Libraries\XMCLib\inc\xmc_dac.h **** } XMC_DAC_CH_CONFIG_t;
 310:C:\Users\Depes Crystalline\Desktop\school\Active_Bike_Lighting_System\Radar_Core\Libraries\XMCLib\inc\xmc_dac.h **** /*Anonymous structure/union guard end*/
 311:C:\Users\Depes Crystalline\Desktop\school\Active_Bike_Lighting_System\Radar_Core\Libraries\XMCLib\inc\xmc_dac.h **** #if defined(__CC_ARM)
 312:C:\Users\Depes Crystalline\Desktop\school\Active_Bike_Lighting_System\Radar_Core\Libraries\XMCLib\inc\xmc_dac.h ****   #pragma pop
 313:C:\Users\Depes Crystalline\Desktop\school\Active_Bike_Lighting_System\Radar_Core\Libraries\XMCLib\inc\xmc_dac.h **** #elif defined(__TASKING__)
 314:C:\Users\Depes Crystalline\Desktop\school\Active_Bike_Lighting_System\Radar_Core\Libraries\XMCLib\inc\xmc_dac.h ****   #pragma warning restore
 315:C:\Users\Depes Crystalline\Desktop\school\Active_Bike_Lighting_System\Radar_Core\Libraries\XMCLib\inc\xmc_dac.h **** #endif
 316:C:\Users\Depes Crystalline\Desktop\school\Active_Bike_Lighting_System\Radar_Core\Libraries\XMCLib\inc\xmc_dac.h **** /*******************************************************************************
 317:C:\Users\Depes Crystalline\Desktop\school\Active_Bike_Lighting_System\Radar_Core\Libraries\XMCLib\inc\xmc_dac.h ****  * API PROTOTYPES
 318:C:\Users\Depes Crystalline\Desktop\school\Active_Bike_Lighting_System\Radar_Core\Libraries\XMCLib\inc\xmc_dac.h ****  *******************************************************************************/
 319:C:\Users\Depes Crystalline\Desktop\school\Active_Bike_Lighting_System\Radar_Core\Libraries\XMCLib\inc\xmc_dac.h **** 
 320:C:\Users\Depes Crystalline\Desktop\school\Active_Bike_Lighting_System\Radar_Core\Libraries\XMCLib\inc\xmc_dac.h **** #ifdef __cplusplus
 321:C:\Users\Depes Crystalline\Desktop\school\Active_Bike_Lighting_System\Radar_Core\Libraries\XMCLib\inc\xmc_dac.h **** extern "C" {
 322:C:\Users\Depes Crystalline\Desktop\school\Active_Bike_Lighting_System\Radar_Core\Libraries\XMCLib\inc\xmc_dac.h **** #endif
 323:C:\Users\Depes Crystalline\Desktop\school\Active_Bike_Lighting_System\Radar_Core\Libraries\XMCLib\inc\xmc_dac.h **** 
 324:C:\Users\Depes Crystalline\Desktop\school\Active_Bike_Lighting_System\Radar_Core\Libraries\XMCLib\inc\xmc_dac.h **** /**
 325:C:\Users\Depes Crystalline\Desktop\school\Active_Bike_Lighting_System\Radar_Core\Libraries\XMCLib\inc\xmc_dac.h ****  * @param dac Pointer to an instance of DAC module
 326:C:\Users\Depes Crystalline\Desktop\school\Active_Bike_Lighting_System\Radar_Core\Libraries\XMCLib\inc\xmc_dac.h ****  *
 327:C:\Users\Depes Crystalline\Desktop\school\Active_Bike_Lighting_System\Radar_Core\Libraries\XMCLib\inc\xmc_dac.h ****  * @return None
 328:C:\Users\Depes Crystalline\Desktop\school\Active_Bike_Lighting_System\Radar_Core\Libraries\XMCLib\inc\xmc_dac.h ****  *
 329:C:\Users\Depes Crystalline\Desktop\school\Active_Bike_Lighting_System\Radar_Core\Libraries\XMCLib\inc\xmc_dac.h ****  * \par<b>Description:</b><br>
 330:C:\Users\Depes Crystalline\Desktop\school\Active_Bike_Lighting_System\Radar_Core\Libraries\XMCLib\inc\xmc_dac.h ****  * Enables DAC clock and releases DAC reset.<br>
 331:C:\Users\Depes Crystalline\Desktop\school\Active_Bike_Lighting_System\Radar_Core\Libraries\XMCLib\inc\xmc_dac.h ****  *
 332:C:\Users\Depes Crystalline\Desktop\school\Active_Bike_Lighting_System\Radar_Core\Libraries\XMCLib\inc\xmc_dac.h ****  * \par
 333:C:\Users\Depes Crystalline\Desktop\school\Active_Bike_Lighting_System\Radar_Core\Libraries\XMCLib\inc\xmc_dac.h ****  * Enabling DAC is the first step of DAC initialisation. This API is called by XMC_DAC_CH_Init().
 334:C:\Users\Depes Crystalline\Desktop\school\Active_Bike_Lighting_System\Radar_Core\Libraries\XMCLib\inc\xmc_dac.h ****  * DAC clock is enabled by setting \a DAC bit of \a CGATCLR1 register. DAC reset is released by set
 335:C:\Users\Depes Crystalline\Desktop\school\Active_Bike_Lighting_System\Radar_Core\Libraries\XMCLib\inc\xmc_dac.h ****  *
 336:C:\Users\Depes Crystalline\Desktop\school\Active_Bike_Lighting_System\Radar_Core\Libraries\XMCLib\inc\xmc_dac.h ****  *
 337:C:\Users\Depes Crystalline\Desktop\school\Active_Bike_Lighting_System\Radar_Core\Libraries\XMCLib\inc\xmc_dac.h ****  * \par<b>Related APIs:</b><BR>
 338:C:\Users\Depes Crystalline\Desktop\school\Active_Bike_Lighting_System\Radar_Core\Libraries\XMCLib\inc\xmc_dac.h ****  * XMC_DAC_IsEnabled(), XMC_DAC_Disable(), XMC_DAC_CH_Init()\n\n\n
 339:C:\Users\Depes Crystalline\Desktop\school\Active_Bike_Lighting_System\Radar_Core\Libraries\XMCLib\inc\xmc_dac.h ****  *
 340:C:\Users\Depes Crystalline\Desktop\school\Active_Bike_Lighting_System\Radar_Core\Libraries\XMCLib\inc\xmc_dac.h ****  */
 341:C:\Users\Depes Crystalline\Desktop\school\Active_Bike_Lighting_System\Radar_Core\Libraries\XMCLib\inc\xmc_dac.h **** void XMC_DAC_Enable(XMC_DAC_t *const dac);
 342:C:\Users\Depes Crystalline\Desktop\school\Active_Bike_Lighting_System\Radar_Core\Libraries\XMCLib\inc\xmc_dac.h **** 
 343:C:\Users\Depes Crystalline\Desktop\school\Active_Bike_Lighting_System\Radar_Core\Libraries\XMCLib\inc\xmc_dac.h **** /**
 344:C:\Users\Depes Crystalline\Desktop\school\Active_Bike_Lighting_System\Radar_Core\Libraries\XMCLib\inc\xmc_dac.h ****  * @param dac Pointer to an instance of DAC module
 345:C:\Users\Depes Crystalline\Desktop\school\Active_Bike_Lighting_System\Radar_Core\Libraries\XMCLib\inc\xmc_dac.h ****  *
 346:C:\Users\Depes Crystalline\Desktop\school\Active_Bike_Lighting_System\Radar_Core\Libraries\XMCLib\inc\xmc_dac.h ****  * @return None
 347:C:\Users\Depes Crystalline\Desktop\school\Active_Bike_Lighting_System\Radar_Core\Libraries\XMCLib\inc\xmc_dac.h ****  *
 348:C:\Users\Depes Crystalline\Desktop\school\Active_Bike_Lighting_System\Radar_Core\Libraries\XMCLib\inc\xmc_dac.h ****  * \par<b>Description:</b><br>
 349:C:\Users\Depes Crystalline\Desktop\school\Active_Bike_Lighting_System\Radar_Core\Libraries\XMCLib\inc\xmc_dac.h ****  * Disables DAC clock and resets DAC.
 350:C:\Users\Depes Crystalline\Desktop\school\Active_Bike_Lighting_System\Radar_Core\Libraries\XMCLib\inc\xmc_dac.h ****  *
 351:C:\Users\Depes Crystalline\Desktop\school\Active_Bike_Lighting_System\Radar_Core\Libraries\XMCLib\inc\xmc_dac.h ****  * \par
 352:C:\Users\Depes Crystalline\Desktop\school\Active_Bike_Lighting_System\Radar_Core\Libraries\XMCLib\inc\xmc_dac.h ****  * DAC clock is disabled by setting \a DAC bit of \a CGATSET1 register. DAC is reset by setting \a 
 353:C:\Users\Depes Crystalline\Desktop\school\Active_Bike_Lighting_System\Radar_Core\Libraries\XMCLib\inc\xmc_dac.h ****  *
 354:C:\Users\Depes Crystalline\Desktop\school\Active_Bike_Lighting_System\Radar_Core\Libraries\XMCLib\inc\xmc_dac.h ****  * \par<b>Related APIs:</b><BR>
 355:C:\Users\Depes Crystalline\Desktop\school\Active_Bike_Lighting_System\Radar_Core\Libraries\XMCLib\inc\xmc_dac.h ****  * XMC_DAC_IsEnabled(), XMC_DAC_Enable()\n\n\n
 356:C:\Users\Depes Crystalline\Desktop\school\Active_Bike_Lighting_System\Radar_Core\Libraries\XMCLib\inc\xmc_dac.h ****  *
 357:C:\Users\Depes Crystalline\Desktop\school\Active_Bike_Lighting_System\Radar_Core\Libraries\XMCLib\inc\xmc_dac.h ****  */
 358:C:\Users\Depes Crystalline\Desktop\school\Active_Bike_Lighting_System\Radar_Core\Libraries\XMCLib\inc\xmc_dac.h **** void XMC_DAC_Disable(XMC_DAC_t *const dac);
 359:C:\Users\Depes Crystalline\Desktop\school\Active_Bike_Lighting_System\Radar_Core\Libraries\XMCLib\inc\xmc_dac.h **** 
 360:C:\Users\Depes Crystalline\Desktop\school\Active_Bike_Lighting_System\Radar_Core\Libraries\XMCLib\inc\xmc_dac.h **** /**
 361:C:\Users\Depes Crystalline\Desktop\school\Active_Bike_Lighting_System\Radar_Core\Libraries\XMCLib\inc\xmc_dac.h ****  * @param dac Pointer to an instance of DAC module
 362:C:\Users\Depes Crystalline\Desktop\school\Active_Bike_Lighting_System\Radar_Core\Libraries\XMCLib\inc\xmc_dac.h ****  *
 363:C:\Users\Depes Crystalline\Desktop\school\Active_Bike_Lighting_System\Radar_Core\Libraries\XMCLib\inc\xmc_dac.h ****  * @return bool<br>
 364:C:\Users\Depes Crystalline\Desktop\school\Active_Bike_Lighting_System\Radar_Core\Libraries\XMCLib\inc\xmc_dac.h ****  * true  - if DAC is enabled<br>
 365:C:\Users\Depes Crystalline\Desktop\school\Active_Bike_Lighting_System\Radar_Core\Libraries\XMCLib\inc\xmc_dac.h ****  * false - if DAC is disabled
 366:C:\Users\Depes Crystalline\Desktop\school\Active_Bike_Lighting_System\Radar_Core\Libraries\XMCLib\inc\xmc_dac.h ****  *
 367:C:\Users\Depes Crystalline\Desktop\school\Active_Bike_Lighting_System\Radar_Core\Libraries\XMCLib\inc\xmc_dac.h ****  * \par<b>Description:</b><br>
 368:C:\Users\Depes Crystalline\Desktop\school\Active_Bike_Lighting_System\Radar_Core\Libraries\XMCLib\inc\xmc_dac.h ****  * Returns the state of the DAC.
 369:C:\Users\Depes Crystalline\Desktop\school\Active_Bike_Lighting_System\Radar_Core\Libraries\XMCLib\inc\xmc_dac.h ****  *
 370:C:\Users\Depes Crystalline\Desktop\school\Active_Bike_Lighting_System\Radar_Core\Libraries\XMCLib\inc\xmc_dac.h ****  * \par
 371:C:\Users\Depes Crystalline\Desktop\school\Active_Bike_Lighting_System\Radar_Core\Libraries\XMCLib\inc\xmc_dac.h ****  * DAC enabled status is determined by referring to \a DACRS bit of \a PRSTAT1 register.
 372:C:\Users\Depes Crystalline\Desktop\school\Active_Bike_Lighting_System\Radar_Core\Libraries\XMCLib\inc\xmc_dac.h ****  *
 373:C:\Users\Depes Crystalline\Desktop\school\Active_Bike_Lighting_System\Radar_Core\Libraries\XMCLib\inc\xmc_dac.h ****  * \par<b>Related APIs:</b><BR>
 374:C:\Users\Depes Crystalline\Desktop\school\Active_Bike_Lighting_System\Radar_Core\Libraries\XMCLib\inc\xmc_dac.h ****  * XMC_DAC_Enable(), XMC_DAC_Disable()\n\n\n
 375:C:\Users\Depes Crystalline\Desktop\school\Active_Bike_Lighting_System\Radar_Core\Libraries\XMCLib\inc\xmc_dac.h ****  *
 376:C:\Users\Depes Crystalline\Desktop\school\Active_Bike_Lighting_System\Radar_Core\Libraries\XMCLib\inc\xmc_dac.h ****  */
 377:C:\Users\Depes Crystalline\Desktop\school\Active_Bike_Lighting_System\Radar_Core\Libraries\XMCLib\inc\xmc_dac.h **** bool XMC_DAC_IsEnabled(const XMC_DAC_t *const dac);
 378:C:\Users\Depes Crystalline\Desktop\school\Active_Bike_Lighting_System\Radar_Core\Libraries\XMCLib\inc\xmc_dac.h **** 
 379:C:\Users\Depes Crystalline\Desktop\school\Active_Bike_Lighting_System\Radar_Core\Libraries\XMCLib\inc\xmc_dac.h **** /**
 380:C:\Users\Depes Crystalline\Desktop\school\Active_Bike_Lighting_System\Radar_Core\Libraries\XMCLib\inc\xmc_dac.h ****  * @param dac Pointer to an instance of DAC module
 381:C:\Users\Depes Crystalline\Desktop\school\Active_Bike_Lighting_System\Radar_Core\Libraries\XMCLib\inc\xmc_dac.h ****  *
 382:C:\Users\Depes Crystalline\Desktop\school\Active_Bike_Lighting_System\Radar_Core\Libraries\XMCLib\inc\xmc_dac.h ****  * @return None
 383:C:\Users\Depes Crystalline\Desktop\school\Active_Bike_Lighting_System\Radar_Core\Libraries\XMCLib\inc\xmc_dac.h ****  *
 384:C:\Users\Depes Crystalline\Desktop\school\Active_Bike_Lighting_System\Radar_Core\Libraries\XMCLib\inc\xmc_dac.h ****  * \par<b>Description:</b><br>
 385:C:\Users\Depes Crystalline\Desktop\school\Active_Bike_Lighting_System\Radar_Core\Libraries\XMCLib\inc\xmc_dac.h ****  * DAC switches to Simultaneous data mode from Independent data mode.
 386:C:\Users\Depes Crystalline\Desktop\school\Active_Bike_Lighting_System\Radar_Core\Libraries\XMCLib\inc\xmc_dac.h ****  *
 387:C:\Users\Depes Crystalline\Desktop\school\Active_Bike_Lighting_System\Radar_Core\Libraries\XMCLib\inc\xmc_dac.h ****  * \par
 388:C:\Users\Depes Crystalline\Desktop\school\Active_Bike_Lighting_System\Radar_Core\Libraries\XMCLib\inc\xmc_dac.h ****  * Independent data mode is the default data mode.
 389:C:\Users\Depes Crystalline\Desktop\school\Active_Bike_Lighting_System\Radar_Core\Libraries\XMCLib\inc\xmc_dac.h ****  * Simultaneous data mode is enabled by setting \a DATMOD bit of \a DAC0CFG1 register.
 390:C:\Users\Depes Crystalline\Desktop\school\Active_Bike_Lighting_System\Radar_Core\Libraries\XMCLib\inc\xmc_dac.h ****  *
 391:C:\Users\Depes Crystalline\Desktop\school\Active_Bike_Lighting_System\Radar_Core\Libraries\XMCLib\inc\xmc_dac.h ****  * \par<b>Note:</b><br>
 392:C:\Users\Depes Crystalline\Desktop\school\Active_Bike_Lighting_System\Radar_Core\Libraries\XMCLib\inc\xmc_dac.h ****  * Set channel 0 and channel 1 to Data mode before calling this API.
 393:C:\Users\Depes Crystalline\Desktop\school\Active_Bike_Lighting_System\Radar_Core\Libraries\XMCLib\inc\xmc_dac.h ****  *
 394:C:\Users\Depes Crystalline\Desktop\school\Active_Bike_Lighting_System\Radar_Core\Libraries\XMCLib\inc\xmc_dac.h ****  * \par<b>Related APIs:</b><BR>
 395:C:\Users\Depes Crystalline\Desktop\school\Active_Bike_Lighting_System\Radar_Core\Libraries\XMCLib\inc\xmc_dac.h ****  * XMC_DAC_CH_StartSingleValueMode(), XMC_DAC_CH_StartDataMode(), XMC_DAC_SimultaneousWrite(), XMC_
 396:C:\Users\Depes Crystalline\Desktop\school\Active_Bike_Lighting_System\Radar_Core\Libraries\XMCLib\inc\xmc_dac.h ****  *
 397:C:\Users\Depes Crystalline\Desktop\school\Active_Bike_Lighting_System\Radar_Core\Libraries\XMCLib\inc\xmc_dac.h ****  */
 398:C:\Users\Depes Crystalline\Desktop\school\Active_Bike_Lighting_System\Radar_Core\Libraries\XMCLib\inc\xmc_dac.h **** __STATIC_INLINE void XMC_DAC_EnableSimultaneousDataMode(XMC_DAC_t *const dac)
 399:C:\Users\Depes Crystalline\Desktop\school\Active_Bike_Lighting_System\Radar_Core\Libraries\XMCLib\inc\xmc_dac.h **** {
  26              	 .loc 1 399 0
  27              	 .cfi_startproc
  28              	 
  29              	 
  30              	 
  31 0000 80B4     	 push {r7}
  32              	.LCFI0:
  33              	 .cfi_def_cfa_offset 4
  34              	 .cfi_offset 7,-4
  35 0002 83B0     	 sub sp,sp,#12
  36              	.LCFI1:
  37              	 .cfi_def_cfa_offset 16
  38 0004 00AF     	 add r7,sp,#0
  39              	.LCFI2:
  40              	 .cfi_def_cfa_register 7
  41 0006 7860     	 str r0,[r7,#4]
 400:C:\Users\Depes Crystalline\Desktop\school\Active_Bike_Lighting_System\Radar_Core\Libraries\XMCLib\inc\xmc_dac.h ****   dac->DACCFG[0].high |= DAC_DAC0CFG1_DATMOD_Msk;
  42              	 .loc 1 400 0
  43 0008 7B68     	 ldr r3,[r7,#4]
  44 000a 9B68     	 ldr r3,[r3,#8]
  45 000c 43F40042 	 orr r2,r3,#32768
  46 0010 7B68     	 ldr r3,[r7,#4]
  47 0012 9A60     	 str r2,[r3,#8]
 401:C:\Users\Depes Crystalline\Desktop\school\Active_Bike_Lighting_System\Radar_Core\Libraries\XMCLib\inc\xmc_dac.h **** }
  48              	 .loc 1 401 0
  49 0014 0C37     	 adds r7,r7,#12
  50              	.LCFI3:
  51              	 .cfi_def_cfa_offset 4
  52 0016 BD46     	 mov sp,r7
  53              	.LCFI4:
  54              	 .cfi_def_cfa_register 13
  55              	 
  56 0018 5DF8047B 	 ldr r7,[sp],#4
  57              	.LCFI5:
  58              	 .cfi_restore 7
  59              	 .cfi_def_cfa_offset 0
  60 001c 7047     	 bx lr
  61              	 .cfi_endproc
  62              	.LFE128:
  64 001e 00BF     	 .section .text.XMC_DAC_SimultaneousWrite,"ax",%progbits
  65              	 .align 2
  66              	 .thumb
  67              	 .thumb_func
  69              	XMC_DAC_SimultaneousWrite:
  70              	.LFB130:
 402:C:\Users\Depes Crystalline\Desktop\school\Active_Bike_Lighting_System\Radar_Core\Libraries\XMCLib\inc\xmc_dac.h **** 
 403:C:\Users\Depes Crystalline\Desktop\school\Active_Bike_Lighting_System\Radar_Core\Libraries\XMCLib\inc\xmc_dac.h **** /**
 404:C:\Users\Depes Crystalline\Desktop\school\Active_Bike_Lighting_System\Radar_Core\Libraries\XMCLib\inc\xmc_dac.h ****  * @param dac Pointer to an instance of DAC module
 405:C:\Users\Depes Crystalline\Desktop\school\Active_Bike_Lighting_System\Radar_Core\Libraries\XMCLib\inc\xmc_dac.h ****  *
 406:C:\Users\Depes Crystalline\Desktop\school\Active_Bike_Lighting_System\Radar_Core\Libraries\XMCLib\inc\xmc_dac.h ****  * @return None
 407:C:\Users\Depes Crystalline\Desktop\school\Active_Bike_Lighting_System\Radar_Core\Libraries\XMCLib\inc\xmc_dac.h ****  *
 408:C:\Users\Depes Crystalline\Desktop\school\Active_Bike_Lighting_System\Radar_Core\Libraries\XMCLib\inc\xmc_dac.h ****  * \par<b>Description:</b><br>
 409:C:\Users\Depes Crystalline\Desktop\school\Active_Bike_Lighting_System\Radar_Core\Libraries\XMCLib\inc\xmc_dac.h ****  * DAC switches to independent data mode from simultaneous Data mode.
 410:C:\Users\Depes Crystalline\Desktop\school\Active_Bike_Lighting_System\Radar_Core\Libraries\XMCLib\inc\xmc_dac.h ****  *
 411:C:\Users\Depes Crystalline\Desktop\school\Active_Bike_Lighting_System\Radar_Core\Libraries\XMCLib\inc\xmc_dac.h ****  * \par
 412:C:\Users\Depes Crystalline\Desktop\school\Active_Bike_Lighting_System\Radar_Core\Libraries\XMCLib\inc\xmc_dac.h ****  * Independent data mode is the default data mode.
 413:C:\Users\Depes Crystalline\Desktop\school\Active_Bike_Lighting_System\Radar_Core\Libraries\XMCLib\inc\xmc_dac.h ****  * Simultaneous data mode is disabled by clearing \a DATMOD bit of \a DAC0CFG1 register.
 414:C:\Users\Depes Crystalline\Desktop\school\Active_Bike_Lighting_System\Radar_Core\Libraries\XMCLib\inc\xmc_dac.h ****  *
 415:C:\Users\Depes Crystalline\Desktop\school\Active_Bike_Lighting_System\Radar_Core\Libraries\XMCLib\inc\xmc_dac.h ****  * \par<b>Related APIs:</b><BR>
 416:C:\Users\Depes Crystalline\Desktop\school\Active_Bike_Lighting_System\Radar_Core\Libraries\XMCLib\inc\xmc_dac.h ****  * XMC_DAC_CH_StartDataMode(), XMC_DAC_EnableSimultaneousDataMode()\n\n\n
 417:C:\Users\Depes Crystalline\Desktop\school\Active_Bike_Lighting_System\Radar_Core\Libraries\XMCLib\inc\xmc_dac.h ****  *
 418:C:\Users\Depes Crystalline\Desktop\school\Active_Bike_Lighting_System\Radar_Core\Libraries\XMCLib\inc\xmc_dac.h ****  */
 419:C:\Users\Depes Crystalline\Desktop\school\Active_Bike_Lighting_System\Radar_Core\Libraries\XMCLib\inc\xmc_dac.h **** __STATIC_INLINE void XMC_DAC_DisableSimultaneousDataMode(XMC_DAC_t *const dac)
 420:C:\Users\Depes Crystalline\Desktop\school\Active_Bike_Lighting_System\Radar_Core\Libraries\XMCLib\inc\xmc_dac.h **** {
 421:C:\Users\Depes Crystalline\Desktop\school\Active_Bike_Lighting_System\Radar_Core\Libraries\XMCLib\inc\xmc_dac.h ****   dac->DACCFG[0].high &= ~DAC_DAC0CFG1_DATMOD_Msk;
 422:C:\Users\Depes Crystalline\Desktop\school\Active_Bike_Lighting_System\Radar_Core\Libraries\XMCLib\inc\xmc_dac.h **** }
 423:C:\Users\Depes Crystalline\Desktop\school\Active_Bike_Lighting_System\Radar_Core\Libraries\XMCLib\inc\xmc_dac.h **** 
 424:C:\Users\Depes Crystalline\Desktop\school\Active_Bike_Lighting_System\Radar_Core\Libraries\XMCLib\inc\xmc_dac.h **** /**
 425:C:\Users\Depes Crystalline\Desktop\school\Active_Bike_Lighting_System\Radar_Core\Libraries\XMCLib\inc\xmc_dac.h ****  * @param dac Pointer to an instance of DAC module
 426:C:\Users\Depes Crystalline\Desktop\school\Active_Bike_Lighting_System\Radar_Core\Libraries\XMCLib\inc\xmc_dac.h ****  * @param data0 Data for DAC channel 0 [0-4095]
 427:C:\Users\Depes Crystalline\Desktop\school\Active_Bike_Lighting_System\Radar_Core\Libraries\XMCLib\inc\xmc_dac.h ****  * @param data1 Data for DAC channel 1 [0-4095]
 428:C:\Users\Depes Crystalline\Desktop\school\Active_Bike_Lighting_System\Radar_Core\Libraries\XMCLib\inc\xmc_dac.h ****  *
 429:C:\Users\Depes Crystalline\Desktop\school\Active_Bike_Lighting_System\Radar_Core\Libraries\XMCLib\inc\xmc_dac.h ****  * @return None
 430:C:\Users\Depes Crystalline\Desktop\school\Active_Bike_Lighting_System\Radar_Core\Libraries\XMCLib\inc\xmc_dac.h ****  *
 431:C:\Users\Depes Crystalline\Desktop\school\Active_Bike_Lighting_System\Radar_Core\Libraries\XMCLib\inc\xmc_dac.h ****  * \par<b>Description:</b><br>
 432:C:\Users\Depes Crystalline\Desktop\school\Active_Bike_Lighting_System\Radar_Core\Libraries\XMCLib\inc\xmc_dac.h ****  * The data (\e data0 & \e data1) to be converted by channel 0 & channel 1 are updated to \a DATA1 
 433:C:\Users\Depes Crystalline\Desktop\school\Active_Bike_Lighting_System\Radar_Core\Libraries\XMCLib\inc\xmc_dac.h ****  * data0 and data1 have the range of [0-4095].
 434:C:\Users\Depes Crystalline\Desktop\school\Active_Bike_Lighting_System\Radar_Core\Libraries\XMCLib\inc\xmc_dac.h ****  *
 435:C:\Users\Depes Crystalline\Desktop\school\Active_Bike_Lighting_System\Radar_Core\Libraries\XMCLib\inc\xmc_dac.h ****  * \par<b>Note:</b><br>
 436:C:\Users\Depes Crystalline\Desktop\school\Active_Bike_Lighting_System\Radar_Core\Libraries\XMCLib\inc\xmc_dac.h ****  * Channel 0 and Channel 1 should be set to simultaneous data mode before calling this API.
 437:C:\Users\Depes Crystalline\Desktop\school\Active_Bike_Lighting_System\Radar_Core\Libraries\XMCLib\inc\xmc_dac.h ****  *
 438:C:\Users\Depes Crystalline\Desktop\school\Active_Bike_Lighting_System\Radar_Core\Libraries\XMCLib\inc\xmc_dac.h ****  * \par<b>Related APIs:</b><BR>
 439:C:\Users\Depes Crystalline\Desktop\school\Active_Bike_Lighting_System\Radar_Core\Libraries\XMCLib\inc\xmc_dac.h ****  * XMC_DAC_EnableSimultaneousDataMode()\n\n\n
 440:C:\Users\Depes Crystalline\Desktop\school\Active_Bike_Lighting_System\Radar_Core\Libraries\XMCLib\inc\xmc_dac.h ****  *
 441:C:\Users\Depes Crystalline\Desktop\school\Active_Bike_Lighting_System\Radar_Core\Libraries\XMCLib\inc\xmc_dac.h ****  */
 442:C:\Users\Depes Crystalline\Desktop\school\Active_Bike_Lighting_System\Radar_Core\Libraries\XMCLib\inc\xmc_dac.h **** __STATIC_INLINE void XMC_DAC_SimultaneousWrite(XMC_DAC_t *const dac, const uint16_t data0, const ui
 443:C:\Users\Depes Crystalline\Desktop\school\Active_Bike_Lighting_System\Radar_Core\Libraries\XMCLib\inc\xmc_dac.h **** {
  71              	 .loc 1 443 0
  72              	 .cfi_startproc
  73              	 
  74              	 
  75              	 
  76 0000 80B4     	 push {r7}
  77              	.LCFI6:
  78              	 .cfi_def_cfa_offset 4
  79              	 .cfi_offset 7,-4
  80 0002 83B0     	 sub sp,sp,#12
  81              	.LCFI7:
  82              	 .cfi_def_cfa_offset 16
  83 0004 00AF     	 add r7,sp,#0
  84              	.LCFI8:
  85              	 .cfi_def_cfa_register 7
  86 0006 7860     	 str r0,[r7,#4]
  87 0008 0B46     	 mov r3,r1
  88 000a 7B80     	 strh r3,[r7,#2]
  89 000c 1346     	 mov r3,r2
  90 000e 3B80     	 strh r3,[r7]
 444:C:\Users\Depes Crystalline\Desktop\school\Active_Bike_Lighting_System\Radar_Core\Libraries\XMCLib\inc\xmc_dac.h ****   dac->DAC01DATA = (data0 << DAC_DAC01DATA_DATA0_Pos) | (data1 << DAC_DAC01DATA_DATA1_Pos);
  91              	 .loc 1 444 0
  92 0010 7A88     	 ldrh r2,[r7,#2]
  93 0012 3B88     	 ldrh r3,[r7]
  94 0014 1B04     	 lsls r3,r3,#16
  95 0016 1343     	 orrs r3,r3,r2
  96 0018 1A46     	 mov r2,r3
  97 001a 7B68     	 ldr r3,[r7,#4]
  98 001c DA61     	 str r2,[r3,#28]
 445:C:\Users\Depes Crystalline\Desktop\school\Active_Bike_Lighting_System\Radar_Core\Libraries\XMCLib\inc\xmc_dac.h **** }
  99              	 .loc 1 445 0
 100 001e 0C37     	 adds r7,r7,#12
 101              	.LCFI9:
 102              	 .cfi_def_cfa_offset 4
 103 0020 BD46     	 mov sp,r7
 104              	.LCFI10:
 105              	 .cfi_def_cfa_register 13
 106              	 
 107 0022 5DF8047B 	 ldr r7,[sp],#4
 108              	.LCFI11:
 109              	 .cfi_restore 7
 110              	 .cfi_def_cfa_offset 0
 111 0026 7047     	 bx lr
 112              	 .cfi_endproc
 113              	.LFE130:
 115              	 .section .text.XMC_DAC_CH_Write,"ax",%progbits
 116              	 .align 2
 117              	 .thumb
 118              	 .thumb_func
 120              	XMC_DAC_CH_Write:
 121              	.LFB134:
 446:C:\Users\Depes Crystalline\Desktop\school\Active_Bike_Lighting_System\Radar_Core\Libraries\XMCLib\inc\xmc_dac.h **** 
 447:C:\Users\Depes Crystalline\Desktop\school\Active_Bike_Lighting_System\Radar_Core\Libraries\XMCLib\inc\xmc_dac.h **** /**
 448:C:\Users\Depes Crystalline\Desktop\school\Active_Bike_Lighting_System\Radar_Core\Libraries\XMCLib\inc\xmc_dac.h ****  * @param dac Pointer to an instance of DAC module
 449:C:\Users\Depes Crystalline\Desktop\school\Active_Bike_Lighting_System\Radar_Core\Libraries\XMCLib\inc\xmc_dac.h ****  * @param channel DAC channel number
 450:C:\Users\Depes Crystalline\Desktop\school\Active_Bike_Lighting_System\Radar_Core\Libraries\XMCLib\inc\xmc_dac.h ****  * @param config Pointer to the DAC channel configuration structure
 451:C:\Users\Depes Crystalline\Desktop\school\Active_Bike_Lighting_System\Radar_Core\Libraries\XMCLib\inc\xmc_dac.h ****  *
 452:C:\Users\Depes Crystalline\Desktop\school\Active_Bike_Lighting_System\Radar_Core\Libraries\XMCLib\inc\xmc_dac.h ****  * @return None
 453:C:\Users\Depes Crystalline\Desktop\school\Active_Bike_Lighting_System\Radar_Core\Libraries\XMCLib\inc\xmc_dac.h ****  *
 454:C:\Users\Depes Crystalline\Desktop\school\Active_Bike_Lighting_System\Radar_Core\Libraries\XMCLib\inc\xmc_dac.h ****  * \par<b>Description:</b><br>
 455:C:\Users\Depes Crystalline\Desktop\school\Active_Bike_Lighting_System\Radar_Core\Libraries\XMCLib\inc\xmc_dac.h ****  * Initialises and configures the DAC \e channel with the configuration date pointed by \e config.
 456:C:\Users\Depes Crystalline\Desktop\school\Active_Bike_Lighting_System\Radar_Core\Libraries\XMCLib\inc\xmc_dac.h ****  *
 457:C:\Users\Depes Crystalline\Desktop\school\Active_Bike_Lighting_System\Radar_Core\Libraries\XMCLib\inc\xmc_dac.h ****  * \par
 458:C:\Users\Depes Crystalline\Desktop\school\Active_Bike_Lighting_System\Radar_Core\Libraries\XMCLib\inc\xmc_dac.h ****  * DAC channel is initialised by configuring the registers \a DAC0CFG0 and \a DAC0CFG1 registers (f
 459:C:\Users\Depes Crystalline\Desktop\school\Active_Bike_Lighting_System\Radar_Core\Libraries\XMCLib\inc\xmc_dac.h ****  * It enables the channel output by calling XMC_DAC_CH_EnableOutput().
 460:C:\Users\Depes Crystalline\Desktop\school\Active_Bike_Lighting_System\Radar_Core\Libraries\XMCLib\inc\xmc_dac.h ****  *
 461:C:\Users\Depes Crystalline\Desktop\school\Active_Bike_Lighting_System\Radar_Core\Libraries\XMCLib\inc\xmc_dac.h ****  */
 462:C:\Users\Depes Crystalline\Desktop\school\Active_Bike_Lighting_System\Radar_Core\Libraries\XMCLib\inc\xmc_dac.h **** void XMC_DAC_CH_Init(XMC_DAC_t *const dac, const uint8_t channel, const XMC_DAC_CH_CONFIG_t *const 
 463:C:\Users\Depes Crystalline\Desktop\school\Active_Bike_Lighting_System\Radar_Core\Libraries\XMCLib\inc\xmc_dac.h **** 
 464:C:\Users\Depes Crystalline\Desktop\school\Active_Bike_Lighting_System\Radar_Core\Libraries\XMCLib\inc\xmc_dac.h **** /**
 465:C:\Users\Depes Crystalline\Desktop\school\Active_Bike_Lighting_System\Radar_Core\Libraries\XMCLib\inc\xmc_dac.h ****  * @param dac Pointer to an instance of DAC module
 466:C:\Users\Depes Crystalline\Desktop\school\Active_Bike_Lighting_System\Radar_Core\Libraries\XMCLib\inc\xmc_dac.h ****  * @param channel DAC channel number
 467:C:\Users\Depes Crystalline\Desktop\school\Active_Bike_Lighting_System\Radar_Core\Libraries\XMCLib\inc\xmc_dac.h ****  *
 468:C:\Users\Depes Crystalline\Desktop\school\Active_Bike_Lighting_System\Radar_Core\Libraries\XMCLib\inc\xmc_dac.h ****  * @return None
 469:C:\Users\Depes Crystalline\Desktop\school\Active_Bike_Lighting_System\Radar_Core\Libraries\XMCLib\inc\xmc_dac.h ****  *
 470:C:\Users\Depes Crystalline\Desktop\school\Active_Bike_Lighting_System\Radar_Core\Libraries\XMCLib\inc\xmc_dac.h ****  * \par<b>Description:</b><br>
 471:C:\Users\Depes Crystalline\Desktop\school\Active_Bike_Lighting_System\Radar_Core\Libraries\XMCLib\inc\xmc_dac.h ****  * Channel \a channel output is enabled by setting the \a ANAEN bit of \a DAC0CFG1 register (for ch
 472:C:\Users\Depes Crystalline\Desktop\school\Active_Bike_Lighting_System\Radar_Core\Libraries\XMCLib\inc\xmc_dac.h ****  *
 473:C:\Users\Depes Crystalline\Desktop\school\Active_Bike_Lighting_System\Radar_Core\Libraries\XMCLib\inc\xmc_dac.h ****  * \par<b>Note:</b><BR>
 474:C:\Users\Depes Crystalline\Desktop\school\Active_Bike_Lighting_System\Radar_Core\Libraries\XMCLib\inc\xmc_dac.h ****  * \a tSTARTUP time for DAC analog output starts after the \a ANAEN bit is set to one.
 475:C:\Users\Depes Crystalline\Desktop\school\Active_Bike_Lighting_System\Radar_Core\Libraries\XMCLib\inc\xmc_dac.h ****  * After the expiry of the startup time the default value is driven to DAC output and a new value c
 476:C:\Users\Depes Crystalline\Desktop\school\Active_Bike_Lighting_System\Radar_Core\Libraries\XMCLib\inc\xmc_dac.h ****  *
 477:C:\Users\Depes Crystalline\Desktop\school\Active_Bike_Lighting_System\Radar_Core\Libraries\XMCLib\inc\xmc_dac.h ****  * \par<b>Related APIs:</b><BR>
 478:C:\Users\Depes Crystalline\Desktop\school\Active_Bike_Lighting_System\Radar_Core\Libraries\XMCLib\inc\xmc_dac.h ****  * XMC_DAC_CH_DisableOutput(), XMC_DAC_CH_IsOutputEnabled()\n\n\n
 479:C:\Users\Depes Crystalline\Desktop\school\Active_Bike_Lighting_System\Radar_Core\Libraries\XMCLib\inc\xmc_dac.h ****  *
 480:C:\Users\Depes Crystalline\Desktop\school\Active_Bike_Lighting_System\Radar_Core\Libraries\XMCLib\inc\xmc_dac.h ****  */
 481:C:\Users\Depes Crystalline\Desktop\school\Active_Bike_Lighting_System\Radar_Core\Libraries\XMCLib\inc\xmc_dac.h **** __STATIC_INLINE void XMC_DAC_CH_EnableOutput(XMC_DAC_t *const dac, const uint8_t channel)
 482:C:\Users\Depes Crystalline\Desktop\school\Active_Bike_Lighting_System\Radar_Core\Libraries\XMCLib\inc\xmc_dac.h **** {
 483:C:\Users\Depes Crystalline\Desktop\school\Active_Bike_Lighting_System\Radar_Core\Libraries\XMCLib\inc\xmc_dac.h ****   dac->DACCFG[channel].high |= DAC_DAC0CFG1_ANAEN_Msk;
 484:C:\Users\Depes Crystalline\Desktop\school\Active_Bike_Lighting_System\Radar_Core\Libraries\XMCLib\inc\xmc_dac.h **** }
 485:C:\Users\Depes Crystalline\Desktop\school\Active_Bike_Lighting_System\Radar_Core\Libraries\XMCLib\inc\xmc_dac.h **** 
 486:C:\Users\Depes Crystalline\Desktop\school\Active_Bike_Lighting_System\Radar_Core\Libraries\XMCLib\inc\xmc_dac.h **** /**
 487:C:\Users\Depes Crystalline\Desktop\school\Active_Bike_Lighting_System\Radar_Core\Libraries\XMCLib\inc\xmc_dac.h ****  * @param dac Pointer to an instance of DAC module
 488:C:\Users\Depes Crystalline\Desktop\school\Active_Bike_Lighting_System\Radar_Core\Libraries\XMCLib\inc\xmc_dac.h ****  * @param channel DAC channel number
 489:C:\Users\Depes Crystalline\Desktop\school\Active_Bike_Lighting_System\Radar_Core\Libraries\XMCLib\inc\xmc_dac.h ****  *
 490:C:\Users\Depes Crystalline\Desktop\school\Active_Bike_Lighting_System\Radar_Core\Libraries\XMCLib\inc\xmc_dac.h ****  * @return None
 491:C:\Users\Depes Crystalline\Desktop\school\Active_Bike_Lighting_System\Radar_Core\Libraries\XMCLib\inc\xmc_dac.h ****  *
 492:C:\Users\Depes Crystalline\Desktop\school\Active_Bike_Lighting_System\Radar_Core\Libraries\XMCLib\inc\xmc_dac.h ****  * \par<b>Description:</b><br>
 493:C:\Users\Depes Crystalline\Desktop\school\Active_Bike_Lighting_System\Radar_Core\Libraries\XMCLib\inc\xmc_dac.h ****  * Channel \a channel output is disabled by clearing the \a ANAEN bit of \a DAC0CFG1 register (for 
 494:C:\Users\Depes Crystalline\Desktop\school\Active_Bike_Lighting_System\Radar_Core\Libraries\XMCLib\inc\xmc_dac.h ****  *
 495:C:\Users\Depes Crystalline\Desktop\school\Active_Bike_Lighting_System\Radar_Core\Libraries\XMCLib\inc\xmc_dac.h ****  * \par
 496:C:\Users\Depes Crystalline\Desktop\school\Active_Bike_Lighting_System\Radar_Core\Libraries\XMCLib\inc\xmc_dac.h ****  * A call to this API stops driving the converted digital input to its output.
 497:C:\Users\Depes Crystalline\Desktop\school\Active_Bike_Lighting_System\Radar_Core\Libraries\XMCLib\inc\xmc_dac.h ****  *
 498:C:\Users\Depes Crystalline\Desktop\school\Active_Bike_Lighting_System\Radar_Core\Libraries\XMCLib\inc\xmc_dac.h ****  * \par<b>Related APIs:</b><BR>
 499:C:\Users\Depes Crystalline\Desktop\school\Active_Bike_Lighting_System\Radar_Core\Libraries\XMCLib\inc\xmc_dac.h ****  * XMC_DAC_CH_EnableOutput(), XMC_DAC_CH_IsOutputEnabled()\n\n\n
 500:C:\Users\Depes Crystalline\Desktop\school\Active_Bike_Lighting_System\Radar_Core\Libraries\XMCLib\inc\xmc_dac.h ****  *
 501:C:\Users\Depes Crystalline\Desktop\school\Active_Bike_Lighting_System\Radar_Core\Libraries\XMCLib\inc\xmc_dac.h ****  */
 502:C:\Users\Depes Crystalline\Desktop\school\Active_Bike_Lighting_System\Radar_Core\Libraries\XMCLib\inc\xmc_dac.h **** __STATIC_INLINE void XMC_DAC_CH_DisableOutput(XMC_DAC_t *const dac, const uint8_t channel)
 503:C:\Users\Depes Crystalline\Desktop\school\Active_Bike_Lighting_System\Radar_Core\Libraries\XMCLib\inc\xmc_dac.h **** {
 504:C:\Users\Depes Crystalline\Desktop\school\Active_Bike_Lighting_System\Radar_Core\Libraries\XMCLib\inc\xmc_dac.h ****   dac->DACCFG[channel].high &= ~DAC_DAC0CFG1_ANAEN_Msk;
 505:C:\Users\Depes Crystalline\Desktop\school\Active_Bike_Lighting_System\Radar_Core\Libraries\XMCLib\inc\xmc_dac.h **** }
 506:C:\Users\Depes Crystalline\Desktop\school\Active_Bike_Lighting_System\Radar_Core\Libraries\XMCLib\inc\xmc_dac.h **** 
 507:C:\Users\Depes Crystalline\Desktop\school\Active_Bike_Lighting_System\Radar_Core\Libraries\XMCLib\inc\xmc_dac.h **** /**
 508:C:\Users\Depes Crystalline\Desktop\school\Active_Bike_Lighting_System\Radar_Core\Libraries\XMCLib\inc\xmc_dac.h ****  * @param dac Pointer to an instance of DAC module
 509:C:\Users\Depes Crystalline\Desktop\school\Active_Bike_Lighting_System\Radar_Core\Libraries\XMCLib\inc\xmc_dac.h ****  * @param channel DAC channel number
 510:C:\Users\Depes Crystalline\Desktop\school\Active_Bike_Lighting_System\Radar_Core\Libraries\XMCLib\inc\xmc_dac.h ****  *
 511:C:\Users\Depes Crystalline\Desktop\school\Active_Bike_Lighting_System\Radar_Core\Libraries\XMCLib\inc\xmc_dac.h ****  * @return bool <BR>
 512:C:\Users\Depes Crystalline\Desktop\school\Active_Bike_Lighting_System\Radar_Core\Libraries\XMCLib\inc\xmc_dac.h ****  * true  - if analog output is enabled <BR>
 513:C:\Users\Depes Crystalline\Desktop\school\Active_Bike_Lighting_System\Radar_Core\Libraries\XMCLib\inc\xmc_dac.h ****  * false - if analog output is disabled <BR>
 514:C:\Users\Depes Crystalline\Desktop\school\Active_Bike_Lighting_System\Radar_Core\Libraries\XMCLib\inc\xmc_dac.h ****  *
 515:C:\Users\Depes Crystalline\Desktop\school\Active_Bike_Lighting_System\Radar_Core\Libraries\XMCLib\inc\xmc_dac.h ****  * \par<b>Description:</b><br>
 516:C:\Users\Depes Crystalline\Desktop\school\Active_Bike_Lighting_System\Radar_Core\Libraries\XMCLib\inc\xmc_dac.h ****  * Returns the status of DAC analog output.
 517:C:\Users\Depes Crystalline\Desktop\school\Active_Bike_Lighting_System\Radar_Core\Libraries\XMCLib\inc\xmc_dac.h ****  *
 518:C:\Users\Depes Crystalline\Desktop\school\Active_Bike_Lighting_System\Radar_Core\Libraries\XMCLib\inc\xmc_dac.h ****  * \par
 519:C:\Users\Depes Crystalline\Desktop\school\Active_Bike_Lighting_System\Radar_Core\Libraries\XMCLib\inc\xmc_dac.h ****  * Channel \a channel output enabled or disabled is determined by reading the \a ANAEN bit of \a DA
 520:C:\Users\Depes Crystalline\Desktop\school\Active_Bike_Lighting_System\Radar_Core\Libraries\XMCLib\inc\xmc_dac.h ****  *
 521:C:\Users\Depes Crystalline\Desktop\school\Active_Bike_Lighting_System\Radar_Core\Libraries\XMCLib\inc\xmc_dac.h ****  * \par<b>Related APIs:</b><BR>
 522:C:\Users\Depes Crystalline\Desktop\school\Active_Bike_Lighting_System\Radar_Core\Libraries\XMCLib\inc\xmc_dac.h ****  * XMC_DAC_CH_EnableOutput(), XMC_DAC_CH_DisableOutput()\n\n\n
 523:C:\Users\Depes Crystalline\Desktop\school\Active_Bike_Lighting_System\Radar_Core\Libraries\XMCLib\inc\xmc_dac.h ****  *
 524:C:\Users\Depes Crystalline\Desktop\school\Active_Bike_Lighting_System\Radar_Core\Libraries\XMCLib\inc\xmc_dac.h ****  */
 525:C:\Users\Depes Crystalline\Desktop\school\Active_Bike_Lighting_System\Radar_Core\Libraries\XMCLib\inc\xmc_dac.h **** __STATIC_INLINE bool XMC_DAC_CH_IsOutputEnabled(const XMC_DAC_t *const dac, const uint8_t channel)
 526:C:\Users\Depes Crystalline\Desktop\school\Active_Bike_Lighting_System\Radar_Core\Libraries\XMCLib\inc\xmc_dac.h **** {
 527:C:\Users\Depes Crystalline\Desktop\school\Active_Bike_Lighting_System\Radar_Core\Libraries\XMCLib\inc\xmc_dac.h ****   return (bool)(dac->DACCFG[channel].high & DAC_DAC0CFG1_ANAEN_Msk);
 528:C:\Users\Depes Crystalline\Desktop\school\Active_Bike_Lighting_System\Radar_Core\Libraries\XMCLib\inc\xmc_dac.h **** }
 529:C:\Users\Depes Crystalline\Desktop\school\Active_Bike_Lighting_System\Radar_Core\Libraries\XMCLib\inc\xmc_dac.h **** 
 530:C:\Users\Depes Crystalline\Desktop\school\Active_Bike_Lighting_System\Radar_Core\Libraries\XMCLib\inc\xmc_dac.h **** /**
 531:C:\Users\Depes Crystalline\Desktop\school\Active_Bike_Lighting_System\Radar_Core\Libraries\XMCLib\inc\xmc_dac.h ****  * @param dac Pointer to an instance of DAC module
 532:C:\Users\Depes Crystalline\Desktop\school\Active_Bike_Lighting_System\Radar_Core\Libraries\XMCLib\inc\xmc_dac.h ****  * @param channel DAC channel number
 533:C:\Users\Depes Crystalline\Desktop\school\Active_Bike_Lighting_System\Radar_Core\Libraries\XMCLib\inc\xmc_dac.h ****  * @param data Data to be written  [0-4095]
 534:C:\Users\Depes Crystalline\Desktop\school\Active_Bike_Lighting_System\Radar_Core\Libraries\XMCLib\inc\xmc_dac.h ****  *
 535:C:\Users\Depes Crystalline\Desktop\school\Active_Bike_Lighting_System\Radar_Core\Libraries\XMCLib\inc\xmc_dac.h ****  * @return None
 536:C:\Users\Depes Crystalline\Desktop\school\Active_Bike_Lighting_System\Radar_Core\Libraries\XMCLib\inc\xmc_dac.h ****  *
 537:C:\Users\Depes Crystalline\Desktop\school\Active_Bike_Lighting_System\Radar_Core\Libraries\XMCLib\inc\xmc_dac.h ****  * \par<b>Description:</b><br>
 538:C:\Users\Depes Crystalline\Desktop\school\Active_Bike_Lighting_System\Radar_Core\Libraries\XMCLib\inc\xmc_dac.h ****  * Writes the \e data to the \e channel's DATA register.
 539:C:\Users\Depes Crystalline\Desktop\school\Active_Bike_Lighting_System\Radar_Core\Libraries\XMCLib\inc\xmc_dac.h ****  *
 540:C:\Users\Depes Crystalline\Desktop\school\Active_Bike_Lighting_System\Radar_Core\Libraries\XMCLib\inc\xmc_dac.h ****  * \par
 541:C:\Users\Depes Crystalline\Desktop\school\Active_Bike_Lighting_System\Radar_Core\Libraries\XMCLib\inc\xmc_dac.h ****  * The \e data is then converted and driven to the output.
 542:C:\Users\Depes Crystalline\Desktop\school\Active_Bike_Lighting_System\Radar_Core\Libraries\XMCLib\inc\xmc_dac.h ****  * If the trigger is set, On a trigger event the data in DATA register is converted and driven to \
 543:C:\Users\Depes Crystalline\Desktop\school\Active_Bike_Lighting_System\Radar_Core\Libraries\XMCLib\inc\xmc_dac.h ****  * Data \a data is written to the \a channel by loading \a data to \a DATA0 bit-field of \a DAC0DAT
 544:C:\Users\Depes Crystalline\Desktop\school\Active_Bike_Lighting_System\Radar_Core\Libraries\XMCLib\inc\xmc_dac.h ****  * data has the range of [0-4095].
 545:C:\Users\Depes Crystalline\Desktop\school\Active_Bike_Lighting_System\Radar_Core\Libraries\XMCLib\inc\xmc_dac.h ****  *
 546:C:\Users\Depes Crystalline\Desktop\school\Active_Bike_Lighting_System\Radar_Core\Libraries\XMCLib\inc\xmc_dac.h ****  * \par<b>Note:</b><br>
 547:C:\Users\Depes Crystalline\Desktop\school\Active_Bike_Lighting_System\Radar_Core\Libraries\XMCLib\inc\xmc_dac.h ****  * The API can be used for Single Value Mode, Data Mode (Individual) & Ramp Mode.
 548:C:\Users\Depes Crystalline\Desktop\school\Active_Bike_Lighting_System\Radar_Core\Libraries\XMCLib\inc\xmc_dac.h ****  * Call XMC_DAC_CH_EnableOutput() API to enable analog output.
 549:C:\Users\Depes Crystalline\Desktop\school\Active_Bike_Lighting_System\Radar_Core\Libraries\XMCLib\inc\xmc_dac.h ****  *
 550:C:\Users\Depes Crystalline\Desktop\school\Active_Bike_Lighting_System\Radar_Core\Libraries\XMCLib\inc\xmc_dac.h ****  * \par<b>Related APIs:</b><BR>
 551:C:\Users\Depes Crystalline\Desktop\school\Active_Bike_Lighting_System\Radar_Core\Libraries\XMCLib\inc\xmc_dac.h ****  * XMC_DAC_CH_StartSingleValueMode(), XMC_DAC_CH_StartDataMode(), XMC_DAC_CH_StartRampMode()\n\n\n
 552:C:\Users\Depes Crystalline\Desktop\school\Active_Bike_Lighting_System\Radar_Core\Libraries\XMCLib\inc\xmc_dac.h ****  *
 553:C:\Users\Depes Crystalline\Desktop\school\Active_Bike_Lighting_System\Radar_Core\Libraries\XMCLib\inc\xmc_dac.h ****  */
 554:C:\Users\Depes Crystalline\Desktop\school\Active_Bike_Lighting_System\Radar_Core\Libraries\XMCLib\inc\xmc_dac.h **** __STATIC_INLINE void XMC_DAC_CH_Write(XMC_DAC_t *const dac, const uint8_t channel, const uint16_t d
 555:C:\Users\Depes Crystalline\Desktop\school\Active_Bike_Lighting_System\Radar_Core\Libraries\XMCLib\inc\xmc_dac.h **** {
 122              	 .loc 1 555 0
 123              	 .cfi_startproc
 124              	 
 125              	 
 126              	 
 127 0000 80B4     	 push {r7}
 128              	.LCFI12:
 129              	 .cfi_def_cfa_offset 4
 130              	 .cfi_offset 7,-4
 131 0002 83B0     	 sub sp,sp,#12
 132              	.LCFI13:
 133              	 .cfi_def_cfa_offset 16
 134 0004 00AF     	 add r7,sp,#0
 135              	.LCFI14:
 136              	 .cfi_def_cfa_register 7
 137 0006 7860     	 str r0,[r7,#4]
 138 0008 0B46     	 mov r3,r1
 139 000a FB70     	 strb r3,[r7,#3]
 140 000c 1346     	 mov r3,r2
 141 000e 3B80     	 strh r3,[r7]
 556:C:\Users\Depes Crystalline\Desktop\school\Active_Bike_Lighting_System\Radar_Core\Libraries\XMCLib\inc\xmc_dac.h ****   dac->DACDATA[channel] = data;
 142              	 .loc 1 556 0
 143 0010 FB78     	 ldrb r3,[r7,#3]
 144 0012 3A88     	 ldrh r2,[r7]
 145 0014 7968     	 ldr r1,[r7,#4]
 146 0016 0433     	 adds r3,r3,#4
 147 0018 9B00     	 lsls r3,r3,#2
 148 001a 0B44     	 add r3,r3,r1
 149 001c 5A60     	 str r2,[r3,#4]
 557:C:\Users\Depes Crystalline\Desktop\school\Active_Bike_Lighting_System\Radar_Core\Libraries\XMCLib\inc\xmc_dac.h **** }
 150              	 .loc 1 557 0
 151 001e 0C37     	 adds r7,r7,#12
 152              	.LCFI15:
 153              	 .cfi_def_cfa_offset 4
 154 0020 BD46     	 mov sp,r7
 155              	.LCFI16:
 156              	 .cfi_def_cfa_register 13
 157              	 
 158 0022 5DF8047B 	 ldr r7,[sp],#4
 159              	.LCFI17:
 160              	 .cfi_restore 7
 161              	 .cfi_def_cfa_offset 0
 162 0026 7047     	 bx lr
 163              	 .cfi_endproc
 164              	.LFE134:
 166              	 .section .text.XMC_DAC_CH_SetRampStart,"ax",%progbits
 167              	 .align 2
 168              	 .thumb
 169              	 .thumb_func
 171              	XMC_DAC_CH_SetRampStart:
 172              	.LFB137:
 558:C:\Users\Depes Crystalline\Desktop\school\Active_Bike_Lighting_System\Radar_Core\Libraries\XMCLib\inc\xmc_dac.h **** 
 559:C:\Users\Depes Crystalline\Desktop\school\Active_Bike_Lighting_System\Radar_Core\Libraries\XMCLib\inc\xmc_dac.h **** /**
 560:C:\Users\Depes Crystalline\Desktop\school\Active_Bike_Lighting_System\Radar_Core\Libraries\XMCLib\inc\xmc_dac.h ****  * @param dac Pointer to an instance of DAC module
 561:C:\Users\Depes Crystalline\Desktop\school\Active_Bike_Lighting_System\Radar_Core\Libraries\XMCLib\inc\xmc_dac.h ****  * @param channel DAC channel number
 562:C:\Users\Depes Crystalline\Desktop\school\Active_Bike_Lighting_System\Radar_Core\Libraries\XMCLib\inc\xmc_dac.h ****  *
 563:C:\Users\Depes Crystalline\Desktop\school\Active_Bike_Lighting_System\Radar_Core\Libraries\XMCLib\inc\xmc_dac.h ****  * @return None
 564:C:\Users\Depes Crystalline\Desktop\school\Active_Bike_Lighting_System\Radar_Core\Libraries\XMCLib\inc\xmc_dac.h ****  *
 565:C:\Users\Depes Crystalline\Desktop\school\Active_Bike_Lighting_System\Radar_Core\Libraries\XMCLib\inc\xmc_dac.h ****  * \par<b>Description:</b><br>
 566:C:\Users\Depes Crystalline\Desktop\school\Active_Bike_Lighting_System\Radar_Core\Libraries\XMCLib\inc\xmc_dac.h ****  * Sets the \e channel to Single Value Mode by calling XMC_DAC_CH_SetMode().
 567:C:\Users\Depes Crystalline\Desktop\school\Active_Bike_Lighting_System\Radar_Core\Libraries\XMCLib\inc\xmc_dac.h ****  *
 568:C:\Users\Depes Crystalline\Desktop\school\Active_Bike_Lighting_System\Radar_Core\Libraries\XMCLib\inc\xmc_dac.h ****  * \par<b>Note:</b><br>
 569:C:\Users\Depes Crystalline\Desktop\school\Active_Bike_Lighting_System\Radar_Core\Libraries\XMCLib\inc\xmc_dac.h ****  * Call XMC_DAC_CH_Write() API to write the data.
 570:C:\Users\Depes Crystalline\Desktop\school\Active_Bike_Lighting_System\Radar_Core\Libraries\XMCLib\inc\xmc_dac.h ****  *
 571:C:\Users\Depes Crystalline\Desktop\school\Active_Bike_Lighting_System\Radar_Core\Libraries\XMCLib\inc\xmc_dac.h ****  * \par<b>Related APIs:</b><BR>
 572:C:\Users\Depes Crystalline\Desktop\school\Active_Bike_Lighting_System\Radar_Core\Libraries\XMCLib\inc\xmc_dac.h ****  * XMC_DAC_CH_Write()\n\n\n
 573:C:\Users\Depes Crystalline\Desktop\school\Active_Bike_Lighting_System\Radar_Core\Libraries\XMCLib\inc\xmc_dac.h ****  *
 574:C:\Users\Depes Crystalline\Desktop\school\Active_Bike_Lighting_System\Radar_Core\Libraries\XMCLib\inc\xmc_dac.h ****  */
 575:C:\Users\Depes Crystalline\Desktop\school\Active_Bike_Lighting_System\Radar_Core\Libraries\XMCLib\inc\xmc_dac.h **** XMC_DAC_CH_STATUS_t XMC_DAC_CH_StartSingleValueMode(XMC_DAC_t *const dac, const uint8_t channel);
 576:C:\Users\Depes Crystalline\Desktop\school\Active_Bike_Lighting_System\Radar_Core\Libraries\XMCLib\inc\xmc_dac.h **** 
 577:C:\Users\Depes Crystalline\Desktop\school\Active_Bike_Lighting_System\Radar_Core\Libraries\XMCLib\inc\xmc_dac.h **** /**
 578:C:\Users\Depes Crystalline\Desktop\school\Active_Bike_Lighting_System\Radar_Core\Libraries\XMCLib\inc\xmc_dac.h ****  * @param dac Pointer to an instance of DAC module
 579:C:\Users\Depes Crystalline\Desktop\school\Active_Bike_Lighting_System\Radar_Core\Libraries\XMCLib\inc\xmc_dac.h ****  * @param channel DAC channel number
 580:C:\Users\Depes Crystalline\Desktop\school\Active_Bike_Lighting_System\Radar_Core\Libraries\XMCLib\inc\xmc_dac.h ****  * @param trigger Data points update trigger
 581:C:\Users\Depes Crystalline\Desktop\school\Active_Bike_Lighting_System\Radar_Core\Libraries\XMCLib\inc\xmc_dac.h ****  * @param frequency Waveform frequency [Hz]
 582:C:\Users\Depes Crystalline\Desktop\school\Active_Bike_Lighting_System\Radar_Core\Libraries\XMCLib\inc\xmc_dac.h ****  *
 583:C:\Users\Depes Crystalline\Desktop\school\Active_Bike_Lighting_System\Radar_Core\Libraries\XMCLib\inc\xmc_dac.h ****  * @return XMC_DAC_CH_STATUS_t status
 584:C:\Users\Depes Crystalline\Desktop\school\Active_Bike_Lighting_System\Radar_Core\Libraries\XMCLib\inc\xmc_dac.h ****  *
 585:C:\Users\Depes Crystalline\Desktop\school\Active_Bike_Lighting_System\Radar_Core\Libraries\XMCLib\inc\xmc_dac.h ****  * \par<b>Description:</b><br>
 586:C:\Users\Depes Crystalline\Desktop\school\Active_Bike_Lighting_System\Radar_Core\Libraries\XMCLib\inc\xmc_dac.h ****  * Sets the \e channel to Data mode. Trigger and frequency are configured.
 587:C:\Users\Depes Crystalline\Desktop\school\Active_Bike_Lighting_System\Radar_Core\Libraries\XMCLib\inc\xmc_dac.h ****  *
 588:C:\Users\Depes Crystalline\Desktop\school\Active_Bike_Lighting_System\Radar_Core\Libraries\XMCLib\inc\xmc_dac.h ****  * \par<b>Note:</b><br>
 589:C:\Users\Depes Crystalline\Desktop\school\Active_Bike_Lighting_System\Radar_Core\Libraries\XMCLib\inc\xmc_dac.h ****  * Call XMC_DAC_CH_Write() API to write the data. Call XMC_DAC_EnableSimultaneousDataMode() to swit
 590:C:\Users\Depes Crystalline\Desktop\school\Active_Bike_Lighting_System\Radar_Core\Libraries\XMCLib\inc\xmc_dac.h ****  *
 591:C:\Users\Depes Crystalline\Desktop\school\Active_Bike_Lighting_System\Radar_Core\Libraries\XMCLib\inc\xmc_dac.h ****  * \par<b>Related APIs:</b><BR>
 592:C:\Users\Depes Crystalline\Desktop\school\Active_Bike_Lighting_System\Radar_Core\Libraries\XMCLib\inc\xmc_dac.h ****  * XMC_DAC_CH_Init(), XMC_DAC_CH_Write(), XMC_DAC_EnableSimultaneousDataMode() \n\n\n
 593:C:\Users\Depes Crystalline\Desktop\school\Active_Bike_Lighting_System\Radar_Core\Libraries\XMCLib\inc\xmc_dac.h ****  *
 594:C:\Users\Depes Crystalline\Desktop\school\Active_Bike_Lighting_System\Radar_Core\Libraries\XMCLib\inc\xmc_dac.h ****  */
 595:C:\Users\Depes Crystalline\Desktop\school\Active_Bike_Lighting_System\Radar_Core\Libraries\XMCLib\inc\xmc_dac.h **** XMC_DAC_CH_STATUS_t XMC_DAC_CH_StartDataMode(XMC_DAC_t *const dac,
 596:C:\Users\Depes Crystalline\Desktop\school\Active_Bike_Lighting_System\Radar_Core\Libraries\XMCLib\inc\xmc_dac.h ****                                              const uint8_t channel,
 597:C:\Users\Depes Crystalline\Desktop\school\Active_Bike_Lighting_System\Radar_Core\Libraries\XMCLib\inc\xmc_dac.h ****                                              const XMC_DAC_CH_TRIGGER_t trigger,
 598:C:\Users\Depes Crystalline\Desktop\school\Active_Bike_Lighting_System\Radar_Core\Libraries\XMCLib\inc\xmc_dac.h ****                                              const uint32_t frequency);
 599:C:\Users\Depes Crystalline\Desktop\school\Active_Bike_Lighting_System\Radar_Core\Libraries\XMCLib\inc\xmc_dac.h **** 
 600:C:\Users\Depes Crystalline\Desktop\school\Active_Bike_Lighting_System\Radar_Core\Libraries\XMCLib\inc\xmc_dac.h **** /**
 601:C:\Users\Depes Crystalline\Desktop\school\Active_Bike_Lighting_System\Radar_Core\Libraries\XMCLib\inc\xmc_dac.h ****  * @param dac Pointer to an instance of DAC module
 602:C:\Users\Depes Crystalline\Desktop\school\Active_Bike_Lighting_System\Radar_Core\Libraries\XMCLib\inc\xmc_dac.h ****  * @param channel DAC channel number
 603:C:\Users\Depes Crystalline\Desktop\school\Active_Bike_Lighting_System\Radar_Core\Libraries\XMCLib\inc\xmc_dac.h ****  * @param start Start point of the ramp [0-4095]
 604:C:\Users\Depes Crystalline\Desktop\school\Active_Bike_Lighting_System\Radar_Core\Libraries\XMCLib\inc\xmc_dac.h ****  * @param stop Stop point of the ramp [0-4095]
 605:C:\Users\Depes Crystalline\Desktop\school\Active_Bike_Lighting_System\Radar_Core\Libraries\XMCLib\inc\xmc_dac.h ****  * @param trigger Data points update trigger
 606:C:\Users\Depes Crystalline\Desktop\school\Active_Bike_Lighting_System\Radar_Core\Libraries\XMCLib\inc\xmc_dac.h ****  * @param frequency Ramp frequency in [Hz]
 607:C:\Users\Depes Crystalline\Desktop\school\Active_Bike_Lighting_System\Radar_Core\Libraries\XMCLib\inc\xmc_dac.h ****  *
 608:C:\Users\Depes Crystalline\Desktop\school\Active_Bike_Lighting_System\Radar_Core\Libraries\XMCLib\inc\xmc_dac.h ****  * @return XMC_DAC_CH_STATUS_t status
 609:C:\Users\Depes Crystalline\Desktop\school\Active_Bike_Lighting_System\Radar_Core\Libraries\XMCLib\inc\xmc_dac.h ****  *
 610:C:\Users\Depes Crystalline\Desktop\school\Active_Bike_Lighting_System\Radar_Core\Libraries\XMCLib\inc\xmc_dac.h ****  * \par<b>Description:</b><br>
 611:C:\Users\Depes Crystalline\Desktop\school\Active_Bike_Lighting_System\Radar_Core\Libraries\XMCLib\inc\xmc_dac.h ****  * Sets the \e channel to Ramp mode. Trigger, frequency, start and stop values are configured.
 612:C:\Users\Depes Crystalline\Desktop\school\Active_Bike_Lighting_System\Radar_Core\Libraries\XMCLib\inc\xmc_dac.h ****  * On a \e trigger ramp values are converted and driven to \e channel output.
 613:C:\Users\Depes Crystalline\Desktop\school\Active_Bike_Lighting_System\Radar_Core\Libraries\XMCLib\inc\xmc_dac.h ****  * Start and stop have the range of [0-4095]. Stop should be equal or greater than start. 
 614:C:\Users\Depes Crystalline\Desktop\school\Active_Bike_Lighting_System\Radar_Core\Libraries\XMCLib\inc\xmc_dac.h ****  *
 615:C:\Users\Depes Crystalline\Desktop\school\Active_Bike_Lighting_System\Radar_Core\Libraries\XMCLib\inc\xmc_dac.h ****  * \par<b>Note:</b><br>
 616:C:\Users\Depes Crystalline\Desktop\school\Active_Bike_Lighting_System\Radar_Core\Libraries\XMCLib\inc\xmc_dac.h ****  * If the ramp counter reaches its \e stop value, it restarts from the \e start value with the next
 617:C:\Users\Depes Crystalline\Desktop\school\Active_Bike_Lighting_System\Radar_Core\Libraries\XMCLib\inc\xmc_dac.h ****  *
 618:C:\Users\Depes Crystalline\Desktop\school\Active_Bike_Lighting_System\Radar_Core\Libraries\XMCLib\inc\xmc_dac.h ****  * \par<b>Related APIs:</b><BR>
 619:C:\Users\Depes Crystalline\Desktop\school\Active_Bike_Lighting_System\Radar_Core\Libraries\XMCLib\inc\xmc_dac.h ****  * XMC_DAC_CH_Init(), XMC_DAC_CH_GetRampStart(), XMC_DAC_CH_GetRampStop() \n\n\n
 620:C:\Users\Depes Crystalline\Desktop\school\Active_Bike_Lighting_System\Radar_Core\Libraries\XMCLib\inc\xmc_dac.h ****  *
 621:C:\Users\Depes Crystalline\Desktop\school\Active_Bike_Lighting_System\Radar_Core\Libraries\XMCLib\inc\xmc_dac.h ****  */
 622:C:\Users\Depes Crystalline\Desktop\school\Active_Bike_Lighting_System\Radar_Core\Libraries\XMCLib\inc\xmc_dac.h **** XMC_DAC_CH_STATUS_t XMC_DAC_CH_StartRampMode(XMC_DAC_t *const dac,
 623:C:\Users\Depes Crystalline\Desktop\school\Active_Bike_Lighting_System\Radar_Core\Libraries\XMCLib\inc\xmc_dac.h ****                                              const uint8_t channel,
 624:C:\Users\Depes Crystalline\Desktop\school\Active_Bike_Lighting_System\Radar_Core\Libraries\XMCLib\inc\xmc_dac.h ****                                              const uint16_t start,
 625:C:\Users\Depes Crystalline\Desktop\school\Active_Bike_Lighting_System\Radar_Core\Libraries\XMCLib\inc\xmc_dac.h ****                                              const uint16_t stop,
 626:C:\Users\Depes Crystalline\Desktop\school\Active_Bike_Lighting_System\Radar_Core\Libraries\XMCLib\inc\xmc_dac.h ****                                              const XMC_DAC_CH_TRIGGER_t trigger,
 627:C:\Users\Depes Crystalline\Desktop\school\Active_Bike_Lighting_System\Radar_Core\Libraries\XMCLib\inc\xmc_dac.h ****                                              const uint32_t frequency);
 628:C:\Users\Depes Crystalline\Desktop\school\Active_Bike_Lighting_System\Radar_Core\Libraries\XMCLib\inc\xmc_dac.h **** 
 629:C:\Users\Depes Crystalline\Desktop\school\Active_Bike_Lighting_System\Radar_Core\Libraries\XMCLib\inc\xmc_dac.h **** /**
 630:C:\Users\Depes Crystalline\Desktop\school\Active_Bike_Lighting_System\Radar_Core\Libraries\XMCLib\inc\xmc_dac.h ****  * @param dac Pointer to an instance of DAC module
 631:C:\Users\Depes Crystalline\Desktop\school\Active_Bike_Lighting_System\Radar_Core\Libraries\XMCLib\inc\xmc_dac.h ****  * @param channel DAC channel number
 632:C:\Users\Depes Crystalline\Desktop\school\Active_Bike_Lighting_System\Radar_Core\Libraries\XMCLib\inc\xmc_dac.h ****  * @param pattern Data table of a pattern
 633:C:\Users\Depes Crystalline\Desktop\school\Active_Bike_Lighting_System\Radar_Core\Libraries\XMCLib\inc\xmc_dac.h ****  * @param sign_output Sign information of the waveform
 634:C:\Users\Depes Crystalline\Desktop\school\Active_Bike_Lighting_System\Radar_Core\Libraries\XMCLib\inc\xmc_dac.h ****  * @param trigger Data points update trigger
 635:C:\Users\Depes Crystalline\Desktop\school\Active_Bike_Lighting_System\Radar_Core\Libraries\XMCLib\inc\xmc_dac.h ****  * @param frequency Waveform frequency in [Hz]
 636:C:\Users\Depes Crystalline\Desktop\school\Active_Bike_Lighting_System\Radar_Core\Libraries\XMCLib\inc\xmc_dac.h ****  *
 637:C:\Users\Depes Crystalline\Desktop\school\Active_Bike_Lighting_System\Radar_Core\Libraries\XMCLib\inc\xmc_dac.h ****  * @return XMC_DAC_CH_STATUS_t status
 638:C:\Users\Depes Crystalline\Desktop\school\Active_Bike_Lighting_System\Radar_Core\Libraries\XMCLib\inc\xmc_dac.h ****  *
 639:C:\Users\Depes Crystalline\Desktop\school\Active_Bike_Lighting_System\Radar_Core\Libraries\XMCLib\inc\xmc_dac.h ****  * \par<b>Description:</b><br>
 640:C:\Users\Depes Crystalline\Desktop\school\Active_Bike_Lighting_System\Radar_Core\Libraries\XMCLib\inc\xmc_dac.h ****  * Sets the \e channel to Pattern mode. Trigger, frequency, sign output and data are configured.
 641:C:\Users\Depes Crystalline\Desktop\school\Active_Bike_Lighting_System\Radar_Core\Libraries\XMCLib\inc\xmc_dac.h ****  * On a \e trigger, the \e pattern values are converted and driven to \e channel output.
 642:C:\Users\Depes Crystalline\Desktop\school\Active_Bike_Lighting_System\Radar_Core\Libraries\XMCLib\inc\xmc_dac.h ****  *
 643:C:\Users\Depes Crystalline\Desktop\school\Active_Bike_Lighting_System\Radar_Core\Libraries\XMCLib\inc\xmc_dac.h ****  * \par<b>Related APIs:</b><BR>
 644:C:\Users\Depes Crystalline\Desktop\school\Active_Bike_Lighting_System\Radar_Core\Libraries\XMCLib\inc\xmc_dac.h ****  * XMC_DAC_CH_Init(), XMC_DAC_CH_DisablePatternSignOutput() \n\n\n
 645:C:\Users\Depes Crystalline\Desktop\school\Active_Bike_Lighting_System\Radar_Core\Libraries\XMCLib\inc\xmc_dac.h ****  *
 646:C:\Users\Depes Crystalline\Desktop\school\Active_Bike_Lighting_System\Radar_Core\Libraries\XMCLib\inc\xmc_dac.h ****  */
 647:C:\Users\Depes Crystalline\Desktop\school\Active_Bike_Lighting_System\Radar_Core\Libraries\XMCLib\inc\xmc_dac.h **** XMC_DAC_CH_STATUS_t XMC_DAC_CH_StartPatternMode(XMC_DAC_t *const dac,
 648:C:\Users\Depes Crystalline\Desktop\school\Active_Bike_Lighting_System\Radar_Core\Libraries\XMCLib\inc\xmc_dac.h ****                                                 const uint8_t channel,
 649:C:\Users\Depes Crystalline\Desktop\school\Active_Bike_Lighting_System\Radar_Core\Libraries\XMCLib\inc\xmc_dac.h ****                                                 const uint8_t *const pattern,
 650:C:\Users\Depes Crystalline\Desktop\school\Active_Bike_Lighting_System\Radar_Core\Libraries\XMCLib\inc\xmc_dac.h ****                                                 const XMC_DAC_CH_PATTERN_SIGN_OUTPUT_t sign_output,
 651:C:\Users\Depes Crystalline\Desktop\school\Active_Bike_Lighting_System\Radar_Core\Libraries\XMCLib\inc\xmc_dac.h ****                                                 const XMC_DAC_CH_TRIGGER_t trigger,
 652:C:\Users\Depes Crystalline\Desktop\school\Active_Bike_Lighting_System\Radar_Core\Libraries\XMCLib\inc\xmc_dac.h ****                                                 const uint32_t frequency);
 653:C:\Users\Depes Crystalline\Desktop\school\Active_Bike_Lighting_System\Radar_Core\Libraries\XMCLib\inc\xmc_dac.h **** 
 654:C:\Users\Depes Crystalline\Desktop\school\Active_Bike_Lighting_System\Radar_Core\Libraries\XMCLib\inc\xmc_dac.h **** /**
 655:C:\Users\Depes Crystalline\Desktop\school\Active_Bike_Lighting_System\Radar_Core\Libraries\XMCLib\inc\xmc_dac.h ****  * @param dac Pointer to an instance of DAC module
 656:C:\Users\Depes Crystalline\Desktop\school\Active_Bike_Lighting_System\Radar_Core\Libraries\XMCLib\inc\xmc_dac.h ****  * @param channel DAC channel number
 657:C:\Users\Depes Crystalline\Desktop\school\Active_Bike_Lighting_System\Radar_Core\Libraries\XMCLib\inc\xmc_dac.h ****  * @param trigger Data points update trigger
 658:C:\Users\Depes Crystalline\Desktop\school\Active_Bike_Lighting_System\Radar_Core\Libraries\XMCLib\inc\xmc_dac.h ****  * @param frequency Waveform frequency in [Hz]
 659:C:\Users\Depes Crystalline\Desktop\school\Active_Bike_Lighting_System\Radar_Core\Libraries\XMCLib\inc\xmc_dac.h ****  *
 660:C:\Users\Depes Crystalline\Desktop\school\Active_Bike_Lighting_System\Radar_Core\Libraries\XMCLib\inc\xmc_dac.h ****  * @return XMC_DAC_CH_STATUS_t status
 661:C:\Users\Depes Crystalline\Desktop\school\Active_Bike_Lighting_System\Radar_Core\Libraries\XMCLib\inc\xmc_dac.h ****  *
 662:C:\Users\Depes Crystalline\Desktop\school\Active_Bike_Lighting_System\Radar_Core\Libraries\XMCLib\inc\xmc_dac.h ****  * \par<b>Description:</b><br>
 663:C:\Users\Depes Crystalline\Desktop\school\Active_Bike_Lighting_System\Radar_Core\Libraries\XMCLib\inc\xmc_dac.h ****  * Sets the \e channel to Noise mode. Trigger and frequency are configured.
 664:C:\Users\Depes Crystalline\Desktop\school\Active_Bike_Lighting_System\Radar_Core\Libraries\XMCLib\inc\xmc_dac.h ****  * On a \e trigger the DAC starts converting and drives to \e channel output.
 665:C:\Users\Depes Crystalline\Desktop\school\Active_Bike_Lighting_System\Radar_Core\Libraries\XMCLib\inc\xmc_dac.h ****  *
 666:C:\Users\Depes Crystalline\Desktop\school\Active_Bike_Lighting_System\Radar_Core\Libraries\XMCLib\inc\xmc_dac.h ****  * \par<b>Related APIs:</b><BR>
 667:C:\Users\Depes Crystalline\Desktop\school\Active_Bike_Lighting_System\Radar_Core\Libraries\XMCLib\inc\xmc_dac.h ****  * XMC_DAC_CH_Init()\n\n\n
 668:C:\Users\Depes Crystalline\Desktop\school\Active_Bike_Lighting_System\Radar_Core\Libraries\XMCLib\inc\xmc_dac.h ****  *
 669:C:\Users\Depes Crystalline\Desktop\school\Active_Bike_Lighting_System\Radar_Core\Libraries\XMCLib\inc\xmc_dac.h ****  */
 670:C:\Users\Depes Crystalline\Desktop\school\Active_Bike_Lighting_System\Radar_Core\Libraries\XMCLib\inc\xmc_dac.h **** XMC_DAC_CH_STATUS_t XMC_DAC_CH_StartNoiseMode(XMC_DAC_t *const dac,
 671:C:\Users\Depes Crystalline\Desktop\school\Active_Bike_Lighting_System\Radar_Core\Libraries\XMCLib\inc\xmc_dac.h ****                                               const uint8_t channel,
 672:C:\Users\Depes Crystalline\Desktop\school\Active_Bike_Lighting_System\Radar_Core\Libraries\XMCLib\inc\xmc_dac.h ****                                               const XMC_DAC_CH_TRIGGER_t trigger,
 673:C:\Users\Depes Crystalline\Desktop\school\Active_Bike_Lighting_System\Radar_Core\Libraries\XMCLib\inc\xmc_dac.h ****                                               const uint32_t frequency);
 674:C:\Users\Depes Crystalline\Desktop\school\Active_Bike_Lighting_System\Radar_Core\Libraries\XMCLib\inc\xmc_dac.h **** 
 675:C:\Users\Depes Crystalline\Desktop\school\Active_Bike_Lighting_System\Radar_Core\Libraries\XMCLib\inc\xmc_dac.h **** /**
 676:C:\Users\Depes Crystalline\Desktop\school\Active_Bike_Lighting_System\Radar_Core\Libraries\XMCLib\inc\xmc_dac.h ****  * @param dac Pointer to an instance of DAC module
 677:C:\Users\Depes Crystalline\Desktop\school\Active_Bike_Lighting_System\Radar_Core\Libraries\XMCLib\inc\xmc_dac.h ****  * @param channel DAC channel number
 678:C:\Users\Depes Crystalline\Desktop\school\Active_Bike_Lighting_System\Radar_Core\Libraries\XMCLib\inc\xmc_dac.h ****  * @param pattern Pointer to the data table
 679:C:\Users\Depes Crystalline\Desktop\school\Active_Bike_Lighting_System\Radar_Core\Libraries\XMCLib\inc\xmc_dac.h ****  *
 680:C:\Users\Depes Crystalline\Desktop\school\Active_Bike_Lighting_System\Radar_Core\Libraries\XMCLib\inc\xmc_dac.h ****  * @return None
 681:C:\Users\Depes Crystalline\Desktop\school\Active_Bike_Lighting_System\Radar_Core\Libraries\XMCLib\inc\xmc_dac.h ****  *
 682:C:\Users\Depes Crystalline\Desktop\school\Active_Bike_Lighting_System\Radar_Core\Libraries\XMCLib\inc\xmc_dac.h ****  * \par<b>Description:</b><br>
 683:C:\Users\Depes Crystalline\Desktop\school\Active_Bike_Lighting_System\Radar_Core\Libraries\XMCLib\inc\xmc_dac.h ****  * The data for the Pattern mode is written to the \a DAC0PATL and \a DAC0PATH registers.
 684:C:\Users\Depes Crystalline\Desktop\school\Active_Bike_Lighting_System\Radar_Core\Libraries\XMCLib\inc\xmc_dac.h ****  * The API is called by XMC_DAC_CH_StartPatternMode().
 685:C:\Users\Depes Crystalline\Desktop\school\Active_Bike_Lighting_System\Radar_Core\Libraries\XMCLib\inc\xmc_dac.h ****  *
 686:C:\Users\Depes Crystalline\Desktop\school\Active_Bike_Lighting_System\Radar_Core\Libraries\XMCLib\inc\xmc_dac.h ****  * \par<b>Note:</b><br>
 687:C:\Users\Depes Crystalline\Desktop\school\Active_Bike_Lighting_System\Radar_Core\Libraries\XMCLib\inc\xmc_dac.h ****  * Call this API if the \a channel is set to Pattern mode.
 688:C:\Users\Depes Crystalline\Desktop\school\Active_Bike_Lighting_System\Radar_Core\Libraries\XMCLib\inc\xmc_dac.h ****  *
 689:C:\Users\Depes Crystalline\Desktop\school\Active_Bike_Lighting_System\Radar_Core\Libraries\XMCLib\inc\xmc_dac.h ****  * \par<b>Related APIs:</b><BR>
 690:C:\Users\Depes Crystalline\Desktop\school\Active_Bike_Lighting_System\Radar_Core\Libraries\XMCLib\inc\xmc_dac.h ****  * XMC_DAC_CH_EnablePatternSignOutput(), XMC_DAC_CH_DisablePatternSignOutput()\n\n\n
 691:C:\Users\Depes Crystalline\Desktop\school\Active_Bike_Lighting_System\Radar_Core\Libraries\XMCLib\inc\xmc_dac.h ****  *
 692:C:\Users\Depes Crystalline\Desktop\school\Active_Bike_Lighting_System\Radar_Core\Libraries\XMCLib\inc\xmc_dac.h ****  */
 693:C:\Users\Depes Crystalline\Desktop\school\Active_Bike_Lighting_System\Radar_Core\Libraries\XMCLib\inc\xmc_dac.h **** void XMC_DAC_CH_SetPattern(XMC_DAC_t *const dac, const uint8_t channel, const uint8_t *const patter
 694:C:\Users\Depes Crystalline\Desktop\school\Active_Bike_Lighting_System\Radar_Core\Libraries\XMCLib\inc\xmc_dac.h **** 
 695:C:\Users\Depes Crystalline\Desktop\school\Active_Bike_Lighting_System\Radar_Core\Libraries\XMCLib\inc\xmc_dac.h **** /**
 696:C:\Users\Depes Crystalline\Desktop\school\Active_Bike_Lighting_System\Radar_Core\Libraries\XMCLib\inc\xmc_dac.h ****  * @param dac Pointer to an instance of DAC module
 697:C:\Users\Depes Crystalline\Desktop\school\Active_Bike_Lighting_System\Radar_Core\Libraries\XMCLib\inc\xmc_dac.h ****  * @param channel DAC channel number
 698:C:\Users\Depes Crystalline\Desktop\school\Active_Bike_Lighting_System\Radar_Core\Libraries\XMCLib\inc\xmc_dac.h ****  *
 699:C:\Users\Depes Crystalline\Desktop\school\Active_Bike_Lighting_System\Radar_Core\Libraries\XMCLib\inc\xmc_dac.h ****  * @return None
 700:C:\Users\Depes Crystalline\Desktop\school\Active_Bike_Lighting_System\Radar_Core\Libraries\XMCLib\inc\xmc_dac.h ****  *
 701:C:\Users\Depes Crystalline\Desktop\school\Active_Bike_Lighting_System\Radar_Core\Libraries\XMCLib\inc\xmc_dac.h ****  * \par<b>Description:</b><br>
 702:C:\Users\Depes Crystalline\Desktop\school\Active_Bike_Lighting_System\Radar_Core\Libraries\XMCLib\inc\xmc_dac.h ****  * Enables the output sign information for Pattern Mode.
 703:C:\Users\Depes Crystalline\Desktop\school\Active_Bike_Lighting_System\Radar_Core\Libraries\XMCLib\inc\xmc_dac.h ****  *
 704:C:\Users\Depes Crystalline\Desktop\school\Active_Bike_Lighting_System\Radar_Core\Libraries\XMCLib\inc\xmc_dac.h ****  * \par
 705:C:\Users\Depes Crystalline\Desktop\school\Active_Bike_Lighting_System\Radar_Core\Libraries\XMCLib\inc\xmc_dac.h ****  * Sign output is enabled by setting \a SIGNEN bit of \a DAC0CFG0 register (for channel 0) / DAC1CF
 706:C:\Users\Depes Crystalline\Desktop\school\Active_Bike_Lighting_System\Radar_Core\Libraries\XMCLib\inc\xmc_dac.h ****  *
 707:C:\Users\Depes Crystalline\Desktop\school\Active_Bike_Lighting_System\Radar_Core\Libraries\XMCLib\inc\xmc_dac.h ****  * \par<b>Note:</b><br>
 708:C:\Users\Depes Crystalline\Desktop\school\Active_Bike_Lighting_System\Radar_Core\Libraries\XMCLib\inc\xmc_dac.h ****  * Call this API if the \e channel is set to Pattern mode.
 709:C:\Users\Depes Crystalline\Desktop\school\Active_Bike_Lighting_System\Radar_Core\Libraries\XMCLib\inc\xmc_dac.h ****  *
 710:C:\Users\Depes Crystalline\Desktop\school\Active_Bike_Lighting_System\Radar_Core\Libraries\XMCLib\inc\xmc_dac.h ****  * \par<b>Related APIs:</b><BR>
 711:C:\Users\Depes Crystalline\Desktop\school\Active_Bike_Lighting_System\Radar_Core\Libraries\XMCLib\inc\xmc_dac.h ****  * XMC_DAC_CH_StartPatternMode(), XMC_DAC_CH_DisablePatternSignOutput()\n\n\n
 712:C:\Users\Depes Crystalline\Desktop\school\Active_Bike_Lighting_System\Radar_Core\Libraries\XMCLib\inc\xmc_dac.h ****  *
 713:C:\Users\Depes Crystalline\Desktop\school\Active_Bike_Lighting_System\Radar_Core\Libraries\XMCLib\inc\xmc_dac.h ****  */
 714:C:\Users\Depes Crystalline\Desktop\school\Active_Bike_Lighting_System\Radar_Core\Libraries\XMCLib\inc\xmc_dac.h **** __STATIC_INLINE void XMC_DAC_CH_EnablePatternSignOutput(XMC_DAC_t *const dac,
 715:C:\Users\Depes Crystalline\Desktop\school\Active_Bike_Lighting_System\Radar_Core\Libraries\XMCLib\inc\xmc_dac.h ****                                                      const uint8_t channel)
 716:C:\Users\Depes Crystalline\Desktop\school\Active_Bike_Lighting_System\Radar_Core\Libraries\XMCLib\inc\xmc_dac.h **** {
 717:C:\Users\Depes Crystalline\Desktop\school\Active_Bike_Lighting_System\Radar_Core\Libraries\XMCLib\inc\xmc_dac.h ****   dac->DACCFG[channel].low |= DAC_DAC0CFG0_SIGNEN_Msk;
 718:C:\Users\Depes Crystalline\Desktop\school\Active_Bike_Lighting_System\Radar_Core\Libraries\XMCLib\inc\xmc_dac.h **** }
 719:C:\Users\Depes Crystalline\Desktop\school\Active_Bike_Lighting_System\Radar_Core\Libraries\XMCLib\inc\xmc_dac.h **** 
 720:C:\Users\Depes Crystalline\Desktop\school\Active_Bike_Lighting_System\Radar_Core\Libraries\XMCLib\inc\xmc_dac.h **** /**
 721:C:\Users\Depes Crystalline\Desktop\school\Active_Bike_Lighting_System\Radar_Core\Libraries\XMCLib\inc\xmc_dac.h ****  * @param dac Pointer to an instance of DAC module
 722:C:\Users\Depes Crystalline\Desktop\school\Active_Bike_Lighting_System\Radar_Core\Libraries\XMCLib\inc\xmc_dac.h ****  * @param channel DAC channel number
 723:C:\Users\Depes Crystalline\Desktop\school\Active_Bike_Lighting_System\Radar_Core\Libraries\XMCLib\inc\xmc_dac.h ****  *
 724:C:\Users\Depes Crystalline\Desktop\school\Active_Bike_Lighting_System\Radar_Core\Libraries\XMCLib\inc\xmc_dac.h ****  * @return None
 725:C:\Users\Depes Crystalline\Desktop\school\Active_Bike_Lighting_System\Radar_Core\Libraries\XMCLib\inc\xmc_dac.h ****  *
 726:C:\Users\Depes Crystalline\Desktop\school\Active_Bike_Lighting_System\Radar_Core\Libraries\XMCLib\inc\xmc_dac.h ****  * \par<b>Description:</b><br>
 727:C:\Users\Depes Crystalline\Desktop\school\Active_Bike_Lighting_System\Radar_Core\Libraries\XMCLib\inc\xmc_dac.h ****  * Disables output sign information for Pattern Mode.
 728:C:\Users\Depes Crystalline\Desktop\school\Active_Bike_Lighting_System\Radar_Core\Libraries\XMCLib\inc\xmc_dac.h ****  *
 729:C:\Users\Depes Crystalline\Desktop\school\Active_Bike_Lighting_System\Radar_Core\Libraries\XMCLib\inc\xmc_dac.h ****  * \par
 730:C:\Users\Depes Crystalline\Desktop\school\Active_Bike_Lighting_System\Radar_Core\Libraries\XMCLib\inc\xmc_dac.h ****  * Sign output is disabled by clearing \a SIGNEN bit of \a DAC0CFG0 register (for channel 0) / DAC1
 731:C:\Users\Depes Crystalline\Desktop\school\Active_Bike_Lighting_System\Radar_Core\Libraries\XMCLib\inc\xmc_dac.h ****  *
 732:C:\Users\Depes Crystalline\Desktop\school\Active_Bike_Lighting_System\Radar_Core\Libraries\XMCLib\inc\xmc_dac.h ****  * \par<b>Note:</b><br>
 733:C:\Users\Depes Crystalline\Desktop\school\Active_Bike_Lighting_System\Radar_Core\Libraries\XMCLib\inc\xmc_dac.h ****  * Call this API if the \e channel is set to Pattern mode.
 734:C:\Users\Depes Crystalline\Desktop\school\Active_Bike_Lighting_System\Radar_Core\Libraries\XMCLib\inc\xmc_dac.h ****  *
 735:C:\Users\Depes Crystalline\Desktop\school\Active_Bike_Lighting_System\Radar_Core\Libraries\XMCLib\inc\xmc_dac.h ****  * \par<b>Related APIs:</b><BR>
 736:C:\Users\Depes Crystalline\Desktop\school\Active_Bike_Lighting_System\Radar_Core\Libraries\XMCLib\inc\xmc_dac.h ****  * XMC_DAC_CH_StartPatternMode(), XMC_DAC_CH_EnablePatternSignOutput()\n\n\n
 737:C:\Users\Depes Crystalline\Desktop\school\Active_Bike_Lighting_System\Radar_Core\Libraries\XMCLib\inc\xmc_dac.h ****  *
 738:C:\Users\Depes Crystalline\Desktop\school\Active_Bike_Lighting_System\Radar_Core\Libraries\XMCLib\inc\xmc_dac.h ****  */
 739:C:\Users\Depes Crystalline\Desktop\school\Active_Bike_Lighting_System\Radar_Core\Libraries\XMCLib\inc\xmc_dac.h **** __STATIC_INLINE void XMC_DAC_CH_DisablePatternSignOutput(XMC_DAC_t *const dac,
 740:C:\Users\Depes Crystalline\Desktop\school\Active_Bike_Lighting_System\Radar_Core\Libraries\XMCLib\inc\xmc_dac.h ****                                                      const uint8_t channel)
 741:C:\Users\Depes Crystalline\Desktop\school\Active_Bike_Lighting_System\Radar_Core\Libraries\XMCLib\inc\xmc_dac.h **** {
 742:C:\Users\Depes Crystalline\Desktop\school\Active_Bike_Lighting_System\Radar_Core\Libraries\XMCLib\inc\xmc_dac.h ****   dac->DACCFG[channel].low &= ~DAC_DAC0CFG0_SIGNEN_Msk;
 743:C:\Users\Depes Crystalline\Desktop\school\Active_Bike_Lighting_System\Radar_Core\Libraries\XMCLib\inc\xmc_dac.h **** }
 744:C:\Users\Depes Crystalline\Desktop\school\Active_Bike_Lighting_System\Radar_Core\Libraries\XMCLib\inc\xmc_dac.h **** 
 745:C:\Users\Depes Crystalline\Desktop\school\Active_Bike_Lighting_System\Radar_Core\Libraries\XMCLib\inc\xmc_dac.h **** /**
 746:C:\Users\Depes Crystalline\Desktop\school\Active_Bike_Lighting_System\Radar_Core\Libraries\XMCLib\inc\xmc_dac.h ****  * @param dac Pointer to an instance of DAC module
 747:C:\Users\Depes Crystalline\Desktop\school\Active_Bike_Lighting_System\Radar_Core\Libraries\XMCLib\inc\xmc_dac.h ****  * @param channel DAC channel number
 748:C:\Users\Depes Crystalline\Desktop\school\Active_Bike_Lighting_System\Radar_Core\Libraries\XMCLib\inc\xmc_dac.h ****  * @param start Ramp start point [0-4095]
 749:C:\Users\Depes Crystalline\Desktop\school\Active_Bike_Lighting_System\Radar_Core\Libraries\XMCLib\inc\xmc_dac.h ****  *
 750:C:\Users\Depes Crystalline\Desktop\school\Active_Bike_Lighting_System\Radar_Core\Libraries\XMCLib\inc\xmc_dac.h ****  * @return None
 751:C:\Users\Depes Crystalline\Desktop\school\Active_Bike_Lighting_System\Radar_Core\Libraries\XMCLib\inc\xmc_dac.h ****  *
 752:C:\Users\Depes Crystalline\Desktop\school\Active_Bike_Lighting_System\Radar_Core\Libraries\XMCLib\inc\xmc_dac.h ****  * \par<b>Description:</b><br>
 753:C:\Users\Depes Crystalline\Desktop\school\Active_Bike_Lighting_System\Radar_Core\Libraries\XMCLib\inc\xmc_dac.h ****  * Sets the ramp start value by writing to the register \a DAC0DATA (for \e channel 0) or \a DAC1DA
 754:C:\Users\Depes Crystalline\Desktop\school\Active_Bike_Lighting_System\Radar_Core\Libraries\XMCLib\inc\xmc_dac.h ****  * If the ramp counter reaches its stop value, it restarts from the \a start value with the next tr
 755:C:\Users\Depes Crystalline\Desktop\school\Active_Bike_Lighting_System\Radar_Core\Libraries\XMCLib\inc\xmc_dac.h ****  * Ensure \e start value is lower than the stop value.
 756:C:\Users\Depes Crystalline\Desktop\school\Active_Bike_Lighting_System\Radar_Core\Libraries\XMCLib\inc\xmc_dac.h ****  *
 757:C:\Users\Depes Crystalline\Desktop\school\Active_Bike_Lighting_System\Radar_Core\Libraries\XMCLib\inc\xmc_dac.h ****  * \par<b>Note:</b><br>
 758:C:\Users\Depes Crystalline\Desktop\school\Active_Bike_Lighting_System\Radar_Core\Libraries\XMCLib\inc\xmc_dac.h ****  * Call this API if the \a channel is set to Ramp mode.
 759:C:\Users\Depes Crystalline\Desktop\school\Active_Bike_Lighting_System\Radar_Core\Libraries\XMCLib\inc\xmc_dac.h ****  * Start value is a 12 bit data.
 760:C:\Users\Depes Crystalline\Desktop\school\Active_Bike_Lighting_System\Radar_Core\Libraries\XMCLib\inc\xmc_dac.h ****  *
 761:C:\Users\Depes Crystalline\Desktop\school\Active_Bike_Lighting_System\Radar_Core\Libraries\XMCLib\inc\xmc_dac.h ****  * \par<b>Related APIs:</b><BR>
 762:C:\Users\Depes Crystalline\Desktop\school\Active_Bike_Lighting_System\Radar_Core\Libraries\XMCLib\inc\xmc_dac.h ****  * XMC_DAC_CH_GetRampStart(), XMC_DAC_CH_GetRampStop(), XMC_DAC_CH_SetRampStop()\n\n\n
 763:C:\Users\Depes Crystalline\Desktop\school\Active_Bike_Lighting_System\Radar_Core\Libraries\XMCLib\inc\xmc_dac.h ****  *
 764:C:\Users\Depes Crystalline\Desktop\school\Active_Bike_Lighting_System\Radar_Core\Libraries\XMCLib\inc\xmc_dac.h ****  */
 765:C:\Users\Depes Crystalline\Desktop\school\Active_Bike_Lighting_System\Radar_Core\Libraries\XMCLib\inc\xmc_dac.h **** __STATIC_INLINE void XMC_DAC_CH_SetRampStart(XMC_DAC_t *const dac, const uint8_t channel, const uin
 766:C:\Users\Depes Crystalline\Desktop\school\Active_Bike_Lighting_System\Radar_Core\Libraries\XMCLib\inc\xmc_dac.h **** {
 173              	 .loc 1 766 0
 174              	 .cfi_startproc
 175              	 
 176              	 
 177              	 
 178 0000 80B4     	 push {r7}
 179              	.LCFI18:
 180              	 .cfi_def_cfa_offset 4
 181              	 .cfi_offset 7,-4
 182 0002 83B0     	 sub sp,sp,#12
 183              	.LCFI19:
 184              	 .cfi_def_cfa_offset 16
 185 0004 00AF     	 add r7,sp,#0
 186              	.LCFI20:
 187              	 .cfi_def_cfa_register 7
 188 0006 7860     	 str r0,[r7,#4]
 189 0008 0B46     	 mov r3,r1
 190 000a FB70     	 strb r3,[r7,#3]
 191 000c 1346     	 mov r3,r2
 192 000e 3B80     	 strh r3,[r7]
 767:C:\Users\Depes Crystalline\Desktop\school\Active_Bike_Lighting_System\Radar_Core\Libraries\XMCLib\inc\xmc_dac.h ****   dac->DACDATA[channel] = start;
 193              	 .loc 1 767 0
 194 0010 FB78     	 ldrb r3,[r7,#3]
 195 0012 3A88     	 ldrh r2,[r7]
 196 0014 7968     	 ldr r1,[r7,#4]
 197 0016 0433     	 adds r3,r3,#4
 198 0018 9B00     	 lsls r3,r3,#2
 199 001a 0B44     	 add r3,r3,r1
 200 001c 5A60     	 str r2,[r3,#4]
 768:C:\Users\Depes Crystalline\Desktop\school\Active_Bike_Lighting_System\Radar_Core\Libraries\XMCLib\inc\xmc_dac.h **** }
 201              	 .loc 1 768 0
 202 001e 0C37     	 adds r7,r7,#12
 203              	.LCFI21:
 204              	 .cfi_def_cfa_offset 4
 205 0020 BD46     	 mov sp,r7
 206              	.LCFI22:
 207              	 .cfi_def_cfa_register 13
 208              	 
 209 0022 5DF8047B 	 ldr r7,[sp],#4
 210              	.LCFI23:
 211              	 .cfi_restore 7
 212              	 .cfi_def_cfa_offset 0
 213 0026 7047     	 bx lr
 214              	 .cfi_endproc
 215              	.LFE137:
 217              	 .section .text.XMC_DAC_CH_SetRampStop,"ax",%progbits
 218              	 .align 2
 219              	 .thumb
 220              	 .thumb_func
 222              	XMC_DAC_CH_SetRampStop:
 223              	.LFB139:
 769:C:\Users\Depes Crystalline\Desktop\school\Active_Bike_Lighting_System\Radar_Core\Libraries\XMCLib\inc\xmc_dac.h **** 
 770:C:\Users\Depes Crystalline\Desktop\school\Active_Bike_Lighting_System\Radar_Core\Libraries\XMCLib\inc\xmc_dac.h **** /**
 771:C:\Users\Depes Crystalline\Desktop\school\Active_Bike_Lighting_System\Radar_Core\Libraries\XMCLib\inc\xmc_dac.h ****  * @param dac Pointer to an instance of DAC module
 772:C:\Users\Depes Crystalline\Desktop\school\Active_Bike_Lighting_System\Radar_Core\Libraries\XMCLib\inc\xmc_dac.h ****  * @param channel DAC channel number
 773:C:\Users\Depes Crystalline\Desktop\school\Active_Bike_Lighting_System\Radar_Core\Libraries\XMCLib\inc\xmc_dac.h ****  *
 774:C:\Users\Depes Crystalline\Desktop\school\Active_Bike_Lighting_System\Radar_Core\Libraries\XMCLib\inc\xmc_dac.h ****  * @return uint16_t
 775:C:\Users\Depes Crystalline\Desktop\school\Active_Bike_Lighting_System\Radar_Core\Libraries\XMCLib\inc\xmc_dac.h ****  *
 776:C:\Users\Depes Crystalline\Desktop\school\Active_Bike_Lighting_System\Radar_Core\Libraries\XMCLib\inc\xmc_dac.h ****  * \par<b>Description:</b><br>
 777:C:\Users\Depes Crystalline\Desktop\school\Active_Bike_Lighting_System\Radar_Core\Libraries\XMCLib\inc\xmc_dac.h ****  * Gets the ramp start value by reading \a DATA0 bit-field of \a DAC0DATA register (for channel 0) 
 778:C:\Users\Depes Crystalline\Desktop\school\Active_Bike_Lighting_System\Radar_Core\Libraries\XMCLib\inc\xmc_dac.h ****  * If the ramp counter reaches its stop value, it restarts from the start value with the next trigg
 779:C:\Users\Depes Crystalline\Desktop\school\Active_Bike_Lighting_System\Radar_Core\Libraries\XMCLib\inc\xmc_dac.h ****  *
 780:C:\Users\Depes Crystalline\Desktop\school\Active_Bike_Lighting_System\Radar_Core\Libraries\XMCLib\inc\xmc_dac.h ****  * \par<b>Note:</b><br>
 781:C:\Users\Depes Crystalline\Desktop\school\Active_Bike_Lighting_System\Radar_Core\Libraries\XMCLib\inc\xmc_dac.h ****  * Call this API if the \e channel is set to Ramp mode.
 782:C:\Users\Depes Crystalline\Desktop\school\Active_Bike_Lighting_System\Radar_Core\Libraries\XMCLib\inc\xmc_dac.h ****  *
 783:C:\Users\Depes Crystalline\Desktop\school\Active_Bike_Lighting_System\Radar_Core\Libraries\XMCLib\inc\xmc_dac.h ****  * \par<b>Related APIs:</b><BR>
 784:C:\Users\Depes Crystalline\Desktop\school\Active_Bike_Lighting_System\Radar_Core\Libraries\XMCLib\inc\xmc_dac.h ****  * XMC_DAC_CH_SetRampStart(), XMC_DAC_CH_StartRampMode(), XMC_DAC_CH_GetRampStop(), XMC_DAC_CH_SetR
 785:C:\Users\Depes Crystalline\Desktop\school\Active_Bike_Lighting_System\Radar_Core\Libraries\XMCLib\inc\xmc_dac.h ****  *
 786:C:\Users\Depes Crystalline\Desktop\school\Active_Bike_Lighting_System\Radar_Core\Libraries\XMCLib\inc\xmc_dac.h ****  */
 787:C:\Users\Depes Crystalline\Desktop\school\Active_Bike_Lighting_System\Radar_Core\Libraries\XMCLib\inc\xmc_dac.h **** __STATIC_INLINE uint16_t XMC_DAC_CH_GetRampStart(XMC_DAC_t *const dac, const uint8_t channel)
 788:C:\Users\Depes Crystalline\Desktop\school\Active_Bike_Lighting_System\Radar_Core\Libraries\XMCLib\inc\xmc_dac.h **** {
 789:C:\Users\Depes Crystalline\Desktop\school\Active_Bike_Lighting_System\Radar_Core\Libraries\XMCLib\inc\xmc_dac.h ****   return (uint16_t)(dac->DACDATA[channel]);
 790:C:\Users\Depes Crystalline\Desktop\school\Active_Bike_Lighting_System\Radar_Core\Libraries\XMCLib\inc\xmc_dac.h **** }
 791:C:\Users\Depes Crystalline\Desktop\school\Active_Bike_Lighting_System\Radar_Core\Libraries\XMCLib\inc\xmc_dac.h **** 
 792:C:\Users\Depes Crystalline\Desktop\school\Active_Bike_Lighting_System\Radar_Core\Libraries\XMCLib\inc\xmc_dac.h **** /**
 793:C:\Users\Depes Crystalline\Desktop\school\Active_Bike_Lighting_System\Radar_Core\Libraries\XMCLib\inc\xmc_dac.h ****  * @param dac Pointer to an instance of DAC module
 794:C:\Users\Depes Crystalline\Desktop\school\Active_Bike_Lighting_System\Radar_Core\Libraries\XMCLib\inc\xmc_dac.h ****  * @param channel DAC channel number
 795:C:\Users\Depes Crystalline\Desktop\school\Active_Bike_Lighting_System\Radar_Core\Libraries\XMCLib\inc\xmc_dac.h ****  * @param stop Ramp stop point [0-4095]
 796:C:\Users\Depes Crystalline\Desktop\school\Active_Bike_Lighting_System\Radar_Core\Libraries\XMCLib\inc\xmc_dac.h ****  *
 797:C:\Users\Depes Crystalline\Desktop\school\Active_Bike_Lighting_System\Radar_Core\Libraries\XMCLib\inc\xmc_dac.h ****  * @return None
 798:C:\Users\Depes Crystalline\Desktop\school\Active_Bike_Lighting_System\Radar_Core\Libraries\XMCLib\inc\xmc_dac.h ****  *
 799:C:\Users\Depes Crystalline\Desktop\school\Active_Bike_Lighting_System\Radar_Core\Libraries\XMCLib\inc\xmc_dac.h ****  * \par<b>Description:</b><br>
 800:C:\Users\Depes Crystalline\Desktop\school\Active_Bike_Lighting_System\Radar_Core\Libraries\XMCLib\inc\xmc_dac.h ****  * Sets the ramp stop value by writing to the bit-field \a DATA0 (for \e channel 0) or \a DATA1 (fo
 801:C:\Users\Depes Crystalline\Desktop\school\Active_Bike_Lighting_System\Radar_Core\Libraries\XMCLib\inc\xmc_dac.h ****  * If the ramp counter reaches its \a stop value, it restarts from the start value with the next tr
 802:C:\Users\Depes Crystalline\Desktop\school\Active_Bike_Lighting_System\Radar_Core\Libraries\XMCLib\inc\xmc_dac.h ****  * Ensure \e stop value is higher than the start value.
 803:C:\Users\Depes Crystalline\Desktop\school\Active_Bike_Lighting_System\Radar_Core\Libraries\XMCLib\inc\xmc_dac.h ****  *
 804:C:\Users\Depes Crystalline\Desktop\school\Active_Bike_Lighting_System\Radar_Core\Libraries\XMCLib\inc\xmc_dac.h ****  * \par<b>Note:</b><br>
 805:C:\Users\Depes Crystalline\Desktop\school\Active_Bike_Lighting_System\Radar_Core\Libraries\XMCLib\inc\xmc_dac.h ****  * Call this API if the \e channel is set to Ramp mode.
 806:C:\Users\Depes Crystalline\Desktop\school\Active_Bike_Lighting_System\Radar_Core\Libraries\XMCLib\inc\xmc_dac.h ****  * Stop value is a 12 bit data.
 807:C:\Users\Depes Crystalline\Desktop\school\Active_Bike_Lighting_System\Radar_Core\Libraries\XMCLib\inc\xmc_dac.h ****  *
 808:C:\Users\Depes Crystalline\Desktop\school\Active_Bike_Lighting_System\Radar_Core\Libraries\XMCLib\inc\xmc_dac.h ****  * \par<b>Related APIs:</b><BR>
 809:C:\Users\Depes Crystalline\Desktop\school\Active_Bike_Lighting_System\Radar_Core\Libraries\XMCLib\inc\xmc_dac.h ****  * XMC_DAC_CH_GetRampStop(), XMC_DAC_CH_SetRampStart()\n\n\n
 810:C:\Users\Depes Crystalline\Desktop\school\Active_Bike_Lighting_System\Radar_Core\Libraries\XMCLib\inc\xmc_dac.h ****  *
 811:C:\Users\Depes Crystalline\Desktop\school\Active_Bike_Lighting_System\Radar_Core\Libraries\XMCLib\inc\xmc_dac.h ****  */
 812:C:\Users\Depes Crystalline\Desktop\school\Active_Bike_Lighting_System\Radar_Core\Libraries\XMCLib\inc\xmc_dac.h **** __STATIC_INLINE void XMC_DAC_CH_SetRampStop(XMC_DAC_t *const dac, const uint8_t channel, const uint
 813:C:\Users\Depes Crystalline\Desktop\school\Active_Bike_Lighting_System\Radar_Core\Libraries\XMCLib\inc\xmc_dac.h **** {
 224              	 .loc 1 813 0
 225              	 .cfi_startproc
 226              	 
 227              	 
 228              	 
 229 0000 80B4     	 push {r7}
 230              	.LCFI24:
 231              	 .cfi_def_cfa_offset 4
 232              	 .cfi_offset 7,-4
 233 0002 83B0     	 sub sp,sp,#12
 234              	.LCFI25:
 235              	 .cfi_def_cfa_offset 16
 236 0004 00AF     	 add r7,sp,#0
 237              	.LCFI26:
 238              	 .cfi_def_cfa_register 7
 239 0006 7860     	 str r0,[r7,#4]
 240 0008 0B46     	 mov r3,r1
 241 000a FB70     	 strb r3,[r7,#3]
 242 000c 1346     	 mov r3,r2
 243 000e 3B80     	 strh r3,[r7]
 814:C:\Users\Depes Crystalline\Desktop\school\Active_Bike_Lighting_System\Radar_Core\Libraries\XMCLib\inc\xmc_dac.h ****   dac->DAC01DATA = (dac->DAC01DATA & ~(DAC_DAC01DATA_DATA0_Msk << (channel * DAC_DAC01DATA_DATA1_Po
 244              	 .loc 1 814 0
 245 0010 7B68     	 ldr r3,[r7,#4]
 246 0012 DA69     	 ldr r2,[r3,#28]
 247 0014 FB78     	 ldrb r3,[r7,#3]
 248 0016 1B01     	 lsls r3,r3,#4
 249 0018 1946     	 mov r1,r3
 250 001a 40F6FF73 	 movw r3,#4095
 251 001e 8B40     	 lsls r3,r3,r1
 252 0020 DB43     	 mvns r3,r3
 253 0022 1340     	 ands r3,r3,r2
 815:C:\Users\Depes Crystalline\Desktop\school\Active_Bike_Lighting_System\Radar_Core\Libraries\XMCLib\inc\xmc_dac.h ****                (stop << (channel * DAC_DAC01DATA_DATA1_Pos));
 254              	 .loc 1 815 0
 255 0024 3A88     	 ldrh r2,[r7]
 256 0026 F978     	 ldrb r1,[r7,#3]
 257 0028 0901     	 lsls r1,r1,#4
 258 002a 8A40     	 lsls r2,r2,r1
 814:C:\Users\Depes Crystalline\Desktop\school\Active_Bike_Lighting_System\Radar_Core\Libraries\XMCLib\inc\xmc_dac.h ****   dac->DAC01DATA = (dac->DAC01DATA & ~(DAC_DAC01DATA_DATA0_Msk << (channel * DAC_DAC01DATA_DATA1_Po
 259              	 .loc 1 814 0
 260 002c 1A43     	 orrs r2,r2,r3
 261 002e 7B68     	 ldr r3,[r7,#4]
 262 0030 DA61     	 str r2,[r3,#28]
 816:C:\Users\Depes Crystalline\Desktop\school\Active_Bike_Lighting_System\Radar_Core\Libraries\XMCLib\inc\xmc_dac.h **** }
 263              	 .loc 1 816 0
 264 0032 0C37     	 adds r7,r7,#12
 265              	.LCFI27:
 266              	 .cfi_def_cfa_offset 4
 267 0034 BD46     	 mov sp,r7
 268              	.LCFI28:
 269              	 .cfi_def_cfa_register 13
 270              	 
 271 0036 5DF8047B 	 ldr r7,[sp],#4
 272              	.LCFI29:
 273              	 .cfi_restore 7
 274              	 .cfi_def_cfa_offset 0
 275 003a 7047     	 bx lr
 276              	 .cfi_endproc
 277              	.LFE139:
 279              	 .section .text.XMC_DAC_CH_SetMode,"ax",%progbits
 280              	 .align 2
 281              	 .thumb
 282              	 .thumb_func
 284              	XMC_DAC_CH_SetMode:
 285              	.LFB143:
 817:C:\Users\Depes Crystalline\Desktop\school\Active_Bike_Lighting_System\Radar_Core\Libraries\XMCLib\inc\xmc_dac.h **** 
 818:C:\Users\Depes Crystalline\Desktop\school\Active_Bike_Lighting_System\Radar_Core\Libraries\XMCLib\inc\xmc_dac.h **** /**
 819:C:\Users\Depes Crystalline\Desktop\school\Active_Bike_Lighting_System\Radar_Core\Libraries\XMCLib\inc\xmc_dac.h ****  * @param dac Pointer to an instance of DAC module
 820:C:\Users\Depes Crystalline\Desktop\school\Active_Bike_Lighting_System\Radar_Core\Libraries\XMCLib\inc\xmc_dac.h ****  * @param channel DAC channel number
 821:C:\Users\Depes Crystalline\Desktop\school\Active_Bike_Lighting_System\Radar_Core\Libraries\XMCLib\inc\xmc_dac.h ****  *
 822:C:\Users\Depes Crystalline\Desktop\school\Active_Bike_Lighting_System\Radar_Core\Libraries\XMCLib\inc\xmc_dac.h ****  * @return uint16_t
 823:C:\Users\Depes Crystalline\Desktop\school\Active_Bike_Lighting_System\Radar_Core\Libraries\XMCLib\inc\xmc_dac.h ****  *
 824:C:\Users\Depes Crystalline\Desktop\school\Active_Bike_Lighting_System\Radar_Core\Libraries\XMCLib\inc\xmc_dac.h ****  * \par<b>Description:</b><br>
 825:C:\Users\Depes Crystalline\Desktop\school\Active_Bike_Lighting_System\Radar_Core\Libraries\XMCLib\inc\xmc_dac.h ****  * Gets the ramp stop value by reading \a DATA0 bit-field of \a DAC01DATA register (for channel 0) 
 826:C:\Users\Depes Crystalline\Desktop\school\Active_Bike_Lighting_System\Radar_Core\Libraries\XMCLib\inc\xmc_dac.h ****  * If the ramp counter reaches its stop value, it restarts from the start value with the next trigg
 827:C:\Users\Depes Crystalline\Desktop\school\Active_Bike_Lighting_System\Radar_Core\Libraries\XMCLib\inc\xmc_dac.h ****  *
 828:C:\Users\Depes Crystalline\Desktop\school\Active_Bike_Lighting_System\Radar_Core\Libraries\XMCLib\inc\xmc_dac.h ****  * \par<b>Note:</b><br>
 829:C:\Users\Depes Crystalline\Desktop\school\Active_Bike_Lighting_System\Radar_Core\Libraries\XMCLib\inc\xmc_dac.h ****  * Call this API if the \e channel is set to Ramp mode.
 830:C:\Users\Depes Crystalline\Desktop\school\Active_Bike_Lighting_System\Radar_Core\Libraries\XMCLib\inc\xmc_dac.h ****  *
 831:C:\Users\Depes Crystalline\Desktop\school\Active_Bike_Lighting_System\Radar_Core\Libraries\XMCLib\inc\xmc_dac.h ****  * \par<b>Related APIs:</b><BR>
 832:C:\Users\Depes Crystalline\Desktop\school\Active_Bike_Lighting_System\Radar_Core\Libraries\XMCLib\inc\xmc_dac.h ****  * XMC_DAC_CH_SetRampStop(), XMC_DAC_CH_StartRampMode(), XMC_DAC_CH_GetRampStart()\n\n\n
 833:C:\Users\Depes Crystalline\Desktop\school\Active_Bike_Lighting_System\Radar_Core\Libraries\XMCLib\inc\xmc_dac.h ****  *
 834:C:\Users\Depes Crystalline\Desktop\school\Active_Bike_Lighting_System\Radar_Core\Libraries\XMCLib\inc\xmc_dac.h ****  */
 835:C:\Users\Depes Crystalline\Desktop\school\Active_Bike_Lighting_System\Radar_Core\Libraries\XMCLib\inc\xmc_dac.h **** __STATIC_INLINE uint16_t XMC_DAC_CH_GetRampStop(XMC_DAC_t *const dac, const uint8_t channel)
 836:C:\Users\Depes Crystalline\Desktop\school\Active_Bike_Lighting_System\Radar_Core\Libraries\XMCLib\inc\xmc_dac.h **** {
 837:C:\Users\Depes Crystalline\Desktop\school\Active_Bike_Lighting_System\Radar_Core\Libraries\XMCLib\inc\xmc_dac.h ****   return((dac->DAC01DATA >> (channel * DAC_DAC01DATA_DATA1_Pos)) & DAC_DAC01DATA_DATA0_Msk);
 838:C:\Users\Depes Crystalline\Desktop\school\Active_Bike_Lighting_System\Radar_Core\Libraries\XMCLib\inc\xmc_dac.h **** }
 839:C:\Users\Depes Crystalline\Desktop\school\Active_Bike_Lighting_System\Radar_Core\Libraries\XMCLib\inc\xmc_dac.h **** 
 840:C:\Users\Depes Crystalline\Desktop\school\Active_Bike_Lighting_System\Radar_Core\Libraries\XMCLib\inc\xmc_dac.h **** /**
 841:C:\Users\Depes Crystalline\Desktop\school\Active_Bike_Lighting_System\Radar_Core\Libraries\XMCLib\inc\xmc_dac.h ****  * @param dac Pointer to an instance of DAC module
 842:C:\Users\Depes Crystalline\Desktop\school\Active_Bike_Lighting_System\Radar_Core\Libraries\XMCLib\inc\xmc_dac.h ****  * @param channel DAC channel number
 843:C:\Users\Depes Crystalline\Desktop\school\Active_Bike_Lighting_System\Radar_Core\Libraries\XMCLib\inc\xmc_dac.h ****  * @param trigger Trigger source
 844:C:\Users\Depes Crystalline\Desktop\school\Active_Bike_Lighting_System\Radar_Core\Libraries\XMCLib\inc\xmc_dac.h ****  *
 845:C:\Users\Depes Crystalline\Desktop\school\Active_Bike_Lighting_System\Radar_Core\Libraries\XMCLib\inc\xmc_dac.h ****  * @return None
 846:C:\Users\Depes Crystalline\Desktop\school\Active_Bike_Lighting_System\Radar_Core\Libraries\XMCLib\inc\xmc_dac.h ****  *
 847:C:\Users\Depes Crystalline\Desktop\school\Active_Bike_Lighting_System\Radar_Core\Libraries\XMCLib\inc\xmc_dac.h ****  * \par<b>Description:</b><br>
 848:C:\Users\Depes Crystalline\Desktop\school\Active_Bike_Lighting_System\Radar_Core\Libraries\XMCLib\inc\xmc_dac.h ****  * Selects the \e trigger source for the \e channel by configuring the bits TRIGSEL & TRIGMOD of CF
 849:C:\Users\Depes Crystalline\Desktop\school\Active_Bike_Lighting_System\Radar_Core\Libraries\XMCLib\inc\xmc_dac.h ****  *
 850:C:\Users\Depes Crystalline\Desktop\school\Active_Bike_Lighting_System\Radar_Core\Libraries\XMCLib\inc\xmc_dac.h ****  * \par
 851:C:\Users\Depes Crystalline\Desktop\school\Active_Bike_Lighting_System\Radar_Core\Libraries\XMCLib\inc\xmc_dac.h ****  * Channel \a channel trigger source is selected by \a TRIGSEL bit-field of \a DAC0CFG1 register (f
 852:C:\Users\Depes Crystalline\Desktop\school\Active_Bike_Lighting_System\Radar_Core\Libraries\XMCLib\inc\xmc_dac.h ****  *
 853:C:\Users\Depes Crystalline\Desktop\school\Active_Bike_Lighting_System\Radar_Core\Libraries\XMCLib\inc\xmc_dac.h ****  */
 854:C:\Users\Depes Crystalline\Desktop\school\Active_Bike_Lighting_System\Radar_Core\Libraries\XMCLib\inc\xmc_dac.h **** __STATIC_INLINE void XMC_DAC_CH_SetTrigger(XMC_DAC_t *const dac, const uint8_t channel, const XMC_D
 855:C:\Users\Depes Crystalline\Desktop\school\Active_Bike_Lighting_System\Radar_Core\Libraries\XMCLib\inc\xmc_dac.h **** {
 856:C:\Users\Depes Crystalline\Desktop\school\Active_Bike_Lighting_System\Radar_Core\Libraries\XMCLib\inc\xmc_dac.h ****   dac->DACCFG[channel].high = (dac->DACCFG[channel].high & ~(DAC_DAC0CFG1_TRIGSEL_Msk | DAC_DAC0CFG
 857:C:\Users\Depes Crystalline\Desktop\school\Active_Bike_Lighting_System\Radar_Core\Libraries\XMCLib\inc\xmc_dac.h ****                               trigger;
 858:C:\Users\Depes Crystalline\Desktop\school\Active_Bike_Lighting_System\Radar_Core\Libraries\XMCLib\inc\xmc_dac.h **** }
 859:C:\Users\Depes Crystalline\Desktop\school\Active_Bike_Lighting_System\Radar_Core\Libraries\XMCLib\inc\xmc_dac.h **** 
 860:C:\Users\Depes Crystalline\Desktop\school\Active_Bike_Lighting_System\Radar_Core\Libraries\XMCLib\inc\xmc_dac.h **** /**
 861:C:\Users\Depes Crystalline\Desktop\school\Active_Bike_Lighting_System\Radar_Core\Libraries\XMCLib\inc\xmc_dac.h ****  * @param dac Pointer to an instance of DAC module
 862:C:\Users\Depes Crystalline\Desktop\school\Active_Bike_Lighting_System\Radar_Core\Libraries\XMCLib\inc\xmc_dac.h ****  * @param channel DAC channel number
 863:C:\Users\Depes Crystalline\Desktop\school\Active_Bike_Lighting_System\Radar_Core\Libraries\XMCLib\inc\xmc_dac.h ****  * @param frequency Waveform frequency in [Hz]
 864:C:\Users\Depes Crystalline\Desktop\school\Active_Bike_Lighting_System\Radar_Core\Libraries\XMCLib\inc\xmc_dac.h ****  *
 865:C:\Users\Depes Crystalline\Desktop\school\Active_Bike_Lighting_System\Radar_Core\Libraries\XMCLib\inc\xmc_dac.h ****  * @return XMC_DAC_CH_STATUS_t
 866:C:\Users\Depes Crystalline\Desktop\school\Active_Bike_Lighting_System\Radar_Core\Libraries\XMCLib\inc\xmc_dac.h ****  *
 867:C:\Users\Depes Crystalline\Desktop\school\Active_Bike_Lighting_System\Radar_Core\Libraries\XMCLib\inc\xmc_dac.h ****  * \par<b>Description:</b><br>
 868:C:\Users\Depes Crystalline\Desktop\school\Active_Bike_Lighting_System\Radar_Core\Libraries\XMCLib\inc\xmc_dac.h ****  * Sets the \e frequency of DAC channel.
 869:C:\Users\Depes Crystalline\Desktop\school\Active_Bike_Lighting_System\Radar_Core\Libraries\XMCLib\inc\xmc_dac.h ****  *
 870:C:\Users\Depes Crystalline\Desktop\school\Active_Bike_Lighting_System\Radar_Core\Libraries\XMCLib\inc\xmc_dac.h ****  * \par
 871:C:\Users\Depes Crystalline\Desktop\school\Active_Bike_Lighting_System\Radar_Core\Libraries\XMCLib\inc\xmc_dac.h ****  * The value \e frequency acts as clock divider. The smallest \e frequency divider value is 16.
 872:C:\Users\Depes Crystalline\Desktop\school\Active_Bike_Lighting_System\Radar_Core\Libraries\XMCLib\inc\xmc_dac.h ****  * A valid \e frequency value should be within the range XMC_DAC_MIN_FREQ_DIVIDER to XMC_DAC_MAX_FR
 873:C:\Users\Depes Crystalline\Desktop\school\Active_Bike_Lighting_System\Radar_Core\Libraries\XMCLib\inc\xmc_dac.h ****  * Frequency \a frequency is configured by setting \a FREQ bit-field of \a DAC0CFG0 register (for c
 874:C:\Users\Depes Crystalline\Desktop\school\Active_Bike_Lighting_System\Radar_Core\Libraries\XMCLib\inc\xmc_dac.h ****  *
 875:C:\Users\Depes Crystalline\Desktop\school\Active_Bike_Lighting_System\Radar_Core\Libraries\XMCLib\inc\xmc_dac.h ****  * \par<b>Note:</b><br>
 876:C:\Users\Depes Crystalline\Desktop\school\Active_Bike_Lighting_System\Radar_Core\Libraries\XMCLib\inc\xmc_dac.h ****  * Call this API only for Single value mode, Data mode and Noise mode.
 877:C:\Users\Depes Crystalline\Desktop\school\Active_Bike_Lighting_System\Radar_Core\Libraries\XMCLib\inc\xmc_dac.h ****  * Call XMC_DAC_CH_SetRampFrequency() in case of Ramp mode and XMC_DAC_CH_SetPatternFrequency() in 
 878:C:\Users\Depes Crystalline\Desktop\school\Active_Bike_Lighting_System\Radar_Core\Libraries\XMCLib\inc\xmc_dac.h ****  *
 879:C:\Users\Depes Crystalline\Desktop\school\Active_Bike_Lighting_System\Radar_Core\Libraries\XMCLib\inc\xmc_dac.h ****  * \par<b>Related APIs:</b><BR>
 880:C:\Users\Depes Crystalline\Desktop\school\Active_Bike_Lighting_System\Radar_Core\Libraries\XMCLib\inc\xmc_dac.h ****  * XMC_DAC_CH_SetRampFrequency(), XMC_DAC_CH_SetPatternFrequency()\n\n\n
 881:C:\Users\Depes Crystalline\Desktop\school\Active_Bike_Lighting_System\Radar_Core\Libraries\XMCLib\inc\xmc_dac.h ****  *
 882:C:\Users\Depes Crystalline\Desktop\school\Active_Bike_Lighting_System\Radar_Core\Libraries\XMCLib\inc\xmc_dac.h ****  */
 883:C:\Users\Depes Crystalline\Desktop\school\Active_Bike_Lighting_System\Radar_Core\Libraries\XMCLib\inc\xmc_dac.h **** XMC_DAC_CH_STATUS_t XMC_DAC_CH_SetFrequency(XMC_DAC_t *const dac, const uint8_t channel, const uint
 884:C:\Users\Depes Crystalline\Desktop\school\Active_Bike_Lighting_System\Radar_Core\Libraries\XMCLib\inc\xmc_dac.h **** 
 885:C:\Users\Depes Crystalline\Desktop\school\Active_Bike_Lighting_System\Radar_Core\Libraries\XMCLib\inc\xmc_dac.h **** /**
 886:C:\Users\Depes Crystalline\Desktop\school\Active_Bike_Lighting_System\Radar_Core\Libraries\XMCLib\inc\xmc_dac.h ****  * @param dac Pointer to an instance of DAC module
 887:C:\Users\Depes Crystalline\Desktop\school\Active_Bike_Lighting_System\Radar_Core\Libraries\XMCLib\inc\xmc_dac.h ****  * @param channel DAC channel number
 888:C:\Users\Depes Crystalline\Desktop\school\Active_Bike_Lighting_System\Radar_Core\Libraries\XMCLib\inc\xmc_dac.h ****  * @param frequency [Hz]
 889:C:\Users\Depes Crystalline\Desktop\school\Active_Bike_Lighting_System\Radar_Core\Libraries\XMCLib\inc\xmc_dac.h ****  *
 890:C:\Users\Depes Crystalline\Desktop\school\Active_Bike_Lighting_System\Radar_Core\Libraries\XMCLib\inc\xmc_dac.h ****  * @return XMC_DAC_CH_STATUS_t
 891:C:\Users\Depes Crystalline\Desktop\school\Active_Bike_Lighting_System\Radar_Core\Libraries\XMCLib\inc\xmc_dac.h ****  *
 892:C:\Users\Depes Crystalline\Desktop\school\Active_Bike_Lighting_System\Radar_Core\Libraries\XMCLib\inc\xmc_dac.h ****  * \par<b>Description:</b><br>
 893:C:\Users\Depes Crystalline\Desktop\school\Active_Bike_Lighting_System\Radar_Core\Libraries\XMCLib\inc\xmc_dac.h ****  * Sets the \e frequency of DAC channel by calling XMC_DAC_CH_SetFrequency().
 894:C:\Users\Depes Crystalline\Desktop\school\Active_Bike_Lighting_System\Radar_Core\Libraries\XMCLib\inc\xmc_dac.h ****  *
 895:C:\Users\Depes Crystalline\Desktop\school\Active_Bike_Lighting_System\Radar_Core\Libraries\XMCLib\inc\xmc_dac.h ****  * \par
 896:C:\Users\Depes Crystalline\Desktop\school\Active_Bike_Lighting_System\Radar_Core\Libraries\XMCLib\inc\xmc_dac.h ****  * For the Ramp mode, the \a frequency of operation depends on the total number of sample points (\
 897:C:\Users\Depes Crystalline\Desktop\school\Active_Bike_Lighting_System\Radar_Core\Libraries\XMCLib\inc\xmc_dac.h ****  * Frequency \e frequency is multiplied by the total number of sample points, so that each trigger 
 898:C:\Users\Depes Crystalline\Desktop\school\Active_Bike_Lighting_System\Radar_Core\Libraries\XMCLib\inc\xmc_dac.h ****  *
 899:C:\Users\Depes Crystalline\Desktop\school\Active_Bike_Lighting_System\Radar_Core\Libraries\XMCLib\inc\xmc_dac.h ****  * \par<b>Note:</b><br>
 900:C:\Users\Depes Crystalline\Desktop\school\Active_Bike_Lighting_System\Radar_Core\Libraries\XMCLib\inc\xmc_dac.h ****  * Call this API only if the \a channel is set to Ramp mode.
 901:C:\Users\Depes Crystalline\Desktop\school\Active_Bike_Lighting_System\Radar_Core\Libraries\XMCLib\inc\xmc_dac.h ****  *
 902:C:\Users\Depes Crystalline\Desktop\school\Active_Bike_Lighting_System\Radar_Core\Libraries\XMCLib\inc\xmc_dac.h ****  * \par<b>Related APIs:</b><BR>
 903:C:\Users\Depes Crystalline\Desktop\school\Active_Bike_Lighting_System\Radar_Core\Libraries\XMCLib\inc\xmc_dac.h ****  * XMC_DAC_CH_StartRampMode()\n\n\n
 904:C:\Users\Depes Crystalline\Desktop\school\Active_Bike_Lighting_System\Radar_Core\Libraries\XMCLib\inc\xmc_dac.h ****  *
 905:C:\Users\Depes Crystalline\Desktop\school\Active_Bike_Lighting_System\Radar_Core\Libraries\XMCLib\inc\xmc_dac.h ****  */
 906:C:\Users\Depes Crystalline\Desktop\school\Active_Bike_Lighting_System\Radar_Core\Libraries\XMCLib\inc\xmc_dac.h **** XMC_DAC_CH_STATUS_t XMC_DAC_CH_SetRampFrequency(XMC_DAC_t *const dac, const uint8_t channel, const 
 907:C:\Users\Depes Crystalline\Desktop\school\Active_Bike_Lighting_System\Radar_Core\Libraries\XMCLib\inc\xmc_dac.h **** 
 908:C:\Users\Depes Crystalline\Desktop\school\Active_Bike_Lighting_System\Radar_Core\Libraries\XMCLib\inc\xmc_dac.h **** /**
 909:C:\Users\Depes Crystalline\Desktop\school\Active_Bike_Lighting_System\Radar_Core\Libraries\XMCLib\inc\xmc_dac.h ****  * @param dac Pointer to an instance of DAC module
 910:C:\Users\Depes Crystalline\Desktop\school\Active_Bike_Lighting_System\Radar_Core\Libraries\XMCLib\inc\xmc_dac.h ****  * @param channel DAC channel number
 911:C:\Users\Depes Crystalline\Desktop\school\Active_Bike_Lighting_System\Radar_Core\Libraries\XMCLib\inc\xmc_dac.h ****  * @param frequency in [Hz]
 912:C:\Users\Depes Crystalline\Desktop\school\Active_Bike_Lighting_System\Radar_Core\Libraries\XMCLib\inc\xmc_dac.h ****  *
 913:C:\Users\Depes Crystalline\Desktop\school\Active_Bike_Lighting_System\Radar_Core\Libraries\XMCLib\inc\xmc_dac.h ****  * @return XMC_DAC_CH_STATUS_t
 914:C:\Users\Depes Crystalline\Desktop\school\Active_Bike_Lighting_System\Radar_Core\Libraries\XMCLib\inc\xmc_dac.h ****  *
 915:C:\Users\Depes Crystalline\Desktop\school\Active_Bike_Lighting_System\Radar_Core\Libraries\XMCLib\inc\xmc_dac.h ****  * \par<b>Description:</b><br>
 916:C:\Users\Depes Crystalline\Desktop\school\Active_Bike_Lighting_System\Radar_Core\Libraries\XMCLib\inc\xmc_dac.h ****  * Sets the \e frequency of DAC channel by calling XMC_DAC_CH_SetFrequency().
 917:C:\Users\Depes Crystalline\Desktop\school\Active_Bike_Lighting_System\Radar_Core\Libraries\XMCLib\inc\xmc_dac.h ****  *
 918:C:\Users\Depes Crystalline\Desktop\school\Active_Bike_Lighting_System\Radar_Core\Libraries\XMCLib\inc\xmc_dac.h ****  * \par
 919:C:\Users\Depes Crystalline\Desktop\school\Active_Bike_Lighting_System\Radar_Core\Libraries\XMCLib\inc\xmc_dac.h ****  * For the Pattern mode, the \a frequency of operation depends on the total number of sample points
 920:C:\Users\Depes Crystalline\Desktop\school\Active_Bike_Lighting_System\Radar_Core\Libraries\XMCLib\inc\xmc_dac.h ****  * Frequency \e frequency is multiplied by the total number of sample points, so that each trigger 
 921:C:\Users\Depes Crystalline\Desktop\school\Active_Bike_Lighting_System\Radar_Core\Libraries\XMCLib\inc\xmc_dac.h ****  *
 922:C:\Users\Depes Crystalline\Desktop\school\Active_Bike_Lighting_System\Radar_Core\Libraries\XMCLib\inc\xmc_dac.h ****  * \par<b>Note:</b><br>
 923:C:\Users\Depes Crystalline\Desktop\school\Active_Bike_Lighting_System\Radar_Core\Libraries\XMCLib\inc\xmc_dac.h ****  * Call this API only if the \a channel is set to Pattern mode.
 924:C:\Users\Depes Crystalline\Desktop\school\Active_Bike_Lighting_System\Radar_Core\Libraries\XMCLib\inc\xmc_dac.h ****  *
 925:C:\Users\Depes Crystalline\Desktop\school\Active_Bike_Lighting_System\Radar_Core\Libraries\XMCLib\inc\xmc_dac.h ****  * \par<b>Related APIs:</b><BR>
 926:C:\Users\Depes Crystalline\Desktop\school\Active_Bike_Lighting_System\Radar_Core\Libraries\XMCLib\inc\xmc_dac.h ****  * XMC_DAC_CH_StartPatternMode()\n\n\n
 927:C:\Users\Depes Crystalline\Desktop\school\Active_Bike_Lighting_System\Radar_Core\Libraries\XMCLib\inc\xmc_dac.h ****  *
 928:C:\Users\Depes Crystalline\Desktop\school\Active_Bike_Lighting_System\Radar_Core\Libraries\XMCLib\inc\xmc_dac.h ****  */
 929:C:\Users\Depes Crystalline\Desktop\school\Active_Bike_Lighting_System\Radar_Core\Libraries\XMCLib\inc\xmc_dac.h **** __STATIC_INLINE XMC_DAC_CH_STATUS_t XMC_DAC_CH_SetPatternFrequency(XMC_DAC_t *const dac,
 930:C:\Users\Depes Crystalline\Desktop\school\Active_Bike_Lighting_System\Radar_Core\Libraries\XMCLib\inc\xmc_dac.h ****                                                                    const uint8_t channel,
 931:C:\Users\Depes Crystalline\Desktop\school\Active_Bike_Lighting_System\Radar_Core\Libraries\XMCLib\inc\xmc_dac.h ****                                                                    const uint32_t frequency)
 932:C:\Users\Depes Crystalline\Desktop\school\Active_Bike_Lighting_System\Radar_Core\Libraries\XMCLib\inc\xmc_dac.h **** {
 933:C:\Users\Depes Crystalline\Desktop\school\Active_Bike_Lighting_System\Radar_Core\Libraries\XMCLib\inc\xmc_dac.h ****   return XMC_DAC_CH_SetFrequency(dac, channel, frequency * XMC_DAC_SAMPLES_PER_PERIOD);
 934:C:\Users\Depes Crystalline\Desktop\school\Active_Bike_Lighting_System\Radar_Core\Libraries\XMCLib\inc\xmc_dac.h **** }
 935:C:\Users\Depes Crystalline\Desktop\school\Active_Bike_Lighting_System\Radar_Core\Libraries\XMCLib\inc\xmc_dac.h **** 
 936:C:\Users\Depes Crystalline\Desktop\school\Active_Bike_Lighting_System\Radar_Core\Libraries\XMCLib\inc\xmc_dac.h **** /**
 937:C:\Users\Depes Crystalline\Desktop\school\Active_Bike_Lighting_System\Radar_Core\Libraries\XMCLib\inc\xmc_dac.h ****  * @param dac Pointer to an instance of DAC module
 938:C:\Users\Depes Crystalline\Desktop\school\Active_Bike_Lighting_System\Radar_Core\Libraries\XMCLib\inc\xmc_dac.h ****  * @param channel DAC channel number
 939:C:\Users\Depes Crystalline\Desktop\school\Active_Bike_Lighting_System\Radar_Core\Libraries\XMCLib\inc\xmc_dac.h ****  * @param mode DAC operation mode
 940:C:\Users\Depes Crystalline\Desktop\school\Active_Bike_Lighting_System\Radar_Core\Libraries\XMCLib\inc\xmc_dac.h ****  *
 941:C:\Users\Depes Crystalline\Desktop\school\Active_Bike_Lighting_System\Radar_Core\Libraries\XMCLib\inc\xmc_dac.h ****  * @return None
 942:C:\Users\Depes Crystalline\Desktop\school\Active_Bike_Lighting_System\Radar_Core\Libraries\XMCLib\inc\xmc_dac.h ****  *
 943:C:\Users\Depes Crystalline\Desktop\school\Active_Bike_Lighting_System\Radar_Core\Libraries\XMCLib\inc\xmc_dac.h ****  * \par<b>Description:</b><br>
 944:C:\Users\Depes Crystalline\Desktop\school\Active_Bike_Lighting_System\Radar_Core\Libraries\XMCLib\inc\xmc_dac.h ****  * Sets the operating \e mode for the \e channel by setting the \a MODE bit-field of \a DAC0CFG0 re
 945:C:\Users\Depes Crystalline\Desktop\school\Active_Bike_Lighting_System\Radar_Core\Libraries\XMCLib\inc\xmc_dac.h ****  * Different modes of DAC operation are defined by enum XMC_DAC_CH_MODE_t.
 946:C:\Users\Depes Crystalline\Desktop\school\Active_Bike_Lighting_System\Radar_Core\Libraries\XMCLib\inc\xmc_dac.h ****  *
 947:C:\Users\Depes Crystalline\Desktop\school\Active_Bike_Lighting_System\Radar_Core\Libraries\XMCLib\inc\xmc_dac.h ****  */
 948:C:\Users\Depes Crystalline\Desktop\school\Active_Bike_Lighting_System\Radar_Core\Libraries\XMCLib\inc\xmc_dac.h **** __STATIC_INLINE void XMC_DAC_CH_SetMode(XMC_DAC_t *const dac, const uint8_t channel, const XMC_DAC_
 949:C:\Users\Depes Crystalline\Desktop\school\Active_Bike_Lighting_System\Radar_Core\Libraries\XMCLib\inc\xmc_dac.h **** {
 286              	 .loc 1 949 0
 287              	 .cfi_startproc
 288              	 
 289              	 
 290              	 
 291 0000 80B4     	 push {r7}
 292              	.LCFI30:
 293              	 .cfi_def_cfa_offset 4
 294              	 .cfi_offset 7,-4
 295 0002 85B0     	 sub sp,sp,#20
 296              	.LCFI31:
 297              	 .cfi_def_cfa_offset 24
 298 0004 00AF     	 add r7,sp,#0
 299              	.LCFI32:
 300              	 .cfi_def_cfa_register 7
 301 0006 F860     	 str r0,[r7,#12]
 302 0008 0B46     	 mov r3,r1
 303 000a 7A60     	 str r2,[r7,#4]
 304 000c FB72     	 strb r3,[r7,#11]
 950:C:\Users\Depes Crystalline\Desktop\school\Active_Bike_Lighting_System\Radar_Core\Libraries\XMCLib\inc\xmc_dac.h ****   dac->DACCFG[channel].low = (dac->DACCFG[channel].low & ~DAC_DAC0CFG0_MODE_Msk) |
 305              	 .loc 1 950 0
 306 000e F87A     	 ldrb r0,[r7,#11]
 307 0010 FB7A     	 ldrb r3,[r7,#11]
 308 0012 FA68     	 ldr r2,[r7,#12]
 309 0014 DB00     	 lsls r3,r3,#3
 310 0016 1344     	 add r3,r3,r2
 311 0018 5B68     	 ldr r3,[r3,#4]
 312 001a 23F4E002 	 bic r2,r3,#7340032
 313 001e 7B68     	 ldr r3,[r7,#4]
 314 0020 1A43     	 orrs r2,r2,r3
 315 0022 F968     	 ldr r1,[r7,#12]
 316 0024 C300     	 lsls r3,r0,#3
 317 0026 0B44     	 add r3,r3,r1
 318 0028 5A60     	 str r2,[r3,#4]
 951:C:\Users\Depes Crystalline\Desktop\school\Active_Bike_Lighting_System\Radar_Core\Libraries\XMCLib\inc\xmc_dac.h ****                              mode;
 952:C:\Users\Depes Crystalline\Desktop\school\Active_Bike_Lighting_System\Radar_Core\Libraries\XMCLib\inc\xmc_dac.h **** }
 319              	 .loc 1 952 0
 320 002a 1437     	 adds r7,r7,#20
 321              	.LCFI33:
 322              	 .cfi_def_cfa_offset 4
 323 002c BD46     	 mov sp,r7
 324              	.LCFI34:
 325              	 .cfi_def_cfa_register 13
 326              	 
 327 002e 5DF8047B 	 ldr r7,[sp],#4
 328              	.LCFI35:
 329              	 .cfi_restore 7
 330              	 .cfi_def_cfa_offset 0
 331 0032 7047     	 bx lr
 332              	 .cfi_endproc
 333              	.LFE143:
 335              	 .section .text.XMC_DAC_CH_EnableEvent,"ax",%progbits
 336              	 .align 2
 337              	 .thumb
 338              	 .thumb_func
 340              	XMC_DAC_CH_EnableEvent:
 341              	.LFB147:
 953:C:\Users\Depes Crystalline\Desktop\school\Active_Bike_Lighting_System\Radar_Core\Libraries\XMCLib\inc\xmc_dac.h **** 
 954:C:\Users\Depes Crystalline\Desktop\school\Active_Bike_Lighting_System\Radar_Core\Libraries\XMCLib\inc\xmc_dac.h **** /**
 955:C:\Users\Depes Crystalline\Desktop\school\Active_Bike_Lighting_System\Radar_Core\Libraries\XMCLib\inc\xmc_dac.h ****  * @param dac Pointer to an instance of DAC module
 956:C:\Users\Depes Crystalline\Desktop\school\Active_Bike_Lighting_System\Radar_Core\Libraries\XMCLib\inc\xmc_dac.h ****  * @param channel DAC channel number
 957:C:\Users\Depes Crystalline\Desktop\school\Active_Bike_Lighting_System\Radar_Core\Libraries\XMCLib\inc\xmc_dac.h ****  *
 958:C:\Users\Depes Crystalline\Desktop\school\Active_Bike_Lighting_System\Radar_Core\Libraries\XMCLib\inc\xmc_dac.h ****  * @return None
 959:C:\Users\Depes Crystalline\Desktop\school\Active_Bike_Lighting_System\Radar_Core\Libraries\XMCLib\inc\xmc_dac.h ****  *
 960:C:\Users\Depes Crystalline\Desktop\school\Active_Bike_Lighting_System\Radar_Core\Libraries\XMCLib\inc\xmc_dac.h ****  * \par<b>Description:</b><br>
 961:C:\Users\Depes Crystalline\Desktop\school\Active_Bike_Lighting_System\Radar_Core\Libraries\XMCLib\inc\xmc_dac.h ****  * Sets the \e channel's data to signed type by setting \a SIGN bit of \a DAC0CFG0 register (for ch
 962:C:\Users\Depes Crystalline\Desktop\school\Active_Bike_Lighting_System\Radar_Core\Libraries\XMCLib\inc\xmc_dac.h ****  * The data for the conversion would then be treated as signed data type.
 963:C:\Users\Depes Crystalline\Desktop\school\Active_Bike_Lighting_System\Radar_Core\Libraries\XMCLib\inc\xmc_dac.h ****  *
 964:C:\Users\Depes Crystalline\Desktop\school\Active_Bike_Lighting_System\Radar_Core\Libraries\XMCLib\inc\xmc_dac.h ****  * \par<b>Note:</b><br>
 965:C:\Users\Depes Crystalline\Desktop\school\Active_Bike_Lighting_System\Radar_Core\Libraries\XMCLib\inc\xmc_dac.h ****  * Offset and scaling can be applied to the data by calling XMC_DAC_CH_SetOutputOffset(), XMC_DAC_C
 966:C:\Users\Depes Crystalline\Desktop\school\Active_Bike_Lighting_System\Radar_Core\Libraries\XMCLib\inc\xmc_dac.h ****  *
 967:C:\Users\Depes Crystalline\Desktop\school\Active_Bike_Lighting_System\Radar_Core\Libraries\XMCLib\inc\xmc_dac.h ****  * \par<b>Related APIs:</b><BR>
 968:C:\Users\Depes Crystalline\Desktop\school\Active_Bike_Lighting_System\Radar_Core\Libraries\XMCLib\inc\xmc_dac.h ****  * XMC_DAC_CH_SetUnsignedDataType()\n\n\n
 969:C:\Users\Depes Crystalline\Desktop\school\Active_Bike_Lighting_System\Radar_Core\Libraries\XMCLib\inc\xmc_dac.h ****  *
 970:C:\Users\Depes Crystalline\Desktop\school\Active_Bike_Lighting_System\Radar_Core\Libraries\XMCLib\inc\xmc_dac.h ****  */
 971:C:\Users\Depes Crystalline\Desktop\school\Active_Bike_Lighting_System\Radar_Core\Libraries\XMCLib\inc\xmc_dac.h **** __STATIC_INLINE void XMC_DAC_CH_SetSignedDataType(XMC_DAC_t *const dac, const uint8_t channel)
 972:C:\Users\Depes Crystalline\Desktop\school\Active_Bike_Lighting_System\Radar_Core\Libraries\XMCLib\inc\xmc_dac.h **** {
 973:C:\Users\Depes Crystalline\Desktop\school\Active_Bike_Lighting_System\Radar_Core\Libraries\XMCLib\inc\xmc_dac.h ****   dac->DACCFG[channel].low |= (DAC_DAC0CFG0_SIGN_Msk);
 974:C:\Users\Depes Crystalline\Desktop\school\Active_Bike_Lighting_System\Radar_Core\Libraries\XMCLib\inc\xmc_dac.h **** }
 975:C:\Users\Depes Crystalline\Desktop\school\Active_Bike_Lighting_System\Radar_Core\Libraries\XMCLib\inc\xmc_dac.h **** 
 976:C:\Users\Depes Crystalline\Desktop\school\Active_Bike_Lighting_System\Radar_Core\Libraries\XMCLib\inc\xmc_dac.h **** /**
 977:C:\Users\Depes Crystalline\Desktop\school\Active_Bike_Lighting_System\Radar_Core\Libraries\XMCLib\inc\xmc_dac.h ****  * @param dac Pointer to an instance of DAC module
 978:C:\Users\Depes Crystalline\Desktop\school\Active_Bike_Lighting_System\Radar_Core\Libraries\XMCLib\inc\xmc_dac.h ****  * @param channel DAC channel number
 979:C:\Users\Depes Crystalline\Desktop\school\Active_Bike_Lighting_System\Radar_Core\Libraries\XMCLib\inc\xmc_dac.h ****  *
 980:C:\Users\Depes Crystalline\Desktop\school\Active_Bike_Lighting_System\Radar_Core\Libraries\XMCLib\inc\xmc_dac.h ****  * @return None
 981:C:\Users\Depes Crystalline\Desktop\school\Active_Bike_Lighting_System\Radar_Core\Libraries\XMCLib\inc\xmc_dac.h ****  *
 982:C:\Users\Depes Crystalline\Desktop\school\Active_Bike_Lighting_System\Radar_Core\Libraries\XMCLib\inc\xmc_dac.h ****  * \par<b>Description:</b><br>
 983:C:\Users\Depes Crystalline\Desktop\school\Active_Bike_Lighting_System\Radar_Core\Libraries\XMCLib\inc\xmc_dac.h ****  * Sets the \e channel's data to unsigned type by clearing \a SIGN bit of \a DAC0CFG0 register (for
 984:C:\Users\Depes Crystalline\Desktop\school\Active_Bike_Lighting_System\Radar_Core\Libraries\XMCLib\inc\xmc_dac.h ****  * The data for the conversion would then be treated as unsigned data type.
 985:C:\Users\Depes Crystalline\Desktop\school\Active_Bike_Lighting_System\Radar_Core\Libraries\XMCLib\inc\xmc_dac.h ****  *
 986:C:\Users\Depes Crystalline\Desktop\school\Active_Bike_Lighting_System\Radar_Core\Libraries\XMCLib\inc\xmc_dac.h ****  * \par<b>Note:</b><br>
 987:C:\Users\Depes Crystalline\Desktop\school\Active_Bike_Lighting_System\Radar_Core\Libraries\XMCLib\inc\xmc_dac.h ****  * Offset and scaling can be applied to the data by calling XMC_DAC_CH_SetOutputOffset(), XMC_DAC_C
 988:C:\Users\Depes Crystalline\Desktop\school\Active_Bike_Lighting_System\Radar_Core\Libraries\XMCLib\inc\xmc_dac.h ****  *
 989:C:\Users\Depes Crystalline\Desktop\school\Active_Bike_Lighting_System\Radar_Core\Libraries\XMCLib\inc\xmc_dac.h ****  * \par<b>Related APIs:</b><BR>
 990:C:\Users\Depes Crystalline\Desktop\school\Active_Bike_Lighting_System\Radar_Core\Libraries\XMCLib\inc\xmc_dac.h ****  * XMC_DAC_CH_SetSignedDataType()\n\n\n
 991:C:\Users\Depes Crystalline\Desktop\school\Active_Bike_Lighting_System\Radar_Core\Libraries\XMCLib\inc\xmc_dac.h ****  *
 992:C:\Users\Depes Crystalline\Desktop\school\Active_Bike_Lighting_System\Radar_Core\Libraries\XMCLib\inc\xmc_dac.h ****  */
 993:C:\Users\Depes Crystalline\Desktop\school\Active_Bike_Lighting_System\Radar_Core\Libraries\XMCLib\inc\xmc_dac.h **** __STATIC_INLINE void XMC_DAC_CH_SetUnsignedDataType(XMC_DAC_t *const dac, const uint8_t channel)
 994:C:\Users\Depes Crystalline\Desktop\school\Active_Bike_Lighting_System\Radar_Core\Libraries\XMCLib\inc\xmc_dac.h **** {
 995:C:\Users\Depes Crystalline\Desktop\school\Active_Bike_Lighting_System\Radar_Core\Libraries\XMCLib\inc\xmc_dac.h ****   dac->DACCFG[channel].low &= ~(DAC_DAC0CFG0_SIGN_Msk);
 996:C:\Users\Depes Crystalline\Desktop\school\Active_Bike_Lighting_System\Radar_Core\Libraries\XMCLib\inc\xmc_dac.h **** }
 997:C:\Users\Depes Crystalline\Desktop\school\Active_Bike_Lighting_System\Radar_Core\Libraries\XMCLib\inc\xmc_dac.h **** 
 998:C:\Users\Depes Crystalline\Desktop\school\Active_Bike_Lighting_System\Radar_Core\Libraries\XMCLib\inc\xmc_dac.h **** /**
 999:C:\Users\Depes Crystalline\Desktop\school\Active_Bike_Lighting_System\Radar_Core\Libraries\XMCLib\inc\xmc_dac.h ****  * @param dac Pointer to an instance of DAC module
1000:C:\Users\Depes Crystalline\Desktop\school\Active_Bike_Lighting_System\Radar_Core\Libraries\XMCLib\inc\xmc_dac.h ****  * @param channel DAC channel number
1001:C:\Users\Depes Crystalline\Desktop\school\Active_Bike_Lighting_System\Radar_Core\Libraries\XMCLib\inc\xmc_dac.h ****  *
1002:C:\Users\Depes Crystalline\Desktop\school\Active_Bike_Lighting_System\Radar_Core\Libraries\XMCLib\inc\xmc_dac.h ****  * @return None
1003:C:\Users\Depes Crystalline\Desktop\school\Active_Bike_Lighting_System\Radar_Core\Libraries\XMCLib\inc\xmc_dac.h ****  *
1004:C:\Users\Depes Crystalline\Desktop\school\Active_Bike_Lighting_System\Radar_Core\Libraries\XMCLib\inc\xmc_dac.h ****  * \par<b>Description:</b><br>
1005:C:\Users\Depes Crystalline\Desktop\school\Active_Bike_Lighting_System\Radar_Core\Libraries\XMCLib\inc\xmc_dac.h ****  * A call to this API generates a trigger pulse by setting \a SWTRIG bit of \a DAC0CFG1 register (f
1006:C:\Users\Depes Crystalline\Desktop\school\Active_Bike_Lighting_System\Radar_Core\Libraries\XMCLib\inc\xmc_dac.h ****  * provided the \a TRIGMOD bit of CFG register is set to \a XMC_DAC_CH_TRIGGER_SOFTWARE.
1007:C:\Users\Depes Crystalline\Desktop\school\Active_Bike_Lighting_System\Radar_Core\Libraries\XMCLib\inc\xmc_dac.h ****  *
1008:C:\Users\Depes Crystalline\Desktop\school\Active_Bike_Lighting_System\Radar_Core\Libraries\XMCLib\inc\xmc_dac.h ****  * \par<b>Note:</b><br>
1009:C:\Users\Depes Crystalline\Desktop\school\Active_Bike_Lighting_System\Radar_Core\Libraries\XMCLib\inc\xmc_dac.h ****  * If the \e channel is set to simultaneous data mode, SWTRIG bit of \e channel 1 is not valid.
1010:C:\Users\Depes Crystalline\Desktop\school\Active_Bike_Lighting_System\Radar_Core\Libraries\XMCLib\inc\xmc_dac.h ****  * Only \a SWTRIG bit of channel 0 is used for channel 1.
1011:C:\Users\Depes Crystalline\Desktop\school\Active_Bike_Lighting_System\Radar_Core\Libraries\XMCLib\inc\xmc_dac.h ****  *
1012:C:\Users\Depes Crystalline\Desktop\school\Active_Bike_Lighting_System\Radar_Core\Libraries\XMCLib\inc\xmc_dac.h ****  * \par<b>Related APIs:</b><BR>
1013:C:\Users\Depes Crystalline\Desktop\school\Active_Bike_Lighting_System\Radar_Core\Libraries\XMCLib\inc\xmc_dac.h ****  * XMC_DAC_CH_SetTrigger(), XMC_DAC_CH_EnableEvent()\n\n\n
1014:C:\Users\Depes Crystalline\Desktop\school\Active_Bike_Lighting_System\Radar_Core\Libraries\XMCLib\inc\xmc_dac.h ****  *
1015:C:\Users\Depes Crystalline\Desktop\school\Active_Bike_Lighting_System\Radar_Core\Libraries\XMCLib\inc\xmc_dac.h ****  */
1016:C:\Users\Depes Crystalline\Desktop\school\Active_Bike_Lighting_System\Radar_Core\Libraries\XMCLib\inc\xmc_dac.h **** __STATIC_INLINE void XMC_DAC_CH_SoftwareTrigger(XMC_DAC_t *const dac, const uint8_t channel)
1017:C:\Users\Depes Crystalline\Desktop\school\Active_Bike_Lighting_System\Radar_Core\Libraries\XMCLib\inc\xmc_dac.h **** {
1018:C:\Users\Depes Crystalline\Desktop\school\Active_Bike_Lighting_System\Radar_Core\Libraries\XMCLib\inc\xmc_dac.h ****   dac->DACCFG[channel].high |= DAC_DAC0CFG1_SWTRIG_Msk;
1019:C:\Users\Depes Crystalline\Desktop\school\Active_Bike_Lighting_System\Radar_Core\Libraries\XMCLib\inc\xmc_dac.h **** }
1020:C:\Users\Depes Crystalline\Desktop\school\Active_Bike_Lighting_System\Radar_Core\Libraries\XMCLib\inc\xmc_dac.h **** 
1021:C:\Users\Depes Crystalline\Desktop\school\Active_Bike_Lighting_System\Radar_Core\Libraries\XMCLib\inc\xmc_dac.h **** /**
1022:C:\Users\Depes Crystalline\Desktop\school\Active_Bike_Lighting_System\Radar_Core\Libraries\XMCLib\inc\xmc_dac.h ****  * @param dac Pointer to an instance of DAC module
1023:C:\Users\Depes Crystalline\Desktop\school\Active_Bike_Lighting_System\Radar_Core\Libraries\XMCLib\inc\xmc_dac.h ****  * @param channel DAC channel number
1024:C:\Users\Depes Crystalline\Desktop\school\Active_Bike_Lighting_System\Radar_Core\Libraries\XMCLib\inc\xmc_dac.h ****  *
1025:C:\Users\Depes Crystalline\Desktop\school\Active_Bike_Lighting_System\Radar_Core\Libraries\XMCLib\inc\xmc_dac.h ****  * @return None
1026:C:\Users\Depes Crystalline\Desktop\school\Active_Bike_Lighting_System\Radar_Core\Libraries\XMCLib\inc\xmc_dac.h ****  *
1027:C:\Users\Depes Crystalline\Desktop\school\Active_Bike_Lighting_System\Radar_Core\Libraries\XMCLib\inc\xmc_dac.h ****  * \par<b>Description:</b><br>
1028:C:\Users\Depes Crystalline\Desktop\school\Active_Bike_Lighting_System\Radar_Core\Libraries\XMCLib\inc\xmc_dac.h ****  * Enables service request by setting \a SREN bit of \a DAC0CFG0 register (for channel 0) / \a DAC1
1029:C:\Users\Depes Crystalline\Desktop\school\Active_Bike_Lighting_System\Radar_Core\Libraries\XMCLib\inc\xmc_dac.h ****  * Trigger signal is generated upon conversion of each data.
1030:C:\Users\Depes Crystalline\Desktop\school\Active_Bike_Lighting_System\Radar_Core\Libraries\XMCLib\inc\xmc_dac.h ****  *
1031:C:\Users\Depes Crystalline\Desktop\school\Active_Bike_Lighting_System\Radar_Core\Libraries\XMCLib\inc\xmc_dac.h ****  * \par<b>Note:</b><br>
1032:C:\Users\Depes Crystalline\Desktop\school\Active_Bike_Lighting_System\Radar_Core\Libraries\XMCLib\inc\xmc_dac.h ****  * The service request signal can be connected to NVIC, DMA.\n
1033:C:\Users\Depes Crystalline\Desktop\school\Active_Bike_Lighting_System\Radar_Core\Libraries\XMCLib\inc\xmc_dac.h ****  *
1034:C:\Users\Depes Crystalline\Desktop\school\Active_Bike_Lighting_System\Radar_Core\Libraries\XMCLib\inc\xmc_dac.h ****  * \par<b>Related APIs:</b><BR>
1035:C:\Users\Depes Crystalline\Desktop\school\Active_Bike_Lighting_System\Radar_Core\Libraries\XMCLib\inc\xmc_dac.h ****  * XMC_DAC_CH_DisableEvent()\n\n\n
1036:C:\Users\Depes Crystalline\Desktop\school\Active_Bike_Lighting_System\Radar_Core\Libraries\XMCLib\inc\xmc_dac.h ****  *
1037:C:\Users\Depes Crystalline\Desktop\school\Active_Bike_Lighting_System\Radar_Core\Libraries\XMCLib\inc\xmc_dac.h ****  */
1038:C:\Users\Depes Crystalline\Desktop\school\Active_Bike_Lighting_System\Radar_Core\Libraries\XMCLib\inc\xmc_dac.h **** __STATIC_INLINE void XMC_DAC_CH_EnableEvent(XMC_DAC_t *const dac, const uint8_t channel)
1039:C:\Users\Depes Crystalline\Desktop\school\Active_Bike_Lighting_System\Radar_Core\Libraries\XMCLib\inc\xmc_dac.h **** {
 342              	 .loc 1 1039 0
 343              	 .cfi_startproc
 344              	 
 345              	 
 346              	 
 347 0000 80B4     	 push {r7}
 348              	.LCFI36:
 349              	 .cfi_def_cfa_offset 4
 350              	 .cfi_offset 7,-4
 351 0002 83B0     	 sub sp,sp,#12
 352              	.LCFI37:
 353              	 .cfi_def_cfa_offset 16
 354 0004 00AF     	 add r7,sp,#0
 355              	.LCFI38:
 356              	 .cfi_def_cfa_register 7
 357 0006 7860     	 str r0,[r7,#4]
 358 0008 0B46     	 mov r3,r1
 359 000a FB70     	 strb r3,[r7,#3]
1040:C:\Users\Depes Crystalline\Desktop\school\Active_Bike_Lighting_System\Radar_Core\Libraries\XMCLib\inc\xmc_dac.h ****   dac->DACCFG[channel].low |= DAC_DAC0CFG0_SREN_Msk;
 360              	 .loc 1 1040 0
 361 000c F878     	 ldrb r0,[r7,#3]
 362 000e FB78     	 ldrb r3,[r7,#3]
 363 0010 7A68     	 ldr r2,[r7,#4]
 364 0012 DB00     	 lsls r3,r3,#3
 365 0014 1344     	 add r3,r3,r2
 366 0016 5B68     	 ldr r3,[r3,#4]
 367 0018 43F08042 	 orr r2,r3,#1073741824
 368 001c 7968     	 ldr r1,[r7,#4]
 369 001e C300     	 lsls r3,r0,#3
 370 0020 0B44     	 add r3,r3,r1
 371 0022 5A60     	 str r2,[r3,#4]
1041:C:\Users\Depes Crystalline\Desktop\school\Active_Bike_Lighting_System\Radar_Core\Libraries\XMCLib\inc\xmc_dac.h **** }
 372              	 .loc 1 1041 0
 373 0024 0C37     	 adds r7,r7,#12
 374              	.LCFI39:
 375              	 .cfi_def_cfa_offset 4
 376 0026 BD46     	 mov sp,r7
 377              	.LCFI40:
 378              	 .cfi_def_cfa_register 13
 379              	 
 380 0028 5DF8047B 	 ldr r7,[sp],#4
 381              	.LCFI41:
 382              	 .cfi_restore 7
 383              	 .cfi_def_cfa_offset 0
 384 002c 7047     	 bx lr
 385              	 .cfi_endproc
 386              	.LFE147:
 388 002e 00BF     	 .section .text.XMC_DAC_CH_SetOutputOffset,"ax",%progbits
 389              	 .align 2
 390              	 .thumb
 391              	 .thumb_func
 393              	XMC_DAC_CH_SetOutputOffset:
 394              	.LFB149:
1042:C:\Users\Depes Crystalline\Desktop\school\Active_Bike_Lighting_System\Radar_Core\Libraries\XMCLib\inc\xmc_dac.h **** 
1043:C:\Users\Depes Crystalline\Desktop\school\Active_Bike_Lighting_System\Radar_Core\Libraries\XMCLib\inc\xmc_dac.h **** /**
1044:C:\Users\Depes Crystalline\Desktop\school\Active_Bike_Lighting_System\Radar_Core\Libraries\XMCLib\inc\xmc_dac.h ****  * @param dac Pointer to an instance of DAC module
1045:C:\Users\Depes Crystalline\Desktop\school\Active_Bike_Lighting_System\Radar_Core\Libraries\XMCLib\inc\xmc_dac.h ****  * @param channel DAC channel number
1046:C:\Users\Depes Crystalline\Desktop\school\Active_Bike_Lighting_System\Radar_Core\Libraries\XMCLib\inc\xmc_dac.h ****  *
1047:C:\Users\Depes Crystalline\Desktop\school\Active_Bike_Lighting_System\Radar_Core\Libraries\XMCLib\inc\xmc_dac.h ****  * @return None
1048:C:\Users\Depes Crystalline\Desktop\school\Active_Bike_Lighting_System\Radar_Core\Libraries\XMCLib\inc\xmc_dac.h ****  *
1049:C:\Users\Depes Crystalline\Desktop\school\Active_Bike_Lighting_System\Radar_Core\Libraries\XMCLib\inc\xmc_dac.h ****  * \par<b>Description:</b><br>
1050:C:\Users\Depes Crystalline\Desktop\school\Active_Bike_Lighting_System\Radar_Core\Libraries\XMCLib\inc\xmc_dac.h ****  * Disables service request by clearing \a SREN bit of \a DAC0CFG0 register (for channel 0) / \a DA
1051:C:\Users\Depes Crystalline\Desktop\school\Active_Bike_Lighting_System\Radar_Core\Libraries\XMCLib\inc\xmc_dac.h ****  *
1052:C:\Users\Depes Crystalline\Desktop\school\Active_Bike_Lighting_System\Radar_Core\Libraries\XMCLib\inc\xmc_dac.h ****  * \par<b>Related APIs:</b><BR>
1053:C:\Users\Depes Crystalline\Desktop\school\Active_Bike_Lighting_System\Radar_Core\Libraries\XMCLib\inc\xmc_dac.h ****  * XMC_DAC_CH_EnableEvent()\n\n\n
1054:C:\Users\Depes Crystalline\Desktop\school\Active_Bike_Lighting_System\Radar_Core\Libraries\XMCLib\inc\xmc_dac.h ****  *
1055:C:\Users\Depes Crystalline\Desktop\school\Active_Bike_Lighting_System\Radar_Core\Libraries\XMCLib\inc\xmc_dac.h ****  */
1056:C:\Users\Depes Crystalline\Desktop\school\Active_Bike_Lighting_System\Radar_Core\Libraries\XMCLib\inc\xmc_dac.h **** __STATIC_INLINE void XMC_DAC_CH_DisableEvent(XMC_DAC_t *const dac, const uint8_t channel)
1057:C:\Users\Depes Crystalline\Desktop\school\Active_Bike_Lighting_System\Radar_Core\Libraries\XMCLib\inc\xmc_dac.h **** {
1058:C:\Users\Depes Crystalline\Desktop\school\Active_Bike_Lighting_System\Radar_Core\Libraries\XMCLib\inc\xmc_dac.h ****   dac->DACCFG[channel].low &= ~DAC_DAC0CFG0_SREN_Msk;
1059:C:\Users\Depes Crystalline\Desktop\school\Active_Bike_Lighting_System\Radar_Core\Libraries\XMCLib\inc\xmc_dac.h **** }
1060:C:\Users\Depes Crystalline\Desktop\school\Active_Bike_Lighting_System\Radar_Core\Libraries\XMCLib\inc\xmc_dac.h **** 
1061:C:\Users\Depes Crystalline\Desktop\school\Active_Bike_Lighting_System\Radar_Core\Libraries\XMCLib\inc\xmc_dac.h **** /**
1062:C:\Users\Depes Crystalline\Desktop\school\Active_Bike_Lighting_System\Radar_Core\Libraries\XMCLib\inc\xmc_dac.h ****  * @param dac Pointer to an instance of DAC module
1063:C:\Users\Depes Crystalline\Desktop\school\Active_Bike_Lighting_System\Radar_Core\Libraries\XMCLib\inc\xmc_dac.h ****  * @param channel DAC channel number
1064:C:\Users\Depes Crystalline\Desktop\school\Active_Bike_Lighting_System\Radar_Core\Libraries\XMCLib\inc\xmc_dac.h ****  * @param offset
1065:C:\Users\Depes Crystalline\Desktop\school\Active_Bike_Lighting_System\Radar_Core\Libraries\XMCLib\inc\xmc_dac.h ****  *
1066:C:\Users\Depes Crystalline\Desktop\school\Active_Bike_Lighting_System\Radar_Core\Libraries\XMCLib\inc\xmc_dac.h ****  * @return None
1067:C:\Users\Depes Crystalline\Desktop\school\Active_Bike_Lighting_System\Radar_Core\Libraries\XMCLib\inc\xmc_dac.h ****  *
1068:C:\Users\Depes Crystalline\Desktop\school\Active_Bike_Lighting_System\Radar_Core\Libraries\XMCLib\inc\xmc_dac.h ****  * \par<b>Description:</b><br>
1069:C:\Users\Depes Crystalline\Desktop\school\Active_Bike_Lighting_System\Radar_Core\Libraries\XMCLib\inc\xmc_dac.h ****  * Sets the offset value.\n
1070:C:\Users\Depes Crystalline\Desktop\school\Active_Bike_Lighting_System\Radar_Core\Libraries\XMCLib\inc\xmc_dac.h ****  * Offset range:0 - 255\n
1071:C:\Users\Depes Crystalline\Desktop\school\Active_Bike_Lighting_System\Radar_Core\Libraries\XMCLib\inc\xmc_dac.h ****  * interpreted as : -128 to 127 (twos complement) in signed mode and 0 to 255 in unsigned mode.
1072:C:\Users\Depes Crystalline\Desktop\school\Active_Bike_Lighting_System\Radar_Core\Libraries\XMCLib\inc\xmc_dac.h ****  *
1073:C:\Users\Depes Crystalline\Desktop\school\Active_Bike_Lighting_System\Radar_Core\Libraries\XMCLib\inc\xmc_dac.h ****  * \par<b>Note:</b><br>
1074:C:\Users\Depes Crystalline\Desktop\school\Active_Bike_Lighting_System\Radar_Core\Libraries\XMCLib\inc\xmc_dac.h ****  * Scaling can be applied to the output data after adding the \e offset value.
1075:C:\Users\Depes Crystalline\Desktop\school\Active_Bike_Lighting_System\Radar_Core\Libraries\XMCLib\inc\xmc_dac.h ****  *
1076:C:\Users\Depes Crystalline\Desktop\school\Active_Bike_Lighting_System\Radar_Core\Libraries\XMCLib\inc\xmc_dac.h ****  * \par
1077:C:\Users\Depes Crystalline\Desktop\school\Active_Bike_Lighting_System\Radar_Core\Libraries\XMCLib\inc\xmc_dac.h ****  * Channel \a channel \a offset value is loaded to the bit-field \a DAC0CFG1 register (for channel 
1078:C:\Users\Depes Crystalline\Desktop\school\Active_Bike_Lighting_System\Radar_Core\Libraries\XMCLib\inc\xmc_dac.h ****  *
1079:C:\Users\Depes Crystalline\Desktop\school\Active_Bike_Lighting_System\Radar_Core\Libraries\XMCLib\inc\xmc_dac.h ****  * \par<b>Related APIs:</b><BR>
1080:C:\Users\Depes Crystalline\Desktop\school\Active_Bike_Lighting_System\Radar_Core\Libraries\XMCLib\inc\xmc_dac.h ****  * XMC_DAC_CH_SetOutputScale()\n\n\n
1081:C:\Users\Depes Crystalline\Desktop\school\Active_Bike_Lighting_System\Radar_Core\Libraries\XMCLib\inc\xmc_dac.h ****  *
1082:C:\Users\Depes Crystalline\Desktop\school\Active_Bike_Lighting_System\Radar_Core\Libraries\XMCLib\inc\xmc_dac.h ****  */
1083:C:\Users\Depes Crystalline\Desktop\school\Active_Bike_Lighting_System\Radar_Core\Libraries\XMCLib\inc\xmc_dac.h **** __STATIC_INLINE void XMC_DAC_CH_SetOutputOffset(XMC_DAC_t *const dac, const uint8_t channel, const 
1084:C:\Users\Depes Crystalline\Desktop\school\Active_Bike_Lighting_System\Radar_Core\Libraries\XMCLib\inc\xmc_dac.h **** {
 395              	 .loc 1 1084 0
 396              	 .cfi_startproc
 397              	 
 398              	 
 399              	 
 400 0000 80B4     	 push {r7}
 401              	.LCFI42:
 402              	 .cfi_def_cfa_offset 4
 403              	 .cfi_offset 7,-4
 404 0002 83B0     	 sub sp,sp,#12
 405              	.LCFI43:
 406              	 .cfi_def_cfa_offset 16
 407 0004 00AF     	 add r7,sp,#0
 408              	.LCFI44:
 409              	 .cfi_def_cfa_register 7
 410 0006 7860     	 str r0,[r7,#4]
 411 0008 0B46     	 mov r3,r1
 412 000a FB70     	 strb r3,[r7,#3]
 413 000c 1346     	 mov r3,r2
 414 000e BB70     	 strb r3,[r7,#2]
1085:C:\Users\Depes Crystalline\Desktop\school\Active_Bike_Lighting_System\Radar_Core\Libraries\XMCLib\inc\xmc_dac.h ****   dac->DACCFG[channel].high = (dac->DACCFG[channel].high & ~DAC_DAC0CFG1_OFFS_Msk) |
 415              	 .loc 1 1085 0
 416 0010 F878     	 ldrb r0,[r7,#3]
 417 0012 FB78     	 ldrb r3,[r7,#3]
 418 0014 7A68     	 ldr r2,[r7,#4]
 419 0016 DB00     	 lsls r3,r3,#3
 420 0018 1344     	 add r3,r3,r2
 421 001a 9B68     	 ldr r3,[r3,#8]
 422 001c 23F47F63 	 bic r3,r3,#4080
1086:C:\Users\Depes Crystalline\Desktop\school\Active_Bike_Lighting_System\Radar_Core\Libraries\XMCLib\inc\xmc_dac.h ****                               offset << DAC_DAC0CFG1_OFFS_Pos;
 423              	 .loc 1 1086 0
 424 0020 BA78     	 ldrb r2,[r7,#2]
 425 0022 1201     	 lsls r2,r2,#4
1085:C:\Users\Depes Crystalline\Desktop\school\Active_Bike_Lighting_System\Radar_Core\Libraries\XMCLib\inc\xmc_dac.h ****   dac->DACCFG[channel].high = (dac->DACCFG[channel].high & ~DAC_DAC0CFG1_OFFS_Msk) |
 426              	 .loc 1 1085 0
 427 0024 1A43     	 orrs r2,r2,r3
 428 0026 7968     	 ldr r1,[r7,#4]
 429 0028 C300     	 lsls r3,r0,#3
 430 002a 0B44     	 add r3,r3,r1
 431 002c 9A60     	 str r2,[r3,#8]
1087:C:\Users\Depes Crystalline\Desktop\school\Active_Bike_Lighting_System\Radar_Core\Libraries\XMCLib\inc\xmc_dac.h **** }
 432              	 .loc 1 1087 0
 433 002e 0C37     	 adds r7,r7,#12
 434              	.LCFI45:
 435              	 .cfi_def_cfa_offset 4
 436 0030 BD46     	 mov sp,r7
 437              	.LCFI46:
 438              	 .cfi_def_cfa_register 13
 439              	 
 440 0032 5DF8047B 	 ldr r7,[sp],#4
 441              	.LCFI47:
 442              	 .cfi_restore 7
 443              	 .cfi_def_cfa_offset 0
 444 0036 7047     	 bx lr
 445              	 .cfi_endproc
 446              	.LFE149:
 448              	 .section .text.XMC_DAC_CH_SetOutputScale,"ax",%progbits
 449              	 .align 2
 450              	 .thumb
 451              	 .thumb_func
 453              	XMC_DAC_CH_SetOutputScale:
 454              	.LFB150:
1088:C:\Users\Depes Crystalline\Desktop\school\Active_Bike_Lighting_System\Radar_Core\Libraries\XMCLib\inc\xmc_dac.h **** 
1089:C:\Users\Depes Crystalline\Desktop\school\Active_Bike_Lighting_System\Radar_Core\Libraries\XMCLib\inc\xmc_dac.h **** /**
1090:C:\Users\Depes Crystalline\Desktop\school\Active_Bike_Lighting_System\Radar_Core\Libraries\XMCLib\inc\xmc_dac.h ****  * @param dac Pointer to an instance of DAC module
1091:C:\Users\Depes Crystalline\Desktop\school\Active_Bike_Lighting_System\Radar_Core\Libraries\XMCLib\inc\xmc_dac.h ****  * @param channel DAC channel number
1092:C:\Users\Depes Crystalline\Desktop\school\Active_Bike_Lighting_System\Radar_Core\Libraries\XMCLib\inc\xmc_dac.h ****  * @param scale Input data scaling
1093:C:\Users\Depes Crystalline\Desktop\school\Active_Bike_Lighting_System\Radar_Core\Libraries\XMCLib\inc\xmc_dac.h ****  *
1094:C:\Users\Depes Crystalline\Desktop\school\Active_Bike_Lighting_System\Radar_Core\Libraries\XMCLib\inc\xmc_dac.h ****  * @return None
1095:C:\Users\Depes Crystalline\Desktop\school\Active_Bike_Lighting_System\Radar_Core\Libraries\XMCLib\inc\xmc_dac.h ****  *
1096:C:\Users\Depes Crystalline\Desktop\school\Active_Bike_Lighting_System\Radar_Core\Libraries\XMCLib\inc\xmc_dac.h ****  * \par<b>Description:</b><br>
1097:C:\Users\Depes Crystalline\Desktop\school\Active_Bike_Lighting_System\Radar_Core\Libraries\XMCLib\inc\xmc_dac.h ****  * Data of the \e channel is scaled.
1098:C:\Users\Depes Crystalline\Desktop\school\Active_Bike_Lighting_System\Radar_Core\Libraries\XMCLib\inc\xmc_dac.h ****  *
1099:C:\Users\Depes Crystalline\Desktop\school\Active_Bike_Lighting_System\Radar_Core\Libraries\XMCLib\inc\xmc_dac.h ****  * \par
1100:C:\Users\Depes Crystalline\Desktop\school\Active_Bike_Lighting_System\Radar_Core\Libraries\XMCLib\inc\xmc_dac.h ****  * The data can either be scaled up-scaled (multiplied), down-scaled (divided) or no scaling (as is
1101:C:\Users\Depes Crystalline\Desktop\school\Active_Bike_Lighting_System\Radar_Core\Libraries\XMCLib\inc\xmc_dac.h ****  * Scaling is configured by setting bit-fields \a MULDIV and \a SCALE of \a DAC0CFG1 register (for 
1102:C:\Users\Depes Crystalline\Desktop\school\Active_Bike_Lighting_System\Radar_Core\Libraries\XMCLib\inc\xmc_dac.h ****  *
1103:C:\Users\Depes Crystalline\Desktop\school\Active_Bike_Lighting_System\Radar_Core\Libraries\XMCLib\inc\xmc_dac.h ****  * \par<b>Related APIs:</b><BR>
1104:C:\Users\Depes Crystalline\Desktop\school\Active_Bike_Lighting_System\Radar_Core\Libraries\XMCLib\inc\xmc_dac.h ****  * XMC_DAC_CH_GetOutputScale()\n\n\n
1105:C:\Users\Depes Crystalline\Desktop\school\Active_Bike_Lighting_System\Radar_Core\Libraries\XMCLib\inc\xmc_dac.h ****  *
1106:C:\Users\Depes Crystalline\Desktop\school\Active_Bike_Lighting_System\Radar_Core\Libraries\XMCLib\inc\xmc_dac.h ****  */
1107:C:\Users\Depes Crystalline\Desktop\school\Active_Bike_Lighting_System\Radar_Core\Libraries\XMCLib\inc\xmc_dac.h **** __STATIC_INLINE void XMC_DAC_CH_SetOutputScale(XMC_DAC_t *const dac, const uint8_t channel, const X
1108:C:\Users\Depes Crystalline\Desktop\school\Active_Bike_Lighting_System\Radar_Core\Libraries\XMCLib\inc\xmc_dac.h **** {
 455              	 .loc 1 1108 0
 456              	 .cfi_startproc
 457              	 
 458              	 
 459              	 
 460 0000 80B4     	 push {r7}
 461              	.LCFI48:
 462              	 .cfi_def_cfa_offset 4
 463              	 .cfi_offset 7,-4
 464 0002 83B0     	 sub sp,sp,#12
 465              	.LCFI49:
 466              	 .cfi_def_cfa_offset 16
 467 0004 00AF     	 add r7,sp,#0
 468              	.LCFI50:
 469              	 .cfi_def_cfa_register 7
 470 0006 7860     	 str r0,[r7,#4]
 471 0008 0B46     	 mov r3,r1
 472 000a FB70     	 strb r3,[r7,#3]
 473 000c 1346     	 mov r3,r2
 474 000e BB70     	 strb r3,[r7,#2]
1109:C:\Users\Depes Crystalline\Desktop\school\Active_Bike_Lighting_System\Radar_Core\Libraries\XMCLib\inc\xmc_dac.h ****   dac->DACCFG[channel].high = (dac->DACCFG[channel].high & ~(DAC_DAC0CFG1_MULDIV_Msk | DAC_DAC0CFG1
 475              	 .loc 1 1109 0
 476 0010 F878     	 ldrb r0,[r7,#3]
 477 0012 FB78     	 ldrb r3,[r7,#3]
 478 0014 7A68     	 ldr r2,[r7,#4]
 479 0016 DB00     	 lsls r3,r3,#3
 480 0018 1344     	 add r3,r3,r2
 481 001a 9B68     	 ldr r3,[r3,#8]
 482 001c 23F00F02 	 bic r2,r3,#15
 483 0020 BB78     	 ldrb r3,[r7,#2]
 484 0022 1A43     	 orrs r2,r2,r3
 485 0024 7968     	 ldr r1,[r7,#4]
 486 0026 C300     	 lsls r3,r0,#3
 487 0028 0B44     	 add r3,r3,r1
 488 002a 9A60     	 str r2,[r3,#8]
1110:C:\Users\Depes Crystalline\Desktop\school\Active_Bike_Lighting_System\Radar_Core\Libraries\XMCLib\inc\xmc_dac.h ****                               scale;
1111:C:\Users\Depes Crystalline\Desktop\school\Active_Bike_Lighting_System\Radar_Core\Libraries\XMCLib\inc\xmc_dac.h **** }
 489              	 .loc 1 1111 0
 490 002c 0C37     	 adds r7,r7,#12
 491              	.LCFI51:
 492              	 .cfi_def_cfa_offset 4
 493 002e BD46     	 mov sp,r7
 494              	.LCFI52:
 495              	 .cfi_def_cfa_register 13
 496              	 
 497 0030 5DF8047B 	 ldr r7,[sp],#4
 498              	.LCFI53:
 499              	 .cfi_restore 7
 500              	 .cfi_def_cfa_offset 0
 501 0034 7047     	 bx lr
 502              	 .cfi_endproc
 503              	.LFE150:
 505 0036 00BF     	 .section .text.XMC_DAC_CH_GetOutputScale,"ax",%progbits
 506              	 .align 2
 507              	 .thumb
 508              	 .thumb_func
 510              	XMC_DAC_CH_GetOutputScale:
 511              	.LFB151:
1112:C:\Users\Depes Crystalline\Desktop\school\Active_Bike_Lighting_System\Radar_Core\Libraries\XMCLib\inc\xmc_dac.h **** 
1113:C:\Users\Depes Crystalline\Desktop\school\Active_Bike_Lighting_System\Radar_Core\Libraries\XMCLib\inc\xmc_dac.h **** /**
1114:C:\Users\Depes Crystalline\Desktop\school\Active_Bike_Lighting_System\Radar_Core\Libraries\XMCLib\inc\xmc_dac.h ****  * @param dac Pointer to an instance of DAC module
1115:C:\Users\Depes Crystalline\Desktop\school\Active_Bike_Lighting_System\Radar_Core\Libraries\XMCLib\inc\xmc_dac.h ****  * @param channel DAC channel number
1116:C:\Users\Depes Crystalline\Desktop\school\Active_Bike_Lighting_System\Radar_Core\Libraries\XMCLib\inc\xmc_dac.h ****  *
1117:C:\Users\Depes Crystalline\Desktop\school\Active_Bike_Lighting_System\Radar_Core\Libraries\XMCLib\inc\xmc_dac.h ****  * @return XMC_DAC_CH_OUTPUT_SCALE_t
1118:C:\Users\Depes Crystalline\Desktop\school\Active_Bike_Lighting_System\Radar_Core\Libraries\XMCLib\inc\xmc_dac.h ****  *
1119:C:\Users\Depes Crystalline\Desktop\school\Active_Bike_Lighting_System\Radar_Core\Libraries\XMCLib\inc\xmc_dac.h ****  * \par<b>Description:</b><br>
1120:C:\Users\Depes Crystalline\Desktop\school\Active_Bike_Lighting_System\Radar_Core\Libraries\XMCLib\inc\xmc_dac.h ****  * Returns scaling information for the data.
1121:C:\Users\Depes Crystalline\Desktop\school\Active_Bike_Lighting_System\Radar_Core\Libraries\XMCLib\inc\xmc_dac.h ****  * The input data could be either up-scaled (multiplied), down-scaled (divided) or without scaling 
1122:C:\Users\Depes Crystalline\Desktop\school\Active_Bike_Lighting_System\Radar_Core\Libraries\XMCLib\inc\xmc_dac.h ****  * Scaling factor is determined by reading bit-fields \a MULDIV and \a SCALE of \a DAC0CFG1 registe
1123:C:\Users\Depes Crystalline\Desktop\school\Active_Bike_Lighting_System\Radar_Core\Libraries\XMCLib\inc\xmc_dac.h ****  *
1124:C:\Users\Depes Crystalline\Desktop\school\Active_Bike_Lighting_System\Radar_Core\Libraries\XMCLib\inc\xmc_dac.h ****  * \par<b>Related APIs:</b><BR>
1125:C:\Users\Depes Crystalline\Desktop\school\Active_Bike_Lighting_System\Radar_Core\Libraries\XMCLib\inc\xmc_dac.h ****  * XMC_DAC_CH_SetOutputScale()\n\n\n
1126:C:\Users\Depes Crystalline\Desktop\school\Active_Bike_Lighting_System\Radar_Core\Libraries\XMCLib\inc\xmc_dac.h ****  *
1127:C:\Users\Depes Crystalline\Desktop\school\Active_Bike_Lighting_System\Radar_Core\Libraries\XMCLib\inc\xmc_dac.h ****  */
1128:C:\Users\Depes Crystalline\Desktop\school\Active_Bike_Lighting_System\Radar_Core\Libraries\XMCLib\inc\xmc_dac.h **** __STATIC_INLINE XMC_DAC_CH_OUTPUT_SCALE_t XMC_DAC_CH_GetOutputScale(XMC_DAC_t *const dac, const uin
1129:C:\Users\Depes Crystalline\Desktop\school\Active_Bike_Lighting_System\Radar_Core\Libraries\XMCLib\inc\xmc_dac.h **** {
 512              	 .loc 1 1129 0
 513              	 .cfi_startproc
 514              	 
 515              	 
 516              	 
 517 0000 80B4     	 push {r7}
 518              	.LCFI54:
 519              	 .cfi_def_cfa_offset 4
 520              	 .cfi_offset 7,-4
 521 0002 83B0     	 sub sp,sp,#12
 522              	.LCFI55:
 523              	 .cfi_def_cfa_offset 16
 524 0004 00AF     	 add r7,sp,#0
 525              	.LCFI56:
 526              	 .cfi_def_cfa_register 7
 527 0006 7860     	 str r0,[r7,#4]
 528 0008 0B46     	 mov r3,r1
 529 000a FB70     	 strb r3,[r7,#3]
1130:C:\Users\Depes Crystalline\Desktop\school\Active_Bike_Lighting_System\Radar_Core\Libraries\XMCLib\inc\xmc_dac.h ****   return (XMC_DAC_CH_OUTPUT_SCALE_t)(dac->DACCFG[channel].high & (DAC_DAC0CFG1_MULDIV_Msk | DAC_DAC
 530              	 .loc 1 1130 0
 531 000c FB78     	 ldrb r3,[r7,#3]
 532 000e 7A68     	 ldr r2,[r7,#4]
 533 0010 DB00     	 lsls r3,r3,#3
 534 0012 1344     	 add r3,r3,r2
 535 0014 9B68     	 ldr r3,[r3,#8]
 536 0016 DBB2     	 uxtb r3,r3
 537 0018 03F00F03 	 and r3,r3,#15
 538 001c DBB2     	 uxtb r3,r3
1131:C:\Users\Depes Crystalline\Desktop\school\Active_Bike_Lighting_System\Radar_Core\Libraries\XMCLib\inc\xmc_dac.h **** }
 539              	 .loc 1 1131 0
 540 001e 1846     	 mov r0,r3
 541 0020 0C37     	 adds r7,r7,#12
 542              	.LCFI57:
 543              	 .cfi_def_cfa_offset 4
 544 0022 BD46     	 mov sp,r7
 545              	.LCFI58:
 546              	 .cfi_def_cfa_register 13
 547              	 
 548 0024 5DF8047B 	 ldr r7,[sp],#4
 549              	.LCFI59:
 550              	 .cfi_restore 7
 551              	 .cfi_def_cfa_offset 0
 552 0028 7047     	 bx lr
 553              	 .cfi_endproc
 554              	.LFE151:
 556 002a 00BF     	 .section .text.XMC_DAC_CH_EnableOutputNegation,"ax",%progbits
 557              	 .align 2
 558              	 .thumb
 559              	 .thumb_func
 561              	XMC_DAC_CH_EnableOutputNegation:
 562              	.LFB152:
1132:C:\Users\Depes Crystalline\Desktop\school\Active_Bike_Lighting_System\Radar_Core\Libraries\XMCLib\inc\xmc_dac.h **** 
1133:C:\Users\Depes Crystalline\Desktop\school\Active_Bike_Lighting_System\Radar_Core\Libraries\XMCLib\inc\xmc_dac.h **** /**
1134:C:\Users\Depes Crystalline\Desktop\school\Active_Bike_Lighting_System\Radar_Core\Libraries\XMCLib\inc\xmc_dac.h ****  * @param dac Pointer to an instance of DAC module
1135:C:\Users\Depes Crystalline\Desktop\school\Active_Bike_Lighting_System\Radar_Core\Libraries\XMCLib\inc\xmc_dac.h ****  * @param channel DAC channel number
1136:C:\Users\Depes Crystalline\Desktop\school\Active_Bike_Lighting_System\Radar_Core\Libraries\XMCLib\inc\xmc_dac.h ****  *
1137:C:\Users\Depes Crystalline\Desktop\school\Active_Bike_Lighting_System\Radar_Core\Libraries\XMCLib\inc\xmc_dac.h ****  * \par<b>Description:</b><br>
1138:C:\Users\Depes Crystalline\Desktop\school\Active_Bike_Lighting_System\Radar_Core\Libraries\XMCLib\inc\xmc_dac.h ****  * Enables output negation.
1139:C:\Users\Depes Crystalline\Desktop\school\Active_Bike_Lighting_System\Radar_Core\Libraries\XMCLib\inc\xmc_dac.h ****  *
1140:C:\Users\Depes Crystalline\Desktop\school\Active_Bike_Lighting_System\Radar_Core\Libraries\XMCLib\inc\xmc_dac.h ****  * \par
1141:C:\Users\Depes Crystalline\Desktop\school\Active_Bike_Lighting_System\Radar_Core\Libraries\XMCLib\inc\xmc_dac.h ****  * By negating the DAC value is converted to its two's complement values.
1142:C:\Users\Depes Crystalline\Desktop\school\Active_Bike_Lighting_System\Radar_Core\Libraries\XMCLib\inc\xmc_dac.h ****  * Can be used in Ramp mode to generate negative ramp.
1143:C:\Users\Depes Crystalline\Desktop\school\Active_Bike_Lighting_System\Radar_Core\Libraries\XMCLib\inc\xmc_dac.h ****  * Negation in enabled by setting \a NEGATE bit of \a DAC0CFG0 register (for channel 0) / \a DAC1CF
1144:C:\Users\Depes Crystalline\Desktop\school\Active_Bike_Lighting_System\Radar_Core\Libraries\XMCLib\inc\xmc_dac.h ****  *
1145:C:\Users\Depes Crystalline\Desktop\school\Active_Bike_Lighting_System\Radar_Core\Libraries\XMCLib\inc\xmc_dac.h ****  * \par<b>Note:</b><br>
1146:C:\Users\Depes Crystalline\Desktop\school\Active_Bike_Lighting_System\Radar_Core\Libraries\XMCLib\inc\xmc_dac.h ****  * Negation feature is applicable only for XMC44 devices. For rest of the devices calling this API 
1147:C:\Users\Depes Crystalline\Desktop\school\Active_Bike_Lighting_System\Radar_Core\Libraries\XMCLib\inc\xmc_dac.h ****  *
1148:C:\Users\Depes Crystalline\Desktop\school\Active_Bike_Lighting_System\Radar_Core\Libraries\XMCLib\inc\xmc_dac.h ****  * \par<b>Related APIs:</b><BR>
1149:C:\Users\Depes Crystalline\Desktop\school\Active_Bike_Lighting_System\Radar_Core\Libraries\XMCLib\inc\xmc_dac.h ****  * XMC_DAC_CH_DisableOutputNegation(), XMC_DAC_CH_StartRampMode()\n\n\n
1150:C:\Users\Depes Crystalline\Desktop\school\Active_Bike_Lighting_System\Radar_Core\Libraries\XMCLib\inc\xmc_dac.h ****  *
1151:C:\Users\Depes Crystalline\Desktop\school\Active_Bike_Lighting_System\Radar_Core\Libraries\XMCLib\inc\xmc_dac.h ****  */
1152:C:\Users\Depes Crystalline\Desktop\school\Active_Bike_Lighting_System\Radar_Core\Libraries\XMCLib\inc\xmc_dac.h **** __STATIC_INLINE void XMC_DAC_CH_EnableOutputNegation(XMC_DAC_t *const dac, const uint8_t channel)
1153:C:\Users\Depes Crystalline\Desktop\school\Active_Bike_Lighting_System\Radar_Core\Libraries\XMCLib\inc\xmc_dac.h **** {
 563              	 .loc 1 1153 0
 564              	 .cfi_startproc
 565              	 
 566              	 
 567              	 
 568 0000 80B4     	 push {r7}
 569              	.LCFI60:
 570              	 .cfi_def_cfa_offset 4
 571              	 .cfi_offset 7,-4
 572 0002 83B0     	 sub sp,sp,#12
 573              	.LCFI61:
 574              	 .cfi_def_cfa_offset 16
 575 0004 00AF     	 add r7,sp,#0
 576              	.LCFI62:
 577              	 .cfi_def_cfa_register 7
 578 0006 7860     	 str r0,[r7,#4]
 579 0008 0B46     	 mov r3,r1
 580 000a FB70     	 strb r3,[r7,#3]
1154:C:\Users\Depes Crystalline\Desktop\school\Active_Bike_Lighting_System\Radar_Core\Libraries\XMCLib\inc\xmc_dac.h ****   dac->DACCFG[channel].low |= XMC_DAC_DACCFG_NEGATE_Msk;
 581              	 .loc 1 1154 0
 582 000c F878     	 ldrb r0,[r7,#3]
 583 000e FB78     	 ldrb r3,[r7,#3]
 584 0010 7A68     	 ldr r2,[r7,#4]
 585 0012 DB00     	 lsls r3,r3,#3
 586 0014 1344     	 add r3,r3,r2
 587 0016 5B68     	 ldr r3,[r3,#4]
 588 0018 43F08052 	 orr r2,r3,#268435456
 589 001c 7968     	 ldr r1,[r7,#4]
 590 001e C300     	 lsls r3,r0,#3
 591 0020 0B44     	 add r3,r3,r1
 592 0022 5A60     	 str r2,[r3,#4]
1155:C:\Users\Depes Crystalline\Desktop\school\Active_Bike_Lighting_System\Radar_Core\Libraries\XMCLib\inc\xmc_dac.h **** }
 593              	 .loc 1 1155 0
 594 0024 0C37     	 adds r7,r7,#12
 595              	.LCFI63:
 596              	 .cfi_def_cfa_offset 4
 597 0026 BD46     	 mov sp,r7
 598              	.LCFI64:
 599              	 .cfi_def_cfa_register 13
 600              	 
 601 0028 5DF8047B 	 ldr r7,[sp],#4
 602              	.LCFI65:
 603              	 .cfi_restore 7
 604              	 .cfi_def_cfa_offset 0
 605 002c 7047     	 bx lr
 606              	 .cfi_endproc
 607              	.LFE152:
 609 002e 00BF     	 .section .text.XMC_DAC_CH_DisableOutputNegation,"ax",%progbits
 610              	 .align 2
 611              	 .thumb
 612              	 .thumb_func
 614              	XMC_DAC_CH_DisableOutputNegation:
 615              	.LFB153:
1156:C:\Users\Depes Crystalline\Desktop\school\Active_Bike_Lighting_System\Radar_Core\Libraries\XMCLib\inc\xmc_dac.h **** 
1157:C:\Users\Depes Crystalline\Desktop\school\Active_Bike_Lighting_System\Radar_Core\Libraries\XMCLib\inc\xmc_dac.h **** /**
1158:C:\Users\Depes Crystalline\Desktop\school\Active_Bike_Lighting_System\Radar_Core\Libraries\XMCLib\inc\xmc_dac.h ****  * @param dac Pointer to an instance of DAC module
1159:C:\Users\Depes Crystalline\Desktop\school\Active_Bike_Lighting_System\Radar_Core\Libraries\XMCLib\inc\xmc_dac.h ****  * @param channel DAC channel number
1160:C:\Users\Depes Crystalline\Desktop\school\Active_Bike_Lighting_System\Radar_Core\Libraries\XMCLib\inc\xmc_dac.h ****  *
1161:C:\Users\Depes Crystalline\Desktop\school\Active_Bike_Lighting_System\Radar_Core\Libraries\XMCLib\inc\xmc_dac.h ****  * \par<b>Description:</b><br>
1162:C:\Users\Depes Crystalline\Desktop\school\Active_Bike_Lighting_System\Radar_Core\Libraries\XMCLib\inc\xmc_dac.h ****  * Disables output negation.
1163:C:\Users\Depes Crystalline\Desktop\school\Active_Bike_Lighting_System\Radar_Core\Libraries\XMCLib\inc\xmc_dac.h ****  *
1164:C:\Users\Depes Crystalline\Desktop\school\Active_Bike_Lighting_System\Radar_Core\Libraries\XMCLib\inc\xmc_dac.h ****  * \par
1165:C:\Users\Depes Crystalline\Desktop\school\Active_Bike_Lighting_System\Radar_Core\Libraries\XMCLib\inc\xmc_dac.h ****  * Negation is disabled by clearing \a NEGATE bit of \a DAC0CFG0 register (for channel 0) / \a DAC1
1166:C:\Users\Depes Crystalline\Desktop\school\Active_Bike_Lighting_System\Radar_Core\Libraries\XMCLib\inc\xmc_dac.h ****  *
1167:C:\Users\Depes Crystalline\Desktop\school\Active_Bike_Lighting_System\Radar_Core\Libraries\XMCLib\inc\xmc_dac.h ****  * \par<b>Note:</b><br>
1168:C:\Users\Depes Crystalline\Desktop\school\Active_Bike_Lighting_System\Radar_Core\Libraries\XMCLib\inc\xmc_dac.h ****  * Negation feature is applicable only for XMC44 devices. For rest of the devices calling this API 
1169:C:\Users\Depes Crystalline\Desktop\school\Active_Bike_Lighting_System\Radar_Core\Libraries\XMCLib\inc\xmc_dac.h ****  *
1170:C:\Users\Depes Crystalline\Desktop\school\Active_Bike_Lighting_System\Radar_Core\Libraries\XMCLib\inc\xmc_dac.h ****  * \par<b>Related APIs:</b><BR>
1171:C:\Users\Depes Crystalline\Desktop\school\Active_Bike_Lighting_System\Radar_Core\Libraries\XMCLib\inc\xmc_dac.h ****  * XMC_DAC_CH_EnableOutputNegation()\n\n\n
1172:C:\Users\Depes Crystalline\Desktop\school\Active_Bike_Lighting_System\Radar_Core\Libraries\XMCLib\inc\xmc_dac.h ****  *
1173:C:\Users\Depes Crystalline\Desktop\school\Active_Bike_Lighting_System\Radar_Core\Libraries\XMCLib\inc\xmc_dac.h ****  */
1174:C:\Users\Depes Crystalline\Desktop\school\Active_Bike_Lighting_System\Radar_Core\Libraries\XMCLib\inc\xmc_dac.h **** __STATIC_INLINE void XMC_DAC_CH_DisableOutputNegation(XMC_DAC_t *const dac, const uint8_t channel)
1175:C:\Users\Depes Crystalline\Desktop\school\Active_Bike_Lighting_System\Radar_Core\Libraries\XMCLib\inc\xmc_dac.h **** {
 616              	 .loc 1 1175 0
 617              	 .cfi_startproc
 618              	 
 619              	 
 620              	 
 621 0000 80B4     	 push {r7}
 622              	.LCFI66:
 623              	 .cfi_def_cfa_offset 4
 624              	 .cfi_offset 7,-4
 625 0002 83B0     	 sub sp,sp,#12
 626              	.LCFI67:
 627              	 .cfi_def_cfa_offset 16
 628 0004 00AF     	 add r7,sp,#0
 629              	.LCFI68:
 630              	 .cfi_def_cfa_register 7
 631 0006 7860     	 str r0,[r7,#4]
 632 0008 0B46     	 mov r3,r1
 633 000a FB70     	 strb r3,[r7,#3]
1176:C:\Users\Depes Crystalline\Desktop\school\Active_Bike_Lighting_System\Radar_Core\Libraries\XMCLib\inc\xmc_dac.h ****   dac->DACCFG[channel].low &= ~XMC_DAC_DACCFG_NEGATE_Msk;
 634              	 .loc 1 1176 0
 635 000c F878     	 ldrb r0,[r7,#3]
 636 000e FB78     	 ldrb r3,[r7,#3]
 637 0010 7A68     	 ldr r2,[r7,#4]
 638 0012 DB00     	 lsls r3,r3,#3
 639 0014 1344     	 add r3,r3,r2
 640 0016 5B68     	 ldr r3,[r3,#4]
 641 0018 23F08052 	 bic r2,r3,#268435456
 642 001c 7968     	 ldr r1,[r7,#4]
 643 001e C300     	 lsls r3,r0,#3
 644 0020 0B44     	 add r3,r3,r1
 645 0022 5A60     	 str r2,[r3,#4]
1177:C:\Users\Depes Crystalline\Desktop\school\Active_Bike_Lighting_System\Radar_Core\Libraries\XMCLib\inc\xmc_dac.h **** }
 646              	 .loc 1 1177 0
 647 0024 0C37     	 adds r7,r7,#12
 648              	.LCFI69:
 649              	 .cfi_def_cfa_offset 4
 650 0026 BD46     	 mov sp,r7
 651              	.LCFI70:
 652              	 .cfi_def_cfa_register 13
 653              	 
 654 0028 5DF8047B 	 ldr r7,[sp],#4
 655              	.LCFI71:
 656              	 .cfi_restore 7
 657              	 .cfi_def_cfa_offset 0
 658 002c 7047     	 bx lr
 659              	 .cfi_endproc
 660              	.LFE153:
 662 002e 00BF     	 .section .text.DAC_Ramp_ScaleUp,"ax",%progbits
 663              	 .align 2
 664              	 .global DAC_Ramp_ScaleUp
 665              	 .thumb
 666              	 .thumb_func
 668              	DAC_Ramp_ScaleUp:
 669              	.LFB188:
 670              	 .file 2 "../Dave/Generated/DAC/dac.c"
   1:../Dave/Generated/DAC/dac.c **** /**
   2:../Dave/Generated/DAC/dac.c ****  * @file dac.c
   3:../Dave/Generated/DAC/dac.c ****  * @date 2015-06-20
   4:../Dave/Generated/DAC/dac.c ****  * This file is generated by DAVE. Any manual modification done to this file will be lost when the 
   5:../Dave/Generated/DAC/dac.c ****  * @cond
   6:../Dave/Generated/DAC/dac.c ****  **************************************************************************************************
   7:../Dave/Generated/DAC/dac.c ****  * DAC v4.0.6 - Generates Pattern, Noise and Ramp waveform. It can be used for single value and dat
   8:../Dave/Generated/DAC/dac.c ****  *
   9:../Dave/Generated/DAC/dac.c ****  * Copyright (c) 2015, Infineon Technologies AG
  10:../Dave/Generated/DAC/dac.c ****  * All rights reserved.
  11:../Dave/Generated/DAC/dac.c ****  *
  12:../Dave/Generated/DAC/dac.c ****  * Redistribution and use in source and binary forms, with or without modification,are permitted pr
  13:../Dave/Generated/DAC/dac.c ****  * following conditions are met:
  14:../Dave/Generated/DAC/dac.c ****  *
  15:../Dave/Generated/DAC/dac.c ****  *   Redistributions of source code must retain the above copyright notice, this list of conditions
  16:../Dave/Generated/DAC/dac.c ****  *   disclaimer.
  17:../Dave/Generated/DAC/dac.c ****  *
  18:../Dave/Generated/DAC/dac.c ****  *   Redistributions in binary form must reproduce the above copyright notice, this list of conditi
  19:../Dave/Generated/DAC/dac.c ****  *   following disclaimer in the documentation and/or other materials provided with the distributio
  20:../Dave/Generated/DAC/dac.c ****  *
  21:../Dave/Generated/DAC/dac.c ****  *   Neither the name of the copyright holders nor the names of its contributors may be used to end
  22:../Dave/Generated/DAC/dac.c ****  *   products derived from this software without specific prior written permission.
  23:../Dave/Generated/DAC/dac.c ****  *
  24:../Dave/Generated/DAC/dac.c ****  * THIS SOFTWARE IS PROVIDED BY THE COPYRIGHT HOLDERS AND CONTRIBUTORS "AS IS" AND ANY EXPRESS OR I
  25:../Dave/Generated/DAC/dac.c ****  * INCLUDING, BUT NOT LIMITED TO, THE IMPLIED WARRANTIES OF MERCHANTABILITY AND FITNESS FOR A PARTI
  26:../Dave/Generated/DAC/dac.c ****  * DISCLAIMED. IN NO EVENT SHALL THE COPYRIGHT HOLDER OR CONTRIBUTORS BE LIABLE  FOR ANY DIRECT, IN
  27:../Dave/Generated/DAC/dac.c ****  * SPECIAL, EXEMPLARY, OR CONSEQUENTIAL DAMAGES (INCLUDING, BUT NOT LIMITED TO, PROCUREMENT OF SUBS
  28:../Dave/Generated/DAC/dac.c ****  * SERVICES; LOSS OF USE, DATA, OR PROFITS; OR BUSINESS INTERRUPTION) HOWEVER CAUSED AND ON ANY THE
  29:../Dave/Generated/DAC/dac.c ****  * WHETHER IN CONTRACT, STRICT LIABILITY,OR TORT (INCLUDING NEGLIGENCE OR OTHERWISE) ARISING IN ANY
  30:../Dave/Generated/DAC/dac.c ****  * USE OF THIS SOFTWARE, EVEN IF ADVISED OF THE POSSIBILITY OF SUCH DAMAGE.
  31:../Dave/Generated/DAC/dac.c ****  *
  32:../Dave/Generated/DAC/dac.c ****  * To improve the quality of the software, users are encouraged to share modifications, enhancement
  33:../Dave/Generated/DAC/dac.c ****  * with Infineon Technologies AG (dave@infineon.com).
  34:../Dave/Generated/DAC/dac.c ****  **************************************************************************************************
  35:../Dave/Generated/DAC/dac.c ****  *
  36:../Dave/Generated/DAC/dac.c ****  * Change History
  37:../Dave/Generated/DAC/dac.c ****  * --------------
  38:../Dave/Generated/DAC/dac.c ****  *
  39:../Dave/Generated/DAC/dac.c ****  * 2015-02-20:
  40:../Dave/Generated/DAC/dac.c ****  *     - Initial version
  41:../Dave/Generated/DAC/dac.c ****  *
  42:../Dave/Generated/DAC/dac.c ****  * 2015-06-20:
  43:../Dave/Generated/DAC/dac.c ****  *     - Single value mode service request option is given only when synchronize with clock option 
  44:../Dave/Generated/DAC/dac.c ****  *
  45:../Dave/Generated/DAC/dac.c ****  * @endcond
  46:../Dave/Generated/DAC/dac.c ****  *
  47:../Dave/Generated/DAC/dac.c ****  */
  48:../Dave/Generated/DAC/dac.c **** /**************************************************************************************************
  49:../Dave/Generated/DAC/dac.c ****  * HEADER FILES
  50:../Dave/Generated/DAC/dac.c ****  **************************************************************************************************
  51:../Dave/Generated/DAC/dac.c **** #include "dac.h"
  52:../Dave/Generated/DAC/dac.c **** 
  53:../Dave/Generated/DAC/dac.c **** /**************************************************************************************************
  54:../Dave/Generated/DAC/dac.c ****  * MACROS
  55:../Dave/Generated/DAC/dac.c ****  **************************************************************************************************
  56:../Dave/Generated/DAC/dac.c **** 
  57:../Dave/Generated/DAC/dac.c **** /**************************************************************************************************
  58:../Dave/Generated/DAC/dac.c ****  * LOCAL DATA
  59:../Dave/Generated/DAC/dac.c ****  **************************************************************************************************
  60:../Dave/Generated/DAC/dac.c **** 
  61:../Dave/Generated/DAC/dac.c **** /**************************************************************************************************
  62:../Dave/Generated/DAC/dac.c ****  * LOCAL ROUTINES
  63:../Dave/Generated/DAC/dac.c ****  **************************************************************************************************
  64:../Dave/Generated/DAC/dac.c **** DAC_STATUS_t DAC_Ramp_ScaleUp(const DAC_t * const HandlePtr,
  65:../Dave/Generated/DAC/dac.c **** uint16_t start_ramp,uint16_t stop_ramp,uint32_t frequency_Hz);
  66:../Dave/Generated/DAC/dac.c **** DAC_STATUS_t DAC_Ramp_ScaleDown(const DAC_t * const HandlePtr,
  67:../Dave/Generated/DAC/dac.c **** uint16_t start_ramp,uint16_t stop_ramp,uint32_t clk_divider);
  68:../Dave/Generated/DAC/dac.c **** void DAC_Ramp_StartStopConfigure(const DAC_t * const HandlePtr,uint16_t start_ramp,uint16_t stop_ra
  69:../Dave/Generated/DAC/dac.c **** /* This API will configure DAC mode depends upon the user configuration */
  70:../Dave/Generated/DAC/dac.c **** XMC_DAC_CH_STATUS_t DAC_ModeConfig(const DAC_t * const HandlePtr);
  71:../Dave/Generated/DAC/dac.c **** 
  72:../Dave/Generated/DAC/dac.c **** /**************************************************************************************************
  73:../Dave/Generated/DAC/dac.c **** * API IMPLEMENTATION
  74:../Dave/Generated/DAC/dac.c **** ***************************************************************************************************
  75:../Dave/Generated/DAC/dac.c **** /*
  76:../Dave/Generated/DAC/dac.c ****  * This API will set Ramp frequency by reducing wave points by scale up operation.
  77:../Dave/Generated/DAC/dac.c **** */
  78:../Dave/Generated/DAC/dac.c **** DAC_STATUS_t DAC_Ramp_ScaleUp(const DAC_t * const HandlePtr,
  79:../Dave/Generated/DAC/dac.c **** uint16_t start_ramp,uint16_t stop_ramp,uint32_t frequency_Hz)
  80:../Dave/Generated/DAC/dac.c **** {
 671              	 .loc 2 80 0
 672              	 .cfi_startproc
 673              	 
 674              	 
 675 0000 80B5     	 push {r7,lr}
 676              	.LCFI72:
 677              	 .cfi_def_cfa_offset 8
 678              	 .cfi_offset 7,-8
 679              	 .cfi_offset 14,-4
 680 0002 8AB0     	 sub sp,sp,#40
 681              	.LCFI73:
 682              	 .cfi_def_cfa_offset 48
 683 0004 00AF     	 add r7,sp,#0
 684              	.LCFI74:
 685              	 .cfi_def_cfa_register 7
 686 0006 F860     	 str r0,[r7,#12]
 687 0008 7B60     	 str r3,[r7,#4]
 688 000a 0B46     	 mov r3,r1
 689 000c 7B81     	 strh r3,[r7,#10]
 690 000e 1346     	 mov r3,r2
 691 0010 3B81     	 strh r3,[r7,#8]
  81:../Dave/Generated/DAC/dac.c ****   DAC_STATUS_t status = DAC_STATUS_SUCCESS;
 692              	 .loc 2 81 0
 693 0012 0023     	 movs r3,#0
 694 0014 87F82730 	 strb r3,[r7,#39]
  82:../Dave/Generated/DAC/dac.c ****   uint8_t shift_count = 0U;
 695              	 .loc 2 82 0
 696 0018 0023     	 movs r3,#0
 697 001a 87F82630 	 strb r3,[r7,#38]
  83:../Dave/Generated/DAC/dac.c ****   uint16_t temp_steps = (uint16_t)((stop_ramp - start_ramp) + 1U);
 698              	 .loc 2 83 0
 699 001e 3A89     	 ldrh r2,[r7,#8]
 700 0020 7B89     	 ldrh r3,[r7,#10]
 701 0022 D31A     	 subs r3,r2,r3
 702 0024 9BB2     	 uxth r3,r3
 703 0026 0133     	 adds r3,r3,#1
 704 0028 BB84     	 strh r3,[r7,#36]
  84:../Dave/Generated/DAC/dac.c ****   uint32_t peripheral_clock_freq_Hz = XMC_SCU_CLOCK_GetPeripheralClockFrequency();
 705              	 .loc 2 84 0
 706 002a FFF7FEFF 	 bl XMC_SCU_CLOCK_GetPeripheralClockFrequency
 707 002e F861     	 str r0,[r7,#28]
  85:../Dave/Generated/DAC/dac.c ****   uint32_t temp_cal_freq = frequency_Hz * temp_steps;
 708              	 .loc 2 85 0
 709 0030 BB8C     	 ldrh r3,[r7,#36]
 710 0032 7A68     	 ldr r2,[r7,#4]
 711 0034 02FB03F3 	 mul r3,r2,r3
 712 0038 3B62     	 str r3,[r7,#32]
  86:../Dave/Generated/DAC/dac.c ****   uint32_t clk_divider;
  87:../Dave/Generated/DAC/dac.c ****   XMC_DAC_CH_OUTPUT_SCALE_t scale = XMC_DAC_CH_OUTPUT_SCALE_NONE;
 713              	 .loc 2 87 0
 714 003a 0023     	 movs r3,#0
 715 003c FB76     	 strb r3,[r7,#27]
  88:../Dave/Generated/DAC/dac.c **** 
  89:../Dave/Generated/DAC/dac.c ****   while((temp_cal_freq > DAC_MAX_FREQUENCY) && (status != DAC_STATUS_API_FAIL))
 716              	 .loc 2 89 0
 717 003e 40E0     	 b .L15
 718              	.L23:
  90:../Dave/Generated/DAC/dac.c ****   {
  91:../Dave/Generated/DAC/dac.c ****     if( DAC_RAMP_MIN_STEPS > temp_steps )
 719              	 .loc 2 91 0
 720 0040 BB8C     	 ldrh r3,[r7,#36]
 721 0042 022B     	 cmp r3,#2
 722 0044 03D8     	 bhi .L16
  92:../Dave/Generated/DAC/dac.c ****     {
  93:../Dave/Generated/DAC/dac.c ****       /* Frequency can't be configured */
  94:../Dave/Generated/DAC/dac.c ****       status = DAC_STATUS_API_FAIL;
 723              	 .loc 2 94 0
 724 0046 0223     	 movs r3,#2
 725 0048 87F82730 	 strb r3,[r7,#39]
 726 004c 39E0     	 b .L15
 727              	.L16:
  95:../Dave/Generated/DAC/dac.c ****     }
  96:../Dave/Generated/DAC/dac.c ****     else
  97:../Dave/Generated/DAC/dac.c ****     {
  98:../Dave/Generated/DAC/dac.c ****       if(shift_count < DAC_MAX_SCALE_SHIFT )
 728              	 .loc 2 98 0
 729 004e 97F82630 	 ldrb r3,[r7,#38]
 730 0052 062B     	 cmp r3,#6
 731 0054 32D8     	 bhi .L17
  99:../Dave/Generated/DAC/dac.c ****       {
 100:../Dave/Generated/DAC/dac.c ****         /* Decrease scaling factor and re-calculate start and stop ramp */
 101:../Dave/Generated/DAC/dac.c ****         stop_ramp = stop_ramp >> 1U;
 732              	 .loc 2 101 0
 733 0056 3B89     	 ldrh r3,[r7,#8]
 734 0058 5B08     	 lsrs r3,r3,#1
 735 005a 3B81     	 strh r3,[r7,#8]
 102:../Dave/Generated/DAC/dac.c ****         start_ramp = start_ramp >> 1U;
 736              	 .loc 2 102 0
 737 005c 7B89     	 ldrh r3,[r7,#10]
 738 005e 5B08     	 lsrs r3,r3,#1
 739 0060 7B81     	 strh r3,[r7,#10]
 103:../Dave/Generated/DAC/dac.c ****         shift_count++;
 740              	 .loc 2 103 0
 741 0062 97F82630 	 ldrb r3,[r7,#38]
 742 0066 0133     	 adds r3,r3,#1
 743 0068 87F82630 	 strb r3,[r7,#38]
 104:../Dave/Generated/DAC/dac.c **** 
 105:../Dave/Generated/DAC/dac.c ****         /* re-calculate clock divider based on change in steps */
 106:../Dave/Generated/DAC/dac.c ****         temp_steps = (uint16_t)((stop_ramp - start_ramp) + 1U);
 744              	 .loc 2 106 0
 745 006c 3A89     	 ldrh r2,[r7,#8]
 746 006e 7B89     	 ldrh r3,[r7,#10]
 747 0070 D31A     	 subs r3,r2,r3
 748 0072 9BB2     	 uxth r3,r3
 749 0074 0133     	 adds r3,r3,#1
 750 0076 BB84     	 strh r3,[r7,#36]
 107:../Dave/Generated/DAC/dac.c ****         if(stop_ramp == start_ramp)
 751              	 .loc 2 107 0
 752 0078 3A89     	 ldrh r2,[r7,#8]
 753 007a 7B89     	 ldrh r3,[r7,#10]
 754 007c 9A42     	 cmp r2,r3
 755 007e 03D1     	 bne .L18
 108:../Dave/Generated/DAC/dac.c ****         {
 109:../Dave/Generated/DAC/dac.c ****           status = DAC_STATUS_API_FAIL;
 756              	 .loc 2 109 0
 757 0080 0223     	 movs r3,#2
 758 0082 87F82730 	 strb r3,[r7,#39]
 759 0086 1CE0     	 b .L15
 760              	.L18:
 110:../Dave/Generated/DAC/dac.c ****         }
 111:../Dave/Generated/DAC/dac.c ****         else
 112:../Dave/Generated/DAC/dac.c ****         {
 113:../Dave/Generated/DAC/dac.c ****           clk_divider = (uint32_t)(peripheral_clock_freq_Hz /
 114:../Dave/Generated/DAC/dac.c ****                                   (temp_steps * frequency_Hz));
 761              	 .loc 2 114 0
 762 0088 BB8C     	 ldrh r3,[r7,#36]
 763 008a 7A68     	 ldr r2,[r7,#4]
 764 008c 02FB03F3 	 mul r3,r2,r3
 113:../Dave/Generated/DAC/dac.c ****                                   (temp_steps * frequency_Hz));
 765              	 .loc 2 113 0
 766 0090 FA69     	 ldr r2,[r7,#28]
 767 0092 B2FBF3F3 	 udiv r3,r2,r3
 768 0096 7B61     	 str r3,[r7,#20]
 115:../Dave/Generated/DAC/dac.c ****           if(clk_divider != 0U)
 769              	 .loc 2 115 0
 770 0098 7B69     	 ldr r3,[r7,#20]
 771 009a 002B     	 cmp r3,#0
 772 009c 05D0     	 beq .L20
 116:../Dave/Generated/DAC/dac.c ****           {
 117:../Dave/Generated/DAC/dac.c ****             temp_cal_freq = (uint32_t)(peripheral_clock_freq_Hz / clk_divider);
 773              	 .loc 2 117 0
 774 009e FA69     	 ldr r2,[r7,#28]
 775 00a0 7B69     	 ldr r3,[r7,#20]
 776 00a2 B2FBF3F3 	 udiv r3,r2,r3
 777 00a6 3B62     	 str r3,[r7,#32]
 778 00a8 01E0     	 b .L21
 779              	.L20:
 118:../Dave/Generated/DAC/dac.c ****           }
 119:../Dave/Generated/DAC/dac.c ****           else
 120:../Dave/Generated/DAC/dac.c ****           {
 121:../Dave/Generated/DAC/dac.c ****             temp_cal_freq = peripheral_clock_freq_Hz;
 780              	 .loc 2 121 0
 781 00aa FB69     	 ldr r3,[r7,#28]
 782 00ac 3B62     	 str r3,[r7,#32]
 783              	.L21:
 122:../Dave/Generated/DAC/dac.c ****           }
 123:../Dave/Generated/DAC/dac.c ****           if(temp_cal_freq < 1U)
 784              	 .loc 2 123 0
 785 00ae 3B6A     	 ldr r3,[r7,#32]
 786 00b0 002B     	 cmp r3,#0
 787 00b2 06D1     	 bne .L15
 124:../Dave/Generated/DAC/dac.c ****           {
 125:../Dave/Generated/DAC/dac.c ****             status = DAC_STATUS_API_FAIL;
 788              	 .loc 2 125 0
 789 00b4 0223     	 movs r3,#2
 790 00b6 87F82730 	 strb r3,[r7,#39]
 791 00ba 02E0     	 b .L15
 792              	.L17:
 126:../Dave/Generated/DAC/dac.c ****           }
 127:../Dave/Generated/DAC/dac.c ****         }
 128:../Dave/Generated/DAC/dac.c ****       }
 129:../Dave/Generated/DAC/dac.c ****       else
 130:../Dave/Generated/DAC/dac.c ****       {
 131:../Dave/Generated/DAC/dac.c ****         /* Frequency Can't be configurable */
 132:../Dave/Generated/DAC/dac.c ****         status = DAC_STATUS_API_FAIL;
 793              	 .loc 2 132 0
 794 00bc 0223     	 movs r3,#2
 795 00be 87F82730 	 strb r3,[r7,#39]
 796              	.L15:
  89:../Dave/Generated/DAC/dac.c ****   {
 797              	 .loc 2 89 0
 798 00c2 3B6A     	 ldr r3,[r7,#32]
 799 00c4 1B4A     	 ldr r2,.L27
 800 00c6 9342     	 cmp r3,r2
 801 00c8 03D9     	 bls .L22
  89:../Dave/Generated/DAC/dac.c ****   {
 802              	 .loc 2 89 0 is_stmt 0 discriminator 1
 803 00ca 97F82730 	 ldrb r3,[r7,#39]
 804 00ce 022B     	 cmp r3,#2
 805 00d0 B6D1     	 bne .L23
 806              	.L22:
 133:../Dave/Generated/DAC/dac.c ****       }
 134:../Dave/Generated/DAC/dac.c ****     }
 135:../Dave/Generated/DAC/dac.c ****   }
 136:../Dave/Generated/DAC/dac.c **** 
 137:../Dave/Generated/DAC/dac.c ****   if(DAC_STATUS_API_FAIL != status)
 807              	 .loc 2 137 0 is_stmt 1
 808 00d2 97F82730 	 ldrb r3,[r7,#39]
 809 00d6 022B     	 cmp r3,#2
 810 00d8 26D0     	 beq .L24
 138:../Dave/Generated/DAC/dac.c ****   {
 139:../Dave/Generated/DAC/dac.c ****     DAC_Ramp_StartStopConfigure(HandlePtr,start_ramp,stop_ramp);
 811              	 .loc 2 139 0
 812 00da 7A89     	 ldrh r2,[r7,#10]
 813 00dc 3B89     	 ldrh r3,[r7,#8]
 814 00de F868     	 ldr r0,[r7,#12]
 815 00e0 1146     	 mov r1,r2
 816 00e2 1A46     	 mov r2,r3
 817 00e4 FFF7FEFF 	 bl DAC_Ramp_StartStopConfigure
 140:../Dave/Generated/DAC/dac.c ****     if(shift_count > 0U)
 818              	 .loc 2 140 0
 819 00e8 97F82630 	 ldrb r3,[r7,#38]
 820 00ec 002B     	 cmp r3,#0
 821 00ee 0ED0     	 beq .L25
 141:../Dave/Generated/DAC/dac.c ****     {
 142:../Dave/Generated/DAC/dac.c ****       /* Scaling required */
 143:../Dave/Generated/DAC/dac.c ****       scale = (XMC_DAC_CH_OUTPUT_SCALE_t)((uint32_t)XMC_DAC_CH_OUTPUT_SCALE_MUL_2 +
 822              	 .loc 2 143 0
 823 00f0 97F82630 	 ldrb r3,[r7,#38]
 824 00f4 0833     	 adds r3,r3,#8
 825 00f6 FB76     	 strb r3,[r7,#27]
 144:../Dave/Generated/DAC/dac.c ****               (shift_count - (uint32_t)1));
 145:../Dave/Generated/DAC/dac.c ****       XMC_DAC_CH_SetOutputScale(HandlePtr->dac_module_ptr, HandlePtr->dac_ch,scale);
 826              	 .loc 2 145 0
 827 00f8 FB68     	 ldr r3,[r7,#12]
 828 00fa 1968     	 ldr r1,[r3]
 829 00fc FB68     	 ldr r3,[r7,#12]
 830 00fe 93F82220 	 ldrb r2,[r3,#34]
 831 0102 FB7E     	 ldrb r3,[r7,#27]
 832 0104 0846     	 mov r0,r1
 833 0106 1146     	 mov r1,r2
 834 0108 1A46     	 mov r2,r3
 835 010a FFF7FEFF 	 bl XMC_DAC_CH_SetOutputScale
 836              	.L25:
 146:../Dave/Generated/DAC/dac.c ****     }
 147:../Dave/Generated/DAC/dac.c ****     status = (DAC_STATUS_t)XMC_DAC_CH_SetFrequency(HandlePtr->dac_module_ptr,
 837              	 .loc 2 147 0
 838 010e FB68     	 ldr r3,[r7,#12]
 839 0110 1A68     	 ldr r2,[r3]
 840 0112 FB68     	 ldr r3,[r7,#12]
 841 0114 93F82230 	 ldrb r3,[r3,#34]
 842 0118 1046     	 mov r0,r2
 843 011a 1946     	 mov r1,r3
 844 011c 3A6A     	 ldr r2,[r7,#32]
 845 011e FFF7FEFF 	 bl XMC_DAC_CH_SetFrequency
 846 0122 0346     	 mov r3,r0
 847 0124 87F82730 	 strb r3,[r7,#39]
 848              	.L24:
 148:../Dave/Generated/DAC/dac.c ****               HandlePtr->dac_ch,temp_cal_freq);
 149:../Dave/Generated/DAC/dac.c ****   }
 150:../Dave/Generated/DAC/dac.c ****   return status;
 849              	 .loc 2 150 0
 850 0128 97F82730 	 ldrb r3,[r7,#39]
 151:../Dave/Generated/DAC/dac.c **** }
 851              	 .loc 2 151 0
 852 012c 1846     	 mov r0,r3
 853 012e 2837     	 adds r7,r7,#40
 854              	.LCFI75:
 855              	 .cfi_def_cfa_offset 8
 856 0130 BD46     	 mov sp,r7
 857              	.LCFI76:
 858              	 .cfi_def_cfa_register 13
 859              	 
 860 0132 80BD     	 pop {r7,pc}
 861              	.L28:
 862              	 .align 2
 863              	.L27:
 864 0134 80841E00 	 .word 2000000
 865              	 .cfi_endproc
 866              	.LFE188:
 868              	 .section .text.DAC_Ramp_ScaleDown,"ax",%progbits
 869              	 .align 2
 870              	 .global DAC_Ramp_ScaleDown
 871              	 .thumb
 872              	 .thumb_func
 874              	DAC_Ramp_ScaleDown:
 875              	.LFB189:
 152:../Dave/Generated/DAC/dac.c **** 
 153:../Dave/Generated/DAC/dac.c **** /*
 154:../Dave/Generated/DAC/dac.c ****  * This API will set Ramp frequency by increasing wave points by scale down operation.
 155:../Dave/Generated/DAC/dac.c **** */
 156:../Dave/Generated/DAC/dac.c **** DAC_STATUS_t DAC_Ramp_ScaleDown(const DAC_t * const HandlePtr,
 157:../Dave/Generated/DAC/dac.c **** uint16_t start_ramp,uint16_t stop_ramp,uint32_t frequency_Hz)
 158:../Dave/Generated/DAC/dac.c **** {
 876              	 .loc 2 158 0
 877              	 .cfi_startproc
 878              	 
 879              	 
 880 0000 80B5     	 push {r7,lr}
 881              	.LCFI77:
 882              	 .cfi_def_cfa_offset 8
 883              	 .cfi_offset 7,-8
 884              	 .cfi_offset 14,-4
 885 0002 8AB0     	 sub sp,sp,#40
 886              	.LCFI78:
 887              	 .cfi_def_cfa_offset 48
 888 0004 00AF     	 add r7,sp,#0
 889              	.LCFI79:
 890              	 .cfi_def_cfa_register 7
 891 0006 F860     	 str r0,[r7,#12]
 892 0008 7B60     	 str r3,[r7,#4]
 893 000a 0B46     	 mov r3,r1
 894 000c 7B81     	 strh r3,[r7,#10]
 895 000e 1346     	 mov r3,r2
 896 0010 3B81     	 strh r3,[r7,#8]
 159:../Dave/Generated/DAC/dac.c ****   DAC_STATUS_t status = DAC_STATUS_SUCCESS;
 897              	 .loc 2 159 0
 898 0012 0023     	 movs r3,#0
 899 0014 87F82730 	 strb r3,[r7,#39]
 160:../Dave/Generated/DAC/dac.c ****   uint8_t shift_count = 0U;
 900              	 .loc 2 160 0
 901 0018 0023     	 movs r3,#0
 902 001a 87F82630 	 strb r3,[r7,#38]
 161:../Dave/Generated/DAC/dac.c ****   uint16_t temp_steps = (uint16_t)((stop_ramp - start_ramp) + 1U);
 903              	 .loc 2 161 0
 904 001e 3A89     	 ldrh r2,[r7,#8]
 905 0020 7B89     	 ldrh r3,[r7,#10]
 906 0022 D31A     	 subs r3,r2,r3
 907 0024 9BB2     	 uxth r3,r3
 908 0026 0133     	 adds r3,r3,#1
 909 0028 BB84     	 strh r3,[r7,#36]
 162:../Dave/Generated/DAC/dac.c ****   uint32_t peripheral_clock_freq_Hz = XMC_SCU_CLOCK_GetPeripheralClockFrequency();
 910              	 .loc 2 162 0
 911 002a FFF7FEFF 	 bl XMC_SCU_CLOCK_GetPeripheralClockFrequency
 912 002e B861     	 str r0,[r7,#24]
 163:../Dave/Generated/DAC/dac.c ****   uint32_t clk_divider = (uint32_t)(peripheral_clock_freq_Hz / (temp_steps * frequency_Hz));
 913              	 .loc 2 163 0
 914 0030 BB8C     	 ldrh r3,[r7,#36]
 915 0032 7A68     	 ldr r2,[r7,#4]
 916 0034 02FB03F3 	 mul r3,r2,r3
 917 0038 BA69     	 ldr r2,[r7,#24]
 918 003a B2FBF3F3 	 udiv r3,r2,r3
 919 003e 3B62     	 str r3,[r7,#32]
 164:../Dave/Generated/DAC/dac.c ****   uint32_t temp_cal_freq = frequency_Hz * temp_steps;
 920              	 .loc 2 164 0
 921 0040 BB8C     	 ldrh r3,[r7,#36]
 922 0042 7A68     	 ldr r2,[r7,#4]
 923 0044 02FB03F3 	 mul r3,r2,r3
 924 0048 FB61     	 str r3,[r7,#28]
 165:../Dave/Generated/DAC/dac.c ****   XMC_DAC_CH_OUTPUT_SCALE_t scale = XMC_DAC_CH_OUTPUT_SCALE_NONE;
 925              	 .loc 2 165 0
 926 004a 0023     	 movs r3,#0
 927 004c FB75     	 strb r3,[r7,#23]
 166:../Dave/Generated/DAC/dac.c **** 
 167:../Dave/Generated/DAC/dac.c ****   while((clk_divider > DAC_MAX_CLK_DIV) && (status != DAC_STATUS_API_FAIL))
 928              	 .loc 2 167 0
 929 004e 49E0     	 b .L30
 930              	.L38:
 168:../Dave/Generated/DAC/dac.c ****   {
 169:../Dave/Generated/DAC/dac.c ****     if( DAC_RAMP_MAX_STEPS < temp_steps )
 931              	 .loc 2 169 0
 932 0050 BB8C     	 ldrh r3,[r7,#36]
 933 0052 B3F5805F 	 cmp r3,#4096
 934 0056 03D3     	 bcc .L31
 170:../Dave/Generated/DAC/dac.c ****     {
 171:../Dave/Generated/DAC/dac.c ****       /* Frequency can't be configured */
 172:../Dave/Generated/DAC/dac.c ****       status = DAC_STATUS_API_FAIL;
 935              	 .loc 2 172 0
 936 0058 0223     	 movs r3,#2
 937 005a 87F82730 	 strb r3,[r7,#39]
 938 005e 41E0     	 b .L30
 939              	.L31:
 173:../Dave/Generated/DAC/dac.c ****     }
 174:../Dave/Generated/DAC/dac.c ****     else
 175:../Dave/Generated/DAC/dac.c ****     {
 176:../Dave/Generated/DAC/dac.c ****       if(shift_count < DAC_MAX_SCALE_SHIFT )
 940              	 .loc 2 176 0
 941 0060 97F82630 	 ldrb r3,[r7,#38]
 942 0064 062B     	 cmp r3,#6
 943 0066 3AD8     	 bhi .L32
 177:../Dave/Generated/DAC/dac.c ****       {
 178:../Dave/Generated/DAC/dac.c ****         /* Increase scaling factor and re-calculate start and stop ramp */
 179:../Dave/Generated/DAC/dac.c ****         stop_ramp = (uint16_t)(stop_ramp << 1U);
 944              	 .loc 2 179 0
 945 0068 3B89     	 ldrh r3,[r7,#8]
 946 006a 5B00     	 lsls r3,r3,#1
 947 006c 3B81     	 strh r3,[r7,#8]
 180:../Dave/Generated/DAC/dac.c ****         start_ramp = (uint16_t)(start_ramp << 1U);
 948              	 .loc 2 180 0
 949 006e 7B89     	 ldrh r3,[r7,#10]
 950 0070 5B00     	 lsls r3,r3,#1
 951 0072 7B81     	 strh r3,[r7,#10]
 181:../Dave/Generated/DAC/dac.c ****         temp_steps = (uint16_t)((stop_ramp - start_ramp) + 1U);
 952              	 .loc 2 181 0
 953 0074 3A89     	 ldrh r2,[r7,#8]
 954 0076 7B89     	 ldrh r3,[r7,#10]
 955 0078 D31A     	 subs r3,r2,r3
 956 007a 9BB2     	 uxth r3,r3
 957 007c 0133     	 adds r3,r3,#1
 958 007e BB84     	 strh r3,[r7,#36]
 182:../Dave/Generated/DAC/dac.c ****         if((stop_ramp <= DAC_RAMP_MAX_STEPS) && (start_ramp <= DAC_RAMP_MAX_STEPS) &&
 959              	 .loc 2 182 0
 960 0080 3B89     	 ldrh r3,[r7,#8]
 961 0082 B3F5805F 	 cmp r3,#4096
 962 0086 26D2     	 bcs .L33
 963              	 .loc 2 182 0 is_stmt 0 discriminator 1
 964 0088 7B89     	 ldrh r3,[r7,#10]
 965 008a B3F5805F 	 cmp r3,#4096
 966 008e 22D2     	 bcs .L33
 967              	 .loc 2 182 0 discriminator 2
 968 0090 3A89     	 ldrh r2,[r7,#8]
 969 0092 7B89     	 ldrh r3,[r7,#10]
 970 0094 9A42     	 cmp r2,r3
 971 0096 1ED0     	 beq .L33
 183:../Dave/Generated/DAC/dac.c ****                                                             (stop_ramp != start_ramp))
 184:../Dave/Generated/DAC/dac.c ****         {
 185:../Dave/Generated/DAC/dac.c ****           shift_count++;
 972              	 .loc 2 185 0 is_stmt 1
 973 0098 97F82630 	 ldrb r3,[r7,#38]
 974 009c 0133     	 adds r3,r3,#1
 975 009e 87F82630 	 strb r3,[r7,#38]
 186:../Dave/Generated/DAC/dac.c ****           /* re-calculate clock divider based on change in steps */
 187:../Dave/Generated/DAC/dac.c ****           clk_divider = (uint32_t)(peripheral_clock_freq_Hz / (temp_steps * frequency_Hz));
 976              	 .loc 2 187 0
 977 00a2 BB8C     	 ldrh r3,[r7,#36]
 978 00a4 7A68     	 ldr r2,[r7,#4]
 979 00a6 02FB03F3 	 mul r3,r2,r3
 980 00aa BA69     	 ldr r2,[r7,#24]
 981 00ac B2FBF3F3 	 udiv r3,r2,r3
 982 00b0 3B62     	 str r3,[r7,#32]
 188:../Dave/Generated/DAC/dac.c ****           if(clk_divider == 0U)
 983              	 .loc 2 188 0
 984 00b2 3B6A     	 ldr r3,[r7,#32]
 985 00b4 002B     	 cmp r3,#0
 986 00b6 01D1     	 bne .L34
 189:../Dave/Generated/DAC/dac.c ****           {
 190:../Dave/Generated/DAC/dac.c ****             clk_divider = 1U;
 987              	 .loc 2 190 0
 988 00b8 0123     	 movs r3,#1
 989 00ba 3B62     	 str r3,[r7,#32]
 990              	.L34:
 191:../Dave/Generated/DAC/dac.c ****           }
 192:../Dave/Generated/DAC/dac.c ****           temp_cal_freq = (uint32_t)(peripheral_clock_freq_Hz / clk_divider);
 991              	 .loc 2 192 0
 992 00bc BA69     	 ldr r2,[r7,#24]
 993 00be 3B6A     	 ldr r3,[r7,#32]
 994 00c0 B2FBF3F3 	 udiv r3,r2,r3
 995 00c4 FB61     	 str r3,[r7,#28]
 193:../Dave/Generated/DAC/dac.c ****           if(temp_cal_freq < 1U)
 996              	 .loc 2 193 0
 997 00c6 FB69     	 ldr r3,[r7,#28]
 998 00c8 002B     	 cmp r3,#0
 999 00ca 03D1     	 bne .L35
 194:../Dave/Generated/DAC/dac.c ****           {
 195:../Dave/Generated/DAC/dac.c ****             status = DAC_STATUS_API_FAIL;
 1000              	 .loc 2 195 0
 1001 00cc 0223     	 movs r3,#2
 1002 00ce 87F82730 	 strb r3,[r7,#39]
 193:../Dave/Generated/DAC/dac.c ****           if(temp_cal_freq < 1U)
 1003              	 .loc 2 193 0
 1004 00d2 03E0     	 b .L36
 1005              	.L35:
 1006 00d4 02E0     	 b .L36
 1007              	.L33:
 196:../Dave/Generated/DAC/dac.c ****           }
 197:../Dave/Generated/DAC/dac.c ****         }
 198:../Dave/Generated/DAC/dac.c ****         else
 199:../Dave/Generated/DAC/dac.c ****         {
 200:../Dave/Generated/DAC/dac.c ****           status = DAC_STATUS_API_FAIL;
 1008              	 .loc 2 200 0
 1009 00d6 0223     	 movs r3,#2
 1010 00d8 87F82730 	 strb r3,[r7,#39]
 1011              	.L36:
 1012 00dc 02E0     	 b .L30
 1013              	.L32:
 201:../Dave/Generated/DAC/dac.c ****         }
 202:../Dave/Generated/DAC/dac.c ****       }
 203:../Dave/Generated/DAC/dac.c ****       else
 204:../Dave/Generated/DAC/dac.c ****       {
 205:../Dave/Generated/DAC/dac.c ****         /* Frequency Can't be configurable */
 206:../Dave/Generated/DAC/dac.c ****         status = DAC_STATUS_API_FAIL;
 1014              	 .loc 2 206 0
 1015 00de 0223     	 movs r3,#2
 1016 00e0 87F82730 	 strb r3,[r7,#39]
 1017              	.L30:
 167:../Dave/Generated/DAC/dac.c ****   {
 1018              	 .loc 2 167 0
 1019 00e4 3B6A     	 ldr r3,[r7,#32]
 1020 00e6 B3F5801F 	 cmp r3,#1048576
 1021 00ea 03D3     	 bcc .L37
 167:../Dave/Generated/DAC/dac.c ****   {
 1022              	 .loc 2 167 0 is_stmt 0 discriminator 1
 1023 00ec 97F82730 	 ldrb r3,[r7,#39]
 1024 00f0 022B     	 cmp r3,#2
 1025 00f2 ADD1     	 bne .L38
 1026              	.L37:
 207:../Dave/Generated/DAC/dac.c ****       }
 208:../Dave/Generated/DAC/dac.c ****     }
 209:../Dave/Generated/DAC/dac.c ****   }
 210:../Dave/Generated/DAC/dac.c ****     
 211:../Dave/Generated/DAC/dac.c ****   if(DAC_STATUS_API_FAIL != status)
 1027              	 .loc 2 211 0 is_stmt 1
 1028 00f4 97F82730 	 ldrb r3,[r7,#39]
 1029 00f8 022B     	 cmp r3,#2
 1030 00fa 25D0     	 beq .L39
 212:../Dave/Generated/DAC/dac.c ****   {
 213:../Dave/Generated/DAC/dac.c ****     DAC_Ramp_StartStopConfigure(HandlePtr,start_ramp,stop_ramp);
 1031              	 .loc 2 213 0
 1032 00fc 7A89     	 ldrh r2,[r7,#10]
 1033 00fe 3B89     	 ldrh r3,[r7,#8]
 1034 0100 F868     	 ldr r0,[r7,#12]
 1035 0102 1146     	 mov r1,r2
 1036 0104 1A46     	 mov r2,r3
 1037 0106 FFF7FEFF 	 bl DAC_Ramp_StartStopConfigure
 214:../Dave/Generated/DAC/dac.c ****     if(shift_count > 0U)
 1038              	 .loc 2 214 0
 1039 010a 97F82630 	 ldrb r3,[r7,#38]
 1040 010e 002B     	 cmp r3,#0
 1041 0110 0DD0     	 beq .L40
 215:../Dave/Generated/DAC/dac.c ****     {
 216:../Dave/Generated/DAC/dac.c ****       /* Scaling required */
 217:../Dave/Generated/DAC/dac.c ****       scale = (XMC_DAC_CH_OUTPUT_SCALE_t)((uint32_t)XMC_DAC_CH_OUTPUT_SCALE_DIV_2 +
 1042              	 .loc 2 217 0
 1043 0112 97F82630 	 ldrb r3,[r7,#38]
 1044 0116 FB75     	 strb r3,[r7,#23]
 218:../Dave/Generated/DAC/dac.c ****                                                         (shift_count - (uint32_t)1));
 219:../Dave/Generated/DAC/dac.c ****       XMC_DAC_CH_SetOutputScale(HandlePtr->dac_module_ptr, HandlePtr->dac_ch,scale);
 1045              	 .loc 2 219 0
 1046 0118 FB68     	 ldr r3,[r7,#12]
 1047 011a 1968     	 ldr r1,[r3]
 1048 011c FB68     	 ldr r3,[r7,#12]
 1049 011e 93F82220 	 ldrb r2,[r3,#34]
 1050 0122 FB7D     	 ldrb r3,[r7,#23]
 1051 0124 0846     	 mov r0,r1
 1052 0126 1146     	 mov r1,r2
 1053 0128 1A46     	 mov r2,r3
 1054 012a FFF7FEFF 	 bl XMC_DAC_CH_SetOutputScale
 1055              	.L40:
 220:../Dave/Generated/DAC/dac.c ****     }
 221:../Dave/Generated/DAC/dac.c ****     status = (DAC_STATUS_t)XMC_DAC_CH_SetFrequency(HandlePtr->dac_module_ptr,
 1056              	 .loc 2 221 0
 1057 012e FB68     	 ldr r3,[r7,#12]
 1058 0130 1A68     	 ldr r2,[r3]
 1059 0132 FB68     	 ldr r3,[r7,#12]
 1060 0134 93F82230 	 ldrb r3,[r3,#34]
 1061 0138 1046     	 mov r0,r2
 1062 013a 1946     	 mov r1,r3
 1063 013c FA69     	 ldr r2,[r7,#28]
 1064 013e FFF7FEFF 	 bl XMC_DAC_CH_SetFrequency
 1065 0142 0346     	 mov r3,r0
 1066 0144 87F82730 	 strb r3,[r7,#39]
 1067              	.L39:
 222:../Dave/Generated/DAC/dac.c ****                                                    HandlePtr->dac_ch,temp_cal_freq);
 223:../Dave/Generated/DAC/dac.c ****   }
 224:../Dave/Generated/DAC/dac.c ****   return status;
 1068              	 .loc 2 224 0
 1069 0148 97F82730 	 ldrb r3,[r7,#39]
 225:../Dave/Generated/DAC/dac.c **** }
 1070              	 .loc 2 225 0
 1071 014c 1846     	 mov r0,r3
 1072 014e 2837     	 adds r7,r7,#40
 1073              	.LCFI80:
 1074              	 .cfi_def_cfa_offset 8
 1075 0150 BD46     	 mov sp,r7
 1076              	.LCFI81:
 1077              	 .cfi_def_cfa_register 13
 1078              	 
 1079 0152 80BD     	 pop {r7,pc}
 1080              	 .cfi_endproc
 1081              	.LFE189:
 1083              	 .section .text.DAC_Ramp_StartStopConfigure,"ax",%progbits
 1084              	 .align 2
 1085              	 .global DAC_Ramp_StartStopConfigure
 1086              	 .thumb
 1087              	 .thumb_func
 1089              	DAC_Ramp_StartStopConfigure:
 1090              	.LFB190:
 226:../Dave/Generated/DAC/dac.c **** 
 227:../Dave/Generated/DAC/dac.c **** /* This API will configure ramp start and stop values */
 228:../Dave/Generated/DAC/dac.c **** void DAC_Ramp_StartStopConfigure(const DAC_t * const HandlePtr,uint16_t start_ramp,uint16_t stop_ra
 229:../Dave/Generated/DAC/dac.c **** {
 1091              	 .loc 2 229 0
 1092              	 .cfi_startproc
 1093              	 
 1094              	 
 1095 0000 80B5     	 push {r7,lr}
 1096              	.LCFI82:
 1097              	 .cfi_def_cfa_offset 8
 1098              	 .cfi_offset 7,-8
 1099              	 .cfi_offset 14,-4
 1100 0002 84B0     	 sub sp,sp,#16
 1101              	.LCFI83:
 1102              	 .cfi_def_cfa_offset 24
 1103 0004 00AF     	 add r7,sp,#0
 1104              	.LCFI84:
 1105              	 .cfi_def_cfa_register 7
 1106 0006 7860     	 str r0,[r7,#4]
 1107 0008 0B46     	 mov r3,r1
 1108 000a 7B80     	 strh r3,[r7,#2]
 1109 000c 1346     	 mov r3,r2
 1110 000e 3B80     	 strh r3,[r7]
 230:../Dave/Generated/DAC/dac.c ****   uint16_t temp_start_ramp;
 231:../Dave/Generated/DAC/dac.c ****   if(HandlePtr->dac_ramp_start_mv > HandlePtr->dac_ramp_stop_mv)
 1111              	 .loc 2 231 0
 1112 0010 7B68     	 ldr r3,[r7,#4]
 1113 0012 9A8B     	 ldrh r2,[r3,#28]
 1114 0014 7B68     	 ldr r3,[r7,#4]
 1115 0016 DB8B     	 ldrh r3,[r3,#30]
 1116 0018 9A42     	 cmp r2,r3
 1117 001a 15D9     	 bls .L43
 232:../Dave/Generated/DAC/dac.c ****   {
 233:../Dave/Generated/DAC/dac.c ****     /* Shift start/stop for negative ramp */
 234:../Dave/Generated/DAC/dac.c ****     temp_start_ramp = start_ramp;
 1118              	 .loc 2 234 0
 1119 001c 7B88     	 ldrh r3,[r7,#2]
 1120 001e FB81     	 strh r3,[r7,#14]
 235:../Dave/Generated/DAC/dac.c ****     start_ramp = DAC_RAMP_MAX_STEPS - stop_ramp;
 1121              	 .loc 2 235 0
 1122 0020 3B88     	 ldrh r3,[r7]
 1123 0022 C3F57F63 	 rsb r3,r3,#4080
 1124 0026 0F33     	 adds r3,r3,#15
 1125 0028 7B80     	 strh r3,[r7,#2]
 236:../Dave/Generated/DAC/dac.c ****     stop_ramp  = DAC_RAMP_MAX_STEPS - temp_start_ramp;
 1126              	 .loc 2 236 0
 1127 002a FB89     	 ldrh r3,[r7,#14]
 1128 002c C3F57F63 	 rsb r3,r3,#4080
 1129 0030 0F33     	 adds r3,r3,#15
 1130 0032 3B80     	 strh r3,[r7]
 237:../Dave/Generated/DAC/dac.c ****     XMC_DAC_CH_EnableOutputNegation(HandlePtr->dac_module_ptr,HandlePtr->dac_ch);
 1131              	 .loc 2 237 0
 1132 0034 7B68     	 ldr r3,[r7,#4]
 1133 0036 1A68     	 ldr r2,[r3]
 1134 0038 7B68     	 ldr r3,[r7,#4]
 1135 003a 93F82230 	 ldrb r3,[r3,#34]
 1136 003e 1046     	 mov r0,r2
 1137 0040 1946     	 mov r1,r3
 1138 0042 FFF7FEFF 	 bl XMC_DAC_CH_EnableOutputNegation
 1139 0046 08E0     	 b .L44
 1140              	.L43:
 238:../Dave/Generated/DAC/dac.c ****   }
 239:../Dave/Generated/DAC/dac.c ****   else
 240:../Dave/Generated/DAC/dac.c ****   {
 241:../Dave/Generated/DAC/dac.c ****     XMC_DAC_CH_DisableOutputNegation(HandlePtr->dac_module_ptr,HandlePtr->dac_ch);
 1141              	 .loc 2 241 0
 1142 0048 7B68     	 ldr r3,[r7,#4]
 1143 004a 1A68     	 ldr r2,[r3]
 1144 004c 7B68     	 ldr r3,[r7,#4]
 1145 004e 93F82230 	 ldrb r3,[r3,#34]
 1146 0052 1046     	 mov r0,r2
 1147 0054 1946     	 mov r1,r3
 1148 0056 FFF7FEFF 	 bl XMC_DAC_CH_DisableOutputNegation
 1149              	.L44:
 242:../Dave/Generated/DAC/dac.c ****   }
 243:../Dave/Generated/DAC/dac.c ****   XMC_DAC_CH_SetRampStart(HandlePtr->dac_module_ptr, HandlePtr->dac_ch, start_ramp);
 1150              	 .loc 2 243 0
 1151 005a 7B68     	 ldr r3,[r7,#4]
 1152 005c 1968     	 ldr r1,[r3]
 1153 005e 7B68     	 ldr r3,[r7,#4]
 1154 0060 93F82220 	 ldrb r2,[r3,#34]
 1155 0064 7B88     	 ldrh r3,[r7,#2]
 1156 0066 0846     	 mov r0,r1
 1157 0068 1146     	 mov r1,r2
 1158 006a 1A46     	 mov r2,r3
 1159 006c FFF7FEFF 	 bl XMC_DAC_CH_SetRampStart
 244:../Dave/Generated/DAC/dac.c ****   XMC_DAC_CH_SetRampStop(HandlePtr->dac_module_ptr, HandlePtr->dac_ch, stop_ramp);
 1160              	 .loc 2 244 0
 1161 0070 7B68     	 ldr r3,[r7,#4]
 1162 0072 1968     	 ldr r1,[r3]
 1163 0074 7B68     	 ldr r3,[r7,#4]
 1164 0076 93F82220 	 ldrb r2,[r3,#34]
 1165 007a 3B88     	 ldrh r3,[r7]
 1166 007c 0846     	 mov r0,r1
 1167 007e 1146     	 mov r1,r2
 1168 0080 1A46     	 mov r2,r3
 1169 0082 FFF7FEFF 	 bl XMC_DAC_CH_SetRampStop
 245:../Dave/Generated/DAC/dac.c **** }
 1170              	 .loc 2 245 0
 1171 0086 1037     	 adds r7,r7,#16
 1172              	.LCFI85:
 1173              	 .cfi_def_cfa_offset 8
 1174 0088 BD46     	 mov sp,r7
 1175              	.LCFI86:
 1176              	 .cfi_def_cfa_register 13
 1177              	 
 1178 008a 80BD     	 pop {r7,pc}
 1179              	 .cfi_endproc
 1180              	.LFE190:
 1182              	 .section .text.DAC_ModeConfig,"ax",%progbits
 1183              	 .align 2
 1184              	 .global DAC_ModeConfig
 1185              	 .thumb
 1186              	 .thumb_func
 1188              	DAC_ModeConfig:
 1189              	.LFB191:
 246:../Dave/Generated/DAC/dac.c **** 
 247:../Dave/Generated/DAC/dac.c **** /* This API will configure DAC mode depends upon the user configuration */
 248:../Dave/Generated/DAC/dac.c **** XMC_DAC_CH_STATUS_t DAC_ModeConfig(const DAC_t * const HandlePtr)
 249:../Dave/Generated/DAC/dac.c **** {
 1190              	 .loc 2 249 0
 1191              	 .cfi_startproc
 1192              	 
 1193              	 
 1194 0000 B0B5     	 push {r4,r5,r7,lr}
 1195              	.LCFI87:
 1196              	 .cfi_def_cfa_offset 16
 1197              	 .cfi_offset 4,-16
 1198              	 .cfi_offset 5,-12
 1199              	 .cfi_offset 7,-8
 1200              	 .cfi_offset 14,-4
 1201 0002 86B0     	 sub sp,sp,#24
 1202              	.LCFI88:
 1203              	 .cfi_def_cfa_offset 40
 1204 0004 02AF     	 add r7,sp,#8
 1205              	.LCFI89:
 1206              	 .cfi_def_cfa 7,32
 1207 0006 7860     	 str r0,[r7,#4]
 250:../Dave/Generated/DAC/dac.c ****   XMC_DAC_CH_STATUS_t api_status = XMC_DAC_CH_STATUS_OK;
 1208              	 .loc 2 250 0
 1209 0008 0023     	 movs r3,#0
 1210 000a FB73     	 strb r3,[r7,#15]
 251:../Dave/Generated/DAC/dac.c ****   /* Initialize DAC configuration created by the user */
 252:../Dave/Generated/DAC/dac.c ****   if ( XMC_DAC_CH_MODE_PATTERN == HandlePtr->dac_mode )
 1211              	 .loc 2 252 0
 1212 000c 7B68     	 ldr r3,[r7,#4]
 1213 000e 9B68     	 ldr r3,[r3,#8]
 1214 0010 B3F5401F 	 cmp r3,#3145728
 1215 0014 15D1     	 bne .L46
 253:../Dave/Generated/DAC/dac.c ****   {
 254:../Dave/Generated/DAC/dac.c ****     api_status = XMC_DAC_CH_StartPatternMode(HandlePtr->dac_module_ptr,HandlePtr->dac_ch,
 1216              	 .loc 2 254 0
 1217 0016 7B68     	 ldr r3,[r7,#4]
 1218 0018 1868     	 ldr r0,[r3]
 1219 001a 7B68     	 ldr r3,[r7,#4]
 1220 001c 93F82210 	 ldrb r1,[r3,#34]
 1221 0020 7B68     	 ldr r3,[r7,#4]
 1222 0022 5D6A     	 ldr r5,[r3,#36]
 1223 0024 7B68     	 ldr r3,[r7,#4]
 1224 0026 1C7C     	 ldrb r4,[r3,#16]
 1225 0028 7B68     	 ldr r3,[r7,#4]
 1226 002a DA68     	 ldr r2,[r3,#12]
 1227 002c 7B68     	 ldr r3,[r7,#4]
 1228 002e 5B69     	 ldr r3,[r3,#20]
 1229 0030 0092     	 str r2,[sp]
 1230 0032 0193     	 str r3,[sp,#4]
 1231 0034 2A46     	 mov r2,r5
 1232 0036 2346     	 mov r3,r4
 1233 0038 FFF7FEFF 	 bl XMC_DAC_CH_StartPatternMode
 1234 003c 0346     	 mov r3,r0
 1235 003e FB73     	 strb r3,[r7,#15]
 1236 0040 85E0     	 b .L47
 1237              	.L46:
 255:../Dave/Generated/DAC/dac.c ****     HandlePtr->dac_pat_table_ptr,HandlePtr->dac_sign_output,
 256:../Dave/Generated/DAC/dac.c ****     HandlePtr->dac_input_trigger,HandlePtr->dac_frequency);
 257:../Dave/Generated/DAC/dac.c ****   }
 258:../Dave/Generated/DAC/dac.c ****   else if ( XMC_DAC_CH_MODE_SINGLE == HandlePtr->dac_mode )
 1238              	 .loc 2 258 0
 1239 0042 7B68     	 ldr r3,[r7,#4]
 1240 0044 9B68     	 ldr r3,[r3,#8]
 1241 0046 B3F5801F 	 cmp r3,#1048576
 1242 004a 15D1     	 bne .L48
 259:../Dave/Generated/DAC/dac.c ****   {
 260:../Dave/Generated/DAC/dac.c ****     api_status = XMC_DAC_CH_StartSingleValueMode(HandlePtr->dac_module_ptr,HandlePtr->dac_ch);
 1243              	 .loc 2 260 0
 1244 004c 7B68     	 ldr r3,[r7,#4]
 1245 004e 1A68     	 ldr r2,[r3]
 1246 0050 7B68     	 ldr r3,[r7,#4]
 1247 0052 93F82230 	 ldrb r3,[r3,#34]
 1248 0056 1046     	 mov r0,r2
 1249 0058 1946     	 mov r1,r3
 1250 005a FFF7FEFF 	 bl XMC_DAC_CH_StartSingleValueMode
 1251 005e 0346     	 mov r3,r0
 1252 0060 FB73     	 strb r3,[r7,#15]
 261:../Dave/Generated/DAC/dac.c ****     /*Initialized data register with zero */
 262:../Dave/Generated/DAC/dac.c ****     XMC_DAC_CH_Write(HandlePtr->dac_module_ptr,HandlePtr->dac_ch,0U);
 1253              	 .loc 2 262 0
 1254 0062 7B68     	 ldr r3,[r7,#4]
 1255 0064 1A68     	 ldr r2,[r3]
 1256 0066 7B68     	 ldr r3,[r7,#4]
 1257 0068 93F82230 	 ldrb r3,[r3,#34]
 1258 006c 1046     	 mov r0,r2
 1259 006e 1946     	 mov r1,r3
 1260 0070 0022     	 movs r2,#0
 1261 0072 FFF7FEFF 	 bl XMC_DAC_CH_Write
 1262 0076 6AE0     	 b .L47
 1263              	.L48:
 263:../Dave/Generated/DAC/dac.c ****   }
 264:../Dave/Generated/DAC/dac.c ****   else if ( XMC_DAC_CH_MODE_DATA ==  HandlePtr->dac_mode )
 1264              	 .loc 2 264 0
 1265 0078 7B68     	 ldr r3,[r7,#4]
 1266 007a 9B68     	 ldr r3,[r3,#8]
 1267 007c B3F5001F 	 cmp r3,#2097152
 1268 0080 25D1     	 bne .L49
 265:../Dave/Generated/DAC/dac.c ****   {
 266:../Dave/Generated/DAC/dac.c ****     api_status = XMC_DAC_CH_StartDataMode(HandlePtr->dac_module_ptr,HandlePtr->dac_ch,
 1269              	 .loc 2 266 0
 1270 0082 7B68     	 ldr r3,[r7,#4]
 1271 0084 1868     	 ldr r0,[r3]
 1272 0086 7B68     	 ldr r3,[r7,#4]
 1273 0088 93F82210 	 ldrb r1,[r3,#34]
 1274 008c 7B68     	 ldr r3,[r7,#4]
 1275 008e DA68     	 ldr r2,[r3,#12]
 1276 0090 7B68     	 ldr r3,[r7,#4]
 1277 0092 5B69     	 ldr r3,[r3,#20]
 1278 0094 FFF7FEFF 	 bl XMC_DAC_CH_StartDataMode
 1279 0098 0346     	 mov r3,r0
 1280 009a FB73     	 strb r3,[r7,#15]
 267:../Dave/Generated/DAC/dac.c ****     HandlePtr->dac_input_trigger,HandlePtr->dac_frequency);
 268:../Dave/Generated/DAC/dac.c ****     if(1U == HandlePtr->dac_service_request)
 1281              	 .loc 2 268 0
 1282 009c 7B68     	 ldr r3,[r7,#4]
 1283 009e 93F82030 	 ldrb r3,[r3,#32]
 1284 00a2 012B     	 cmp r3,#1
 1285 00a4 08D1     	 bne .L50
 269:../Dave/Generated/DAC/dac.c ****     {
 270:../Dave/Generated/DAC/dac.c ****       /* Enable Service Request */
 271:../Dave/Generated/DAC/dac.c ****       XMC_DAC_CH_EnableEvent(HandlePtr->dac_module_ptr,HandlePtr->dac_ch);
 1286              	 .loc 2 271 0
 1287 00a6 7B68     	 ldr r3,[r7,#4]
 1288 00a8 1A68     	 ldr r2,[r3]
 1289 00aa 7B68     	 ldr r3,[r7,#4]
 1290 00ac 93F82230 	 ldrb r3,[r3,#34]
 1291 00b0 1046     	 mov r0,r2
 1292 00b2 1946     	 mov r1,r3
 1293 00b4 FFF7FEFF 	 bl XMC_DAC_CH_EnableEvent
 1294              	.L50:
 272:../Dave/Generated/DAC/dac.c ****     }
 273:../Dave/Generated/DAC/dac.c **** 
 274:../Dave/Generated/DAC/dac.c ****     /*Initialized data register with zero */
 275:../Dave/Generated/DAC/dac.c ****     XMC_DAC_CH_Write(HandlePtr->dac_module_ptr,HandlePtr->dac_ch,0U);
 1295              	 .loc 2 275 0
 1296 00b8 7B68     	 ldr r3,[r7,#4]
 1297 00ba 1A68     	 ldr r2,[r3]
 1298 00bc 7B68     	 ldr r3,[r7,#4]
 1299 00be 93F82230 	 ldrb r3,[r3,#34]
 1300 00c2 1046     	 mov r0,r2
 1301 00c4 1946     	 mov r1,r3
 1302 00c6 0022     	 movs r2,#0
 1303 00c8 FFF7FEFF 	 bl XMC_DAC_CH_Write
 1304 00cc 3FE0     	 b .L47
 1305              	.L49:
 276:../Dave/Generated/DAC/dac.c ****   }
 277:../Dave/Generated/DAC/dac.c ****   else if ( XMC_DAC_CH_MODE_RAMP == HandlePtr->dac_mode )
 1306              	 .loc 2 277 0
 1307 00ce 7B68     	 ldr r3,[r7,#4]
 1308 00d0 9B68     	 ldr r3,[r3,#8]
 1309 00d2 B3F5A00F 	 cmp r3,#5242880
 1310 00d6 25D1     	 bne .L51
 278:../Dave/Generated/DAC/dac.c ****   {
 279:../Dave/Generated/DAC/dac.c ****     api_status = XMC_DAC_CH_StartRampMode(HandlePtr->dac_module_ptr,HandlePtr->dac_ch,
 1311              	 .loc 2 279 0
 1312 00d8 7B68     	 ldr r3,[r7,#4]
 1313 00da 1868     	 ldr r0,[r3]
 1314 00dc 7B68     	 ldr r3,[r7,#4]
 1315 00de 93F82210 	 ldrb r1,[r3,#34]
 1316 00e2 7B68     	 ldr r3,[r7,#4]
 1317 00e4 1D8B     	 ldrh r5,[r3,#24]
 1318 00e6 7B68     	 ldr r3,[r7,#4]
 1319 00e8 5C8B     	 ldrh r4,[r3,#26]
 1320 00ea 7B68     	 ldr r3,[r7,#4]
 1321 00ec DA68     	 ldr r2,[r3,#12]
 1322 00ee 7B68     	 ldr r3,[r7,#4]
 1323 00f0 5B69     	 ldr r3,[r3,#20]
 1324 00f2 0092     	 str r2,[sp]
 1325 00f4 0193     	 str r3,[sp,#4]
 1326 00f6 2A46     	 mov r2,r5
 1327 00f8 2346     	 mov r3,r4
 1328 00fa FFF7FEFF 	 bl XMC_DAC_CH_StartRampMode
 1329 00fe 0346     	 mov r3,r0
 1330 0100 FB73     	 strb r3,[r7,#15]
 280:../Dave/Generated/DAC/dac.c ****     HandlePtr->dac_ramp_start,HandlePtr->dac_ramp_stop,
 281:../Dave/Generated/DAC/dac.c ****     HandlePtr->dac_input_trigger,HandlePtr->dac_frequency);
 282:../Dave/Generated/DAC/dac.c **** 
 283:../Dave/Generated/DAC/dac.c ****     XMC_DAC_CH_SetOutputScale(HandlePtr->dac_module_ptr,HandlePtr->dac_ch,
 1331              	 .loc 2 283 0
 1332 0102 7B68     	 ldr r3,[r7,#4]
 1333 0104 1968     	 ldr r1,[r3]
 1334 0106 7B68     	 ldr r3,[r7,#4]
 1335 0108 93F82220 	 ldrb r2,[r3,#34]
 284:../Dave/Generated/DAC/dac.c ****                        (XMC_DAC_CH_OUTPUT_SCALE_t)HandlePtr->dac_config_ptr->output_scale);
 1336              	 .loc 2 284 0
 1337 010c 7B68     	 ldr r3,[r7,#4]
 1338 010e 5B68     	 ldr r3,[r3,#4]
 1339 0110 1B79     	 ldrb r3,[r3,#4]
 1340 0112 C3F30303 	 ubfx r3,r3,#0,#4
 1341 0116 DBB2     	 uxtb r3,r3
 283:../Dave/Generated/DAC/dac.c ****                        (XMC_DAC_CH_OUTPUT_SCALE_t)HandlePtr->dac_config_ptr->output_scale);
 1342              	 .loc 2 283 0
 1343 0118 0846     	 mov r0,r1
 1344 011a 1146     	 mov r1,r2
 1345 011c 1A46     	 mov r2,r3
 1346 011e FFF7FEFF 	 bl XMC_DAC_CH_SetOutputScale
 1347 0122 14E0     	 b .L47
 1348              	.L51:
 285:../Dave/Generated/DAC/dac.c ****   }
 286:../Dave/Generated/DAC/dac.c ****   else if ( XMC_DAC_CH_MODE_NOISE == HandlePtr->dac_mode )
 1349              	 .loc 2 286 0
 1350 0124 7B68     	 ldr r3,[r7,#4]
 1351 0126 9B68     	 ldr r3,[r3,#8]
 1352 0128 B3F5800F 	 cmp r3,#4194304
 1353 012c 0DD1     	 bne .L52
 287:../Dave/Generated/DAC/dac.c ****   {
 288:../Dave/Generated/DAC/dac.c ****     api_status = XMC_DAC_CH_StartNoiseMode(HandlePtr->dac_module_ptr,HandlePtr->dac_ch,
 1354              	 .loc 2 288 0
 1355 012e 7B68     	 ldr r3,[r7,#4]
 1356 0130 1868     	 ldr r0,[r3]
 1357 0132 7B68     	 ldr r3,[r7,#4]
 1358 0134 93F82210 	 ldrb r1,[r3,#34]
 1359 0138 7B68     	 ldr r3,[r7,#4]
 1360 013a DA68     	 ldr r2,[r3,#12]
 1361 013c 7B68     	 ldr r3,[r7,#4]
 1362 013e 5B69     	 ldr r3,[r3,#20]
 1363 0140 FFF7FEFF 	 bl XMC_DAC_CH_StartNoiseMode
 1364 0144 0346     	 mov r3,r0
 1365 0146 FB73     	 strb r3,[r7,#15]
 1366 0148 01E0     	 b .L47
 1367              	.L52:
 289:../Dave/Generated/DAC/dac.c ****     HandlePtr->dac_input_trigger,HandlePtr->dac_frequency);
 290:../Dave/Generated/DAC/dac.c ****   }
 291:../Dave/Generated/DAC/dac.c ****   else
 292:../Dave/Generated/DAC/dac.c ****   {
 293:../Dave/Generated/DAC/dac.c ****     /* DAC Mode Idle */
 294:../Dave/Generated/DAC/dac.c ****     api_status = XMC_DAC_CH_STATUS_OK;
 1368              	 .loc 2 294 0
 1369 014a 0023     	 movs r3,#0
 1370 014c FB73     	 strb r3,[r7,#15]
 1371              	.L47:
 295:../Dave/Generated/DAC/dac.c ****   }
 296:../Dave/Generated/DAC/dac.c ****   return api_status;
 1372              	 .loc 2 296 0
 1373 014e FB7B     	 ldrb r3,[r7,#15]
 297:../Dave/Generated/DAC/dac.c **** }
 1374              	 .loc 2 297 0
 1375 0150 1846     	 mov r0,r3
 1376 0152 1037     	 adds r7,r7,#16
 1377              	.LCFI90:
 1378              	 .cfi_def_cfa_offset 16
 1379 0154 BD46     	 mov sp,r7
 1380              	.LCFI91:
 1381              	 .cfi_def_cfa_register 13
 1382              	 
 1383 0156 B0BD     	 pop {r4,r5,r7,pc}
 1384              	 .cfi_endproc
 1385              	.LFE191:
 1387              	 .section .text.DAC_GetAppVersion,"ax",%progbits
 1388              	 .align 2
 1389              	 .global DAC_GetAppVersion
 1390              	 .thumb
 1391              	 .thumb_func
 1393              	DAC_GetAppVersion:
 1394              	.LFB192:
 298:../Dave/Generated/DAC/dac.c **** 
 299:../Dave/Generated/DAC/dac.c **** /* App API to retrieve the App version information */
 300:../Dave/Generated/DAC/dac.c **** DAVE_APP_VERSION_t DAC_GetAppVersion(void)
 301:../Dave/Generated/DAC/dac.c **** {
 1395              	 .loc 2 301 0
 1396              	 .cfi_startproc
 1397              	 
 1398              	 
 1399              	 
 1400 0000 80B4     	 push {r7}
 1401              	.LCFI92:
 1402              	 .cfi_def_cfa_offset 4
 1403              	 .cfi_offset 7,-4
 1404 0002 83B0     	 sub sp,sp,#12
 1405              	.LCFI93:
 1406              	 .cfi_def_cfa_offset 16
 1407 0004 00AF     	 add r7,sp,#0
 1408              	.LCFI94:
 1409              	 .cfi_def_cfa_register 7
 302:../Dave/Generated/DAC/dac.c ****   DAVE_APP_VERSION_t version;
 303:../Dave/Generated/DAC/dac.c **** 
 304:../Dave/Generated/DAC/dac.c ****   version.major = DAC_MAJOR_VERSION;
 1410              	 .loc 2 304 0
 1411 0006 0423     	 movs r3,#4
 1412 0008 3B70     	 strb r3,[r7]
 305:../Dave/Generated/DAC/dac.c ****   version.minor = DAC_MINOR_VERSION;
 1413              	 .loc 2 305 0
 1414 000a 0023     	 movs r3,#0
 1415 000c 7B70     	 strb r3,[r7,#1]
 306:../Dave/Generated/DAC/dac.c ****   version.patch = DAC_PATCH_VERSION;
 1416              	 .loc 2 306 0
 1417 000e 0823     	 movs r3,#8
 1418 0010 BB70     	 strb r3,[r7,#2]
 307:../Dave/Generated/DAC/dac.c **** 
 308:../Dave/Generated/DAC/dac.c ****   return version;
 1419              	 .loc 2 308 0
 1420 0012 3B1D     	 adds r3,r7,#4
 1421 0014 3A46     	 mov r2,r7
 1422 0016 1268     	 ldr r2,[r2]
 1423 0018 1146     	 mov r1,r2
 1424 001a 1980     	 strh r1,[r3]
 1425 001c 0233     	 adds r3,r3,#2
 1426 001e 120C     	 lsrs r2,r2,#16
 1427 0020 1A70     	 strb r2,[r3]
 1428 0022 0023     	 movs r3,#0
 1429 0024 3A79     	 ldrb r2,[r7,#4]
 1430 0026 62F30703 	 bfi r3,r2,#0,#8
 1431 002a 7A79     	 ldrb r2,[r7,#5]
 1432 002c 62F30F23 	 bfi r3,r2,#8,#8
 1433 0030 BA79     	 ldrb r2,[r7,#6]
 1434 0032 62F31743 	 bfi r3,r2,#16,#8
 309:../Dave/Generated/DAC/dac.c **** }
 1435              	 .loc 2 309 0
 1436 0036 1846     	 mov r0,r3
 1437 0038 0C37     	 adds r7,r7,#12
 1438              	.LCFI95:
 1439              	 .cfi_def_cfa_offset 4
 1440 003a BD46     	 mov sp,r7
 1441              	.LCFI96:
 1442              	 .cfi_def_cfa_register 13
 1443              	 
 1444 003c 5DF8047B 	 ldr r7,[sp],#4
 1445              	.LCFI97:
 1446              	 .cfi_restore 7
 1447              	 .cfi_def_cfa_offset 0
 1448 0040 7047     	 bx lr
 1449              	 .cfi_endproc
 1450              	.LFE192:
 1452 0042 00BF     	 .section .text.DAC_Init,"ax",%progbits
 1453              	 .align 2
 1454              	 .global DAC_Init
 1455              	 .thumb
 1456              	 .thumb_func
 1458              	DAC_Init:
 1459              	.LFB193:
 310:../Dave/Generated/DAC/dac.c **** 
 311:../Dave/Generated/DAC/dac.c **** /**
 312:../Dave/Generated/DAC/dac.c ****     * This function initializes DAC
 313:../Dave/Generated/DAC/dac.c ****     * peripheral as per the user configurations
 314:../Dave/Generated/DAC/dac.c **** */
 315:../Dave/Generated/DAC/dac.c **** 
 316:../Dave/Generated/DAC/dac.c **** DAC_STATUS_t DAC_Init(const DAC_t * const HandlePtr)
 317:../Dave/Generated/DAC/dac.c **** {
 1460              	 .loc 2 317 0
 1461              	 .cfi_startproc
 1462              	 
 1463              	 
 1464 0000 80B5     	 push {r7,lr}
 1465              	.LCFI98:
 1466              	 .cfi_def_cfa_offset 8
 1467              	 .cfi_offset 7,-8
 1468              	 .cfi_offset 14,-4
 1469 0002 84B0     	 sub sp,sp,#16
 1470              	.LCFI99:
 1471              	 .cfi_def_cfa_offset 24
 1472 0004 00AF     	 add r7,sp,#0
 1473              	.LCFI100:
 1474              	 .cfi_def_cfa_register 7
 1475 0006 7860     	 str r0,[r7,#4]
 318:../Dave/Generated/DAC/dac.c ****   DAC_STATUS_t status = DAC_STATUS_SUCCESS;
 1476              	 .loc 2 318 0
 1477 0008 0023     	 movs r3,#0
 1478 000a FB73     	 strb r3,[r7,#15]
 319:../Dave/Generated/DAC/dac.c ****   XMC_DAC_CH_STATUS_t api_status;
 320:../Dave/Generated/DAC/dac.c **** 
 321:../Dave/Generated/DAC/dac.c ****   /*Assert variables.*/
 322:../Dave/Generated/DAC/dac.c ****   XMC_ASSERT(" DAC_Init: Passing argument DAC HandlePtr of type DAC_t is Null",
 323:../Dave/Generated/DAC/dac.c ****              (HandlePtr != (DAC_t *)NULL));
 324:../Dave/Generated/DAC/dac.c **** 
 325:../Dave/Generated/DAC/dac.c ****   /* Enable DAC module */
 326:../Dave/Generated/DAC/dac.c ****   XMC_DAC_CH_Init(HandlePtr->dac_module_ptr,HandlePtr->dac_ch,HandlePtr->dac_config_ptr);
 1479              	 .loc 2 326 0
 1480 000c 7B68     	 ldr r3,[r7,#4]
 1481 000e 1968     	 ldr r1,[r3]
 1482 0010 7B68     	 ldr r3,[r7,#4]
 1483 0012 93F82220 	 ldrb r2,[r3,#34]
 1484 0016 7B68     	 ldr r3,[r7,#4]
 1485 0018 5B68     	 ldr r3,[r3,#4]
 1486 001a 0846     	 mov r0,r1
 1487 001c 1146     	 mov r1,r2
 1488 001e 1A46     	 mov r2,r3
 1489 0020 FFF7FEFF 	 bl XMC_DAC_CH_Init
 327:../Dave/Generated/DAC/dac.c **** 
 328:../Dave/Generated/DAC/dac.c ****   /* Configure DAC with user configured mode */
 329:../Dave/Generated/DAC/dac.c ****   api_status = DAC_ModeConfig(HandlePtr);
 1490              	 .loc 2 329 0
 1491 0024 7868     	 ldr r0,[r7,#4]
 1492 0026 FFF7FEFF 	 bl DAC_ModeConfig
 1493 002a 0346     	 mov r3,r0
 1494 002c BB73     	 strb r3,[r7,#14]
 330:../Dave/Generated/DAC/dac.c **** 
 331:../Dave/Generated/DAC/dac.c ****   /* Check if start after initialization is enabled */
 332:../Dave/Generated/DAC/dac.c ****   if(HandlePtr->dac_start_after_init == 0U)
 1495              	 .loc 2 332 0
 1496 002e 7B68     	 ldr r3,[r7,#4]
 1497 0030 93F82830 	 ldrb r3,[r3,#40]
 1498 0034 002B     	 cmp r3,#0
 1499 0036 09D1     	 bne .L57
 333:../Dave/Generated/DAC/dac.c ****   {
 334:../Dave/Generated/DAC/dac.c ****     XMC_DAC_CH_SetMode(HandlePtr->dac_module_ptr, HandlePtr->dac_ch, XMC_DAC_CH_MODE_IDLE);
 1500              	 .loc 2 334 0
 1501 0038 7B68     	 ldr r3,[r7,#4]
 1502 003a 1A68     	 ldr r2,[r3]
 1503 003c 7B68     	 ldr r3,[r7,#4]
 1504 003e 93F82230 	 ldrb r3,[r3,#34]
 1505 0042 1046     	 mov r0,r2
 1506 0044 1946     	 mov r1,r3
 1507 0046 0022     	 movs r2,#0
 1508 0048 FFF7FEFF 	 bl XMC_DAC_CH_SetMode
 1509              	.L57:
 335:../Dave/Generated/DAC/dac.c ****   }
 336:../Dave/Generated/DAC/dac.c **** 
 337:../Dave/Generated/DAC/dac.c ****   if(1U == HandlePtr->dac_coupled)
 1510              	 .loc 2 337 0
 1511 004c 7B68     	 ldr r3,[r7,#4]
 1512 004e 93F82130 	 ldrb r3,[r3,#33]
 1513 0052 012B     	 cmp r3,#1
 1514 0054 04D1     	 bne .L58
 338:../Dave/Generated/DAC/dac.c ****   {
 339:../Dave/Generated/DAC/dac.c ****     /* Enable Simultaneous Data Mode */
 340:../Dave/Generated/DAC/dac.c ****     XMC_DAC_EnableSimultaneousDataMode(HandlePtr->dac_module_ptr);
 1515              	 .loc 2 340 0
 1516 0056 7B68     	 ldr r3,[r7,#4]
 1517 0058 1B68     	 ldr r3,[r3]
 1518 005a 1846     	 mov r0,r3
 1519 005c FFF7FEFF 	 bl XMC_DAC_EnableSimultaneousDataMode
 1520              	.L58:
 341:../Dave/Generated/DAC/dac.c ****   }
 342:../Dave/Generated/DAC/dac.c **** 
 343:../Dave/Generated/DAC/dac.c ****   if(api_status != XMC_DAC_CH_STATUS_OK)
 1521              	 .loc 2 343 0
 1522 0060 BB7B     	 ldrb r3,[r7,#14]
 1523 0062 002B     	 cmp r3,#0
 1524 0064 01D0     	 beq .L59
 344:../Dave/Generated/DAC/dac.c ****   {
 345:../Dave/Generated/DAC/dac.c ****     status = DAC_STATUS_FAILURE;
 1525              	 .loc 2 345 0
 1526 0066 0123     	 movs r3,#1
 1527 0068 FB73     	 strb r3,[r7,#15]
 1528              	.L59:
 346:../Dave/Generated/DAC/dac.c ****   }
 347:../Dave/Generated/DAC/dac.c **** 
 348:../Dave/Generated/DAC/dac.c ****   return status;
 1529              	 .loc 2 348 0
 1530 006a FB7B     	 ldrb r3,[r7,#15]
 349:../Dave/Generated/DAC/dac.c **** }
 1531              	 .loc 2 349 0
 1532 006c 1846     	 mov r0,r3
 1533 006e 1037     	 adds r7,r7,#16
 1534              	.LCFI101:
 1535              	 .cfi_def_cfa_offset 8
 1536 0070 BD46     	 mov sp,r7
 1537              	.LCFI102:
 1538              	 .cfi_def_cfa_register 13
 1539              	 
 1540 0072 80BD     	 pop {r7,pc}
 1541              	 .cfi_endproc
 1542              	.LFE193:
 1544              	 .section .text.DAC_Pattern_SetAmplitude,"ax",%progbits
 1545              	 .align 2
 1546              	 .global DAC_Pattern_SetAmplitude
 1547              	 .thumb
 1548              	 .thumb_func
 1550              	DAC_Pattern_SetAmplitude:
 1551              	.LFB194:
 350:../Dave/Generated/DAC/dac.c **** 
 351:../Dave/Generated/DAC/dac.c **** /*
 352:../Dave/Generated/DAC/dac.c ****   * This API will set the amplitude in Pattern Mode.
 353:../Dave/Generated/DAC/dac.c **** */
 354:../Dave/Generated/DAC/dac.c **** void DAC_Pattern_SetAmplitude(const DAC_t * const HandlePtr,DAC_VSS_t Amplitude)
 355:../Dave/Generated/DAC/dac.c **** {
 1552              	 .loc 2 355 0
 1553              	 .cfi_startproc
 1554              	 
 1555              	 
 1556 0000 80B5     	 push {r7,lr}
 1557              	.LCFI103:
 1558              	 .cfi_def_cfa_offset 8
 1559              	 .cfi_offset 7,-8
 1560              	 .cfi_offset 14,-4
 1561 0002 84B0     	 sub sp,sp,#16
 1562              	.LCFI104:
 1563              	 .cfi_def_cfa_offset 24
 1564 0004 00AF     	 add r7,sp,#0
 1565              	.LCFI105:
 1566              	 .cfi_def_cfa_register 7
 1567 0006 7860     	 str r0,[r7,#4]
 1568 0008 0B46     	 mov r3,r1
 1569 000a FB70     	 strb r3,[r7,#3]
 356:../Dave/Generated/DAC/dac.c ****   XMC_DAC_CH_OUTPUT_SCALE_t scale;
 357:../Dave/Generated/DAC/dac.c **** 
 358:../Dave/Generated/DAC/dac.c ****   if(Amplitude > DAC_VSS_0034_mV)
 1570              	 .loc 2 358 0
 1571 000c FB78     	 ldrb r3,[r7,#3]
 1572 000e 052B     	 cmp r3,#5
 1573 0010 03D9     	 bls .L62
 359:../Dave/Generated/DAC/dac.c ****   {
 360:../Dave/Generated/DAC/dac.c ****     /* If amplitude greater or equal to 34mV then scale Up */
 361:../Dave/Generated/DAC/dac.c ****     scale = (XMC_DAC_CH_OUTPUT_SCALE_t)((uint32_t)XMC_DAC_CH_OUTPUT_SCALE_MUL_2 +
 1574              	 .loc 2 361 0
 1575 0012 FB78     	 ldrb r3,[r7,#3]
 1576 0014 0333     	 adds r3,r3,#3
 1577 0016 FB73     	 strb r3,[r7,#15]
 1578 0018 09E0     	 b .L63
 1579              	.L62:
 362:../Dave/Generated/DAC/dac.c ****                                ((uint32_t)Amplitude - (uint32_t)DAC_VSS_0069_mV));
 363:../Dave/Generated/DAC/dac.c ****   }
 364:../Dave/Generated/DAC/dac.c ****   else if(Amplitude < DAC_VSS_0034_mV)
 1580              	 .loc 2 364 0
 1581 001a FB78     	 ldrb r3,[r7,#3]
 1582 001c 042B     	 cmp r3,#4
 1583 001e 04D8     	 bhi .L64
 365:../Dave/Generated/DAC/dac.c ****   {
 366:../Dave/Generated/DAC/dac.c ****     /* If amplitude less than 34mV then scale down */
 367:../Dave/Generated/DAC/dac.c ****     scale = (XMC_DAC_CH_OUTPUT_SCALE_t)((uint32_t)XMC_DAC_CH_OUTPUT_SCALE_DIV_2 +
 1584              	 .loc 2 367 0
 1585 0020 FB78     	 ldrb r3,[r7,#3]
 1586 0022 C3F10503 	 rsb r3,r3,#5
 1587 0026 FB73     	 strb r3,[r7,#15]
 1588 0028 01E0     	 b .L63
 1589              	.L64:
 368:../Dave/Generated/DAC/dac.c ****                               ((uint32_t)DAC_VSS_0017_mV - (uint32_t)Amplitude));
 369:../Dave/Generated/DAC/dac.c ****   }
 370:../Dave/Generated/DAC/dac.c ****   else
 371:../Dave/Generated/DAC/dac.c ****   {
 372:../Dave/Generated/DAC/dac.c ****     /* No scaling required */
 373:../Dave/Generated/DAC/dac.c ****     scale = XMC_DAC_CH_OUTPUT_SCALE_NONE;
 1590              	 .loc 2 373 0
 1591 002a 0023     	 movs r3,#0
 1592 002c FB73     	 strb r3,[r7,#15]
 1593              	.L63:
 374:../Dave/Generated/DAC/dac.c ****   }
 375:../Dave/Generated/DAC/dac.c **** 
 376:../Dave/Generated/DAC/dac.c ****   XMC_DAC_CH_SetOutputScale(HandlePtr->dac_module_ptr,HandlePtr->dac_ch, scale);
 1594              	 .loc 2 376 0
 1595 002e 7B68     	 ldr r3,[r7,#4]
 1596 0030 1968     	 ldr r1,[r3]
 1597 0032 7B68     	 ldr r3,[r7,#4]
 1598 0034 93F82220 	 ldrb r2,[r3,#34]
 1599 0038 FB7B     	 ldrb r3,[r7,#15]
 1600 003a 0846     	 mov r0,r1
 1601 003c 1146     	 mov r1,r2
 1602 003e 1A46     	 mov r2,r3
 1603 0040 FFF7FEFF 	 bl XMC_DAC_CH_SetOutputScale
 377:../Dave/Generated/DAC/dac.c **** }
 1604              	 .loc 2 377 0
 1605 0044 1037     	 adds r7,r7,#16
 1606              	.LCFI106:
 1607              	 .cfi_def_cfa_offset 8
 1608 0046 BD46     	 mov sp,r7
 1609              	.LCFI107:
 1610              	 .cfi_def_cfa_register 13
 1611              	 
 1612 0048 80BD     	 pop {r7,pc}
 1613              	 .cfi_endproc
 1614              	.LFE194:
 1616 004a 00BF     	 .section .text.DAC_Pattern_SetOffset,"ax",%progbits
 1617              	 .align 2
 1618              	 .global DAC_Pattern_SetOffset
 1619              	 .thumb
 1620              	 .thumb_func
 1622              	DAC_Pattern_SetOffset:
 1623              	.LFB195:
 378:../Dave/Generated/DAC/dac.c **** 
 379:../Dave/Generated/DAC/dac.c **** /*
 380:../Dave/Generated/DAC/dac.c ****   * This API will set offset in Pattern Mode.
 381:../Dave/Generated/DAC/dac.c **** */
 382:../Dave/Generated/DAC/dac.c **** DAC_STATUS_t DAC_Pattern_SetOffset(const DAC_t * const HandlePtr,int16_t Dc_offset_mv)
 383:../Dave/Generated/DAC/dac.c **** {
 1624              	 .loc 2 383 0
 1625              	 .cfi_startproc
 1626              	 
 1627              	 
 1628 0000 80B5     	 push {r7,lr}
 1629              	.LCFI108:
 1630              	 .cfi_def_cfa_offset 8
 1631              	 .cfi_offset 7,-8
 1632              	 .cfi_offset 14,-4
 1633 0002 86B0     	 sub sp,sp,#24
 1634              	.LCFI109:
 1635              	 .cfi_def_cfa_offset 32
 1636 0004 00AF     	 add r7,sp,#0
 1637              	.LCFI110:
 1638              	 .cfi_def_cfa_register 7
 1639 0006 7860     	 str r0,[r7,#4]
 1640 0008 0B46     	 mov r3,r1
 1641 000a 7B80     	 strh r3,[r7,#2]
 384:../Dave/Generated/DAC/dac.c ****   DAC_STATUS_t status;
 385:../Dave/Generated/DAC/dac.c ****   uint8_t u_offset;
 386:../Dave/Generated/DAC/dac.c ****   int16_t i_offset;
 387:../Dave/Generated/DAC/dac.c ****   uint16_t amplitude_in_mV;
 388:../Dave/Generated/DAC/dac.c ****   uint32_t scale;
 389:../Dave/Generated/DAC/dac.c **** 
 390:../Dave/Generated/DAC/dac.c ****   scale = (uint32_t)XMC_DAC_CH_GetOutputScale(HandlePtr->dac_module_ptr, HandlePtr->dac_ch);
 1642              	 .loc 2 390 0
 1643 000c 7B68     	 ldr r3,[r7,#4]
 1644 000e 1A68     	 ldr r2,[r3]
 1645 0010 7B68     	 ldr r3,[r7,#4]
 1646 0012 93F82230 	 ldrb r3,[r3,#34]
 1647 0016 1046     	 mov r0,r2
 1648 0018 1946     	 mov r1,r3
 1649 001a FFF7FEFF 	 bl XMC_DAC_CH_GetOutputScale
 1650 001e 0346     	 mov r3,r0
 1651 0020 FB60     	 str r3,[r7,#12]
 391:../Dave/Generated/DAC/dac.c ****   if(scale & DAC_DAC0CFG1_MULDIV_Msk)
 1652              	 .loc 2 391 0
 1653 0022 FB68     	 ldr r3,[r7,#12]
 1654 0024 03F00803 	 and r3,r3,#8
 1655 0028 002B     	 cmp r3,#0
 1656 002a 07D0     	 beq .L66
 392:../Dave/Generated/DAC/dac.c ****   {
 393:../Dave/Generated/DAC/dac.c ****     amplitude_in_mV = (uint16_t)((uint16_t)DAC_VSS_34_MV << (scale & DAC_DAC0CFG1_SCALE_Msk));
 1657              	 .loc 2 393 0
 1658 002c FB68     	 ldr r3,[r7,#12]
 1659 002e 03F00703 	 and r3,r3,#7
 1660 0032 2222     	 movs r2,#34
 1661 0034 02FA03F3 	 lsl r3,r2,r3
 1662 0038 7B82     	 strh r3,[r7,#18]
 1663 003a 06E0     	 b .L67
 1664              	.L66:
 394:../Dave/Generated/DAC/dac.c ****   }
 395:../Dave/Generated/DAC/dac.c ****   else
 396:../Dave/Generated/DAC/dac.c ****   {
 397:../Dave/Generated/DAC/dac.c ****     amplitude_in_mV = (uint16_t)((uint16_t)DAC_VSS_34_MV >> (scale & DAC_DAC0CFG1_SCALE_Msk));
 1665              	 .loc 2 397 0
 1666 003c FB68     	 ldr r3,[r7,#12]
 1667 003e 03F00703 	 and r3,r3,#7
 1668 0042 2222     	 movs r2,#34
 1669 0044 42FA03F3 	 asr r3,r2,r3
 1670 0048 7B82     	 strh r3,[r7,#18]
 1671              	.L67:
 398:../Dave/Generated/DAC/dac.c ****   }
 399:../Dave/Generated/DAC/dac.c **** 
 400:../Dave/Generated/DAC/dac.c ****   i_offset = (Dc_offset_mv - (int16_t)DAC_OFFSET_SIGN_mV);
 1672              	 .loc 2 400 0
 1673 004a 7B88     	 ldrh r3,[r7,#2]
 1674 004c A3F5AF63 	 sub r3,r3,#1400
 1675 0050 9BB2     	 uxth r3,r3
 1676 0052 BB82     	 strh r3,[r7,#20]
 401:../Dave/Generated/DAC/dac.c ****   i_offset = (int16_t)((i_offset * DAC_PATTERN_AMPLITUDE)/ (int16_t)amplitude_in_mV);
 1677              	 .loc 2 401 0
 1678 0054 B7F91420 	 ldrsh r2,[r7,#20]
 1679 0058 1346     	 mov r3,r2
 1680 005a 5B01     	 lsls r3,r3,#5
 1681 005c 9B1A     	 subs r3,r3,r2
 1682 005e 5B00     	 lsls r3,r3,#1
 1683 0060 1A46     	 mov r2,r3
 1684 0062 7B8A     	 ldrh r3,[r7,#18]
 1685 0064 1BB2     	 sxth r3,r3
 1686 0066 92FBF3F3 	 sdiv r3,r2,r3
 1687 006a BB82     	 strh r3,[r7,#20]
 402:../Dave/Generated/DAC/dac.c **** 
 403:../Dave/Generated/DAC/dac.c ****   if((i_offset > DAC_OFFSET_MAX_SIGN) || (i_offset < DAC_OFFSET_MIN_SIGN))
 1688              	 .loc 2 403 0
 1689 006c B7F91430 	 ldrsh r3,[r7,#20]
 1690 0070 7F2B     	 cmp r3,#127
 1691 0072 04DC     	 bgt .L68
 1692              	 .loc 2 403 0 is_stmt 0 discriminator 1
 1693 0074 B7F91430 	 ldrsh r3,[r7,#20]
 1694 0078 13F1800F 	 cmn r3,#128
 1695 007c 02DA     	 bge .L69
 1696              	.L68:
 404:../Dave/Generated/DAC/dac.c ****   {
 405:../Dave/Generated/DAC/dac.c ****     /* Offset not configurable */
 406:../Dave/Generated/DAC/dac.c ****     status = DAC_STATUS_API_FAIL;
 1697              	 .loc 2 406 0 is_stmt 1
 1698 007e 0223     	 movs r3,#2
 1699 0080 FB75     	 strb r3,[r7,#23]
 1700 0082 26E0     	 b .L70
 1701              	.L69:
 407:../Dave/Generated/DAC/dac.c ****   }
 408:../Dave/Generated/DAC/dac.c ****   else
 409:../Dave/Generated/DAC/dac.c ****   {
 410:../Dave/Generated/DAC/dac.c ****     if(HandlePtr->dac_config_ptr->output_negation)
 1702              	 .loc 2 410 0
 1703 0084 7B68     	 ldr r3,[r7,#4]
 1704 0086 5B68     	 ldr r3,[r3,#4]
 1705 0088 DB78     	 ldrb r3,[r3,#3]
 1706 008a 03F01003 	 and r3,r3,#16
 1707 008e DBB2     	 uxtb r3,r3
 1708 0090 002B     	 cmp r3,#0
 1709 0092 03D0     	 beq .L71
 411:../Dave/Generated/DAC/dac.c ****     {
 412:../Dave/Generated/DAC/dac.c ****       /* compensation of inversion*/
 413:../Dave/Generated/DAC/dac.c ****       i_offset = -i_offset;
 1710              	 .loc 2 413 0
 1711 0094 BB8A     	 ldrh r3,[r7,#20]
 1712 0096 5B42     	 negs r3,r3
 1713 0098 9BB2     	 uxth r3,r3
 1714 009a BB82     	 strh r3,[r7,#20]
 1715              	.L71:
 414:../Dave/Generated/DAC/dac.c ****     }
 415:../Dave/Generated/DAC/dac.c ****     
 416:../Dave/Generated/DAC/dac.c ****     /* Convert int32_t to uint8_t */
 417:../Dave/Generated/DAC/dac.c ****     if(i_offset < 0)
 1716              	 .loc 2 417 0
 1717 009c B7F91430 	 ldrsh r3,[r7,#20]
 1718 00a0 002B     	 cmp r3,#0
 1719 00a2 07DA     	 bge .L72
 418:../Dave/Generated/DAC/dac.c ****     {
 419:../Dave/Generated/DAC/dac.c ****       i_offset = (0x100 + i_offset);
 1720              	 .loc 2 419 0
 1721 00a4 BB8A     	 ldrh r3,[r7,#20]
 1722 00a6 03F58073 	 add r3,r3,#256
 1723 00aa 9BB2     	 uxth r3,r3
 1724 00ac BB82     	 strh r3,[r7,#20]
 420:../Dave/Generated/DAC/dac.c ****       u_offset = (uint8_t)(i_offset);
 1725              	 .loc 2 420 0
 1726 00ae BB8A     	 ldrh r3,[r7,#20]
 1727 00b0 BB75     	 strb r3,[r7,#22]
 1728 00b2 01E0     	 b .L73
 1729              	.L72:
 421:../Dave/Generated/DAC/dac.c ****     }
 422:../Dave/Generated/DAC/dac.c ****     else
 423:../Dave/Generated/DAC/dac.c ****     {
 424:../Dave/Generated/DAC/dac.c ****       u_offset = (uint8_t)((uint8_t)(i_offset) & (uint8_t)0x0FF);
 1730              	 .loc 2 424 0
 1731 00b4 BB8A     	 ldrh r3,[r7,#20]
 1732 00b6 BB75     	 strb r3,[r7,#22]
 1733              	.L73:
 425:../Dave/Generated/DAC/dac.c ****     }
 426:../Dave/Generated/DAC/dac.c **** 
 427:../Dave/Generated/DAC/dac.c ****     XMC_DAC_CH_SetOutputOffset(HandlePtr->dac_module_ptr,HandlePtr->dac_ch,u_offset);
 1734              	 .loc 2 427 0
 1735 00b8 7B68     	 ldr r3,[r7,#4]
 1736 00ba 1968     	 ldr r1,[r3]
 1737 00bc 7B68     	 ldr r3,[r7,#4]
 1738 00be 93F82220 	 ldrb r2,[r3,#34]
 1739 00c2 BB7D     	 ldrb r3,[r7,#22]
 1740 00c4 0846     	 mov r0,r1
 1741 00c6 1146     	 mov r1,r2
 1742 00c8 1A46     	 mov r2,r3
 1743 00ca FFF7FEFF 	 bl XMC_DAC_CH_SetOutputOffset
 428:../Dave/Generated/DAC/dac.c ****     status = DAC_STATUS_SUCCESS;
 1744              	 .loc 2 428 0
 1745 00ce 0023     	 movs r3,#0
 1746 00d0 FB75     	 strb r3,[r7,#23]
 1747              	.L70:
 429:../Dave/Generated/DAC/dac.c ****   }
 430:../Dave/Generated/DAC/dac.c ****   return status;
 1748              	 .loc 2 430 0
 1749 00d2 FB7D     	 ldrb r3,[r7,#23]
 431:../Dave/Generated/DAC/dac.c **** }
 1750              	 .loc 2 431 0
 1751 00d4 1846     	 mov r0,r3
 1752 00d6 1837     	 adds r7,r7,#24
 1753              	.LCFI111:
 1754              	 .cfi_def_cfa_offset 8
 1755 00d8 BD46     	 mov sp,r7
 1756              	.LCFI112:
 1757              	 .cfi_def_cfa_register 13
 1758              	 
 1759 00da 80BD     	 pop {r7,pc}
 1760              	 .cfi_endproc
 1761              	.LFE195:
 1763              	 .section .text.DAC_SingleValue_SetValue_s16,"ax",%progbits
 1764              	 .align 2
 1765              	 .global DAC_SingleValue_SetValue_s16
 1766              	 .thumb
 1767              	 .thumb_func
 1769              	DAC_SingleValue_SetValue_s16:
 1770              	.LFB196:
 432:../Dave/Generated/DAC/dac.c **** 
 433:../Dave/Generated/DAC/dac.c **** /*
 434:../Dave/Generated/DAC/dac.c ****   * This API will set data value in Single Value Signed Mode.
 435:../Dave/Generated/DAC/dac.c **** */
 436:../Dave/Generated/DAC/dac.c **** DAC_STATUS_t DAC_SingleValue_SetValue_s16(const DAC_t * const HandlePtr,int16_t Data)
 437:../Dave/Generated/DAC/dac.c **** {
 1771              	 .loc 2 437 0
 1772              	 .cfi_startproc
 1773              	 
 1774              	 
 1775 0000 80B5     	 push {r7,lr}
 1776              	.LCFI113:
 1777              	 .cfi_def_cfa_offset 8
 1778              	 .cfi_offset 7,-8
 1779              	 .cfi_offset 14,-4
 1780 0002 84B0     	 sub sp,sp,#16
 1781              	.LCFI114:
 1782              	 .cfi_def_cfa_offset 24
 1783 0004 00AF     	 add r7,sp,#0
 1784              	.LCFI115:
 1785              	 .cfi_def_cfa_register 7
 1786 0006 7860     	 str r0,[r7,#4]
 1787 0008 0B46     	 mov r3,r1
 1788 000a 7B80     	 strh r3,[r7,#2]
 438:../Dave/Generated/DAC/dac.c ****   DAC_STATUS_t status;
 439:../Dave/Generated/DAC/dac.c ****   int16_t temp_data = 0;
 1789              	 .loc 2 439 0
 1790 000c 0023     	 movs r3,#0
 1791 000e BB81     	 strh r3,[r7,#12]
 440:../Dave/Generated/DAC/dac.c ****   if((DAC_DATA_VALUE_MAX_SIGN >= Data) && (DAC_DATA_VALUE_MIN_SIGN < Data))
 1792              	 .loc 2 440 0
 1793 0010 B7F90230 	 ldrsh r3,[r7,#2]
 1794 0014 B3F5006F 	 cmp r3,#2048
 1795 0018 1EDA     	 bge .L76
 1796              	 .loc 2 440 0 is_stmt 0 discriminator 1
 1797 001a B7F90230 	 ldrsh r3,[r7,#2]
 1798 001e 13F5006F 	 cmn r3,#2048
 1799 0022 19DD     	 ble .L76
 441:../Dave/Generated/DAC/dac.c ****   {
 442:../Dave/Generated/DAC/dac.c ****     if(Data < 0)
 1800              	 .loc 2 442 0 is_stmt 1
 1801 0024 B7F90230 	 ldrsh r3,[r7,#2]
 1802 0028 002B     	 cmp r3,#0
 1803 002a 05DA     	 bge .L77
 443:../Dave/Generated/DAC/dac.c ****     {
 444:../Dave/Generated/DAC/dac.c ****       temp_data = (0x1000 + Data);
 1804              	 .loc 2 444 0
 1805 002c 7B88     	 ldrh r3,[r7,#2]
 1806 002e 03F58053 	 add r3,r3,#4096
 1807 0032 9BB2     	 uxth r3,r3
 1808 0034 BB81     	 strh r3,[r7,#12]
 1809 0036 01E0     	 b .L78
 1810              	.L77:
 445:../Dave/Generated/DAC/dac.c ****     }
 446:../Dave/Generated/DAC/dac.c ****     else
 447:../Dave/Generated/DAC/dac.c ****     {
 448:../Dave/Generated/DAC/dac.c ****       temp_data = Data;
 1811              	 .loc 2 448 0
 1812 0038 7B88     	 ldrh r3,[r7,#2]
 1813 003a BB81     	 strh r3,[r7,#12]
 1814              	.L78:
 449:../Dave/Generated/DAC/dac.c ****     }
 450:../Dave/Generated/DAC/dac.c **** 
 451:../Dave/Generated/DAC/dac.c ****     /* Update Corresponding CH Data register */
 452:../Dave/Generated/DAC/dac.c ****     XMC_DAC_CH_Write(HandlePtr->dac_module_ptr,HandlePtr->dac_ch,(uint16_t)temp_data);
 1815              	 .loc 2 452 0
 1816 003c 7B68     	 ldr r3,[r7,#4]
 1817 003e 1968     	 ldr r1,[r3]
 1818 0040 7B68     	 ldr r3,[r7,#4]
 1819 0042 93F82220 	 ldrb r2,[r3,#34]
 1820 0046 BB89     	 ldrh r3,[r7,#12]
 1821 0048 0846     	 mov r0,r1
 1822 004a 1146     	 mov r1,r2
 1823 004c 1A46     	 mov r2,r3
 1824 004e FFF7FEFF 	 bl XMC_DAC_CH_Write
 453:../Dave/Generated/DAC/dac.c ****     status = DAC_STATUS_SUCCESS;
 1825              	 .loc 2 453 0
 1826 0052 0023     	 movs r3,#0
 1827 0054 FB73     	 strb r3,[r7,#15]
 1828 0056 01E0     	 b .L79
 1829              	.L76:
 454:../Dave/Generated/DAC/dac.c ****   }
 455:../Dave/Generated/DAC/dac.c ****   else
 456:../Dave/Generated/DAC/dac.c ****   {
 457:../Dave/Generated/DAC/dac.c ****     /* Data Values are out of range */
 458:../Dave/Generated/DAC/dac.c ****     status = DAC_STATUS_API_FAIL;
 1830              	 .loc 2 458 0
 1831 0058 0223     	 movs r3,#2
 1832 005a FB73     	 strb r3,[r7,#15]
 1833              	.L79:
 459:../Dave/Generated/DAC/dac.c ****   }
 460:../Dave/Generated/DAC/dac.c ****   return status;
 1834              	 .loc 2 460 0
 1835 005c FB7B     	 ldrb r3,[r7,#15]
 461:../Dave/Generated/DAC/dac.c **** }
 1836              	 .loc 2 461 0
 1837 005e 1846     	 mov r0,r3
 1838 0060 1037     	 adds r7,r7,#16
 1839              	.LCFI116:
 1840              	 .cfi_def_cfa_offset 8
 1841 0062 BD46     	 mov sp,r7
 1842              	.LCFI117:
 1843              	 .cfi_def_cfa_register 13
 1844              	 
 1845 0064 80BD     	 pop {r7,pc}
 1846              	 .cfi_endproc
 1847              	.LFE196:
 1849 0066 00BF     	 .section .text.DAC_SingleValue_SetValue_s16_Coupled,"ax",%progbits
 1850              	 .align 2
 1851              	 .global DAC_SingleValue_SetValue_s16_Coupled
 1852              	 .thumb
 1853              	 .thumb_func
 1855              	DAC_SingleValue_SetValue_s16_Coupled:
 1856              	.LFB197:
 462:../Dave/Generated/DAC/dac.c **** 
 463:../Dave/Generated/DAC/dac.c **** /*
 464:../Dave/Generated/DAC/dac.c ****   * This API will set data value in Single Value Signed Mode when couple mode is selected.
 465:../Dave/Generated/DAC/dac.c **** */
 466:../Dave/Generated/DAC/dac.c **** DAC_STATUS_t DAC_SingleValue_SetValue_s16_Coupled(const DAC_t * const HandlePtr,int16_t Data0, int1
 467:../Dave/Generated/DAC/dac.c **** {
 1857              	 .loc 2 467 0
 1858              	 .cfi_startproc
 1859              	 
 1860              	 
 1861 0000 80B5     	 push {r7,lr}
 1862              	.LCFI118:
 1863              	 .cfi_def_cfa_offset 8
 1864              	 .cfi_offset 7,-8
 1865              	 .cfi_offset 14,-4
 1866 0002 84B0     	 sub sp,sp,#16
 1867              	.LCFI119:
 1868              	 .cfi_def_cfa_offset 24
 1869 0004 00AF     	 add r7,sp,#0
 1870              	.LCFI120:
 1871              	 .cfi_def_cfa_register 7
 1872 0006 7860     	 str r0,[r7,#4]
 1873 0008 0B46     	 mov r3,r1
 1874 000a 7B80     	 strh r3,[r7,#2]
 1875 000c 1346     	 mov r3,r2
 1876 000e 3B80     	 strh r3,[r7]
 468:../Dave/Generated/DAC/dac.c ****   DAC_STATUS_t status;
 469:../Dave/Generated/DAC/dac.c ****   int16_t temp_data0,temp_data1 = 0;
 1877              	 .loc 2 469 0
 1878 0010 0023     	 movs r3,#0
 1879 0012 7B81     	 strh r3,[r7,#10]
 470:../Dave/Generated/DAC/dac.c ****   if((DAC_DATA_VALUE_MAX_SIGN >= Data0) && (DAC_DATA_VALUE_MAX_SIGN >= Data1) &&
 1880              	 .loc 2 470 0
 1881 0014 B7F90230 	 ldrsh r3,[r7,#2]
 1882 0018 B3F5006F 	 cmp r3,#2048
 1883 001c 32DA     	 bge .L82
 1884              	 .loc 2 470 0 is_stmt 0 discriminator 1
 1885 001e B7F90030 	 ldrsh r3,[r7]
 1886 0022 B3F5006F 	 cmp r3,#2048
 1887 0026 2DDA     	 bge .L82
 1888              	 .loc 2 470 0 discriminator 2
 1889 0028 B7F90230 	 ldrsh r3,[r7,#2]
 1890 002c 13F5006F 	 cmn r3,#2048
 1891 0030 28DD     	 ble .L82
 471:../Dave/Generated/DAC/dac.c ****      (DAC_DATA_VALUE_MIN_SIGN < Data0) && (DAC_DATA_VALUE_MIN_SIGN < Data1))
 1892              	 .loc 2 471 0 is_stmt 1
 1893 0032 B7F90030 	 ldrsh r3,[r7]
 1894 0036 13F5006F 	 cmn r3,#2048
 1895 003a 23DD     	 ble .L82
 472:../Dave/Generated/DAC/dac.c ****   {
 473:../Dave/Generated/DAC/dac.c ****     if(Data0 < 0)
 1896              	 .loc 2 473 0
 1897 003c B7F90230 	 ldrsh r3,[r7,#2]
 1898 0040 002B     	 cmp r3,#0
 1899 0042 05DA     	 bge .L83
 474:../Dave/Generated/DAC/dac.c ****     {
 475:../Dave/Generated/DAC/dac.c ****       temp_data0 = (0x1000 + Data0);
 1900              	 .loc 2 475 0
 1901 0044 7B88     	 ldrh r3,[r7,#2]
 1902 0046 03F58053 	 add r3,r3,#4096
 1903 004a 9BB2     	 uxth r3,r3
 1904 004c BB81     	 strh r3,[r7,#12]
 1905 004e 01E0     	 b .L84
 1906              	.L83:
 476:../Dave/Generated/DAC/dac.c ****     }
 477:../Dave/Generated/DAC/dac.c ****     else
 478:../Dave/Generated/DAC/dac.c ****     {
 479:../Dave/Generated/DAC/dac.c ****       temp_data0 = Data0;
 1907              	 .loc 2 479 0
 1908 0050 7B88     	 ldrh r3,[r7,#2]
 1909 0052 BB81     	 strh r3,[r7,#12]
 1910              	.L84:
 480:../Dave/Generated/DAC/dac.c ****     }
 481:../Dave/Generated/DAC/dac.c **** 
 482:../Dave/Generated/DAC/dac.c ****     if(Data1 < 0)
 1911              	 .loc 2 482 0
 1912 0054 B7F90030 	 ldrsh r3,[r7]
 1913 0058 002B     	 cmp r3,#0
 1914 005a 05DA     	 bge .L85
 483:../Dave/Generated/DAC/dac.c ****     {
 484:../Dave/Generated/DAC/dac.c ****       temp_data1 = (0x1000 + Data1);
 1915              	 .loc 2 484 0
 1916 005c 3B88     	 ldrh r3,[r7]
 1917 005e 03F58053 	 add r3,r3,#4096
 1918 0062 9BB2     	 uxth r3,r3
 1919 0064 7B81     	 strh r3,[r7,#10]
 1920 0066 01E0     	 b .L86
 1921              	.L85:
 485:../Dave/Generated/DAC/dac.c ****     }
 486:../Dave/Generated/DAC/dac.c ****     else
 487:../Dave/Generated/DAC/dac.c ****     {
 488:../Dave/Generated/DAC/dac.c ****       temp_data1 = Data1;
 1922              	 .loc 2 488 0
 1923 0068 3B88     	 ldrh r3,[r7]
 1924 006a 7B81     	 strh r3,[r7,#10]
 1925              	.L86:
 489:../Dave/Generated/DAC/dac.c ****     }
 490:../Dave/Generated/DAC/dac.c ****     XMC_DAC_SimultaneousWrite(HandlePtr->dac_module_ptr,(uint16_t)temp_data0,(uint16_t)temp_data1);
 1926              	 .loc 2 490 0
 1927 006c 7B68     	 ldr r3,[r7,#4]
 1928 006e 1968     	 ldr r1,[r3]
 1929 0070 BA89     	 ldrh r2,[r7,#12]
 1930 0072 7B89     	 ldrh r3,[r7,#10]
 1931 0074 0846     	 mov r0,r1
 1932 0076 1146     	 mov r1,r2
 1933 0078 1A46     	 mov r2,r3
 1934 007a FFF7FEFF 	 bl XMC_DAC_SimultaneousWrite
 491:../Dave/Generated/DAC/dac.c ****     status = DAC_STATUS_SUCCESS;
 1935              	 .loc 2 491 0
 1936 007e 0023     	 movs r3,#0
 1937 0080 FB73     	 strb r3,[r7,#15]
 1938 0082 01E0     	 b .L87
 1939              	.L82:
 492:../Dave/Generated/DAC/dac.c ****   }
 493:../Dave/Generated/DAC/dac.c ****   else
 494:../Dave/Generated/DAC/dac.c ****   {
 495:../Dave/Generated/DAC/dac.c ****     /* Data Values are out of range */
 496:../Dave/Generated/DAC/dac.c ****     status = DAC_STATUS_API_FAIL;
 1940              	 .loc 2 496 0
 1941 0084 0223     	 movs r3,#2
 1942 0086 FB73     	 strb r3,[r7,#15]
 1943              	.L87:
 497:../Dave/Generated/DAC/dac.c ****   }
 498:../Dave/Generated/DAC/dac.c ****   return status;
 1944              	 .loc 2 498 0
 1945 0088 FB7B     	 ldrb r3,[r7,#15]
 499:../Dave/Generated/DAC/dac.c **** }
 1946              	 .loc 2 499 0
 1947 008a 1846     	 mov r0,r3
 1948 008c 1037     	 adds r7,r7,#16
 1949              	.LCFI121:
 1950              	 .cfi_def_cfa_offset 8
 1951 008e BD46     	 mov sp,r7
 1952              	.LCFI122:
 1953              	 .cfi_def_cfa_register 13
 1954              	 
 1955 0090 80BD     	 pop {r7,pc}
 1956              	 .cfi_endproc
 1957              	.LFE197:
 1959 0092 00BF     	 .section .text.DAC_SingleValue_SetValue_u16,"ax",%progbits
 1960              	 .align 2
 1961              	 .global DAC_SingleValue_SetValue_u16
 1962              	 .thumb
 1963              	 .thumb_func
 1965              	DAC_SingleValue_SetValue_u16:
 1966              	.LFB198:
 500:../Dave/Generated/DAC/dac.c **** 
 501:../Dave/Generated/DAC/dac.c **** /*
 502:../Dave/Generated/DAC/dac.c ****   * This API will set data value in Single Value in Unsigned Mode.
 503:../Dave/Generated/DAC/dac.c **** */
 504:../Dave/Generated/DAC/dac.c **** DAC_STATUS_t DAC_SingleValue_SetValue_u16(const DAC_t * const HandlePtr,uint16_t Data)
 505:../Dave/Generated/DAC/dac.c **** {
 1967              	 .loc 2 505 0
 1968              	 .cfi_startproc
 1969              	 
 1970              	 
 1971 0000 80B5     	 push {r7,lr}
 1972              	.LCFI123:
 1973              	 .cfi_def_cfa_offset 8
 1974              	 .cfi_offset 7,-8
 1975              	 .cfi_offset 14,-4
 1976 0002 84B0     	 sub sp,sp,#16
 1977              	.LCFI124:
 1978              	 .cfi_def_cfa_offset 24
 1979 0004 00AF     	 add r7,sp,#0
 1980              	.LCFI125:
 1981              	 .cfi_def_cfa_register 7
 1982 0006 7860     	 str r0,[r7,#4]
 1983 0008 0B46     	 mov r3,r1
 1984 000a 7B80     	 strh r3,[r7,#2]
 506:../Dave/Generated/DAC/dac.c ****   DAC_STATUS_t status;
 507:../Dave/Generated/DAC/dac.c ****   if(DAC_DATA_VALUE_MAX_USIGN >= Data)
 1985              	 .loc 2 507 0
 1986 000c 7B88     	 ldrh r3,[r7,#2]
 1987 000e B3F5805F 	 cmp r3,#4096
 1988 0012 0DD2     	 bcs .L90
 508:../Dave/Generated/DAC/dac.c ****   {
 509:../Dave/Generated/DAC/dac.c ****     /* Update Corresponding CH Data register */
 510:../Dave/Generated/DAC/dac.c ****     XMC_DAC_CH_Write(HandlePtr->dac_module_ptr,HandlePtr->dac_ch,Data);
 1989              	 .loc 2 510 0
 1990 0014 7B68     	 ldr r3,[r7,#4]
 1991 0016 1968     	 ldr r1,[r3]
 1992 0018 7B68     	 ldr r3,[r7,#4]
 1993 001a 93F82220 	 ldrb r2,[r3,#34]
 1994 001e 7B88     	 ldrh r3,[r7,#2]
 1995 0020 0846     	 mov r0,r1
 1996 0022 1146     	 mov r1,r2
 1997 0024 1A46     	 mov r2,r3
 1998 0026 FFF7FEFF 	 bl XMC_DAC_CH_Write
 511:../Dave/Generated/DAC/dac.c ****     status = DAC_STATUS_SUCCESS;
 1999              	 .loc 2 511 0
 2000 002a 0023     	 movs r3,#0
 2001 002c FB73     	 strb r3,[r7,#15]
 2002 002e 01E0     	 b .L91
 2003              	.L90:
 512:../Dave/Generated/DAC/dac.c ****   }
 513:../Dave/Generated/DAC/dac.c ****   else
 514:../Dave/Generated/DAC/dac.c ****   {
 515:../Dave/Generated/DAC/dac.c ****     /* Data Values are out of range */
 516:../Dave/Generated/DAC/dac.c ****     status = DAC_STATUS_API_FAIL;
 2004              	 .loc 2 516 0
 2005 0030 0223     	 movs r3,#2
 2006 0032 FB73     	 strb r3,[r7,#15]
 2007              	.L91:
 517:../Dave/Generated/DAC/dac.c ****   }
 518:../Dave/Generated/DAC/dac.c ****   return status;
 2008              	 .loc 2 518 0
 2009 0034 FB7B     	 ldrb r3,[r7,#15]
 519:../Dave/Generated/DAC/dac.c **** }
 2010              	 .loc 2 519 0
 2011 0036 1846     	 mov r0,r3
 2012 0038 1037     	 adds r7,r7,#16
 2013              	.LCFI126:
 2014              	 .cfi_def_cfa_offset 8
 2015 003a BD46     	 mov sp,r7
 2016              	.LCFI127:
 2017              	 .cfi_def_cfa_register 13
 2018              	 
 2019 003c 80BD     	 pop {r7,pc}
 2020              	 .cfi_endproc
 2021              	.LFE198:
 2023 003e 00BF     	 .section .text.DAC_SingleValue_SetValue_u16_Coupled,"ax",%progbits
 2024              	 .align 2
 2025              	 .global DAC_SingleValue_SetValue_u16_Coupled
 2026              	 .thumb
 2027              	 .thumb_func
 2029              	DAC_SingleValue_SetValue_u16_Coupled:
 2030              	.LFB199:
 520:../Dave/Generated/DAC/dac.c **** 
 521:../Dave/Generated/DAC/dac.c **** /*
 522:../Dave/Generated/DAC/dac.c ****   * This API will set data value in Single Value in Unsigned Mode when couple mode is selected.
 523:../Dave/Generated/DAC/dac.c **** */
 524:../Dave/Generated/DAC/dac.c **** DAC_STATUS_t DAC_SingleValue_SetValue_u16_Coupled(const DAC_t * const HandlePtr,uint16_t Data0, uin
 525:../Dave/Generated/DAC/dac.c **** {
 2031              	 .loc 2 525 0
 2032              	 .cfi_startproc
 2033              	 
 2034              	 
 2035 0000 80B5     	 push {r7,lr}
 2036              	.LCFI128:
 2037              	 .cfi_def_cfa_offset 8
 2038              	 .cfi_offset 7,-8
 2039              	 .cfi_offset 14,-4
 2040 0002 84B0     	 sub sp,sp,#16
 2041              	.LCFI129:
 2042              	 .cfi_def_cfa_offset 24
 2043 0004 00AF     	 add r7,sp,#0
 2044              	.LCFI130:
 2045              	 .cfi_def_cfa_register 7
 2046 0006 7860     	 str r0,[r7,#4]
 2047 0008 0B46     	 mov r3,r1
 2048 000a 7B80     	 strh r3,[r7,#2]
 2049 000c 1346     	 mov r3,r2
 2050 000e 3B80     	 strh r3,[r7]
 526:../Dave/Generated/DAC/dac.c ****   DAC_STATUS_t status;
 527:../Dave/Generated/DAC/dac.c ****   if((DAC_DATA_VALUE_MAX_USIGN >= Data0) && (DAC_DATA_VALUE_MAX_USIGN >= Data1))
 2051              	 .loc 2 527 0
 2052 0010 7B88     	 ldrh r3,[r7,#2]
 2053 0012 B3F5805F 	 cmp r3,#4096
 2054 0016 0FD2     	 bcs .L94
 2055              	 .loc 2 527 0 is_stmt 0 discriminator 1
 2056 0018 3B88     	 ldrh r3,[r7]
 2057 001a B3F5805F 	 cmp r3,#4096
 2058 001e 0BD2     	 bcs .L94
 528:../Dave/Generated/DAC/dac.c ****   {
 529:../Dave/Generated/DAC/dac.c ****     /* Coupled Mode Enabled */
 530:../Dave/Generated/DAC/dac.c ****     XMC_DAC_SimultaneousWrite(HandlePtr->dac_module_ptr,Data0,Data1);
 2059              	 .loc 2 530 0 is_stmt 1
 2060 0020 7B68     	 ldr r3,[r7,#4]
 2061 0022 1968     	 ldr r1,[r3]
 2062 0024 7A88     	 ldrh r2,[r7,#2]
 2063 0026 3B88     	 ldrh r3,[r7]
 2064 0028 0846     	 mov r0,r1
 2065 002a 1146     	 mov r1,r2
 2066 002c 1A46     	 mov r2,r3
 2067 002e FFF7FEFF 	 bl XMC_DAC_SimultaneousWrite
 531:../Dave/Generated/DAC/dac.c ****     status = DAC_STATUS_SUCCESS;
 2068              	 .loc 2 531 0
 2069 0032 0023     	 movs r3,#0
 2070 0034 FB73     	 strb r3,[r7,#15]
 2071 0036 01E0     	 b .L95
 2072              	.L94:
 532:../Dave/Generated/DAC/dac.c ****   }
 533:../Dave/Generated/DAC/dac.c ****   else
 534:../Dave/Generated/DAC/dac.c ****   {
 535:../Dave/Generated/DAC/dac.c ****     /* Data Values are out of range */
 536:../Dave/Generated/DAC/dac.c ****     status = DAC_STATUS_API_FAIL;
 2073              	 .loc 2 536 0
 2074 0038 0223     	 movs r3,#2
 2075 003a FB73     	 strb r3,[r7,#15]
 2076              	.L95:
 537:../Dave/Generated/DAC/dac.c ****   }
 538:../Dave/Generated/DAC/dac.c ****   return status;
 2077              	 .loc 2 538 0
 2078 003c FB7B     	 ldrb r3,[r7,#15]
 539:../Dave/Generated/DAC/dac.c **** }
 2079              	 .loc 2 539 0
 2080 003e 1846     	 mov r0,r3
 2081 0040 1037     	 adds r7,r7,#16
 2082              	.LCFI131:
 2083              	 .cfi_def_cfa_offset 8
 2084 0042 BD46     	 mov sp,r7
 2085              	.LCFI132:
 2086              	 .cfi_def_cfa_register 13
 2087              	 
 2088 0044 80BD     	 pop {r7,pc}
 2089              	 .cfi_endproc
 2090              	.LFE199:
 2092 0046 00BF     	 .section .text.DAC_Ramp_SetStart,"ax",%progbits
 2093              	 .align 2
 2094              	 .global DAC_Ramp_SetStart
 2095              	 .thumb
 2096              	 .thumb_func
 2098              	DAC_Ramp_SetStart:
 2099              	.LFB200:
 540:../Dave/Generated/DAC/dac.c **** 
 541:../Dave/Generated/DAC/dac.c **** /*
 542:../Dave/Generated/DAC/dac.c ****   * This API will set Ramp Start in Ramp Mode.
 543:../Dave/Generated/DAC/dac.c **** */
 544:../Dave/Generated/DAC/dac.c **** DAC_STATUS_t DAC_Ramp_SetStart(DAC_t * const HandlePtr,uint16_t ramp_start_mv)
 545:../Dave/Generated/DAC/dac.c **** {
 2100              	 .loc 2 545 0
 2101              	 .cfi_startproc
 2102              	 
 2103              	 
 2104 0000 80B5     	 push {r7,lr}
 2105              	.LCFI133:
 2106              	 .cfi_def_cfa_offset 8
 2107              	 .cfi_offset 7,-8
 2108              	 .cfi_offset 14,-4
 2109 0002 84B0     	 sub sp,sp,#16
 2110              	.LCFI134:
 2111              	 .cfi_def_cfa_offset 24
 2112 0004 00AF     	 add r7,sp,#0
 2113              	.LCFI135:
 2114              	 .cfi_def_cfa_register 7
 2115 0006 7860     	 str r0,[r7,#4]
 2116 0008 0B46     	 mov r3,r1
 2117 000a 7B80     	 strh r3,[r7,#2]
 546:../Dave/Generated/DAC/dac.c ****   DAC_STATUS_t status = DAC_STATUS_SUCCESS;
 2118              	 .loc 2 546 0
 2119 000c 0023     	 movs r3,#0
 2120 000e FB73     	 strb r3,[r7,#15]
 547:../Dave/Generated/DAC/dac.c ****   uint16_t start_ramp,stop_ramp,temp;
 548:../Dave/Generated/DAC/dac.c **** 
 549:../Dave/Generated/DAC/dac.c ****   if((DAC_OUT_MAX_MV >= ramp_start_mv) && (DAC_OUT_MIN_MV <= ramp_start_mv))
 2121              	 .loc 2 549 0
 2122 0010 7B88     	 ldrh r3,[r7,#2]
 2123 0012 40F6C412 	 movw r2,#2500
 2124 0016 9342     	 cmp r3,r2
 2125 0018 00F2A080 	 bhi .L98
 2126              	 .loc 2 549 0 is_stmt 0 discriminator 1
 2127 001c 7B88     	 ldrh r3,[r7,#2]
 2128 001e B3F5967F 	 cmp r3,#300
 2129 0022 C0F09B80 	 bcc .L98
 550:../Dave/Generated/DAC/dac.c ****   {
 551:../Dave/Generated/DAC/dac.c ****     #if (UC_SERIES != XMC44)
 552:../Dave/Generated/DAC/dac.c ****       if(ramp_start_mv >= HandlePtr->dac_ramp_stop_mv)
 2130              	 .loc 2 552 0 is_stmt 1
 2131 0026 7B68     	 ldr r3,[r7,#4]
 2132 0028 DB8B     	 ldrh r3,[r3,#30]
 2133 002a 7A88     	 ldrh r2,[r7,#2]
 2134 002c 9A42     	 cmp r2,r3
 2135 002e 01D3     	 bcc .L99
 553:../Dave/Generated/DAC/dac.c ****       {
 554:../Dave/Generated/DAC/dac.c ****         /* Negative Ramp is not possible for other than XMC44 device */
 555:../Dave/Generated/DAC/dac.c ****         status = DAC_STATUS_API_FAIL;
 2136              	 .loc 2 555 0
 2137 0030 0223     	 movs r3,#2
 2138 0032 FB73     	 strb r3,[r7,#15]
 2139              	.L99:
 556:../Dave/Generated/DAC/dac.c ****       }
 557:../Dave/Generated/DAC/dac.c ****     if( status == DAC_STATUS_SUCCESS )
 2140              	 .loc 2 557 0
 2141 0034 FB7B     	 ldrb r3,[r7,#15]
 2142 0036 002B     	 cmp r3,#0
 2143 0038 40F08F80 	 bne .L100
 558:../Dave/Generated/DAC/dac.c ****     {
 559:../Dave/Generated/DAC/dac.c ****     #endif
 560:../Dave/Generated/DAC/dac.c ****       if(ramp_start_mv > HandlePtr->dac_ramp_stop_mv)
 2144              	 .loc 2 560 0
 2145 003c 7B68     	 ldr r3,[r7,#4]
 2146 003e DB8B     	 ldrh r3,[r3,#30]
 2147 0040 7A88     	 ldrh r2,[r7,#2]
 2148 0042 9A42     	 cmp r2,r3
 2149 0044 1AD9     	 bls .L101
 561:../Dave/Generated/DAC/dac.c ****       {
 562:../Dave/Generated/DAC/dac.c ****         start_ramp = (uint16_t)(((HandlePtr->dac_ramp_stop_mv - DAC_OUT_MIN_MV) * DAC_RAMP_MAX_STEP
 2150              	 .loc 2 562 0
 2151 0046 7B68     	 ldr r3,[r7,#4]
 2152 0048 DB8B     	 ldrh r3,[r3,#30]
 2153 004a 1A46     	 mov r2,r3
 2154 004c 1346     	 mov r3,r2
 2155 004e 1B03     	 lsls r3,r3,#12
 2156 0050 9A1A     	 subs r2,r3,r2
 2157 0052 464B     	 ldr r3,.L106
 2158 0054 1344     	 add r3,r3,r2
 2159 0056 DB08     	 lsrs r3,r3,#3
 2160 0058 454A     	 ldr r2,.L106+4
 2161 005a A2FB0323 	 umull r2,r3,r2,r3
 2162 005e 5B09     	 lsrs r3,r3,#5
 2163 0060 BB81     	 strh r3,[r7,#12]
 563:../Dave/Generated/DAC/dac.c ****         stop_ramp = (uint16_t)(((ramp_start_mv - DAC_OUT_MIN_MV) * DAC_RAMP_MAX_STEPS) / DAC_VSS_MA
 2164              	 .loc 2 563 0
 2165 0062 7A88     	 ldrh r2,[r7,#2]
 2166 0064 1346     	 mov r3,r2
 2167 0066 1B03     	 lsls r3,r3,#12
 2168 0068 9A1A     	 subs r2,r3,r2
 2169 006a 404B     	 ldr r3,.L106
 2170 006c 1344     	 add r3,r3,r2
 2171 006e DB08     	 lsrs r3,r3,#3
 2172 0070 3F4A     	 ldr r2,.L106+4
 2173 0072 A2FB0323 	 umull r2,r3,r2,r3
 2174 0076 5B09     	 lsrs r3,r3,#5
 2175 0078 7B81     	 strh r3,[r7,#10]
 2176 007a 19E0     	 b .L102
 2177              	.L101:
 564:../Dave/Generated/DAC/dac.c ****       }
 565:../Dave/Generated/DAC/dac.c ****       else
 566:../Dave/Generated/DAC/dac.c ****       {
 567:../Dave/Generated/DAC/dac.c ****         start_ramp = (uint16_t)(((ramp_start_mv - DAC_OUT_MIN_MV) * DAC_RAMP_MAX_STEPS) / DAC_VSS_M
 2178              	 .loc 2 567 0
 2179 007c 7A88     	 ldrh r2,[r7,#2]
 2180 007e 1346     	 mov r3,r2
 2181 0080 1B03     	 lsls r3,r3,#12
 2182 0082 9A1A     	 subs r2,r3,r2
 2183 0084 394B     	 ldr r3,.L106
 2184 0086 1344     	 add r3,r3,r2
 2185 0088 DB08     	 lsrs r3,r3,#3
 2186 008a 394A     	 ldr r2,.L106+4
 2187 008c A2FB0323 	 umull r2,r3,r2,r3
 2188 0090 5B09     	 lsrs r3,r3,#5
 2189 0092 BB81     	 strh r3,[r7,#12]
 568:../Dave/Generated/DAC/dac.c ****         stop_ramp = (uint16_t)(((HandlePtr->dac_ramp_stop_mv - DAC_OUT_MIN_MV) * DAC_RAMP_MAX_STEPS
 2190              	 .loc 2 568 0
 2191 0094 7B68     	 ldr r3,[r7,#4]
 2192 0096 DB8B     	 ldrh r3,[r3,#30]
 2193 0098 1A46     	 mov r2,r3
 2194 009a 1346     	 mov r3,r2
 2195 009c 1B03     	 lsls r3,r3,#12
 2196 009e 9A1A     	 subs r2,r3,r2
 2197 00a0 324B     	 ldr r3,.L106
 2198 00a2 1344     	 add r3,r3,r2
 2199 00a4 DB08     	 lsrs r3,r3,#3
 2200 00a6 324A     	 ldr r2,.L106+4
 2201 00a8 A2FB0323 	 umull r2,r3,r2,r3
 2202 00ac 5B09     	 lsrs r3,r3,#5
 2203 00ae 7B81     	 strh r3,[r7,#10]
 2204              	.L102:
 569:../Dave/Generated/DAC/dac.c ****       }
 570:../Dave/Generated/DAC/dac.c **** 
 571:../Dave/Generated/DAC/dac.c ****       HandlePtr->dac_ramp_start_mv = ramp_start_mv;
 2205              	 .loc 2 571 0
 2206 00b0 7B68     	 ldr r3,[r7,#4]
 2207 00b2 7A88     	 ldrh r2,[r7,#2]
 2208 00b4 9A83     	 strh r2,[r3,#28]
 572:../Dave/Generated/DAC/dac.c ****       if(HandlePtr->dac_ramp_start_mv > HandlePtr->dac_ramp_stop_mv)
 2209              	 .loc 2 572 0
 2210 00b6 7B68     	 ldr r3,[r7,#4]
 2211 00b8 9A8B     	 ldrh r2,[r3,#28]
 2212 00ba 7B68     	 ldr r3,[r7,#4]
 2213 00bc DB8B     	 ldrh r3,[r3,#30]
 2214 00be 9A42     	 cmp r2,r3
 2215 00c0 2BD9     	 bls .L103
 573:../Dave/Generated/DAC/dac.c ****       {
 574:../Dave/Generated/DAC/dac.c ****         /* Shift start/stop for negative ramp */
 575:../Dave/Generated/DAC/dac.c ****         temp = start_ramp;
 2216              	 .loc 2 575 0
 2217 00c2 BB89     	 ldrh r3,[r7,#12]
 2218 00c4 3B81     	 strh r3,[r7,#8]
 576:../Dave/Generated/DAC/dac.c ****         start_ramp = DAC_RAMP_MAX_STEPS - stop_ramp;
 2219              	 .loc 2 576 0
 2220 00c6 7B89     	 ldrh r3,[r7,#10]
 2221 00c8 C3F57F63 	 rsb r3,r3,#4080
 2222 00cc 0F33     	 adds r3,r3,#15
 2223 00ce BB81     	 strh r3,[r7,#12]
 577:../Dave/Generated/DAC/dac.c ****         stop_ramp  = DAC_RAMP_MAX_STEPS - temp;
 2224              	 .loc 2 577 0
 2225 00d0 3B89     	 ldrh r3,[r7,#8]
 2226 00d2 C3F57F63 	 rsb r3,r3,#4080
 2227 00d6 0F33     	 adds r3,r3,#15
 2228 00d8 7B81     	 strh r3,[r7,#10]
 578:../Dave/Generated/DAC/dac.c ****         XMC_DAC_CH_SetRampStop(HandlePtr->dac_module_ptr, HandlePtr->dac_ch, stop_ramp);
 2229              	 .loc 2 578 0
 2230 00da 7B68     	 ldr r3,[r7,#4]
 2231 00dc 1968     	 ldr r1,[r3]
 2232 00de 7B68     	 ldr r3,[r7,#4]
 2233 00e0 93F82220 	 ldrb r2,[r3,#34]
 2234 00e4 7B89     	 ldrh r3,[r7,#10]
 2235 00e6 0846     	 mov r0,r1
 2236 00e8 1146     	 mov r1,r2
 2237 00ea 1A46     	 mov r2,r3
 2238 00ec FFF7FEFF 	 bl XMC_DAC_CH_SetRampStop
 579:../Dave/Generated/DAC/dac.c ****         XMC_DAC_CH_SetRampStart(HandlePtr->dac_module_ptr, HandlePtr->dac_ch, start_ramp);
 2239              	 .loc 2 579 0
 2240 00f0 7B68     	 ldr r3,[r7,#4]
 2241 00f2 1968     	 ldr r1,[r3]
 2242 00f4 7B68     	 ldr r3,[r7,#4]
 2243 00f6 93F82220 	 ldrb r2,[r3,#34]
 2244 00fa BB89     	 ldrh r3,[r7,#12]
 2245 00fc 0846     	 mov r0,r1
 2246 00fe 1146     	 mov r1,r2
 2247 0100 1A46     	 mov r2,r3
 2248 0102 FFF7FEFF 	 bl XMC_DAC_CH_SetRampStart
 580:../Dave/Generated/DAC/dac.c ****         XMC_DAC_CH_EnableOutputNegation(HandlePtr->dac_module_ptr,HandlePtr->dac_ch);
 2249              	 .loc 2 580 0
 2250 0106 7B68     	 ldr r3,[r7,#4]
 2251 0108 1A68     	 ldr r2,[r3]
 2252 010a 7B68     	 ldr r3,[r7,#4]
 2253 010c 93F82230 	 ldrb r3,[r3,#34]
 2254 0110 1046     	 mov r0,r2
 2255 0112 1946     	 mov r1,r3
 2256 0114 FFF7FEFF 	 bl XMC_DAC_CH_EnableOutputNegation
 2257 0118 1FE0     	 b .L100
 2258              	.L103:
 581:../Dave/Generated/DAC/dac.c ****       }
 582:../Dave/Generated/DAC/dac.c ****       else
 583:../Dave/Generated/DAC/dac.c ****       {
 584:../Dave/Generated/DAC/dac.c ****         XMC_DAC_CH_DisableOutputNegation(HandlePtr->dac_module_ptr,HandlePtr->dac_ch);
 2259              	 .loc 2 584 0
 2260 011a 7B68     	 ldr r3,[r7,#4]
 2261 011c 1A68     	 ldr r2,[r3]
 2262 011e 7B68     	 ldr r3,[r7,#4]
 2263 0120 93F82230 	 ldrb r3,[r3,#34]
 2264 0124 1046     	 mov r0,r2
 2265 0126 1946     	 mov r1,r3
 2266 0128 FFF7FEFF 	 bl XMC_DAC_CH_DisableOutputNegation
 585:../Dave/Generated/DAC/dac.c ****         XMC_DAC_CH_SetRampStop(HandlePtr->dac_module_ptr, HandlePtr->dac_ch, stop_ramp);
 2267              	 .loc 2 585 0
 2268 012c 7B68     	 ldr r3,[r7,#4]
 2269 012e 1968     	 ldr r1,[r3]
 2270 0130 7B68     	 ldr r3,[r7,#4]
 2271 0132 93F82220 	 ldrb r2,[r3,#34]
 2272 0136 7B89     	 ldrh r3,[r7,#10]
 2273 0138 0846     	 mov r0,r1
 2274 013a 1146     	 mov r1,r2
 2275 013c 1A46     	 mov r2,r3
 2276 013e FFF7FEFF 	 bl XMC_DAC_CH_SetRampStop
 586:../Dave/Generated/DAC/dac.c ****         XMC_DAC_CH_SetRampStart(HandlePtr->dac_module_ptr, HandlePtr->dac_ch, start_ramp);
 2277              	 .loc 2 586 0
 2278 0142 7B68     	 ldr r3,[r7,#4]
 2279 0144 1968     	 ldr r1,[r3]
 2280 0146 7B68     	 ldr r3,[r7,#4]
 2281 0148 93F82220 	 ldrb r2,[r3,#34]
 2282 014c BB89     	 ldrh r3,[r7,#12]
 2283 014e 0846     	 mov r0,r1
 2284 0150 1146     	 mov r1,r2
 2285 0152 1A46     	 mov r2,r3
 2286 0154 FFF7FEFF 	 bl XMC_DAC_CH_SetRampStart
 557:../Dave/Generated/DAC/dac.c ****     {
 2287              	 .loc 2 557 0
 2288 0158 02E0     	 b .L104
 2289              	.L100:
 2290 015a 01E0     	 b .L104
 2291              	.L98:
 587:../Dave/Generated/DAC/dac.c ****       }
 588:../Dave/Generated/DAC/dac.c ****     #if(UC_SERIES != XMC44)
 589:../Dave/Generated/DAC/dac.c ****     }
 590:../Dave/Generated/DAC/dac.c ****     #endif
 591:../Dave/Generated/DAC/dac.c ****   }
 592:../Dave/Generated/DAC/dac.c ****   else
 593:../Dave/Generated/DAC/dac.c ****   {
 594:../Dave/Generated/DAC/dac.c ****     /* Ramp start Value is out of range */
 595:../Dave/Generated/DAC/dac.c ****     status = DAC_STATUS_API_FAIL;
 2292              	 .loc 2 595 0
 2293 015c 0223     	 movs r3,#2
 2294 015e FB73     	 strb r3,[r7,#15]
 2295              	.L104:
 596:../Dave/Generated/DAC/dac.c ****   }
 597:../Dave/Generated/DAC/dac.c ****   return status;
 2296              	 .loc 2 597 0
 2297 0160 FB7B     	 ldrb r3,[r7,#15]
 598:../Dave/Generated/DAC/dac.c **** }
 2298              	 .loc 2 598 0
 2299 0162 1846     	 mov r0,r3
 2300 0164 1037     	 adds r7,r7,#16
 2301              	.LCFI136:
 2302              	 .cfi_def_cfa_offset 8
 2303 0166 BD46     	 mov sp,r7
 2304              	.LCFI137:
 2305              	 .cfi_def_cfa_register 13
 2306              	 
 2307 0168 80BD     	 pop {r7,pc}
 2308              	.L107:
 2309 016a 00BF     	 .align 2
 2310              	.L106:
 2311 016c 2C41EDFF 	 .word -1228500
 2312 0170 DD01CA1D 	 .word 499778013
 2313              	 .cfi_endproc
 2314              	.LFE200:
 2316              	 .section .text.DAC_Ramp_SetStop,"ax",%progbits
 2317              	 .align 2
 2318              	 .global DAC_Ramp_SetStop
 2319              	 .thumb
 2320              	 .thumb_func
 2322              	DAC_Ramp_SetStop:
 2323              	.LFB201:
 599:../Dave/Generated/DAC/dac.c **** 
 600:../Dave/Generated/DAC/dac.c **** /*
 601:../Dave/Generated/DAC/dac.c ****   * This API will set Ramp Stop in Ramp Mode.
 602:../Dave/Generated/DAC/dac.c **** */
 603:../Dave/Generated/DAC/dac.c **** DAC_STATUS_t DAC_Ramp_SetStop(DAC_t * const HandlePtr,uint16_t ramp_stop_mv)
 604:../Dave/Generated/DAC/dac.c **** {
 2324              	 .loc 2 604 0
 2325              	 .cfi_startproc
 2326              	 
 2327              	 
 2328 0000 80B5     	 push {r7,lr}
 2329              	.LCFI138:
 2330              	 .cfi_def_cfa_offset 8
 2331              	 .cfi_offset 7,-8
 2332              	 .cfi_offset 14,-4
 2333 0002 84B0     	 sub sp,sp,#16
 2334              	.LCFI139:
 2335              	 .cfi_def_cfa_offset 24
 2336 0004 00AF     	 add r7,sp,#0
 2337              	.LCFI140:
 2338              	 .cfi_def_cfa_register 7
 2339 0006 7860     	 str r0,[r7,#4]
 2340 0008 0B46     	 mov r3,r1
 2341 000a 7B80     	 strh r3,[r7,#2]
 605:../Dave/Generated/DAC/dac.c ****   uint16_t start_ramp,stop_ramp,temp;
 606:../Dave/Generated/DAC/dac.c ****   DAC_STATUS_t status = DAC_STATUS_SUCCESS;
 2342              	 .loc 2 606 0
 2343 000c 0023     	 movs r3,#0
 2344 000e FB72     	 strb r3,[r7,#11]
 607:../Dave/Generated/DAC/dac.c **** 
 608:../Dave/Generated/DAC/dac.c ****   if((DAC_OUT_MAX_MV >= ramp_stop_mv)&&(DAC_OUT_MIN_MV <= ramp_stop_mv))
 2345              	 .loc 2 608 0
 2346 0010 7B88     	 ldrh r3,[r7,#2]
 2347 0012 40F6C412 	 movw r2,#2500
 2348 0016 9342     	 cmp r3,r2
 2349 0018 00F2A080 	 bhi .L109
 2350              	 .loc 2 608 0 is_stmt 0 discriminator 1
 2351 001c 7B88     	 ldrh r3,[r7,#2]
 2352 001e B3F5967F 	 cmp r3,#300
 2353 0022 C0F09B80 	 bcc .L109
 609:../Dave/Generated/DAC/dac.c ****   {
 610:../Dave/Generated/DAC/dac.c ****     #if (UC_SERIES != XMC44)
 611:../Dave/Generated/DAC/dac.c ****       if(ramp_stop_mv <= HandlePtr->dac_ramp_start_mv)
 2354              	 .loc 2 611 0 is_stmt 1
 2355 0026 7B68     	 ldr r3,[r7,#4]
 2356 0028 9B8B     	 ldrh r3,[r3,#28]
 2357 002a 7A88     	 ldrh r2,[r7,#2]
 2358 002c 9A42     	 cmp r2,r3
 2359 002e 01D8     	 bhi .L110
 612:../Dave/Generated/DAC/dac.c ****       {
 613:../Dave/Generated/DAC/dac.c ****         /* Negative Ramp is not possible for other than XMC44 device */
 614:../Dave/Generated/DAC/dac.c ****         status = DAC_STATUS_API_FAIL;
 2360              	 .loc 2 614 0
 2361 0030 0223     	 movs r3,#2
 2362 0032 FB72     	 strb r3,[r7,#11]
 2363              	.L110:
 615:../Dave/Generated/DAC/dac.c ****       }
 616:../Dave/Generated/DAC/dac.c ****     if( status == DAC_STATUS_SUCCESS )
 2364              	 .loc 2 616 0
 2365 0034 FB7A     	 ldrb r3,[r7,#11]
 2366 0036 002B     	 cmp r3,#0
 2367 0038 40F08F80 	 bne .L111
 617:../Dave/Generated/DAC/dac.c ****     {
 618:../Dave/Generated/DAC/dac.c ****     #endif
 619:../Dave/Generated/DAC/dac.c ****       if(HandlePtr->dac_ramp_start_mv > ramp_stop_mv)
 2368              	 .loc 2 619 0
 2369 003c 7B68     	 ldr r3,[r7,#4]
 2370 003e 9B8B     	 ldrh r3,[r3,#28]
 2371 0040 7A88     	 ldrh r2,[r7,#2]
 2372 0042 9A42     	 cmp r2,r3
 2373 0044 1AD2     	 bcs .L112
 620:../Dave/Generated/DAC/dac.c ****       {
 621:../Dave/Generated/DAC/dac.c ****         stop_ramp = (uint16_t)(((HandlePtr->dac_ramp_start_mv - DAC_OUT_MIN_MV) * DAC_RAMP_MAX_STEP
 2374              	 .loc 2 621 0
 2375 0046 7B68     	 ldr r3,[r7,#4]
 2376 0048 9B8B     	 ldrh r3,[r3,#28]
 2377 004a 1A46     	 mov r2,r3
 2378 004c 1346     	 mov r3,r2
 2379 004e 1B03     	 lsls r3,r3,#12
 2380 0050 9A1A     	 subs r2,r3,r2
 2381 0052 464B     	 ldr r3,.L117
 2382 0054 1344     	 add r3,r3,r2
 2383 0056 DB08     	 lsrs r3,r3,#3
 2384 0058 454A     	 ldr r2,.L117+4
 2385 005a A2FB0323 	 umull r2,r3,r2,r3
 2386 005e 5B09     	 lsrs r3,r3,#5
 2387 0060 BB81     	 strh r3,[r7,#12]
 622:../Dave/Generated/DAC/dac.c ****         start_ramp = (uint16_t)(((ramp_stop_mv - DAC_OUT_MIN_MV) * DAC_RAMP_MAX_STEPS) / DAC_VSS_MA
 2388              	 .loc 2 622 0
 2389 0062 7A88     	 ldrh r2,[r7,#2]
 2390 0064 1346     	 mov r3,r2
 2391 0066 1B03     	 lsls r3,r3,#12
 2392 0068 9A1A     	 subs r2,r3,r2
 2393 006a 404B     	 ldr r3,.L117
 2394 006c 1344     	 add r3,r3,r2
 2395 006e DB08     	 lsrs r3,r3,#3
 2396 0070 3F4A     	 ldr r2,.L117+4
 2397 0072 A2FB0323 	 umull r2,r3,r2,r3
 2398 0076 5B09     	 lsrs r3,r3,#5
 2399 0078 FB81     	 strh r3,[r7,#14]
 2400 007a 19E0     	 b .L113
 2401              	.L112:
 623:../Dave/Generated/DAC/dac.c ****       }
 624:../Dave/Generated/DAC/dac.c ****       else
 625:../Dave/Generated/DAC/dac.c ****       {
 626:../Dave/Generated/DAC/dac.c ****         stop_ramp = (uint16_t)(((ramp_stop_mv - DAC_OUT_MIN_MV) * DAC_RAMP_MAX_STEPS) / DAC_VSS_MAX
 2402              	 .loc 2 626 0
 2403 007c 7A88     	 ldrh r2,[r7,#2]
 2404 007e 1346     	 mov r3,r2
 2405 0080 1B03     	 lsls r3,r3,#12
 2406 0082 9A1A     	 subs r2,r3,r2
 2407 0084 394B     	 ldr r3,.L117
 2408 0086 1344     	 add r3,r3,r2
 2409 0088 DB08     	 lsrs r3,r3,#3
 2410 008a 394A     	 ldr r2,.L117+4
 2411 008c A2FB0323 	 umull r2,r3,r2,r3
 2412 0090 5B09     	 lsrs r3,r3,#5
 2413 0092 BB81     	 strh r3,[r7,#12]
 627:../Dave/Generated/DAC/dac.c ****         start_ramp = (uint16_t)(((HandlePtr->dac_ramp_start_mv - DAC_OUT_MIN_MV) * DAC_RAMP_MAX_STE
 2414              	 .loc 2 627 0
 2415 0094 7B68     	 ldr r3,[r7,#4]
 2416 0096 9B8B     	 ldrh r3,[r3,#28]
 2417 0098 1A46     	 mov r2,r3
 2418 009a 1346     	 mov r3,r2
 2419 009c 1B03     	 lsls r3,r3,#12
 2420 009e 9A1A     	 subs r2,r3,r2
 2421 00a0 324B     	 ldr r3,.L117
 2422 00a2 1344     	 add r3,r3,r2
 2423 00a4 DB08     	 lsrs r3,r3,#3
 2424 00a6 324A     	 ldr r2,.L117+4
 2425 00a8 A2FB0323 	 umull r2,r3,r2,r3
 2426 00ac 5B09     	 lsrs r3,r3,#5
 2427 00ae FB81     	 strh r3,[r7,#14]
 2428              	.L113:
 628:../Dave/Generated/DAC/dac.c ****       }
 629:../Dave/Generated/DAC/dac.c **** 
 630:../Dave/Generated/DAC/dac.c ****       HandlePtr->dac_ramp_stop_mv = ramp_stop_mv;
 2429              	 .loc 2 630 0
 2430 00b0 7B68     	 ldr r3,[r7,#4]
 2431 00b2 7A88     	 ldrh r2,[r7,#2]
 2432 00b4 DA83     	 strh r2,[r3,#30]
 631:../Dave/Generated/DAC/dac.c ****       if(HandlePtr->dac_ramp_start_mv > HandlePtr->dac_ramp_stop_mv)
 2433              	 .loc 2 631 0
 2434 00b6 7B68     	 ldr r3,[r7,#4]
 2435 00b8 9A8B     	 ldrh r2,[r3,#28]
 2436 00ba 7B68     	 ldr r3,[r7,#4]
 2437 00bc DB8B     	 ldrh r3,[r3,#30]
 2438 00be 9A42     	 cmp r2,r3
 2439 00c0 2BD9     	 bls .L114
 632:../Dave/Generated/DAC/dac.c ****       {
 633:../Dave/Generated/DAC/dac.c ****         /* Shift start/stop for negative ramp */
 634:../Dave/Generated/DAC/dac.c ****         temp = start_ramp;
 2440              	 .loc 2 634 0
 2441 00c2 FB89     	 ldrh r3,[r7,#14]
 2442 00c4 3B81     	 strh r3,[r7,#8]
 635:../Dave/Generated/DAC/dac.c ****         start_ramp = DAC_RAMP_MAX_STEPS - stop_ramp;
 2443              	 .loc 2 635 0
 2444 00c6 BB89     	 ldrh r3,[r7,#12]
 2445 00c8 C3F57F63 	 rsb r3,r3,#4080
 2446 00cc 0F33     	 adds r3,r3,#15
 2447 00ce FB81     	 strh r3,[r7,#14]
 636:../Dave/Generated/DAC/dac.c ****         stop_ramp  = DAC_RAMP_MAX_STEPS - temp;
 2448              	 .loc 2 636 0
 2449 00d0 3B89     	 ldrh r3,[r7,#8]
 2450 00d2 C3F57F63 	 rsb r3,r3,#4080
 2451 00d6 0F33     	 adds r3,r3,#15
 2452 00d8 BB81     	 strh r3,[r7,#12]
 637:../Dave/Generated/DAC/dac.c ****         XMC_DAC_CH_SetRampStart(HandlePtr->dac_module_ptr, HandlePtr->dac_ch, start_ramp);
 2453              	 .loc 2 637 0
 2454 00da 7B68     	 ldr r3,[r7,#4]
 2455 00dc 1968     	 ldr r1,[r3]
 2456 00de 7B68     	 ldr r3,[r7,#4]
 2457 00e0 93F82220 	 ldrb r2,[r3,#34]
 2458 00e4 FB89     	 ldrh r3,[r7,#14]
 2459 00e6 0846     	 mov r0,r1
 2460 00e8 1146     	 mov r1,r2
 2461 00ea 1A46     	 mov r2,r3
 2462 00ec FFF7FEFF 	 bl XMC_DAC_CH_SetRampStart
 638:../Dave/Generated/DAC/dac.c ****         XMC_DAC_CH_SetRampStop(HandlePtr->dac_module_ptr, HandlePtr->dac_ch, stop_ramp);
 2463              	 .loc 2 638 0
 2464 00f0 7B68     	 ldr r3,[r7,#4]
 2465 00f2 1968     	 ldr r1,[r3]
 2466 00f4 7B68     	 ldr r3,[r7,#4]
 2467 00f6 93F82220 	 ldrb r2,[r3,#34]
 2468 00fa BB89     	 ldrh r3,[r7,#12]
 2469 00fc 0846     	 mov r0,r1
 2470 00fe 1146     	 mov r1,r2
 2471 0100 1A46     	 mov r2,r3
 2472 0102 FFF7FEFF 	 bl XMC_DAC_CH_SetRampStop
 639:../Dave/Generated/DAC/dac.c ****         XMC_DAC_CH_EnableOutputNegation(HandlePtr->dac_module_ptr,HandlePtr->dac_ch);
 2473              	 .loc 2 639 0
 2474 0106 7B68     	 ldr r3,[r7,#4]
 2475 0108 1A68     	 ldr r2,[r3]
 2476 010a 7B68     	 ldr r3,[r7,#4]
 2477 010c 93F82230 	 ldrb r3,[r3,#34]
 2478 0110 1046     	 mov r0,r2
 2479 0112 1946     	 mov r1,r3
 2480 0114 FFF7FEFF 	 bl XMC_DAC_CH_EnableOutputNegation
 2481 0118 1FE0     	 b .L111
 2482              	.L114:
 640:../Dave/Generated/DAC/dac.c ****       }
 641:../Dave/Generated/DAC/dac.c ****       else
 642:../Dave/Generated/DAC/dac.c ****       {
 643:../Dave/Generated/DAC/dac.c ****         XMC_DAC_CH_DisableOutputNegation(HandlePtr->dac_module_ptr,HandlePtr->dac_ch);
 2483              	 .loc 2 643 0
 2484 011a 7B68     	 ldr r3,[r7,#4]
 2485 011c 1A68     	 ldr r2,[r3]
 2486 011e 7B68     	 ldr r3,[r7,#4]
 2487 0120 93F82230 	 ldrb r3,[r3,#34]
 2488 0124 1046     	 mov r0,r2
 2489 0126 1946     	 mov r1,r3
 2490 0128 FFF7FEFF 	 bl XMC_DAC_CH_DisableOutputNegation
 644:../Dave/Generated/DAC/dac.c ****         XMC_DAC_CH_SetRampStart(HandlePtr->dac_module_ptr, HandlePtr->dac_ch, start_ramp);
 2491              	 .loc 2 644 0
 2492 012c 7B68     	 ldr r3,[r7,#4]
 2493 012e 1968     	 ldr r1,[r3]
 2494 0130 7B68     	 ldr r3,[r7,#4]
 2495 0132 93F82220 	 ldrb r2,[r3,#34]
 2496 0136 FB89     	 ldrh r3,[r7,#14]
 2497 0138 0846     	 mov r0,r1
 2498 013a 1146     	 mov r1,r2
 2499 013c 1A46     	 mov r2,r3
 2500 013e FFF7FEFF 	 bl XMC_DAC_CH_SetRampStart
 645:../Dave/Generated/DAC/dac.c ****         XMC_DAC_CH_SetRampStop(HandlePtr->dac_module_ptr, HandlePtr->dac_ch, stop_ramp);
 2501              	 .loc 2 645 0
 2502 0142 7B68     	 ldr r3,[r7,#4]
 2503 0144 1968     	 ldr r1,[r3]
 2504 0146 7B68     	 ldr r3,[r7,#4]
 2505 0148 93F82220 	 ldrb r2,[r3,#34]
 2506 014c BB89     	 ldrh r3,[r7,#12]
 2507 014e 0846     	 mov r0,r1
 2508 0150 1146     	 mov r1,r2
 2509 0152 1A46     	 mov r2,r3
 2510 0154 FFF7FEFF 	 bl XMC_DAC_CH_SetRampStop
 616:../Dave/Generated/DAC/dac.c ****     {
 2511              	 .loc 2 616 0
 2512 0158 02E0     	 b .L115
 2513              	.L111:
 2514 015a 01E0     	 b .L115
 2515              	.L109:
 646:../Dave/Generated/DAC/dac.c ****       }
 647:../Dave/Generated/DAC/dac.c ****     #if(UC_SERIES != XMC44)
 648:../Dave/Generated/DAC/dac.c ****     }
 649:../Dave/Generated/DAC/dac.c ****     #endif
 650:../Dave/Generated/DAC/dac.c ****   }
 651:../Dave/Generated/DAC/dac.c ****   else
 652:../Dave/Generated/DAC/dac.c ****   {
 653:../Dave/Generated/DAC/dac.c ****     /* Ramp start Value is out of range */
 654:../Dave/Generated/DAC/dac.c ****     status = DAC_STATUS_API_FAIL;
 2516              	 .loc 2 654 0
 2517 015c 0223     	 movs r3,#2
 2518 015e FB72     	 strb r3,[r7,#11]
 2519              	.L115:
 655:../Dave/Generated/DAC/dac.c ****   }
 656:../Dave/Generated/DAC/dac.c ****   return status;
 2520              	 .loc 2 656 0
 2521 0160 FB7A     	 ldrb r3,[r7,#11]
 657:../Dave/Generated/DAC/dac.c **** }
 2522              	 .loc 2 657 0
 2523 0162 1846     	 mov r0,r3
 2524 0164 1037     	 adds r7,r7,#16
 2525              	.LCFI141:
 2526              	 .cfi_def_cfa_offset 8
 2527 0166 BD46     	 mov sp,r7
 2528              	.LCFI142:
 2529              	 .cfi_def_cfa_register 13
 2530              	 
 2531 0168 80BD     	 pop {r7,pc}
 2532              	.L118:
 2533 016a 00BF     	 .align 2
 2534              	.L117:
 2535 016c 2C41EDFF 	 .word -1228500
 2536 0170 DD01CA1D 	 .word 499778013
 2537              	 .cfi_endproc
 2538              	.LFE201:
 2540              	 .section .text.DAC_Ramp_SetFrequency,"ax",%progbits
 2541              	 .align 2
 2542              	 .global DAC_Ramp_SetFrequency
 2543              	 .thumb
 2544              	 .thumb_func
 2546              	DAC_Ramp_SetFrequency:
 2547              	.LFB202:
 658:../Dave/Generated/DAC/dac.c **** 
 659:../Dave/Generated/DAC/dac.c **** /*
 660:../Dave/Generated/DAC/dac.c ****  * This API will set Ramp frequency in Ramp Mode.
 661:../Dave/Generated/DAC/dac.c **** */
 662:../Dave/Generated/DAC/dac.c **** DAC_STATUS_t DAC_Ramp_SetFrequency(const DAC_t * const HandlePtr,uint32_t Frequency_Hz)
 663:../Dave/Generated/DAC/dac.c **** {
 2548              	 .loc 2 663 0
 2549              	 .cfi_startproc
 2550              	 
 2551              	 
 2552 0000 80B5     	 push {r7,lr}
 2553              	.LCFI143:
 2554              	 .cfi_def_cfa_offset 8
 2555              	 .cfi_offset 7,-8
 2556              	 .cfi_offset 14,-4
 2557 0002 86B0     	 sub sp,sp,#24
 2558              	.LCFI144:
 2559              	 .cfi_def_cfa_offset 32
 2560 0004 00AF     	 add r7,sp,#0
 2561              	.LCFI145:
 2562              	 .cfi_def_cfa_register 7
 2563 0006 7860     	 str r0,[r7,#4]
 2564 0008 3960     	 str r1,[r7]
 664:../Dave/Generated/DAC/dac.c ****   uint16_t start_ramp;
 665:../Dave/Generated/DAC/dac.c ****   uint16_t stop_ramp;
 666:../Dave/Generated/DAC/dac.c ****   uint32_t clk_divider = 0U;
 2565              	 .loc 2 666 0
 2566 000a 0023     	 movs r3,#0
 2567 000c 3B61     	 str r3,[r7,#16]
 667:../Dave/Generated/DAC/dac.c ****   uint16_t temp_steps;
 668:../Dave/Generated/DAC/dac.c ****   DAC_STATUS_t status = DAC_STATUS_SUCCESS;
 2568              	 .loc 2 668 0
 2569 000e 0023     	 movs r3,#0
 2570 0010 FB73     	 strb r3,[r7,#15]
 669:../Dave/Generated/DAC/dac.c ****   uint32_t temp_freq;
 670:../Dave/Generated/DAC/dac.c **** 
 671:../Dave/Generated/DAC/dac.c ****   if((HandlePtr->dac_input_trigger == XMC_DAC_CH_TRIGGER_INTERNAL) && (Frequency_Hz != 0U))
 2571              	 .loc 2 671 0
 2572 0012 7B68     	 ldr r3,[r7,#4]
 2573 0014 DB68     	 ldr r3,[r3,#12]
 2574 0016 002B     	 cmp r3,#0
 2575 0018 40F09C80 	 bne .L120
 2576              	 .loc 2 671 0 is_stmt 0 discriminator 1
 2577 001c 3B68     	 ldr r3,[r7]
 2578 001e 002B     	 cmp r3,#0
 2579 0020 00F09880 	 beq .L120
 672:../Dave/Generated/DAC/dac.c ****   {
 673:../Dave/Generated/DAC/dac.c ****     if(HandlePtr->dac_ramp_start_mv > HandlePtr->dac_ramp_stop_mv)
 2580              	 .loc 2 673 0 is_stmt 1
 2581 0024 7B68     	 ldr r3,[r7,#4]
 2582 0026 9A8B     	 ldrh r2,[r3,#28]
 2583 0028 7B68     	 ldr r3,[r7,#4]
 2584 002a DB8B     	 ldrh r3,[r3,#30]
 2585 002c 9A42     	 cmp r2,r3
 2586 002e 1CD9     	 bls .L121
 674:../Dave/Generated/DAC/dac.c ****     {
 675:../Dave/Generated/DAC/dac.c ****       start_ramp = (uint16_t)(((HandlePtr->dac_ramp_stop_mv - DAC_OUT_MIN_MV) * DAC_RAMP_MAX_STEPS)
 2587              	 .loc 2 675 0
 2588 0030 7B68     	 ldr r3,[r7,#4]
 2589 0032 DB8B     	 ldrh r3,[r3,#30]
 2590 0034 1A46     	 mov r2,r3
 2591 0036 1346     	 mov r3,r2
 2592 0038 1B03     	 lsls r3,r3,#12
 2593 003a 9A1A     	 subs r2,r3,r2
 2594 003c 494B     	 ldr r3,.L131
 2595 003e 1344     	 add r3,r3,r2
 2596 0040 DB08     	 lsrs r3,r3,#3
 2597 0042 494A     	 ldr r2,.L131+4
 2598 0044 A2FB0323 	 umull r2,r3,r2,r3
 2599 0048 5B09     	 lsrs r3,r3,#5
 2600 004a FB82     	 strh r3,[r7,#22]
 676:../Dave/Generated/DAC/dac.c ****       stop_ramp  = (uint16_t)(((HandlePtr->dac_ramp_start_mv - DAC_OUT_MIN_MV) * DAC_RAMP_MAX_STEPS
 2601              	 .loc 2 676 0
 2602 004c 7B68     	 ldr r3,[r7,#4]
 2603 004e 9B8B     	 ldrh r3,[r3,#28]
 2604 0050 1A46     	 mov r2,r3
 2605 0052 1346     	 mov r3,r2
 2606 0054 1B03     	 lsls r3,r3,#12
 2607 0056 9A1A     	 subs r2,r3,r2
 2608 0058 424B     	 ldr r3,.L131
 2609 005a 1344     	 add r3,r3,r2
 2610 005c DB08     	 lsrs r3,r3,#3
 2611 005e 424A     	 ldr r2,.L131+4
 2612 0060 A2FB0323 	 umull r2,r3,r2,r3
 2613 0064 5B09     	 lsrs r3,r3,#5
 2614 0066 BB82     	 strh r3,[r7,#20]
 2615 0068 1BE0     	 b .L122
 2616              	.L121:
 677:../Dave/Generated/DAC/dac.c ****     }
 678:../Dave/Generated/DAC/dac.c ****     else
 679:../Dave/Generated/DAC/dac.c ****     {
 680:../Dave/Generated/DAC/dac.c ****       start_ramp = (uint16_t)(((HandlePtr->dac_ramp_start_mv - DAC_OUT_MIN_MV) * DAC_RAMP_MAX_STEPS
 2617              	 .loc 2 680 0
 2618 006a 7B68     	 ldr r3,[r7,#4]
 2619 006c 9B8B     	 ldrh r3,[r3,#28]
 2620 006e 1A46     	 mov r2,r3
 2621 0070 1346     	 mov r3,r2
 2622 0072 1B03     	 lsls r3,r3,#12
 2623 0074 9A1A     	 subs r2,r3,r2
 2624 0076 3B4B     	 ldr r3,.L131
 2625 0078 1344     	 add r3,r3,r2
 2626 007a DB08     	 lsrs r3,r3,#3
 2627 007c 3A4A     	 ldr r2,.L131+4
 2628 007e A2FB0323 	 umull r2,r3,r2,r3
 2629 0082 5B09     	 lsrs r3,r3,#5
 2630 0084 FB82     	 strh r3,[r7,#22]
 681:../Dave/Generated/DAC/dac.c ****       stop_ramp  = (uint16_t)(((HandlePtr->dac_ramp_stop_mv - DAC_OUT_MIN_MV) * DAC_RAMP_MAX_STEPS)
 2631              	 .loc 2 681 0
 2632 0086 7B68     	 ldr r3,[r7,#4]
 2633 0088 DB8B     	 ldrh r3,[r3,#30]
 2634 008a 1A46     	 mov r2,r3
 2635 008c 1346     	 mov r3,r2
 2636 008e 1B03     	 lsls r3,r3,#12
 2637 0090 9A1A     	 subs r2,r3,r2
 2638 0092 344B     	 ldr r3,.L131
 2639 0094 1344     	 add r3,r3,r2
 2640 0096 DB08     	 lsrs r3,r3,#3
 2641 0098 334A     	 ldr r2,.L131+4
 2642 009a A2FB0323 	 umull r2,r3,r2,r3
 2643 009e 5B09     	 lsrs r3,r3,#5
 2644 00a0 BB82     	 strh r3,[r7,#20]
 2645              	.L122:
 682:../Dave/Generated/DAC/dac.c ****     }
 683:../Dave/Generated/DAC/dac.c **** 
 684:../Dave/Generated/DAC/dac.c ****     temp_steps = (uint16_t)((stop_ramp - start_ramp) + 1U);
 2646              	 .loc 2 684 0
 2647 00a2 BA8A     	 ldrh r2,[r7,#20]
 2648 00a4 FB8A     	 ldrh r3,[r7,#22]
 2649 00a6 D31A     	 subs r3,r2,r3
 2650 00a8 9BB2     	 uxth r3,r3
 2651 00aa 0133     	 adds r3,r3,#1
 2652 00ac BB81     	 strh r3,[r7,#12]
 685:../Dave/Generated/DAC/dac.c **** 
 686:../Dave/Generated/DAC/dac.c ****     if(stop_ramp == start_ramp)
 2653              	 .loc 2 686 0
 2654 00ae BA8A     	 ldrh r2,[r7,#20]
 2655 00b0 FB8A     	 ldrh r3,[r7,#22]
 2656 00b2 9A42     	 cmp r2,r3
 2657 00b4 02D1     	 bne .L123
 687:../Dave/Generated/DAC/dac.c ****     {
 688:../Dave/Generated/DAC/dac.c ****       status = DAC_STATUS_API_FAIL;
 2658              	 .loc 2 688 0
 2659 00b6 0223     	 movs r3,#2
 2660 00b8 FB73     	 strb r3,[r7,#15]
 2661 00ba 4AE0     	 b .L124
 2662              	.L123:
 689:../Dave/Generated/DAC/dac.c ****     }
 690:../Dave/Generated/DAC/dac.c ****     else
 691:../Dave/Generated/DAC/dac.c ****     {
 692:../Dave/Generated/DAC/dac.c ****       clk_divider = (uint32_t)(XMC_SCU_CLOCK_GetPeripheralClockFrequency() / (temp_steps * Frequenc
 2663              	 .loc 2 692 0
 2664 00bc FFF7FEFF 	 bl XMC_SCU_CLOCK_GetPeripheralClockFrequency
 2665 00c0 0146     	 mov r1,r0
 2666 00c2 BB89     	 ldrh r3,[r7,#12]
 2667 00c4 3A68     	 ldr r2,[r7]
 2668 00c6 02FB03F3 	 mul r3,r2,r3
 2669 00ca B1FBF3F3 	 udiv r3,r1,r3
 2670 00ce 3B61     	 str r3,[r7,#16]
 693:../Dave/Generated/DAC/dac.c ****       if(clk_divider == 0U)
 2671              	 .loc 2 693 0
 2672 00d0 3B69     	 ldr r3,[r7,#16]
 2673 00d2 002B     	 cmp r3,#0
 2674 00d4 01D1     	 bne .L125
 694:../Dave/Generated/DAC/dac.c ****       {
 695:../Dave/Generated/DAC/dac.c ****         clk_divider = 1U;
 2675              	 .loc 2 695 0
 2676 00d6 0123     	 movs r3,#1
 2677 00d8 3B61     	 str r3,[r7,#16]
 2678              	.L125:
 696:../Dave/Generated/DAC/dac.c ****       }
 697:../Dave/Generated/DAC/dac.c ****       temp_freq = (uint32_t)(XMC_SCU_CLOCK_GetPeripheralClockFrequency()/clk_divider);
 2679              	 .loc 2 697 0
 2680 00da FFF7FEFF 	 bl XMC_SCU_CLOCK_GetPeripheralClockFrequency
 2681 00de 0246     	 mov r2,r0
 2682 00e0 3B69     	 ldr r3,[r7,#16]
 2683 00e2 B2FBF3F3 	 udiv r3,r2,r3
 2684 00e6 BB60     	 str r3,[r7,#8]
 698:../Dave/Generated/DAC/dac.c **** 
 699:../Dave/Generated/DAC/dac.c ****       if(clk_divider <= DAC_MAX_CLK_DIV)
 2685              	 .loc 2 699 0
 2686 00e8 3B69     	 ldr r3,[r7,#16]
 2687 00ea B3F5801F 	 cmp r3,#1048576
 2688 00ee 25D2     	 bcs .L126
 700:../Dave/Generated/DAC/dac.c ****       {
 701:../Dave/Generated/DAC/dac.c ****         if( temp_freq > DAC_MAX_FREQUENCY)
 2689              	 .loc 2 701 0
 2690 00f0 BB68     	 ldr r3,[r7,#8]
 2691 00f2 1E4A     	 ldr r2,.L131+8
 2692 00f4 9342     	 cmp r3,r2
 2693 00f6 0AD9     	 bls .L127
 702:../Dave/Generated/DAC/dac.c ****         {
 703:../Dave/Generated/DAC/dac.c ****           /* Up-scaling is required to configure required frequency */
 704:../Dave/Generated/DAC/dac.c ****           status = DAC_Ramp_ScaleUp(HandlePtr,start_ramp,stop_ramp,Frequency_Hz);
 2694              	 .loc 2 704 0
 2695 00f8 FA8A     	 ldrh r2,[r7,#22]
 2696 00fa BB8A     	 ldrh r3,[r7,#20]
 2697 00fc 7868     	 ldr r0,[r7,#4]
 2698 00fe 1146     	 mov r1,r2
 2699 0100 1A46     	 mov r2,r3
 2700 0102 3B68     	 ldr r3,[r7]
 2701 0104 FFF7FEFF 	 bl DAC_Ramp_ScaleUp
 2702 0108 0346     	 mov r3,r0
 2703 010a FB73     	 strb r3,[r7,#15]
 2704 010c 21E0     	 b .L124
 2705              	.L127:
 705:../Dave/Generated/DAC/dac.c ****         }
 706:../Dave/Generated/DAC/dac.c ****         else
 707:../Dave/Generated/DAC/dac.c ****         {
 708:../Dave/Generated/DAC/dac.c ****           /* No need of scaling */
 709:../Dave/Generated/DAC/dac.c ****           XMC_DAC_CH_SetOutputScale(HandlePtr->dac_module_ptr,HandlePtr->dac_ch,XMC_DAC_CH_OUTPUT_S
 2706              	 .loc 2 709 0
 2707 010e 7B68     	 ldr r3,[r7,#4]
 2708 0110 1A68     	 ldr r2,[r3]
 2709 0112 7B68     	 ldr r3,[r7,#4]
 2710 0114 93F82230 	 ldrb r3,[r3,#34]
 2711 0118 1046     	 mov r0,r2
 2712 011a 1946     	 mov r1,r3
 2713 011c 0022     	 movs r2,#0
 2714 011e FFF7FEFF 	 bl XMC_DAC_CH_SetOutputScale
 710:../Dave/Generated/DAC/dac.c ****           status = (DAC_STATUS_t)XMC_DAC_CH_SetFrequency(HandlePtr->dac_module_ptr,HandlePtr->dac_c
 2715              	 .loc 2 710 0
 2716 0122 7B68     	 ldr r3,[r7,#4]
 2717 0124 1A68     	 ldr r2,[r3]
 2718 0126 7B68     	 ldr r3,[r7,#4]
 2719 0128 93F82230 	 ldrb r3,[r3,#34]
 2720 012c 1046     	 mov r0,r2
 2721 012e 1946     	 mov r1,r3
 2722 0130 BA68     	 ldr r2,[r7,#8]
 2723 0132 FFF7FEFF 	 bl XMC_DAC_CH_SetFrequency
 2724 0136 0346     	 mov r3,r0
 2725 0138 FB73     	 strb r3,[r7,#15]
 686:../Dave/Generated/DAC/dac.c ****     {
 2726              	 .loc 2 686 0
 2727 013a 0DE0     	 b .L129
 2728              	.L126:
 711:../Dave/Generated/DAC/dac.c ****         }
 712:../Dave/Generated/DAC/dac.c ****       }
 713:../Dave/Generated/DAC/dac.c ****       else
 714:../Dave/Generated/DAC/dac.c ****       {
 715:../Dave/Generated/DAC/dac.c ****         /* Down-scaling is required to configure required frequency */
 716:../Dave/Generated/DAC/dac.c ****         status = DAC_Ramp_ScaleDown(HandlePtr,start_ramp,stop_ramp,Frequency_Hz);
 2729              	 .loc 2 716 0
 2730 013c FA8A     	 ldrh r2,[r7,#22]
 2731 013e BB8A     	 ldrh r3,[r7,#20]
 2732 0140 7868     	 ldr r0,[r7,#4]
 2733 0142 1146     	 mov r1,r2
 2734 0144 1A46     	 mov r2,r3
 2735 0146 3B68     	 ldr r3,[r7]
 2736 0148 FFF7FEFF 	 bl DAC_Ramp_ScaleDown
 2737 014c 0346     	 mov r3,r0
 2738 014e FB73     	 strb r3,[r7,#15]
 686:../Dave/Generated/DAC/dac.c ****     {
 2739              	 .loc 2 686 0
 2740 0150 02E0     	 b .L129
 2741              	.L124:
 686:../Dave/Generated/DAC/dac.c ****     {
 2742              	 .loc 2 686 0 is_stmt 0 discriminator 1
 2743 0152 01E0     	 b .L129
 2744              	.L120:
 717:../Dave/Generated/DAC/dac.c ****       }
 718:../Dave/Generated/DAC/dac.c ****     }
 719:../Dave/Generated/DAC/dac.c ****   }
 720:../Dave/Generated/DAC/dac.c ****   else
 721:../Dave/Generated/DAC/dac.c ****   {
 722:../Dave/Generated/DAC/dac.c ****     status = DAC_STATUS_API_FAIL;
 2745              	 .loc 2 722 0 is_stmt 1
 2746 0154 0223     	 movs r3,#2
 2747 0156 FB73     	 strb r3,[r7,#15]
 2748              	.L129:
 723:../Dave/Generated/DAC/dac.c ****   }
 724:../Dave/Generated/DAC/dac.c ****   return status;
 2749              	 .loc 2 724 0
 2750 0158 FB7B     	 ldrb r3,[r7,#15]
 725:../Dave/Generated/DAC/dac.c ****  }
 2751              	 .loc 2 725 0
 2752 015a 1846     	 mov r0,r3
 2753 015c 1837     	 adds r7,r7,#24
 2754              	.LCFI146:
 2755              	 .cfi_def_cfa_offset 8
 2756 015e BD46     	 mov sp,r7
 2757              	.LCFI147:
 2758              	 .cfi_def_cfa_register 13
 2759              	 
 2760 0160 80BD     	 pop {r7,pc}
 2761              	.L132:
 2762 0162 00BF     	 .align 2
 2763              	.L131:
 2764 0164 2C41EDFF 	 .word -1228500
 2765 0168 DD01CA1D 	 .word 499778013
 2766 016c 80841E00 	 .word 2000000
 2767              	 .cfi_endproc
 2768              	.LFE202:
 2770              	 .section .text.DAC_Noise_SetAmplitude,"ax",%progbits
 2771              	 .align 2
 2772              	 .global DAC_Noise_SetAmplitude
 2773              	 .thumb
 2774              	 .thumb_func
 2776              	DAC_Noise_SetAmplitude:
 2777              	.LFB203:
 726:../Dave/Generated/DAC/dac.c **** 
 727:../Dave/Generated/DAC/dac.c **** /*
 728:../Dave/Generated/DAC/dac.c ****   * This API will set the amplitude in Noise Mode.
 729:../Dave/Generated/DAC/dac.c **** */
 730:../Dave/Generated/DAC/dac.c **** DAC_STATUS_t DAC_Noise_SetAmplitude(const DAC_t * const HandlePtr,DAC_VSS_t Amplitude)
 731:../Dave/Generated/DAC/dac.c **** {
 2778              	 .loc 2 731 0
 2779              	 .cfi_startproc
 2780              	 
 2781              	 
 2782 0000 80B5     	 push {r7,lr}
 2783              	.LCFI148:
 2784              	 .cfi_def_cfa_offset 8
 2785              	 .cfi_offset 7,-8
 2786              	 .cfi_offset 14,-4
 2787 0002 84B0     	 sub sp,sp,#16
 2788              	.LCFI149:
 2789              	 .cfi_def_cfa_offset 24
 2790 0004 00AF     	 add r7,sp,#0
 2791              	.LCFI150:
 2792              	 .cfi_def_cfa_register 7
 2793 0006 7860     	 str r0,[r7,#4]
 2794 0008 0B46     	 mov r3,r1
 2795 000a FB70     	 strb r3,[r7,#3]
 732:../Dave/Generated/DAC/dac.c ****   DAC_STATUS_t status = DAC_STATUS_SUCCESS;
 2796              	 .loc 2 732 0
 2797 000c 0023     	 movs r3,#0
 2798 000e FB73     	 strb r3,[r7,#15]
 733:../Dave/Generated/DAC/dac.c ****   XMC_DAC_CH_OUTPUT_SCALE_t scale;
 734:../Dave/Generated/DAC/dac.c **** 
 735:../Dave/Generated/DAC/dac.c ****   /* Check if Amplitude is configurable */
 736:../Dave/Generated/DAC/dac.c ****   if(DAC_VSS_0017_mV <= Amplitude)
 2799              	 .loc 2 736 0
 2800 0010 FB78     	 ldrb r3,[r7,#3]
 2801 0012 032B     	 cmp r3,#3
 2802 0014 15D9     	 bls .L134
 737:../Dave/Generated/DAC/dac.c ****   {
 738:../Dave/Generated/DAC/dac.c ****     if(Amplitude == DAC_VSS_2200_mV)
 2803              	 .loc 2 738 0
 2804 0016 FB78     	 ldrb r3,[r7,#3]
 2805 0018 0B2B     	 cmp r3,#11
 2806 001a 02D1     	 bne .L135
 739:../Dave/Generated/DAC/dac.c ****     {
 740:../Dave/Generated/DAC/dac.c ****       /* Scale not required */
 741:../Dave/Generated/DAC/dac.c ****       scale = XMC_DAC_CH_OUTPUT_SCALE_NONE;
 2807              	 .loc 2 741 0
 2808 001c 0023     	 movs r3,#0
 2809 001e BB73     	 strb r3,[r7,#14]
 2810 0020 03E0     	 b .L136
 2811              	.L135:
 742:../Dave/Generated/DAC/dac.c ****     }
 743:../Dave/Generated/DAC/dac.c ****     else
 744:../Dave/Generated/DAC/dac.c ****     {
 745:../Dave/Generated/DAC/dac.c ****       scale = (XMC_DAC_CH_OUTPUT_SCALE_t)((uint32_t)XMC_DAC_CH_OUTPUT_SCALE_DIV_128 +
 2812              	 .loc 2 745 0
 2813 0022 FB78     	 ldrb r3,[r7,#3]
 2814 0024 C3F10B03 	 rsb r3,r3,#11
 2815 0028 BB73     	 strb r3,[r7,#14]
 2816              	.L136:
 746:../Dave/Generated/DAC/dac.c ****                                    ((uint32_t)DAC_VSS_0017_mV - (uint32_t)Amplitude));
 747:../Dave/Generated/DAC/dac.c ****     }
 748:../Dave/Generated/DAC/dac.c ****     XMC_DAC_CH_SetOutputScale(HandlePtr->dac_module_ptr,HandlePtr->dac_ch, scale);
 2817              	 .loc 2 748 0
 2818 002a 7B68     	 ldr r3,[r7,#4]
 2819 002c 1968     	 ldr r1,[r3]
 2820 002e 7B68     	 ldr r3,[r7,#4]
 2821 0030 93F82220 	 ldrb r2,[r3,#34]
 2822 0034 BB7B     	 ldrb r3,[r7,#14]
 2823 0036 0846     	 mov r0,r1
 2824 0038 1146     	 mov r1,r2
 2825 003a 1A46     	 mov r2,r3
 2826 003c FFF7FEFF 	 bl XMC_DAC_CH_SetOutputScale
 2827 0040 01E0     	 b .L137
 2828              	.L134:
 749:../Dave/Generated/DAC/dac.c ****   }
 750:../Dave/Generated/DAC/dac.c ****   else
 751:../Dave/Generated/DAC/dac.c ****   {
 752:../Dave/Generated/DAC/dac.c ****     /* Amplitude can't be configurable */
 753:../Dave/Generated/DAC/dac.c ****     status = DAC_STATUS_API_FAIL;
 2829              	 .loc 2 753 0
 2830 0042 0223     	 movs r3,#2
 2831 0044 FB73     	 strb r3,[r7,#15]
 2832              	.L137:
 754:../Dave/Generated/DAC/dac.c ****   }
 755:../Dave/Generated/DAC/dac.c ****   return status;
 2833              	 .loc 2 755 0
 2834 0046 FB7B     	 ldrb r3,[r7,#15]
 756:../Dave/Generated/DAC/dac.c **** }
 2835              	 .loc 2 756 0
 2836 0048 1846     	 mov r0,r3
 2837 004a 1037     	 adds r7,r7,#16
 2838              	.LCFI151:
 2839              	 .cfi_def_cfa_offset 8
 2840 004c BD46     	 mov sp,r7
 2841              	.LCFI152:
 2842              	 .cfi_def_cfa_register 13
 2843              	 
 2844 004e 80BD     	 pop {r7,pc}
 2845              	 .cfi_endproc
 2846              	.LFE203:
 2848              	 .text
 2849              	.Letext0:
 2850              	 .file 3 "c:\\davev4-64bit\\dave-4.2.6\\eclipse\\arm-gcc-49\\arm-none-eabi\\include\\machine\\_default_types.h"
 2851              	 .file 4 "c:\\davev4-64bit\\dave-4.2.6\\eclipse\\arm-gcc-49\\arm-none-eabi\\include\\stdint.h"
 2852              	 .file 5 "C:\\Users\\Depes Crystalline\\Desktop\\school\\Active_Bike_Lighting_System\\Radar_Core\\Dave\\Generated/DAVE_common.h"
 2853              	 .file 6 "../Dave/Generated/DAC/dac.h"
 2854              	 .file 7 "C:\\Users\\Depes Crystalline\\Desktop\\school\\Active_Bike_Lighting_System\\Radar_Core/Libraries/CMSIS/Include/core_cm4.h"
 2855              	 .file 8 "C:\\Users\\Depes Crystalline\\Desktop\\school\\Active_Bike_Lighting_System\\Radar_Core/Libraries/CMSIS/Infineon/XMC4200_series/Include/system_XMC4200.h"
DEFINED SYMBOLS
                            *ABS*:00000000 dac.c
    {standard input}:19     .text.XMC_DAC_EnableSimultaneousDataMode:00000000 $t
    {standard input}:23     .text.XMC_DAC_EnableSimultaneousDataMode:00000000 XMC_DAC_EnableSimultaneousDataMode
    {standard input}:65     .text.XMC_DAC_SimultaneousWrite:00000000 $t
    {standard input}:69     .text.XMC_DAC_SimultaneousWrite:00000000 XMC_DAC_SimultaneousWrite
    {standard input}:116    .text.XMC_DAC_CH_Write:00000000 $t
    {standard input}:120    .text.XMC_DAC_CH_Write:00000000 XMC_DAC_CH_Write
    {standard input}:167    .text.XMC_DAC_CH_SetRampStart:00000000 $t
    {standard input}:171    .text.XMC_DAC_CH_SetRampStart:00000000 XMC_DAC_CH_SetRampStart
    {standard input}:218    .text.XMC_DAC_CH_SetRampStop:00000000 $t
    {standard input}:222    .text.XMC_DAC_CH_SetRampStop:00000000 XMC_DAC_CH_SetRampStop
    {standard input}:280    .text.XMC_DAC_CH_SetMode:00000000 $t
    {standard input}:284    .text.XMC_DAC_CH_SetMode:00000000 XMC_DAC_CH_SetMode
    {standard input}:336    .text.XMC_DAC_CH_EnableEvent:00000000 $t
    {standard input}:340    .text.XMC_DAC_CH_EnableEvent:00000000 XMC_DAC_CH_EnableEvent
    {standard input}:389    .text.XMC_DAC_CH_SetOutputOffset:00000000 $t
    {standard input}:393    .text.XMC_DAC_CH_SetOutputOffset:00000000 XMC_DAC_CH_SetOutputOffset
    {standard input}:449    .text.XMC_DAC_CH_SetOutputScale:00000000 $t
    {standard input}:453    .text.XMC_DAC_CH_SetOutputScale:00000000 XMC_DAC_CH_SetOutputScale
    {standard input}:506    .text.XMC_DAC_CH_GetOutputScale:00000000 $t
    {standard input}:510    .text.XMC_DAC_CH_GetOutputScale:00000000 XMC_DAC_CH_GetOutputScale
    {standard input}:557    .text.XMC_DAC_CH_EnableOutputNegation:00000000 $t
    {standard input}:561    .text.XMC_DAC_CH_EnableOutputNegation:00000000 XMC_DAC_CH_EnableOutputNegation
    {standard input}:610    .text.XMC_DAC_CH_DisableOutputNegation:00000000 $t
    {standard input}:614    .text.XMC_DAC_CH_DisableOutputNegation:00000000 XMC_DAC_CH_DisableOutputNegation
    {standard input}:663    .text.DAC_Ramp_ScaleUp:00000000 $t
    {standard input}:668    .text.DAC_Ramp_ScaleUp:00000000 DAC_Ramp_ScaleUp
    {standard input}:1089   .text.DAC_Ramp_StartStopConfigure:00000000 DAC_Ramp_StartStopConfigure
    {standard input}:864    .text.DAC_Ramp_ScaleUp:00000134 $d
    {standard input}:869    .text.DAC_Ramp_ScaleDown:00000000 $t
    {standard input}:874    .text.DAC_Ramp_ScaleDown:00000000 DAC_Ramp_ScaleDown
    {standard input}:1084   .text.DAC_Ramp_StartStopConfigure:00000000 $t
    {standard input}:1183   .text.DAC_ModeConfig:00000000 $t
    {standard input}:1188   .text.DAC_ModeConfig:00000000 DAC_ModeConfig
    {standard input}:1388   .text.DAC_GetAppVersion:00000000 $t
    {standard input}:1393   .text.DAC_GetAppVersion:00000000 DAC_GetAppVersion
    {standard input}:1453   .text.DAC_Init:00000000 $t
    {standard input}:1458   .text.DAC_Init:00000000 DAC_Init
    {standard input}:1545   .text.DAC_Pattern_SetAmplitude:00000000 $t
    {standard input}:1550   .text.DAC_Pattern_SetAmplitude:00000000 DAC_Pattern_SetAmplitude
    {standard input}:1617   .text.DAC_Pattern_SetOffset:00000000 $t
    {standard input}:1622   .text.DAC_Pattern_SetOffset:00000000 DAC_Pattern_SetOffset
    {standard input}:1764   .text.DAC_SingleValue_SetValue_s16:00000000 $t
    {standard input}:1769   .text.DAC_SingleValue_SetValue_s16:00000000 DAC_SingleValue_SetValue_s16
    {standard input}:1850   .text.DAC_SingleValue_SetValue_s16_Coupled:00000000 $t
    {standard input}:1855   .text.DAC_SingleValue_SetValue_s16_Coupled:00000000 DAC_SingleValue_SetValue_s16_Coupled
    {standard input}:1960   .text.DAC_SingleValue_SetValue_u16:00000000 $t
    {standard input}:1965   .text.DAC_SingleValue_SetValue_u16:00000000 DAC_SingleValue_SetValue_u16
    {standard input}:2024   .text.DAC_SingleValue_SetValue_u16_Coupled:00000000 $t
    {standard input}:2029   .text.DAC_SingleValue_SetValue_u16_Coupled:00000000 DAC_SingleValue_SetValue_u16_Coupled
    {standard input}:2093   .text.DAC_Ramp_SetStart:00000000 $t
    {standard input}:2098   .text.DAC_Ramp_SetStart:00000000 DAC_Ramp_SetStart
    {standard input}:2311   .text.DAC_Ramp_SetStart:0000016c $d
    {standard input}:2317   .text.DAC_Ramp_SetStop:00000000 $t
    {standard input}:2322   .text.DAC_Ramp_SetStop:00000000 DAC_Ramp_SetStop
    {standard input}:2535   .text.DAC_Ramp_SetStop:0000016c $d
    {standard input}:2541   .text.DAC_Ramp_SetFrequency:00000000 $t
    {standard input}:2546   .text.DAC_Ramp_SetFrequency:00000000 DAC_Ramp_SetFrequency
    {standard input}:2764   .text.DAC_Ramp_SetFrequency:00000164 $d
    {standard input}:2771   .text.DAC_Noise_SetAmplitude:00000000 $t
    {standard input}:2776   .text.DAC_Noise_SetAmplitude:00000000 DAC_Noise_SetAmplitude
                     .debug_frame:00000010 $d

UNDEFINED SYMBOLS
XMC_SCU_CLOCK_GetPeripheralClockFrequency
XMC_DAC_CH_SetFrequency
XMC_DAC_CH_StartPatternMode
XMC_DAC_CH_StartSingleValueMode
XMC_DAC_CH_StartDataMode
XMC_DAC_CH_StartRampMode
XMC_DAC_CH_StartNoiseMode
XMC_DAC_CH_Init
